ccollections
OrderedDict
p0
((lp1
(lp2
S'combination_dict'
p3
ag0
((lp4
(lp5
S'r_to_g_config'
p6
aS'tr'
p7
aa(lp8
S'num_turns'
p9
aI2
aa(lp10
S'start_direction'
p11
acutils_ms
StartDirection
p12
(I0
tp13
Rp14
aa(lp15
S'assistance_type'
p16
acutils_ms
AssistanceType
p17
(I1
tp18
Rp19
aa(lp20
S'start_mode'
p21
aS'y'
p22
aa(lp23
S'ui_given_a_noise'
p24
aF0.5
aa(lp25
S'um_given_ui_noise'
p26
aF0.7
aa(lp27
S'entropy_threshold'
p28
aF0.5
aatp29
Rp30
aa(lp31
S'data'
p32
accollections
defaultdict
p33
(c__builtin__
list
p34
tp35
Rp36
S'a'
p37
(lp38
S'mode_l'
p39
aS'move_p'
p40
ag40
ag40
aS'mode_r'
p41
ag39
ag40
ag39
ag40
ag41
ag39
ag41
ag40
ag41
ag39
ag40
ag39
ag39
ag40
asS'assistance_match_with_ground_truth'
p42
(lp43
I01
aI00
aI00
aI00
aI00
aI01
aI01
aI01
aI00
aI00
aI00
aI01
aI00
aI00
aI01
aI00
aI00
aI01
aI01
asS'is_u_intended_equals_um'
p44
(lp45
I01
aI01
aI01
aI01
aI01
aI01
aI01
aI01
aI01
aI01
aI01
aI01
aI01
aI01
aI01
aI01
aI00
aI01
aI01
asS'total_steps'
p46
I19
sS'normalized_h_of_p_ui_given_um'
p47
(lp48
cnumpy.core.multiarray
scalar
p49
(cnumpy
dtype
p50
(S'f8'
p51
I0
I1
tp52
Rp53
(I3
S'<'
p54
NNNI-1
I-1
I0
tp55
bS"J\xd9\xa77;'\xd9?"
p56
tp57
Rp58
ag49
(g53
S'\xb5\x83\xce\xdbY\xa1\xe3?'
p59
tp60
Rp61
ag49
(g53
S'\xb5\x83\xce\xdbY\xa1\xe3?'
p62
tp63
Rp64
ag49
(g53
S'|e.\x0eT?\xed?'
p65
tp66
Rp67
ag49
(g53
S')\x0c,m\xac\xf0\xeb?'
p68
tp69
Rp70
ag49
(g53
S"J\xd9\xa77;'\xd9?"
p71
tp72
Rp73
ag49
(g53
S'\xd7\xa7w\xed\x0f)\xde?'
p74
tp75
Rp76
ag49
(g53
S"J\xd9\xa77;'\xd9?"
p77
tp78
Rp79
ag49
(g53
S'|e.\x0eT?\xed?'
p80
tp81
Rp82
ag49
(g53
S'\x85\xe5\xaac\x8a`\xea?'
p83
tp84
Rp85
ag49
(g53
S'\x9e\x9cC\x80\xbb]\xe3?'
p86
tp87
Rp88
ag49
(g53
S'\r\x8c\x9c%\x0f\xb7\xcf?'
p89
tp90
Rp91
ag49
(g53
S'|e.\x0eT?\xed?'
p92
tp93
Rp94
ag49
(g53
S')\x0c,m\xac\xf0\xeb?'
p95
tp96
Rp97
ag49
(g53
S"J\xd9\xa77;'\xd9?"
p98
tp99
Rp100
ag49
(g53
S'\x88x\x87\x94\xa9\x9e\xe2?'
p101
tp102
Rp103
ag49
(g53
S'\x88FD\x10a\xc7\xe7?'
p104
tp105
Rp106
ag49
(g53
S"J\xd9\xa77;'\xd9?"
p107
tp108
Rp109
ag49
(g53
S'\xd7\xa7w\xed\x0f)\xde?'
p110
tp111
Rp112
asS'sp'
p113
(lp114
(S'p0'
p115
I0
S'x'
p116
tp117
a(g115
I0
g116
tp118
ag118
a(g115
I0
S't'
p119
tp120
a(g115
I0
S'y'
p121
tp122
ag117
a(S'p1'
p123
I0
g116
tp124
a(g123
I0
g119
tp125
a(g123
I0
g121
tp126
a(S'p2'
p127
I0
g121
tp128
a(g127
I0
g119
tp129
a(g127
I0
g116
tp130
a(g127
I0
g119
tp131
a(g127
I0
g121
tp132
a(g127
I0
g116
tp133
a(g127
I0
g121
tp134
a(g127
I0
g121
tp135
ag133
a(S'p3'
p136
I0
g116
tp137
asS's'
p138
(lp139
(g115
I0
g22
tp140
ag117
ag118
ag118
ag120
ag122
ag117
ag124
ag125
ag126
ag128
ag129
ag130
ag131
ag132
ag133
ag134
ag135
ag133
asS'ui'
p141
(lp142
S'hs'
p143
ag113
aS'ss'
p144
ag113
ag143
ag143
ag113
ag143
ag143
ag113
aS'hp'
p145
ag145
ag143
ag143
ag143
ag145
ag143
ag144
ag113
asS'um_before'
p146
(lp147
g143
ag144
ag144
ag143
ag143
ag143
ag113
ag143
ag143
ag113
ag145
ag145
ag143
ag143
ag143
ag145
ag113
ag143
ag113
asS'um_after'
p148
(lp149
g143
ag144
ag144
ag143
ag143
ag143
ag113
ag143
ag143
ag113
ag145
ag145
ag143
ag143
ag143
ag145
ag113
ag143
ag113
asS'is_normalized_entropy_less_than_threshold'
p150
(lp151
g49
(g50
(S'b1'
p152
I0
I1
tp153
Rp154
(I3
S'|'
p155
NNNI-1
I-1
I0
tp156
bS'\x01'
p157
tp158
Rp159
ag49
(g154
S'\x00'
p160
tp161
Rp162
ag162
ag162
ag162
ag159
ag159
ag159
ag162
ag162
ag162
ag159
ag162
ag162
ag159
ag162
ag162
ag159
ag159
asaa(lp163
S'index'
p164
aI12558
aatp165
Rp166
.