ccollections
OrderedDict
p0
((lp1
(lp2
S'combination_dict'
p3
ag0
((lp4
(lp5
S'r_to_g_config'
p6
aS'br'
p7
aa(lp8
S'num_turns'
p9
aI1
aa(lp10
S'start_direction'
p11
acutils_ms
StartDirection
p12
(I0
tp13
Rp14
aa(lp15
S'assistance_type'
p16
acutils_ms
AssistanceType
p17
(I0
tp18
Rp19
aa(lp20
S'start_mode'
p21
aS't'
p22
aa(lp23
S'ui_given_a_noise'
p24
aF0.1
aa(lp25
S'um_given_ui_noise'
p26
aF0.3
aa(lp27
S'entropy_threshold'
p28
aF0.8
aatp29
Rp30
aa(lp31
S'data'
p32
accollections
defaultdict
p33
(c__builtin__
list
p34
tp35
Rp36
S'a'
p37
(lp38
S'mode_r'
p39
ag39
ag39
aS'move_p'
p40
aS'mode_l'
p41
ag40
ag41
ag41
aS'move_n'
p42
asS'assistance_match_with_ground_truth'
p43
(lp44
I00
aI00
aI01
aI01
aI01
aI01
aI00
aI01
aI01
asS'is_u_intended_equals_um'
p45
(lp46
I00
aI00
aI01
aI01
aI01
aI01
aI00
aI01
aI01
asS'total_steps'
p47
I9
sS'normalized_h_of_p_ui_given_um'
p48
(lp49
cnumpy.core.multiarray
scalar
p50
(cnumpy
dtype
p51
(S'f8'
p52
I0
I1
tp53
Rp54
(I3
S'<'
p55
NNNI-1
I-1
I0
tp56
bS'\xc8\x1c\x1e1n\x83\xe2?'
p57
tp58
Rp59
ag50
(g54
S'\xc8\x1c\x1e1n\x83\xe2?'
p60
tp61
Rp62
ag50
(g54
S'\xb0\xcf\x85\xdbS\xb8\xb7?'
p63
tp64
Rp65
ag50
(g54
S'\x00\xe0\x02A\x1e\xa8\xac?'
p66
tp67
Rp68
ag50
(g54
S'\x04\xcc15u\x14\xb3?'
p69
tp70
Rp71
ag50
(g54
S'\x00\xe0\x02A\x1e\xa8\xac?'
p72
tp73
Rp74
ag50
(g54
S":\xfb'\x00\xc1\x91\xdb?"
p75
tp76
Rp77
ag50
(g54
S'\x04\xcc15u\x14\xb3?'
p78
tp79
Rp80
ag50
(g54
S' \x95\x03\xd5/\x19\xb9?'
p81
tp82
Rp83
asS'sp'
p84
(lp85
(S'p0'
p86
I0
g22
tp87
ag87
a(g86
I0
S'x'
p88
tp89
a(S'p1'
p90
I0
g88
tp91
a(g90
I0
S't'
p92
tp93
a(g90
F1.5707963267948966
g92
tp94
ag94
a(g90
F1.5707963267948966
S'y'
p95
tp96
a(S'p2'
p97
F1.5707963267948966
g95
tp98
asS's'
p99
(lp100
g87
ag87
ag87
ag89
ag91
ag93
ag94
ag94
ag96
asS'ui'
p101
(lp102
S'hp'
p103
ag103
ag103
ag84
aS'hs'
p104
ag84
ag104
ag104
aS'ss'
p105
asS'um_before'
p106
(lp107
g105
ag105
ag103
ag84
ag104
ag84
ag103
ag104
ag105
asS'um_after'
p108
(lp109
NaNag103
ag84
ag104
ag84
aNag104
ag105
asS'is_normalized_entropy_less_than_threshold'
p110
(lp111
g50
(g51
(S'b1'
p112
I0
I1
tp113
Rp114
(I3
S'|'
p115
NNNI-1
I-1
I0
tp116
bS'\x01'
p117
tp118
Rp119
ag119
ag119
ag119
ag119
ag119
ag119
ag119
ag119
asaa(lp120
S'index'
p121
aI86484
aatp122
Rp123
.