ccollections
OrderedDict
p0
((lp1
(lp2
S'combination_dict'
p3
ag0
((lp4
(lp5
S'r_to_g_config'
p6
aS'bl'
p7
aa(lp8
S'num_turns'
p9
aI3
aa(lp10
S'start_direction'
p11
acutils_ms
StartDirection
p12
(I0
tp13
Rp14
aa(lp15
S'assistance_type'
p16
acutils_ms
AssistanceType
p17
(I0
tp18
Rp19
aa(lp20
S'start_mode'
p21
aS'y'
p22
aa(lp23
S'ui_given_a_noise'
p24
aF0.7
aa(lp25
S'um_given_ui_noise'
p26
aF0.3
aa(lp27
S'entropy_threshold'
p28
aF0.6
aatp29
Rp30
aa(lp31
S'data'
p32
accollections
defaultdict
p33
(c__builtin__
list
p34
tp35
Rp36
S'a'
p37
(lp38
S'mode_l'
p39
aS'move_n'
p40
aS'mode_r'
p41
ag41
ag41
ag39
ag40
ag39
ag41
ag40
ag41
ag40
ag40
ag39
ag39
ag40
ag41
ag41
ag39
ag39
ag39
ag40
ag41
ag41
ag41
ag39
ag39
ag40
ag39
ag40
ag40
ag40
ag40
ag41
ag39
ag40
ag39
ag39
ag39
ag39
ag40
ag40
ag40
ag41
ag41
ag41
ag39
ag40
ag39
ag40
ag39
ag41
ag41
ag41
ag41
ag39
ag41
ag40
ag41
ag40
ag39
ag40
ag39
ag40
ag39
ag40
ag39
aS'move_p'
p42
ag39
ag40
ag39
ag39
ag40
ag41
ag39
ag40
asS'assistance_match_with_ground_truth'
p43
(lp44
I01
aI01
aI00
aI00
aI00
aI01
aI00
aI00
aI01
aI00
aI01
aI00
aI00
aI00
aI01
aI01
aI00
aI00
aI00
aI00
aI01
aI00
aI00
aI00
aI00
aI00
aI01
aI00
aI01
aI00
aI00
aI00
aI00
aI00
aI01
aI00
aI00
aI00
aI00
aI01
aI00
aI00
aI01
aI00
aI00
aI00
aI01
aI00
aI01
aI01
aI00
aI00
aI00
aI00
aI00
aI00
aI01
aI00
aI01
aI00
aI01
aI01
aI01
aI00
aI01
aI01
aI01
aI01
aI01
aI00
aI00
aI01
aI00
aI00
aI01
aI01
asS'is_u_intended_equals_um'
p45
(lp46
I01
aI01
aI01
aI01
aI01
aI01
aI01
aI01
aI01
aI01
aI01
aI01
aI01
aI01
aI01
aI01
aI01
aI01
aI01
aI01
aI01
aI01
aI01
aI01
aI01
aI01
aI01
aI01
aI01
aI01
aI01
aI01
aI01
aI01
aI01
aI01
aI01
aI01
aI01
aI01
aI01
aI01
aI01
aI01
aI01
aI01
aI01
aI01
aI01
aI01
aI01
aI01
aI01
aI01
aI01
aI01
aI01
aI01
aI01
aI01
aI01
aI01
aI01
aI01
aI01
aI01
aI01
aI01
aI01
aI01
aI01
aI01
aI01
aI01
aI01
aI01
asS'total_steps'
p47
I76
sS'normalized_h_of_p_ui_given_um'
p48
(lp49
cnumpy.core.multiarray
scalar
p50
(cnumpy
dtype
p51
(S'f8'
p52
I0
I1
tp53
Rp54
(I3
S'<'
p55
NNNI-1
I-1
I0
tp56
bS'\xf6)\x93\x9f^U\xd3?'
p57
tp58
Rp59
ag50
(g54
S'\xe18\x07{\x90\xa0\xd4?'
p60
tp61
Rp62
ag50
(g54
S'n\xf4\x01[\xbbe\xe2?'
p63
tp64
Rp65
ag50
(g54
S'n\xf4\x01[\xbbe\xe2?'
p66
tp67
Rp68
ag50
(g54
S'\x05\xa8}\xdd\xa3\x0f\xe5?'
p69
tp70
Rp71
ag50
(g54
S'\xf6)\x93\x9f^U\xd3?'
p72
tp73
Rp74
ag50
(g54
S' \nL\xbd.\xae\xe2?'
p75
tp76
Rp77
ag50
(g54
S'\x04\x0cYt\xe1\x08\xe4?'
p78
tp79
Rp80
ag50
(g54
S'j\x8dZ\xa5\xf6\xb6\xd3?'
p81
tp82
Rp83
ag50
(g54
S'\x9a\x96\xf6\x8e\xe2\xfa\xe6?'
p84
tp85
Rp86
ag50
(g54
S'j\x8dZ\xa5\xf6\xb6\xd3?'
p87
tp88
Rp89
ag50
(g54
S' \nL\xbd.\xae\xe2?'
p90
tp91
Rp92
ag50
(g54
S'\xec\x8fn\xe9j\x0f\xe4?'
p93
tp94
Rp95
ag50
(g54
S'H\xf6\xb9\xc2\xa8\x0c\xef?'
p96
tp97
Rp98
ag50
(g54
S'\xf6)\x93\x9f^U\xd3?'
p99
tp100
Rp101
ag50
(g54
S'\xe18\x07{\x90\xa0\xd4?'
p102
tp103
Rp104
ag50
(g54
S'n\xf4\x01[\xbbe\xe2?'
p105
tp106
Rp107
ag50
(g54
S'\x05\xa8}\xdd\xa3\x0f\xe5?'
p108
tp109
Rp110
ag50
(g54
S'H\xf6\xb9\xc2\xa8\x0c\xef?'
p111
tp112
Rp113
ag50
(g54
S'\xa7yJ\xb7\x15^\xde?'
p114
tp115
Rp116
ag50
(g54
S'\xf6)\x93\x9f^U\xd3?'
p117
tp118
Rp119
ag50
(g54
S'\x9a\x96\xf6\x8e\xe2\xfa\xe6?'
p120
tp121
Rp122
ag50
(g54
S'n\xf4\x01[\xbbe\xe2?'
p123
tp124
Rp125
ag50
(g54
S'?8D7]\x02\xe4?'
p126
tp127
Rp128
ag50
(g54
S'\x05\xa8}\xdd\xa3\x0f\xe5?'
p129
tp130
Rp131
ag50
(g54
S'\xa7yJ\xb7\x15^\xde?'
p132
tp133
Rp134
ag50
(g54
S'\xf6)\x93\x9f^U\xd3?'
p135
tp136
Rp137
ag50
(g54
S' \nL\xbd.\xae\xe2?'
p138
tp139
Rp140
ag50
(g54
S'\xf6)\x93\x9f^U\xd3?'
p141
tp142
Rp143
ag50
(g54
S' \nL\xbd.\xae\xe2?'
p144
tp145
Rp146
ag50
(g54
S' \nL\xbd.\xae\xe2?'
p147
tp148
Rp149
ag50
(g54
S' \nL\xbd.\xae\xe2?'
p150
tp151
Rp152
ag50
(g54
S'\x9a\x96\xf6\x8e\xe2\xfa\xe6?'
p153
tp154
Rp155
ag50
(g54
S'\x05\xa8}\xdd\xa3\x0f\xe5?'
p156
tp157
Rp158
ag50
(g54
S'\xf6)\x93\x9f^U\xd3?'
p159
tp160
Rp161
ag50
(g54
S'\xec\x8fn\xe9j\x0f\xe4?'
p162
tp163
Rp164
ag50
(g54
S'\xa7yJ\xb7\x15^\xde?'
p165
tp166
Rp167
ag50
(g54
S'H\xf6\xb9\xc2\xa8\x0c\xef?'
p168
tp169
Rp170
ag50
(g54
S'\xa7yJ\xb7\x15^\xde?'
p171
tp172
Rp173
ag50
(g54
S'\xf6)\x93\x9f^U\xd3?'
p174
tp175
Rp176
ag50
(g54
S' \nL\xbd.\xae\xe2?'
p177
tp178
Rp179
ag50
(g54
S' \nL\xbd.\xae\xe2?'
p180
tp181
Rp182
ag50
(g54
S'\xe18\x07{\x90\xa0\xd4?'
p183
tp184
Rp185
ag50
(g54
S'n\xf4\x01[\xbbe\xe2?'
p186
tp187
Rp188
ag50
(g54
S'n\xf4\x01[\xbbe\xe2?'
p189
tp190
Rp191
ag50
(g54
S'\x05\xa8}\xdd\xa3\x0f\xe5?'
p192
tp193
Rp194
ag50
(g54
S'\xf6)\x93\x9f^U\xd3?'
p195
tp196
Rp197
ag50
(g54
S'\xec\x8fn\xe9j\x0f\xe4?'
p198
tp199
Rp200
ag50
(g54
S'\xf6)\x93\x9f^U\xd3?'
p201
tp202
Rp203
ag50
(g54
S'\xe18\x07{\x90\xa0\xd4?'
p204
tp205
Rp206
ag50
(g54
S'\x04\x0cYt\xe1\x08\xe4?'
p207
tp208
Rp209
ag50
(g54
S'?8D7]\x02\xe4?'
p210
tp211
Rp212
ag50
(g54
S'n\xf4\x01[\xbbe\xe2?'
p213
tp214
Rp215
ag50
(g54
S'?8D7]\x02\xe4?'
p216
tp217
Rp218
ag50
(g54
S'\x05\xa8}\xdd\xa3\x0f\xe5?'
p219
tp220
Rp221
ag50
(g54
S'\x04\x0cYt\xe1\x08\xe4?'
p222
tp223
Rp224
ag50
(g54
S'j\x8dZ\xa5\xf6\xb6\xd3?'
p225
tp226
Rp227
ag50
(g54
S' \nL\xbd.\xae\xe2?'
p228
tp229
Rp230
ag50
(g54
S'j\x8dZ\xa5\xf6\xb6\xd3?'
p231
tp232
Rp233
ag50
(g54
S'\xec\x8fn\xe9j\x0f\xe4?'
p234
tp235
Rp236
ag50
(g54
S'\xf6)\x93\x9f^U\xd3?'
p237
tp238
Rp239
ag50
(g54
S'\xe18\x07{\x90\xa0\xd4?'
p240
tp241
Rp242
ag50
(g54
S'\xf6)\x93\x9f^U\xd3?'
p243
tp244
Rp245
ag50
(g54
S'\xec\x8fn\xe9j\x0f\xe4?'
p246
tp247
Rp248
ag50
(g54
S'\xf6)\x93\x9f^U\xd3?'
p249
tp250
Rp251
ag50
(g54
S'\xe18\x07{\x90\xa0\xd4?'
p252
tp253
Rp254
ag50
(g54
S'\xf6)\x93\x9f^U\xd3?'
p255
tp256
Rp257
ag50
(g54
S'\xe3Z]\xbc\xf1\xdf\xd5?'
p258
tp259
Rp260
ag50
(g54
S'\xf6)\x93\x9f^U\xd3?'
p261
tp262
Rp263
ag50
(g54
S'\xec\x8fn\xe9j\x0f\xe4?'
p264
tp265
Rp266
ag50
(g54
S'\xa7yJ\xb7\x15^\xde?'
p267
tp268
Rp269
ag50
(g54
S'\xf6)\x93\x9f^U\xd3?'
p270
tp271
Rp272
ag50
(g54
S'\x9a\x96\xf6\x8e\xe2\xfa\xe6?'
p273
tp274
Rp275
ag50
(g54
S'\x05\xa8}\xdd\xa3\x0f\xe5?'
p276
tp277
Rp278
ag50
(g54
S'\xf6)\x93\x9f^U\xd3?'
p279
tp280
Rp281
ag50
(g54
S'\xe18\x07{\x90\xa0\xd4?'
p282
tp283
Rp284
asS'sp'
p285
(lp286
(S'p0'
p287
I0
S'x'
p288
tp289
a(S'p1'
p290
I0
g288
tp291
a(g290
I0
g288
tp292
ag292
a(g290
I0
S't'
p293
tp294
a(g290
I0
S'y'
p295
tp296
a(g287
I0
g295
tp297
a(g287
I0
g293
tp298
a(g287
I0
g288
tp299
a(g287
I0
g293
tp300
ag299
a(g287
I0
g288
tp301
a(g287
I0
g295
tp302
a(g287
I0
g295
tp303
ag289
ag291
ag292
ag294
a(g290
I0
g293
tp304
a(g290
I0
g293
tp305
ag296
a(g290
I0
g288
tp306
ag292
a(g290
I0
g288
tp307
ag294
ag305
ag296
ag297
ag289
ag301
ag301
ag301
ag300
a(g287
I0
g295
tp308
ag289
ag302
a(g287
I0
g295
tp309
ag303
ag309
ag289
ag301
ag301
ag291
ag292
ag292
ag294
ag296
a(g290
I0
g293
tp310
ag296
a(S'p2'
p311
I0
g295
tp312
a(g311
I0
g293
tp313
a(g311
I0
g293
tp314
a(g311
I0
g293
tp315
ag314
a(g311
I0
g295
tp316
ag313
a(g311
I0
g288
tp317
a(g290
I0
g288
tp318
a(g290
I0
g295
tp319
ag310
ag296
ag312
a(g311
I0
g288
tp320
a(g311
I0
g295
tp321
ag320
a(S'p3'
p322
I0
g288
tp323
a(g322
I0
g293
tp324
a(g322
F1.5707963267948966
g293
tp325
a(g322
F1.5707963267948966
g295
tp326
a(g322
F1.5707963267948966
g293
tp327
a(g322
F1.5707963267948966
g293
tp328
ag326
a(g322
F1.5707963267948966
g288
tp329
a(g322
F1.5707963267948966
g293
tp330
ag326
a(S'p4'
p331
F1.5707963267948966
g295
tp332
asS's'
p333
(lp334
(g287
I0
g22
tp335
ag289
ag291
ag292
ag292
ag294
ag296
ag297
ag298
ag299
ag300
ag299
ag301
ag302
ag303
ag289
ag291
ag292
ag294
ag304
ag305
ag296
ag306
ag292
ag307
ag294
ag305
ag296
ag297
ag289
ag301
ag301
ag301
ag300
ag308
ag289
ag302
ag309
ag303
ag309
ag289
ag301
ag301
ag291
ag292
ag292
ag294
ag296
ag310
ag296
ag312
ag313
ag314
ag315
ag314
ag316
ag313
ag317
ag318
ag319
ag310
ag296
ag312
ag320
ag321
ag320
ag323
ag324
ag325
ag326
ag327
ag328
ag326
ag329
ag330
ag326
asS'ui'
p336
(lp337
S'hs'
p338
aS'ss'
p339
ag338
ag285
ag338
ag338
ag285
aS'hp'
p340
ag340
ag338
ag340
ag285
ag340
ag338
ag285
ag339
ag285
ag338
ag285
ag285
ag338
ag338
ag285
ag339
ag340
ag285
ag338
ag285
ag338
ag285
ag285
ag338
ag338
ag338
ag338
ag338
ag285
ag340
ag285
ag338
ag285
ag285
ag339
ag285
ag285
ag338
ag338
ag339
ag338
ag340
ag285
ag339
ag285
ag285
ag340
ag340
ag340
ag285
ag340
ag340
ag338
ag339
ag338
ag339
ag338
ag339
ag338
ag338
ag338
ag340
ag285
ag338
ag340
ag340
ag338
ag340
asS'um_before'
p341
(lp342
g338
ag339
ag285
ag285
ag338
ag338
ag285
ag340
ag340
ag338
ag340
ag285
ag340
ag339
ag338
ag339
ag285
ag338
ag339
ag285
ag338
ag338
ag285
ag339
ag338
ag285
ag338
ag285
ag338
ag285
ag285
ag285
ag338
ag338
ag338
ag340
ag285
ag339
ag285
ag338
ag285
ag285
ag339
ag285
ag285
ag338
ag338
ag340
ag338
ag339
ag340
ag339
ag285
ag339
ag338
ag340
ag340
ag285
ag340
ag340
ag338
ag339
ag338
ag340
ag338
ag339
ag338
ag285
ag338
ag340
ag285
ag338
ag338
ag338
ag338
ag339
asS'um_after'
p343
(lp344
g338
ag339
ag285
ag285
ag338
ag338
ag285
ag340
ag340
ag338
ag340
ag285
ag340
ag339
ag338
ag339
ag285
ag338
ag339
ag285
ag338
ag338
ag285
ag339
ag338
ag285
ag338
ag285
ag338
ag285
ag285
ag285
ag338
ag338
ag338
ag340
ag285
ag339
ag285
ag338
ag285
ag285
ag339
ag285
ag285
ag338
ag338
ag340
ag338
ag339
ag340
ag339
ag285
ag339
ag338
ag340
ag340
ag285
ag340
ag340
ag338
ag339
ag338
ag340
ag338
ag339
ag338
ag285
ag338
ag340
ag285
ag338
ag338
ag338
ag338
ag339
asS'is_normalized_entropy_less_than_threshold'
p345
(lp346
g50
(g51
(S'b1'
p347
I0
I1
tp348
Rp349
(I3
S'|'
p350
NNNI-1
I-1
I0
tp351
bS'\x01'
p352
tp353
Rp354
ag354
ag354
ag354
ag50
(g349
S'\x00'
p355
tp356
Rp357
ag354
ag354
ag357
ag354
ag357
ag354
ag354
ag357
ag357
ag354
ag354
ag354
ag357
ag357
ag354
ag354
ag357
ag354
ag357
ag357
ag354
ag354
ag354
ag354
ag354
ag354
ag354
ag357
ag357
ag354
ag357
ag354
ag357
ag354
ag354
ag354
ag354
ag354
ag354
ag354
ag357
ag354
ag357
ag354
ag354
ag357
ag357
ag354
ag357
ag357
ag357
ag354
ag354
ag354
ag357
ag354
ag354
ag354
ag357
ag354
ag354
ag354
ag354
ag354
ag357
ag354
ag354
ag357
ag357
ag354
ag354
asaa(lp358
S'index'
p359
aI78266
aatp360
Rp361
.