ccollections
OrderedDict
p0
((lp1
(lp2
S'combination_dict'
p3
ag0
((lp4
(lp5
S'r_to_g_config'
p6
aS'tl'
p7
aa(lp8
S'num_turns'
p9
aI2
aa(lp10
S'start_direction'
p11
acutils_ms
StartDirection
p12
(I1
tp13
Rp14
aa(lp15
S'assistance_type'
p16
acutils_ms
AssistanceType
p17
(I0
tp18
Rp19
aa(lp20
S'start_mode'
p21
aS'x'
p22
aa(lp23
S'ui_given_a_noise'
p24
aF0.7
aa(lp25
S'um_given_ui_noise'
p26
aF0.7
aa(lp27
S'entropy_threshold'
p28
aF0.8
aatp29
Rp30
aa(lp31
S'data'
p32
accollections
defaultdict
p33
(c__builtin__
list
p34
tp35
Rp36
S'a'
p37
(lp38
S'mode_r'
p39
aS'move_p'
p40
aS'mode_l'
p41
ag41
ag41
ag41
aS'move_n'
p42
ag39
ag41
ag41
ag41
ag41
ag41
ag41
ag41
ag41
ag40
ag41
ag42
ag39
ag40
ag40
ag41
ag41
ag41
ag41
ag41
ag39
ag39
ag39
ag41
ag41
ag41
ag39
ag41
ag40
ag40
ag41
ag41
ag40
ag41
ag41
ag41
ag41
ag41
ag40
ag40
ag40
ag41
ag41
ag42
ag41
ag42
ag41
ag41
ag40
ag40
ag41
ag40
asS'assistance_match_with_ground_truth'
p43
(lp44
I01
aI01
aI00
aI00
aI00
aI01
aI00
aI00
aI00
aI00
aI00
aI00
aI00
aI00
aI00
aI01
aI01
aI01
aI00
aI01
aI00
aI00
aI00
aI00
aI00
aI00
aI00
aI00
aI00
aI00
aI00
aI00
aI00
aI00
aI01
aI00
aI00
aI00
aI01
aI00
aI00
aI00
aI00
aI00
aI01
aI00
aI00
aI01
aI00
aI01
aI00
aI01
aI01
aI00
aI01
aI00
aI01
aI01
aI01
asS'is_u_intended_equals_um'
p45
(lp46
I01
aI01
aI00
aI00
aI00
aI01
aI00
aI01
aI00
aI00
aI00
aI00
aI00
aI00
aI00
aI01
aI01
aI01
aI00
aI01
aI00
aI00
aI00
aI00
aI00
aI00
aI00
aI00
aI00
aI01
aI00
aI00
aI00
aI01
aI01
aI00
aI00
aI00
aI01
aI00
aI00
aI00
aI00
aI00
aI01
aI00
aI00
aI01
aI00
aI01
aI01
aI01
aI01
aI00
aI01
aI00
aI01
aI01
aI01
asS'total_steps'
p47
I59
sS'normalized_h_of_p_ui_given_um'
p48
(lp49
cnumpy.core.multiarray
scalar
p50
(cnumpy
dtype
p51
(S'f8'
p52
I0
I1
tp53
Rp54
(I3
S'<'
p55
NNNI-1
I-1
I0
tp56
bS'\x9a,\xf4\xc8?\xaa\xdd?'
p57
tp58
Rp59
ag50
(g54
S'^\xbaYG.>\xe4?'
p60
tp61
Rp62
ag50
(g54
S'Dt\xe4An\x16\xeb?'
p63
tp64
Rp65
ag50
(g54
S'\xae\x07)>\xbfQ\xe7?'
p66
tp67
Rp68
ag50
(g54
S'Dt\xe4An\x16\xeb?'
p69
tp70
Rp71
ag50
(g54
S'\x01@\xd0r\xc3\xd9\xd6?'
p72
tp73
Rp74
ag50
(g54
S'\x17\xbb\x9c\x84t\xd2\xec?'
p75
tp76
Rp77
ag50
(g54
S'\xb88\xf3Q\xd4!\xe8?'
p78
tp79
Rp80
ag50
(g54
S'\xae\x07)>\xbfQ\xe7?'
p81
tp82
Rp83
ag50
(g54
S'Dt\xe4An\x16\xeb?'
p84
tp85
Rp86
ag50
(g54
S'\xae\x07)>\xbfQ\xe7?'
p87
tp88
Rp89
ag50
(g54
S'Dt\xe4An\x16\xeb?'
p90
tp91
Rp92
ag50
(g54
S'Dt\xe4An\x16\xeb?'
p93
tp94
Rp95
ag50
(g54
S'\xae\x07)>\xbfQ\xe7?'
p96
tp97
Rp98
ag50
(g54
S'\xae\x07)>\xbfQ\xe7?'
p99
tp100
Rp101
ag50
(g54
S'\x01@\xd0r\xc3\xd9\xd6?'
p102
tp103
Rp104
ag50
(g54
S'^\xbaYG.>\xe4?'
p105
tp106
Rp107
ag50
(g54
S'\x01@\xd0r\xc3\xd9\xd6?'
p108
tp109
Rp110
ag50
(g54
S'\x17\xbb\x9c\x84t\xd2\xec?'
p111
tp112
Rp113
ag50
(g54
S'\x9a,\xf4\xc8?\xaa\xdd?'
p114
tp115
Rp116
ag50
(g54
S'Hf\x95\x0b#\x9f\xe6?'
p117
tp118
Rp119
ag50
(g54
S'\x84\xf5RE\xcd+\xea?'
p120
tp121
Rp122
ag50
(g54
S'Dt\xe4An\x16\xeb?'
p123
tp124
Rp125
ag50
(g54
S'Dt\xe4An\x16\xeb?'
p126
tp127
Rp128
ag50
(g54
S'Dt\xe4An\x16\xeb?'
p129
tp130
Rp131
ag50
(g54
S'\xae\x07)>\xbfQ\xe7?'
p132
tp133
Rp134
ag50
(g54
S'\xbd"\n \xd73\xea?'
p135
tp136
Rp137
ag50
(g54
S'l\x8f\x05\xc5\xc1\x11\xef?'
p138
tp139
Rp140
ag50
(g54
S'l\x8f\x05\xc5\xc1\x11\xef?'
p141
tp142
Rp143
ag50
(g54
S'\xb88\xf3Q\xd4!\xe8?'
p144
tp145
Rp146
ag50
(g54
S'\xae\x07)>\xbfQ\xe7?'
p147
tp148
Rp149
ag50
(g54
S'Dt\xe4An\x16\xeb?'
p150
tp151
Rp152
ag50
(g54
S'\xbd"\n \xd73\xea?'
p153
tp154
Rp155
ag50
(g54
S'\xb88\xf3Q\xd4!\xe8?'
p156
tp157
Rp158
ag50
(g54
S'\x01@\xd0r\xc3\xd9\xd6?'
p159
tp160
Rp161
ag50
(g54
S'Hf\x95\x0b#\x9f\xe6?'
p162
tp163
Rp164
ag50
(g54
S'\x84\xf5RE\xcd+\xea?'
p165
tp166
Rp167
ag50
(g54
S'\xae\x07)>\xbfQ\xe7?'
p168
tp169
Rp170
ag50
(g54
S'\x01@\xd0r\xc3\xd9\xd6?'
p171
tp172
Rp173
ag50
(g54
S'\x84\xf5RE\xcd+\xea?'
p174
tp175
Rp176
ag50
(g54
S'Dt\xe4An\x16\xeb?'
p177
tp178
Rp179
ag50
(g54
S'Dt\xe4An\x16\xeb?'
p180
tp181
Rp182
ag50
(g54
S'Dt\xe4An\x16\xeb?'
p183
tp184
Rp185
ag50
(g54
S'\xae\x07)>\xbfQ\xe7?'
p186
tp187
Rp188
ag50
(g54
S'\x01@\xd0r\xc3\xd9\xd6?'
p189
tp190
Rp191
ag50
(g54
S'Hf\x95\x0b#\x9f\xe6?'
p192
tp193
Rp194
ag50
(g54
S'Hf\x95\x0b#\x9f\xe6?'
p195
tp196
Rp197
ag50
(g54
S'^\xbaYG.>\xe4?'
p198
tp199
Rp200
ag50
(g54
S'\xae\x07)>\xbfQ\xe7?'
p201
tp202
Rp203
ag50
(g54
S'\x01@\xd0r\xc3\xd9\xd6?'
p204
tp205
Rp206
ag50
(g54
S'\x1a\x89\xb4\xe2&\xdf\xe7?'
p207
tp208
Rp209
ag50
(g54
S'\x01@\xd0r\xc3\xd9\xd6?'
p210
tp211
Rp212
ag50
(g54
S'>{l\x9d|\x90\xe8?'
p213
tp214
Rp215
ag50
(g54
S'Dt\xe4An\x16\xeb?'
p216
tp217
Rp218
ag50
(g54
S'\x01@\xd0r\xc3\xd9\xd6?'
p219
tp220
Rp221
ag50
(g54
S'v\n\xe8B\x9c\xf8\xe2?'
p222
tp223
Rp224
ag50
(g54
S'^\xbaYG.>\xe4?'
p225
tp226
Rp227
ag50
(g54
S'\x01@\xd0r\xc3\xd9\xd6?'
p228
tp229
Rp230
ag50
(g54
S'^\xbaYG.>\xe4?'
p231
tp232
Rp233
asS'sp'
p234
(lp235
(S'p0'
p236
I0
S'y'
p237
tp238
a(S'p1'
p239
I0
g237
tp240
a(g239
I0
g237
tp241
ag241
ag241
a(g239
I0
S'x'
p242
tp243
a(g236
I0
g242
tp244
a(g236
I0
S't'
p245
tp246
ag246
a(g236
I0
g245
tp247
ag247
ag247
ag247
ag247
ag247
a(g236
I0
g237
tp248
ag240
ag243
ag244
ag238
ag238
a(g236
I0
g245
tp249
ag247
ag247
ag247
ag247
a(g236
I0
g242
tp250
a(g236
I0
g242
tp251
ag251
ag246
ag246
ag247
ag250
ag246
ag248
ag248
ag249
ag249
ag248
ag249
ag247
ag247
ag247
ag247
ag248
ag248
ag248
ag240
ag240
ag243
a(g239
I0
g237
tp252
ag243
a(S'p2'
p253
I0
g242
tp254
a(g253
I0
g242
tp255
a(g253
I0
g245
tp256
ag256
a(g253
F1.5707963267948966
g245
tp257
a(g253
F1.5707963267948966
g237
tp258
a(S'p3'
p259
F1.5707963267948966
g237
tp260
asS's'
p261
(lp262
(g236
I0
g22
tp263
ag238
ag240
ag241
ag241
ag241
ag243
ag244
ag246
ag246
ag247
ag247
ag247
ag247
ag247
ag247
ag248
ag240
ag243
ag244
ag238
ag238
ag249
ag247
ag247
ag247
ag247
ag250
ag251
ag251
ag246
ag246
ag247
ag250
ag246
ag248
ag248
ag249
ag249
ag248
ag249
ag247
ag247
ag247
ag247
ag248
ag248
ag248
ag240
ag240
ag243
ag252
ag243
ag254
ag255
ag256
ag256
ag257
ag258
asS'ui'
p264
(lp265
g234
ag234
aS'hs'
p266
ag266
aS'ss'
p267
ag266
ag234
aS'hp'
p268
ag267
ag267
ag267
ag234
ag267
ag267
ag266
ag266
ag267
ag266
ag267
ag268
ag234
ag234
ag267
ag266
ag234
ag267
ag266
ag266
ag234
ag266
ag234
ag267
ag234
ag234
ag234
ag267
ag267
ag267
ag266
ag268
ag267
ag266
ag266
ag267
ag234
ag267
ag234
ag234
ag266
ag266
ag268
ag266
ag267
ag267
ag266
ag234
ag267
ag266
ag234
asS'um_before'
p269
(lp270
g268
ag234
ag234
ag267
ag234
ag266
ag234
ag266
ag267
ag234
ag267
ag234
ag234
ag267
ag267
ag266
ag234
ag266
ag234
ag268
ag267
ag268
ag234
ag234
ag234
ag267
ag268
ag234
ag234
ag266
ag267
ag234
ag268
ag266
ag266
ag267
ag268
ag267
ag266
ag268
ag234
ag234
ag234
ag267
ag266
ag267
ag267
ag234
ag267
ag266
ag268
ag266
ag267
ag234
ag266
ag266
ag234
ag266
ag234
asS'um_after'
p271
(lp272
g268
ag234
ag234
aNag234
ag266
ag234
ag266
aNag234
aNag234
ag234
aNaNag266
ag234
ag266
ag234
ag268
aNag268
ag234
ag234
ag234
aNag268
ag234
ag234
ag266
aNag234
ag268
ag266
ag266
aNag268
aNag266
ag268
ag234
ag234
ag234
aNag266
aNaNag234
aNag266
ag268
ag266
ag267
ag234
ag266
aNag234
ag266
ag234
asS'is_normalized_entropy_less_than_threshold'
p273
(lp274
g50
(g51
(S'b1'
p275
I0
I1
tp276
Rp277
(I3
S'|'
p278
NNNI-1
I-1
I0
tp279
bS'\x01'
p280
tp281
Rp282
ag282
ag50
(g277
S'\x00'
p283
tp284
Rp285
ag282
ag285
ag282
ag285
ag282
ag282
ag285
ag282
ag285
ag285
ag282
ag282
ag282
ag282
ag282
ag285
ag282
ag282
ag285
ag285
ag285
ag285
ag282
ag285
ag285
ag285
ag282
ag282
ag285
ag285
ag282
ag282
ag282
ag285
ag282
ag282
ag285
ag285
ag285
ag285
ag282
ag282
ag282
ag282
ag282
ag282
ag282
ag282
ag282
ag282
ag285
ag282
ag282
ag282
ag282
ag282
asaa(lp286
S'index'
p287
aI43982
aatp288
Rp289
.