ccollections
OrderedDict
p0
((lp1
(lp2
S'combination_dict'
p3
ag0
((lp4
(lp5
S'r_to_g_config'
p6
aS'br'
p7
aa(lp8
S'num_turns'
p9
aI3
aa(lp10
S'start_direction'
p11
acutils_ms
StartDirection
p12
(I0
tp13
Rp14
aa(lp15
S'assistance_type'
p16
acutils_ms
AssistanceType
p17
(I0
tp18
Rp19
aa(lp20
S'start_mode'
p21
aS'y'
p22
aa(lp23
S'ui_given_a_noise'
p24
aF0.3
aa(lp25
S'um_given_ui_noise'
p26
aF0.7
aa(lp27
S'entropy_threshold'
p28
aF0.7
aatp29
Rp30
aa(lp31
S'data'
p32
accollections
defaultdict
p33
(c__builtin__
list
p34
tp35
Rp36
S'a'
p37
(lp38
S'mode_l'
p39
aS'move_p'
p40
aS'mode_r'
p41
ag41
ag41
ag41
ag41
ag41
ag41
ag41
ag41
ag41
ag41
aS'move_n'
p42
ag39
ag39
ag39
ag40
ag40
ag39
ag40
ag39
ag39
ag39
ag42
ag39
ag40
ag41
ag42
asS'assistance_match_with_ground_truth'
p43
(lp44
I01
aI01
aI00
aI00
aI00
aI00
aI00
aI00
aI00
aI00
aI00
aI00
aI01
aI01
aI00
aI00
aI01
aI00
aI01
aI01
aI01
aI00
aI00
aI01
aI00
aI01
aI01
aI01
aI01
asS'is_u_intended_equals_um'
p45
(lp46
I01
aI01
aI00
aI00
aI00
aI00
aI00
aI00
aI00
aI00
aI00
aI00
aI01
aI01
aI00
aI00
aI01
aI00
aI01
aI01
aI01
aI00
aI00
aI01
aI01
aI01
aI01
aI01
aI01
asS'total_steps'
p47
I29
sS'normalized_h_of_p_ui_given_um'
p48
(lp49
cnumpy.core.multiarray
scalar
p50
(cnumpy
dtype
p51
(S'f8'
p52
I0
I1
tp53
Rp54
(I3
S'<'
p55
NNNI-1
I-1
I0
tp56
bS'\xce\x9b\xec\x89?\x15\xc3?'
p57
tp58
Rp59
ag50
(g54
S'\xc9n!xj\xbb\xc3?'
p60
tp61
Rp62
ag50
(g54
S'\xe6q\x068W\r\xe5?'
p63
tp64
Rp65
ag50
(g54
S'\xe6q\x068W\r\xe5?'
p66
tp67
Rp68
ag50
(g54
S'p\x85}\x987\x8b\xeb?'
p69
tp70
Rp71
ag50
(g54
S'\x00<\xb9CXc\xe6?'
p72
tp73
Rp74
ag50
(g54
S'p\x85}\x987\x8b\xeb?'
p75
tp76
Rp77
ag50
(g54
S'p\x85}\x987\x8b\xeb?'
p78
tp79
Rp80
ag50
(g54
S'\xe6q\x068W\r\xe5?'
p81
tp82
Rp83
ag50
(g54
S'\x00<\xb9CXc\xe6?'
p84
tp85
Rp86
ag50
(g54
S'\x00<\xb9CXc\xe6?'
p87
tp88
Rp89
ag50
(g54
S'\xe6q\x068W\r\xe5?'
p90
tp91
Rp92
ag50
(g54
S'f\x08\x19>\xedz\xe1?'
p93
tp94
Rp95
ag50
(g54
S'E\xa3\xb9\xa1\x00Q\xd4?'
p96
tp97
Rp98
ag50
(g54
S'F\x91\xfb\x99\xddG\xdd?'
p99
tp100
Rp101
ag50
(g54
S'x\xf4\xd7\x8c^\x10\xe5?'
p102
tp103
Rp104
ag50
(g54
S'\xce\x9b\xec\x89?\x15\xc3?'
p105
tp106
Rp107
ag50
(g54
S'4\xadm\x7f\xdcR\xe0?'
p108
tp109
Rp110
ag50
(g54
S'\xc9n!xj\xbb\xc3?'
p111
tp112
Rp113
ag50
(g54
S'\xce\x9b\xec\x89?\x15\xc3?'
p114
tp115
Rp116
ag50
(g54
S'\xc9n!xj\xbb\xc3?'
p117
tp118
Rp119
ag50
(g54
S'~\x08.\xbf\xa5\x14\xe1?'
p120
tp121
Rp122
ag50
(g54
S'x\xf4\xd7\x8c^\x10\xe5?'
p123
tp124
Rp125
ag50
(g54
S'\xce\x9b\xec\x89?\x15\xc3?'
p126
tp127
Rp128
ag50
(g54
S'\xa6\xd6\x07/\xe5\r\xd9?'
p129
tp130
Rp131
ag50
(g54
S'\xce\x9b\xec\x89?\x15\xc3?'
p132
tp133
Rp134
ag50
(g54
S'\xc9n!xj\xbb\xc3?'
p135
tp136
Rp137
ag50
(g54
S'f\x08\x19>\xedz\xe1?'
p138
tp139
Rp140
ag50
(g54
S'E\xa3\xb9\xa1\x00Q\xd4?'
p141
tp142
Rp143
asS'sp'
p144
(lp145
(S'p0'
p146
I0
S'x'
p147
tp148
a(S'p1'
p149
I0
g147
tp150
ag150
ag150
a(g149
I0
g147
tp151
ag151
ag151
ag151
ag151
ag151
ag151
ag151
a(g149
I0
S'y'
p152
tp153
a(S'p2'
p154
I0
g152
tp155
ag155
ag155
a(g154
I0
g147
tp156
ag156
a(S'p3'
p157
I0
g147
tp158
a(g157
I0
S't'
p159
tp160
a(g157
F1.5707963267948966
g159
tp161
ag161
ag161
a(g157
F1.5707963267948966
g152
tp162
a(g154
F1.5707963267948966
g152
tp163
a(g154
F1.5707963267948966
g147
tp164
a(g157
F1.5707963267948966
g147
tp165
a(g157
F1.5707963267948966
g152
tp166
a(S'p4'
p167
F1.5707963267948966
g152
tp168
asS's'
p169
(lp170
(g146
I0
g22
tp171
ag148
ag150
ag150
ag150
ag151
ag151
ag151
ag151
ag151
ag151
ag151
ag151
ag153
ag155
ag155
ag155
ag156
ag156
ag158
ag160
ag161
ag161
ag161
ag162
ag163
ag164
ag165
ag166
asS'ui'
p172
(lp173
S'hs'
p174
ag144
ag144
aS'hp'
p175
ag175
ag175
ag175
ag174
ag175
ag175
ag175
ag144
ag175
aS'ss'
p176
ag174
ag174
ag174
ag176
ag144
ag144
ag144
ag174
ag174
ag174
ag144
ag174
ag144
ag175
ag176
asS'um_before'
p177
(lp178
g174
ag144
ag144
ag144
ag176
ag174
ag176
ag176
ag144
ag174
ag174
ag144
ag175
ag176
ag175
ag176
ag174
ag176
ag144
ag174
ag144
ag144
ag176
ag174
ag144
ag174
ag144
ag175
ag176
asS'um_after'
p179
(lp180
g174
ag144
aNaNag176
aNag176
ag176
aNaNaNaNag175
ag176
aNaNag174
aNag144
ag174
ag144
aNaNag174
ag144
ag174
ag144
ag175
ag176
asS'is_normalized_entropy_less_than_threshold'
p181
(lp182
g50
(g51
(S'b1'
p183
I0
I1
tp184
Rp185
(I3
S'|'
p186
NNNI-1
I-1
I0
tp187
bS'\x01'
p188
tp189
Rp190
ag190
ag190
ag190
ag50
(g185
S'\x00'
p191
tp192
Rp193
ag190
ag193
ag193
ag190
ag190
ag190
ag190
ag190
ag190
ag190
ag190
ag190
ag190
ag190
ag190
ag190
ag190
ag190
ag190
ag190
ag190
ag190
ag190
ag190
asaa(lp194
S'index'
p195
aI106771
aatp196
Rp197
.