ccollections
OrderedDict
p0
((lp1
(lp2
S'combination_dict'
p3
ag0
((lp4
(lp5
S'r_to_g_config'
p6
aS'bl'
p7
aa(lp8
S'num_turns'
p9
aI2
aa(lp10
S'start_direction'
p11
acutils_ms
StartDirection
p12
(I0
tp13
Rp14
aa(lp15
S'assistance_type'
p16
acutils_ms
AssistanceType
p17
(I2
tp18
Rp19
aa(lp20
S'start_mode'
p21
aS't'
p22
aa(lp23
S'ui_given_a_noise'
p24
aF0.5
aa(lp25
S'um_given_ui_noise'
p26
aF0.3
aa(lp27
S'entropy_threshold'
p28
aF0.8
aatp29
Rp30
aa(lp31
S'data'
p32
accollections
defaultdict
p33
(c__builtin__
list
p34
tp35
Rp36
S'a'
p37
(lp38
S'mode_r'
p39
aS'move_n'
p40
aS'mode_l'
p41
ag41
ag39
ag39
ag39
ag39
ag39
ag40
ag39
ag40
ag41
ag41
ag39
ag40
ag41
ag41
ag40
ag40
ag41
ag41
ag41
ag40
ag41
ag41
ag41
ag40
ag40
ag41
ag41
aS'move_p'
p42
ag41
ag39
ag40
ag41
ag39
ag41
ag40
ag39
ag40
ag41
ag40
ag41
ag41
ag39
ag41
ag40
ag41
ag41
ag41
ag40
asS'assistance_match_with_ground_truth'
p43
(lp44
I01
aI00
aI00
aI00
aI00
aI00
aI00
aI00
aI01
aI00
aI01
aI00
aI00
aI00
aI01
aI00
aI00
aI01
aI00
aI00
aI00
aI00
aI01
aI00
aI00
aI00
aI01
aI00
aI01
aI00
aI01
aI01
aI00
aI01
aI01
aI00
aI00
aI01
aI00
aI01
aI00
aI01
aI00
aI00
aI00
aI00
aI01
aI00
aI00
aI00
aI01
aI01
asS'is_u_intended_equals_um'
p45
(lp46
I01
aI01
aI01
aI01
aI01
aI01
aI01
aI01
aI01
aI01
aI01
aI01
aI01
aI01
aI01
aI01
aI01
aI01
aI01
aI01
aI01
aI01
aI01
aI01
aI01
aI01
aI01
aI01
aI01
aI01
aI01
aI01
aI01
aI01
aI01
aI01
aI01
aI01
aI01
aI01
aI01
aI01
aI01
aI01
aI01
aI01
aI01
aI01
aI01
aI01
aI01
aI01
asS'total_steps'
p47
I52
sS'normalized_h_of_p_ui_given_um'
p48
(lp49
cnumpy.core.multiarray
scalar
p50
(cnumpy
dtype
p51
(S'f8'
p52
I0
I1
tp53
Rp54
(I3
S'<'
p55
NNNI-1
I-1
I0
tp56
bS'\x8a\t\xc0>^M\xd6?'
p57
tp58
Rp59
ag59
ag59
ag59
ag59
ag59
ag59
ag59
ag59
ag59
ag59
ag59
ag59
ag59
ag59
ag59
ag59
ag59
ag59
ag59
ag59
ag59
ag59
ag59
ag59
ag59
ag59
ag59
ag59
ag59
ag59
ag59
ag59
ag59
ag59
ag59
ag59
ag59
ag59
ag59
ag59
ag59
ag59
ag59
ag59
ag59
ag59
ag59
ag59
ag59
ag59
ag59
asS'sp'
p60
(lp61
(S'p0'
p62
I0
S'x'
p63
tp64
a(g62
I0
S'y'
p65
tp66
a(g62
I0
g65
tp67
a(g62
I0
S't'
p68
tp69
a(g62
I0
g68
tp70
ag70
a(g62
I0
g68
tp71
ag71
ag64
a(g62
I0
g68
tp72
ag64
ag66
a(g62
I0
g65
tp73
ag69
ag64
ag66
ag73
a(g62
I0
g63
tp74
a(g62
I0
g63
tp75
ag66
ag73
ag73
ag74
ag66
ag67
ag73
ag74
ag75
a(S'p1'
p76
I0
g63
tp77
a(g76
I0
g63
tp78
a(g76
I0
g68
tp79
a(g76
F1.5707963267948966
g68
tp80
a(g76
F1.5707963267948966
g63
tp81
a(g76
F1.5707963267948966
g65
tp82
a(S'p2'
p83
F1.5707963267948966
g65
tp84
a(g83
F1.5707963267948966
g68
tp85
a(g83
F1.5707963267948966
g65
tp86
a(g83
F1.5707963267948966
g63
tp87
a(g83
F1.5707963267948966
g68
tp88
a(g83
F1.5707963267948966
g63
tp89
a(g83
F1.5707963267948966
g65
tp90
ag87
ag90
a(g83
F1.5707963267948966
g65
tp91
ag85
ag86
ag87
ag90
a(g83
F1.5707963267948966
g65
tp92
ag92
ag87
a(S'p3'
p93
F1.5707963267948966
g63
tp94
asS's'
p95
(lp96
(g62
I0
g22
tp97
ag64
ag66
ag67
ag69
ag70
ag70
ag71
ag71
ag64
ag72
ag64
ag66
ag73
ag69
ag64
ag66
ag73
ag74
ag75
ag66
ag73
ag73
ag74
ag66
ag67
ag73
ag74
ag75
ag77
ag78
ag79
ag80
ag81
ag82
ag84
ag85
ag86
ag87
ag88
ag89
ag90
ag87
ag90
ag91
ag85
ag86
ag87
ag90
ag92
ag92
ag87
asS'ui'
p98
(lp99
S'ss'
p100
aS'hp'
p101
ag101
ag101
ag100
ag100
ag101
ag60
ag101
aS'hs'
p102
ag101
ag100
ag60
ag102
ag100
ag100
ag60
ag102
ag60
ag101
ag60
ag60
ag102
ag101
ag60
ag60
ag102
ag100
ag100
ag101
ag102
ag60
ag101
ag60
ag100
ag101
ag100
ag102
ag102
ag101
ag102
ag102
ag101
ag102
ag101
ag102
ag102
ag101
ag60
ag60
ag102
ag100
asS'um_before'
p103
(lp104
g101
ag101
ag100
ag101
ag100
ag100
ag60
ag60
ag101
ag102
ag101
ag101
ag60
ag101
ag101
ag101
ag60
ag102
ag60
ag101
ag60
ag60
ag102
ag101
ag100
ag60
ag102
ag60
ag100
ag100
ag102
ag60
ag101
ag101
ag100
ag101
ag102
ag102
ag102
ag101
ag101
ag102
ag101
ag100
ag101
ag102
ag102
ag101
ag60
ag60
ag102
ag100
asS'um_after'
p105
(lp106
g101
ag101
ag100
ag101
ag100
ag100
ag60
ag60
ag101
ag102
ag101
ag101
ag60
ag101
ag101
ag101
ag60
ag102
ag60
ag101
ag60
ag60
ag102
ag101
ag100
ag60
ag102
ag60
ag100
ag100
ag102
ag60
ag101
ag101
ag100
ag101
ag102
ag102
ag102
ag101
ag101
ag102
ag101
ag100
ag101
ag102
ag102
ag101
ag60
ag60
ag102
ag100
asS'is_normalized_entropy_less_than_threshold'
p107
(lp108
g50
(g51
(S'b1'
p109
I0
I1
tp110
Rp111
(I3
S'|'
p112
NNNI-1
I-1
I0
tp113
bS'\x01'
p114
tp115
Rp116
ag116
ag116
ag116
ag116
ag116
ag116
ag116
ag116
ag116
ag116
ag116
ag116
ag116
ag116
ag116
ag116
ag116
ag116
ag116
ag116
ag116
ag116
ag116
ag116
ag116
ag116
ag116
ag116
ag116
ag116
ag116
ag116
ag116
ag116
ag116
ag116
ag116
ag116
ag116
ag116
ag116
ag116
ag116
ag116
ag116
ag116
ag116
ag116
ag116
ag116
ag116
asaa(lp117
S'index'
p118
aI70883
aatp119
Rp120
.