ccollections
OrderedDict
p0
((lp1
(lp2
S'combination_dict'
p3
ag0
((lp4
(lp5
S'r_to_g_config'
p6
aS'tl'
p7
aa(lp8
S'num_turns'
p9
aI1
aa(lp10
S'start_direction'
p11
acutils_ms
StartDirection
p12
(I1
tp13
Rp14
aa(lp15
S'assistance_type'
p16
acutils_ms
AssistanceType
p17
(I1
tp18
Rp19
aa(lp20
S'start_mode'
p21
aS'x'
p22
aa(lp23
S'ui_given_a_noise'
p24
aF0.7
aa(lp25
S'um_given_ui_noise'
p26
aF0.5
aa(lp27
S'entropy_threshold'
p28
aF0.7
aatp29
Rp30
aa(lp31
S'data'
p32
accollections
defaultdict
p33
(c__builtin__
list
p34
tp35
Rp36
S'a'
p37
(lp38
S'mode_r'
p39
ag39
ag39
ag39
ag39
ag39
ag39
aS'mode_l'
p40
ag40
ag40
ag40
ag40
aS'move_p'
p41
ag39
ag39
ag39
ag39
ag39
ag40
ag39
ag39
ag41
ag39
ag39
ag39
ag41
ag39
ag39
ag40
ag41
ag39
aS'move_n'
p42
ag39
ag39
ag39
ag40
ag40
ag42
asS'assistance_match_with_ground_truth'
p43
(lp44
I00
aI00
aI00
aI00
aI00
aI00
aI00
aI00
aI00
aI00
aI00
aI01
aI01
aI00
aI00
aI00
aI00
aI00
aI00
aI00
aI01
aI00
aI00
aI00
aI01
aI01
aI00
aI00
aI01
aI01
aI01
aI00
aI00
aI00
aI00
aI00
aI01
aI01
asS'is_u_intended_equals_um'
p45
(lp46
I01
aI01
aI01
aI01
aI01
aI01
aI01
aI01
aI01
aI01
aI01
aI01
aI01
aI01
aI01
aI01
aI01
aI01
aI01
aI01
aI01
aI01
aI01
aI01
aI01
aI00
aI01
aI01
aI01
aI00
aI01
aI01
aI01
aI01
aI01
aI00
aI01
aI01
asS'total_steps'
p47
I38
sS'normalized_h_of_p_ui_given_um'
p48
(lp49
cnumpy.core.multiarray
scalar
p50
(cnumpy
dtype
p51
(S'f8'
p52
I0
I1
tp53
Rp54
(I3
S'<'
p55
NNNI-1
I-1
I0
tp56
bS"\xa6'\x86\x04\xd9f\xe8?"
p57
tp58
Rp59
ag50
(g54
S'3\xcb\x93\xd1\xf9\x98\xe3?'
p60
tp61
Rp62
ag50
(g54
S'3\xcb\x93\xd1\xf9\x98\xe3?'
p63
tp64
Rp65
ag50
(g54
S'3\xcb\x93\xd1\xf9\x98\xe3?'
p66
tp67
Rp68
ag50
(g54
S'3\xcb\x93\xd1\xf9\x98\xe3?'
p69
tp70
Rp71
ag50
(g54
S"\xa6'\x86\x04\xd9f\xe8?"
p72
tp73
Rp74
ag50
(g54
S'\x93\xb1\xc6\xac\x83\xd8\xe7?'
p75
tp76
Rp77
ag50
(g54
S'\xe3F\xa4e0\x95\xde?'
p78
tp79
Rp80
ag50
(g54
S'\xe3F\xa4e0\x95\xde?'
p81
tp82
Rp83
ag50
(g54
S'\xe3F\xa4e0\x95\xde?'
p84
tp85
Rp86
ag50
(g54
S'\xe3F\xa4e0\x95\xde?'
p87
tp88
Rp89
ag50
(g54
S'\xb5\x87\xc9.F\x8d\xe0?'
p90
tp91
Rp92
ag50
(g54
S':\xf3\x89;\x15\x05\xc1?'
p93
tp94
Rp95
ag50
(g54
S"\xa6'\x86\x04\xd9f\xe8?"
p96
tp97
Rp98
ag50
(g54
S"\xa6'\x86\x04\xd9f\xe8?"
p99
tp100
Rp101
ag50
(g54
S'3\xcb\x93\xd1\xf9\x98\xe3?'
p102
tp103
Rp104
ag50
(g54
S"\xa6'\x86\x04\xd9f\xe8?"
p105
tp106
Rp107
ag50
(g54
S'\x93\xb1\xc6\xac\x83\xd8\xe7?'
p108
tp109
Rp110
ag50
(g54
S'\xe3F\xa4e0\x95\xde?'
p111
tp112
Rp113
ag50
(g54
S"\xa6'\x86\x04\xd9f\xe8?"
p114
tp115
Rp116
ag50
(g54
S'S\x17\x99\xeb\xfa!\xd9?'
p117
tp118
Rp119
ag50
(g54
S'!\xf1\xb5\xc4g\x1c\xe3?'
p120
tp121
Rp122
ag50
(g54
S"\xa6'\x86\x04\xd9f\xe8?"
p123
tp124
Rp125
ag50
(g54
S"\xa6'\x86\x04\xd9f\xe8?"
p126
tp127
Rp128
ag50
(g54
S'S\x17\x99\xeb\xfa!\xd9?'
p129
tp130
Rp131
ag50
(g54
S'\xa9C\xfbZ\xbd)\xe6?'
p132
tp133
Rp134
ag50
(g54
S'3\xcb\x93\xd1\xf9\x98\xe3?'
p135
tp136
Rp137
ag50
(g54
S'\x93\xb1\xc6\xac\x83\xd8\xe7?'
p138
tp139
Rp140
ag50
(g54
S'\xb5\x87\xc9.F\x8d\xe0?'
p141
tp142
Rp143
ag50
(g54
S'\xa9C\xfbZ\xbd)\xe6?'
p144
tp145
Rp146
ag50
(g54
S'S\x17\x99\xeb\xfa!\xd9?'
p147
tp148
Rp149
ag50
(g54
S'\xbew\xad\xc6\x07\x7f\xe1?'
p150
tp151
Rp152
ag50
(g54
S"\xa6'\x86\x04\xd9f\xe8?"
p153
tp154
Rp155
ag50
(g54
S"\xa6'\x86\x04\xd9f\xe8?"
p156
tp157
Rp158
ag50
(g54
S'\x93\xb1\xc6\xac\x83\xd8\xe7?'
p159
tp160
Rp161
ag50
(g54
S'\x86#I\xe1\xc72\xe9?'
p162
tp163
Rp164
ag50
(g54
S'\xb5\x87\xc9.F\x8d\xe0?'
p165
tp166
Rp167
ag50
(g54
S'\xccuI\xd4r\xa2\xce?'
p168
tp169
Rp170
asS'sp'
p171
(lp172
(S'p0'
p173
I0
S'x'
p174
tp175
a(g173
I0
g174
tp176
ag176
ag176
ag176
ag175
a(g173
I0
S't'
p177
tp178
a(g173
I0
g177
tp179
ag179
ag179
ag179
a(g173
I0
S'y'
p180
tp181
a(S'p1'
p182
I0
g180
tp183
a(g182
I0
g180
tp184
ag184
a(g182
I0
g180
tp185
ag184
a(g182
I0
g174
tp186
a(g173
I0
g174
tp187
ag175
a(g173
I0
g180
tp188
a(g173
I0
g174
tp189
ag175
ag175
ag188
ag183
ag185
ag186
a(g182
I0
g177
tp190
a(g182
F1.5707963267948966
g177
tp191
a(g182
F1.5707963267948966
g174
tp192
a(g182
F1.5707963267948966
g177
tp193
a(g182
F1.5707963267948966
g177
tp194
ag194
a(g182
F1.5707963267948966
g180
tp195
a(g182
F1.5707963267948966
g180
tp196
a(g182
F1.5707963267948966
g174
tp197
a(S'p2'
p198
F1.5707963267948966
g174
tp199
asS's'
p200
(lp201
(g173
I0
g22
tp202
ag175
ag176
ag176
ag176
ag176
ag175
ag178
ag179
ag179
ag179
ag179
ag181
ag183
ag184
ag184
ag185
ag184
ag186
ag187
ag175
ag188
ag189
ag175
ag175
ag188
ag183
ag185
ag186
ag190
ag191
ag192
ag193
ag194
ag194
ag195
ag196
ag197
asS'ui'
p203
(lp204
S'hp'
p205
aS'hs'
p206
aS'ss'
p207
ag207
ag207
ag171
ag205
ag171
ag171
ag171
ag207
ag206
ag171
ag171
ag171
ag206
ag171
ag206
ag171
ag171
ag206
ag206
ag207
ag205
ag205
ag207
ag207
ag171
ag205
ag206
ag205
ag206
ag171
ag207
ag171
ag206
ag171
ag207
asS'um_before'
p208
(lp209
g171
ag207
ag207
ag207
ag207
ag171
ag206
ag171
ag171
ag171
ag171
ag206
ag171
ag171
ag171
ag207
ag171
ag206
ag171
ag171
ag205
ag206
ag171
ag171
ag205
ag207
ag207
ag206
ag206
ag207
ag205
ag206
ag171
ag171
ag206
ag207
ag206
ag207
asS'um_after'
p210
(lp211
g171
ag207
ag207
ag207
ag207
ag171
ag206
ag171
ag171
ag171
ag171
ag206
ag171
ag171
ag171
ag207
ag171
ag206
ag171
ag171
ag205
ag206
ag171
ag171
ag205
ag171
ag207
ag206
ag206
ag171
ag205
ag206
ag171
ag171
ag206
ag207
ag206
ag207
asS'is_normalized_entropy_less_than_threshold'
p212
(lp213
g50
(g51
(S'b1'
p214
I0
I1
tp215
Rp216
(I3
S'|'
p217
NNNI-1
I-1
I0
tp218
bS'\x00'
p219
tp220
Rp221
ag50
(g216
S'\x01'
p222
tp223
Rp224
ag224
ag224
ag224
ag221
ag221
ag224
ag224
ag224
ag224
ag224
ag224
ag221
ag221
ag224
ag221
ag221
ag224
ag221
ag224
ag224
ag221
ag221
ag224
ag224
ag224
ag221
ag224
ag224
ag224
ag224
ag221
ag221
ag221
ag221
ag224
ag224
asaa(lp225
S'index'
p226
aI35926
aatp227
Rp228
.