ccollections
OrderedDict
p0
((lp1
(lp2
S'combination_dict'
p3
ag0
((lp4
(lp5
S'r_to_g_config'
p6
aS'tr'
p7
aa(lp8
S'num_turns'
p9
aI2
aa(lp10
S'start_direction'
p11
acutils_ms
StartDirection
p12
(I0
tp13
Rp14
aa(lp15
S'assistance_type'
p16
acutils_ms
AssistanceType
p17
(I0
tp18
Rp19
aa(lp20
S'start_mode'
p21
aS't'
p22
aa(lp23
S'ui_given_a_noise'
p24
aF0.1
aa(lp25
S'um_given_ui_noise'
p26
aF0.7
aa(lp27
S'entropy_threshold'
p28
aF0.9
aatp29
Rp30
aa(lp31
S'data'
p32
accollections
defaultdict
p33
(c__builtin__
list
p34
tp35
Rp36
S'a'
p37
(lp38
S'mode_r'
p39
ag39
ag39
ag39
aS'move_p'
p40
ag39
ag39
ag40
ag40
ag39
ag40
ag40
ag39
ag39
ag40
ag40
ag40
asS'assistance_match_with_ground_truth'
p41
(lp42
I00
aI00
aI00
aI01
aI01
aI00
aI01
aI00
aI01
aI01
aI00
aI01
aI00
aI01
aI00
aI00
aI01
asS'is_u_intended_equals_um'
p43
(lp44
I00
aI00
aI00
aI01
aI01
aI00
aI01
aI00
aI01
aI01
aI00
aI01
aI00
aI01
aI00
aI00
aI01
asS'total_steps'
p45
I17
sS'normalized_h_of_p_ui_given_um'
p46
(lp47
cnumpy.core.multiarray
scalar
p48
(cnumpy
dtype
p49
(S'f8'
p50
I0
I1
tp51
Rp52
(I3
S'<'
p53
NNNI-1
I-1
I0
tp54
bS'*\xf0wD\xcb;\xda?'
p55
tp56
Rp57
ag48
(g52
S'*\xf0wD\xcb;\xda?'
p58
tp59
Rp60
ag48
(g52
S'h\x874\xc9\xcd\xa7\xd7?'
p61
tp62
Rp63
ag48
(g52
S'\x10nR\x97^\n\xca?'
p64
tp65
Rp66
ag48
(g52
S'\xb0\xbeM\xa5\xce\xad\xc7?'
p67
tp68
Rp69
ag48
(g52
S'h\x874\xc9\xcd\xa7\xd7?'
p70
tp71
Rp72
ag48
(g52
S'\x10nR\x97^\n\xca?'
p73
tp74
Rp75
ag48
(g52
S'>\x7f\x02\xc48\xe0\xe8?'
p76
tp77
Rp78
ag48
(g52
S'\xb0\xbeM\xa5\xce\xad\xc7?'
p79
tp80
Rp81
ag48
(g52
S'\x10nR\x97^\n\xca?'
p82
tp83
Rp84
ag48
(g52
S'l\xb1\xfd\x04\xaf\x16\xe1?'
p85
tp86
Rp87
ag48
(g52
S'\xb0\xbeM\xa5\xce\xad\xc7?'
p88
tp89
Rp90
ag48
(g52
S'h\x874\xc9\xcd\xa7\xd7?'
p91
tp92
Rp93
ag48
(g52
S'\x10nR\x97^\n\xca?'
p94
tp95
Rp96
ag48
(g52
S'>\x7f\x02\xc48\xe0\xe8?'
p97
tp98
Rp99
ag48
(g52
S'l\xb1\xfd\x04\xaf\x16\xe1?'
p100
tp101
Rp102
ag48
(g52
S'\xb0\xbeM\xa5\xce\xad\xc7?'
p103
tp104
Rp105
asS'sp'
p106
(lp107
(S'p0'
p108
I0
g22
tp109
ag109
ag109
a(g108
I0
S'x'
p110
tp111
a(S'p1'
p112
I0
g110
tp113
ag113
a(g112
I0
S'y'
p114
tp115
ag115
a(S'p2'
p116
I0
g114
tp117
a(g116
I0
S't'
p118
tp119
ag119
a(g116
F1.5707963267948966
g118
tp120
ag120
a(g116
F1.5707963267948966
g110
tp121
ag121
ag121
a(S'p3'
p122
F1.5707963267948966
g110
tp123
asS's'
p124
(lp125
g109
ag109
ag109
ag109
ag111
ag113
ag113
ag115
ag115
ag117
ag119
ag119
ag120
ag120
ag121
ag121
ag121
asS'ui'
p126
(lp127
S'hp'
p128
ag128
ag128
ag128
ag106
ag128
ag128
ag106
ag106
aS'ss'
p129
ag106
ag106
ag128
ag128
ag128
ag106
ag106
asS'um_before'
p130
(lp131
g129
ag129
aS'hs'
p132
ag128
ag106
ag132
ag128
ag128
ag106
ag128
ag132
ag106
ag132
ag128
ag128
ag132
ag106
asS'um_after'
p133
(lp134
NaNaNag128
ag106
aNag128
aNag106
ag128
aNag106
aNag128
aNaNag106
asS'is_normalized_entropy_less_than_threshold'
p135
(lp136
g48
(g49
(S'b1'
p137
I0
I1
tp138
Rp139
(I3
S'|'
p140
NNNI-1
I-1
I0
tp141
bS'\x01'
p142
tp143
Rp144
ag144
ag144
ag144
ag144
ag144
ag144
ag144
ag144
ag144
ag144
ag144
ag144
ag144
ag144
ag144
ag144
asaa(lp145
S'index'
p146
aI9792
aatp147
Rp148
.