ccollections
OrderedDict
p0
((lp1
(lp2
S'combination_dict'
p3
ag0
((lp4
(lp5
S'r_to_g_config'
p6
aS'tr'
p7
aa(lp8
S'num_turns'
p9
aI2
aa(lp10
S'start_direction'
p11
acutils_ms
StartDirection
p12
(I1
tp13
Rp14
aa(lp15
S'assistance_type'
p16
acutils_ms
AssistanceType
p17
(I0
tp18
Rp19
aa(lp20
S'start_mode'
p21
aS'x'
p22
aa(lp23
S'ui_given_a_noise'
p24
aF0.1
aa(lp25
S'um_given_ui_noise'
p26
aF0.7
aa(lp27
S'entropy_threshold'
p28
aF0.6
aatp29
Rp30
aa(lp31
S'data'
p32
accollections
defaultdict
p33
(c__builtin__
list
p34
tp35
Rp36
S'a'
p37
(lp38
S'mode_r'
p39
aS'move_p'
p40
aS'mode_l'
p41
ag40
ag40
ag40
ag40
ag41
ag41
ag40
ag41
ag40
ag40
ag39
ag39
ag39
ag40
ag40
ag40
ag40
ag41
ag41
ag40
ag40
asS'assistance_match_with_ground_truth'
p42
(lp43
I01
aI01
aI01
aI00
aI00
aI00
aI00
aI00
aI01
aI01
aI01
aI00
aI00
aI00
aI00
aI01
aI00
aI00
aI00
aI01
aI00
aI01
aI00
aI01
asS'is_u_intended_equals_um'
p44
(lp45
I01
aI01
aI01
aI00
aI00
aI00
aI01
aI00
aI01
aI01
aI01
aI00
aI00
aI00
aI00
aI01
aI00
aI00
aI00
aI01
aI00
aI01
aI00
aI01
asS'total_steps'
p46
I24
sS'normalized_h_of_p_ui_given_um'
p47
(lp48
cnumpy.core.multiarray
scalar
p49
(cnumpy
dtype
p50
(S'f8'
p51
I0
I1
tp52
Rp53
(I3
S'<'
p54
NNNI-1
I-1
I0
tp55
bS'\xc6\xcc\xc1T\xe5c\xc1?'
p56
tp57
Rp58
ag49
(g53
S'\xe2\xb3\xd3\x99\x07\x85\xbe?'
p59
tp60
Rp61
ag49
(g53
S'R\xdd\x15\x1cc\xae\xc9?'
p62
tp63
Rp64
ag49
(g53
S'i\xc7\x085\x18\x15\xd1?'
p65
tp66
Rp67
ag49
(g53
S'i\xc7\x085\x18\x15\xd1?'
p68
tp69
Rp70
ag49
(g53
S'i\xc7\x085\x18\x15\xd1?'
p71
tp72
Rp73
ag49
(g53
S'\xcf\xac\x91\xa01\x11\xec?'
p74
tp75
Rp76
ag49
(g53
S'\xe2[w\x18\xe88\xdb?'
p77
tp78
Rp79
ag49
(g53
S'R\xdd\x15\x1cc\xae\xc9?'
p80
tp81
Rp82
ag49
(g53
S'\xe2\xb3\xd3\x99\x07\x85\xbe?'
p83
tp84
Rp85
ag49
(g53
S'R\xdd\x15\x1cc\xae\xc9?'
p86
tp87
Rp88
ag49
(g53
S'i\xc7\x085\x18\x15\xd1?'
p89
tp90
Rp91
ag49
(g53
S'\xbc\xa0\x97b\x95\x93\xec?'
p92
tp93
Rp94
ag49
(g53
S'\x8cbc\xbf\x9e\xd4\xd2?'
p95
tp96
Rp97
ag49
(g53
S'\x8cbc\xbf\x9e\xd4\xd2?'
p98
tp99
Rp100
ag49
(g53
S'\xc6\xcc\xc1T\xe5c\xc1?'
p101
tp102
Rp103
ag49
(g53
S'i\xc7\x085\x18\x15\xd1?'
p104
tp105
Rp106
ag49
(g53
S'i\xc7\x085\x18\x15\xd1?'
p107
tp108
Rp109
ag49
(g53
S'i\xc7\x085\x18\x15\xd1?'
p110
tp111
Rp112
ag49
(g53
S'\xe2\xb3\xd3\x99\x07\x85\xbe?'
p113
tp114
Rp115
ag49
(g53
S'\xe2\x91\xc7\r\x00\xa3\xdd?'
p116
tp117
Rp118
ag49
(g53
S'R\xdd\x15\x1cc\xae\xc9?'
p119
tp120
Rp121
ag49
(g53
S'i\xc7\x085\x18\x15\xd1?'
p122
tp123
Rp124
ag49
(g53
S'\xe2\xb3\xd3\x99\x07\x85\xbe?'
p125
tp126
Rp127
asS'sp'
p128
(lp129
(S'p0'
p130
I0
S'y'
p131
tp132
a(S'p1'
p133
I0
g131
tp134
a(g133
I0
S'x'
p135
tp136
ag136
ag136
ag136
a(g133
I0
g131
tp137
ag137
ag136
a(S'p2'
p138
I0
g135
tp139
a(g138
I0
S't'
p140
tp141
ag141
a(g138
I0
g131
tp142
ag142
ag142
a(g138
I0
g140
tp143
ag143
ag143
ag143
a(g138
F1.5707963267948966
g140
tp144
ag144
a(g138
F1.5707963267948966
g131
tp145
ag145
a(S'p3'
p146
F1.5707963267948966
g131
tp147
asS's'
p148
(lp149
(g130
I0
g22
tp150
ag132
ag134
ag136
ag136
ag136
ag136
ag137
ag137
ag136
ag139
ag141
ag141
ag142
ag142
ag142
ag143
ag143
ag143
ag143
ag144
ag144
ag145
ag145
asS'ui'
p151
(lp152
S'hp'
p153
ag128
aS'hs'
p154
ag128
ag154
ag128
ag128
ag154
ag154
ag128
ag154
ag128
ag128
ag153
ag153
ag153
ag128
ag128
ag128
ag153
ag154
ag154
aS'ss'
p155
ag128
asS'um_before'
p156
(lp157
g153
ag128
ag154
ag155
ag155
ag155
ag153
ag155
ag154
ag128
ag154
ag155
ag154
ag154
ag154
ag153
ag155
ag155
ag155
ag128
ag153
ag154
ag155
ag128
asS'um_after'
p158
(lp159
g153
ag128
ag154
aNaNaNag153
aNag154
ag128
ag154
aNag154
aNaNag153
aNaNaNag128
aNag154
aNag128
asS'is_normalized_entropy_less_than_threshold'
p160
(lp161
g49
(g50
(S'b1'
p162
I0
I1
tp163
Rp164
(I3
S'|'
p165
NNNI-1
I-1
I0
tp166
bS'\x01'
p167
tp168
Rp169
ag169
ag169
ag169
ag169
ag169
ag49
(g164
S'\x00'
p170
tp171
Rp172
ag169
ag169
ag169
ag169
ag169
ag172
ag169
ag169
ag169
ag169
ag169
ag169
ag169
ag169
ag169
ag169
ag169
asaa(lp173
S'index'
p174
aI14562
aatp175
Rp176
.