ccollections
OrderedDict
p0
((lp1
(lp2
S'combination_dict'
p3
ag0
((lp4
(lp5
S'r_to_g_config'
p6
aS'tl'
p7
aa(lp8
S'num_turns'
p9
aI2
aa(lp10
S'start_direction'
p11
acutils_ms
StartDirection
p12
(I1
tp13
Rp14
aa(lp15
S'assistance_type'
p16
acutils_ms
AssistanceType
p17
(I0
tp18
Rp19
aa(lp20
S'start_mode'
p21
aS't'
p22
aa(lp23
S'ui_given_a_noise'
p24
aF0.7
aa(lp25
S'um_given_ui_noise'
p26
aF0.1
aa(lp27
S'entropy_threshold'
p28
aF0.5
aatp29
Rp30
aa(lp31
S'data'
p32
accollections
defaultdict
p33
(c__builtin__
list
p34
tp35
Rp36
S'a'
p37
(lp38
S'mode_l'
p39
aS'move_p'
p40
ag39
aS'move_n'
p41
ag39
ag39
aS'mode_r'
p42
ag39
ag40
ag39
ag39
ag40
ag39
ag40
ag39
ag40
ag39
ag40
ag42
ag40
ag39
ag40
ag39
ag41
ag42
ag39
ag42
ag42
ag42
ag42
ag39
ag39
ag40
ag39
ag40
ag42
ag39
ag40
ag39
ag42
ag40
ag39
ag40
ag39
ag39
ag42
ag39
ag41
ag42
ag40
ag39
ag42
ag42
ag42
ag42
ag39
ag39
ag41
ag42
ag39
ag41
ag42
ag41
ag42
ag42
ag39
ag40
ag39
ag42
ag40
ag39
ag40
ag42
ag42
ag42
ag40
asS'assistance_match_with_ground_truth'
p43
(lp44
I01
aI01
aI01
aI01
aI00
aI00
aI00
aI01
aI01
aI00
aI01
aI00
aI01
aI00
aI01
aI00
aI00
aI00
aI01
aI01
aI01
aI00
aI01
aI01
aI00
aI00
aI00
aI00
aI00
aI00
aI00
aI00
aI01
aI00
aI00
aI00
aI01
aI00
aI00
aI01
aI01
aI01
aI00
aI00
aI00
aI00
aI01
aI00
aI01
aI01
aI00
aI00
aI00
aI00
aI00
aI00
aI01
aI00
aI00
aI01
aI00
aI01
aI01
aI00
aI00
aI00
aI01
aI00
aI01
aI00
aI01
aI00
aI00
aI00
aI01
aI01
asS'is_u_intended_equals_um'
p45
(lp46
I01
aI01
aI01
aI01
aI01
aI01
aI01
aI01
aI01
aI01
aI01
aI01
aI01
aI01
aI01
aI01
aI01
aI01
aI01
aI01
aI01
aI01
aI01
aI01
aI01
aI01
aI01
aI01
aI01
aI01
aI01
aI01
aI01
aI01
aI01
aI01
aI01
aI01
aI01
aI01
aI01
aI01
aI01
aI01
aI01
aI01
aI01
aI01
aI01
aI01
aI01
aI01
aI01
aI01
aI01
aI01
aI01
aI01
aI01
aI01
aI01
aI01
aI01
aI01
aI01
aI01
aI01
aI01
aI01
aI01
aI01
aI01
aI01
aI01
aI01
aI01
asS'total_steps'
p47
I76
sS'normalized_h_of_p_ui_given_um'
p48
(lp49
cnumpy.core.multiarray
scalar
p50
(cnumpy
dtype
p51
(S'f8'
p52
I0
I1
tp53
Rp54
(I3
S'<'
p55
NNNI-1
I-1
I0
tp56
bS'o\x87V\xce\x7f7\xc5?'
p57
tp58
Rp59
ag50
(g54
S'\x06\xd0\x07\xb8\x91\x89\xc9?'
p60
tp61
Rp62
ag50
(g54
S'o\x87V\xce\x7f7\xc5?'
p63
tp64
Rp65
ag50
(g54
S'f\xa4.\x83"\xbc\xb9?'
p66
tp67
Rp68
ag50
(g54
S'\xe3\x96x`\xcfW\xe4?'
p69
tp70
Rp71
ag50
(g54
S'OD\xd6@\xed\xa8\xcb?'
p72
tp73
Rp74
ag50
(g54
S'\x02$\xf9\x14\xbe\x8d\xd4?'
p75
tp76
Rp77
ag50
(g54
S'o\x87V\xce\x7f7\xc5?'
p78
tp79
Rp80
ag50
(g54
S'\x06\xd0\x07\xb8\x91\x89\xc9?'
p81
tp82
Rp83
ag50
(g54
S'J\xc5\xcf\xd8\xad\xe3\xe2?'
p84
tp85
Rp86
ag50
(g54
S'o\x87V\xce\x7f7\xc5?'
p87
tp88
Rp89
ag50
(g54
S'\x16\xd8\xea+2\xa1\xe4?'
p90
tp91
Rp92
ag50
(g54
S'o\x87V\xce\x7f7\xc5?'
p93
tp94
Rp95
ag50
(g54
S'\x16\xd8\xea+2\xa1\xe4?'
p96
tp97
Rp98
ag50
(g54
S'o\x87V\xce\x7f7\xc5?'
p99
tp100
Rp101
ag50
(g54
S'\x16\xd8\xea+2\xa1\xe4?'
p102
tp103
Rp104
ag50
(g54
S'\xe3\x96x`\xcfW\xe4?'
p105
tp106
Rp107
ag50
(g54
S'\x16\xe1\xa5\xd1u\x7f\xdf?'
p108
tp109
Rp110
ag50
(g54
S'\x9a\x96\x0fH\x13\xda\xc1?'
p111
tp112
Rp113
ag50
(g54
S'\x06\xd0\x07\xb8\x91\x89\xc9?'
p114
tp115
Rp116
ag50
(g54
S'o\x87V\xce\x7f7\xc5?'
p117
tp118
Rp119
ag50
(g54
S'D\xb0\x06]\x03\x7f\xc5?'
p120
tp121
Rp122
ag50
(g54
S'o\x87V\xce\x7f7\xc5?'
p123
tp124
Rp125
ag50
(g54
S'f\xa4.\x83"\xbc\xb9?'
p126
tp127
Rp128
ag50
(g54
S'\x02$\xf9\x14\xbe\x8d\xd4?'
p129
tp130
Rp131
ag50
(g54
S'OD\xd6@\xed\xa8\xcb?'
p132
tp133
Rp134
ag50
(g54
S'\xa8\xab\xfb\xe5\x1b-\xd6?'
p135
tp136
Rp137
ag50
(g54
S'\xa8\xab\xfb\xe5\x1b-\xd6?'
p138
tp139
Rp140
ag50
(g54
S'\xa8\xab\xfb\xe5\x1b-\xd6?'
p141
tp142
Rp143
ag50
(g54
S'\x02$\xf9\x14\xbe\x8d\xd4?'
p144
tp145
Rp146
ag50
(g54
S'J\xc5\xcf\xd8\xad\xe3\xe2?'
p147
tp148
Rp149
ag50
(g54
S'\xe3\x96x`\xcfW\xe4?'
p150
tp151
Rp152
ag50
(g54
S'\x06\xd0\x07\xb8\x91\x89\xc9?'
p153
tp154
Rp155
ag50
(g54
S'\xe3\x96x`\xcfW\xe4?'
p156
tp157
Rp158
ag50
(g54
S'\x16\xe1\xa5\xd1u\x7f\xdf?'
p159
tp160
Rp161
ag50
(g54
S'\x02$\xf9\x14\xbe\x8d\xd4?'
p162
tp163
Rp164
ag50
(g54
S'o\x87V\xce\x7f7\xc5?'
p165
tp166
Rp167
ag50
(g54
S'\x16\xd8\xea+2\xa1\xe4?'
p168
tp169
Rp170
ag50
(g54
S'OD\xd6@\xed\xa8\xcb?'
p171
tp172
Rp173
ag50
(g54
S'\x9a\x96\x0fH\x13\xda\xc1?'
p174
tp175
Rp176
ag50
(g54
S'\x06\xd0\x07\xb8\x91\x89\xc9?'
p177
tp178
Rp179
ag50
(g54
S'o\x87V\xce\x7f7\xc5?'
p180
tp181
Rp182
ag50
(g54
S'D\xb0\x06]\x03\x7f\xc5?'
p183
tp184
Rp185
ag50
(g54
S'\xe3\x96x`\xcfW\xe4?'
p186
tp187
Rp188
ag50
(g54
S'OD\xd6@\xed\xa8\xcb?'
p189
tp190
Rp191
ag50
(g54
S'\x02$\xf9\x14\xbe\x8d\xd4?'
p192
tp193
Rp194
ag50
(g54
S'o\x87V\xce\x7f7\xc5?'
p195
tp196
Rp197
ag50
(g54
S'\xe4\\\xd9\x01Tk\xd6?'
p198
tp199
Rp200
ag50
(g54
S'\x9a\x96\x0fH\x13\xda\xc1?'
p201
tp202
Rp203
ag50
(g54
S'\x06\xd0\x07\xb8\x91\x89\xc9?'
p204
tp205
Rp206
ag50
(g54
S'OD\xd6@\xed\xa8\xcb?'
p207
tp208
Rp209
ag50
(g54
S'\xf6\xe4U\x99\xb0\x16\xe8?'
p210
tp211
Rp212
ag50
(g54
S'\xa8\xab\xfb\xe5\x1b-\xd6?'
p213
tp214
Rp215
ag50
(g54
S'\xa8\xab\xfb\xe5\x1b-\xd6?'
p216
tp217
Rp218
ag50
(g54
S'\x02$\xf9\x14\xbe\x8d\xd4?'
p219
tp220
Rp221
ag50
(g54
S'J\xc5\xcf\xd8\xad\xe3\xe2?'
p222
tp223
Rp224
ag50
(g54
S'o\x87V\xce\x7f7\xc5?'
p225
tp226
Rp227
ag50
(g54
S'\xf4<\xa4\xab\xd8q\xd6?'
p228
tp229
Rp230
ag50
(g54
S'\x02$\xf9\x14\xbe\x8d\xd4?'
p231
tp232
Rp233
ag50
(g54
S'o\x87V\xce\x7f7\xc5?'
p234
tp235
Rp236
ag50
(g54
S'\xf4<\xa4\xab\xd8q\xd6?'
p237
tp238
Rp239
ag50
(g54
S'\x9a\x96\x0fH\x13\xda\xc1?'
p240
tp241
Rp242
ag50
(g54
S'f\xa4.\x83"\xbc\xb9?'
p243
tp244
Rp245
ag50
(g54
S'\xa8\xab\xfb\xe5\x1b-\xd6?'
p246
tp247
Rp248
ag50
(g54
S'\x02$\xf9\x14\xbe\x8d\xd4?'
p249
tp250
Rp251
ag50
(g54
S'\xe3\x96x`\xcfW\xe4?'
p252
tp253
Rp254
ag50
(g54
S'\x06\xd0\x07\xb8\x91\x89\xc9?'
p255
tp256
Rp257
ag50
(g54
S'OD\xd6@\xed\xa8\xcb?'
p258
tp259
Rp260
ag50
(g54
S'\x9a\x96\x0fH\x13\xda\xc1?'
p261
tp262
Rp263
ag50
(g54
S'\x16\xd8\xea+2\xa1\xe4?'
p264
tp265
Rp266
ag50
(g54
S'o\x87V\xce\x7f7\xc5?'
p267
tp268
Rp269
ag50
(g54
S'\x16\xe1\xa5\xd1u\x7f\xdf?'
p270
tp271
Rp272
ag50
(g54
S'\xf6\xe4U\x99\xb0\x16\xe8?'
p273
tp274
Rp275
ag50
(g54
S'\xa8\xab\xfb\xe5\x1b-\xd6?'
p276
tp277
Rp278
ag50
(g54
S'\x9a\x96\x0fH\x13\xda\xc1?'
p279
tp280
Rp281
ag50
(g54
S'\x06\xd0\x07\xb8\x91\x89\xc9?'
p282
tp283
Rp284
asS'sp'
p285
(lp286
(S'p0'
p287
I0
S'y'
p288
tp289
a(S'p1'
p290
I0
g288
tp291
a(g290
I0
S'x'
p292
tp293
a(S'p2'
p294
I0
g292
tp295
a(g294
I0
g292
tp296
a(g294
I0
g288
tp297
a(g294
I0
g292
tp298
a(g294
I0
S't'
p299
tp300
a(g294
F1.5707963267948966
g299
tp301
a(g294
F1.5707963267948966
g299
tp302
a(g294
F1.5707963267948966
g288
tp303
a(g294
F1.5707963267948966
g299
tp304
ag303
ag304
ag303
ag304
a(g294
I0
g299
tp305
a(g294
I0
g288
tp306
a(g294
I0
g299
tp307
ag301
ag303
a(g290
F1.5707963267948966
g288
tp308
a(g290
F1.5707963267948966
g292
tp309
a(g294
F1.5707963267948966
g292
tp310
a(g294
F1.5707963267948966
g299
tp311
a(g294
F1.5707963267948966
g292
tp312
a(g294
F1.5707963267948966
g292
tp313
ag313
ag313
ag311
ag302
ag305
ag301
ag305
ag306
ag298
ag300
a(g294
I0
g292
tp314
ag297
ag307
ag301
ag303
ag308
a(g290
F1.5707963267948966
g288
tp315
a(g290
F1.5707963267948966
g299
tp316
a(g290
F1.5707963267948966
g288
tp317
ag309
a(g287
F1.5707963267948966
g292
tp318
a(g287
F1.5707963267948966
g288
tp319
a(g290
F1.5707963267948966
g288
tp320
ag316
a(g290
F1.5707963267948966
g299
tp321
a(g290
F1.5707963267948966
g299
tp322
ag322
ag317
a(g290
F1.5707963267948966
g288
tp323
ag309
a(g290
F1.5707963267948966
g299
tp324
ag317
ag309
ag324
a(g290
F1.5707963267948966
g292
tp325
ag310
ag313
ag311
ag305
ag301
ag312
a(g294
F1.5707963267948966
g288
tp326
ag304
ag303
a(g294
F1.5707963267948966
g292
tp327
a(g294
F1.5707963267948966
g292
tp328
ag313
ag326
a(S'p3'
p329
F1.5707963267948966
g288
tp330
asS's'
p331
(lp332
(g287
I0
g22
tp333
ag289
ag291
ag293
ag295
ag296
ag297
ag298
ag300
ag301
ag302
ag303
ag304
ag303
ag304
ag303
ag304
ag305
ag306
ag307
ag301
ag303
ag308
ag309
ag310
ag311
ag312
ag313
ag313
ag313
ag311
ag302
ag305
ag301
ag305
ag306
ag298
ag300
ag314
ag297
ag307
ag301
ag303
ag308
ag315
ag316
ag317
ag309
ag318
ag319
ag320
ag316
ag321
ag322
ag322
ag317
ag323
ag309
ag324
ag317
ag309
ag324
ag325
ag310
ag313
ag311
ag305
ag301
ag312
ag326
ag304
ag303
ag327
ag328
ag313
ag326
asS'ui'
p334
(lp335
S'hs'
p336
ag285
ag336
aS'ss'
p337
aS'hp'
p338
ag338
ag337
ag336
ag285
ag285
ag336
ag338
ag336
ag338
ag336
ag336
ag337
ag285
ag338
ag337
ag336
ag337
ag336
ag337
ag336
ag338
ag337
ag337
ag337
ag336
ag338
ag338
ag285
ag337
ag285
ag336
ag336
ag338
ag338
ag338
ag285
ag336
ag337
ag337
ag338
ag336
ag336
ag285
ag338
ag285
ag338
ag285
ag337
ag337
ag336
ag285
ag336
ag336
ag336
ag336
ag336
ag338
ag337
ag337
ag336
ag337
ag285
ag338
ag338
ag338
ag336
ag336
ag285
ag337
ag336
ag285
asS'um_before'
p339
(lp340
g336
ag285
ag336
ag337
ag337
ag338
ag336
ag336
ag285
ag285
ag336
ag338
ag336
ag338
ag336
ag338
ag337
ag336
ag338
ag285
ag336
ag337
ag336
ag337
ag336
ag338
ag337
ag337
ag337
ag336
ag285
ag337
ag285
ag337
ag336
ag336
ag336
ag338
ag338
ag338
ag285
ag336
ag337
ag337
ag338
ag336
ag336
ag285
ag338
ag285
ag338
ag285
ag337
ag337
ag336
ag285
ag336
ag336
ag336
ag336
ag336
ag338
ag337
ag337
ag336
ag337
ag285
ag338
ag338
ag338
ag336
ag336
ag285
ag337
ag338
ag285
asS'um_after'
p341
(lp342
g336
ag285
ag336
ag337
ag337
ag338
ag336
ag336
ag285
ag285
ag336
ag338
ag336
ag338
ag336
ag338
ag337
ag336
ag338
ag285
ag336
ag337
ag336
ag337
ag336
ag338
ag337
ag337
ag337
ag336
ag285
ag337
ag285
ag337
ag336
ag336
ag336
ag338
ag338
ag338
ag285
ag336
ag337
ag337
ag338
ag336
ag336
ag285
ag338
ag285
ag338
ag285
ag337
ag337
ag336
ag285
ag336
ag336
ag336
ag336
ag336
ag338
ag337
ag337
ag336
ag337
ag285
ag338
ag338
ag338
ag336
ag336
ag285
ag337
ag338
ag285
asS'is_normalized_entropy_less_than_threshold'
p343
(lp344
g50
(g51
(S'b1'
p345
I0
I1
tp346
Rp347
(I3
S'|'
p348
NNNI-1
I-1
I0
tp349
bS'\x01'
p350
tp351
Rp352
ag352
ag352
ag352
ag50
(g347
S'\x00'
p353
tp354
Rp355
ag352
ag352
ag352
ag352
ag355
ag352
ag355
ag352
ag355
ag352
ag355
ag355
ag352
ag352
ag352
ag352
ag352
ag352
ag352
ag352
ag352
ag352
ag352
ag352
ag352
ag355
ag355
ag352
ag355
ag352
ag352
ag352
ag355
ag352
ag352
ag352
ag352
ag352
ag355
ag352
ag352
ag352
ag352
ag352
ag352
ag352
ag355
ag352
ag352
ag352
ag355
ag352
ag352
ag352
ag352
ag352
ag352
ag352
ag352
ag352
ag355
ag352
ag352
ag352
ag355
ag352
ag352
ag355
ag352
ag352
ag352
asaa(lp356
S'index'
p357
aI44606
aatp358
Rp359
.