ccollections
OrderedDict
p0
((lp1
(lp2
S'combination_dict'
p3
ag0
((lp4
(lp5
S'r_to_g_config'
p6
aS'tl'
p7
aa(lp8
S'num_turns'
p9
aI1
aa(lp10
S'start_direction'
p11
acutils_ms
StartDirection
p12
(I1
tp13
Rp14
aa(lp15
S'assistance_type'
p16
acutils_ms
AssistanceType
p17
(I2
tp18
Rp19
aa(lp20
S'start_mode'
p21
aS't'
p22
aa(lp23
S'ui_given_a_noise'
p24
aF0.7
aa(lp25
S'um_given_ui_noise'
p26
aF0.7
aa(lp27
S'entropy_threshold'
p28
aF0.8
aatp29
Rp30
aa(lp31
S'data'
p32
accollections
defaultdict
p33
(c__builtin__
list
p34
tp35
Rp36
S'a'
p37
(lp38
S'mode_l'
p39
aS'move_p'
p40
aS'mode_r'
p41
ag41
ag41
ag41
ag40
ag39
ag40
ag39
ag40
ag41
ag41
ag41
ag40
ag41
ag41
aS'move_n'
p42
ag41
ag41
ag40
ag41
ag41
ag40
ag41
ag41
ag41
ag41
ag39
ag39
ag40
ag40
ag39
ag41
ag39
ag40
ag41
ag39
ag41
ag41
ag41
ag40
ag39
ag41
ag40
ag40
ag40
ag40
ag41
ag40
ag41
ag41
ag40
ag41
ag39
ag40
ag41
ag41
ag39
ag41
ag41
ag39
ag41
ag41
ag41
ag39
ag39
ag40
ag40
ag41
ag40
ag41
ag39
ag41
ag39
ag39
ag41
ag39
ag41
ag39
ag39
ag41
ag41
ag39
ag39
ag41
ag40
ag41
ag39
ag40
ag41
ag41
ag41
ag39
ag41
ag39
ag39
ag40
ag41
ag40
ag40
ag41
ag41
ag41
ag40
ag40
ag39
ag41
ag40
ag39
ag40
ag41
ag40
ag40
ag39
asS'assistance_match_with_ground_truth'
p43
(lp44
I01
aI01
aI00
aI00
aI00
aI01
aI00
aI01
aI00
aI01
aI00
aI00
aI00
aI01
aI01
aI00
aI01
aI00
aI00
aI01
aI00
aI00
aI01
aI00
aI00
aI00
aI00
aI00
aI00
aI01
aI00
aI00
aI00
aI00
aI01
aI00
aI00
aI00
aI00
aI00
aI01
aI01
aI00
aI00
aI00
aI00
aI00
aI01
aI00
aI00
aI00
aI01
aI00
aI00
aI01
aI00
aI00
aI00
aI00
aI00
aI00
aI00
aI00
aI00
aI00
aI00
aI01
aI00
aI01
aI01
aI00
aI00
aI00
aI00
aI00
aI00
aI00
aI00
aI00
aI00
aI00
aI00
aI00
aI00
aI00
aI01
aI00
aI00
aI01
aI00
aI00
aI00
aI00
aI00
aI00
aI00
aI01
aI00
aI01
aI00
aI01
aI00
aI00
aI01
aI00
aI00
aI00
aI01
aI00
aI01
aI00
aI01
aI00
aI00
aI00
asS'is_u_intended_equals_um'
p45
(lp46
I01
aI01
aI01
aI01
aI01
aI01
aI01
aI01
aI01
aI01
aI01
aI01
aI01
aI01
aI01
aI01
aI01
aI01
aI01
aI01
aI01
aI01
aI01
aI01
aI01
aI01
aI01
aI01
aI01
aI01
aI01
aI01
aI01
aI01
aI01
aI01
aI01
aI01
aI01
aI01
aI01
aI01
aI01
aI01
aI01
aI01
aI01
aI01
aI01
aI01
aI01
aI01
aI01
aI01
aI01
aI01
aI01
aI01
aI01
aI01
aI01
aI01
aI01
aI01
aI01
aI01
aI01
aI01
aI01
aI01
aI01
aI01
aI01
aI01
aI01
aI01
aI01
aI01
aI01
aI01
aI01
aI01
aI01
aI01
aI01
aI01
aI01
aI01
aI01
aI01
aI01
aI01
aI01
aI01
aI01
aI01
aI01
aI01
aI01
aI01
aI01
aI01
aI01
aI01
aI01
aI01
aI01
aI01
aI01
aI01
aI01
aI01
aI01
aI01
aI01
asS'total_steps'
p47
I115
sS'normalized_h_of_p_ui_given_um'
p48
(lp49
cnumpy.core.multiarray
scalar
p50
(cnumpy
dtype
p51
(S'f8'
p52
I0
I1
tp53
Rp54
(I3
S'<'
p55
NNNI-1
I-1
I0
tp56
bS'\xf2\xa9?\x10\x14\n\xe6?'
p57
tp58
Rp59
ag59
ag59
ag59
ag59
ag59
ag59
ag59
ag59
ag59
ag59
ag59
ag59
ag59
ag59
ag59
ag59
ag59
ag59
ag59
ag59
ag59
ag59
ag59
ag59
ag59
ag59
ag59
ag59
ag59
ag59
ag59
ag59
ag59
ag59
ag59
ag59
ag59
ag59
ag59
ag59
ag59
ag59
ag59
ag59
ag59
ag59
ag59
ag59
ag59
ag59
ag59
ag59
ag59
ag59
ag59
ag59
ag59
ag59
ag59
ag59
ag59
ag59
ag59
ag59
ag59
ag59
ag59
ag59
ag59
ag59
ag59
ag59
ag59
ag59
ag59
ag59
ag59
ag59
ag59
ag59
ag59
ag59
ag59
ag59
ag59
ag59
ag59
ag59
ag59
ag59
ag59
ag59
ag59
ag59
ag59
ag59
ag59
ag59
ag59
ag59
ag59
ag59
ag59
ag59
ag59
ag59
ag59
ag59
ag59
ag59
ag59
ag59
ag59
ag59
asS'sp'
p60
(lp61
(S'p0'
p62
I0
S'y'
p63
tp64
a(S'p1'
p65
I0
g63
tp66
a(g65
I0
g63
tp67
ag67
a(g65
I0
g63
tp68
a(g65
I0
S't'
p69
tp70
a(g65
I0
S'x'
p71
tp72
a(g65
I0
g69
tp73
ag72
ag73
a(g65
I0
g63
tp74
ag68
ag68
ag70
a(g65
F1.5707963267948966
g69
tp75
a(g65
F1.5707963267948966
g69
tp76
a(g65
F1.5707963267948966
g71
tp77
a(g62
F1.5707963267948966
g71
tp78
a(g62
F1.5707963267948966
g71
tp79
a(g62
F1.5707963267948966
g63
tp80
a(g62
F1.5707963267948966
g71
tp81
a(g62
F1.5707963267948966
g71
tp82
ag80
ag81
ag79
ag82
ag79
a(g62
F1.5707963267948966
g69
tp83
a(g62
F1.5707963267948966
g69
tp84
a(g62
F1.5707963267948966
g63
tp85
a(g62
F1.5707963267948966
g63
tp86
a(g62
F1.5707963267948966
g69
tp87
a(g62
F1.5707963267948966
g71
tp88
ag83
ag85
ag81
ag83
ag88
ag79
ag82
ag80
a(g65
F1.5707963267948966
g63
tp89
a(g65
F1.5707963267948966
g69
tp90
a(g65
I0
g69
tp91
a(g65
I0
g69
tp92
ag92
ag92
ag75
ag91
ag74
ag67
ag70
ag74
a(g65
I0
g71
tp93
ag73
ag74
ag67
ag93
a(g65
I0
g63
tp94
ag67
ag93
a(g62
I0
g71
tp95
a(g62
I0
g71
tp96
ag96
a(g62
I0
g69
tp97
a(g62
I0
g69
tp98
ag64
a(g62
I0
g63
tp99
ag66
ag70
ag74
ag93
ag95
ag97
a(g62
I0
g69
tp100
a(g62
I0
g71
tp101
ag97
ag101
ag97
ag98
ag101
a(g62
I0
g71
tp102
ag97
ag98
ag101
a(g62
I0
g63
tp103
a(g62
I0
g71
tp104
ag97
ag64
ag104
ag96
ag96
ag97
ag101
ag97
ag98
ag64
ag104
ag103
ag99
ag66
ag67
ag68
ag70
ag92
ag72
ag94
ag70
ag72
ag73
ag74
ag70
ag92
ag72
a(S'p2'
p105
I0
g71
tp106
asS's'
p107
(lp108
(g62
I0
g22
tp109
ag64
ag66
ag67
ag67
ag68
ag70
ag72
ag73
ag72
ag73
ag74
ag68
ag68
ag70
ag75
ag76
ag77
ag78
ag79
ag80
ag81
ag82
ag80
ag81
ag79
ag82
ag79
ag83
ag84
ag85
ag86
ag87
ag88
ag83
ag85
ag81
ag83
ag88
ag79
ag82
ag80
ag89
ag90
ag91
ag92
ag92
ag92
ag75
ag91
ag74
ag67
ag70
ag74
ag93
ag73
ag74
ag67
ag93
ag94
ag67
ag93
ag95
ag96
ag96
ag97
ag98
ag64
ag99
ag66
ag70
ag74
ag93
ag95
ag97
ag100
ag101
ag97
ag101
ag97
ag98
ag101
ag102
ag97
ag98
ag101
ag103
ag104
ag97
ag64
ag104
ag96
ag96
ag97
ag101
ag97
ag98
ag64
ag104
ag103
ag99
ag66
ag67
ag68
ag70
ag92
ag72
ag94
ag70
ag72
ag73
ag74
ag70
ag92
ag72
asS'ui'
p110
(lp111
S'hs'
p112
ag60
aS'hp'
p113
aS'ss'
p114
ag60
ag112
ag114
ag112
ag112
ag112
ag60
ag113
ag112
ag114
ag60
ag60
ag114
ag113
ag60
ag113
ag60
ag114
ag113
ag112
ag60
ag112
ag60
ag113
ag113
ag112
ag60
ag114
ag112
ag60
ag112
ag112
ag60
ag114
ag113
ag112
ag113
ag60
ag112
ag114
ag114
ag60
ag112
ag112
ag112
ag60
ag113
ag60
ag112
ag114
ag112
ag112
ag114
ag114
ag112
ag60
ag113
ag112
ag114
ag114
ag60
ag112
ag112
ag114
ag112
ag113
ag114
ag114
ag113
ag60
ag113
ag113
ag60
ag113
ag60
ag112
ag113
ag114
ag60
ag112
ag60
ag114
ag112
ag114
ag112
ag114
ag113
ag113
ag60
ag113
ag60
ag112
ag112
ag60
ag113
ag112
ag60
ag113
ag60
ag60
ag112
ag60
ag112
ag60
ag114
ag112
ag60
ag113
ag112
ag114
ag112
asS'um_before'
p115
(lp116
g112
ag60
ag114
ag114
ag60
ag113
ag113
ag112
ag113
ag112
ag112
ag60
ag60
ag113
ag60
ag60
ag113
ag60
ag60
ag113
ag112
ag114
ag113
ag112
ag60
ag114
ag60
ag112
ag60
ag112
ag114
ag113
ag113
ag112
ag112
ag112
ag112
ag113
ag60
ag114
ag113
ag60
ag113
ag114
ag114
ag114
ag114
ag60
ag114
ag112
ag114
ag113
ag112
ag112
ag112
ag112
ag114
ag112
ag113
ag114
ag112
ag60
ag114
ag114
ag112
ag114
ag112
ag114
ag60
ag113
ag112
ag112
ag60
ag112
ag60
ag113
ag112
ag113
ag112
ag114
ag113
ag60
ag112
ag114
ag113
ag113
ag112
ag112
ag112
ag112
ag114
ag114
ag112
ag113
ag112
ag114
ag112
ag112
ag113
ag114
ag60
ag114
ag60
ag113
ag114
ag113
ag113
ag113
ag113
ag112
ag112
ag113
ag114
ag113
ag114
asS'um_after'
p117
(lp118
g112
ag60
ag114
ag114
ag60
ag113
ag113
ag112
ag113
ag112
ag112
ag60
ag60
ag113
ag60
ag60
ag113
ag60
ag60
ag113
ag112
ag114
ag113
ag112
ag60
ag114
ag60
ag112
ag60
ag112
ag114
ag113
ag113
ag112
ag112
ag112
ag112
ag113
ag60
ag114
ag113
ag60
ag113
ag114
ag114
ag114
ag114
ag60
ag114
ag112
ag114
ag113
ag112
ag112
ag112
ag112
ag114
ag112
ag113
ag114
ag112
ag60
ag114
ag114
ag112
ag114
ag112
ag114
ag60
ag113
ag112
ag112
ag60
ag112
ag60
ag113
ag112
ag113
ag112
ag114
ag113
ag60
ag112
ag114
ag113
ag113
ag112
ag112
ag112
ag112
ag114
ag114
ag112
ag113
ag112
ag114
ag112
ag112
ag113
ag114
ag60
ag114
ag60
ag113
ag114
ag113
ag113
ag113
ag113
ag112
ag112
ag113
ag114
ag113
ag114
asS'is_normalized_entropy_less_than_threshold'
p119
(lp120
g50
(g51
(S'b1'
p121
I0
I1
tp122
Rp123
(I3
S'|'
p124
NNNI-1
I-1
I0
tp125
bS'\x01'
p126
tp127
Rp128
ag128
ag128
ag128
ag128
ag128
ag128
ag128
ag128
ag128
ag128
ag128
ag128
ag128
ag128
ag128
ag128
ag128
ag128
ag128
ag128
ag128
ag128
ag128
ag128
ag128
ag128
ag128
ag128
ag128
ag128
ag128
ag128
ag128
ag128
ag128
ag128
ag128
ag128
ag128
ag128
ag128
ag128
ag128
ag128
ag128
ag128
ag128
ag128
ag128
ag128
ag128
ag128
ag128
ag128
ag128
ag128
ag128
ag128
ag128
ag128
ag128
ag128
ag128
ag128
ag128
ag128
ag128
ag128
ag128
ag128
ag128
ag128
ag128
ag128
ag128
ag128
ag128
ag128
ag128
ag128
ag128
ag128
ag128
ag128
ag128
ag128
ag128
ag128
ag128
ag128
ag128
ag128
ag128
ag128
ag128
ag128
ag128
ag128
ag128
ag128
ag128
ag128
ag128
ag128
ag128
ag128
ag128
ag128
ag128
ag128
ag128
ag128
ag128
ag128
asaa(lp129
S'index'
p130
aI38388
aatp131
Rp132
.