ccollections
OrderedDict
p0
((lp1
(lp2
S'combination_dict'
p3
ag0
((lp4
(lp5
S'r_to_g_config'
p6
aS'br'
p7
aa(lp8
S'num_turns'
p9
aI3
aa(lp10
S'start_direction'
p11
acutils_ms
StartDirection
p12
(I0
tp13
Rp14
aa(lp15
S'assistance_type'
p16
acutils_ms
AssistanceType
p17
(I0
tp18
Rp19
aa(lp20
S'start_mode'
p21
aS't'
p22
aa(lp23
S'ui_given_a_noise'
p24
aF0.1
aa(lp25
S'um_given_ui_noise'
p26
aF0.7
aa(lp27
S'entropy_threshold'
p28
aF0.7
aatp29
Rp30
aa(lp31
S'data'
p32
accollections
defaultdict
p33
(c__builtin__
list
p34
tp35
Rp36
S'a'
p37
(lp38
S'mode_r'
p39
aS'move_p'
p40
ag40
ag39
ag39
ag40
ag39
ag39
ag39
ag39
ag39
ag39
ag39
ag39
ag39
aS'move_n'
p41
ag39
ag40
ag40
ag40
ag39
ag40
ag40
ag39
ag39
ag41
ag41
ag41
ag41
ag41
ag41
ag41
ag41
ag41
asS'assistance_match_with_ground_truth'
p42
(lp43
I01
aI00
aI00
aI00
aI01
aI01
aI00
aI00
aI00
aI00
aI00
aI00
aI00
aI00
aI01
aI01
aI01
aI00
aI00
aI01
aI01
aI00
aI01
aI00
aI01
aI00
aI00
aI00
aI00
aI00
aI00
aI00
aI00
aI01
asS'is_u_intended_equals_um'
p44
(lp45
I01
aI00
aI00
aI00
aI01
aI01
aI00
aI00
aI00
aI00
aI00
aI00
aI00
aI00
aI01
aI01
aI01
aI00
aI00
aI01
aI01
aI00
aI01
aI00
aI01
aI00
aI00
aI00
aI00
aI00
aI00
aI00
aI00
aI01
asS'total_steps'
p46
I34
sS'normalized_h_of_p_ui_given_um'
p47
(lp48
cnumpy.core.multiarray
scalar
p49
(cnumpy
dtype
p50
(S'f8'
p51
I0
I1
tp52
Rp53
(I3
S'<'
p54
NNNI-1
I-1
I0
tp55
bS'h\xe2\x1d\x96\x8aJ\xce?'
p56
tp57
Rp58
ag49
(g53
S'\xb3W\xc7\x91$Z\xe1?'
p59
tp60
Rp61
ag49
(g53
S'\xef\x1er\xd2\xe4G\xea?'
p62
tp63
Rp64
ag49
(g53
S'H\xee\x9eI\xa6\xc6\xda?'
p65
tp66
Rp67
ag49
(g53
S'h\xe2\x1d\x96\x8aJ\xce?'
p68
tp69
Rp70
ag49
(g53
S'\x81b\x11:.\xfa\xbd?'
p71
tp72
Rp73
ag49
(g53
S'H\xee\x9eI\xa6\xc6\xda?'
p74
tp75
Rp76
ag49
(g53
S'H\xee\x9eI\xa6\xc6\xda?'
p77
tp78
Rp79
ag49
(g53
S'&\xb1\x1fE\xdf\xa7\xd8?'
p80
tp81
Rp82
ag49
(g53
S'H\xee\x9eI\xa6\xc6\xda?'
p83
tp84
Rp85
ag49
(g53
S'V7\xdem\x18\xa1\xda?'
p86
tp87
Rp88
ag49
(g53
S'H\xee\x9eI\xa6\xc6\xda?'
p89
tp90
Rp91
ag49
(g53
S'&\xb1\x1fE\xdf\xa7\xd8?'
p92
tp93
Rp94
ag49
(g53
S'H\xee\x9eI\xa6\xc6\xda?'
p95
tp96
Rp97
ag49
(g53
S'h\xe2\x1d\x96\x8aJ\xce?'
p98
tp99
Rp100
ag49
(g53
S'\xd8\x91\t\xbc\xe1\xd3\xc2?'
p101
tp102
Rp103
ag49
(g53
S'h\xe2\x1d\x96\x8aJ\xce?'
p104
tp105
Rp106
ag49
(g53
S'\xb3W\xc7\x91$Z\xe1?'
p107
tp108
Rp109
ag49
(g53
S'\xb3W\xc7\x91$Z\xe1?'
p110
tp111
Rp112
ag49
(g53
S'\x81b\x11:.\xfa\xbd?'
p113
tp114
Rp115
ag49
(g53
S'h\xe2\x1d\x96\x8aJ\xce?'
p116
tp117
Rp118
ag49
(g53
S'\xb3W\xc7\x91$Z\xe1?'
p119
tp120
Rp121
ag49
(g53
S'\x81b\x11:.\xfa\xbd?'
p122
tp123
Rp124
ag49
(g53
S'H\xee\x9eI\xa6\xc6\xda?'
p125
tp126
Rp127
ag49
(g53
S'h\xe2\x1d\x96\x8aJ\xce?'
p128
tp129
Rp130
ag49
(g53
S'2]Fr\x80\xf7\xdc?'
p131
tp132
Rp133
ag49
(g53
S'- \n"\xb6\xa5\xe2?'
p134
tp135
Rp136
ag49
(g53
S'- \n"\xb6\xa5\xe2?'
p137
tp138
Rp139
ag49
(g53
S'\xb3\x1d\x1fG\x9f\xed\xda?'
p140
tp141
Rp142
ag49
(g53
S'- \n"\xb6\xa5\xe2?'
p143
tp144
Rp145
ag49
(g53
S'- \n"\xb6\xa5\xe2?'
p146
tp147
Rp148
ag49
(g53
S'- \n"\xb6\xa5\xe2?'
p149
tp150
Rp151
ag49
(g53
S'- \n"\xb6\xa5\xe2?'
p152
tp153
Rp154
ag49
(g53
S'\xd8\x91\t\xbc\xe1\xd3\xc2?'
p155
tp156
Rp157
asS'sp'
p158
(lp159
(S'p0'
p160
I0
S'x'
p161
tp162
ag162
a(g160
I0
S't'
p163
tp164
ag164
ag162
a(S'p1'
p165
I0
g161
tp166
ag166
ag166
ag166
ag166
ag166
ag166
ag166
ag166
a(g165
I0
S'y'
p167
tp168
a(S'p2'
p169
I0
g167
tp170
a(g169
I0
g163
tp171
ag171
ag171
a(g169
F1.5707963267948966
g163
tp172
a(g169
F1.5707963267948966
g161
tp173
ag173
a(S'p3'
p174
F1.5707963267948966
g161
tp175
ag175
a(g174
F1.5707963267948966
g167
tp176
ag176
ag176
ag176
ag176
ag176
ag176
ag176
ag176
a(S'p4'
p177
F1.5707963267948966
g167
tp178
asS's'
p179
(lp180
(g160
I0
g22
tp181
ag162
ag162
ag164
ag164
ag162
ag166
ag166
ag166
ag166
ag166
ag166
ag166
ag166
ag166
ag168
ag170
ag171
ag171
ag171
ag172
ag173
ag173
ag175
ag175
ag176
ag176
ag176
ag176
ag176
ag176
ag176
ag176
ag176
asS'ui'
p182
(lp183
S'hp'
p184
ag158
aS'hs'
p185
ag184
ag184
ag184
ag184
ag184
ag184
ag184
ag184
ag185
ag184
ag184
ag184
aS'ss'
p186
ag184
ag158
ag158
ag158
ag184
ag158
ag158
ag184
ag184
ag186
ag185
ag184
ag186
ag185
ag186
ag185
ag186
ag186
asS'um_before'
p187
(lp188
g184
ag184
ag185
ag185
ag184
ag158
ag185
ag185
ag186
ag185
ag158
ag185
ag186
ag185
ag184
ag186
ag184
ag184
ag184
ag158
ag184
ag184
ag158
ag185
ag184
ag184
ag185
ag185
ag158
ag185
ag185
ag185
ag185
ag186
asS'um_after'
p189
(lp190
g184
aNag185
aNag184
ag158
aNaNaNaNaNaNaNaNag184
ag186
ag184
aNaNag158
ag184
aNag158
aNag184
aNaNaNaNaNaNaNaNag186
asS'is_normalized_entropy_less_than_threshold'
p191
(lp192
g49
(g50
(S'b1'
p193
I0
I1
tp194
Rp195
(I3
S'|'
p196
NNNI-1
I-1
I0
tp197
bS'\x01'
p198
tp199
Rp200
ag200
ag49
(g195
S'\x00'
p201
tp202
Rp203
ag200
ag200
ag200
ag200
ag200
ag200
ag200
ag200
ag200
ag200
ag200
ag200
ag200
ag200
ag200
ag200
ag200
ag200
ag200
ag200
ag200
ag200
ag200
ag200
ag200
ag200
ag200
ag200
ag200
ag200
ag200
asaa(lp204
S'index'
p205
aI105776
aatp206
Rp207
.