ccollections
OrderedDict
p0
((lp1
(lp2
S'combination_dict'
p3
ag0
((lp4
(lp5
S'r_to_g_config'
p6
aS'tl'
p7
aa(lp8
S'num_turns'
p9
aI3
aa(lp10
S'start_direction'
p11
acutils_ms
StartDirection
p12
(I0
tp13
Rp14
aa(lp15
S'assistance_type'
p16
acutils_ms
AssistanceType
p17
(I0
tp18
Rp19
aa(lp20
S'start_mode'
p21
aS'y'
p22
aa(lp23
S'ui_given_a_noise'
p24
aF0.5
aa(lp25
S'um_given_ui_noise'
p26
aF0.5
aa(lp27
S'entropy_threshold'
p28
aF0.7
aatp29
Rp30
aa(lp31
S'data'
p32
accollections
defaultdict
p33
(c__builtin__
list
p34
tp35
Rp36
S'a'
p37
(lp38
S'mode_l'
p39
ag39
aS'move_n'
p40
aS'mode_r'
p41
ag41
ag40
ag41
ag39
ag40
ag41
ag40
ag39
aS'move_p'
p42
ag39
ag42
ag41
ag42
ag39
ag42
ag39
ag42
ag39
ag39
ag39
ag40
ag41
ag42
ag41
ag42
asS'assistance_match_with_ground_truth'
p43
(lp44
I00
aI01
aI00
aI00
aI01
aI00
aI00
aI01
aI00
aI01
aI01
aI01
aI00
aI01
aI00
aI01
aI01
aI00
aI01
aI01
aI01
aI00
aI00
aI01
aI01
aI01
aI00
aI01
aI01
asS'is_u_intended_equals_um'
p45
(lp46
I01
aI01
aI00
aI01
aI01
aI00
aI00
aI01
aI00
aI01
aI01
aI01
aI01
aI01
aI01
aI01
aI01
aI01
aI01
aI01
aI01
aI00
aI00
aI01
aI01
aI01
aI01
aI01
aI01
asS'total_steps'
p47
I29
sS'normalized_h_of_p_ui_given_um'
p48
(lp49
cnumpy.core.multiarray
scalar
p50
(cnumpy
dtype
p51
(S'f8'
p52
I0
I1
tp53
Rp54
(I3
S'<'
p55
NNNI-1
I-1
I0
tp56
bS'\xe9\xe8\x1d1\x9f\xaa\xe6?'
p57
tp58
Rp59
ag50
(g54
S'SV\xd62)\x04\xd2?'
p60
tp61
Rp62
ag50
(g54
S'z7)\x9e\xbb\x0c\xe8?'
p63
tp64
Rp65
ag50
(g54
S'\n\x1d\x18\xa6\xef\x17\xe2?'
p66
tp67
Rp68
ag50
(g54
S'3I\xd9\x17,=\xbc?'
p69
tp70
Rp71
ag50
(g54
S'z7)\x9e\xbb\x0c\xe8?'
p72
tp73
Rp74
ag50
(g54
S'\xda\xbc\xd5\xd2+\xc3\xee?'
p75
tp76
Rp77
ag50
(g54
S'SV\xd62)\x04\xd2?'
p78
tp79
Rp80
ag50
(g54
S'z7)\x9e\xbb\x0c\xe8?'
p81
tp82
Rp83
ag50
(g54
S'3I\xd9\x17,=\xbc?'
p84
tp85
Rp86
ag50
(g54
S'6I\x1f\xf6+8\xce?'
p87
tp88
Rp89
ag50
(g54
S'SV\xd62)\x04\xd2?'
p90
tp91
Rp92
ag50
(g54
S'.\xe7\x934\xb4D\xdb?'
p93
tp94
Rp95
ag50
(g54
S'SV\xd62)\x04\xd2?'
p96
tp97
Rp98
ag50
(g54
S'\x0c\x91\x802\xa4\xf7\xe9?'
p99
tp100
Rp101
ag50
(g54
S'3I\xd9\x17,=\xbc?'
p102
tp103
Rp104
ag50
(g54
S'\x14\x06m\xa8\x10*\xdb?'
p105
tp106
Rp107
ag50
(g54
S'\xe9\xe8\x1d1\x9f\xaa\xe6?'
p108
tp109
Rp110
ag50
(g54
S'\x14\x06m\xa8\x10*\xdb?'
p111
tp112
Rp113
ag50
(g54
S'SV\xd62)\x04\xd2?'
p114
tp115
Rp116
ag50
(g54
S'\x14\x06m\xa8\x10*\xdb?'
p117
tp118
Rp119
ag50
(g54
S'\x9b\x97\x1bU\xca\x90\xe2?'
p120
tp121
Rp122
ag50
(g54
S'\x9b\x97\x1bU\xca\x90\xe2?'
p123
tp124
Rp125
ag50
(g54
S'SV\xd62)\x04\xd2?'
p126
tp127
Rp128
ag50
(g54
S'6I\x1f\xf6+8\xce?'
p129
tp130
Rp131
ag50
(g54
S'3I\xd9\x17,=\xbc?'
p132
tp133
Rp134
ag50
(g54
S'\x0c\x91\x802\xa4\xf7\xe9?'
p135
tp136
Rp137
ag50
(g54
S'3I\xd9\x17,=\xbc?'
p138
tp139
Rp140
ag50
(g54
S'\x14\x06m\xa8\x10*\xdb?'
p141
tp142
Rp143
asS'sp'
p144
(lp145
(S'p0'
p146
I0
S'y'
p147
tp148
a(g146
I0
S'x'
p149
tp150
a(g146
I0
S't'
p151
tp152
a(g146
I0
g151
tp153
a(g146
I0
g149
tp154
ag152
a(g146
I0
g147
tp155
ag150
ag152
ag154
a(S'p1'
p156
I0
g149
tp157
a(g156
I0
g151
tp158
a(g156
I0
g149
tp159
ag158
a(g156
I0
g147
tp160
a(g156
I0
g151
tp161
a(g156
F1.5707963267948966
g151
tp162
a(g156
I0
g151
tp163
ag162
a(g156
F1.5707963267948966
g147
tp164
a(S'p2'
p165
F1.5707963267948966
g147
tp166
ag166
ag166
a(g165
F1.5707963267948966
g149
tp167
a(S'p3'
p168
F1.5707963267948966
g149
tp169
a(g168
F1.5707963267948966
g147
tp170
a(g168
F1.5707963267948966
g149
tp171
ag170
a(S'p4'
p172
F1.5707963267948966
g147
tp173
asS's'
p174
(lp175
(g146
I0
g22
tp176
ag148
ag150
ag152
ag153
ag154
ag152
ag155
ag150
ag152
ag154
ag157
ag158
ag159
ag158
ag160
ag161
ag162
ag163
ag162
ag164
ag166
ag166
ag166
ag167
ag169
ag170
ag171
ag170
asS'ui'
p177
(lp178
S'ss'
p179
aS'hs'
p180
ag180
aS'hp'
p181
ag181
ag179
ag180
ag180
ag179
ag181
ag179
ag180
ag144
ag180
ag144
ag144
ag181
ag179
ag144
ag180
ag144
ag144
ag180
ag180
ag179
ag181
ag180
ag181
ag144
asS'um_before'
p182
(lp183
g179
ag180
ag180
ag144
ag181
ag180
ag180
ag180
ag180
ag181
ag179
ag180
ag181
ag180
ag180
ag181
ag144
ag179
ag144
ag180
ag144
ag144
ag144
ag180
ag179
ag181
ag180
ag181
ag144
asS'um_after'
p184
(lp185
g179
ag180
ag180
ag144
ag181
ag180
ag180
ag180
ag180
ag181
ag179
ag180
ag181
ag180
ag180
ag181
ag144
ag179
ag144
ag180
ag144
aNaNag180
ag179
ag181
ag180
ag181
ag144
asS'is_normalized_entropy_less_than_threshold'
p186
(lp187
g50
(g51
(S'b1'
p188
I0
I1
tp189
Rp190
(I3
S'|'
p191
NNNI-1
I-1
I0
tp192
bS'\x00'
p193
tp194
Rp195
ag50
(g190
S'\x01'
p196
tp197
Rp198
ag195
ag198
ag198
ag195
ag195
ag198
ag195
ag198
ag198
ag198
ag198
ag198
ag195
ag198
ag198
ag195
ag198
ag198
ag198
ag198
ag198
ag198
ag198
ag198
ag195
ag198
ag198
asaa(lp199
S'index'
p200
aI49323
aatp201
Rp202
.