ccollections
OrderedDict
p0
((lp1
(lp2
S'combination_dict'
p3
ag0
((lp4
(lp5
S'r_to_g_config'
p6
aS'br'
p7
aa(lp8
S'num_turns'
p9
aI3
aa(lp10
S'start_direction'
p11
acutils_ms
StartDirection
p12
(I1
tp13
Rp14
aa(lp15
S'assistance_type'
p16
acutils_ms
AssistanceType
p17
(I0
tp18
Rp19
aa(lp20
S'start_mode'
p21
aS'x'
p22
aa(lp23
S'ui_given_a_noise'
p24
aF0.7
aa(lp25
S'um_given_ui_noise'
p26
aF0.7
aa(lp27
S'entropy_threshold'
p28
aF0.8
aatp29
Rp30
aa(lp31
S'data'
p32
accollections
defaultdict
p33
(c__builtin__
list
p34
tp35
Rp36
S'a'
p37
(lp38
S'mode_r'
p39
aS'mode_l'
p40
ag40
aS'move_n'
p41
ag40
ag41
ag40
aS'move_p'
p42
ag39
ag41
ag40
ag39
ag40
ag42
ag40
ag42
ag40
ag42
ag39
ag39
ag41
ag40
ag39
ag39
ag39
ag39
ag39
ag41
ag41
ag40
ag41
ag40
ag39
ag42
ag40
ag42
ag39
ag40
ag41
ag40
ag41
ag39
ag39
ag42
ag39
ag42
ag39
ag42
asS'assistance_match_with_ground_truth'
p43
(lp44
I00
aI00
aI01
aI00
aI01
aI01
aI01
aI01
aI01
aI00
aI00
aI00
aI01
aI00
aI01
aI00
aI01
aI00
aI00
aI01
aI00
aI00
aI00
aI00
aI00
aI00
aI01
aI00
aI00
aI01
aI01
aI00
aI01
aI00
aI01
aI01
aI00
aI01
aI00
aI01
aI01
aI00
aI01
aI01
aI00
aI01
aI01
aI01
asS'is_u_intended_equals_um'
p45
(lp46
I00
aI00
aI01
aI00
aI01
aI01
aI01
aI01
aI01
aI01
aI01
aI00
aI01
aI01
aI01
aI01
aI01
aI01
aI00
aI01
aI00
aI01
aI01
aI00
aI00
aI01
aI01
aI01
aI00
aI01
aI01
aI01
aI01
aI01
aI01
aI01
aI00
aI01
aI00
aI01
aI01
aI01
aI01
aI01
aI00
aI01
aI01
aI01
asS'total_steps'
p47
I48
sS'normalized_h_of_p_ui_given_um'
p48
(lp49
cnumpy.core.multiarray
scalar
p50
(cnumpy
dtype
p51
(S'f8'
p52
I0
I1
tp53
Rp54
(I3
S'<'
p55
NNNI-1
I-1
I0
tp56
bS'FT\x93\xb7\xda\x0f\xef?'
p57
tp58
Rp59
ag50
(g54
S'\x8b\xf2\xc7\x15\xd6\xce\xe2?'
p60
tp61
Rp62
ag50
(g54
S'\xc2`3\xd7\x93\xc0\xda?'
p63
tp64
Rp65
ag50
(g54
S'\xbcNBkd\r\xea?'
p66
tp67
Rp68
ag50
(g54
S'\xc2`3\xd7\x93\xc0\xda?'
p69
tp70
Rp71
ag50
(g54
S'\xc4X\xdf&\xf5\xbd\xe5?'
p72
tp73
Rp74
ag50
(g54
S'\xc2`3\xd7\x93\xc0\xda?'
p75
tp76
Rp77
ag50
(g54
S'\xec\xffT^r\x0b\xd3?'
p78
tp79
Rp80
ag50
(g54
S'\x1b\xb9\x13\r9$\xe1?'
p81
tp82
Rp83
ag50
(g54
S'b\xd7\xb0GW}\xe4?'
p84
tp85
Rp86
ag50
(g54
S'\xe1~\xd4\xc0&\x9d\xe6?'
p87
tp88
Rp89
ag50
(g54
S'FT\x93\xb7\xda\x0f\xef?'
p90
tp91
Rp92
ag50
(g54
S'\xc2`3\xd7\x93\xc0\xda?'
p93
tp94
Rp95
ag50
(g54
S'\xd0\xf0y\x9c~\x8f\xe9?'
p96
tp97
Rp98
ag50
(g54
S'\xc2`3\xd7\x93\xc0\xda?'
p99
tp100
Rp101
ag50
(g54
S'\xd0\xf0y\x9c~\x8f\xe9?'
p102
tp103
Rp104
ag50
(g54
S'\xc2`3\xd7\x93\xc0\xda?'
p105
tp106
Rp107
ag50
(g54
S'h\x8c]dCU\xe3?'
p108
tp109
Rp110
ag50
(g54
S'\xd82\xfa\x0fK\xab\xec?'
p111
tp112
Rp113
ag50
(g54
S'\x1b\xb9\x13\r9$\xe1?'
p114
tp115
Rp116
ag50
(g54
S'\xbcNBkd\r\xea?'
p117
tp118
Rp119
ag50
(g54
S'\xe1~\xd4\xc0&\x9d\xe6?'
p120
tp121
Rp122
ag50
(g54
S'V2\xd7\x1c\xdee\xe2?'
p123
tp124
Rp125
ag50
(g54
S'\xd82\xfa\x0fK\xab\xec?'
p126
tp127
Rp128
ag50
(g54
S'\xd82\xfa\x0fK\xab\xec?'
p129
tp130
Rp131
ag50
(g54
S'V2\xd7\x1c\xdee\xe2?'
p132
tp133
Rp134
ag50
(g54
S'\x1b\xb9\x13\r9$\xe1?'
p135
tp136
Rp137
ag50
(g54
S'b\xd7\xb0GW}\xe4?'
p138
tp139
Rp140
ag50
(g54
S'\xbcNBkd\r\xea?'
p141
tp142
Rp143
ag50
(g54
S'\xc2`3\xd7\x93\xc0\xda?'
p144
tp145
Rp146
ag50
(g54
S'\xc4X\xdf&\xf5\xbd\xe5?'
p147
tp148
Rp149
ag50
(g54
S'\xe1~\xd4\xc0&\x9d\xe6?'
p150
tp151
Rp152
ag50
(g54
S'\x1b\xb9\x13\r9$\xe1?'
p153
tp154
Rp155
ag50
(g54
S'\xd0\xf0y\x9c~\x8f\xe9?'
p156
tp157
Rp158
ag50
(g54
S'\xc2`3\xd7\x93\xc0\xda?'
p159
tp160
Rp161
ag50
(g54
S'\xec\xffT^r\x0b\xd3?'
p162
tp163
Rp164
ag50
(g54
S'FT\x93\xb7\xda\x0f\xef?'
p165
tp166
Rp167
ag50
(g54
S'\xc2`3\xd7\x93\xc0\xda?'
p168
tp169
Rp170
ag50
(g54
S'\xbcNBkd\r\xea?'
p171
tp172
Rp173
ag50
(g54
S'\xc2`3\xd7\x93\xc0\xda?'
p174
tp175
Rp176
ag50
(g54
S'\xc4X\xdf&\xf5\xbd\xe5?'
p177
tp178
Rp179
ag50
(g54
S'V2\xd7\x1c\xdee\xe2?'
p180
tp181
Rp182
ag50
(g54
S'\x1b\xb9\x13\r9$\xe1?'
p183
tp184
Rp185
ag50
(g54
S'\xec\xffT^r\x0b\xd3?'
p186
tp187
Rp188
ag50
(g54
S'\xd82\xfa\x0fK\xab\xec?'
p189
tp190
Rp191
ag50
(g54
S'\xec\xffT^r\x0b\xd3?'
p192
tp193
Rp194
ag50
(g54
S'\x1b\xb9\x13\r9$\xe1?'
p195
tp196
Rp197
ag50
(g54
S'\xec\xffT^r\x0b\xd3?'
p198
tp199
Rp200
asS'sp'
p201
(lp202
(S'p0'
p203
I0
S't'
p204
tp205
ag205
a(g203
I0
S'y'
p206
tp207
a(g203
I0
g204
tp208
ag207
a(S'p1'
p209
I0
g206
tp210
a(g209
I0
S'x'
p211
tp212
a(S'p2'
p213
I0
g211
tp214
a(g213
I0
g206
tp215
a(g209
I0
g206
tp216
a(g209
I0
g204
tp217
a(g209
I0
g206
tp218
ag212
a(g209
I0
g206
tp219
ag212
ag219
ag212
a(g203
I0
g211
tp220
a(g203
I0
g211
tp221
a(g203
I0
g206
tp222
ag208
a(g203
I0
g211
tp223
a(g203
I0
g211
tp224
ag221
ag221
ag224
ag222
a(g203
I0
g206
tp225
ag208
ag207
ag210
ag217
a(g209
I0
g211
tp226
ag219
ag212
ag214
a(g213
I0
g204
tp227
a(g213
I0
g206
tp228
a(g213
I0
g204
tp229
ag228
a(S'p3'
p230
I0
g206
tp231
a(g230
I0
g206
tp232
a(g230
I0
g204
tp233
a(g230
F1.5707963267948966
g204
tp234
a(g230
I0
g204
tp235
ag234
a(g230
F1.5707963267948966
g211
tp236
a(S'p4'
p237
F1.5707963267948966
g211
tp238
asS's'
p239
(lp240
(g203
I0
g22
tp241
ag205
ag205
ag207
ag208
ag207
ag210
ag212
ag214
ag215
ag216
ag217
ag218
ag212
ag219
ag212
ag219
ag212
ag220
ag221
ag222
ag208
ag223
ag224
ag221
ag221
ag224
ag222
ag225
ag208
ag207
ag210
ag217
ag226
ag219
ag212
ag214
ag227
ag228
ag229
ag228
ag231
ag232
ag233
ag234
ag235
ag234
ag236
asS'ui'
p242
(lp243
g201
aS'hs'
p244
ag244
aS'ss'
p245
ag244
ag245
ag244
ag201
ag201
aS'hp'
p246
ag245
ag245
ag244
ag201
ag244
ag246
ag244
ag246
ag245
ag246
ag245
ag246
ag201
ag245
ag245
ag246
ag246
ag201
ag246
ag246
ag245
ag246
ag246
ag201
ag244
ag201
ag246
ag244
ag246
ag244
ag244
ag201
ag246
ag201
ag244
ag246
ag245
ag201
asS'um_before'
p247
(lp248
g244
ag245
ag244
ag246
ag244
ag245
ag244
ag201
ag246
ag201
ag246
ag244
ag244
ag246
ag244
ag246
ag244
ag245
ag245
ag246
ag246
ag246
ag201
ag245
ag245
ag201
ag246
ag201
ag246
ag244
ag245
ag246
ag246
ag246
ag244
ag201
ag244
ag244
ag246
ag244
ag245
ag201
ag246
ag201
ag245
ag201
ag246
ag201
asS'um_after'
p249
(lp250
g244
aNag244
ag246
ag244
ag245
ag244
ag201
ag246
ag201
ag246
ag244
ag244
ag246
ag244
ag246
ag244
ag245
ag245
ag246
ag246
ag246
ag201
ag245
ag245
ag201
ag246
ag201
ag246
ag244
ag245
ag246
ag246
ag246
ag244
ag201
ag244
ag244
ag246
ag244
ag245
ag201
ag246
ag201
ag245
ag201
ag246
ag201
asS'is_normalized_entropy_less_than_threshold'
p251
(lp252
g50
(g51
(S'b1'
p253
I0
I1
tp254
Rp255
(I3
S'|'
p256
NNNI-1
I-1
I0
tp257
bS'\x00'
p258
tp259
Rp260
ag50
(g255
S'\x01'
p261
tp262
Rp263
ag263
ag260
ag263
ag263
ag263
ag263
ag263
ag263
ag263
ag260
ag263
ag263
ag263
ag263
ag263
ag263
ag260
ag263
ag260
ag263
ag263
ag260
ag260
ag263
ag263
ag263
ag260
ag263
ag263
ag263
ag263
ag263
ag263
ag263
ag260
ag263
ag260
ag263
ag263
ag263
ag263
ag263
ag260
ag263
ag263
ag263
asaa(lp264
S'index'
p265
aI111189
aatp266
Rp267
.