ccollections
OrderedDict
p0
((lp1
(lp2
S'combination_dict'
p3
ag0
((lp4
(lp5
S'r_to_g_config'
p6
aS'tl'
p7
aa(lp8
S'num_turns'
p9
aI2
aa(lp10
S'start_direction'
p11
acutils_ms
StartDirection
p12
(I1
tp13
Rp14
aa(lp15
S'assistance_type'
p16
acutils_ms
AssistanceType
p17
(I1
tp18
Rp19
aa(lp20
S'start_mode'
p21
aS't'
p22
aa(lp23
S'ui_given_a_noise'
p24
aF0.7
aa(lp25
S'um_given_ui_noise'
p26
aF0.1
aa(lp27
S'entropy_threshold'
p28
aF0.9
aatp29
Rp30
aa(lp31
S'data'
p32
accollections
defaultdict
p33
(c__builtin__
list
p34
tp35
Rp36
S'a'
p37
(lp38
S'mode_l'
p39
aS'mode_r'
p40
aS'move_p'
p41
ag41
ag39
ag40
ag40
ag40
ag40
ag40
ag40
ag40
ag40
ag40
ag40
ag40
ag40
aS'move_n'
p42
ag39
ag41
ag39
ag39
ag41
ag41
ag39
ag41
asS'assistance_match_with_ground_truth'
p43
(lp44
I00
aI01
aI00
aI01
aI00
aI00
aI00
aI00
aI00
aI00
aI00
aI00
aI00
aI00
aI00
aI00
aI01
aI01
aI01
aI01
aI00
aI00
aI00
aI01
aI01
aI01
asS'is_u_intended_equals_um'
p45
(lp46
I01
aI01
aI01
aI01
aI01
aI01
aI01
aI01
aI01
aI01
aI01
aI01
aI01
aI01
aI01
aI01
aI01
aI01
aI01
aI01
aI01
aI01
aI01
aI01
aI01
aI01
asS'total_steps'
p47
I26
sS'normalized_h_of_p_ui_given_um'
p48
(lp49
cnumpy.core.multiarray
scalar
p50
(cnumpy
dtype
p51
(S'f8'
p52
I0
I1
tp53
Rp54
(I3
S'<'
p55
NNNI-1
I-1
I0
tp56
bS'02NP}\xf8\xe0?'
p57
tp58
Rp59
ag50
(g54
S"o\xcb\xf1'\x9f\xe7\xd2?"
p60
tp61
Rp62
ag50
(g54
S'G(\xf6\xacl\x11\xb6?'
p63
tp64
Rp65
ag50
(g54
S'\r)\xc5\xceC\xbe\xbc?'
p66
tp67
Rp68
ag50
(g54
S'02NP}\xf8\xe0?'
p69
tp70
Rp71
ag50
(g54
S'\xa7bhT\xf1\xc1\xd1?'
p72
tp73
Rp74
ag50
(g54
S'tN\xadl\xf2*\xc4?'
p75
tp76
Rp77
ag50
(g54
S'\xa7bhT\xf1\xc1\xd1?'
p78
tp79
Rp80
ag50
(g54
S'tN\xadl\xf2*\xc4?'
p81
tp82
Rp83
ag50
(g54
S'tN\xadl\xf2*\xc4?'
p84
tp85
Rp86
ag50
(g54
S'tN\xadl\xf2*\xc4?'
p87
tp88
Rp89
ag50
(g54
S'tN\xadl\xf2*\xc4?'
p90
tp91
Rp92
ag50
(g54
S'tN\xadl\xf2*\xc4?'
p93
tp94
Rp95
ag50
(g54
S'tN\xadl\xf2*\xc4?'
p96
tp97
Rp98
ag50
(g54
S'\xa7bhT\xf1\xc1\xd1?'
p99
tp100
Rp101
ag50
(g54
S'\xa7bhT\xf1\xc1\xd1?'
p102
tp103
Rp104
ag50
(g54
S"o\xcb\xf1'\x9f\xe7\xd2?"
p105
tp106
Rp107
ag50
(g54
S'\x16\xdc\xe1\x00a4\xb5?'
p108
tp109
Rp110
ag50
(g54
S'\xf4\xe6\xc4\xe9\xee\x97\xb4?'
p111
tp112
Rp113
ag50
(g54
S'\r)\xc5\xceC\xbe\xbc?'
p114
tp115
Rp116
ag50
(g54
S'\xc6&C\xd7\xd8~\xe4?'
p117
tp118
Rp119
ag50
(g54
S'VD\xbf\x84\x10\x9b\xcf?'
p120
tp121
Rp122
ag50
(g54
S'G(\xf6\xacl\x11\xb6?'
p123
tp124
Rp125
ag50
(g54
S'\r)\xc5\xceC\xbe\xbc?'
p126
tp127
Rp128
ag50
(g54
S'\xf4\xe6\xc4\xe9\xee\x97\xb4?'
p129
tp130
Rp131
ag50
(g54
S'\r)\xc5\xceC\xbe\xbc?'
p132
tp133
Rp134
asS'sp'
p135
(lp136
(S'p0'
p137
I0
S'x'
p138
tp139
a(g137
I0
S'y'
p140
tp141
a(g137
I0
g140
tp142
a(S'p1'
p143
I0
g140
tp144
a(g143
I0
S't'
p145
tp146
a(g143
I0
g145
tp147
a(g143
I0
g145
tp148
ag147
ag148
ag148
ag148
ag148
ag148
ag148
ag147
ag147
a(g143
I0
g138
tp149
a(S'p2'
p150
I0
g138
tp151
a(g150
I0
g145
tp152
a(g150
F1.5707963267948966
g145
tp153
a(g150
F1.5707963267948966
g145
tp154
a(g150
I0
g145
tp155
a(g150
I0
g145
tp156
ag153
a(g150
F1.5707963267948966
g140
tp157
a(S'p3'
p158
F1.5707963267948966
g140
tp159
asS's'
p160
(lp161
(g137
I0
g22
tp162
ag139
ag141
ag142
ag144
ag146
ag147
ag148
ag147
ag148
ag148
ag148
ag148
ag148
ag148
ag147
ag147
ag149
ag151
ag152
ag153
ag154
ag155
ag156
ag153
ag157
asS'ui'
p163
(lp164
S'hp'
p165
ag165
aS'ss'
p166
ag135
ag165
ag135
ag165
ag135
ag166
ag166
ag166
ag166
ag166
ag166
ag166
ag135
ag165
ag166
aS'hs'
p167
ag135
ag135
ag166
ag166
ag135
ag167
ag135
asS'um_before'
p168
(lp169
g165
ag165
ag166
ag135
ag165
ag135
ag166
ag135
ag166
ag166
ag166
ag166
ag166
ag166
ag135
ag135
ag165
ag166
ag167
ag135
ag135
ag166
ag166
ag135
ag167
ag135
asS'um_after'
p170
(lp171
g165
ag165
ag166
ag135
ag165
ag135
ag166
ag135
ag166
ag166
ag166
ag166
ag166
ag166
ag135
ag135
ag165
ag166
ag167
ag135
ag135
ag166
ag166
ag135
ag167
ag135
asS'is_normalized_entropy_less_than_threshold'
p172
(lp173
g50
(g51
(S'b1'
p174
I0
I1
tp175
Rp176
(I3
S'|'
p177
NNNI-1
I-1
I0
tp178
bS'\x01'
p179
tp180
Rp181
ag181
ag181
ag181
ag181
ag181
ag181
ag181
ag181
ag181
ag181
ag181
ag181
ag181
ag181
ag181
ag181
ag181
ag181
ag181
ag181
ag181
ag181
ag181
ag181
ag181
asaa(lp182
S'index'
p183
aI46246
aatp184
Rp185
.