ccollections
OrderedDict
p0
((lp1
(lp2
S'combination_dict'
p3
ag0
((lp4
(lp5
S'r_to_g_config'
p6
aS'br'
p7
aa(lp8
S'num_turns'
p9
aI3
aa(lp10
S'start_direction'
p11
acutils_ms
StartDirection
p12
(I0
tp13
Rp14
aa(lp15
S'assistance_type'
p16
acutils_ms
AssistanceType
p17
(I0
tp18
Rp19
aa(lp20
S'start_mode'
p21
aS't'
p22
aa(lp23
S'ui_given_a_noise'
p24
aF0.5
aa(lp25
S'um_given_ui_noise'
p26
aF0.3
aa(lp27
S'entropy_threshold'
p28
aF0.5
aatp29
Rp30
aa(lp31
S'data'
p32
accollections
defaultdict
p33
(c__builtin__
list
p34
tp35
Rp36
S'a'
p37
(lp38
S'mode_r'
p39
aS'mode_l'
p40
ag39
aS'move_p'
p41
ag40
ag41
ag39
ag40
ag40
aS'move_n'
p42
ag40
ag39
ag39
ag41
ag39
ag42
ag40
ag41
ag39
ag42
ag39
ag41
ag41
ag39
ag41
ag39
ag39
ag41
ag39
ag39
ag39
ag40
ag39
ag39
ag39
ag42
ag40
ag41
ag41
ag39
ag39
ag39
ag39
ag39
ag40
ag40
ag40
ag42
ag40
ag41
ag39
ag39
ag42
ag40
ag40
ag40
ag41
ag39
ag39
ag39
ag40
ag39
ag42
ag40
ag40
ag40
ag40
ag39
ag41
ag40
ag39
ag40
ag40
ag40
ag40
ag42
ag39
ag39
ag39
ag39
ag39
ag39
ag39
ag41
ag41
ag39
ag41
ag40
ag41
ag39
ag42
ag40
ag40
ag40
ag40
ag39
ag40
ag39
ag40
ag39
ag41
ag39
ag40
ag41
ag41
ag39
ag40
ag39
ag39
ag41
ag39
ag40
ag42
ag40
ag39
ag41
ag39
ag42
ag40
ag40
ag41
ag41
ag39
ag41
ag41
ag39
ag39
ag41
ag40
ag41
ag39
ag40
ag42
ag40
ag41
ag41
ag39
ag42
ag40
ag40
ag42
ag40
ag41
ag39
ag39
ag42
asS'assistance_match_with_ground_truth'
p43
(lp44
I00
aI00
aI01
aI00
aI01
aI01
aI00
aI00
aI01
aI00
aI00
aI00
aI01
aI01
aI01
aI00
aI01
aI01
aI01
aI01
aI01
aI00
aI01
aI01
aI00
aI00
aI01
aI00
aI00
aI00
aI00
aI00
aI00
aI00
aI01
aI00
aI01
aI00
aI01
aI00
aI00
aI00
aI00
aI00
aI00
aI00
aI01
aI00
aI01
aI01
aI00
aI01
aI00
aI00
aI00
aI01
aI01
aI00
aI00
aI00
aI00
aI01
aI01
aI00
aI00
aI00
aI00
aI00
aI00
aI00
aI00
aI00
aI00
aI00
aI01
aI00
aI00
aI00
aI00
aI00
aI00
aI00
aI01
aI00
aI01
aI01
aI00
aI01
aI01
aI01
aI00
aI00
aI00
aI00
aI00
aI00
aI00
aI00
aI00
aI00
aI00
aI00
aI01
aI00
aI01
aI00
aI00
aI00
aI01
aI00
aI00
aI01
aI01
aI00
aI01
aI00
aI01
aI00
aI00
aI01
aI00
aI00
aI01
aI00
aI00
aI00
aI01
aI00
aI01
aI01
aI00
aI01
aI00
aI01
aI00
aI01
aI01
aI00
aI00
aI01
aI01
aI01
aI01
aI00
aI01
aI01
asS'is_u_intended_equals_um'
p45
(lp46
I01
aI01
aI01
aI01
aI01
aI01
aI01
aI01
aI01
aI01
aI01
aI00
aI01
aI01
aI01
aI01
aI01
aI01
aI01
aI01
aI01
aI01
aI01
aI01
aI01
aI00
aI01
aI01
aI01
aI00
aI01
aI01
aI01
aI01
aI01
aI01
aI01
aI01
aI01
aI01
aI01
aI01
aI01
aI01
aI01
aI01
aI01
aI01
aI01
aI01
aI01
aI01
aI01
aI01
aI01
aI01
aI01
aI01
aI01
aI01
aI01
aI01
aI01
aI01
aI01
aI01
aI01
aI01
aI01
aI01
aI01
aI01
aI01
aI01
aI01
aI01
aI00
aI00
aI01
aI01
aI00
aI01
aI01
aI01
aI01
aI01
aI01
aI01
aI01
aI01
aI01
aI01
aI01
aI01
aI01
aI01
aI01
aI01
aI01
aI01
aI01
aI01
aI01
aI01
aI01
aI01
aI01
aI00
aI01
aI01
aI01
aI01
aI01
aI01
aI01
aI01
aI01
aI01
aI01
aI01
aI01
aI01
aI01
aI01
aI01
aI01
aI01
aI01
aI01
aI01
aI01
aI01
aI01
aI01
aI01
aI01
aI01
aI01
aI01
aI01
aI01
aI01
aI01
aI01
aI01
aI01
asS'total_steps'
p47
I146
sS'normalized_h_of_p_ui_given_um'
p48
(lp49
cnumpy.core.multiarray
scalar
p50
(cnumpy
dtype
p51
(S'f8'
p52
I0
I1
tp53
Rp54
(I3
S'<'
p55
NNNI-1
I-1
I0
tp56
bS'v\xd2gO\xb9\x89\xe0?'
p57
tp58
Rp59
ag50
(g54
S'\xd2V\x98\x9a\x90\x94\xe2?'
p60
tp61
Rp62
ag50
(g54
S'\xb6H\xf1\xc0(\x00\xd0?'
p63
tp64
Rp65
ag50
(g54
S'}\xe2\xe1+\\\xbf\xea?'
p66
tp67
Rp68
ag50
(g54
S'tu\x9d\x95`\x1a\xd3?'
p69
tp70
Rp71
ag50
(g54
S'@2s\x9b69\xd4?'
p72
tp73
Rp74
ag50
(g54
S'v\xd2gO\xb9\x89\xe0?'
p75
tp76
Rp77
ag50
(g54
S'4\xd1\xb6\x97\x14,\xe8?'
p78
tp79
Rp80
ag50
(g54
S'tu\x9d\x95`\x1a\xd3?'
p81
tp82
Rp83
ag50
(g54
S'\xf7\xf4j\x92\xb8\xc0\xe4?'
p84
tp85
Rp86
ag50
(g54
S'\xd2V\x98\x9a\x90\x94\xe2?'
p87
tp88
Rp89
ag50
(g54
S'\xfaE[\xb7\nq\xe8?'
p90
tp91
Rp92
ag50
(g54
S'\xb6H\xf1\xc0(\x00\xd0?'
p93
tp94
Rp95
ag50
(g54
S'@2s\x9b69\xd4?'
p96
tp97
Rp98
ag50
(g54
S'\xb6H\xf1\xc0(\x00\xd0?'
p99
tp100
Rp101
ag50
(g54
S'\xf7\xf4j\x92\xb8\xc0\xe4?'
p102
tp103
Rp104
ag50
(g54
S'tu\x9d\x95`\x1a\xd3?'
p105
tp106
Rp107
ag50
(g54
S'@2s\x9b69\xd4?'
p108
tp109
Rp110
ag50
(g54
S'\xb6H\xf1\xc0(\x00\xd0?'
p111
tp112
Rp113
ag50
(g54
S'+q9\x12\xd5\t\xd5?'
p114
tp115
Rp116
ag50
(g54
S'\xb6H\xf1\xc0(\x00\xd0?'
p117
tp118
Rp119
ag50
(g54
S'\x99\x99r<\x85\xbb\xe7?'
p120
tp121
Rp122
ag50
(g54
S'@2s\x9b69\xd4?'
p123
tp124
Rp125
ag50
(g54
S'\xb6H\xf1\xc0(\x00\xd0?'
p126
tp127
Rp128
ag50
(g54
S'j\xe7\xca0\x8f\x11\xe3?'
p129
tp130
Rp131
ag50
(g54
S'\xfaE[\xb7\nq\xe8?'
p132
tp133
Rp134
ag50
(g54
S'\xb6H\xf1\xc0(\x00\xd0?'
p135
tp136
Rp137
ag50
(g54
S'\x99\x99r<\x85\xbb\xe7?'
p138
tp139
Rp140
ag50
(g54
S'\x83Q3\xed\x86\xa9\xe6?'
p141
tp142
Rp143
ag50
(g54
S'\xfaE[\xb7\nq\xe8?'
p144
tp145
Rp146
ag50
(g54
S'v\xd2gO\xb9\x89\xe0?'
p147
tp148
Rp149
ag50
(g54
S'\xd2V\x98\x9a\x90\x94\xe2?'
p150
tp151
Rp152
ag50
(g54
S'\x83Q3\xed\x86\xa9\xe6?'
p153
tp154
Rp155
ag50
(g54
S'\x83Q3\xed\x86\xa9\xe6?'
p156
tp157
Rp158
ag50
(g54
S'\xb6H\xf1\xc0(\x00\xd0?'
p159
tp160
Rp161
ag50
(g54
S'\xf7\xf4j\x92\xb8\xc0\xe4?'
p162
tp163
Rp164
ag50
(g54
S'tu\x9d\x95`\x1a\xd3?'
p165
tp166
Rp167
ag50
(g54
S'\x99\x99r<\x85\xbb\xe7?'
p168
tp169
Rp170
ag50
(g54
S'@2s\x9b69\xd4?'
p171
tp172
Rp173
ag50
(g54
S'\x83Q3\xed\x86\xa9\xe6?'
p174
tp175
Rp176
ag50
(g54
S'\x83Q3\xed\x86\xa9\xe6?'
p177
tp178
Rp179
ag50
(g54
S'\x83Q3\xed\x86\xa9\xe6?'
p180
tp181
Rp182
ag50
(g54
S'\x83Q3\xed\x86\xa9\xe6?'
p183
tp184
Rp185
ag50
(g54
S'v\xd2gO\xb9\x89\xe0?'
p186
tp187
Rp188
ag50
(g54
S'\xfa\x08\xa3\x93\x93\x85\xeb?'
p189
tp190
Rp191
ag50
(g54
S'4\xd1\xb6\x97\x14,\xe8?'
p192
tp193
Rp194
ag50
(g54
S'tu\x9d\x95`\x1a\xd3?'
p195
tp196
Rp197
ag50
(g54
S'\xf7\xf4j\x92\xb8\xc0\xe4?'
p198
tp199
Rp200
ag50
(g54
S'tu\x9d\x95`\x1a\xd3?'
p201
tp202
Rp203
ag50
(g54
S'@2s\x9b69\xd4?'
p204
tp205
Rp206
ag50
(g54
S'\x83Q3\xed\x86\xa9\xe6?'
p207
tp208
Rp209
ag50
(g54
S'\xb6H\xf1\xc0(\x00\xd0?'
p210
tp211
Rp212
ag50
(g54
S'\xf7\xf4j\x92\xb8\xc0\xe4?'
p213
tp214
Rp215
ag50
(g54
S'4\xd1\xb6\x97\x14,\xe8?'
p216
tp217
Rp218
ag50
(g54
S'\xfa\x08\xa3\x93\x93\x85\xeb?'
p219
tp220
Rp221
ag50
(g54
S'tu\x9d\x95`\x1a\xd3?'
p222
tp223
Rp224
ag50
(g54
S'@2s\x9b69\xd4?'
p225
tp226
Rp227
ag50
(g54
S'\x83Q3\xed\x86\xa9\xe6?'
p228
tp229
Rp230
ag50
(g54
S'\x83Q3\xed\x86\xa9\xe6?'
p231
tp232
Rp233
ag50
(g54
S'v\xd2gO\xb9\x89\xe0?'
p234
tp235
Rp236
ag50
(g54
S'\xd2V\x98\x9a\x90\x94\xe2?'
p237
tp238
Rp239
ag50
(g54
S'\xb6H\xf1\xc0(\x00\xd0?'
p240
tp241
Rp242
ag50
(g54
S'+q9\x12\xd5\t\xd5?'
p243
tp244
Rp245
ag50
(g54
S'\xfa\x08\xa3\x93\x93\x85\xeb?'
p246
tp247
Rp248
ag50
(g54
S'4\xd1\xb6\x97\x14,\xe8?'
p249
tp250
Rp251
ag50
(g54
S'\xfa\x08\xa3\x93\x93\x85\xeb?'
p252
tp253
Rp254
ag50
(g54
S'\xd2V\x98\x9a\x90\x94\xe2?'
p255
tp256
Rp257
ag50
(g54
S'\x83Q3\xed\x86\xa9\xe6?'
p258
tp259
Rp260
ag50
(g54
S'}\xe2\xe1+\\\xbf\xea?'
p261
tp262
Rp263
ag50
(g54
S'4\xd1\xb6\x97\x14,\xe8?'
p264
tp265
Rp266
ag50
(g54
S'v\xd2gO\xb9\x89\xe0?'
p267
tp268
Rp269
ag50
(g54
S'4\xd1\xb6\x97\x14,\xe8?'
p270
tp271
Rp272
ag50
(g54
S'\xfa\x08\xa3\x93\x93\x85\xeb?'
p273
tp274
Rp275
ag50
(g54
S'\xfa\x08\xa3\x93\x93\x85\xeb?'
p276
tp277
Rp278
ag50
(g54
S'tu\x9d\x95`\x1a\xd3?'
p279
tp280
Rp281
ag50
(g54
S'\xf7\xf4j\x92\xb8\xc0\xe4?'
p282
tp283
Rp284
ag50
(g54
S'\xfaE[\xb7\nq\xe8?'
p285
tp286
Rp287
ag50
(g54
S'\xfaE[\xb7\nq\xe8?'
p288
tp289
Rp290
ag50
(g54
S'\x83Q3\xed\x86\xa9\xe6?'
p291
tp292
Rp293
ag50
(g54
S'\x83Q3\xed\x86\xa9\xe6?'
p294
tp295
Rp296
ag50
(g54
S'\xfaE[\xb7\nq\xe8?'
p297
tp298
Rp299
ag50
(g54
S'\x83Q3\xed\x86\xa9\xe6?'
p300
tp301
Rp302
ag50
(g54
S'\xb6H\xf1\xc0(\x00\xd0?'
p303
tp304
Rp305
ag50
(g54
S'\x99\x99r<\x85\xbb\xe7?'
p306
tp307
Rp308
ag50
(g54
S'@2s\x9b69\xd4?'
p309
tp310
Rp311
ag50
(g54
S'\xb6H\xf1\xc0(\x00\xd0?'
p312
tp313
Rp314
ag50
(g54
S'}\xe2\xe1+\\\xbf\xea?'
p315
tp316
Rp317
ag50
(g54
S'tu\x9d\x95`\x1a\xd3?'
p318
tp319
Rp320
ag50
(g54
S'@2s\x9b69\xd4?'
p321
tp322
Rp323
ag50
(g54
S'\xb6H\xf1\xc0(\x00\xd0?'
p324
tp325
Rp326
ag50
(g54
S'\xf7\xf4j\x92\xb8\xc0\xe4?'
p327
tp328
Rp329
ag50
(g54
S'4\xd1\xb6\x97\x14,\xe8?'
p330
tp331
Rp332
ag50
(g54
S'\xfa\x08\xa3\x93\x93\x85\xeb?'
p333
tp334
Rp335
ag50
(g54
S'\xfa\x08\xa3\x93\x93\x85\xeb?'
p336
tp337
Rp338
ag50
(g54
S'\xd2V\x98\x9a\x90\x94\xe2?'
p339
tp340
Rp341
ag50
(g54
S'v\xd2gO\xb9\x89\xe0?'
p342
tp343
Rp344
ag50
(g54
S'\xd2V\x98\x9a\x90\x94\xe2?'
p345
tp346
Rp347
ag50
(g54
S'v\xd2gO\xb9\x89\xe0?'
p348
tp349
Rp350
ag50
(g54
S'\xd2V\x98\x9a\x90\x94\xe2?'
p351
tp352
Rp353
ag50
(g54
S'\x83Q3\xed\x86\xa9\xe6?'
p354
tp355
Rp356
ag50
(g54
S'j\xe7\xca0\x8f\x11\xe3?'
p357
tp358
Rp359
ag50
(g54
S'v\xd2gO\xb9\x89\xe0?'
p360
tp361
Rp362
ag50
(g54
S'tu\x9d\x95`\x1a\xd3?'
p363
tp364
Rp365
ag50
(g54
S'\x99\x99r<\x85\xbb\xe7?'
p366
tp367
Rp368
ag50
(g54
S'@2s\x9b69\xd4?'
p369
tp370
Rp371
ag50
(g54
S'v\xd2gO\xb9\x89\xe0?'
p372
tp373
Rp374
ag50
(g54
S'\xd2V\x98\x9a\x90\x94\xe2?'
p375
tp376
Rp377
ag50
(g54
S'\xfaE[\xb7\nq\xe8?'
p378
tp379
Rp380
ag50
(g54
S'\xb6H\xf1\xc0(\x00\xd0?'
p381
tp382
Rp383
ag50
(g54
S'\x99\x99r<\x85\xbb\xe7?'
p384
tp385
Rp386
ag50
(g54
S'v\xd2gO\xb9\x89\xe0?'
p387
tp388
Rp389
ag50
(g54
S'tu\x9d\x95`\x1a\xd3?'
p390
tp391
Rp392
ag50
(g54
S'+q9\x12\xd5\t\xd5?'
p393
tp394
Rp395
ag50
(g54
S'\xd2V\x98\x9a\x90\x94\xe2?'
p396
tp397
Rp398
ag50
(g54
S'\xb6H\xf1\xc0(\x00\xd0?'
p399
tp400
Rp401
ag50
(g54
S'\x99\x99r<\x85\xbb\xe7?'
p402
tp403
Rp404
ag50
(g54
S'\xb6H\xf1\xc0(\x00\xd0?'
p405
tp406
Rp407
ag50
(g54
S'\xf7\xf4j\x92\xb8\xc0\xe4?'
p408
tp409
Rp410
ag50
(g54
S'4\xd1\xb6\x97\x14,\xe8?'
p411
tp412
Rp413
ag50
(g54
S'tu\x9d\x95`\x1a\xd3?'
p414
tp415
Rp416
ag50
(g54
S'\x99\x99r<\x85\xbb\xe7?'
p417
tp418
Rp419
ag50
(g54
S'j\xe7\xca0\x8f\x11\xe3?'
p420
tp421
Rp422
ag50
(g54
S'\xb6H\xf1\xc0(\x00\xd0?'
p423
tp424
Rp425
ag50
(g54
S'\x99\x99r<\x85\xbb\xe7?'
p426
tp427
Rp428
ag50
(g54
S'j\xe7\xca0\x8f\x11\xe3?'
p429
tp430
Rp431
ag50
(g54
S'\x83Q3\xed\x86\xa9\xe6?'
p432
tp433
Rp434
ag50
(g54
S'\xb6H\xf1\xc0(\x00\xd0?'
p435
tp436
Rp437
ag50
(g54
S'}\xe2\xe1+\\\xbf\xea?'
p438
tp439
Rp440
ag50
(g54
S'tu\x9d\x95`\x1a\xd3?'
p441
tp442
Rp443
ag50
(g54
S'@2s\x9b69\xd4?'
p444
tp445
Rp446
ag50
(g54
S'v\xd2gO\xb9\x89\xe0?'
p447
tp448
Rp449
ag50
(g54
S'tu\x9d\x95`\x1a\xd3?'
p450
tp451
Rp452
ag50
(g54
S'\xf7\xf4j\x92\xb8\xc0\xe4?'
p453
tp454
Rp455
ag50
(g54
S'tu\x9d\x95`\x1a\xd3?'
p456
tp457
Rp458
ag50
(g54
S'\x99\x99r<\x85\xbb\xe7?'
p459
tp460
Rp461
ag50
(g54
S'@2s\x9b69\xd4?'
p462
tp463
Rp464
ag50
(g54
S'\xb6H\xf1\xc0(\x00\xd0?'
p465
tp466
Rp467
ag50
(g54
S'\xb9\xfeHR\xf6]\xde?'
p468
tp469
Rp470
ag50
(g54
S'4\xd1\xb6\x97\x14,\xe8?'
p471
tp472
Rp473
ag50
(g54
S'tu\x9d\x95`\x1a\xd3?'
p474
tp475
Rp476
ag50
(g54
S'+q9\x12\xd5\t\xd5?'
p477
tp478
Rp479
ag50
(g54
S'tu\x9d\x95`\x1a\xd3?'
p480
tp481
Rp482
ag50
(g54
S'@2s\x9b69\xd4?'
p483
tp484
Rp485
ag50
(g54
S'\x83Q3\xed\x86\xa9\xe6?'
p486
tp487
Rp488
ag50
(g54
S'\xb6H\xf1\xc0(\x00\xd0?'
p489
tp490
Rp491
ag50
(g54
S'+q9\x12\xd5\t\xd5?'
p492
tp493
Rp494
asS'sp'
p495
(lp496
(S'p0'
p497
I0
S'y'
p498
tp499
a(g497
I0
S't'
p500
tp501
a(g497
I0
S'x'
p502
tp503
a(g497
I0
g498
tp504
a(g497
I0
g502
tp505
a(S'p1'
p506
I0
g502
tp507
a(g506
I0
g500
tp508
a(g506
I0
g500
tp509
a(g506
I0
g498
tp510
a(g497
I0
g498
tp511
ag501
a(g497
I0
g500
tp512
ag503
ag507
a(g506
I0
g498
tp513
ag511
ag505
ag507
ag513
a(S'p2'
p514
I0
g498
tp515
a(g514
I0
g500
tp516
a(g514
I0
g500
tp517
a(g514
F1.5707963267948966
g500
tp518
a(g514
F1.5707963267948966
g502
tp519
a(g514
F1.5707963267948966
g500
tp520
a(g514
F1.5707963267948966
g500
tp521
ag519
a(g506
F1.5707963267948966
g502
tp522
a(g506
F1.5707963267948966
g502
tp523
a(g506
F1.5707963267948966
g502
tp524
a(g506
F1.5707963267948966
g500
tp525
a(g506
F1.5707963267948966
g502
tp526
ag523
ag523
a(g506
F1.5707963267948966
g498
tp527
a(g497
F1.5707963267948966
g498
tp528
a(g497
F1.5707963267948966
g502
tp529
a(g497
F1.5707963267948966
g502
tp530
a(g506
F1.5707963267948966
g502
tp531
ag523
ag523
ag523
ag523
ag525
a(g506
F1.5707963267948966
g500
tp532
a(g506
F1.5707963267948966
g500
tp533
a(g506
F1.5707963267948966
g498
tp534
ag528
ag529
ag531
ag523
ag527
ag528
a(g497
F1.5707963267948966
g498
tp535
a(g497
F1.5707963267948966
g498
tp536
ag529
ag531
ag523
ag523
ag525
ag526
ag527
a(g514
F1.5707963267948966
g498
tp537
a(g514
F1.5707963267948966
g498
tp538
a(g514
F1.5707963267948966
g498
tp539
ag538
a(g514
F1.5707963267948966
g500
tp540
a(g514
I0
g500
tp541
a(g514
I0
g502
tp542
a(S'p3'
p543
I0
g502
tp544
a(g543
I0
g500
tp545
a(g543
I0
g500
tp546
a(g543
I0
g500
tp547
ag547
a(g543
I0
g498
tp548
a(g514
I0
g498
tp549
a(g514
I0
g498
tp550
ag550
a(g514
I0
g498
tp551
ag551
ag550
ag551
ag516
ag517
ag518
ag519
a(g514
F1.5707963267948966
g498
tp552
a(g514
F1.5707963267948966
g502
tp553
a(g543
F1.5707963267948966
g502
tp554
a(g543
F1.5707963267948966
g498
tp555
a(g514
F1.5707963267948966
g498
tp556
ag539
ag538
ag538
ag540
a(g514
F1.5707963267948966
g498
tp557
ag540
ag557
ag540
ag541
a(g514
I0
g498
tp558
a(g514
I0
g502
tp559
a(g514
I0
g500
tp560
ag517
ag518
ag557
ag540
ag521
ag519
ag522
ag525
ag534
ag537
ag540
ag519
ag522
ag527
ag528
ag535
ag529
ag530
a(g497
F1.5707963267948966
g500
tp561
a(g497
F1.5707963267948966
g502
tp562
ag530
ag561
a(g497
F1.5707963267948966
g500
tp563
ag562
a(g497
F1.5707963267948966
g498
tp564
ag529
ag531
ag525
ag534
ag528
ag529
ag530
ag531
ag527
a(g506
F1.5707963267948966
g500
tp565
ag533
ag534
ag537
ag553
ag554
a(g543
F1.5707963267948966
g502
tp566
ag555
a(S'p4'
p567
F1.5707963267948966
g498
tp568
asS's'
p569
(lp570
(g497
I0
g22
tp571
ag499
ag501
ag503
ag504
ag505
ag507
ag508
ag509
ag510
ag511
ag501
ag512
ag503
ag507
ag513
ag511
ag505
ag507
ag513
ag515
ag516
ag517
ag518
ag519
ag520
ag521
ag519
ag522
ag523
ag524
ag525
ag526
ag523
ag523
ag527
ag528
ag529
ag530
ag531
ag523
ag523
ag523
ag523
ag525
ag532
ag533
ag534
ag528
ag529
ag531
ag523
ag527
ag528
ag535
ag536
ag529
ag531
ag523
ag523
ag525
ag526
ag527
ag537
ag538
ag539
ag538
ag540
ag541
ag542
ag544
ag545
ag546
ag547
ag547
ag548
ag549
ag550
ag550
ag551
ag551
ag550
ag551
ag516
ag517
ag518
ag519
ag552
ag553
ag554
ag555
ag556
ag539
ag538
ag538
ag540
ag557
ag540
ag557
ag540
ag541
ag558
ag559
ag560
ag517
ag518
ag557
ag540
ag521
ag519
ag522
ag525
ag534
ag537
ag540
ag519
ag522
ag527
ag528
ag535
ag529
ag530
ag561
ag562
ag530
ag561
ag563
ag562
ag564
ag529
ag531
ag525
ag534
ag528
ag529
ag530
ag531
ag527
ag565
ag533
ag534
ag537
ag553
ag554
ag566
ag555
asS'ui'
p572
(lp573
S'hs'
p574
ag574
aS'hp'
p575
ag495
ag574
ag495
ag574
ag495
ag574
ag575
ag575
ag575
ag575
ag495
ag575
ag495
ag574
ag495
aS'ss'
p576
ag576
ag575
ag576
ag495
ag575
ag574
ag495
ag575
ag495
ag576
ag576
ag574
ag575
ag576
ag576
ag575
ag495
ag574
ag576
ag495
ag574
ag576
ag576
ag574
ag574
ag574
ag575
ag574
ag576
ag574
ag495
ag576
ag575
ag576
ag575
ag574
ag574
ag495
ag576
ag576
ag574
ag575
ag575
ag576
ag576
ag495
ag576
ag575
ag576
ag495
ag576
ag574
ag495
ag576
ag576
ag574
ag576
ag575
ag575
ag576
ag576
ag575
ag576
ag575
ag576
ag495
ag575
ag576
ag574
ag495
ag575
ag495
ag495
ag576
ag576
ag575
ag574
ag575
ag574
ag574
ag576
ag574
ag576
ag574
ag576
ag495
ag574
ag575
ag575
ag575
ag576
ag575
ag574
ag576
ag575
ag575
ag576
ag575
ag575
ag495
ag574
ag576
ag574
ag574
ag495
ag574
ag575
ag575
ag575
ag574
ag495
ag574
ag574
ag576
ag574
ag576
ag576
ag575
ag575
ag495
ag574
ag576
ag575
ag495
ag576
ag575
ag576
asS'um_before'
p577
(lp578
g574
ag575
ag575
ag575
ag574
ag495
ag574
ag495
ag574
ag495
ag575
ag495
ag575
ag495
ag575
ag495
ag574
ag495
ag575
ag576
ag575
ag576
ag495
ag575
ag574
ag495
ag575
ag576
ag576
ag495
ag574
ag575
ag576
ag576
ag575
ag495
ag574
ag576
ag495
ag576
ag576
ag576
ag576
ag574
ag576
ag495
ag574
ag495
ag574
ag495
ag576
ag575
ag495
ag495
ag576
ag574
ag495
ag576
ag576
ag574
ag575
ag575
ag576
ag576
ag495
ag576
ag575
ag576
ag575
ag495
ag574
ag495
ag576
ag576
ag574
ag495
ag495
ag495
ag576
ag576
ag495
ag576
ag575
ag576
ag495
ag575
ag575
ag574
ag495
ag575
ag495
ag495
ag576
ag576
ag575
ag574
ag575
ag574
ag575
ag576
ag574
ag574
ag574
ag576
ag495
ag574
ag575
ag495
ag575
ag576
ag574
ag574
ag576
ag575
ag575
ag576
ag575
ag495
ag495
ag574
ag576
ag574
ag575
ag576
ag574
ag576
ag575
ag575
ag574
ag495
ag574
ag574
ag495
ag574
ag576
ag495
ag575
ag575
ag495
ag574
ag576
ag574
ag495
ag576
ag575
ag576
asS'um_after'
p579
(lp580
g574
ag575
ag575
ag575
ag574
ag495
ag574
ag495
ag574
ag495
ag575
ag495
ag575
ag495
ag575
ag495
ag574
ag495
ag575
ag576
ag575
ag576
ag495
ag575
ag574
ag495
ag575
ag576
ag576
ag495
ag574
ag575
ag576
ag576
ag575
ag495
ag574
ag576
ag495
ag576
ag576
ag576
ag576
ag574
ag576
ag495
ag574
ag495
ag574
ag495
ag576
ag575
ag495
ag495
ag576
ag574
ag495
ag576
ag576
ag574
ag575
ag575
ag576
ag576
ag495
ag576
ag575
ag576
ag575
ag495
ag574
ag495
ag576
ag576
ag574
ag495
ag495
ag495
ag576
ag576
ag495
ag576
ag575
ag576
ag495
ag575
ag575
ag574
ag495
ag575
ag495
ag495
ag576
ag576
ag575
ag574
ag575
ag574
ag575
ag576
ag574
ag574
ag574
ag576
ag495
ag574
ag575
ag495
ag575
ag576
ag574
ag574
ag576
ag575
ag575
ag576
ag575
ag495
ag495
ag574
ag576
ag574
ag575
ag576
ag574
ag576
ag575
ag575
ag574
ag495
ag574
ag574
ag495
ag574
ag576
ag495
ag575
ag575
ag495
ag574
ag576
ag574
ag495
ag576
ag575
ag576
asS'is_normalized_entropy_less_than_threshold'
p581
(lp582
g50
(g51
(S'b1'
p583
I0
I1
tp584
Rp585
(I3
S'|'
p586
NNNI-1
I-1
I0
tp587
bS'\x00'
p588
tp589
Rp590
ag590
ag50
(g585
S'\x01'
p591
tp592
Rp593
ag590
ag593
ag593
ag590
ag590
ag593
ag590
ag590
ag590
ag593
ag593
ag593
ag590
ag593
ag593
ag593
ag593
ag593
ag590
ag593
ag593
ag590
ag590
ag593
ag590
ag590
ag590
ag590
ag590
ag590
ag590
ag593
ag590
ag593
ag590
ag593
ag590
ag590
ag590
ag590
ag590
ag590
ag590
ag593
ag590
ag593
ag593
ag590
ag593
ag590
ag590
ag590
ag593
ag593
ag590
ag590
ag590
ag590
ag593
ag593
ag590
ag590
ag590
ag590
ag590
ag590
ag590
ag590
ag590
ag590
ag590
ag593
ag590
ag590
ag590
ag590
ag590
ag590
ag590
ag593
ag590
ag593
ag593
ag590
ag593
ag593
ag593
ag590
ag590
ag590
ag590
ag590
ag590
ag590
ag590
ag590
ag590
ag590
ag590
ag593
ag590
ag593
ag590
ag590
ag590
ag593
ag590
ag590
ag593
ag593
ag590
ag593
ag590
ag593
ag590
ag590
ag593
ag590
ag590
ag593
ag590
ag590
ag590
ag593
ag590
ag593
ag593
ag590
ag593
ag590
ag593
ag590
ag593
ag593
ag593
ag590
ag593
ag593
ag593
ag593
ag590
ag593
ag593
asaa(lp594
S'index'
p595
aI106056
aatp596
Rp597
.