ccollections
OrderedDict
p0
((lp1
(lp2
S'combination_dict'
p3
ag0
((lp4
(lp5
S'r_to_g_config'
p6
aS'tl'
p7
aa(lp8
S'num_turns'
p9
aI2
aa(lp10
S'start_direction'
p11
acutils_ms
StartDirection
p12
(I1
tp13
Rp14
aa(lp15
S'assistance_type'
p16
acutils_ms
AssistanceType
p17
(I1
tp18
Rp19
aa(lp20
S'start_mode'
p21
aS't'
p22
aa(lp23
S'ui_given_a_noise'
p24
aF0.1
aa(lp25
S'um_given_ui_noise'
p26
aF0.7
aa(lp27
S'entropy_threshold'
p28
aF0.5
aatp29
Rp30
aa(lp31
S'data'
p32
accollections
defaultdict
p33
(c__builtin__
list
p34
tp35
Rp36
S'a'
p37
(lp38
S'mode_l'
p39
aS'move_p'
p40
aS'mode_r'
p41
ag40
ag41
aS'move_n'
p42
ag41
ag42
ag41
ag42
ag41
ag39
ag42
ag41
ag40
asS'assistance_match_with_ground_truth'
p43
(lp44
I01
aI01
aI01
aI01
aI01
aI00
aI01
aI00
aI01
aI00
aI00
aI01
aI01
aI01
aI01
asS'is_u_intended_equals_um'
p45
(lp46
I00
aI01
aI01
aI01
aI01
aI00
aI00
aI00
aI00
aI00
aI00
aI00
aI01
aI01
aI00
asS'total_steps'
p47
I15
sS'normalized_h_of_p_ui_given_um'
p48
(lp49
cnumpy.core.multiarray
scalar
p50
(cnumpy
dtype
p51
(S'f8'
p52
I0
I1
tp53
Rp54
(I3
S'<'
p55
NNNI-1
I-1
I0
tp56
bS'\xac\xa6\x0c\xa1P4\xdb?'
p57
tp58
Rp59
ag50
(g54
S'0\xad|\x97&:\xc1?'
p60
tp61
Rp62
ag50
(g54
S'\xf6\xd9t)\xf5\x03\xc3?'
p63
tp64
Rp65
ag50
(g54
S'0\xad|\x97&:\xc1?'
p66
tp67
Rp68
ag50
(g54
S'\xf6\xd9t)\xf5\x03\xc3?'
p69
tp70
Rp71
ag50
(g54
S'\x9a\x7fB\x17D\xfa\xe2?'
p72
tp73
Rp74
ag50
(g54
S'\x0f\x8e9\xa8e\x94\xd0?'
p75
tp76
Rp77
ag50
(g54
S'\x9a\x7fB\x17D\xfa\xe2?'
p78
tp79
Rp80
ag50
(g54
S'X\xe8~\x0eRx\xd6?'
p81
tp82
Rp83
ag50
(g54
S'\x9a\x7fB\x17D\xfa\xe2?'
p84
tp85
Rp86
ag50
(g54
S't\x8dGv\xd6\x86\xe8?'
p87
tp88
Rp89
ag50
(g54
S'\xac\xa6\x0c\xa1P4\xdb?'
p90
tp91
Rp92
ag50
(g54
S'}P*\x19\xbb\xbb\xc9?'
p93
tp94
Rp95
ag50
(g54
S'\xf6\xd9t)\xf5\x03\xc3?'
p96
tp97
Rp98
ag50
(g54
S'\x14M\x9c\xb5%\xbc\xd3?'
p99
tp100
Rp101
asS'sp'
p102
(lp103
(S'p0'
p104
I0
S'y'
p105
tp106
a(S'p1'
p107
I0
g105
tp108
a(g107
I0
S't'
p109
tp110
a(g107
F1.5707963267948966
g109
tp111
a(g107
F1.5707963267948966
S'x'
p112
tp113
a(g107
F1.5707963267948966
g109
tp114
ag113
ag114
ag113
ag114
a(g107
F1.5707963267948966
g105
tp115
a(g107
F1.5707963267948966
g112
tp116
a(S'p2'
p117
F1.5707963267948966
g112
tp118
a(g117
F1.5707963267948966
g105
tp119
a(S'p3'
p120
F1.5707963267948966
g105
tp121
asS's'
p122
(lp123
(g104
I0
g22
tp124
ag106
ag108
ag110
ag111
ag113
ag114
ag113
ag114
ag113
ag114
ag115
ag116
ag118
ag119
asS'ui'
p125
(lp126
S'ss'
p127
ag102
aS'hp'
p128
ag102
ag128
ag127
ag128
ag127
ag128
ag127
ag128
ag128
ag127
ag128
ag102
asS'um_before'
p129
(lp130
g128
ag102
ag128
ag102
ag128
aS'hs'
p131
ag102
ag131
ag127
ag131
ag131
ag128
ag127
ag128
ag127
asS'um_after'
p132
(lp133
g131
ag102
ag128
ag102
ag128
ag131
ag128
ag131
ag128
ag131
ag131
ag131
ag127
ag128
ag102
asS'is_normalized_entropy_less_than_threshold'
p134
(lp135
g50
(g51
(S'b1'
p136
I0
I1
tp137
Rp138
(I3
S'|'
p139
NNNI-1
I-1
I0
tp140
bS'\x01'
p141
tp142
Rp143
ag143
ag143
ag143
ag143
ag50
(g138
S'\x00'
p144
tp145
Rp146
ag143
ag146
ag143
ag146
ag146
ag143
ag143
ag143
ag143
asaa(lp147
S'index'
p148
aI45750
aatp149
Rp150
.