ccollections
OrderedDict
p0
((lp1
(lp2
S'combination_dict'
p3
ag0
((lp4
(lp5
S'r_to_g_config'
p6
aS'br'
p7
aa(lp8
S'num_turns'
p9
aI3
aa(lp10
S'start_direction'
p11
acutils_ms
StartDirection
p12
(I1
tp13
Rp14
aa(lp15
S'assistance_type'
p16
acutils_ms
AssistanceType
p17
(I1
tp18
Rp19
aa(lp20
S'start_mode'
p21
aS'x'
p22
aa(lp23
S'ui_given_a_noise'
p24
aF0.3
aa(lp25
S'um_given_ui_noise'
p26
aF0.1
aa(lp27
S'entropy_threshold'
p28
aF0.9
aatp29
Rp30
aa(lp31
S'data'
p32
accollections
defaultdict
p33
(c__builtin__
list
p34
tp35
Rp36
S'a'
p37
(lp38
S'mode_r'
p39
aS'move_n'
p40
ag39
aS'mode_l'
p41
aS'move_p'
p42
ag39
ag42
ag39
ag42
ag39
ag40
ag39
ag40
ag41
ag42
asS'assistance_match_with_ground_truth'
p43
(lp44
I01
aI01
aI00
aI01
aI01
aI01
aI00
aI01
aI01
aI01
aI00
aI01
aI01
aI01
aI01
asS'is_u_intended_equals_um'
p45
(lp46
I01
aI01
aI01
aI01
aI01
aI01
aI01
aI01
aI01
aI00
aI01
aI01
aI01
aI01
aI01
asS'total_steps'
p47
I15
sS'normalized_h_of_p_ui_given_um'
p48
(lp49
cnumpy.core.multiarray
scalar
p50
(cnumpy
dtype
p51
(S'f8'
p52
I0
I1
tp53
Rp54
(I3
S'<'
p55
NNNI-1
I-1
I0
tp56
bS'\x88R\x90\xe7S/\xae?'
p57
tp58
Rp59
ag50
(g54
S'XRo\r{^\xb6?'
p60
tp61
Rp62
ag50
(g54
S'\xb2\xec\x01\xd1\x9d\x9e\xd0?'
p63
tp64
Rp65
ag50
(g54
S':\xfe\x98\xec\xee-\xc0?'
p66
tp67
Rp68
ag50
(g54
S'\xc1\xa6\xbb\xdd\xca,\xb6?'
p69
tp70
Rp71
ag50
(g54
S'\x88R\x90\xe7S/\xae?'
p72
tp73
Rp74
ag50
(g54
S'(_=[\xe8C\xe2?'
p75
tp76
Rp77
ag50
(g54
S'\x88R\x90\xe7S/\xae?'
p78
tp79
Rp80
ag50
(g54
S'\xc1\xa6\xbb\xdd\xca,\xb6?'
p81
tp82
Rp83
ag50
(g54
S'e\x06\x00\x83\x7f\x91\xe0?'
p84
tp85
Rp86
ag50
(g54
S'\xff\x06,E)n\xde?'
p87
tp88
Rp89
ag50
(g54
S'\x88R\x90\xe7S/\xae?'
p90
tp91
Rp92
ag50
(g54
S'XRo\r{^\xb6?'
p93
tp94
Rp95
ag50
(g54
S':\xfe\x98\xec\xee-\xc0?'
p96
tp97
Rp98
ag50
(g54
S'\xc1\xa6\xbb\xdd\xca,\xb6?'
p99
tp100
Rp101
asS'sp'
p102
(lp103
(S'p0'
p104
I0
S'y'
p105
tp106
a(S'p1'
p107
I0
g105
tp108
a(g107
I0
S'x'
p109
tp110
a(g107
I0
S't'
p111
tp112
a(g107
F1.5707963267948966
g111
tp113
a(g107
F1.5707963267948966
g109
tp114
a(g107
F1.5707963267948966
g111
tp115
ag114
a(S'p2'
p116
F1.5707963267948966
g109
tp117
a(g116
F1.5707963267948966
g105
tp118
a(g116
F1.5707963267948966
g109
tp119
ag118
a(S'p3'
p120
F1.5707963267948966
g105
tp121
a(g120
F1.5707963267948966
g109
tp122
a(S'p4'
p123
F1.5707963267948966
g109
tp124
asS's'
p125
(lp126
(g104
I0
g22
tp127
ag106
ag108
ag110
ag112
ag113
ag114
ag115
ag114
ag117
ag118
ag119
ag118
ag121
ag122
asS'ui'
p128
(lp129
S'hp'
p130
aS'ss'
p131
aS'hs'
p132
ag132
ag132
ag130
ag132
ag130
ag102
ag130
ag132
ag130
ag131
ag132
ag102
asS'um_before'
p133
(lp134
g130
ag131
ag132
ag132
ag102
ag130
ag132
ag130
ag102
ag102
ag132
ag130
ag131
ag132
ag102
asS'um_after'
p135
(lp136
g130
ag131
ag132
ag132
ag102
ag130
ag132
ag130
ag102
ag130
ag132
ag130
ag131
ag132
ag102
asS'is_normalized_entropy_less_than_threshold'
p137
(lp138
g50
(g51
(S'b1'
p139
I0
I1
tp140
Rp141
(I3
S'|'
p142
NNNI-1
I-1
I0
tp143
bS'\x01'
p144
tp145
Rp146
ag146
ag146
ag146
ag146
ag146
ag146
ag146
ag146
ag146
ag146
ag146
ag146
ag146
ag146
asaa(lp147
S'index'
p148
aI112246
aatp149
Rp150
.