ccollections
OrderedDict
p0
((lp1
(lp2
S'combination_dict'
p3
ag0
((lp4
(lp5
S'r_to_g_config'
p6
aS'br'
p7
aa(lp8
S'num_turns'
p9
aI3
aa(lp10
S'start_direction'
p11
acutils_ms
StartDirection
p12
(I1
tp13
Rp14
aa(lp15
S'assistance_type'
p16
acutils_ms
AssistanceType
p17
(I1
tp18
Rp19
aa(lp20
S'start_mode'
p21
aS'x'
p22
aa(lp23
S'ui_given_a_noise'
p24
aF0.7
aa(lp25
S'um_given_ui_noise'
p26
aF0.1
aa(lp27
S'entropy_threshold'
p28
aF0.6
aatp29
Rp30
aa(lp31
S'data'
p32
accollections
defaultdict
p33
(c__builtin__
list
p34
tp35
Rp36
S'a'
p37
(lp38
S'mode_r'
p39
ag39
aS'mode_l'
p40
aS'move_n'
p41
ag39
ag39
ag39
ag39
aS'move_p'
p42
ag39
ag42
ag39
ag42
ag40
ag39
ag41
ag39
ag42
ag42
ag40
ag39
ag39
ag41
ag40
ag40
ag40
ag40
ag40
ag40
ag40
ag39
ag41
ag40
ag41
ag40
ag40
ag41
ag39
ag42
ag39
ag42
ag39
ag39
ag40
ag41
ag40
ag40
ag39
ag42
ag39
ag42
ag40
ag39
ag39
ag39
ag40
ag42
ag42
ag42
ag39
ag42
ag39
ag39
ag40
ag40
ag41
ag40
ag42
ag40
ag40
ag40
ag42
asS'assistance_match_with_ground_truth'
p43
(lp44
I00
aI00
aI01
aI01
aI00
aI00
aI00
aI01
aI00
aI01
aI01
aI00
aI00
aI00
aI01
aI01
aI01
aI00
aI00
aI00
aI00
aI01
aI00
aI00
aI00
aI00
aI00
aI00
aI00
aI00
aI01
aI00
aI01
aI00
aI00
aI01
aI01
aI01
aI01
aI01
aI01
aI00
aI00
aI01
aI00
aI00
aI00
aI00
aI01
aI00
aI00
aI00
aI00
aI00
aI00
aI01
aI00
aI00
aI01
aI01
aI01
aI00
aI00
aI00
aI01
aI01
aI01
aI00
aI00
aI00
aI01
aI01
asS'is_u_intended_equals_um'
p45
(lp46
I01
aI01
aI01
aI01
aI01
aI01
aI01
aI01
aI01
aI01
aI01
aI01
aI01
aI01
aI01
aI01
aI01
aI01
aI01
aI01
aI01
aI01
aI01
aI01
aI00
aI01
aI01
aI00
aI01
aI01
aI01
aI01
aI01
aI01
aI01
aI01
aI01
aI01
aI01
aI01
aI01
aI01
aI01
aI01
aI01
aI01
aI01
aI01
aI01
aI01
aI01
aI01
aI01
aI01
aI01
aI01
aI01
aI01
aI01
aI01
aI01
aI01
aI01
aI01
aI01
aI01
aI01
aI01
aI01
aI01
aI01
aI01
asS'total_steps'
p47
I72
sS'normalized_h_of_p_ui_given_um'
p48
(lp49
cnumpy.core.multiarray
scalar
p50
(cnumpy
dtype
p51
(S'f8'
p52
I0
I1
tp53
Rp54
(I3
S'<'
p55
NNNI-1
I-1
I0
tp56
bS'\xcd\xf8P\xae\x1d\x96\xd3?'
p57
tp58
Rp59
ag50
(g54
S'\x9d\xfaa.\xdbT\xe0?'
p60
tp61
Rp62
ag50
(g54
S'\x1am)e\xf8\x8f\xc0?'
p63
tp64
Rp65
ag50
(g54
S'\xd2\x99\x1c\x8c\xde.\xb5?'
p66
tp67
Rp68
ag50
(g54
S'\xcd\xf8P\xae\x1d\x96\xd3?'
p69
tp70
Rp71
ag50
(g54
S'\xcd\xf8P\xae\x1d\x96\xd3?'
p72
tp73
Rp74
ag50
(g54
S'\xcd\xf8P\xae\x1d\x96\xd3?'
p75
tp76
Rp77
ag50
(g54
S'\xa6\xd0q\x1d\xc3H\xc9?'
p78
tp79
Rp80
ag50
(g54
S't\x0f\xa4p\x13\xec\xe2?'
p81
tp82
Rp83
ag50
(g54
S'\xa6\xd0q\x1d\xc3H\xc9?'
p84
tp85
Rp86
ag50
(g54
S'X\xd1!\x88\xac\xf4\xc8?'
p87
tp88
Rp89
ag50
(g54
S'\xe0\xceD\xae7\x1b\xc5?'
p90
tp91
Rp92
ag50
(g54
S'|\xd1\xa6[\xd3\xc2\xd2?'
p93
tp94
Rp95
ag50
(g54
S'\x19\xd2o:\x8b\xc4\xd1?'
p96
tp97
Rp98
ag50
(g54
S'\xa6\xd0q\x1d\xc3H\xc9?'
p99
tp100
Rp101
ag50
(g54
S'\xd2\x99\x1c\x8c\xde.\xb5?'
p102
tp103
Rp104
ag50
(g54
S'\xa6\xd0q\x1d\xc3H\xc9?'
p105
tp106
Rp107
ag50
(g54
S'\x9c\xef\xaaz3\x96\xc2?'
p108
tp109
Rp110
ag50
(g54
S'|\xd1\xa6[\xd3\xc2\xd2?'
p111
tp112
Rp113
ag50
(g54
S'\x19\xd2o:\x8b\xc4\xd1?'
p114
tp115
Rp116
ag50
(g54
S'\xcd\xf8P\xae\x1d\x96\xd3?'
p117
tp118
Rp119
ag50
(g54
S'\xa6\xd0q\x1d\xc3H\xc9?'
p120
tp121
Rp122
ag50
(g54
S'\xff\xc2:z\x9a9\xde?'
p123
tp124
Rp125
ag50
(g54
S'\x19\xd2o:\x8b\xc4\xd1?'
p126
tp127
Rp128
ag50
(g54
S'\xea|8\x9c4%\xea?'
p129
tp130
Rp131
ag50
(g54
S'\x19\xd2o:\x8b\xc4\xd1?'
p132
tp133
Rp134
ag50
(g54
S'\x19\xd2o:\x8b\xc4\xd1?'
p135
tp136
Rp137
ag50
(g54
S'\xea|8\x9c4%\xea?'
p138
tp139
Rp140
ag50
(g54
S'\x19\xd2o:\x8b\xc4\xd1?'
p141
tp142
Rp143
ag50
(g54
S'\xf9y\xbcm_\x8f\xd2?'
p144
tp145
Rp146
ag50
(g54
S'\xa6\xd0q\x1d\xc3H\xc9?'
p147
tp148
Rp149
ag50
(g54
S'\xff\xc2:z\x9a9\xde?'
p150
tp151
Rp152
ag50
(g54
S'\x1am)e\xf8\x8f\xc0?'
p153
tp154
Rp155
ag50
(g54
S'\xff\xc2:z\x9a9\xde?'
p156
tp157
Rp158
ag50
(g54
S'\x19\xd2o:\x8b\xc4\xd1?'
p159
tp160
Rp161
ag50
(g54
S'\x1am)e\xf8\x8f\xc0?'
p162
tp163
Rp164
ag50
(g54
S'\xd2\x99\x1c\x8c\xde.\xb5?'
p165
tp166
Rp167
ag50
(g54
S'\xa6\xd0q\x1d\xc3H\xc9?'
p168
tp169
Rp170
ag50
(g54
S'X\xd1!\x88\xac\xf4\xc8?'
p171
tp172
Rp173
ag50
(g54
S'\xa6\xd0q\x1d\xc3H\xc9?'
p174
tp175
Rp176
ag50
(g54
S'X\xd1!\x88\xac\xf4\xc8?'
p177
tp178
Rp179
ag50
(g54
S'\xcd\xf8P\xae\x1d\x96\xd3?'
p180
tp181
Rp182
ag50
(g54
S'\x9d\xfaa.\xdbT\xe0?'
p183
tp184
Rp185
ag50
(g54
S'\x1am)e\xf8\x8f\xc0?'
p186
tp187
Rp188
ag50
(g54
S'\x8d\x02([s\xb6\xd5?'
p189
tp190
Rp191
ag50
(g54
S'\x19\xd2o:\x8b\xc4\xd1?'
p192
tp193
Rp194
ag50
(g54
S'\xf9y\xbcm_\x8f\xd2?'
p195
tp196
Rp197
ag50
(g54
S'\xe0\xceD\xae7\x1b\xc5?'
p198
tp199
Rp200
ag50
(g54
S'X\xd1!\x88\xac\xf4\xc8?'
p201
tp202
Rp203
ag50
(g54
S'\xe0\xceD\xae7\x1b\xc5?'
p204
tp205
Rp206
ag50
(g54
S'|\xd1\xa6[\xd3\xc2\xd2?'
p207
tp208
Rp209
ag50
(g54
S'\xf9y\xbcm_\x8f\xd2?'
p210
tp211
Rp212
ag50
(g54
S'\xcd\xf8P\xae\x1d\x96\xd3?'
p213
tp214
Rp215
ag50
(g54
S'\xcd\xf8P\xae\x1d\x96\xd3?'
p216
tp217
Rp218
ag50
(g54
S'\x9d\xfaa.\xdbT\xe0?'
p219
tp220
Rp221
ag50
(g54
S'\x1am)e\xf8\x8f\xc0?'
p222
tp223
Rp224
ag50
(g54
S'\x9c\xef\xaaz3\x96\xc2?'
p225
tp226
Rp227
ag50
(g54
S'\x9c\xef\xaaz3\x96\xc2?'
p228
tp229
Rp230
ag50
(g54
S'X\xd1!\x88\xac\xf4\xc8?'
p231
tp232
Rp233
ag50
(g54
S'\xa6\xd0q\x1d\xc3H\xc9?'
p234
tp235
Rp236
ag50
(g54
S'X\xd1!\x88\xac\xf4\xc8?'
p237
tp238
Rp239
ag50
(g54
S'\xcd\xf8P\xae\x1d\x96\xd3?'
p240
tp241
Rp242
ag50
(g54
S'\x9d\xfaa.\xdbT\xe0?'
p243
tp244
Rp245
ag50
(g54
S'\x19\xd2o:\x8b\xc4\xd1?'
p246
tp247
Rp248
ag50
(g54
S'\x1am)e\xf8\x8f\xc0?'
p249
tp250
Rp251
ag50
(g54
S'\xd2\x99\x1c\x8c\xde.\xb5?'
p252
tp253
Rp254
ag50
(g54
S'\x1am)e\xf8\x8f\xc0?'
p255
tp256
Rp257
ag50
(g54
S'|\xd1\xa6[\xd3\xc2\xd2?'
p258
tp259
Rp260
ag50
(g54
S'\x19\xd2o:\x8b\xc4\xd1?'
p261
tp262
Rp263
ag50
(g54
S'\x19\xd2o:\x8b\xc4\xd1?'
p264
tp265
Rp266
ag50
(g54
S'\x1am)e\xf8\x8f\xc0?'
p267
tp268
Rp269
ag50
(g54
S'X\xd1!\x88\xac\xf4\xc8?'
p270
tp271
Rp272
asS'sp'
p273
(lp274
(S'p0'
p275
I0
S'x'
p276
tp277
a(g275
I0
S't'
p278
tp279
a(g275
I0
S'y'
p280
tp281
a(S'p1'
p282
I0
g280
tp283
a(g282
I0
g280
tp284
ag284
ag284
a(g282
I0
g278
tp285
a(g282
I0
g280
tp286
ag285
a(g282
F1.5707963267948966
g278
tp287
a(g282
I0
g278
tp288
a(g282
I0
g276
tp289
a(g275
I0
g276
tp290
a(g275
I0
g280
tp291
ag283
ag285
a(g282
I0
g278
tp292
ag289
ag290
ag277
ag291
a(g275
I0
g278
tp293
a(g275
I0
g278
tp294
a(g275
I0
g278
tp295
ag294
ag294
ag295
ag294
a(g275
I0
g276
tp296
ag291
ag293
ag281
ag293
ag294
ag281
ag283
ag285
ag287
a(g282
F1.5707963267948966
g276
tp297
a(S'p2'
p298
F1.5707963267948966
g276
tp299
a(g298
F1.5707963267948966
g276
tp300
a(g298
F1.5707963267948966
g278
tp301
a(g298
F1.5707963267948966
g280
tp302
a(g282
F1.5707963267948966
g280
tp303
a(g282
F1.5707963267948966
g280
tp304
a(g282
F1.5707963267948966
g278
tp305
ag288
ag287
ag288
ag289
a(g282
I0
g280
tp306
ag284
ag284
a(g282
I0
g276
tp307
a(g282
I0
g278
tp308
ag292
ag292
ag287
ag297
ag299
ag300
ag301
a(g298
F1.5707963267948966
g278
tp309
ag302
a(S'p3'
p310
F1.5707963267948966
g280
tp311
a(g310
F1.5707963267948966
g276
tp312
a(g310
F1.5707963267948966
g280
tp313
a(g310
F1.5707963267948966
g280
tp314
ag314
ag312
a(S'p4'
p315
F1.5707963267948966
g276
tp316
asS's'
p317
(lp318
(g275
I0
g22
tp319
ag277
ag279
ag281
ag283
ag284
ag284
ag284
ag285
ag286
ag285
ag287
ag288
ag289
ag290
ag291
ag283
ag285
ag292
ag289
ag290
ag277
ag291
ag293
ag294
ag295
ag294
ag294
ag295
ag294
ag296
ag291
ag293
ag281
ag293
ag294
ag281
ag283
ag285
ag287
ag297
ag299
ag300
ag301
ag302
ag303
ag304
ag305
ag288
ag287
ag288
ag289
ag306
ag284
ag284
ag307
ag308
ag292
ag292
ag287
ag297
ag299
ag300
ag301
ag309
ag302
ag311
ag312
ag313
ag314
ag314
ag312
asS'ui'
p320
(lp321
g273
aS'hs'
p322
ag322
aS'ss'
p323
ag273
ag273
ag273
aS'hp'
p324
ag322
ag324
ag273
ag323
ag324
ag323
ag324
ag323
ag324
ag323
ag324
ag323
ag273
ag324
ag324
ag323
ag323
ag323
ag323
ag323
ag323
ag324
ag273
ag322
ag322
ag324
ag323
ag322
ag323
ag324
ag273
ag324
ag273
ag273
ag324
ag322
ag273
ag322
ag324
ag323
ag273
ag323
ag324
ag324
ag273
ag273
ag322
ag322
ag323
ag323
ag273
ag324
ag273
ag273
ag322
ag322
ag322
ag323
ag324
ag322
ag322
ag322
ag322
ag273
asS'um_before'
p325
(lp326
g273
ag322
ag322
ag323
ag273
ag273
ag273
ag324
ag322
ag324
ag273
ag323
ag324
ag323
ag324
ag323
ag324
ag323
ag324
ag323
ag273
ag324
ag324
ag323
ag273
ag323
ag323
ag273
ag323
ag324
ag324
ag324
ag322
ag324
ag323
ag322
ag323
ag324
ag273
ag324
ag273
ag273
ag322
ag322
ag273
ag323
ag324
ag323
ag273
ag323
ag324
ag324
ag273
ag273
ag322
ag322
ag323
ag323
ag273
ag324
ag273
ag273
ag322
ag323
ag322
ag323
ag322
ag324
ag323
ag323
ag322
ag273
asS'um_after'
p327
(lp328
g273
ag322
ag322
ag323
ag273
ag273
ag273
ag324
ag322
ag324
ag273
ag323
ag324
ag323
ag324
ag323
ag324
ag323
ag324
ag323
ag273
ag324
ag324
ag323
ag273
ag323
ag323
ag273
ag323
ag324
ag324
ag324
ag322
ag324
ag323
ag322
ag323
ag324
ag273
ag324
ag273
ag273
ag322
ag322
ag273
ag323
ag324
ag323
ag273
ag323
ag324
ag324
ag273
ag273
ag322
ag322
ag323
ag323
ag273
ag324
ag273
ag273
ag322
ag323
ag322
ag323
ag322
ag324
ag323
ag323
ag322
ag273
asS'is_normalized_entropy_less_than_threshold'
p329
(lp330
g50
(g51
(S'b1'
p331
I0
I1
tp332
Rp333
(I3
S'|'
p334
NNNI-1
I-1
I0
tp335
bS'\x01'
p336
tp337
Rp338
ag338
ag338
ag338
ag338
ag338
ag338
ag338
ag338
ag338
ag338
ag338
ag338
ag338
ag338
ag338
ag338
ag338
ag338
ag338
ag338
ag338
ag338
ag338
ag50
(g333
S'\x00'
p339
tp340
Rp341
ag338
ag338
ag341
ag338
ag338
ag338
ag338
ag338
ag338
ag338
ag338
ag338
ag338
ag338
ag338
ag338
ag338
ag338
ag338
ag338
ag338
ag338
ag338
ag338
ag338
ag338
ag338
ag338
ag338
ag338
ag338
ag338
ag338
ag338
ag338
ag338
ag338
ag338
ag338
ag338
ag338
ag338
ag338
ag338
ag338
ag338
ag338
asaa(lp342
S'index'
p343
aI112614
aatp344
Rp345
.