ccollections
OrderedDict
p0
((lp1
(lp2
S'combination_dict'
p3
ag0
((lp4
(lp5
S'r_to_g_config'
p6
aS'br'
p7
aa(lp8
S'num_turns'
p9
aI3
aa(lp10
S'start_direction'
p11
acutils_ms
StartDirection
p12
(I1
tp13
Rp14
aa(lp15
S'assistance_type'
p16
acutils_ms
AssistanceType
p17
(I1
tp18
Rp19
aa(lp20
S'start_mode'
p21
aS'x'
p22
aa(lp23
S'ui_given_a_noise'
p24
aF0.3
aa(lp25
S'um_given_ui_noise'
p26
aF0.7
aa(lp27
S'entropy_threshold'
p28
aF0.5
aatp29
Rp30
aa(lp31
S'data'
p32
accollections
defaultdict
p33
(c__builtin__
list
p34
tp35
Rp36
S'a'
p37
(lp38
S'mode_r'
p39
aS'move_n'
p40
aS'mode_l'
p41
ag40
ag40
ag40
ag41
ag39
aS'move_p'
p42
ag41
ag41
ag42
ag39
ag41
ag42
ag39
ag42
ag39
ag42
ag41
ag41
ag42
ag39
ag42
ag39
ag42
ag41
ag40
ag41
ag42
ag41
ag41
ag42
asS'assistance_match_with_ground_truth'
p43
(lp44
I01
aI00
aI01
aI00
aI00
aI01
aI00
aI01
aI00
aI00
aI01
aI00
aI00
aI01
aI00
aI01
aI00
aI01
aI01
aI00
aI01
aI00
aI01
aI00
aI01
aI01
aI01
aI01
aI01
aI00
aI00
aI01
aI01
asS'is_u_intended_equals_um'
p45
(lp46
I00
aI00
aI01
aI00
aI00
aI01
aI00
aI01
aI01
aI00
aI01
aI00
aI00
aI01
aI00
aI01
aI00
aI01
aI01
aI01
aI01
aI00
aI01
aI00
aI01
aI01
aI01
aI01
aI01
aI01
aI01
aI01
aI01
asS'total_steps'
p47
I33
sS'normalized_h_of_p_ui_given_um'
p48
(lp49
cnumpy.core.multiarray
scalar
p50
(cnumpy
dtype
p51
(S'f8'
p52
I0
I1
tp53
Rp54
(I3
S'<'
p55
NNNI-1
I-1
I0
tp56
bS'F\x04\xdcZ\x10`\xd8?'
p57
tp58
Rp59
ag50
(g54
S'\xabl]o#*\xe1?'
p60
tp61
Rp62
ag50
(g54
S'\x0c\x8c\xfb7\xb3\xa8\xd1?'
p63
tp64
Rp65
ag50
(g54
S'\x9d\xdb\xf0\x80\xc7\xf8\xe3?'
p66
tp67
Rp68
ag50
(g54
S'\x9d\xdb\xf0\x80\xc7\xf8\xe3?'
p69
tp70
Rp71
ag50
(g54
S'\x7f{0\x9e\x1bF\xce?'
p72
tp73
Rp74
ag50
(g54
S'K\x94)\x92s\xe1\xec?'
p75
tp76
Rp77
ag50
(g54
S'F\x90\xff"\x88\x8e\xbf?'
p78
tp79
Rp80
ag50
(g54
S'#Wm\x12\xcf\xd1\xea?'
p81
tp82
Rp83
ag50
(g54
S'\xaa\xe6$\x9aj\xd7\xe1?'
p84
tp85
Rp86
ag50
(g54
S'\x0c\x8c\xfb7\xb3\xa8\xd1?'
p87
tp88
Rp89
ag50
(g54
S'D%M\x83$\xe5\xe3?'
p90
tp91
Rp92
ag50
(g54
S'\xe4iU\xdez\xdf\xe2?'
p93
tp94
Rp95
ag50
(g54
S'\x0c\x8c\xfb7\xb3\xa8\xd1?'
p96
tp97
Rp98
ag50
(g54
S'D%M\x83$\xe5\xe3?'
p99
tp100
Rp101
ag50
(g54
S'F\x90\xff"\x88\x8e\xbf?'
p102
tp103
Rp104
ag50
(g54
S'D%M\x83$\xe5\xe3?'
p105
tp106
Rp107
ag50
(g54
S'F\x90\xff"\x88\x8e\xbf?'
p108
tp109
Rp110
ag50
(g54
S'E\xd4\xff\x12\x00\x93\xd9?'
p111
tp112
Rp113
ag50
(g54
S'Tu\x10\xad\xf0\x98\xe9?'
p114
tp115
Rp116
ag50
(g54
S'\x0c\x8c\xfb7\xb3\xa8\xd1?'
p117
tp118
Rp119
ag50
(g54
S'D%M\x83$\xe5\xe3?'
p120
tp121
Rp122
ag50
(g54
S'F\x90\xff"\x88\x8e\xbf?'
p123
tp124
Rp125
ag50
(g54
S'D%M\x83$\xe5\xe3?'
p126
tp127
Rp128
ag50
(g54
S'F\x90\xff"\x88\x8e\xbf?'
p129
tp130
Rp131
ag50
(g54
S'E\xd4\xff\x12\x00\x93\xd9?'
p132
tp133
Rp134
ag50
(g54
S'\x0c\x8c\xfb7\xb3\xa8\xd1?'
p135
tp136
Rp137
ag50
(g54
S'\x7f{0\x9e\x1bF\xce?'
p138
tp139
Rp140
ag50
(g54
S'\x0c\x8c\xfb7\xb3\xa8\xd1?'
p141
tp142
Rp143
ag50
(g54
S'#Wm\x12\xcf\xd1\xea?'
p144
tp145
Rp146
ag50
(g54
S'Tu\x10\xad\xf0\x98\xe9?'
p147
tp148
Rp149
ag50
(g54
S'\x0c\x8c\xfb7\xb3\xa8\xd1?'
p150
tp151
Rp152
ag50
(g54
S'E\xd4\xff\x12\x00\x93\xd9?'
p153
tp154
Rp155
asS'sp'
p156
(lp157
(S'p0'
p158
I0
S'y'
p159
tp160
a(g158
I0
S't'
p161
tp162
a(g158
I0
g159
tp163
a(g158
I0
g159
tp164
ag164
a(S'p1'
p165
I0
g159
tp166
a(g165
I0
g161
tp167
a(g165
I0
S'x'
p168
tp169
a(g165
I0
g159
tp170
a(g165
I0
g159
tp171
a(g165
I0
g168
tp172
a(g165
I0
g161
tp173
a(g165
I0
g159
tp174
ag172
ag173
ag169
ag173
ag169
a(S'p2'
p175
I0
g168
tp176
a(g175
I0
g168
tp177
a(g175
I0
g161
tp178
a(g175
I0
g159
tp179
a(g175
I0
g161
tp180
ag179
ag180
a(g175
F1.5707963267948966
g161
tp181
a(g175
F1.5707963267948966
g159
tp182
a(S'p3'
p183
F1.5707963267948966
g159
tp184
a(g183
F1.5707963267948966
g168
tp185
a(g183
F1.5707963267948966
g159
tp186
a(g183
F1.5707963267948966
g159
tp187
ag185
a(S'p4'
p188
F1.5707963267948966
g168
tp189
asS's'
p190
(lp191
(g158
I0
g22
tp192
ag160
ag162
ag163
ag164
ag164
ag166
ag167
ag169
ag170
ag171
ag172
ag173
ag174
ag172
ag173
ag169
ag173
ag169
ag176
ag177
ag178
ag179
ag180
ag179
ag180
ag181
ag182
ag184
ag185
ag186
ag187
ag185
asS'ui'
p193
(lp194
g156
aS'ss'
p195
aS'hs'
p196
ag195
ag195
ag195
ag195
aS'hp'
p197
ag197
ag196
ag196
ag156
ag196
ag196
ag156
ag197
ag197
ag197
ag156
ag195
ag196
ag156
ag197
ag156
ag197
ag156
ag196
ag195
ag196
ag156
ag156
ag196
ag156
asS'um_before'
p198
(lp199
g156
ag197
ag196
ag156
ag156
ag195
ag197
ag197
ag197
ag195
ag196
ag196
ag196
ag196
ag196
ag197
ag196
ag197
ag156
ag156
ag196
ag196
ag197
ag196
ag197
ag156
ag196
ag195
ag196
ag197
ag156
ag196
ag156
asS'um_after'
p200
(lp201
g197
ag197
ag196
ag156
ag156
ag195
ag197
ag197
ag197
ag195
ag196
ag196
ag196
ag196
ag196
ag197
ag196
ag197
ag156
ag156
ag196
ag196
ag197
ag196
ag197
ag156
ag196
ag195
ag196
ag197
ag156
ag196
ag156
asS'is_normalized_entropy_less_than_threshold'
p202
(lp203
g50
(g51
(S'b1'
p204
I0
I1
tp205
Rp206
(I3
S'|'
p207
NNNI-1
I-1
I0
tp208
bS'\x01'
p209
tp210
Rp211
ag50
(g206
S'\x00'
p212
tp213
Rp214
ag211
ag214
ag214
ag211
ag214
ag211
ag214
ag214
ag211
ag214
ag214
ag211
ag214
ag211
ag214
ag211
ag211
ag214
ag211
ag214
ag211
ag214
ag211
ag211
ag211
ag211
ag211
ag214
ag214
ag211
ag211
asaa(lp215
S'index'
p216
aI112359
aatp217
Rp218
.