ccollections
OrderedDict
p0
((lp1
(lp2
S'combination_dict'
p3
ag0
((lp4
(lp5
S'r_to_g_config'
p6
aS'tl'
p7
aa(lp8
S'num_turns'
p9
aI3
aa(lp10
S'start_direction'
p11
acutils_ms
StartDirection
p12
(I1
tp13
Rp14
aa(lp15
S'assistance_type'
p16
acutils_ms
AssistanceType
p17
(I1
tp18
Rp19
aa(lp20
S'start_mode'
p21
aS'x'
p22
aa(lp23
S'ui_given_a_noise'
p24
aF0.3
aa(lp25
S'um_given_ui_noise'
p26
aF0.3
aa(lp27
S'entropy_threshold'
p28
aF0.6
aatp29
Rp30
aa(lp31
S'data'
p32
accollections
defaultdict
p33
(c__builtin__
list
p34
tp35
Rp36
S'a'
p37
(lp38
S'mode_r'
p39
ag39
aS'move_p'
p40
aS'mode_l'
p41
ag41
ag39
aS'move_n'
p42
ag39
ag41
ag40
ag39
ag39
ag40
ag39
ag42
ag39
ag42
asS'assistance_match_with_ground_truth'
p43
(lp44
I00
aI01
aI01
aI00
aI00
aI01
aI01
aI00
aI01
aI01
aI00
aI01
aI01
aI01
aI00
aI01
aI01
asS'is_u_intended_equals_um'
p45
(lp46
I00
aI01
aI01
aI01
aI01
aI00
aI01
aI00
aI01
aI01
aI00
aI01
aI01
aI01
aI01
aI01
aI01
asS'total_steps'
p47
I17
sS'normalized_h_of_p_ui_given_um'
p48
(lp49
cnumpy.core.multiarray
scalar
p50
(cnumpy
dtype
p51
(S'f8'
p52
I0
I1
tp53
Rp54
(I3
S'<'
p55
NNNI-1
I-1
I0
tp56
bS'\xc6\xcfC\r\x8cT\xe5?'
p57
tp58
Rp59
ag50
(g54
S'n\x06rw\xdc\xfd\xcb?'
p60
tp61
Rp62
ag50
(g54
S'\xb4\x8d\xf1C\x18w\xcd?'
p63
tp64
Rp65
ag50
(g54
S'\x00\xf0\xd6|v\x92\xe4?'
p66
tp67
Rp68
ag50
(g54
S'\xba\x9b\xaf\xec\xd10\xea?'
p69
tp70
Rp71
ag50
(g54
S'\xb6\xfa\xee\xdd\xce\xc4\xdc?'
p72
tp73
Rp74
ag50
(g54
S'F\x1b+\xed\xaey\xb2?'
p75
tp76
Rp77
ag50
(g54
S'\xb8\xcc\x03\xcb\xc2\xb1\xe8?'
p78
tp79
Rp80
ag50
(g54
S'C\x05\x11\xbfz`\xcf?'
p81
tp82
Rp83
ag50
(g54
S'\xb4\x8d\xf1C\x18w\xcd?'
p84
tp85
Rp86
ag50
(g54
S'\xc6\xcfC\r\x8cT\xe5?'
p87
tp88
Rp89
ag50
(g54
S'n\x06rw\xdc\xfd\xcb?'
p90
tp91
Rp92
ag50
(g54
S'\xb4\x8d\xf1C\x18w\xcd?'
p93
tp94
Rp95
ag50
(g54
S'n\x06rw\xdc\xfd\xcb?'
p96
tp97
Rp98
ag50
(g54
S'\xbc\x86 j\x83Q\xe6?'
p99
tp100
Rp101
ag50
(g54
S'n\x06rw\xdc\xfd\xcb?'
p102
tp103
Rp104
ag50
(g54
S'F\x1b+\xed\xaey\xb2?'
p105
tp106
Rp107
asS'sp'
p108
(lp109
(S'p0'
p110
I0
S'x'
p111
tp112
a(g110
I0
S'y'
p113
tp114
a(S'p1'
p115
I0
g113
tp116
a(g115
I0
g113
tp117
a(g115
I0
S't'
p118
tp119
a(g115
I0
g111
tp120
a(S'p2'
p121
I0
g111
tp122
a(g121
I0
g118
tp123
a(g121
I0
g113
tp124
a(S'p3'
p125
I0
g113
tp126
a(g125
I0
g113
tp127
a(g125
I0
g118
tp128
a(g125
F1.5707963267948966
g118
tp129
a(g125
F1.5707963267948966
g111
tp130
a(g125
F1.5707963267948966
g118
tp131
ag130
a(S'p4'
p132
F1.5707963267948966
g111
tp133
asS's'
p134
(lp135
(g110
I0
g22
tp136
ag112
ag114
ag116
ag117
ag119
ag120
ag122
ag123
ag124
ag126
ag127
ag128
ag129
ag130
ag131
ag130
asS'ui'
p137
(lp138
g108
aS'hp'
p139
ag108
aS'hs'
p140
ag140
ag139
aS'ss'
p141
ag139
ag140
ag108
ag108
ag139
ag108
ag139
ag140
ag139
ag141
asS'um_before'
p142
(lp143
g108
ag139
ag108
ag141
ag139
ag141
ag141
ag140
ag140
ag108
ag108
ag139
ag108
ag139
ag140
ag139
ag141
asS'um_after'
p144
(lp145
g108
ag139
ag108
ag141
ag139
ag139
ag141
ag140
ag140
ag108
ag108
ag139
ag108
ag139
ag140
ag139
ag141
asS'is_normalized_entropy_less_than_threshold'
p146
(lp147
g50
(g51
(S'b1'
p148
I0
I1
tp149
Rp150
(I3
S'|'
p151
NNNI-1
I-1
I0
tp152
bS'\x00'
p153
tp154
Rp155
ag50
(g150
S'\x01'
p156
tp157
Rp158
ag158
ag155
ag155
ag158
ag158
ag155
ag158
ag158
ag155
ag158
ag158
ag158
ag155
ag158
ag158
asaa(lp159
S'index'
p160
aI54661
aatp161
Rp162
.