ccollections
OrderedDict
p0
((lp1
(lp2
S'combination_dict'
p3
ag0
((lp4
(lp5
S'r_to_g_config'
p6
aS'tr'
p7
aa(lp8
S'num_turns'
p9
aI3
aa(lp10
S'start_direction'
p11
acutils_ms
StartDirection
p12
(I0
tp13
Rp14
aa(lp15
S'assistance_type'
p16
acutils_ms
AssistanceType
p17
(I1
tp18
Rp19
aa(lp20
S'start_mode'
p21
aS't'
p22
aa(lp23
S'ui_given_a_noise'
p24
aF0.5
aa(lp25
S'um_given_ui_noise'
p26
aF0.7
aa(lp27
S'entropy_threshold'
p28
aF0.5
aatp29
Rp30
aa(lp31
S'data'
p32
accollections
defaultdict
p33
(c__builtin__
list
p34
tp35
Rp36
S'a'
p37
(lp38
S'mode_r'
p39
aS'move_p'
p40
ag39
ag39
ag40
aS'mode_l'
p41
ag41
ag40
ag39
ag39
ag40
ag41
ag41
ag41
ag40
ag41
ag40
ag41
ag41
ag41
ag39
ag39
ag39
ag40
ag39
ag40
ag39
ag39
ag39
ag39
ag39
ag39
ag39
ag39
ag39
ag40
ag41
ag40
ag39
ag39
ag39
ag40
ag41
ag41
ag40
ag39
ag40
ag39
ag40
ag39
ag40
ag41
ag41
ag40
asS'assistance_match_with_ground_truth'
p42
(lp43
I01
aI01
aI00
aI01
aI01
aI00
aI01
aI00
aI00
aI01
aI01
aI00
aI00
aI01
aI01
aI01
aI00
aI00
aI00
aI00
aI00
aI00
aI01
aI00
aI01
aI00
aI00
aI00
aI00
aI00
aI00
aI00
aI00
aI00
aI01
aI01
aI01
aI01
aI00
aI00
aI01
aI00
aI00
aI01
aI00
aI01
aI00
aI01
aI01
aI01
aI00
aI00
aI01
aI01
asS'is_u_intended_equals_um'
p44
(lp45
I01
aI01
aI00
aI01
aI01
aI01
aI01
aI01
aI00
aI01
aI01
aI01
aI01
aI01
aI01
aI01
aI00
aI01
aI01
aI00
aI00
aI00
aI01
aI01
aI00
aI00
aI00
aI00
aI00
aI00
aI00
aI00
aI00
aI00
aI01
aI01
aI01
aI01
aI00
aI00
aI01
aI00
aI01
aI01
aI01
aI01
aI01
aI00
aI01
aI01
aI01
aI01
aI01
aI01
asS'total_steps'
p46
I54
sS'normalized_h_of_p_ui_given_um'
p47
(lp48
cnumpy.core.multiarray
scalar
p49
(cnumpy
dtype
p50
(S'f8'
p51
I0
I1
tp52
Rp53
(I3
S'<'
p54
NNNI-1
I-1
I0
tp55
bS'c\x88%>\xd2\xb9\xb7?'
p56
tp57
Rp58
ag49
(g53
S'\x9a\xa5\xf4\x1d~?\xe3?'
p59
tp60
Rp61
ag49
(g53
S'\xdcx\n\xf2\xf8X\xe8?'
p62
tp63
Rp64
ag49
(g53
S'c\x88%>\xd2\xb9\xb7?'
p65
tp66
Rp67
ag49
(g53
S'\x9a\xa5\xf4\x1d~?\xe3?'
p68
tp69
Rp70
ag49
(g53
S'T|e\xc8\x11\xe3\xec?'
p71
tp72
Rp73
ag49
(g53
S'\xa8\x90\x885\xd0\\\xe3?'
p74
tp75
Rp76
ag49
(g53
S'\x12\xa9v\xeb\x81\xa5\xeb?'
p77
tp78
Rp79
ag49
(g53
S'\xdcx\n\xf2\xf8X\xe8?'
p80
tp81
Rp82
ag49
(g53
S'c\x88%>\xd2\xb9\xb7?'
p83
tp84
Rp85
ag49
(g53
S'\x9a\xa5\xf4\x1d~?\xe3?'
p86
tp87
Rp88
ag49
(g53
S'T|e\xc8\x11\xe3\xec?'
p89
tp90
Rp91
ag49
(g53
S'T|e\xc8\x11\xe3\xec?'
p92
tp93
Rp94
ag49
(g53
S'\xa8\x90\x885\xd0\\\xe3?'
p95
tp96
Rp97
ag49
(g53
S'\x9a\xa5\xf4\x1d~?\xe3?'
p98
tp99
Rp100
ag49
(g53
S'\xa8\x90\x885\xd0\\\xe3?'
p101
tp102
Rp103
ag49
(g53
S'5\x94u\xde\x19\x9c\xeb?'
p104
tp105
Rp106
ag49
(g53
S'T|e\xc8\x11\xe3\xec?'
p107
tp108
Rp109
ag49
(g53
S'\xae\xdf\x8b\xfd\xfc\xb4\xec?'
p110
tp111
Rp112
ag49
(g53
S'9\x9c6PTq\xe1?'
p113
tp114
Rp115
ag49
(g53
S'\xdcx\n\xf2\xf8X\xe8?'
p116
tp117
Rp118
ag49
(g53
S'\xdcx\n\xf2\xf8X\xe8?'
p119
tp120
Rp121
ag49
(g53
S'c\x88%>\xd2\xb9\xb7?'
p122
tp123
Rp124
ag49
(g53
S'\x12\xa9v\xeb\x81\xa5\xeb?'
p125
tp126
Rp127
ag49
(g53
S"\xe2\xbc\xf2'\xc4V\xd4?"
p128
tp129
Rp130
ag49
(g53
S'5\x94u\xde\x19\x9c\xeb?'
p131
tp132
Rp133
ag49
(g53
S'\xdcx\n\xf2\xf8X\xe8?'
p134
tp135
Rp136
ag49
(g53
S'\xdcx\n\xf2\xf8X\xe8?'
p137
tp138
Rp139
ag49
(g53
S'\xd5Q\x17\xb8\xc6\xc1\xe4?'
p140
tp141
Rp142
ag49
(g53
S'\xd5Q\x17\xb8\xc6\xc1\xe4?'
p143
tp144
Rp145
ag49
(g53
S'\xd5Q\x17\xb8\xc6\xc1\xe4?'
p146
tp147
Rp148
ag49
(g53
S'\xdcx\n\xf2\xf8X\xe8?'
p149
tp150
Rp151
ag49
(g53
S'\xdcx\n\xf2\xf8X\xe8?'
p152
tp153
Rp154
ag49
(g53
S'\xd5Q\x17\xb8\xc6\xc1\xe4?'
p155
tp156
Rp157
ag49
(g53
S'c\x88%>\xd2\xb9\xb7?'
p158
tp159
Rp160
ag49
(g53
S'\x9a\xa5\xf4\x1d~?\xe3?'
p161
tp162
Rp163
ag49
(g53
S'\xa8\x90\x885\xd0\\\xe3?'
p164
tp165
Rp166
ag49
(g53
S'\x9a\xa5\xf4\x1d~?\xe3?'
p167
tp168
Rp169
ag49
(g53
S'\xd5Q\x17\xb8\xc6\xc1\xe4?'
p170
tp171
Rp172
ag49
(g53
S'\xdcx\n\xf2\xf8X\xe8?'
p173
tp174
Rp175
ag49
(g53
S'c\x88%>\xd2\xb9\xb7?'
p176
tp177
Rp178
ag49
(g53
S'5\x94u\xde\x19\x9c\xeb?'
p179
tp180
Rp181
ag49
(g53
S'T|e\xc8\x11\xe3\xec?'
p182
tp183
Rp184
ag49
(g53
S'\xa8\x90\x885\xd0\\\xe3?'
p185
tp186
Rp187
ag49
(g53
S'\x12\xa9v\xeb\x81\xa5\xeb?'
p188
tp189
Rp190
ag49
(g53
S'c\x88%>\xd2\xb9\xb7?'
p191
tp192
Rp193
ag49
(g53
S'\x12\xa9v\xeb\x81\xa5\xeb?'
p194
tp195
Rp196
ag49
(g53
S"\xe2\xbc\xf2'\xc4V\xd4?"
p197
tp198
Rp199
ag49
(g53
S'\x9a\xa5\xf4\x1d~?\xe3?'
p200
tp201
Rp202
ag49
(g53
S'c\x88%>\xd2\xb9\xb7?'
p203
tp204
Rp205
ag49
(g53
S'\xa7:\xc9y\xe8,\xe5?'
p206
tp207
Rp208
ag49
(g53
S'T|e\xc8\x11\xe3\xec?'
p209
tp210
Rp211
ag49
(g53
S'\xa8\x90\x885\xd0\\\xe3?'
p212
tp213
Rp214
ag49
(g53
S'\x9a\xa5\xf4\x1d~?\xe3?'
p215
tp216
Rp217
asS'sp'
p218
(lp219
(S'p0'
p220
I0
S'x'
p221
tp222
a(S'p1'
p223
I0
g221
tp224
a(g223
I0
g221
tp225
a(g223
I0
S'y'
p226
tp227
a(S'p2'
p228
I0
g226
tp229
a(g228
I0
g226
tp230
a(g228
I0
g221
tp231
a(g228
I0
S't'
p232
tp233
a(g228
I0
g232
tp234
a(g228
I0
g221
tp235
a(S'p3'
p236
I0
g221
tp237
a(g236
I0
g221
tp238
ag238
a(g236
I0
g232
tp239
a(g236
F1.5707963267948966
g232
tp240
a(g236
F1.5707963267948966
g226
tp241
a(g228
F1.5707963267948966
g226
tp242
a(g228
F1.5707963267948966
g226
tp243
a(g228
F1.5707963267948966
g226
tp244
a(g228
F1.5707963267948966
g232
tp245
a(g228
F1.5707963267948966
g232
tp246
ag246
a(g228
F1.5707963267948966
g221
tp247
a(g228
F1.5707963267948966
g232
tp248
ag247
a(g223
F1.5707963267948966
g221
tp249
a(g223
F1.5707963267948966
g221
tp250
ag250
a(g223
F1.5707963267948966
g221
tp251
ag251
ag251
ag250
ag250
ag251
a(g223
F1.5707963267948966
g226
tp252
a(g228
F1.5707963267948966
g226
tp253
a(g228
F1.5707963267948966
g221
tp254
a(g236
F1.5707963267948966
g221
tp255
a(g236
F1.5707963267948966
g221
tp256
a(g236
F1.5707963267948966
g221
tp257
a(g236
F1.5707963267948966
g226
tp258
ag242
ag243
ag254
ag248
ag247
ag248
ag247
ag255
ag258
a(g236
F1.5707963267948966
g232
tp259
a(g236
F1.5707963267948966
g232
tp260
ag241
a(S'p4'
p261
F1.5707963267948966
g226
tp262
asS's'
p263
(lp264
(g220
I0
g22
tp265
ag222
ag224
ag225
ag227
ag229
ag230
ag231
ag233
ag234
ag235
ag237
ag238
ag238
ag239
ag240
ag241
ag242
ag243
ag244
ag245
ag246
ag246
ag247
ag248
ag247
ag249
ag250
ag250
ag251
ag251
ag251
ag250
ag250
ag251
ag252
ag253
ag254
ag255
ag256
ag257
ag258
ag242
ag243
ag254
ag248
ag247
ag248
ag247
ag255
ag258
ag259
ag260
ag241
asS'ui'
p266
(lp267
S'hp'
p268
ag218
aS'ss'
p269
ag268
ag268
ag218
aS'hs'
p270
ag270
ag268
ag268
ag269
ag270
ag218
ag270
ag218
ag268
ag269
ag269
ag268
ag270
ag268
ag269
ag268
ag268
ag268
ag218
ag269
ag269
ag269
ag268
ag268
ag268
ag268
ag268
ag268
ag218
ag270
ag218
ag218
ag268
ag268
ag218
ag218
ag270
ag270
ag268
ag270
ag268
ag218
ag268
ag270
ag270
ag270
ag218
asS'um_before'
p271
(lp272
g268
ag218
ag269
ag268
ag218
ag218
ag270
ag270
ag269
ag268
ag218
ag218
ag218
ag270
ag218
ag270
ag269
ag218
ag269
ag268
ag269
ag269
ag268
ag270
ag270
ag269
ag269
ag269
ag218
ag218
ag218
ag269
ag269
ag218
ag268
ag218
ag270
ag218
ag218
ag269
ag268
ag269
ag218
ag270
ag270
ag268
ag270
ag270
ag218
ag268
ag268
ag218
ag270
ag218
asS'um_after'
p273
(lp274
g268
ag218
ag269
ag268
ag218
ag218
ag270
ag270
ag269
ag268
ag218
ag218
ag218
ag270
ag218
ag270
ag269
ag218
ag269
ag268
ag269
ag269
ag268
ag270
ag268
ag269
ag269
ag269
ag218
ag218
ag218
ag269
ag269
ag218
ag268
ag218
ag270
ag218
ag218
ag269
ag268
ag269
ag218
ag270
ag270
ag268
ag270
ag268
ag218
ag268
ag268
ag218
ag270
ag218
asS'is_normalized_entropy_less_than_threshold'
p275
(lp276
g49
(g50
(S'b1'
p277
I0
I1
tp278
Rp279
(I3
S'|'
p280
NNNI-1
I-1
I0
tp281
bS'\x01'
p282
tp283
Rp284
ag49
(g279
S'\x00'
p285
tp286
Rp287
ag287
ag284
ag287
ag287
ag287
ag287
ag287
ag284
ag287
ag287
ag287
ag287
ag287
ag287
ag287
ag287
ag287
ag287
ag287
ag287
ag284
ag287
ag284
ag287
ag287
ag287
ag287
ag287
ag287
ag287
ag287
ag287
ag284
ag287
ag287
ag287
ag287
ag287
ag284
ag287
ag287
ag287
ag287
ag284
ag287
ag284
ag287
ag284
ag287
ag287
ag287
ag287
asaa(lp288
S'index'
p289
aI21356
aatp290
Rp291
.