ccollections
OrderedDict
p0
((lp1
(lp2
S'combination_dict'
p3
ag0
((lp4
(lp5
S'r_to_g_config'
p6
aS'tr'
p7
aa(lp8
S'num_turns'
p9
aI3
aa(lp10
S'start_direction'
p11
acutils_ms
StartDirection
p12
(I1
tp13
Rp14
aa(lp15
S'assistance_type'
p16
acutils_ms
AssistanceType
p17
(I2
tp18
Rp19
aa(lp20
S'start_mode'
p21
aS't'
p22
aa(lp23
S'ui_given_a_noise'
p24
aF0.7
aa(lp25
S'um_given_ui_noise'
p26
aF0.5
aa(lp27
S'entropy_threshold'
p28
aF0.6
aatp29
Rp30
aa(lp31
S'data'
p32
accollections
defaultdict
p33
(c__builtin__
list
p34
tp35
Rp36
S'a'
p37
(lp38
S'mode_l'
p39
aS'move_p'
p40
ag40
ag40
ag39
ag39
ag39
ag39
ag39
ag40
ag39
ag39
ag39
ag40
aS'mode_r'
p41
ag39
ag40
ag39
ag40
ag39
ag41
ag41
ag41
ag40
ag39
ag39
ag41
ag39
ag39
ag41
ag41
ag40
asS'assistance_match_with_ground_truth'
p42
(lp43
I01
aI00
aI00
aI01
aI00
aI00
aI00
aI00
aI01
aI00
aI00
aI00
aI01
aI00
aI00
aI01
aI01
aI01
aI01
aI00
aI00
aI00
aI01
aI01
aI00
aI00
aI00
aI00
aI00
aI00
aI01
aI01
asS'is_u_intended_equals_um'
p44
(lp45
I00
aI00
aI00
aI00
aI00
aI00
aI00
aI00
aI00
aI00
aI00
aI00
aI00
aI00
aI00
aI00
aI00
aI00
aI00
aI00
aI00
aI00
aI00
aI00
aI00
aI00
aI00
aI00
aI00
aI00
aI00
aI00
asS'total_steps'
p46
I32
sS'normalized_h_of_p_ui_given_um'
p47
(lp48
cnumpy.core.multiarray
scalar
p49
(cnumpy
dtype
p50
(S'f8'
p51
I0
I1
tp52
Rp53
(I3
S'<'
p54
NNNI-1
I-1
I0
tp55
bS'\rA\xc3\xd2\xcb\xa1\xe6?'
p56
tp57
Rp58
ag58
ag58
ag58
ag58
ag58
ag58
ag58
ag58
ag58
ag58
ag58
ag58
ag58
ag58
ag58
ag58
ag58
ag58
ag58
ag58
ag58
ag58
ag58
ag58
ag58
ag58
ag58
ag58
ag58
ag58
ag58
asS'sp'
p59
(lp60
(S'p0'
p61
I0
S'y'
p62
tp63
a(g61
I0
g62
tp64
ag64
a(S'p1'
p65
I0
g62
tp66
a(g65
I0
g62
tp67
a(g65
I0
g62
tp68
ag68
ag68
a(g65
I0
S'x'
p69
tp70
a(g65
I0
g62
tp71
ag67
ag68
ag70
a(g65
I0
S't'
p72
tp73
a(g65
I0
g62
tp74
ag70
a(S'p2'
p75
I0
g69
tp76
a(g75
I0
g72
tp77
a(g75
F1.5707963267948966
g72
tp78
a(g75
F1.5707963267948966
g69
tp79
a(g75
F1.5707963267948966
g69
tp80
a(g75
F1.5707963267948966
g69
tp81
a(g75
F1.5707963267948966
g62
tp82
a(S'p3'
p83
F1.5707963267948966
g62
tp84
a(g83
F1.5707963267948966
g62
tp85
a(g83
F1.5707963267948966
g72
tp86
a(g83
F1.5707963267948966
g62
tp87
a(g83
F1.5707963267948966
g62
tp88
ag86
a(g83
F1.5707963267948966
g72
tp89
a(g83
F1.5707963267948966
g69
tp90
a(S'p4'
p91
F1.5707963267948966
g69
tp92
asS's'
p93
(lp94
(g61
I0
g22
tp95
ag63
ag64
ag64
ag66
ag67
ag68
ag68
ag68
ag70
ag71
ag67
ag68
ag70
ag73
ag74
ag70
ag76
ag77
ag78
ag79
ag80
ag81
ag82
ag84
ag85
ag86
ag87
ag88
ag86
ag89
ag90
asS'ui'
p96
(lp97
S'hs'
p98
aS'ss'
p99
ag99
ag59
ag99
ag98
ag59
ag98
ag98
ag59
ag98
ag59
ag98
aS'hp'
p100
ag100
ag98
ag59
ag98
ag59
ag98
ag99
ag100
ag100
ag59
ag98
ag98
ag100
ag99
ag98
ag98
ag100
ag59
asS'um_before'
p101
(lp102
g98
ag99
ag99
ag59
ag99
ag59
ag59
ag59
ag98
ag100
ag99
ag59
ag98
ag98
ag98
ag98
ag59
ag98
ag59
ag100
ag99
ag59
ag100
ag59
ag59
ag100
ag98
ag99
ag100
ag99
ag100
ag59
asS'um_after'
p103
(lp104
g98
ag99
ag99
ag59
ag99
ag59
ag59
ag59
ag98
ag100
ag99
ag59
ag98
ag98
ag98
ag98
ag59
ag98
ag59
ag100
ag99
ag59
ag100
ag59
ag59
ag100
ag98
ag99
ag100
ag99
ag100
ag59
asS'is_normalized_entropy_less_than_threshold'
p105
(lp106
g49
(g50
(S'b1'
p107
I0
I1
tp108
Rp109
(I3
S'|'
p110
NNNI-1
I-1
I0
tp111
bS'\x01'
p112
tp113
Rp114
ag114
ag114
ag114
ag114
ag114
ag114
ag114
ag114
ag114
ag114
ag114
ag114
ag114
ag114
ag114
ag114
ag114
ag114
ag114
ag114
ag114
ag114
ag114
ag114
ag114
ag114
ag114
ag114
ag114
ag114
ag114
asaa(lp115
S'index'
p116
aI28712
aatp117
Rp118
.