ccollections
OrderedDict
p0
((lp1
(lp2
S'combination_dict'
p3
ag0
((lp4
(lp5
S'r_to_g_config'
p6
aS'bl'
p7
aa(lp8
S'num_turns'
p9
aI2
aa(lp10
S'start_direction'
p11
acutils_ms
StartDirection
p12
(I0
tp13
Rp14
aa(lp15
S'assistance_type'
p16
acutils_ms
AssistanceType
p17
(I0
tp18
Rp19
aa(lp20
S'start_mode'
p21
aS't'
p22
aa(lp23
S'ui_given_a_noise'
p24
aF0.5
aa(lp25
S'um_given_ui_noise'
p26
aF0.5
aa(lp27
S'entropy_threshold'
p28
aF0.9
aatp29
Rp30
aa(lp31
S'data'
p32
accollections
defaultdict
p33
(c__builtin__
list
p34
tp35
Rp36
S'a'
p37
(lp38
S'mode_r'
p39
aS'mode_l'
p40
aS'move_n'
p41
ag41
ag41
ag40
ag39
ag39
aS'move_p'
p42
ag42
ag40
ag40
ag42
ag42
ag39
ag39
ag42
ag40
ag41
ag41
ag40
ag40
ag40
ag40
ag40
ag41
ag39
ag40
ag41
ag40
ag41
ag41
asS'assistance_match_with_ground_truth'
p43
(lp44
I00
aI01
aI00
aI00
aI01
aI00
aI00
aI01
aI00
aI01
aI00
aI00
aI00
aI00
aI00
aI01
aI01
aI01
aI00
aI01
aI00
aI00
aI00
aI00
aI01
aI00
aI00
aI01
aI01
aI01
aI00
aI01
asS'is_u_intended_equals_um'
p45
(lp46
I01
aI01
aI00
aI01
aI01
aI01
aI00
aI01
aI00
aI01
aI01
aI00
aI00
aI01
aI00
aI01
aI01
aI01
aI00
aI01
aI00
aI00
aI00
aI00
aI01
aI01
aI01
aI01
aI01
aI01
aI00
aI01
asS'total_steps'
p47
I32
sS'normalized_h_of_p_ui_given_um'
p48
(lp49
cnumpy.core.multiarray
scalar
p50
(cnumpy
dtype
p51
(S'f8'
p52
I0
I1
tp53
Rp54
(I3
S'<'
p55
NNNI-1
I-1
I0
tp56
bS'\x9c\xec\xf6k\xbf\xfa\xe1?'
p57
tp58
Rp59
ag50
(g54
S'?l\x1e\xce2d\xd1?'
p60
tp61
Rp62
ag50
(g54
S'@\xf1\x8fL"\xc3\xdc?'
p63
tp64
Rp65
ag50
(g54
S'\xcf\xfd\xdaZ\xfc\xff\xe1?'
p66
tp67
Rp68
ag50
(g54
S'X\x13,\x7f\xf0\x80\xd5?'
p69
tp70
Rp71
ag50
(g54
S'\xf7N\xcew\xa1y\xe7?'
p72
tp73
Rp74
ag50
(g54
S'\xe2<@6%\xe5\xe4?'
p75
tp76
Rp77
ag50
(g54
S'<\xa6\x81u\n\xe0\xde?'
p78
tp79
Rp80
ag50
(g54
S'\xf9\x86\xc9\xdb#\x0c\xea?'
p81
tp82
Rp83
ag50
(g54
S'"\x969\x9c\x04\xd9\xb9?'
p84
tp85
Rp86
ag50
(g54
S'\xd8cK\x05[\xf3\xe4?'
p87
tp88
Rp89
ag50
(g54
S'\xc5Qc\xe2\xdc[\xef?'
p90
tp91
Rp92
ag50
(g54
S'`2N\xbc\xb3\xa6\xdb?'
p93
tp94
Rp95
ag50
(g54
S'\x1bc\xe5\xa7\xed=\xd4?'
p96
tp97
Rp98
ag50
(g54
S'\xa3\xd3\xd9\xf1\xd44\xe3?'
p99
tp100
Rp101
ag50
(g54
S'<\xa6\x81u\n\xe0\xde?'
p102
tp103
Rp104
ag50
(g54
S'"\x969\x9c\x04\xd9\xb9?'
p105
tp106
Rp107
ag50
(g54
S'?l\x1e\xce2d\xd1?'
p108
tp109
Rp110
ag50
(g54
S'@\xf1\x8fL"\xc3\xdc?'
p111
tp112
Rp113
ag50
(g54
S'X\x13,\x7f\xf0\x80\xd5?'
p114
tp115
Rp116
ag50
(g54
S'\xc5Qc\xe2\xdc[\xef?'
p117
tp118
Rp119
ag50
(g54
S'\xc5Qc\xe2\xdc[\xef?'
p120
tp121
Rp122
ag50
(g54
S'\xc5Qc\xe2\xdc[\xef?'
p123
tp124
Rp125
ag50
(g54
S'\xc5Qc\xe2\xdc[\xef?'
p126
tp127
Rp128
ag50
(g54
S'?l\x1e\xce2d\xd1?'
p129
tp130
Rp131
ag50
(g54
S'\xcf\xfd\xdaZ\xfc\xff\xe1?'
p132
tp133
Rp134
ag50
(g54
S'\x9c\xec\xf6k\xbf\xfa\xe1?'
p135
tp136
Rp137
ag50
(g54
S'?l\x1e\xce2d\xd1?'
p138
tp139
Rp140
ag50
(g54
S'X\x13,\x7f\xf0\x80\xd5?'
p141
tp142
Rp143
ag50
(g54
S'?l\x1e\xce2d\xd1?'
p144
tp145
Rp146
ag50
(g54
S'@\xf1\x8fL"\xc3\xdc?'
p147
tp148
Rp149
ag50
(g54
S'X\x13,\x7f\xf0\x80\xd5?'
p150
tp151
Rp152
asS'sp'
p153
(lp154
(S'p0'
p155
I0
S'y'
p156
tp157
a(g155
I0
S'x'
p158
tp159
ag159
a(g155
I0
g158
tp160
a(S'p1'
p161
I0
g158
tp162
a(g161
I0
g156
tp163
ag163
a(g161
I0
S't'
p164
tp165
ag165
a(g161
F1.5707963267948966
g164
tp166
a(g161
F1.5707963267948966
g164
tp167
a(g161
I0
g164
tp168
ag168
a(g161
I0
g156
tp169
ag169
ag165
ag166
a(g161
F1.5707963267948966
g156
tp170
ag170
a(S'p2'
p171
F1.5707963267948966
g156
tp172
a(g171
F1.5707963267948966
g156
tp173
ag173
ag173
ag173
a(g171
F1.5707963267948966
g158
tp174
a(g161
F1.5707963267948966
g158
tp175
a(g161
F1.5707963267948966
g164
tp176
ag170
ag172
ag174
ag174
a(S'p3'
p177
F1.5707963267948966
g158
tp178
asS's'
p179
(lp180
(g155
I0
g22
tp181
ag157
ag159
ag159
ag160
ag162
ag163
ag163
ag165
ag165
ag166
ag167
ag168
ag168
ag169
ag169
ag165
ag166
ag170
ag170
ag172
ag173
ag173
ag173
ag173
ag174
ag175
ag176
ag170
ag172
ag174
ag174
asS'ui'
p182
(lp183
S'hs'
p184
aS'hp'
p185
aS'ss'
p186
ag186
ag186
ag185
ag185
ag185
ag153
ag153
ag153
ag153
ag153
ag184
ag153
ag184
ag153
ag184
ag184
ag186
ag153
ag153
ag185
ag185
ag184
ag186
ag186
ag184
ag186
ag186
ag184
ag186
asS'um_before'
p187
(lp188
g184
ag184
ag184
ag153
ag186
ag185
ag186
ag185
ag185
ag153
ag153
ag186
ag186
ag184
ag153
ag185
ag153
ag184
ag184
ag186
ag186
ag186
ag186
ag186
ag184
ag153
ag184
ag184
ag186
ag184
ag184
ag186
asS'um_after'
p189
(lp190
g184
ag184
aNag153
ag186
ag185
aNag185
aNag153
ag153
ag186
aNag184
aNag185
ag153
ag184
aNag186
ag186
ag186
ag186
ag186
ag184
ag153
ag184
ag184
ag186
ag184
aNag186
asS'is_normalized_entropy_less_than_threshold'
p191
(lp192
g50
(g51
(S'b1'
p193
I0
I1
tp194
Rp195
(I3
S'|'
p196
NNNI-1
I-1
I0
tp197
bS'\x01'
p198
tp199
Rp200
ag200
ag200
ag200
ag200
ag200
ag200
ag200
ag200
ag200
ag200
ag50
(g195
S'\x00'
p201
tp202
Rp203
ag200
ag200
ag200
ag200
ag200
ag200
ag200
ag200
ag203
ag203
ag203
ag203
ag200
ag200
ag200
ag200
ag200
ag200
ag200
ag200
asaa(lp204
S'index'
p205
aI67740
aatp206
Rp207
.