ccollections
OrderedDict
p0
((lp1
(lp2
S'combination_dict'
p3
ag0
((lp4
(lp5
S'r_to_g_config'
p6
aS'tl'
p7
aa(lp8
S'num_turns'
p9
aI2
aa(lp10
S'start_direction'
p11
acutils_ms
StartDirection
p12
(I0
tp13
Rp14
aa(lp15
S'assistance_type'
p16
acutils_ms
AssistanceType
p17
(I0
tp18
Rp19
aa(lp20
S'start_mode'
p21
aS't'
p22
aa(lp23
S'ui_given_a_noise'
p24
aF0.3
aa(lp25
S'um_given_ui_noise'
p26
aF0.7
aa(lp27
S'entropy_threshold'
p28
aF0.9
aatp29
Rp30
aa(lp31
S'data'
p32
accollections
defaultdict
p33
(c__builtin__
list
p34
tp35
Rp36
S'a'
p37
(lp38
S'mode_r'
p39
ag39
ag39
aS'move_n'
p40
ag39
ag39
ag39
ag39
aS'move_p'
p41
ag41
ag39
ag39
ag39
ag41
ag41
aS'mode_l'
p42
ag42
ag41
ag41
ag41
ag39
ag40
asS'assistance_match_with_ground_truth'
p43
(lp44
I00
aI00
aI01
aI01
aI00
aI00
aI00
aI01
aI00
aI01
aI00
aI00
aI01
aI00
aI00
aI00
aI01
aI00
aI00
aI01
aI01
aI01
asS'is_u_intended_equals_um'
p45
(lp46
I00
aI00
aI01
aI01
aI00
aI01
aI00
aI01
aI00
aI01
aI01
aI00
aI01
aI00
aI01
aI00
aI01
aI00
aI00
aI01
aI01
aI01
asS'total_steps'
p47
I22
sS'normalized_h_of_p_ui_given_um'
p48
(lp49
cnumpy.core.multiarray
scalar
p50
(cnumpy
dtype
p51
(S'f8'
p52
I0
I1
tp53
Rp54
(I3
S'<'
p55
NNNI-1
I-1
I0
tp56
bS'It\xce\x83E\xc9\xeb?'
p57
tp58
Rp59
ag50
(g54
S't&\xa4\r\x0f\xfa\xea?'
p60
tp61
Rp62
ag50
(g54
S'\xc9B?\x1du\xc9\xce?'
p63
tp64
Rp65
ag50
(g54
S"\x8c\x14'<\xdf5\xc7?"
p66
tp67
Rp68
ag50
(g54
S't&\xa4\r\x0f\xfa\xea?'
p69
tp70
Rp71
ag50
(g54
S'\x94\xe2X:/n\xe7?'
p72
tp73
Rp74
ag50
(g54
S'It\xce\x83E\xc9\xeb?'
p75
tp76
Rp77
ag50
(g54
S'\xc9B?\x1du\xc9\xce?'
p78
tp79
Rp80
ag50
(g54
S'\x1c%\xa0\xf6\xbd[\xe7?'
p81
tp82
Rp83
ag50
(g54
S'l\xf5\xeaqb\xbe\xdb?'
p84
tp85
Rp86
ag50
(g54
S'\x94\xe2X:/n\xe7?'
p87
tp88
Rp89
ag50
(g54
S't&\xa4\r\x0f\xfa\xea?'
p90
tp91
Rp92
ag50
(g54
S'\xc9B?\x1du\xc9\xce?'
p93
tp94
Rp95
ag50
(g54
S'\x1c%\xa0\xf6\xbd[\xe7?'
p96
tp97
Rp98
ag50
(g54
S'\xf0E\x8e\x1cc\xb7\xe5?'
p99
tp100
Rp101
ag50
(g54
S'\xd8\x1f\n\xcbp\xf4\xe6?'
p102
tp103
Rp104
ag50
(g54
S'z\xe7.\r\xe6\xcd\xe0?'
p105
tp106
Rp107
ag50
(g54
S'\x1c%\xa0\xf6\xbd[\xe7?'
p108
tp109
Rp110
ag50
(g54
S'\x1c%\xa0\xf6\xbd[\xe7?'
p111
tp112
Rp113
ag50
(g54
S'l\xf5\xeaqb\xbe\xdb?'
p114
tp115
Rp116
ag50
(g54
S'\xc9B?\x1du\xc9\xce?'
p117
tp118
Rp119
ag50
(g54
S"\x8c\x14'<\xdf5\xc7?"
p120
tp121
Rp122
asS'sp'
p123
(lp124
(S'p0'
p125
I0
g22
tp126
ag126
a(g125
I0
S'x'
p127
tp128
a(S'p1'
p129
I0
g127
tp130
ag130
a(g129
I0
g127
tp131
ag131
a(g129
I0
S'y'
p132
tp133
ag133
a(S'p2'
p134
I0
g132
tp135
a(g134
I0
g132
tp136
ag136
a(g134
I0
S't'
p137
tp138
ag138
a(g134
I0
g127
tp139
ag139
a(g134
I0
g137
tp140
ag140
ag140
a(g134
F1.5707963267948966
g137
tp141
a(g134
F1.5707963267948966
g127
tp142
a(S'p3'
p143
F1.5707963267948966
g127
tp144
asS's'
p145
(lp146
g126
ag126
ag126
ag128
ag130
ag130
ag131
ag131
ag133
ag133
ag135
ag136
ag136
ag138
ag138
ag139
ag139
ag140
ag140
ag140
ag141
ag142
asS'ui'
p147
(lp148
S'hs'
p149
ag149
aS'hp'
p150
aS'ss'
p151
ag150
ag151
ag149
ag150
ag123
ag123
ag151
ag151
ag150
ag123
ag150
ag149
ag149
ag151
ag151
ag149
ag150
ag151
asS'um_before'
p152
(lp153
g149
ag123
ag150
ag151
ag123
ag151
ag149
ag150
ag151
ag123
ag151
ag123
ag150
ag151
ag150
ag123
ag149
ag151
ag151
ag123
ag150
ag151
asS'um_after'
p154
(lp155
NaNag150
ag151
aNag151
aNag150
aNag123
ag151
aNag150
aNag150
aNag149
aNaNag123
ag150
ag151
asS'is_normalized_entropy_less_than_threshold'
p156
(lp157
g50
(g51
(S'b1'
p158
I0
I1
tp159
Rp160
(I3
S'|'
p161
NNNI-1
I-1
I0
tp162
bS'\x01'
p163
tp164
Rp165
ag165
ag165
ag165
ag165
ag165
ag165
ag165
ag165
ag165
ag165
ag165
ag165
ag165
ag165
ag165
ag165
ag165
ag165
ag165
ag165
ag165
asaa(lp166
S'index'
p167
aI38791
aatp168
Rp169
.