ccollections
OrderedDict
p0
((lp1
(lp2
S'combination_dict'
p3
ag0
((lp4
(lp5
S'r_to_g_config'
p6
aS'tl'
p7
aa(lp8
S'num_turns'
p9
aI3
aa(lp10
S'start_direction'
p11
acutils_ms
StartDirection
p12
(I1
tp13
Rp14
aa(lp15
S'assistance_type'
p16
acutils_ms
AssistanceType
p17
(I1
tp18
Rp19
aa(lp20
S'start_mode'
p21
aS'x'
p22
aa(lp23
S'ui_given_a_noise'
p24
aF0.3
aa(lp25
S'um_given_ui_noise'
p26
aF0.5
aa(lp27
S'entropy_threshold'
p28
aF0.7
aatp29
Rp30
aa(lp31
S'data'
p32
accollections
defaultdict
p33
(c__builtin__
list
p34
tp35
Rp36
S'a'
p37
(lp38
S'mode_r'
p39
aS'mode_l'
p40
ag40
ag40
ag40
aS'move_p'
p41
ag39
ag39
ag41
ag39
aS'move_n'
p42
ag39
ag39
ag39
ag40
ag40
ag41
ag40
ag40
ag42
asS'assistance_match_with_ground_truth'
p43
(lp44
I00
aI00
aI00
aI00
aI01
aI01
aI00
aI01
aI01
aI01
aI01
aI00
aI00
aI00
aI00
aI01
aI01
aI00
aI01
aI01
asS'is_u_intended_equals_um'
p45
(lp46
I01
aI00
aI00
aI01
aI01
aI01
aI00
aI01
aI00
aI01
aI00
aI00
aI00
aI01
aI01
aI01
aI00
aI00
aI01
aI00
asS'total_steps'
p47
I20
sS'normalized_h_of_p_ui_given_um'
p48
(lp49
cnumpy.core.multiarray
scalar
p50
(cnumpy
dtype
p51
(S'f8'
p52
I0
I1
tp53
Rp54
(I3
S'<'
p55
NNNI-1
I-1
I0
tp56
bS'\xe1\xeb\x11B7;\xed?'
p57
tp58
Rp59
ag50
(g54
S'\xd4\x03\xe5)\x04\xe7\xe6?'
p60
tp61
Rp62
ag50
(g54
S'\xd4\x03\xe5)\x04\xe7\xe6?'
p63
tp64
Rp65
ag50
(g54
S'\xa0 T\xd8<\x88\xed?'
p66
tp67
Rp68
ag50
(g54
S'\xd1\xae\xc9\xb8\x7f\x1b\xdd?'
p69
tp70
Rp71
ag50
(g54
S'hb\xa9\xce\x0c\xe0\xce?'
p72
tp73
Rp74
ag50
(g54
S'\xba\xf1\xd7Q\x1a\xbc\xe6?'
p75
tp76
Rp77
ag50
(g54
S"?\xc6\xc5C)'\xe1?"
p78
tp79
Rp80
ag50
(g54
S'\x9a\xc8^\xb5\x83\x85\xdb?'
p81
tp82
Rp83
ag50
(g54
S"?\xc6\xc5C)'\xe1?"
p84
tp85
Rp86
ag50
(g54
S'\x8b^gc&\xb3\xe2?'
p87
tp88
Rp89
ag50
(g54
S'0\xa2,\xcf\x9a\xcc\xe9?'
p90
tp91
Rp92
ag50
(g54
S'\xba\xf1\xd7Q\x1a\xbc\xe6?'
p93
tp94
Rp95
ag50
(g54
S'\xe1\xeb\x11B7;\xed?'
p96
tp97
Rp98
ag50
(g54
S'\xa0 T\xd8<\x88\xed?'
p99
tp100
Rp101
ag50
(g54
S'\xd1\xae\xc9\xb8\x7f\x1b\xdd?'
p102
tp103
Rp104
ag50
(g54
S"\xea\x01'z\xc8\xa3\xe4?"
p105
tp106
Rp107
ag50
(g54
S'\xd4\x03\xe5)\x04\xe7\xe6?'
p108
tp109
Rp110
ag50
(g54
S'\xd1\xae\xc9\xb8\x7f\x1b\xdd?'
p111
tp112
Rp113
ag50
(g54
S'>\x14\xa0%3U\xe3?'
p114
tp115
Rp116
asS'sp'
p117
(lp118
(S'p0'
p119
I0
S't'
p120
tp121
a(g119
I0
g120
tp122
ag122
a(g119
I0
g120
tp123
a(g119
I0
S'y'
p124
tp125
a(S'p1'
p126
I0
g124
tp127
a(g126
I0
g124
tp128
a(g126
I0
g120
tp129
a(g126
F1.5707963267948966
g120
tp130
a(g126
F1.5707963267948966
S'x'
p131
tp132
a(S'p2'
p133
F1.5707963267948966
g131
tp134
a(g133
F1.5707963267948966
g131
tp135
a(g133
F1.5707963267948966
g131
tp136
a(g133
F1.5707963267948966
g120
tp137
a(g133
F1.5707963267948966
g120
tp138
a(g133
F1.5707963267948966
g124
tp139
a(S'p3'
p140
F1.5707963267948966
g124
tp141
a(g140
F1.5707963267948966
g124
tp142
a(g140
F1.5707963267948966
g131
tp143
a(S'p4'
p144
F1.5707963267948966
g131
tp145
asS's'
p146
(lp147
(g119
I0
g22
tp148
ag121
ag122
ag122
ag123
ag125
ag127
ag128
ag129
ag130
ag132
ag134
ag135
ag136
ag137
ag138
ag139
ag141
ag142
ag143
asS'ui'
p149
(lp150
S'hs'
p151
ag151
ag151
ag117
ag151
ag117
aS'hp'
p152
ag152
ag117
ag152
ag117
aS'ss'
p153
ag152
ag152
ag117
ag151
ag152
ag151
ag151
ag153
asS'um_before'
p154
(lp155
g151
ag153
ag153
ag117
ag151
ag117
ag117
ag152
ag151
ag152
ag117
ag153
ag117
ag151
ag117
ag151
ag152
ag153
ag151
ag151
asS'um_after'
p156
(lp157
g151
ag153
ag153
ag117
ag151
ag117
ag117
ag152
ag117
ag152
ag153
ag153
ag117
ag151
ag117
ag151
ag117
ag153
ag151
ag153
asS'is_normalized_entropy_less_than_threshold'
p158
(lp159
g50
(g51
(S'b1'
p160
I0
I1
tp161
Rp162
(I3
S'|'
p163
NNNI-1
I-1
I0
tp164
bS'\x00'
p165
tp166
Rp167
ag167
ag167
ag167
ag50
(g162
S'\x01'
p168
tp169
Rp170
ag170
ag167
ag170
ag170
ag170
ag170
ag167
ag167
ag167
ag167
ag170
ag170
ag167
ag170
ag170
asaa(lp171
S'index'
p172
aI54723
aatp173
Rp174
.