ccollections
OrderedDict
p0
((lp1
(lp2
S'combination_dict'
p3
ag0
((lp4
(lp5
S'r_to_g_config'
p6
aS'tr'
p7
aa(lp8
S'num_turns'
p9
aI2
aa(lp10
S'start_direction'
p11
acutils_ms
StartDirection
p12
(I1
tp13
Rp14
aa(lp15
S'assistance_type'
p16
acutils_ms
AssistanceType
p17
(I0
tp18
Rp19
aa(lp20
S'start_mode'
p21
aS'x'
p22
aa(lp23
S'ui_given_a_noise'
p24
aF0.7
aa(lp25
S'um_given_ui_noise'
p26
aF0.7
aa(lp27
S'entropy_threshold'
p28
aF0.9
aatp29
Rp30
aa(lp31
S'data'
p32
accollections
defaultdict
p33
(c__builtin__
list
p34
tp35
Rp36
S'a'
p37
(lp38
S'mode_r'
p39
ag39
ag39
ag39
aS'move_p'
p40
ag40
aS'mode_l'
p41
ag40
ag39
ag40
ag39
ag39
ag40
ag40
ag39
ag40
ag40
ag41
ag40
ag39
ag40
ag40
ag41
ag41
ag41
ag40
ag40
ag39
ag39
ag39
ag39
ag39
ag41
ag41
ag40
ag41
ag40
asS'assistance_match_with_ground_truth'
p42
(lp43
I00
aI00
aI00
aI01
aI00
aI00
aI01
aI01
aI01
aI01
aI00
aI00
aI00
aI01
aI01
aI00
aI00
aI01
aI00
aI01
aI00
aI01
aI00
aI00
aI01
aI00
aI01
aI00
aI00
aI00
aI00
aI00
aI00
aI01
aI00
aI01
aI01
asS'is_u_intended_equals_um'
p44
(lp45
I01
aI01
aI01
aI01
aI01
aI00
aI01
aI01
aI01
aI01
aI01
aI01
aI01
aI01
aI01
aI00
aI00
aI01
aI01
aI01
aI01
aI01
aI01
aI01
aI01
aI00
aI01
aI01
aI01
aI01
aI01
aI01
aI00
aI01
aI00
aI01
aI01
asS'total_steps'
p46
I37
sS'normalized_h_of_p_ui_given_um'
p47
(lp48
cnumpy.core.multiarray
scalar
p49
(cnumpy
dtype
p50
(S'f8'
p51
I0
I1
tp52
Rp53
(I3
S'<'
p54
NNNI-1
I-1
I0
tp55
bS'\x15\x80\xa9\x95\xcaM\xea?'
p56
tp57
Rp58
ag49
(g53
S'\x15\x80\xa9\x95\xcaM\xea?'
p59
tp60
Rp61
ag49
(g53
S'\xfa\xba\xc2s\xc6%\xee?'
p62
tp63
Rp64
ag49
(g53
S'\x04D\xe6Yo\xdb\xe8?'
p65
tp66
Rp67
ag49
(g53
S'\xc0\xa2hk\x0cM\xe7?'
p68
tp69
Rp70
ag49
(g53
S'\x85fM\x99He\xed?'
p71
tp72
Rp73
ag49
(g53
S'rb,\xa1\xd7|\xe0?'
p74
tp75
Rp76
ag49
(g53
S'\xec\xbe\x85yq\\\xe0?'
p77
tp78
Rp79
ag49
(g53
S'\x04D\xe6Yo\xdb\xe8?'
p80
tp81
Rp82
ag49
(g53
S'\xec\xbe\x85yq\\\xe0?'
p83
tp84
Rp85
ag49
(g53
S'\xfa\xba\xc2s\xc6%\xee?'
p86
tp87
Rp88
ag49
(g53
S'\x15\x80\xa9\x95\xcaM\xea?'
p89
tp90
Rp91
ag49
(g53
S'\xc0\xa2hk\x0cM\xe7?'
p92
tp93
Rp94
ag49
(g53
S'\xec\xbe\x85yq\\\xe0?'
p95
tp96
Rp97
ag49
(g53
S'\x04D\xe6Yo\xdb\xe8?'
p98
tp99
Rp100
ag49
(g53
S'\x1a 3\x9d\x89\xa9\xe9?'
p101
tp102
Rp103
ag49
(g53
S'\x85fM\x99He\xed?'
p104
tp105
Rp106
ag49
(g53
S'rb,\xa1\xd7|\xe0?'
p107
tp108
Rp109
ag49
(g53
S'\xc0\xa2hk\x0cM\xe7?'
p110
tp111
Rp112
ag49
(g53
S'\x04D\xe6Yo\xdb\xe8?'
p113
tp114
Rp115
ag49
(g53
S'\xc0\xa2hk\x0cM\xe7?'
p116
tp117
Rp118
ag49
(g53
S'\xec\xbe\x85yq\\\xe0?'
p119
tp120
Rp121
ag49
(g53
S'\xb2\xcdur\xdd\xbe\xe4?'
p122
tp123
Rp124
ag49
(g53
S'\xb2\xcdur\xdd\xbe\xe4?'
p125
tp126
Rp127
ag49
(g53
S'rb,\xa1\xd7|\xe0?'
p128
tp129
Rp130
ag49
(g53
S'\x1a 3\x9d\x89\xa9\xe9?'
p131
tp132
Rp133
ag49
(g53
S'\xec\xbe\x85yq\\\xe0?'
p134
tp135
Rp136
ag49
(g53
S'\x15\x80\xa9\x95\xcaM\xea?'
p137
tp138
Rp139
ag49
(g53
S'\x15\x80\xa9\x95\xcaM\xea?'
p140
tp141
Rp142
ag49
(g53
S'\x15\x80\xa9\x95\xcaM\xea?'
p143
tp144
Rp145
ag49
(g53
S'\xfa\xba\xc2s\xc6%\xee?'
p146
tp147
Rp148
ag49
(g53
S'@\xb5\xbaM\xc8,\xeb?'
p149
tp150
Rp151
ag49
(g53
S'=1\xa7\xed\xeaF\xea?'
p152
tp153
Rp154
ag49
(g53
S'rb,\xa1\xd7|\xe0?'
p155
tp156
Rp157
ag49
(g53
S'\x85fM\x99He\xed?'
p158
tp159
Rp160
ag49
(g53
S'rb,\xa1\xd7|\xe0?'
p161
tp162
Rp163
ag49
(g53
S'\xec\xbe\x85yq\\\xe0?'
p164
tp165
Rp166
asS'sp'
p167
(lp168
(S'p0'
p169
I0
S'x'
p170
tp171
ag171
a(g169
I0
g170
tp172
a(g169
I0
S'y'
p173
tp174
a(g169
I0
g173
tp175
a(g169
I0
S't'
p176
tp177
a(g169
I0
g173
tp178
a(S'p1'
p179
I0
g173
tp180
a(g179
I0
g176
tp181
a(g179
F1.5707963267948966
g176
tp182
a(g179
F1.5707963267948966
g176
tp183
a(g179
I0
g176
tp184
a(g179
I0
g176
tp185
ag182
a(g179
F1.5707963267948966
g170
tp186
ag186
a(g179
F1.5707963267948966
g173
tp187
a(g179
F1.5707963267948966
g170
tp188
a(g169
F1.5707963267948966
g170
tp189
a(g169
F1.5707963267948966
g173
tp190
a(g169
F1.5707963267948966
g173
tp191
a(g179
F1.5707963267948966
g173
tp192
a(g179
F1.5707963267948966
g173
tp193
ag193
ag188
ag188
a(S'p2'
p194
F1.5707963267948966
g170
tp195
a(g194
F1.5707963267948966
g170
tp196
ag196
ag196
a(g194
F1.5707963267948966
g170
tp197
a(g194
F1.5707963267948966
g176
tp198
ag198
a(g194
F1.5707963267948966
g173
tp199
a(g194
F1.5707963267948966
g176
tp200
ag199
a(S'p3'
p201
F1.5707963267948966
g173
tp202
asS's'
p203
(lp204
(g169
I0
g22
tp205
ag171
ag171
ag172
ag174
ag175
ag177
ag178
ag180
ag181
ag182
ag183
ag184
ag185
ag182
ag186
ag186
ag187
ag188
ag189
ag190
ag191
ag192
ag193
ag193
ag188
ag188
ag195
ag196
ag196
ag196
ag197
ag198
ag198
ag199
ag200
ag199
asS'ui'
p206
(lp207
S'ss'
p208
ag167
aS'hp'
p209
ag209
ag208
aS'hs'
p210
ag210
ag208
ag167
ag167
ag208
ag208
ag208
ag167
ag208
ag167
ag167
ag210
ag208
ag208
ag208
ag167
ag210
ag167
ag210
ag208
ag208
ag208
ag208
ag208
ag209
ag210
ag209
ag210
ag167
ag167
ag208
asS'um_before'
p211
(lp212
g208
ag208
ag167
ag209
ag208
ag209
ag210
ag167
ag209
ag167
ag167
ag208
ag208
ag167
ag209
ag210
ag209
ag210
ag208
ag209
ag208
ag167
ag167
ag167
ag210
ag210
ag167
ag208
ag208
ag208
ag167
ag210
ag209
ag210
ag209
ag210
ag167
asS'um_after'
p213
(lp214
g208
ag208
ag167
ag209
ag208
ag209
ag210
ag167
ag209
ag167
ag167
ag208
ag208
ag167
ag209
aNag209
ag210
ag208
ag209
ag208
ag167
ag167
ag167
ag210
aNag167
ag208
ag208
ag208
ag167
ag210
aNag210
ag209
ag210
ag167
asS'is_normalized_entropy_less_than_threshold'
p215
(lp216
g49
(g50
(S'b1'
p217
I0
I1
tp218
Rp219
(I3
S'|'
p220
NNNI-1
I-1
I0
tp221
bS'\x01'
p222
tp223
Rp224
ag224
ag49
(g219
S'\x00'
p225
tp226
Rp227
ag224
ag224
ag227
ag224
ag224
ag224
ag224
ag227
ag224
ag224
ag224
ag224
ag224
ag227
ag224
ag224
ag224
ag224
ag224
ag224
ag224
ag224
ag224
ag224
ag224
ag224
ag224
ag227
ag224
ag224
ag224
ag227
ag224
ag224
asaa(lp228
S'index'
p229
aI15199
aatp230
Rp231
.