ccollections
OrderedDict
p0
((lp1
(lp2
S'combination_dict'
p3
ag0
((lp4
(lp5
S'r_to_g_config'
p6
aS'tr'
p7
aa(lp8
S'num_turns'
p9
aI1
aa(lp10
S'start_direction'
p11
acutils_ms
StartDirection
p12
(I1
tp13
Rp14
aa(lp15
S'assistance_type'
p16
acutils_ms
AssistanceType
p17
(I1
tp18
Rp19
aa(lp20
S'start_mode'
p21
aS'x'
p22
aa(lp23
S'ui_given_a_noise'
p24
aF0.3
aa(lp25
S'um_given_ui_noise'
p26
aF0.7
aa(lp27
S'entropy_threshold'
p28
aF0.5
aatp29
Rp30
aa(lp31
S'data'
p32
accollections
defaultdict
p33
(c__builtin__
list
p34
tp35
Rp36
S'a'
p37
(lp38
S'mode_r'
p39
ag39
ag39
ag39
aS'move_p'
p40
aS'mode_l'
p41
ag41
ag39
ag41
ag41
ag41
ag40
ag41
ag40
ag40
ag40
ag39
ag40
ag39
ag41
ag40
ag39
ag40
ag39
ag41
ag40
ag39
ag40
ag40
ag39
ag40
asS'assistance_match_with_ground_truth'
p42
(lp43
I00
aI00
aI00
aI01
aI00
aI00
aI00
aI00
aI00
aI00
aI01
aI00
aI01
aI00
aI00
aI00
aI01
aI00
aI00
aI01
aI00
aI01
aI01
aI00
aI01
aI01
aI00
aI00
aI01
aI01
aI01
asS'is_u_intended_equals_um'
p44
(lp45
I00
aI00
aI00
aI01
aI00
aI00
aI00
aI00
aI00
aI00
aI01
aI00
aI01
aI00
aI00
aI00
aI01
aI00
aI00
aI01
aI00
aI01
aI01
aI00
aI01
aI01
aI00
aI00
aI01
aI01
aI01
asS'total_steps'
p46
I31
sS'normalized_h_of_p_ui_given_um'
p47
(lp48
cnumpy.core.multiarray
scalar
p49
(cnumpy
dtype
p50
(S'f8'
p51
I0
I1
tp52
Rp53
(I3
S'<'
p54
NNNI-1
I-1
I0
tp55
bS'\xf7\x96u\xca\xb9/\xe2?'
p56
tp57
Rp58
ag49
(g53
S'\x1e\xdaK\xf4\\s\xe0?'
p59
tp60
Rp61
ag49
(g53
S'\x1e\xdaK\xf4\\s\xe0?'
p62
tp63
Rp64
ag49
(g53
S'\xe3\xda\xdaC\x0e\xd1\xd2?'
p65
tp66
Rp67
ag49
(g53
S'\xe2\xb2t\xb0\x8d{\xe5?'
p68
tp69
Rp70
ag49
(g53
S'\xad\xa8:\xe9>\x86\xe6?'
p71
tp72
Rp73
ag49
(g53
S'*{\xc8\xafL\xba\xe5?'
p74
tp75
Rp76
ag49
(g53
S'\xb4A\xab4gN\xe9?'
p77
tp78
Rp79
ag49
(g53
S'\xad\xa8:\xe9>\x86\xe6?'
p80
tp81
Rp82
ag49
(g53
S'\xad\xa8:\xe9>\x86\xe6?'
p83
tp84
Rp85
ag49
(g53
S';*\xad\xbccX\xdb?'
p86
tp87
Rp88
ag49
(g53
S'\xe2\xb2t\xb0\x8d{\xe5?'
p89
tp90
Rp91
ag49
(g53
S';*\xad\xbccX\xdb?'
p92
tp93
Rp94
ag49
(g53
S"\xcc\x9c'\xd7\x01\xf1\xeb?"
p95
tp96
Rp97
ag49
(g53
S"\xcc\x9c'\xd7\x01\xf1\xeb?"
p98
tp99
Rp100
ag49
(g53
S'\x9c\x7f\xd9\xcbrE\xe8?'
p101
tp102
Rp103
ag49
(g53
S'\xe3\xda\xdaC\x0e\xd1\xd2?'
p104
tp105
Rp106
ag49
(g53
S'\x9c\x7f\xd9\xcbrE\xe8?'
p107
tp108
Rp109
ag49
(g53
S'\xb4A\xab4gN\xe9?'
p110
tp111
Rp112
ag49
(g53
S';*\xad\xbccX\xdb?'
p113
tp114
Rp115
ag49
(g53
S'\x9c\x7f\xd9\xcbrE\xe8?'
p116
tp117
Rp118
ag49
(g53
S'\xe3\xda\xdaC\x0e\xd1\xd2?'
p119
tp120
Rp121
ag49
(g53
S'Bl\xe5|D\x01\xd9?'
p122
tp123
Rp124
ag49
(g53
S'\xb4A\xab4gN\xe9?'
p125
tp126
Rp127
ag49
(g53
S';*\xad\xbccX\xdb?'
p128
tp129
Rp130
ag49
(g53
S'Bl\xe5|D\x01\xd9?'
p131
tp132
Rp133
ag49
(g53
S'\xf7\x96u\xca\xb9/\xe2?'
p134
tp135
Rp136
ag49
(g53
S"\xcc\x9c'\xd7\x01\xf1\xeb?"
p137
tp138
Rp139
ag49
(g53
S'Bl\xe5|D\x01\xd9?'
p140
tp141
Rp142
ag49
(g53
S'\xe3\xda\xdaC\x0e\xd1\xd2?'
p143
tp144
Rp145
ag49
(g53
S'Bl\xe5|D\x01\xd9?'
p146
tp147
Rp148
asS'sp'
p149
(lp150
(S'p0'
p151
I0
S'x'
p152
tp153
a(g151
I0
g152
tp154
ag154
a(g151
I0
S'y'
p155
tp156
a(g151
I0
S't'
p157
tp158
a(g151
I0
g157
tp159
a(g151
I0
g152
tp160
a(g151
I0
g157
tp161
ag159
ag159
a(g151
I0
g155
tp162
ag158
ag162
a(g151
I0
g155
tp163
ag163
a(g151
I0
g152
tp164
ag156
ag164
ag161
ag162
ag164
ag156
a(S'p1'
p165
I0
g155
tp166
a(g165
I0
g152
tp167
a(g165
I0
g157
tp168
a(g165
F1.5707963267948966
g157
tp169
a(g165
I0
g157
tp170
a(g165
I0
g157
tp171
ag169
a(g165
F1.5707963267948966
g152
tp172
a(S'p2'
p173
F1.5707963267948966
g152
tp174
asS's'
p175
(lp176
(g151
I0
g22
tp177
ag153
ag154
ag154
ag156
ag158
ag159
ag160
ag161
ag159
ag159
ag162
ag158
ag162
ag163
ag163
ag164
ag156
ag164
ag161
ag162
ag164
ag156
ag166
ag167
ag168
ag169
ag170
ag171
ag169
ag172
asS'ui'
p178
(lp179
S'hp'
p180
ag180
ag180
ag180
ag180
aS'hs'
p181
ag181
ag181
ag181
ag181
ag181
ag149
ag149
ag149
ag149
ag149
ag180
ag149
ag149
ag181
ag181
ag180
ag149
ag181
ag181
ag149
ag180
ag181
ag149
ag180
ag149
asS'um_before'
p182
(lp183
S'ss'
p184
ag149
ag149
ag180
ag180
ag184
ag180
ag181
ag184
ag184
ag181
ag180
ag181
ag184
ag184
ag181
ag180
ag181
ag181
ag181
ag181
ag180
ag149
ag181
ag181
ag149
ag184
ag184
ag149
ag180
ag149
asS'um_after'
p185
(lp186
g184
ag149
ag149
ag180
ag180
ag184
ag180
ag181
ag184
ag184
ag181
ag180
ag181
ag184
ag184
ag181
ag180
ag181
ag181
ag181
ag181
ag180
ag149
ag181
ag181
ag149
ag184
ag184
ag149
ag180
ag149
asS'is_normalized_entropy_less_than_threshold'
p187
(lp188
g49
(g50
(S'b1'
p189
I0
I1
tp190
Rp191
(I3
S'|'
p192
NNNI-1
I-1
I0
tp193
bS'\x00'
p194
tp195
Rp196
ag196
ag196
ag49
(g191
S'\x01'
p197
tp198
Rp199
ag196
ag196
ag196
ag196
ag196
ag196
ag199
ag196
ag199
ag196
ag196
ag196
ag199
ag196
ag196
ag199
ag196
ag199
ag199
ag196
ag199
ag199
ag196
ag196
ag199
ag199
ag199
asaa(lp200
S'index'
p201
aI6754
aatp202
Rp203
.