ccollections
OrderedDict
p0
((lp1
(lp2
S'combination_dict'
p3
ag0
((lp4
(lp5
S'r_to_g_config'
p6
aS'tl'
p7
aa(lp8
S'num_turns'
p9
aI1
aa(lp10
S'start_direction'
p11
acutils_ms
StartDirection
p12
(I1
tp13
Rp14
aa(lp15
S'assistance_type'
p16
acutils_ms
AssistanceType
p17
(I0
tp18
Rp19
aa(lp20
S'start_mode'
p21
aS't'
p22
aa(lp23
S'ui_given_a_noise'
p24
aF0.7
aa(lp25
S'um_given_ui_noise'
p26
aF0.1
aa(lp27
S'entropy_threshold'
p28
aF0.5
aatp29
Rp30
aa(lp31
S'data'
p32
accollections
defaultdict
p33
(c__builtin__
list
p34
tp35
Rp36
S'a'
p37
(lp38
S'mode_l'
p39
ag39
aS'move_p'
p40
ag39
aS'mode_r'
p41
ag40
ag41
ag40
ag41
ag39
ag41
ag41
ag41
ag39
ag39
ag40
ag41
ag41
ag39
ag40
ag41
aS'move_n'
p42
asS'assistance_match_with_ground_truth'
p43
(lp44
I00
aI01
aI00
aI00
aI01
aI01
aI01
aI00
aI00
aI00
aI00
aI00
aI00
aI00
aI01
aI01
aI00
aI00
aI01
aI01
aI01
aI01
asS'is_u_intended_equals_um'
p45
(lp46
I01
aI01
aI01
aI01
aI01
aI01
aI01
aI01
aI01
aI01
aI01
aI01
aI01
aI01
aI01
aI01
aI01
aI01
aI01
aI01
aI01
aI01
asS'total_steps'
p47
I22
sS'normalized_h_of_p_ui_given_um'
p48
(lp49
cnumpy.core.multiarray
scalar
p50
(cnumpy
dtype
p51
(S'f8'
p52
I0
I1
tp53
Rp54
(I3
S'<'
p55
NNNI-1
I-1
I0
tp56
bS'"b\xe3\x0e3\xfb\xde?'
p57
tp58
Rp59
ag50
(g54
S'"?\xbf\xf5\x01\xcf\xd1?'
p60
tp61
Rp62
ag50
(g54
S'6\xe5\x19"6\x92\xd2?'
p63
tp64
Rp65
ag50
(g54
S'\x10i\x16^K\xf9\xd3?'
p66
tp67
Rp68
ag50
(g54
S'j\xa2\x0f\xd2\xb7Z\xc4?'
p69
tp70
Rp71
ag50
(g54
S'x\xf7qWu\n\xac?'
p72
tp73
Rp74
ag50
(g54
S'j\xa2\x0f\xd2\xb7Z\xc4?'
p75
tp76
Rp77
ag50
(g54
S'\x195o\x89l\xae\xe4?'
p78
tp79
Rp80
ag50
(g54
S'\xbe\xde\xf2\xd7\xf1 \xd7?'
p81
tp82
Rp83
ag50
(g54
S'\x9e\r\xf2\r\x1e\xdd\xc8?'
p84
tp85
Rp86
ag50
(g54
S'\xac\x1aB5-\xb5\xca?'
p87
tp88
Rp89
ag50
(g54
S'\xd4T\xbb\x95,R\xe5?'
p90
tp91
Rp92
ag50
(g54
S'\xbe\xde\xf2\xd7\xf1 \xd7?'
p93
tp94
Rp95
ag50
(g54
S'"b\xe3\x0e3\xfb\xde?'
p96
tp97
Rp98
ag50
(g54
S'"?\xbf\xf5\x01\xcf\xd1?'
p99
tp100
Rp101
ag50
(g54
S'x\xf7qWu\n\xac?'
p102
tp103
Rp104
ag50
(g54
S'\xd4T\xbb\x95,R\xe5?'
p105
tp106
Rp107
ag50
(g54
S'\xbe\xde\xf2\xd7\xf1 \xd7?'
p108
tp109
Rp110
ag50
(g54
S'"?\xbf\xf5\x01\xcf\xd1?'
p111
tp112
Rp113
ag50
(g54
S'x\xf7qWu\n\xac?'
p114
tp115
Rp116
ag50
(g54
S'j\xa2\x0f\xd2\xb7Z\xc4?'
p117
tp118
Rp119
ag50
(g54
S'\xa4\xdf\x87\xd6\x16\x13\xb3?'
p120
tp121
Rp122
asS'sp'
p123
(lp124
(S'p0'
p125
I0
S't'
p126
tp127
a(g125
I0
S'y'
p128
tp129
a(g125
I0
g126
tp130
a(g125
I0
S'x'
p131
tp132
a(g125
I0
g128
tp133
a(S'p1'
p134
I0
g128
tp135
a(g134
I0
g126
tp136
a(g134
I0
g128
tp137
a(g134
I0
g131
tp138
a(g125
I0
g131
tp139
a(g125
I0
g131
tp140
a(g125
I0
g131
tp141
a(g125
I0
g126
tp142
ag127
ag129
ag135
a(g134
I0
g128
tp143
ag138
a(g134
I0
g126
tp144
a(g134
F1.5707963267948966
g126
tp145
a(g134
F1.5707963267948966
g131
tp146
a(S'p2'
p147
F1.5707963267948966
g131
tp148
asS's'
p149
(lp150
(g125
I0
g22
tp151
ag127
ag129
ag130
ag132
ag133
ag135
ag136
ag137
ag138
ag139
ag140
ag141
ag142
ag127
ag129
ag135
ag143
ag138
ag144
ag145
ag146
asS'ui'
p152
(lp153
S'ss'
p154
aS'hs'
p155
aS'hp'
p156
ag156
ag156
ag123
ag156
ag123
ag155
ag123
ag123
ag154
ag155
ag154
ag155
ag123
ag156
ag155
ag155
ag123
ag156
ag154
asS'um_before'
p157
(lp158
g154
ag155
ag156
ag156
ag156
ag123
ag156
ag155
ag155
ag123
ag123
ag154
ag155
ag154
ag155
ag123
ag154
ag155
ag155
ag123
ag156
ag154
asS'um_after'
p159
(lp160
g154
ag155
ag156
ag156
ag156
ag123
ag156
ag155
ag155
ag123
ag123
ag154
ag155
ag154
ag155
ag123
ag154
ag155
ag155
ag123
ag156
ag154
asS'is_normalized_entropy_less_than_threshold'
p161
(lp162
g50
(g51
(S'b1'
p163
I0
I1
tp164
Rp165
(I3
S'|'
p166
NNNI-1
I-1
I0
tp167
bS'\x01'
p168
tp169
Rp170
ag170
ag170
ag170
ag170
ag170
ag170
ag50
(g165
S'\x00'
p171
tp172
Rp173
ag170
ag170
ag170
ag173
ag170
ag170
ag170
ag170
ag173
ag170
ag170
ag170
ag170
ag170
asaa(lp174
S'index'
p175
aI35008
aatp176
Rp177
.