ccollections
OrderedDict
p0
((lp1
(lp2
S'combination_dict'
p3
ag0
((lp4
(lp5
S'r_to_g_config'
p6
aS'bl'
p7
aa(lp8
S'num_turns'
p9
aI1
aa(lp10
S'start_direction'
p11
acutils_ms
StartDirection
p12
(I1
tp13
Rp14
aa(lp15
S'assistance_type'
p16
acutils_ms
AssistanceType
p17
(I1
tp18
Rp19
aa(lp20
S'start_mode'
p21
aS't'
p22
aa(lp23
S'ui_given_a_noise'
p24
aF0.1
aa(lp25
S'um_given_ui_noise'
p26
aF0.3
aa(lp27
S'entropy_threshold'
p28
aF0.5
aatp29
Rp30
aa(lp31
S'data'
p32
accollections
defaultdict
p33
(c__builtin__
list
p34
tp35
Rp36
S'a'
p37
(lp38
S'mode_l'
p39
aS'move_n'
p40
aS'mode_r'
p41
ag41
ag39
ag41
ag39
ag40
ag39
ag40
ag41
ag41
ag41
aS'move_p'
p42
ag41
ag41
ag40
asS'assistance_match_with_ground_truth'
p43
(lp44
I01
aI01
aI00
aI00
aI00
aI00
aI01
aI00
aI01
aI01
aI00
aI00
aI01
aI01
aI00
aI01
aI01
asS'is_u_intended_equals_um'
p45
(lp46
I01
aI01
aI00
aI00
aI00
aI00
aI01
aI00
aI01
aI00
aI00
aI00
aI01
aI01
aI00
aI01
aI01
asS'total_steps'
p47
I17
sS'normalized_h_of_p_ui_given_um'
p48
(lp49
cnumpy.core.multiarray
scalar
p50
(cnumpy
dtype
p51
(S'f8'
p52
I0
I1
tp53
Rp54
(I3
S'<'
p55
NNNI-1
I-1
I0
tp56
bS'\x8d\x18\x87\x99\xb6P\xbc?'
p57
tp58
Rp59
ag50
(g54
S'\xac)\x96\xae^}\xb2?'
p60
tp61
Rp62
ag50
(g54
S'\xb2h6\x10\xa0\x9b\xe3?'
p63
tp64
Rp65
ag50
(g54
S'\xde8-\x04\x99\x8b\xe7?'
p66
tp67
Rp68
ag50
(g54
S'\x98\xa4\xe3O=\xb3\xe4?'
p69
tp70
Rp71
ag50
(g54
S'\xde8-\x04\x99\x8b\xe7?'
p72
tp73
Rp74
ag50
(g54
S'\x8d\x18\x87\x99\xb6P\xbc?'
p75
tp76
Rp77
ag50
(g54
S'r\x829\x11\xd4B\xe8?'
p78
tp79
Rp80
ag50
(g54
S'\x8d\x18\x87\x99\xb6P\xbc?'
p81
tp82
Rp83
ag50
(g54
S'\x08\x94\x89\x91vj\xdb?'
p84
tp85
Rp86
ag50
(g54
S'q\xa5V\xf8\x92\xae\xe4?'
p87
tp88
Rp89
ag50
(g54
S'\xb2h6\x10\xa0\x9b\xe3?'
p90
tp91
Rp92
ag50
(g54
S'\xb2\x80\xe7>\xdc\xbf\xb8?'
p93
tp94
Rp95
ag50
(g54
S'\xc8\xda\xd6B!\x0c\xc0?'
p96
tp97
Rp98
ag50
(g54
S'q\xa5V\xf8\x92\xae\xe4?'
p99
tp100
Rp101
ag50
(g54
S'\xb2\x80\xe7>\xdc\xbf\xb8?'
p102
tp103
Rp104
ag50
(g54
S'\xac)\x96\xae^}\xb2?'
p105
tp106
Rp107
asS'sp'
p108
(lp109
(S'p0'
p110
I0
S'y'
p111
tp112
a(S'p1'
p113
I0
g111
tp114
a(g113
I0
g111
tp115
a(g113
I0
S'x'
p116
tp117
a(g110
I0
g116
tp118
a(g110
I0
S't'
p119
tp120
ag112
a(g110
I0
g119
tp121
ag112
ag114
a(g113
I0
g111
tp122
ag115
a(g113
I0
g119
tp123
a(g113
F1.5707963267948966
g119
tp124
a(g113
F1.5707963267948966
g119
tp125
a(g113
F1.5707963267948966
g116
tp126
a(S'p2'
p127
F1.5707963267948966
g116
tp128
asS's'
p129
(lp130
(g110
I0
g22
tp131
ag112
ag114
ag115
ag117
ag118
ag120
ag112
ag121
ag112
ag114
ag122
ag115
ag123
ag124
ag125
ag126
asS'ui'
p132
(lp133
S'hs'
p134
aS'ss'
p135
ag135
ag134
ag134
ag134
ag134
ag135
ag134
ag135
aS'hp'
p136
ag136
ag136
ag108
ag135
ag108
ag135
asS'um_before'
p137
(lp138
g134
ag135
ag135
ag134
ag108
ag134
ag134
ag136
ag134
ag108
ag108
ag135
ag136
ag108
ag108
ag136
ag135
asS'um_after'
p139
(lp140
g134
ag135
ag135
ag134
ag108
ag134
ag134
ag136
ag134
ag135
ag108
ag135
ag136
ag108
ag108
ag136
ag135
asS'is_normalized_entropy_less_than_threshold'
p141
(lp142
g50
(g51
(S'b1'
p143
I0
I1
tp144
Rp145
(I3
S'|'
p146
NNNI-1
I-1
I0
tp147
bS'\x01'
p148
tp149
Rp150
ag150
ag50
(g145
S'\x00'
p151
tp152
Rp153
ag153
ag153
ag153
ag150
ag153
ag150
ag150
ag153
ag153
ag150
ag150
ag153
ag150
ag150
asaa(lp154
S'index'
p155
aI64850
aatp156
Rp157
.