ccollections
OrderedDict
p0
((lp1
(lp2
S'combination_dict'
p3
ag0
((lp4
(lp5
S'r_to_g_config'
p6
aS'tr'
p7
aa(lp8
S'num_turns'
p9
aI1
aa(lp10
S'start_direction'
p11
acutils_ms
StartDirection
p12
(I1
tp13
Rp14
aa(lp15
S'assistance_type'
p16
acutils_ms
AssistanceType
p17
(I1
tp18
Rp19
aa(lp20
S'start_mode'
p21
aS'x'
p22
aa(lp23
S'ui_given_a_noise'
p24
aF0.5
aa(lp25
S'um_given_ui_noise'
p26
aF0.5
aa(lp27
S'entropy_threshold'
p28
aF0.7
aatp29
Rp30
aa(lp31
S'data'
p32
accollections
defaultdict
p33
(c__builtin__
list
p34
tp35
Rp36
S'a'
p37
(lp38
S'mode_r'
p39
ag39
ag39
ag39
aS'move_p'
p40
aS'mode_l'
p41
ag41
ag41
ag40
ag41
ag40
ag41
ag41
ag40
ag40
ag41
ag40
ag41
ag39
ag40
ag39
ag40
ag39
ag40
ag40
ag40
ag41
ag39
ag40
ag39
ag41
ag39
ag39
ag40
ag39
ag41
ag40
ag39
ag41
ag41
ag41
ag41
ag41
ag41
ag40
ag39
ag40
ag41
ag40
asS'assistance_match_with_ground_truth'
p42
(lp43
I00
aI00
aI00
aI01
aI00
aI00
aI00
aI01
aI00
aI01
aI00
aI00
aI01
aI00
aI00
aI01
aI00
aI00
aI01
aI00
aI01
aI01
aI01
aI00
aI00
aI00
aI00
aI01
aI00
aI00
aI00
aI00
aI01
aI00
aI00
aI01
aI01
aI00
aI00
aI00
aI00
aI00
aI00
aI01
aI00
aI01
aI00
aI01
aI01
asS'is_u_intended_equals_um'
p44
(lp45
I01
aI01
aI01
aI01
aI01
aI01
aI01
aI01
aI01
aI01
aI01
aI01
aI01
aI01
aI01
aI01
aI01
aI01
aI01
aI00
aI01
aI01
aI01
aI01
aI01
aI01
aI01
aI01
aI00
aI00
aI01
aI00
aI01
aI00
aI00
aI01
aI01
aI00
aI01
aI01
aI01
aI01
aI01
aI01
aI00
aI01
aI01
aI01
aI01
asS'total_steps'
p46
I49
sS'normalized_h_of_p_ui_given_um'
p47
(lp48
cnumpy.core.multiarray
scalar
p49
(cnumpy
dtype
p50
(S'f8'
p51
I0
I1
tp52
Rp53
(I3
S'<'
p54
NNNI-1
I-1
I0
tp55
bS'\xe7\x8cS\xeah\xbb\xec?'
p56
tp57
Rp58
ag49
(g53
S'\xe7\x8cS\xeah\xbb\xec?'
p59
tp60
Rp61
ag49
(g53
S'\xe7\x8cS\xeah\xbb\xec?'
p62
tp63
Rp64
ag49
(g53
S'\x93\x1e.m\xb2j\xe2?'
p65
tp66
Rp67
ag49
(g53
S'C\x15\xa7\x97\xde\xbd\xea?'
p68
tp69
Rp70
ag49
(g53
S'\x9bZ.\xb0\xb0\xec\xee?'
p71
tp72
Rp73
ag49
(g53
S'\x9bZ.\xb0\xb0\xec\xee?'
p74
tp75
Rp76
ag49
(g53
S'sc.\xb1\x89\xb6\xe3?'
p77
tp78
Rp79
ag49
(g53
S'C\x15\xa7\x97\xde\xbd\xea?'
p80
tp81
Rp82
ag49
(g53
S'sc.\xb1\x89\xb6\xe3?'
p83
tp84
Rp85
ag49
(g53
S'C\x15\xa7\x97\xde\xbd\xea?'
p86
tp87
Rp88
ag49
(g53
S'\x9bZ.\xb0\xb0\xec\xee?'
p89
tp90
Rp91
ag49
(g53
S'sc.\xb1\x89\xb6\xe3?'
p92
tp93
Rp94
ag49
(g53
S'\xd45p\x18\xb3D\xee?'
p95
tp96
Rp97
ag49
(g53
S'C\x15\xa7\x97\xde\xbd\xea?'
p98
tp99
Rp100
ag49
(g53
S'sc.\xb1\x89\xb6\xe3?'
p101
tp102
Rp103
ag49
(g53
S'C\x15\xa7\x97\xde\xbd\xea?'
p104
tp105
Rp106
ag49
(g53
S'\x9b\x97\xc6\x06o\xe6\xea?'
p107
tp108
Rp109
ag49
(g53
S'\x93\x1e.m\xb2j\xe2?'
p110
tp111
Rp112
ag49
(g53
S'\xb3\xa2rE\xfe\xad\xe9?'
p113
tp114
Rp115
ag49
(g53
S'\x93\x1e.m\xb2j\xe2?'
p116
tp117
Rp118
ag49
(g53
S'\x7fU,e\n\xda\xe4?'
p119
tp120
Rp121
ag49
(g53
S'\x93\x1e.m\xb2j\xe2?'
p122
tp123
Rp124
ag49
(g53
S'\xd45p\x18\xb3D\xee?'
p125
tp126
Rp127
ag49
(g53
S'\xd45p\x18\xb3D\xee?'
p128
tp129
Rp130
ag49
(g53
S'C\x15\xa7\x97\xde\xbd\xea?'
p131
tp132
Rp133
ag49
(g53
S'\x9b\x97\xc6\x06o\xe6\xea?'
p134
tp135
Rp136
ag49
(g53
S'\x93\x1e.m\xb2j\xe2?'
p137
tp138
Rp139
ag49
(g53
S'\xb3\xa2rE\xfe\xad\xe9?'
p140
tp141
Rp142
ag49
(g53
S'\t\xc8z\xa0Q\xa5\xe9?'
p143
tp144
Rp145
ag49
(g53
S'\x9b\x97\xc6\x06o\xe6\xea?'
p146
tp147
Rp148
ag49
(g53
S'\x082\x1a\xdbu\xd0\xe9?'
p149
tp150
Rp151
ag49
(g53
S'\x93\x1e.m\xb2j\xe2?'
p152
tp153
Rp154
ag49
(g53
S'\xb3\xa2rE\xfe\xad\xe9?'
p155
tp156
Rp157
ag49
(g53
S'\t\xc8z\xa0Q\xa5\xe9?'
p158
tp159
Rp160
ag49
(g53
S'sc.\xb1\x89\xb6\xe3?'
p161
tp162
Rp163
ag49
(g53
S'\x7fU,e\n\xda\xe4?'
p164
tp165
Rp166
ag49
(g53
S'\t\xc8z\xa0Q\xa5\xe9?'
p167
tp168
Rp169
ag49
(g53
S'\x95\x93f\xca\x9e\xb5\xeb?'
p170
tp171
Rp172
ag49
(g53
S'\x95\x93f\xca\x9e\xb5\xeb?'
p173
tp174
Rp175
ag49
(g53
S'\x9bZ.\xb0\xb0\xec\xee?'
p176
tp177
Rp178
ag49
(g53
S'\x95\x93f\xca\x9e\xb5\xeb?'
p179
tp180
Rp181
ag49
(g53
S'\x95\x93f\xca\x9e\xb5\xeb?'
p182
tp183
Rp184
ag49
(g53
S'sc.\xb1\x89\xb6\xe3?'
p185
tp186
Rp187
ag49
(g53
S'\xb3\xa2rE\xfe\xad\xe9?'
p188
tp189
Rp190
ag49
(g53
S'\x93\x1e.m\xb2j\xe2?'
p191
tp192
Rp193
ag49
(g53
S'C\x15\xa7\x97\xde\xbd\xea?'
p194
tp195
Rp196
ag49
(g53
S'sc.\xb1\x89\xb6\xe3?'
p197
tp198
Rp199
ag49
(g53
S'\x7fU,e\n\xda\xe4?'
p200
tp201
Rp202
asS'sp'
p203
(lp204
(S'p0'
p205
I0
S'x'
p206
tp207
ag207
ag207
a(g205
I0
S'y'
p208
tp209
a(g205
I0
S't'
p210
tp211
a(g205
I0
g210
tp212
ag212
a(g205
I0
g208
tp213
ag211
ag213
ag211
ag212
ag213
a(g205
I0
g208
tp214
ag211
ag213
ag211
a(g205
I0
g206
tp215
ag209
a(g205
I0
g206
tp216
ag209
a(S'p1'
p217
I0
g208
tp218
a(g217
I0
g210
tp219
a(g217
I0
g210
tp220
ag220
a(g217
I0
g206
tp221
a(g217
I0
g208
tp222
ag219
a(g217
I0
g208
tp223
a(g217
I0
g206
tp224
ag222
a(g217
I0
g208
tp225
ag219
ag223
ag224
a(g217
I0
g210
tp226
a(g217
F1.5707963267948966
g210
tp227
a(g217
F1.5707963267948966
g208
tp228
a(g217
F1.5707963267948966
g208
tp229
ag229
a(g217
F1.5707963267948966
g208
tp230
ag229
ag229
a(g217
F1.5707963267948966
g206
tp231
a(g217
F1.5707963267948966
g210
tp232
a(g217
F1.5707963267948966
g206
tp233
a(g217
F1.5707963267948966
g208
tp234
ag231
a(S'p2'
p235
F1.5707963267948966
g206
tp236
asS's'
p237
(lp238
(g205
I0
g22
tp239
ag207
ag207
ag207
ag209
ag211
ag212
ag212
ag213
ag211
ag213
ag211
ag212
ag213
ag214
ag211
ag213
ag211
ag215
ag209
ag216
ag209
ag218
ag219
ag220
ag220
ag221
ag222
ag219
ag223
ag224
ag222
ag225
ag219
ag223
ag224
ag226
ag227
ag228
ag229
ag229
ag230
ag229
ag229
ag231
ag232
ag233
ag234
ag231
asS'ui'
p240
(lp241
g203
aS'hp'
p242
aS'hs'
p243
ag242
ag242
ag243
aS'ss'
p244
ag243
ag242
ag243
ag242
ag244
ag242
ag203
ag203
ag243
ag242
ag203
ag203
ag203
ag242
ag242
ag242
ag242
ag243
ag242
ag243
ag242
ag243
ag242
ag242
ag244
ag203
ag243
ag242
ag243
ag203
ag243
ag242
ag203
ag244
ag203
ag203
ag243
ag243
ag242
ag243
ag243
ag242
asS'um_before'
p245
(lp246
g203
ag203
ag203
ag242
ag242
ag244
ag244
ag243
ag242
ag243
ag242
ag244
ag243
ag244
ag242
ag243
ag242
ag242
ag242
ag243
ag242
ag203
ag242
ag244
ag244
ag242
ag242
ag242
ag243
ag243
ag242
ag244
ag242
ag243
ag243
ag243
ag203
ag243
ag203
ag203
ag244
ag203
ag203
ag243
ag243
ag242
ag242
ag243
ag203
asS'um_after'
p247
(lp248
g203
ag203
ag203
ag242
ag242
ag244
ag244
ag243
ag242
ag243
ag242
ag244
ag243
ag244
ag242
ag243
ag242
ag242
ag242
ag243
ag242
ag203
ag242
ag244
ag244
ag242
ag242
ag242
ag243
ag243
ag242
ag244
ag242
ag243
ag243
ag243
ag203
ag243
ag203
ag203
ag244
ag203
ag203
ag243
ag243
ag242
ag242
ag243
ag203
asS'is_normalized_entropy_less_than_threshold'
p249
(lp250
g49
(g50
(S'b1'
p251
I0
I1
tp252
Rp253
(I3
S'|'
p254
NNNI-1
I-1
I0
tp255
bS'\x00'
p256
tp257
Rp258
ag258
ag258
ag49
(g253
S'\x01'
p259
tp260
Rp261
ag258
ag258
ag258
ag261
ag258
ag261
ag258
ag258
ag261
ag258
ag258
ag261
ag258
ag258
ag261
ag258
ag261
ag261
ag261
ag258
ag258
ag258
ag258
ag261
ag258
ag258
ag258
ag258
ag261
ag258
ag258
ag261
ag261
ag258
ag258
ag258
ag258
ag258
ag258
ag261
ag258
ag261
ag258
ag261
ag261
asaa(lp262
S'index'
p263
aI6922
aatp264
Rp265
.