ccollections
OrderedDict
p0
((lp1
(lp2
S'combination_dict'
p3
ag0
((lp4
(lp5
S'r_to_g_config'
p6
aS'br'
p7
aa(lp8
S'num_turns'
p9
aI3
aa(lp10
S'start_direction'
p11
acutils_ms
StartDirection
p12
(I0
tp13
Rp14
aa(lp15
S'assistance_type'
p16
acutils_ms
AssistanceType
p17
(I1
tp18
Rp19
aa(lp20
S'start_mode'
p21
aS'y'
p22
aa(lp23
S'ui_given_a_noise'
p24
aF0.7
aa(lp25
S'um_given_ui_noise'
p26
aF0.1
aa(lp27
S'entropy_threshold'
p28
aF0.7
aatp29
Rp30
aa(lp31
S'data'
p32
accollections
defaultdict
p33
(c__builtin__
list
p34
tp35
Rp36
S'a'
p37
(lp38
S'mode_l'
p39
aS'move_p'
p40
aS'mode_r'
p41
aS'move_n'
p42
ag39
ag39
ag40
ag39
ag40
ag40
ag39
ag39
ag39
ag39
ag39
ag40
ag41
ag39
ag42
ag39
ag40
ag41
ag42
ag39
ag42
ag39
ag39
ag40
ag41
ag42
ag41
ag41
ag41
ag42
ag39
ag39
ag40
ag39
ag40
ag39
ag42
asS'assistance_match_with_ground_truth'
p43
(lp44
I01
aI01
aI01
aI00
aI00
aI01
aI00
aI01
aI00
aI00
aI00
aI00
aI00
aI00
aI01
aI01
aI00
aI01
aI01
aI01
aI00
aI01
aI00
aI01
aI01
aI00
aI01
aI00
aI01
aI00
aI00
aI00
aI01
aI01
aI00
aI01
aI01
aI01
aI01
aI01
aI01
asS'is_u_intended_equals_um'
p45
(lp46
I01
aI01
aI01
aI01
aI01
aI01
aI00
aI01
aI01
aI00
aI01
aI01
aI01
aI01
aI01
aI01
aI01
aI01
aI01
aI01
aI01
aI01
aI01
aI01
aI01
aI01
aI01
aI01
aI01
aI01
aI01
aI01
aI01
aI01
aI01
aI01
aI01
aI01
aI01
aI01
aI01
asS'total_steps'
p47
I41
sS'normalized_h_of_p_ui_given_um'
p48
(lp49
cnumpy.core.multiarray
scalar
p50
(cnumpy
dtype
p51
(S'f8'
p52
I0
I1
tp53
Rp54
(I3
S'<'
p55
NNNI-1
I-1
I0
tp56
bS'b\xe2*\x18\xa7q\xc1?'
p57
tp58
Rp59
ag50
(g54
S'\xc6#\xe3!\xab;\xb3?'
p60
tp61
Rp62
ag50
(g54
S't#R\xec\xd5_\xb6?'
p63
tp64
Rp65
ag50
(g54
S"\x94\x15='x\xd0\xd6?"
p66
tp67
Rp68
ag50
(g54
S'\xd2\xe8\x9d\x98\xde\xbe\xce?'
p69
tp70
Rp71
ag50
(g54
S'b\xe2*\x18\xa7q\xc1?'
p72
tp73
Rp74
ag50
(g54
S'fr\xe7\x83\xdd-\xea?'
p75
tp76
Rp77
ag50
(g54
S'b\xe2*\x18\xa7q\xc1?'
p78
tp79
Rp80
ag50
(g54
S'\x8f\xeb\x18\xf0\x04\xb7\xe3?'
p81
tp82
Rp83
ag50
(g54
S'fr\xe7\x83\xdd-\xea?'
p84
tp85
Rp86
ag50
(g54
S'\xd2\xe8\x9d\x98\xde\xbe\xce?'
p87
tp88
Rp89
ag50
(g54
S'\x17g90\xfd\t\xe2?'
p90
tp91
Rp92
ag50
(g54
S'\x17g90\xfd\t\xe2?'
p93
tp94
Rp95
ag50
(g54
S'\xd2\xe8\x9d\x98\xde\xbe\xce?'
p96
tp97
Rp98
ag50
(g54
S'b\xe2*\x18\xa7q\xc1?'
p99
tp100
Rp101
ag50
(g54
S'\xc6#\xe3!\xab;\xb3?'
p102
tp103
Rp104
ag50
(g54
S'EF\x14\xbeyY\xe1?'
p105
tp106
Rp107
ag50
(g54
S'b\xe2*\x18\xa7q\xc1?'
p108
tp109
Rp110
ag50
(g54
S'.9\xdf.\x05\xa7\xc9?'
p111
tp112
Rp113
ag50
(g54
S'b\xe2*\x18\xa7q\xc1?'
p114
tp115
Rp116
ag50
(g54
S'\x8f\xeb\x18\xf0\x04\xb7\xe3?'
p117
tp118
Rp119
ag50
(g54
S't#R\xec\xd5_\xb6?'
p120
tp121
Rp122
ag50
(g54
S'hXl\x9c\x16\xf1\xde?'
p123
tp124
Rp125
ag50
(g54
S'b\xe2*\x18\xa7q\xc1?'
p126
tp127
Rp128
ag50
(g54
S'.9\xdf.\x05\xa7\xc9?'
p129
tp130
Rp131
ag50
(g54
S'\xd2\xe8\x9d\x98\xde\xbe\xce?'
p132
tp133
Rp134
ag50
(g54
S'b\xe2*\x18\xa7q\xc1?'
p135
tp136
Rp137
ag50
(g54
S'\x8f\xeb\x18\xf0\x04\xb7\xe3?'
p138
tp139
Rp140
ag50
(g54
S't#R\xec\xd5_\xb6?'
p141
tp142
Rp143
ag50
(g54
S'\xbc;\xe4\x0f\xc7\xa6\xd5?'
p144
tp145
Rp146
ag50
(g54
S'\xa5_v\xa6\x84\xe8\xe9?'
p147
tp148
Rp149
ag50
(g54
S'\xa5_v\xa6\x84\xe8\xe9?'
p150
tp151
Rp152
ag50
(g54
S't#R\xec\xd5_\xb6?'
p153
tp154
Rp155
ag50
(g54
S'.9\xdf.\x05\xa7\xc9?'
p156
tp157
Rp158
ag50
(g54
S'\xd2\xe8\x9d\x98\xde\xbe\xce?'
p159
tp160
Rp161
ag50
(g54
S'b\xe2*\x18\xa7q\xc1?'
p162
tp163
Rp164
ag50
(g54
S'\xc6#\xe3!\xab;\xb3?'
p165
tp166
Rp167
ag50
(g54
S'b\xe2*\x18\xa7q\xc1?'
p168
tp169
Rp170
ag50
(g54
S'\xc6#\xe3!\xab;\xb3?'
p171
tp172
Rp173
ag50
(g54
S'b\xe2*\x18\xa7q\xc1?'
p174
tp175
Rp176
ag50
(g54
S'.9\xdf.\x05\xa7\xc9?'
p177
tp178
Rp179
asS'sp'
p180
(lp181
(S'p0'
p182
I0
S'x'
p183
tp184
a(S'p1'
p185
I0
g183
tp186
a(g185
I0
S'y'
p187
tp188
a(g182
I0
g187
tp189
a(g182
I0
g187
tp190
ag184
a(g182
I0
g187
tp191
ag184
a(g182
I0
g183
tp192
ag191
ag190
a(g182
I0
g187
tp193
ag193
ag190
ag184
ag186
a(g185
I0
S't'
p194
tp195
a(g185
I0
g187
tp196
a(S'p2'
p197
I0
g187
tp198
a(g197
I0
g183
tp199
a(g185
I0
g183
tp200
ag188
a(g185
I0
g194
tp201
ag196
ag198
a(g197
I0
g187
tp202
ag199
ag200
ag188
a(g185
I0
g183
tp203
a(g185
I0
g183
tp204
ag204
ag188
ag198
ag202
ag199
a(S'p3'
p205
I0
g183
tp206
a(g205
I0
g194
tp207
a(g205
F1.5707963267948966
g194
tp208
a(g205
F1.5707963267948966
g187
tp209
a(S'p4'
p210
F1.5707963267948966
g187
tp211
asS's'
p212
(lp213
(g182
I0
g22
tp214
ag184
ag186
ag188
ag189
ag190
ag184
ag191
ag184
ag192
ag191
ag190
ag193
ag193
ag190
ag184
ag186
ag195
ag196
ag198
ag199
ag200
ag188
ag201
ag196
ag198
ag202
ag199
ag200
ag188
ag203
ag204
ag204
ag188
ag198
ag202
ag199
ag206
ag207
ag208
ag209
asS'ui'
p215
(lp216
S'hs'
p217
ag180
aS'hp'
p218
ag180
ag180
ag217
ag218
ag217
ag180
ag218
ag180
aS'ss'
p219
ag219
ag180
ag217
ag180
ag217
ag217
ag219
ag217
ag180
ag218
ag219
ag217
ag219
ag180
ag217
ag180
ag218
ag217
ag180
ag219
ag218
ag219
ag180
ag217
ag180
ag217
ag180
ag217
ag219
asS'um_before'
p220
(lp221
g217
ag180
ag218
ag180
ag180
ag217
ag218
ag217
ag219
ag218
ag180
ag219
ag219
ag180
ag217
ag180
ag217
ag217
ag219
ag217
ag219
ag218
ag218
ag217
ag219
ag180
ag217
ag219
ag218
ag217
ag219
ag219
ag218
ag219
ag180
ag217
ag180
ag217
ag180
ag217
ag219
asS'um_after'
p222
(lp223
g217
ag180
ag218
ag180
ag180
ag217
ag218
ag217
ag219
ag218
ag180
ag219
ag219
ag180
ag217
ag180
ag217
ag217
ag219
ag217
ag219
ag218
ag218
ag217
ag219
ag180
ag217
ag219
ag218
ag217
ag219
ag219
ag218
ag219
ag180
ag217
ag180
ag217
ag180
ag217
ag219
asS'is_normalized_entropy_less_than_threshold'
p224
(lp225
g50
(g51
(S'b1'
p226
I0
I1
tp227
Rp228
(I3
S'|'
p229
NNNI-1
I-1
I0
tp230
bS'\x01'
p231
tp232
Rp233
ag233
ag233
ag233
ag233
ag233
ag50
(g228
S'\x00'
p234
tp235
Rp236
ag233
ag233
ag236
ag233
ag233
ag233
ag233
ag233
ag233
ag233
ag233
ag233
ag233
ag233
ag233
ag233
ag233
ag233
ag233
ag233
ag233
ag233
ag233
ag236
ag236
ag233
ag233
ag233
ag233
ag233
ag233
ag233
ag233
ag233
asaa(lp237
S'index'
p238
aI108620
aatp239
Rp240
.