ccollections
OrderedDict
p0
((lp1
(lp2
S'combination_dict'
p3
ag0
((lp4
(lp5
S'r_to_g_config'
p6
aS'tl'
p7
aa(lp8
S'num_turns'
p9
aI3
aa(lp10
S'start_direction'
p11
acutils_ms
StartDirection
p12
(I0
tp13
Rp14
aa(lp15
S'assistance_type'
p16
acutils_ms
AssistanceType
p17
(I1
tp18
Rp19
aa(lp20
S'start_mode'
p21
aS'y'
p22
aa(lp23
S'ui_given_a_noise'
p24
aF0.5
aa(lp25
S'um_given_ui_noise'
p26
aF0.5
aa(lp27
S'entropy_threshold'
p28
aF0.5
aatp29
Rp30
aa(lp31
S'data'
p32
accollections
defaultdict
p33
(c__builtin__
list
p34
tp35
Rp36
S'a'
p37
(lp38
S'mode_l'
p39
ag39
aS'move_n'
p40
ag40
aS'mode_r'
p41
ag39
ag39
ag40
ag39
ag41
ag41
ag41
ag40
ag39
ag39
ag41
aS'move_p'
p42
ag39
ag42
ag39
ag41
ag39
ag42
ag41
ag42
ag39
ag40
ag39
ag39
ag39
ag40
ag39
ag41
ag40
ag41
ag42
ag39
ag40
ag39
ag40
ag39
ag41
ag40
ag41
ag41
ag39
ag41
ag41
ag41
ag39
ag42
ag39
ag41
ag41
ag40
ag41
ag42
ag39
ag41
ag39
ag39
ag40
ag41
ag41
ag39
ag39
ag39
ag41
ag39
ag41
ag39
ag39
ag42
ag39
ag41
ag39
ag42
ag39
ag39
ag41
ag40
ag41
ag41
ag39
ag41
ag40
ag41
ag41
ag39
ag40
ag41
ag41
ag42
ag41
ag42
asS'assistance_match_with_ground_truth'
p43
(lp44
I00
aI01
aI00
aI00
aI00
aI00
aI01
aI00
aI00
aI00
aI00
aI01
aI01
aI00
aI00
aI01
aI00
aI01
aI01
aI00
aI00
aI01
aI00
aI01
aI00
aI01
aI00
aI00
aI00
aI01
aI00
aI00
aI01
aI01
aI01
aI01
aI01
aI00
aI01
aI00
aI00
aI01
aI00
aI00
aI00
aI00
aI00
aI00
aI00
aI01
aI00
aI00
aI00
aI01
aI01
aI01
aI01
aI00
aI00
aI00
aI01
aI01
aI00
aI00
aI00
aI00
aI00
aI00
aI00
aI00
aI00
aI01
aI00
aI00
aI00
aI01
aI00
aI00
aI00
aI01
aI00
aI00
aI00
aI00
aI01
aI00
aI00
aI00
aI01
aI01
aI00
aI01
aI00
aI01
aI01
asS'is_u_intended_equals_um'
p45
(lp46
I00
aI01
aI01
aI01
aI00
aI00
aI01
aI01
aI00
aI01
aI01
aI01
aI01
aI00
aI00
aI01
aI00
aI01
aI01
aI00
aI00
aI01
aI01
aI01
aI01
aI01
aI01
aI01
aI00
aI01
aI01
aI00
aI01
aI01
aI01
aI01
aI01
aI01
aI01
aI01
aI00
aI01
aI01
aI01
aI00
aI00
aI01
aI01
aI00
aI01
aI01
aI00
aI01
aI01
aI01
aI01
aI01
aI00
aI00
aI01
aI01
aI01
aI01
aI00
aI01
aI01
aI00
aI00
aI00
aI00
aI01
aI01
aI00
aI00
aI00
aI01
aI01
aI01
aI00
aI01
aI01
aI01
aI00
aI00
aI01
aI01
aI01
aI00
aI01
aI01
aI01
aI01
aI01
aI01
aI01
asS'total_steps'
p47
I95
sS'normalized_h_of_p_ui_given_um'
p48
(lp49
cnumpy.core.multiarray
scalar
p50
(cnumpy
dtype
p51
(S'f8'
p52
I0
I1
tp53
Rp54
(I3
S'<'
p55
NNNI-1
I-1
I0
tp56
bS'\xd0\xa5\x1b\xb4.\xc2\xea?'
p57
tp58
Rp59
ag50
(g54
S'\xd8\xb1\x94\xab\xcc\xef\xd3?'
p60
tp61
Rp62
ag50
(g54
S'\xcb\x07Q\xdc\x11\x8b\xe4?'
p63
tp64
Rp65
ag50
(g54
S"\x10\xb2|r'\xdb\xeb?"
p66
tp67
Rp68
ag50
(g54
S'\x94@\x01A\xaa\xe8\xe7?'
p69
tp70
Rp71
ag50
(g54
S'\xd0\xa5\x1b\xb4.\xc2\xea?'
p72
tp73
Rp74
ag50
(g54
S'\xd8\xb1\x94\xab\xcc\xef\xd3?'
p75
tp76
Rp77
ag50
(g54
S'\xef\x00\xdb\xeb\xcaL\xec?'
p78
tp79
Rp80
ag50
(g54
S'\xe6\xce\xa9\x08\xd6p\xe8?'
p81
tp82
Rp83
ag50
(g54
S'\xafd$\xd2\xe0\xde\xe2?'
p84
tp85
Rp86
ag50
(g54
S'\xafd$\xd2\xe0\xde\xe2?'
p87
tp88
Rp89
ag50
(g54
S'\xd5\xef\xf2\x0f\xce\xad\xdf?'
p90
tp91
Rp92
ag50
(g54
S'\x9e\xd5\xec@\xa0Q\xda?'
p93
tp94
Rp95
ag50
(g54
S'\xd0\xa5\x1b\xb4.\xc2\xea?'
p96
tp97
Rp98
ag50
(g54
S'\xe6\xce\xa9\x08\xd6p\xe8?'
p99
tp100
Rp101
ag50
(g54
S'\xd5\xef\xf2\x0f\xce\xad\xdf?'
p102
tp103
Rp104
ag50
(g54
S'\xce\xf2\x1c\xcb\x8c\xfb\xe6?'
p105
tp106
Rp107
ag50
(g54
S'\xd8\xb1\x94\xab\xcc\xef\xd3?'
p108
tp109
Rp110
ag50
(g54
S'\xe8\xa1[Z\x8e\xbd\xc8?'
p111
tp112
Rp113
ag50
(g54
S'\xe6\xce\xa9\x08\xd6p\xe8?'
p114
tp115
Rp116
ag50
(g54
S'\x94@\x01A\xaa\xe8\xe7?'
p117
tp118
Rp119
ag50
(g54
S'\xd8\xb1\x94\xab\xcc\xef\xd3?'
p120
tp121
Rp122
ag50
(g54
S'S\xa3.Pb\x95\xe2?'
p123
tp124
Rp125
ag50
(g54
S'\xd5\xef\xf2\x0f\xce\xad\xdf?'
p126
tp127
Rp128
ag50
(g54
S']s\xd7\xb6`\x91\xe6?'
p129
tp130
Rp131
ag50
(g54
S'\xd8\xb1\x94\xab\xcc\xef\xd3?'
p132
tp133
Rp134
ag50
(g54
S'\xef\x00\xdb\xeb\xcaL\xec?'
p135
tp136
Rp137
ag50
(g54
S'\xf9k\xe0n\x98\xa9\xe8?'
p138
tp139
Rp140
ag50
(g54
S'\xd0\xa5\x1b\xb4.\xc2\xea?'
p141
tp142
Rp143
ag50
(g54
S'\xd8\xb1\x94\xab\xcc\xef\xd3?'
p144
tp145
Rp146
ag50
(g54
S'\xef\x00\xdb\xeb\xcaL\xec?'
p147
tp148
Rp149
ag50
(g54
S'\xe6\xce\xa9\x08\xd6p\xe8?'
p150
tp151
Rp152
ag50
(g54
S'\xd5\xef\xf2\x0f\xce\xad\xdf?'
p153
tp154
Rp155
ag50
(g54
S'\x9e\xd5\xec@\xa0Q\xda?'
p156
tp157
Rp158
ag50
(g54
S'\xd5\xef\xf2\x0f\xce\xad\xdf?'
p159
tp160
Rp161
ag50
(g54
S'\xe8\xa1[Z\x8e\xbd\xc8?'
p162
tp163
Rp164
ag50
(g54
S'\xd8\xb1\x94\xab\xcc\xef\xd3?'
p165
tp166
Rp167
ag50
(g54
S'\xef\x00\xdb\xeb\xcaL\xec?'
p168
tp169
Rp170
ag50
(g54
S'\xd8\xb1\x94\xab\xcc\xef\xd3?'
p171
tp172
Rp173
ag50
(g54
S'\xef\x00\xdb\xeb\xcaL\xec?'
p174
tp175
Rp176
ag50
(g54
S'\xe6\xce\xa9\x08\xd6p\xe8?'
p177
tp178
Rp179
ag50
(g54
S'\xd5\xef\xf2\x0f\xce\xad\xdf?'
p180
tp181
Rp182
ag50
(g54
S'\xcb\x07Q\xdc\x11\x8b\xe4?'
p183
tp184
Rp185
ag50
(g54
S'\xafd$\xd2\xe0\xde\xe2?'
p186
tp187
Rp188
ag50
(g54
S'\x94@\x01A\xaa\xe8\xe7?'
p189
tp190
Rp191
ag50
(g54
S'\xe6\xce\xa9\x08\xd6p\xe8?'
p192
tp193
Rp194
ag50
(g54
S'\xafd$\xd2\xe0\xde\xe2?'
p195
tp196
Rp197
ag50
(g54
S'\xafd$\xd2\xe0\xde\xe2?'
p198
tp199
Rp200
ag50
(g54
S'\x94@\x01A\xaa\xe8\xe7?'
p201
tp202
Rp203
ag50
(g54
S'\xd8\xb1\x94\xab\xcc\xef\xd3?'
p204
tp205
Rp206
ag50
(g54
S']s\xd7\xb6`\x91\xe6?'
p207
tp208
Rp209
ag50
(g54
S'\xe6\xce\xa9\x08\xd6p\xe8?'
p210
tp211
Rp212
ag50
(g54
S'\xafd$\xd2\xe0\xde\xe2?'
p213
tp214
Rp215
ag50
(g54
S'\xd5\xef\xf2\x0f\xce\xad\xdf?'
p216
tp217
Rp218
ag50
(g54
S'\x9e\xd5\xec@\xa0Q\xda?'
p219
tp220
Rp221
ag50
(g54
S'\xd5\xef\xf2\x0f\xce\xad\xdf?'
p222
tp223
Rp224
ag50
(g54
S'\xe8\xa1[Z\x8e\xbd\xc8?'
p225
tp226
Rp227
ag50
(g54
S'\xe6\xce\xa9\x08\xd6p\xe8?'
p228
tp229
Rp230
ag50
(g54
S'\x94@\x01A\xaa\xe8\xe7?'
p231
tp232
Rp233
ag50
(g54
S'\xf9k\xe0n\x98\xa9\xe8?'
p234
tp235
Rp236
ag50
(g54
S'\xd8\xb1\x94\xab\xcc\xef\xd3?'
p237
tp238
Rp239
ag50
(g54
S'\x9e\xd5\xec@\xa0Q\xda?'
p240
tp241
Rp242
ag50
(g54
S'\xafd$\xd2\xe0\xde\xe2?'
p243
tp244
Rp245
ag50
(g54
S'\x94@\x01A\xaa\xe8\xe7?'
p246
tp247
Rp248
ag50
(g54
S'\xf9k\xe0n\x98\xa9\xe8?'
p249
tp250
Rp251
ag50
(g54
S'\xf9k\xe0n\x98\xa9\xe8?'
p252
tp253
Rp254
ag50
(g54
S'\xe6\xce\xa9\x08\xd6p\xe8?'
p255
tp256
Rp257
ag50
(g54
S'\x94@\x01A\xaa\xe8\xe7?'
p258
tp259
Rp260
ag50
(g54
S'\xe6\xce\xa9\x08\xd6p\xe8?'
p261
tp262
Rp263
ag50
(g54
S'\x94@\x01A\xaa\xe8\xe7?'
p264
tp265
Rp266
ag50
(g54
S'\xf9k\xe0n\x98\xa9\xe8?'
p267
tp268
Rp269
ag50
(g54
S'\xd8\xb1\x94\xab\xcc\xef\xd3?'
p270
tp271
Rp272
ag50
(g54
S'\xce\xf2\x1c\xcb\x8c\xfb\xe6?'
p273
tp274
Rp275
ag50
(g54
S'\xe6\xce\xa9\x08\xd6p\xe8?'
p276
tp277
Rp278
ag50
(g54
S'\x94@\x01A\xaa\xe8\xe7?'
p279
tp280
Rp281
ag50
(g54
S'\xd8\xb1\x94\xab\xcc\xef\xd3?'
p282
tp283
Rp284
ag50
(g54
S']s\xd7\xb6`\x91\xe6?'
p285
tp286
Rp287
ag50
(g54
S'\xf9k\xe0n\x98\xa9\xe8?'
p288
tp289
Rp290
ag50
(g54
S'\xe6\xce\xa9\x08\xd6p\xe8?'
p291
tp292
Rp293
ag50
(g54
S'\xd5\xef\xf2\x0f\xce\xad\xdf?'
p294
tp295
Rp296
ag50
(g54
S"\x10\xb2|r'\xdb\xeb?"
p297
tp298
Rp299
ag50
(g54
S'\xafd$\xd2\xe0\xde\xe2?'
p300
tp301
Rp302
ag50
(g54
S'\x94@\x01A\xaa\xe8\xe7?'
p303
tp304
Rp305
ag50
(g54
S'\xe6\xce\xa9\x08\xd6p\xe8?'
p306
tp307
Rp308
ag50
(g54
S'\xd5\xef\xf2\x0f\xce\xad\xdf?'
p309
tp310
Rp311
ag50
(g54
S"\x10\xb2|r'\xdb\xeb?"
p312
tp313
Rp314
ag50
(g54
S'\xafd$\xd2\xe0\xde\xe2?'
p315
tp316
Rp317
ag50
(g54
S'\x94@\x01A\xaa\xe8\xe7?'
p318
tp319
Rp320
ag50
(g54
S'\xd8\xb1\x94\xab\xcc\xef\xd3?'
p321
tp322
Rp323
ag50
(g54
S'\x9e\xd5\xec@\xa0Q\xda?'
p324
tp325
Rp326
ag50
(g54
S'\xafd$\xd2\xe0\xde\xe2?'
p327
tp328
Rp329
ag50
(g54
S'\xd5\xef\xf2\x0f\xce\xad\xdf?'
p330
tp331
Rp332
ag50
(g54
S'S\xa3.Pb\x95\xe2?'
p333
tp334
Rp335
ag50
(g54
S'\xd5\xef\xf2\x0f\xce\xad\xdf?'
p336
tp337
Rp338
ag50
(g54
S'\xe8\xa1[Z\x8e\xbd\xc8?'
p339
tp340
Rp341
asS'sp'
p342
(lp343
(S'p0'
p344
I0
S'y'
p345
tp346
a(g344
I0
S'x'
p347
tp348
a(g344
I0
g347
tp349
a(g344
I0
S't'
p350
tp351
a(g344
I0
g345
tp352
ag346
ag348
a(g344
I0
g345
tp353
a(g344
I0
g350
tp354
a(g344
I0
g350
tp355
ag355
a(g344
I0
g347
tp356
a(S'p1'
p357
I0
g347
tp358
a(g357
I0
g347
tp359
a(g357
I0
g345
tp360
a(g357
I0
g350
tp361
a(g357
I0
g347
tp362
a(g357
I0
g350
tp363
a(g357
F1.5707963267948966
g350
tp364
a(g357
F1.5707963267948966
g347
tp365
a(g357
F1.5707963267948966
g350
tp366
a(g357
F1.5707963267948966
g345
tp367
a(g357
F1.5707963267948966
g347
tp368
a(g357
F1.5707963267948966
g345
tp369
a(g344
F1.5707963267948966
g345
tp370
a(g344
F1.5707963267948966
g347
tp371
a(g344
F1.5707963267948966
g345
tp372
a(g344
F1.5707963267948966
g345
tp373
a(g344
F1.5707963267948966
g345
tp374
ag371
ag372
a(g344
F1.5707963267948966
g350
tp375
a(g344
F1.5707963267948966
g347
tp376
a(g357
F1.5707963267948966
g347
tp377
ag369
a(S'p2'
p378
F1.5707963267948966
g345
tp379
a(g378
F1.5707963267948966
g347
tp380
a(g378
F1.5707963267948966
g345
tp381
ag380
ag381
a(g378
F1.5707963267948966
g350
tp382
a(g378
F1.5707963267948966
g347
tp383
a(g357
F1.5707963267948966
g347
tp384
a(g357
F1.5707963267948966
g347
tp385
ag366
ag365
ag385
ag385
ag366
ag367
ag370
ag375
a(g344
F1.5707963267948966
g350
tp386
ag376
ag377
ag369
ag379
ag382
a(g378
F1.5707963267948966
g345
tp387
a(g378
F1.5707963267948966
g345
tp388
ag380
a(S'p3'
p389
F1.5707963267948966
g347
tp390
a(g389
F1.5707963267948966
g347
tp391
a(g389
F1.5707963267948966
g350
tp392
a(g389
F1.5707963267948966
g350
tp393
ag393
a(g389
F1.5707963267948966
g347
tp394
ag392
ag394
ag392
ag393
a(g389
F1.5707963267948966
g345
tp395
a(g389
F1.5707963267948966
g350
tp396
ag394
ag392
ag395
a(g378
F1.5707963267948966
g345
tp397
ag388
ag382
ag383
a(g378
F1.5707963267948966
g350
tp398
a(g378
F1.5707963267948966
g350
tp399
ag387
ag382
ag383
ag398
ag399
ag387
ag380
ag390
ag391
a(g389
F1.5707963267948966
g345
tp400
a(g389
F1.5707963267948966
g347
tp401
ag400
a(S'p4'
p402
F1.5707963267948966
g345
tp403
asS's'
p404
(lp405
(g344
I0
g22
tp406
ag346
ag348
ag349
ag351
ag352
ag346
ag348
ag353
ag354
ag355
ag355
ag356
ag358
ag359
ag360
ag361
ag362
ag363
ag364
ag365
ag366
ag367
ag368
ag369
ag370
ag371
ag372
ag373
ag374
ag371
ag372
ag375
ag376
ag377
ag369
ag379
ag380
ag381
ag380
ag381
ag382
ag383
ag384
ag385
ag366
ag365
ag385
ag385
ag366
ag367
ag370
ag375
ag386
ag376
ag377
ag369
ag379
ag382
ag387
ag388
ag380
ag390
ag391
ag392
ag393
ag393
ag394
ag392
ag394
ag392
ag393
ag395
ag396
ag394
ag392
ag395
ag397
ag388
ag382
ag383
ag398
ag399
ag387
ag382
ag383
ag398
ag399
ag387
ag380
ag390
ag391
ag400
ag401
ag400
asS'ui'
p407
(lp408
g342
aS'hs'
p409
ag342
ag409
ag409
ag342
aS'hp'
p410
ag342
ag409
ag342
ag342
ag410
aS'ss'
p411
ag342
ag409
ag342
ag409
ag409
ag342
ag410
ag410
ag409
ag409
ag342
ag411
ag409
ag410
ag410
ag410
ag409
ag410
ag409
ag410
ag411
ag410
ag342
ag409
ag409
ag409
ag410
ag411
ag410
ag410
ag409
ag410
ag410
ag409
ag342
ag342
ag409
ag342
ag410
ag410
ag410
ag411
ag410
ag342
ag409
ag410
ag409
ag409
ag411
ag342
ag410
ag411
ag409
ag410
ag410
ag409
ag410
ag409
ag409
ag342
ag411
ag410
ag409
ag411
ag411
ag342
ag410
ag410
ag410
ag342
ag409
ag410
ag411
ag410
ag409
ag409
ag411
ag409
ag410
ag409
ag410
ag342
asS'um_before'
p412
(lp413
g342
ag409
ag342
ag409
ag409
ag342
ag409
ag410
ag410
ag342
ag342
ag410
ag411
ag342
ag410
ag410
ag410
ag409
ag342
ag410
ag409
ag409
ag409
ag410
ag411
ag409
ag410
ag411
ag342
ag409
ag410
ag410
ag410
ag411
ag410
ag342
ag409
ag410
ag409
ag410
ag410
ag410
ag342
ag342
ag409
ag410
ag342
ag342
ag409
ag409
ag411
ag410
ag342
ag410
ag411
ag410
ag342
ag410
ag409
ag411
ag409
ag411
ag342
ag409
ag411
ag411
ag410
ag409
ag410
ag409
ag411
ag409
ag410
ag410
ag409
ag409
ag411
ag411
ag410
ag410
ag409
ag342
ag409
ag410
ag410
ag409
ag342
ag409
ag409
ag411
ag342
ag410
ag409
ag410
ag342
asS'um_after'
p414
(lp415
g342
ag409
ag342
ag409
ag409
ag342
ag409
ag410
ag410
ag342
ag342
ag410
ag411
ag342
ag410
ag410
ag410
ag409
ag342
ag410
ag409
ag409
ag409
ag410
ag411
ag409
ag410
ag411
ag342
ag409
ag410
ag410
ag410
ag411
ag410
ag342
ag409
ag410
ag409
ag410
ag410
ag410
ag342
ag342
ag409
ag410
ag342
ag342
ag409
ag409
ag411
ag410
ag342
ag410
ag411
ag410
ag342
ag410
ag409
ag411
ag409
ag411
ag342
ag409
ag411
ag411
ag410
ag409
ag410
ag409
ag411
ag409
ag410
ag410
ag409
ag409
ag411
ag411
ag410
ag410
ag409
ag342
ag409
ag410
ag410
ag409
ag342
ag409
ag409
ag411
ag342
ag410
ag409
ag410
ag342
asS'is_normalized_entropy_less_than_threshold'
p416
(lp417
g50
(g51
(S'b1'
p418
I0
I1
tp419
Rp420
(I3
S'|'
p421
NNNI-1
I-1
I0
tp422
bS'\x00'
p423
tp424
Rp425
ag50
(g420
S'\x01'
p426
tp427
Rp428
ag425
ag425
ag425
ag425
ag428
ag425
ag425
ag425
ag425
ag428
ag428
ag425
ag425
ag428
ag425
ag428
ag428
ag425
ag425
ag428
ag425
ag428
ag425
ag428
ag425
ag425
ag425
ag428
ag425
ag425
ag428
ag428
ag428
ag428
ag428
ag425
ag428
ag425
ag425
ag428
ag425
ag425
ag425
ag425
ag425
ag425
ag425
ag428
ag425
ag425
ag425
ag428
ag428
ag428
ag428
ag425
ag425
ag425
ag428
ag428
ag425
ag425
ag425
ag425
ag425
ag425
ag425
ag425
ag425
ag428
ag425
ag425
ag425
ag428
ag425
ag425
ag425
ag428
ag425
ag425
ag425
ag425
ag428
ag425
ag425
ag425
ag428
ag428
ag425
ag428
ag425
ag428
ag428
asaa(lp429
S'index'
p430
aI50903
aatp431
Rp432
.