ccollections
OrderedDict
p0
((lp1
(lp2
S'combination_dict'
p3
ag0
((lp4
(lp5
S'r_to_g_config'
p6
aS'tr'
p7
aa(lp8
S'num_turns'
p9
aI3
aa(lp10
S'start_direction'
p11
acutils_ms
StartDirection
p12
(I1
tp13
Rp14
aa(lp15
S'assistance_type'
p16
acutils_ms
AssistanceType
p17
(I0
tp18
Rp19
aa(lp20
S'start_mode'
p21
aS't'
p22
aa(lp23
S'ui_given_a_noise'
p24
aF0.7
aa(lp25
S'um_given_ui_noise'
p26
aF0.1
aa(lp27
S'entropy_threshold'
p28
aF0.8
aatp29
Rp30
aa(lp31
S'data'
p32
accollections
defaultdict
p33
(c__builtin__
list
p34
tp35
Rp36
S'a'
p37
(lp38
S'mode_l'
p39
aS'mode_r'
p40
ag40
ag40
ag39
ag39
ag39
aS'move_p'
p41
ag39
ag40
ag40
ag41
ag40
ag41
ag40
ag39
ag41
ag40
ag40
ag40
ag40
ag41
ag39
ag40
ag40
ag41
ag40
ag40
ag39
ag41
ag40
ag41
ag39
ag40
ag40
ag40
ag40
ag39
ag41
ag40
ag40
ag40
ag39
ag39
ag40
ag40
ag40
ag39
ag40
ag41
ag39
ag41
ag39
ag40
ag41
ag39
ag39
ag40
ag41
ag40
ag39
ag39
ag41
ag41
ag39
ag39
ag41
ag39
ag39
ag41
ag40
ag40
ag39
ag39
ag39
ag39
ag39
ag39
ag39
ag39
ag39
ag41
ag39
ag40
ag41
ag39
ag39
ag40
ag41
ag40
ag41
ag40
ag41
asS'assistance_match_with_ground_truth'
p42
(lp43
I00
aI00
aI00
aI00
aI00
aI00
aI01
aI01
aI00
aI00
aI01
aI01
aI01
aI00
aI00
aI01
aI01
aI00
aI00
aI00
aI01
aI00
aI00
aI00
aI01
aI01
aI00
aI00
aI01
aI00
aI01
aI00
aI00
aI00
aI00
aI00
aI00
aI01
aI01
aI00
aI00
aI00
aI00
aI00
aI00
aI00
aI00
aI00
aI01
aI00
aI01
aI00
aI00
aI01
aI00
aI00
aI00
aI01
aI00
aI00
aI00
aI01
aI00
aI01
aI00
aI01
aI00
aI00
aI01
aI01
aI00
aI00
aI00
aI00
aI00
aI00
aI00
aI00
aI00
aI00
aI01
aI00
aI00
aI01
aI01
aI00
aI00
aI01
aI00
aI01
aI00
aI01
aI01
asS'is_u_intended_equals_um'
p44
(lp45
I01
aI01
aI01
aI01
aI01
aI01
aI01
aI01
aI01
aI01
aI01
aI01
aI01
aI01
aI01
aI01
aI01
aI01
aI01
aI01
aI01
aI01
aI01
aI01
aI01
aI01
aI01
aI01
aI01
aI01
aI01
aI01
aI01
aI01
aI01
aI01
aI01
aI01
aI01
aI01
aI01
aI01
aI01
aI01
aI01
aI01
aI01
aI01
aI01
aI01
aI01
aI01
aI01
aI01
aI01
aI01
aI01
aI01
aI01
aI01
aI01
aI01
aI01
aI01
aI01
aI01
aI01
aI01
aI01
aI01
aI01
aI01
aI01
aI01
aI01
aI01
aI01
aI01
aI01
aI01
aI01
aI01
aI01
aI01
aI01
aI01
aI01
aI01
aI01
aI01
aI01
aI01
aI01
asS'total_steps'
p46
I93
sS'normalized_h_of_p_ui_given_um'
p47
(lp48
cnumpy.core.multiarray
scalar
p49
(cnumpy
dtype
p50
(S'f8'
p51
I0
I1
tp52
Rp53
(I3
S'<'
p54
NNNI-1
I-1
I0
tp55
bS'\xcf\xb8\xd6\xc1\xb9;\xdb?'
p56
tp57
Rp58
ag49
(g53
S'KKav\x1a\x88\xe5?'
p59
tp60
Rp61
ag49
(g53
S'KKav\x1a\x88\xe5?'
p62
tp63
Rp64
ag49
(g53
S'\x1e\x84N\x10\xcaO\xd2?'
p65
tp66
Rp67
ag49
(g53
S'x\xfdA\xe2\xd2\xa2\xe5?'
p68
tp69
Rp70
ag49
(g53
S'\x0e|o\x16\r+\xd9?'
p71
tp72
Rp73
ag49
(g53
S'h\xa8$\xa4!\xcb\xc9?'
p74
tp75
Rp76
ag49
(g53
S'd\x92\x8fZ*\xa3\xc2?'
p77
tp78
Rp79
ag49
(g53
S'\xcf\xb8\xd6\xc1\xb9;\xdb?'
p80
tp81
Rp82
ag49
(g53
S's\x058\x97\xaeI\xe3?'
p83
tp84
Rp85
ag49
(g53
S'\xc6\x86\xa9\xf0\xa1S\xc8?'
p86
tp87
Rp88
ag49
(g53
S'd\x92\x8fZ*\xa3\xc2?'
p89
tp90
Rp91
ag49
(g53
S'\xc6\x86\xa9\xf0\xa1S\xc8?'
p92
tp93
Rp94
ag49
(g53
S'\xef\x9en\xc1)\x9e\xe2?'
p95
tp96
Rp97
ag49
(g53
S'\x1e\x84N\x10\xcaO\xd2?'
p98
tp99
Rp100
ag49
(g53
S'h\xa8$\xa4!\xcb\xc9?'
p101
tp102
Rp103
ag49
(g53
S'd\x92\x8fZ*\xa3\xc2?'
p104
tp105
Rp106
ag49
(g53
S'KKav\x1a\x88\xe5?'
p107
tp108
Rp109
ag49
(g53
S's\x058\x97\xaeI\xe3?'
p110
tp111
Rp112
ag49
(g53
S'KKav\x1a\x88\xe5?'
p113
tp114
Rp115
ag49
(g53
S'\xc6\x86\xa9\xf0\xa1S\xc8?'
p116
tp117
Rp118
ag49
(g53
S'P\x12\xca\x07\x00\x84\xda?'
p119
tp120
Rp121
ag49
(g53
S'\xcf\xb8\xd6\xc1\xb9;\xdb?'
p122
tp123
Rp124
ag49
(g53
S'KKav\x1a\x88\xe5?'
p125
tp126
Rp127
ag49
(g53
S'\xc6\x86\xa9\xf0\xa1S\xc8?'
p128
tp129
Rp130
ag49
(g53
S'd\x92\x8fZ*\xa3\xc2?'
p131
tp132
Rp133
ag49
(g53
S'KKav\x1a\x88\xe5?'
p134
tp135
Rp136
ag49
(g53
S'\x1e\x84N\x10\xcaO\xd2?'
p137
tp138
Rp139
ag49
(g53
S'h\xa8$\xa4!\xcb\xc9?'
p140
tp141
Rp142
ag49
(g53
S'\xe0\x162g\xe2\xf1\xe3?'
p143
tp144
Rp145
ag49
(g53
S'\xc6\x86\xa9\xf0\xa1S\xc8?'
p146
tp147
Rp148
ag49
(g53
S'\xe0\x162g\xe2\xf1\xe3?'
p149
tp150
Rp151
ag49
(g53
S'\xcf\xb8\xd6\xc1\xb9;\xdb?'
p152
tp153
Rp154
ag49
(g53
S's\x058\x97\xaeI\xe3?'
p155
tp156
Rp157
ag49
(g53
S's\x058\x97\xaeI\xe3?'
p158
tp159
Rp160
ag49
(g53
S's\x058\x97\xaeI\xe3?'
p161
tp162
Rp163
ag49
(g53
S'\x1e\x84N\x10\xcaO\xd2?'
p164
tp165
Rp166
ag49
(g53
S'h\xa8$\xa4!\xcb\xc9?'
p167
tp168
Rp169
ag49
(g53
S'd\x92\x8fZ*\xa3\xc2?'
p170
tp171
Rp172
ag49
(g53
S'KKav\x1a\x88\xe5?'
p173
tp174
Rp175
ag49
(g53
S's\x058\x97\xaeI\xe3?'
p176
tp177
Rp178
ag49
(g53
S'\x1e\x84N\x10\xcaO\xd2?'
p179
tp180
Rp181
ag49
(g53
S'\x0e|o\x16\r+\xd9?'
p182
tp183
Rp184
ag49
(g53
S'\xcf\xb8\xd6\xc1\xb9;\xdb?'
p185
tp186
Rp187
ag49
(g53
S's\x058\x97\xaeI\xe3?'
p188
tp189
Rp190
ag49
(g53
S'KKav\x1a\x88\xe5?'
p191
tp192
Rp193
ag49
(g53
S'\x1e\x84N\x10\xcaO\xd2?'
p194
tp195
Rp196
ag49
(g53
S'\xcf\xb8\xd6\xc1\xb9;\xdb?'
p197
tp198
Rp199
ag49
(g53
S'\xc6\x86\xa9\xf0\xa1S\xc8?'
p200
tp201
Rp202
ag49
(g53
S'P\x12\xca\x07\x00\x84\xda?'
p203
tp204
Rp205
ag49
(g53
S'h\xa8$\xa4!\xcb\xc9?'
p206
tp207
Rp208
ag49
(g53
S'P\x12\xca\x07\x00\x84\xda?'
p209
tp210
Rp211
ag49
(g53
S'\xcf\xb8\xd6\xc1\xb9;\xdb?'
p212
tp213
Rp214
ag49
(g53
S'\xc6\x86\xa9\xf0\xa1S\xc8?'
p215
tp216
Rp217
ag49
(g53
S'\xe0\x162g\xe2\xf1\xe3?'
p218
tp219
Rp220
ag49
(g53
S'\x0e|o\x16\r+\xd9?'
p221
tp222
Rp223
ag49
(g53
S'\xcf\xb8\xd6\xc1\xb9;\xdb?'
p224
tp225
Rp226
ag49
(g53
S'\xc6\x86\xa9\xf0\xa1S\xc8?'
p227
tp228
Rp229
ag49
(g53
S'\xe0\x162g\xe2\xf1\xe3?'
p230
tp231
Rp232
ag49
(g53
S'\x1e\x84N\x10\xcaO\xd2?'
p233
tp234
Rp235
ag49
(g53
S'\x0e|o\x16\r+\xd9?'
p236
tp237
Rp238
ag49
(g53
S'h\xa8$\xa4!\xcb\xc9?'
p239
tp240
Rp241
ag49
(g53
S'\xe0\x162g\xe2\xf1\xe3?'
p242
tp243
Rp244
ag49
(g53
S'd\x92\x8fZ*\xa3\xc2?'
p245
tp246
Rp247
ag49
(g53
S'x\xfdA\xe2\xd2\xa2\xe5?'
p248
tp249
Rp250
ag49
(g53
S'h\xa8$\xa4!\xcb\xc9?'
p251
tp252
Rp253
ag49
(g53
S'P\x12\xca\x07\x00\x84\xda?'
p254
tp255
Rp256
ag49
(g53
S'\x0e|o\x16\r+\xd9?'
p257
tp258
Rp259
ag49
(g53
S'h\xa8$\xa4!\xcb\xc9?'
p260
tp261
Rp262
ag49
(g53
S'd\x92\x8fZ*\xa3\xc2?'
p263
tp264
Rp265
ag49
(g53
S'KKav\x1a\x88\xe5?'
p266
tp267
Rp268
ag49
(g53
S'\x1e\x84N\x10\xcaO\xd2?'
p269
tp270
Rp271
ag49
(g53
S'\x0e|o\x16\r+\xd9?'
p272
tp273
Rp274
ag49
(g53
S'x\xfdA\xe2\xd2\xa2\xe5?'
p275
tp276
Rp277
ag49
(g53
S'\x0e|o\x16\r+\xd9?'
p278
tp279
Rp280
ag49
(g53
S'\x0e|o\x16\r+\xd9?'
p281
tp282
Rp283
ag49
(g53
S'\x0e|o\x16\r+\xd9?'
p284
tp285
Rp286
ag49
(g53
S'x\xfdA\xe2\xd2\xa2\xe5?'
p287
tp288
Rp289
ag49
(g53
S'\x0e|o\x16\r+\xd9?'
p290
tp291
Rp292
ag49
(g53
S'\x0e|o\x16\r+\xd9?'
p293
tp294
Rp295
ag49
(g53
S'h\xa8$\xa4!\xcb\xc9?'
p296
tp297
Rp298
ag49
(g53
S'P\x12\xca\x07\x00\x84\xda?'
p299
tp300
Rp301
ag49
(g53
S'\xcf\xb8\xd6\xc1\xb9;\xdb?'
p302
tp303
Rp304
ag49
(g53
S'\xc6\x86\xa9\xf0\xa1S\xc8?'
p305
tp306
Rp307
ag49
(g53
S'd\x92\x8fZ*\xa3\xc2?'
p308
tp309
Rp310
ag49
(g53
S'\x0e|o\x16\r+\xd9?'
p311
tp312
Rp313
ag49
(g53
S'\xcf\xb8\xd6\xc1\xb9;\xdb?'
p314
tp315
Rp316
ag49
(g53
S'\xc6\x86\xa9\xf0\xa1S\xc8?'
p317
tp318
Rp319
ag49
(g53
S'\xef\x9en\xc1)\x9e\xe2?'
p320
tp321
Rp322
ag49
(g53
S'\xc6\x86\xa9\xf0\xa1S\xc8?'
p323
tp324
Rp325
ag49
(g53
S'\xef\x9en\xc1)\x9e\xe2?'
p326
tp327
Rp328
ag49
(g53
S'\xc6\x86\xa9\xf0\xa1S\xc8?'
p329
tp330
Rp331
ag49
(g53
S'd\x92\x8fZ*\xa3\xc2?'
p332
tp333
Rp334
asS'sp'
p335
(lp336
(S'p0'
p337
I0
S'x'
p338
tp339
a(g337
I0
g338
tp340
ag340
a(g337
I0
S't'
p341
tp342
a(g337
I0
g341
tp343
a(g337
I0
g341
tp344
a(g337
I0
S'y'
p345
tp346
a(S'p1'
p347
I0
g345
tp348
a(g347
I0
g341
tp349
a(g347
I0
g341
tp350
a(g347
I0
g338
tp351
a(S'p2'
p352
I0
g338
tp353
a(g352
I0
g345
tp354
a(g352
I0
g338
tp355
a(g352
I0
g341
tp356
a(g352
I0
g345
tp357
a(S'p3'
p358
I0
g345
tp359
a(g358
I0
g345
tp360
a(g358
I0
g345
tp361
ag360
a(g358
I0
g341
tp362
a(g358
I0
g338
tp363
a(g358
I0
g345
tp364
ag360
ag362
a(g358
F1.5707963267948966
g341
tp365
a(g358
F1.5707963267948966
g341
tp366
a(g358
F1.5707963267948966
g345
tp367
a(g358
F1.5707963267948966
g338
tp368
a(g352
F1.5707963267948966
g338
tp369
a(g352
F1.5707963267948966
g345
tp370
a(g347
F1.5707963267948966
g345
tp371
a(g347
F1.5707963267948966
g341
tp372
a(g347
F1.5707963267948966
g341
tp373
ag373
ag373
a(g347
F1.5707963267948966
g345
tp374
a(g347
F1.5707963267948966
g338
tp375
a(g352
F1.5707963267948966
g338
tp376
a(g352
F1.5707963267948966
g338
tp377
a(g352
F1.5707963267948966
g338
tp378
a(g352
F1.5707963267948966
g341
tp379
a(g352
F1.5707963267948966
g341
tp380
a(g352
F1.5707963267948966
g338
tp381
ag378
ag377
ag379
ag381
ag370
a(g352
F1.5707963267948966
g341
tp382
a(g352
F1.5707963267948966
g345
tp383
ag382
ag381
ag370
ag371
a(g347
F1.5707963267948966
g345
tp384
ag372
a(g347
F1.5707963267948966
g338
tp385
a(g337
F1.5707963267948966
g338
tp386
a(g337
F1.5707963267948966
g341
tp387
a(g337
F1.5707963267948966
g341
tp388
a(g337
F1.5707963267948966
g345
tp389
a(g337
F1.5707963267948966
g345
tp390
a(g347
F1.5707963267948966
g345
tp391
a(g347
F1.5707963267948966
g345
tp392
ag375
a(g347
F1.5707963267948966
g345
tp393
ag384
ag375
ag376
ag377
ag379
ag380
a(g352
F1.5707963267948966
g341
tp394
ag380
ag380
ag380
ag394
ag380
ag380
ag383
ag382
ag381
ag370
a(g358
F1.5707963267948966
g345
tp395
a(g358
F1.5707963267948966
g345
tp396
a(g358
F1.5707963267948966
g341
tp397
a(g358
F1.5707963267948966
g338
tp398
a(g358
F1.5707963267948966
g341
tp399
ag398
ag399
ag398
a(S'p4'
p400
F1.5707963267948966
g338
tp401
asS's'
p402
(lp403
(g337
I0
g22
tp404
ag339
ag340
ag340
ag342
ag343
ag344
ag346
ag348
ag349
ag350
ag351
ag353
ag354
ag355
ag356
ag357
ag359
ag360
ag361
ag360
ag362
ag363
ag364
ag360
ag362
ag365
ag366
ag367
ag368
ag369
ag370
ag371
ag372
ag373
ag373
ag373
ag374
ag375
ag376
ag377
ag378
ag379
ag380
ag381
ag378
ag377
ag379
ag381
ag370
ag382
ag383
ag382
ag381
ag370
ag371
ag384
ag372
ag385
ag386
ag387
ag388
ag389
ag390
ag391
ag392
ag375
ag393
ag384
ag375
ag376
ag377
ag379
ag380
ag394
ag380
ag380
ag380
ag394
ag380
ag380
ag383
ag382
ag381
ag370
ag395
ag396
ag397
ag398
ag399
ag398
ag399
ag398
asS'ui'
p405
(lp406
S'ss'
p407
ag335
ag335
aS'hs'
p408
ag408
ag335
ag408
ag335
aS'hp'
p409
ag408
ag409
ag335
ag409
ag408
ag408
ag408
ag335
ag408
ag409
ag335
ag409
ag409
ag409
ag335
ag409
ag335
ag335
ag408
ag408
ag408
ag409
ag407
ag409
ag408
ag407
ag409
ag408
ag408
ag335
ag335
ag407
ag408
ag335
ag409
ag407
ag409
ag408
ag409
ag409
ag409
ag408
ag409
ag409
ag409
ag407
ag335
ag409
ag409
ag407
ag408
ag335
ag408
ag407
ag407
ag408
ag408
ag409
ag335
ag408
ag335
ag335
ag408
ag335
ag409
ag335
ag335
ag335
ag407
ag335
ag335
ag408
ag409
ag409
ag409
ag335
ag408
ag409
ag409
ag335
ag409
ag408
ag409
ag335
asS'um_before'
p410
(lp411
g409
ag335
ag335
ag408
ag407
ag335
ag408
ag335
ag409
ag407
ag409
ag335
ag409
ag408
ag408
ag408
ag335
ag335
ag407
ag335
ag409
ag409
ag409
ag335
ag409
ag335
ag335
ag408
ag408
ag407
ag409
ag407
ag409
ag407
ag407
ag407
ag408
ag408
ag335
ag335
ag407
ag408
ag335
ag409
ag407
ag335
ag408
ag409
ag409
ag409
ag408
ag409
ag409
ag409
ag407
ag335
ag409
ag409
ag407
ag408
ag335
ag408
ag407
ag335
ag407
ag408
ag409
ag335
ag408
ag335
ag335
ag408
ag335
ag407
ag335
ag335
ag335
ag407
ag335
ag335
ag408
ag409
ag409
ag409
ag335
ag335
ag409
ag409
ag408
ag409
ag408
ag409
ag335
asS'um_after'
p412
(lp413
g409
ag335
ag335
ag408
ag407
ag335
ag408
ag335
ag409
ag407
ag409
ag335
ag409
ag408
ag408
ag408
ag335
ag335
ag407
ag335
ag409
ag409
ag409
ag335
ag409
ag335
ag335
ag408
ag408
ag407
ag409
ag407
ag409
ag407
ag407
ag407
ag408
ag408
ag335
ag335
ag407
ag408
ag335
ag409
ag407
ag335
ag408
ag409
ag409
ag409
ag408
ag409
ag409
ag409
ag407
ag335
ag409
ag409
ag407
ag408
ag335
ag408
ag407
ag335
ag407
ag408
ag409
ag335
ag408
ag335
ag335
ag408
ag335
ag407
ag335
ag335
ag335
ag407
ag335
ag335
ag408
ag409
ag409
ag409
ag335
ag335
ag409
ag409
ag408
ag409
ag408
ag409
ag335
asS'is_normalized_entropy_less_than_threshold'
p414
(lp415
g49
(g50
(S'b1'
p416
I0
I1
tp417
Rp418
(I3
S'|'
p419
NNNI-1
I-1
I0
tp420
bS'\x01'
p421
tp422
Rp423
ag423
ag423
ag423
ag423
ag423
ag423
ag423
ag423
ag423
ag423
ag423
ag423
ag423
ag423
ag423
ag423
ag423
ag423
ag423
ag423
ag423
ag423
ag423
ag423
ag423
ag423
ag423
ag423
ag423
ag423
ag423
ag423
ag423
ag423
ag423
ag423
ag423
ag423
ag423
ag423
ag423
ag423
ag423
ag423
ag423
ag423
ag423
ag423
ag423
ag423
ag423
ag423
ag423
ag423
ag423
ag423
ag423
ag423
ag423
ag423
ag423
ag423
ag423
ag423
ag423
ag423
ag423
ag423
ag423
ag423
ag423
ag423
ag423
ag423
ag423
ag423
ag423
ag423
ag423
ag423
ag423
ag423
ag423
ag423
ag423
ag423
ag423
ag423
ag423
ag423
ag423
ag423
asaa(lp424
S'index'
p425
aI25437
aatp426
Rp427
.