ccollections
OrderedDict
p0
((lp1
(lp2
S'combination_dict'
p3
ag0
((lp4
(lp5
S'r_to_g_config'
p6
aS'br'
p7
aa(lp8
S'num_turns'
p9
aI1
aa(lp10
S'start_direction'
p11
acutils_ms
StartDirection
p12
(I0
tp13
Rp14
aa(lp15
S'assistance_type'
p16
acutils_ms
AssistanceType
p17
(I0
tp18
Rp19
aa(lp20
S'start_mode'
p21
aS't'
p22
aa(lp23
S'ui_given_a_noise'
p24
aF0.7
aa(lp25
S'um_given_ui_noise'
p26
aF0.7
aa(lp27
S'entropy_threshold'
p28
aF0.9
aatp29
Rp30
aa(lp31
S'data'
p32
accollections
defaultdict
p33
(c__builtin__
list
p34
tp35
Rp36
S'a'
p37
(lp38
S'mode_r'
p39
aS'move_p'
p40
aS'mode_l'
p41
ag40
ag40
ag40
ag40
ag41
ag41
ag41
ag41
aS'move_n'
p42
ag41
ag41
ag40
ag40
ag40
ag40
ag40
ag40
ag40
ag40
ag40
ag40
ag40
ag39
ag42
ag41
ag41
ag41
ag42
asS'assistance_match_with_ground_truth'
p43
(lp44
I01
aI01
aI01
aI00
aI00
aI00
aI01
aI00
aI00
aI00
aI01
aI00
aI00
aI01
aI00
aI00
aI00
aI00
aI00
aI00
aI00
aI00
aI00
aI00
aI01
aI01
aI00
aI00
aI00
aI01
aI01
asS'is_u_intended_equals_um'
p45
(lp46
I01
aI01
aI01
aI00
aI00
aI01
aI01
aI00
aI00
aI00
aI01
aI01
aI00
aI01
aI00
aI01
aI01
aI00
aI00
aI00
aI00
aI00
aI00
aI00
aI01
aI01
aI00
aI00
aI00
aI01
aI01
asS'total_steps'
p47
I31
sS'normalized_h_of_p_ui_given_um'
p48
(lp49
cnumpy.core.multiarray
scalar
p50
(cnumpy
dtype
p51
(S'f8'
p52
I0
I1
tp53
Rp54
(I3
S'<'
p55
NNNI-1
I-1
I0
tp56
bS'\xb6\x89h-\xfcD\xe5?'
p57
tp58
Rp59
ag50
(g54
S'\xf2\x18\xd9\xfb\xeb\xa3\xe1?'
p60
tp61
Rp62
ag50
(g54
S'\xa6\xec\xbam$R\xd3?'
p63
tp64
Rp65
ag50
(g54
S'\x86\xe0\xf7l\x0e\x10\xec?'
p66
tp67
Rp68
ag50
(g54
S'\x86\xe0\xf7l\x0e\x10\xec?'
p69
tp70
Rp71
ag50
(g54
S'F\xcd\x02C\x0c)\xe5?'
p72
tp73
Rp74
ag50
(g54
S'\xf2\x18\xd9\xfb\xeb\xa3\xe1?'
p75
tp76
Rp77
ag50
(g54
S'\x0e\xa4\xa6t\xcaS\xe3?'
p78
tp79
Rp80
ag50
(g54
S'\x0e\xa4\xa6t\xcaS\xe3?'
p81
tp82
Rp83
ag50
(g54
S'\x0e\xa4\xa6t\xcaS\xe3?'
p84
tp85
Rp86
ag50
(g54
S'\xa6\xec\xbam$R\xd3?'
p87
tp88
Rp89
ag50
(g54
S'N\x80f\x1cm\xe5\xe4?'
p90
tp91
Rp92
ag50
(g54
S'\x0e\xa4\xa6t\xcaS\xe3?'
p93
tp94
Rp95
ag50
(g54
S'\xa6\xec\xbam$R\xd3?'
p96
tp97
Rp98
ag50
(g54
S'\x86\xe0\xf7l\x0e\x10\xec?'
p99
tp100
Rp101
ag50
(g54
S'F\xcd\x02C\x0c)\xe5?'
p102
tp103
Rp104
ag50
(g54
S'F\xcd\x02C\x0c)\xe5?'
p105
tp106
Rp107
ag50
(g54
S'\xb3/\xd8\xae^~\xea?'
p108
tp109
Rp110
ag50
(g54
S'\xb3/\xd8\xae^~\xea?'
p111
tp112
Rp113
ag50
(g54
S'\x86\xe0\xf7l\x0e\x10\xec?'
p114
tp115
Rp116
ag50
(g54
S'\x86\xe0\xf7l\x0e\x10\xec?'
p117
tp118
Rp119
ag50
(g54
S'\x86\xe0\xf7l\x0e\x10\xec?'
p120
tp121
Rp122
ag50
(g54
S'\x86\xe0\xf7l\x0e\x10\xec?'
p123
tp124
Rp125
ag50
(g54
S'\xb3/\xd8\xae^~\xea?'
p126
tp127
Rp128
ag50
(g54
S'\xf2\x18\xd9\xfb\xeb\xa3\xe1?'
p129
tp130
Rp131
ag50
(g54
S'\xb6\x89h-\xfcD\xe5?'
p132
tp133
Rp134
ag50
(g54
S'\xf0{3\xd8\x1d\xac\xee?'
p135
tp136
Rp137
ag50
(g54
S'\x0e\xa4\xa6t\xcaS\xe3?'
p138
tp139
Rp140
ag50
(g54
S'\x0e\xa4\xa6t\xcaS\xe3?'
p141
tp142
Rp143
ag50
(g54
S'\xa6\xec\xbam$R\xd3?'
p144
tp145
Rp146
ag50
(g54
S'\xcd@\x85\x1f\x80j\xd8?'
p147
tp148
Rp149
asS'sp'
p150
(lp151
(S'p0'
p152
I0
S'x'
p153
tp154
a(S'p1'
p155
I0
g153
tp156
a(g155
I0
S't'
p157
tp158
ag158
ag158
a(g155
I0
g157
tp159
a(g155
F1.5707963267948966
g157
tp160
ag160
ag160
ag160
a(g155
F1.5707963267948966
S'y'
p161
tp162
a(g152
F1.5707963267948966
g161
tp163
ag163
a(g152
F1.5707963267948966
g153
tp164
ag164
a(g152
F1.5707963267948966
g153
tp165
ag165
ag165
ag165
ag165
ag165
ag165
ag165
ag165
a(g155
F1.5707963267948966
g153
tp166
a(g155
F1.5707963267948966
g161
tp167
a(g155
F1.5707963267948966
g157
tp168
ag168
ag168
ag162
a(S'p2'
p169
F1.5707963267948966
g161
tp170
asS's'
p171
(lp172
(g152
I0
g22
tp173
ag154
ag156
ag158
ag158
ag158
ag159
ag160
ag160
ag160
ag160
ag162
ag163
ag163
ag164
ag164
ag165
ag165
ag165
ag165
ag165
ag165
ag165
ag165
ag165
ag166
ag167
ag168
ag168
ag168
ag162
asS'ui'
p174
(lp175
S'hp'
p176
ag176
aS'hs'
p177
ag176
ag176
aS'ss'
p178
ag150
ag150
ag177
ag176
ag177
ag178
ag178
ag177
ag176
ag178
ag150
ag177
ag177
ag150
ag176
ag177
ag176
ag177
ag178
ag177
ag178
ag177
ag177
ag177
ag178
asS'um_before'
p179
(lp180
g176
ag150
ag177
ag176
ag176
ag178
ag150
ag176
ag176
ag176
ag177
ag150
ag176
ag177
ag176
ag178
ag178
ag177
ag177
ag176
ag176
ag176
ag176
ag177
ag150
ag176
ag176
ag176
ag176
ag177
ag178
asS'um_after'
p181
(lp182
g176
ag150
ag177
aNaNag178
ag150
aNaNaNag177
ag150
aNag177
aNag178
ag178
aNaNaNaNaNaNaNag150
ag176
ag176
aNaNag177
ag178
asS'is_normalized_entropy_less_than_threshold'
p183
(lp184
g50
(g51
(S'b1'
p185
I0
I1
tp186
Rp187
(I3
S'|'
p188
NNNI-1
I-1
I0
tp189
bS'\x01'
p190
tp191
Rp192
ag192
ag192
ag192
ag192
ag192
ag192
ag192
ag192
ag192
ag192
ag192
ag192
ag192
ag192
ag192
ag192
ag192
ag192
ag192
ag192
ag192
ag192
ag192
ag192
ag192
ag50
(g187
S'\x00'
p193
tp194
Rp195
ag192
ag192
ag192
ag192
asaa(lp196
S'index'
p197
aI87194
aatp198
Rp199
.