ccollections
OrderedDict
p0
((lp1
(lp2
S'combination_dict'
p3
ag0
((lp4
(lp5
S'r_to_g_config'
p6
aS'bl'
p7
aa(lp8
S'num_turns'
p9
aI3
aa(lp10
S'start_direction'
p11
acutils_ms
StartDirection
p12
(I0
tp13
Rp14
aa(lp15
S'assistance_type'
p16
acutils_ms
AssistanceType
p17
(I1
tp18
Rp19
aa(lp20
S'start_mode'
p21
aS't'
p22
aa(lp23
S'ui_given_a_noise'
p24
aF0.3
aa(lp25
S'um_given_ui_noise'
p26
aF0.3
aa(lp27
S'entropy_threshold'
p28
aF0.5
aatp29
Rp30
aa(lp31
S'data'
p32
accollections
defaultdict
p33
(c__builtin__
list
p34
tp35
Rp36
S'a'
p37
(lp38
S'mode_r'
p39
aS'move_n'
p40
aS'mode_l'
p41
ag40
ag41
ag40
ag41
aS'move_p'
p42
ag41
ag42
ag41
ag40
ag41
ag40
ag39
ag39
ag41
ag40
asS'assistance_match_with_ground_truth'
p43
(lp44
I01
aI00
aI01
aI00
aI01
aI01
aI01
aI00
aI01
aI01
aI01
aI01
aI01
aI01
aI00
aI00
aI01
aI01
asS'is_u_intended_equals_um'
p45
(lp46
I01
aI00
aI01
aI00
aI01
aI01
aI01
aI01
aI01
aI01
aI01
aI01
aI01
aI01
aI01
aI00
aI01
aI01
asS'total_steps'
p47
I18
sS'normalized_h_of_p_ui_given_um'
p48
(lp49
cnumpy.core.multiarray
scalar
p50
(cnumpy
dtype
p51
(S'f8'
p52
I0
I1
tp53
Rp54
(I3
S'<'
p55
NNNI-1
I-1
I0
tp56
bS'\xea]\x04\x9f\rO\xcb?'
p57
tp58
Rp59
ag50
(g54
S'ww\xae\xb7cq\xe3?'
p60
tp61
Rp62
ag50
(g54
S'MB\x07\xbf\xba\x15\xc3?'
p63
tp64
Rp65
ag50
(g54
S'ww\xae\xb7cq\xe3?'
p66
tp67
Rp68
ag50
(g54
S'MB\x07\xbf\xba\x15\xc3?'
p69
tp70
Rp71
ag50
(g54
S'{\n\x89?\xf8\x80\xce?'
p72
tp73
Rp74
ag50
(g54
S'MB\x07\xbf\xba\x15\xc3?'
p75
tp76
Rp77
ag50
(g54
S'\xcc`4I\xee\xbf\xe6?'
p78
tp79
Rp80
ag50
(g54
S'MB\x07\xbf\xba\x15\xc3?'
p81
tp82
Rp83
ag50
(g54
S',\xb6\xc9r\xa8\x0f\xd7?'
p84
tp85
Rp86
ag50
(g54
S'MB\x07\xbf\xba\x15\xc3?'
p87
tp88
Rp89
ag50
(g54
S'{\n\x89?\xf8\x80\xce?'
p90
tp91
Rp92
ag50
(g54
S'MB\x07\xbf\xba\x15\xc3?'
p93
tp94
Rp95
ag50
(g54
S'{\n\x89?\xf8\x80\xce?'
p96
tp97
Rp98
ag50
(g54
S'\xf5\x9b\x1a\x81\xd8\x80\xe3?'
p99
tp100
Rp101
ag50
(g54
S'\xf1\xe0>\x96\x14r\xe5?'
p102
tp103
Rp104
ag50
(g54
S'MB\x07\xbf\xba\x15\xc3?'
p105
tp106
Rp107
ag50
(g54
S'{\n\x89?\xf8\x80\xce?'
p108
tp109
Rp110
asS'sp'
p111
(lp112
(S'p0'
p113
I0
S'x'
p114
tp115
a(g113
I0
S'y'
p116
tp117
a(g113
I0
g114
tp118
ag117
ag118
a(S'p1'
p119
I0
g114
tp120
a(g119
I0
S't'
p121
tp122
a(g119
I0
g114
tp123
ag122
a(g119
F1.5707963267948966
g121
tp124
a(g119
F1.5707963267948966
g116
tp125
a(S'p2'
p126
F1.5707963267948966
g116
tp127
a(g126
F1.5707963267948966
g114
tp128
a(S'p3'
p129
F1.5707963267948966
g114
tp130
a(g129
F1.5707963267948966
g114
tp131
a(g129
F1.5707963267948966
g121
tp132
a(g129
F1.5707963267948966
g116
tp133
a(S'p4'
p134
F1.5707963267948966
g116
tp135
asS's'
p136
(lp137
(g113
I0
g22
tp138
ag115
ag117
ag118
ag117
ag118
ag120
ag122
ag123
ag122
ag124
ag125
ag127
ag128
ag130
ag131
ag132
ag133
asS'ui'
p139
(lp140
S'hp'
p141
aS'ss'
p142
aS'hs'
p143
ag111
ag143
ag142
ag143
ag141
ag143
ag111
ag143
ag142
ag143
ag142
ag142
ag142
ag141
ag142
asS'um_before'
p144
(lp145
g141
ag141
ag143
ag141
ag143
ag142
ag143
ag141
ag143
ag111
ag143
ag142
ag143
ag142
ag142
ag143
ag143
ag142
asS'um_after'
p146
(lp147
g141
ag141
ag143
ag141
ag143
ag142
ag143
ag141
ag143
ag111
ag143
ag142
ag143
ag142
ag142
ag143
ag143
ag142
asS'is_normalized_entropy_less_than_threshold'
p148
(lp149
g50
(g51
(S'b1'
p150
I0
I1
tp151
Rp152
(I3
S'|'
p153
NNNI-1
I-1
I0
tp154
bS'\x01'
p155
tp156
Rp157
ag50
(g152
S'\x00'
p158
tp159
Rp160
ag157
ag160
ag157
ag157
ag157
ag160
ag157
ag157
ag157
ag157
ag157
ag157
ag160
ag160
ag157
ag157
asaa(lp161
S'index'
p162
aI78655
aatp163
Rp164
.