ccollections
OrderedDict
p0
((lp1
(lp2
S'combination_dict'
p3
ag0
((lp4
(lp5
S'r_to_g_config'
p6
aS'bl'
p7
aa(lp8
S'num_turns'
p9
aI2
aa(lp10
S'start_direction'
p11
acutils_ms
StartDirection
p12
(I1
tp13
Rp14
aa(lp15
S'assistance_type'
p16
acutils_ms
AssistanceType
p17
(I0
tp18
Rp19
aa(lp20
S'start_mode'
p21
aS't'
p22
aa(lp23
S'ui_given_a_noise'
p24
aF0.1
aa(lp25
S'um_given_ui_noise'
p26
aF0.7
aa(lp27
S'entropy_threshold'
p28
aF0.9
aatp29
Rp30
aa(lp31
S'data'
p32
accollections
defaultdict
p33
(c__builtin__
list
p34
tp35
Rp36
S'a'
p37
(lp38
S'mode_l'
p39
aS'move_n'
p40
ag40
aS'mode_r'
p41
ag41
aS'move_p'
p42
ag42
ag42
ag42
ag41
ag41
ag40
ag40
ag40
ag40
ag41
ag40
asS'assistance_match_with_ground_truth'
p43
(lp44
I01
aI00
aI01
aI00
aI01
aI00
aI00
aI00
aI01
aI00
aI01
aI00
aI00
aI00
aI01
aI01
aI01
asS'is_u_intended_equals_um'
p45
(lp46
I01
aI00
aI01
aI00
aI01
aI00
aI00
aI00
aI01
aI00
aI01
aI00
aI00
aI00
aI01
aI01
aI01
asS'total_steps'
p47
I17
sS'normalized_h_of_p_ui_given_um'
p48
(lp49
cnumpy.core.multiarray
scalar
p50
(cnumpy
dtype
p51
(S'f8'
p52
I0
I1
tp53
Rp54
(I3
S'<'
p55
NNNI-1
I-1
I0
tp56
bS'\xb7\xfb8\xa6\xd6\xe8\xb4?'
p57
tp58
Rp59
ag50
(g54
S'XcS\\\x92\xa1\xd0?'
p60
tp61
Rp62
ag50
(g54
S'u\xd8z\xf7P\xe3\xc1?'
p63
tp64
Rp65
ag50
(g54
S'$\x83\xe2k\xd8\xbb\xe2?'
p66
tp67
Rp68
ag50
(g54
S'X\xa9\xb3\x95\xe0\x10\xbf?'
p69
tp70
Rp71
ag50
(g54
S'|\xc0\xe4\xe0\xf8 \xd6?'
p72
tp73
Rp74
ag50
(g54
S'>\xf8\xd9`\xb0R\xce?'
p75
tp76
Rp77
ag50
(g54
S'm\x93\xa4\xe7nv\xdf?'
p78
tp79
Rp80
ag50
(g54
S'\x94\xf8!^f\xb8\xc5?'
p81
tp82
Rp83
ag50
(g54
S'\xf4e\xb7\xe9\xaa\xcb\xd6?'
p84
tp85
Rp86
ag50
(g54
S'X\xa9\xb3\x95\xe0\x10\xbf?'
p87
tp88
Rp89
ag50
(g54
S':\xa3&\xb1\xf9}\xe1?'
p90
tp91
Rp92
ag50
(g54
S'XcS\\\x92\xa1\xd0?'
p93
tp94
Rp95
ag50
(g54
S'XcS\\\x92\xa1\xd0?'
p96
tp97
Rp98
ag50
(g54
S'u\xd8z\xf7P\xe3\xc1?'
p99
tp100
Rp101
ag50
(g54
S'X\xa9\xb3\x95\xe0\x10\xbf?'
p102
tp103
Rp104
ag50
(g54
S'u\xd8z\xf7P\xe3\xc1?'
p105
tp106
Rp107
asS'sp'
p108
(lp109
(S'p0'
p110
I0
S'y'
p111
tp112
ag112
a(S'p1'
p113
I0
g111
tp114
ag114
a(g113
I0
S't'
p115
tp116
ag116
ag116
ag116
a(g113
F1.5707963267948966
g115
tp117
ag117
a(g113
F1.5707963267948966
S'x'
p118
tp119
ag119
ag119
ag119
a(S'p2'
p120
F1.5707963267948966
g118
tp121
a(g120
F1.5707963267948966
g111
tp122
a(S'p3'
p123
F1.5707963267948966
g111
tp124
asS's'
p125
(lp126
(g110
I0
g22
tp127
ag112
ag112
ag114
ag114
ag116
ag116
ag116
ag116
ag117
ag117
ag119
ag119
ag119
ag119
ag121
ag122
asS'ui'
p128
(lp129
S'hs'
p130
aS'ss'
p131
ag131
ag130
aS'hp'
p132
ag108
ag108
ag108
ag108
ag132
ag132
ag131
ag131
ag131
ag131
ag132
ag131
asS'um_before'
p133
(lp134
g130
ag108
ag131
ag130
ag132
ag131
ag132
ag130
ag108
ag131
ag132
ag130
ag108
ag108
ag131
ag132
ag131
asS'um_after'
p135
(lp136
g130
aNag131
aNag132
aNaNaNag108
aNag132
aNaNaNag131
ag132
ag131
asS'is_normalized_entropy_less_than_threshold'
p137
(lp138
g50
(g51
(S'b1'
p139
I0
I1
tp140
Rp141
(I3
S'|'
p142
NNNI-1
I-1
I0
tp143
bS'\x01'
p144
tp145
Rp146
ag146
ag146
ag146
ag146
ag146
ag146
ag146
ag146
ag146
ag146
ag146
ag146
ag146
ag146
ag146
ag146
asaa(lp147
S'index'
p148
aI72993
aatp149
Rp150
.