ccollections
OrderedDict
p0
((lp1
(lp2
S'combination_dict'
p3
ag0
((lp4
(lp5
S'r_to_g_config'
p6
aS'tr'
p7
aa(lp8
S'num_turns'
p9
aI2
aa(lp10
S'start_direction'
p11
acutils_ms
StartDirection
p12
(I0
tp13
Rp14
aa(lp15
S'assistance_type'
p16
acutils_ms
AssistanceType
p17
(I2
tp18
Rp19
aa(lp20
S'start_mode'
p21
aS't'
p22
aa(lp23
S'ui_given_a_noise'
p24
aF0.7
aa(lp25
S'um_given_ui_noise'
p26
aF0.7
aa(lp27
S'entropy_threshold'
p28
aF0.8
aatp29
Rp30
aa(lp31
S'data'
p32
accollections
defaultdict
p33
(c__builtin__
list
p34
tp35
Rp36
S'a'
p37
(lp38
S'mode_r'
p39
aS'move_p'
p40
ag40
ag40
ag39
ag39
ag39
ag39
aS'mode_l'
p41
ag41
ag41
ag41
ag40
ag39
ag41
ag41
ag40
ag39
ag39
ag41
ag41
ag41
ag41
ag41
ag41
ag41
ag40
ag39
ag41
ag40
ag39
ag41
ag40
ag39
ag39
ag39
ag40
ag39
ag40
ag39
ag41
ag41
ag41
ag41
ag41
ag41
ag40
ag41
ag41
ag40
ag41
ag41
ag39
ag40
ag40
ag40
ag39
ag39
ag39
ag40
ag39
ag40
ag41
ag41
ag41
ag41
ag41
ag41
ag41
ag41
ag41
ag41
ag39
ag40
ag41
ag41
ag40
ag41
ag41
ag40
ag41
ag39
ag41
ag41
ag41
ag41
ag41
ag40
ag39
ag39
ag40
ag41
ag40
ag39
ag40
ag40
ag41
ag40
ag39
ag41
ag40
ag39
ag39
ag41
ag41
ag41
ag41
ag41
ag40
ag41
ag41
ag40
ag41
ag41
ag40
ag41
ag41
ag41
ag41
ag40
ag39
ag41
ag40
ag41
ag41
ag40
asS'assistance_match_with_ground_truth'
p42
(lp43
I01
aI00
aI00
aI00
aI00
aI00
aI00
aI00
aI00
aI00
aI00
aI01
aI00
aI00
aI00
aI01
aI01
aI00
aI00
aI00
aI00
aI00
aI00
aI00
aI00
aI01
aI01
aI00
aI01
aI00
aI00
aI01
aI01
aI00
aI00
aI01
aI00
aI01
aI00
aI00
aI00
aI00
aI00
aI00
aI00
aI01
aI00
aI00
aI01
aI00
aI00
aI00
aI01
aI00
aI00
aI01
aI00
aI00
aI01
aI00
aI01
aI00
aI00
aI00
aI00
aI00
aI00
aI00
aI00
aI00
aI00
aI00
aI01
aI00
aI00
aI01
aI01
aI00
aI01
aI00
aI00
aI00
aI00
aI00
aI00
aI00
aI01
aI00
aI00
aI01
aI00
aI01
aI00
aI01
aI00
aI00
aI01
aI00
aI00
aI01
aI00
aI00
aI00
aI00
aI00
aI00
aI00
aI01
aI00
aI00
aI01
aI00
aI00
aI01
aI00
aI00
aI00
aI00
aI01
aI01
aI00
aI01
aI01
aI00
aI01
aI01
asS'is_u_intended_equals_um'
p44
(lp45
I01
aI01
aI01
aI01
aI01
aI01
aI01
aI01
aI01
aI01
aI01
aI01
aI01
aI01
aI01
aI01
aI01
aI01
aI01
aI01
aI01
aI01
aI01
aI01
aI01
aI01
aI01
aI01
aI01
aI01
aI01
aI01
aI01
aI01
aI01
aI01
aI01
aI01
aI01
aI01
aI01
aI01
aI01
aI01
aI01
aI01
aI01
aI01
aI01
aI01
aI01
aI01
aI01
aI01
aI01
aI01
aI01
aI01
aI01
aI01
aI01
aI01
aI01
aI01
aI01
aI01
aI01
aI01
aI01
aI01
aI01
aI01
aI01
aI01
aI01
aI01
aI01
aI01
aI01
aI01
aI01
aI01
aI01
aI01
aI01
aI01
aI01
aI01
aI01
aI01
aI01
aI01
aI01
aI01
aI01
aI01
aI01
aI01
aI01
aI01
aI01
aI01
aI01
aI01
aI01
aI01
aI01
aI01
aI01
aI01
aI01
aI01
aI01
aI01
aI01
aI01
aI01
aI01
aI01
aI01
aI01
aI01
aI01
aI01
aI01
aI01
asS'total_steps'
p46
I126
sS'normalized_h_of_p_ui_given_um'
p47
(lp48
cnumpy.core.multiarray
scalar
p49
(cnumpy
dtype
p50
(S'f8'
p51
I0
I1
tp52
Rp53
(I3
S'<'
p54
NNNI-1
I-1
I0
tp55
bS'\xc9\xb1\xcaeNB\xda?'
p56
tp57
Rp58
ag58
ag58
ag58
ag58
ag58
ag58
ag58
ag58
ag58
ag58
ag58
ag58
ag58
ag58
ag58
ag58
ag58
ag58
ag58
ag58
ag58
ag58
ag58
ag58
ag58
ag58
ag58
ag58
ag58
ag58
ag58
ag58
ag58
ag58
ag58
ag58
ag58
ag58
ag58
ag58
ag58
ag58
ag58
ag58
ag58
ag58
ag58
ag58
ag58
ag58
ag58
ag58
ag58
ag58
ag58
ag58
ag58
ag58
ag58
ag58
ag58
ag58
ag58
ag58
ag58
ag58
ag58
ag58
ag58
ag58
ag58
ag58
ag58
ag58
ag58
ag58
ag58
ag58
ag58
ag58
ag58
ag58
ag58
ag58
ag58
ag58
ag58
ag58
ag58
ag58
ag58
ag58
ag58
ag58
ag58
ag58
ag58
ag58
ag58
ag58
ag58
ag58
ag58
ag58
ag58
ag58
ag58
ag58
ag58
ag58
ag58
ag58
ag58
ag58
ag58
ag58
ag58
ag58
ag58
ag58
ag58
ag58
ag58
ag58
ag58
asS'sp'
p59
(lp60
(S'p0'
p61
I0
S'x'
p62
tp63
a(g61
I0
g62
tp64
ag64
a(g61
I0
S't'
p65
tp66
a(g61
I0
g65
tp67
a(g61
I0
g65
tp68
ag68
a(g61
I0
S'y'
p69
tp70
a(g61
I0
g69
tp71
a(g61
I0
g69
tp72
ag72
a(g61
I0
g62
tp73
ag66
ag70
ag72
ag73
a(S'p1'
p74
I0
g62
tp75
a(g74
I0
g62
tp76
a(g74
I0
g65
tp77
a(g74
I0
g65
tp78
a(g74
I0
g65
tp79
ag79
ag78
ag79
ag79
a(g74
I0
g69
tp80
a(S'p2'
p81
I0
g69
tp82
a(g81
I0
g62
tp83
a(g81
I0
g65
tp84
a(g81
I0
g69
tp85
ag83
ag84
a(g81
F1.5707963267948966
g65
tp86
a(g81
F1.5707963267948966
g65
tp87
ag87
a(g81
F1.5707963267948966
g62
tp88
a(g74
F1.5707963267948966
g62
tp89
a(g74
F1.5707963267948966
g69
tp90
a(g74
F1.5707963267948966
g62
tp91
a(g74
F1.5707963267948966
g65
tp92
a(g74
F1.5707963267948966
g65
tp93
a(g74
F1.5707963267948966
g65
tp94
ag94
ag94
ag94
a(g74
F1.5707963267948966
g69
tp95
a(g74
F1.5707963267948966
g65
tp96
ag94
ag95
a(g61
F1.5707963267948966
g69
tp97
a(g61
F1.5707963267948966
g69
tp98
a(g61
F1.5707963267948966
g65
tp99
a(g61
F1.5707963267948966
g62
tp100
a(g61
F1.5707963267948966
g62
tp101
ag101
a(g74
F1.5707963267948966
g62
tp102
a(g74
F1.5707963267948966
g62
tp103
ag103
ag90
ag91
ag90
ag96
ag94
ag94
ag93
ag93
ag94
ag94
ag94
ag94
ag94
a(g74
F1.5707963267948966
g62
tp104
ag90
ag96
ag94
ag95
a(g81
F1.5707963267948966
g69
tp105
a(g81
F1.5707963267948966
g69
tp106
a(g81
F1.5707963267948966
g62
tp107
a(g81
F1.5707963267948966
g69
tp108
a(g81
F1.5707963267948966
g65
tp109
a(g81
F1.5707963267948966
g69
tp110
a(g81
F1.5707963267948966
g69
tp111
ag106
ag111
ag111
ag107
ag89
a(g74
F1.5707963267948966
g62
tp112
ag90
ag97
a(g61
F1.5707963267948966
g62
tp113
a(g61
F1.5707963267948966
g65
tp114
ag100
ag101
a(g61
F1.5707963267948966
g69
tp115
ag113
ag114
a(g61
F1.5707963267948966
g69
tp116
ag113
ag114
a(g61
F1.5707963267948966
g65
tp117
ag116
ag98
ag98
a(g61
F1.5707963267948966
g69
tp118
ag98
ag113
ag115
ag98
ag113
ag115
ag98
ag113
ag115
ag118
ag118
ag118
ag113
ag102
ag92
ag95
ag105
ag106
ag107
a(S'p3'
p119
F1.5707963267948966
g62
tp120
asS's'
p121
(lp122
(g61
I0
g22
tp123
ag63
ag64
ag64
ag66
ag67
ag68
ag68
ag70
ag71
ag72
ag72
ag73
ag66
ag70
ag72
ag73
ag75
ag76
ag77
ag78
ag79
ag79
ag78
ag79
ag79
ag80
ag82
ag83
ag84
ag85
ag83
ag84
ag86
ag87
ag87
ag88
ag89
ag90
ag91
ag92
ag93
ag94
ag94
ag94
ag94
ag95
ag96
ag94
ag95
ag97
ag98
ag99
ag100
ag101
ag101
ag102
ag103
ag103
ag90
ag91
ag90
ag96
ag94
ag94
ag93
ag93
ag94
ag94
ag94
ag94
ag94
ag104
ag90
ag96
ag94
ag95
ag105
ag106
ag107
ag108
ag109
ag110
ag111
ag106
ag111
ag111
ag107
ag89
ag112
ag90
ag97
ag113
ag114
ag100
ag101
ag115
ag113
ag114
ag116
ag113
ag114
ag117
ag116
ag98
ag98
ag118
ag98
ag113
ag115
ag98
ag113
ag115
ag98
ag113
ag115
ag118
ag118
ag118
ag113
ag102
ag92
ag95
ag105
ag106
ag107
asS'ui'
p124
(lp125
S'hp'
p126
ag59
ag126
ag59
ag126
aS'hs'
p127
ag127
ag126
ag126
ag127
aS'ss'
p128
ag127
ag59
ag127
ag127
ag128
ag59
ag59
ag127
ag127
ag127
ag127
ag128
ag59
ag128
ag127
ag127
ag127
ag126
ag126
ag59
ag127
ag59
ag126
ag126
ag126
ag128
ag126
ag128
ag127
ag127
ag128
ag127
ag127
ag128
ag127
ag59
ag128
ag128
ag128
ag128
ag128
ag126
ag59
ag59
ag59
ag59
ag59
ag126
ag59
ag126
ag126
ag128
ag127
ag127
ag128
ag127
ag126
ag128
ag126
ag128
ag128
ag126
ag59
ag128
ag127
ag59
ag127
ag127
ag126
ag128
ag127
ag59
ag128
ag127
ag59
ag127
ag126
ag59
ag126
ag127
ag127
ag59
ag126
ag127
ag126
ag128
ag128
ag126
ag127
ag127
ag127
ag126
ag128
ag128
ag59
ag127
ag127
ag59
ag128
ag127
ag128
ag128
ag127
ag126
ag127
ag59
ag127
ag127
ag59
ag59
ag127
ag127
ag128
ag127
ag59
asS'um_before'
p129
(lp130
g126
ag128
ag128
ag127
ag128
ag59
ag59
ag127
ag59
ag128
ag128
ag127
ag127
ag127
ag128
ag127
ag59
ag128
ag127
ag128
ag59
ag59
ag128
ag59
ag59
ag127
ag59
ag127
ag127
ag127
ag127
ag127
ag59
ag59
ag59
ag126
ag128
ag126
ag127
ag127
ag59
ag128
ag128
ag128
ag128
ag127
ag126
ag128
ag127
ag128
ag128
ag126
ag126
ag128
ag128
ag59
ag128
ag128
ag126
ag127
ag126
ag126
ag128
ag128
ag59
ag59
ag128
ag128
ag128
ag128
ag128
ag126
ag126
ag126
ag128
ag127
ag59
ag128
ag127
ag126
ag126
ag127
ag59
ag128
ag59
ag59
ag127
ag128
ag59
ag126
ag128
ag127
ag127
ag126
ag128
ag126
ag127
ag127
ag127
ag127
ag127
ag128
ag127
ag128
ag128
ag59
ag128
ag127
ag126
ag128
ag127
ag126
ag128
ag127
ag126
ag59
ag59
ag59
ag127
ag59
ag127
ag127
ag59
ag128
ag127
ag59
asS'um_after'
p131
(lp132
g126
ag128
ag128
ag127
ag128
ag59
ag59
ag127
ag59
ag128
ag128
ag127
ag127
ag127
ag128
ag127
ag59
ag128
ag127
ag128
ag59
ag59
ag128
ag59
ag59
ag127
ag59
ag127
ag127
ag127
ag127
ag127
ag59
ag59
ag59
ag126
ag128
ag126
ag127
ag127
ag59
ag128
ag128
ag128
ag128
ag127
ag126
ag128
ag127
ag128
ag128
ag126
ag126
ag128
ag128
ag59
ag128
ag128
ag126
ag127
ag126
ag126
ag128
ag128
ag59
ag59
ag128
ag128
ag128
ag128
ag128
ag126
ag126
ag126
ag128
ag127
ag59
ag128
ag127
ag126
ag126
ag127
ag59
ag128
ag59
ag59
ag127
ag128
ag59
ag126
ag128
ag127
ag127
ag126
ag128
ag126
ag127
ag127
ag127
ag127
ag127
ag128
ag127
ag128
ag128
ag59
ag128
ag127
ag126
ag128
ag127
ag126
ag128
ag127
ag126
ag59
ag59
ag59
ag127
ag59
ag127
ag127
ag59
ag128
ag127
ag59
asS'is_normalized_entropy_less_than_threshold'
p133
(lp134
g49
(g50
(S'b1'
p135
I0
I1
tp136
Rp137
(I3
S'|'
p138
NNNI-1
I-1
I0
tp139
bS'\x01'
p140
tp141
Rp142
ag142
ag142
ag142
ag142
ag142
ag142
ag142
ag142
ag142
ag142
ag142
ag142
ag142
ag142
ag142
ag142
ag142
ag142
ag142
ag142
ag142
ag142
ag142
ag142
ag142
ag142
ag142
ag142
ag142
ag142
ag142
ag142
ag142
ag142
ag142
ag142
ag142
ag142
ag142
ag142
ag142
ag142
ag142
ag142
ag142
ag142
ag142
ag142
ag142
ag142
ag142
ag142
ag142
ag142
ag142
ag142
ag142
ag142
ag142
ag142
ag142
ag142
ag142
ag142
ag142
ag142
ag142
ag142
ag142
ag142
ag142
ag142
ag142
ag142
ag142
ag142
ag142
ag142
ag142
ag142
ag142
ag142
ag142
ag142
ag142
ag142
ag142
ag142
ag142
ag142
ag142
ag142
ag142
ag142
ag142
ag142
ag142
ag142
ag142
ag142
ag142
ag142
ag142
ag142
ag142
ag142
ag142
ag142
ag142
ag142
ag142
ag142
ag142
ag142
ag142
ag142
ag142
ag142
ag142
ag142
ag142
ag142
ag142
ag142
ag142
asaa(lp143
S'index'
p144
aI13584
aatp145
Rp146
.