ccollections
OrderedDict
p0
((lp1
(lp2
S'combination_dict'
p3
ag0
((lp4
(lp5
S'r_to_g_config'
p6
aS'bl'
p7
aa(lp8
S'num_turns'
p9
aI3
aa(lp10
S'start_direction'
p11
acutils_ms
StartDirection
p12
(I0
tp13
Rp14
aa(lp15
S'assistance_type'
p16
acutils_ms
AssistanceType
p17
(I1
tp18
Rp19
aa(lp20
S'start_mode'
p21
aS't'
p22
aa(lp23
S'ui_given_a_noise'
p24
aF0.3
aa(lp25
S'um_given_ui_noise'
p26
aF0.3
aa(lp27
S'entropy_threshold'
p28
aF0.9
aatp29
Rp30
aa(lp31
S'data'
p32
accollections
defaultdict
p33
(c__builtin__
list
p34
tp35
Rp36
S'a'
p37
(lp38
S'mode_r'
p39
aS'move_n'
p40
ag39
ag40
aS'mode_l'
p41
ag40
ag41
aS'move_p'
p42
ag41
ag41
ag42
ag39
ag41
ag40
ag41
ag42
ag41
ag42
ag41
ag40
asS'assistance_match_with_ground_truth'
p43
(lp44
I01
aI01
aI01
aI01
aI01
aI01
aI01
aI01
aI00
aI00
aI00
aI00
aI01
aI01
aI01
aI01
aI00
aI01
aI01
aI01
asS'is_u_intended_equals_um'
p45
(lp46
I00
aI01
aI01
aI00
aI01
aI01
aI01
aI01
aI01
aI01
aI01
aI01
aI01
aI01
aI01
aI00
aI01
aI01
aI00
aI00
asS'total_steps'
p47
I20
sS'normalized_h_of_p_ui_given_um'
p48
(lp49
cnumpy.core.multiarray
scalar
p50
(cnumpy
dtype
p51
(S'f8'
p52
I0
I1
tp53
Rp54
(I3
S'<'
p55
NNNI-1
I-1
I0
tp56
bS'f"O\n`\x0c\xe8?'
p57
tp58
Rp59
ag50
(g54
S'^\x96u\x88\xd7\xf1\xb6?'
p60
tp61
Rp62
ag50
(g54
S"\x88\x07\xa4\xe5'\xd2\xcb?"
p63
tp64
Rp65
ag50
(g54
S'\x05\xeei\xa6\x94<\xe2?'
p66
tp67
Rp68
ag50
(g54
S'\xd0\x97b0\xad\xda\xc7?'
p69
tp70
Rp71
ag50
(g54
S'^\x96u\x88\xd7\xf1\xb6?'
p72
tp73
Rp74
ag50
(g54
S'\xd0\x97b0\xad\xda\xc7?'
p75
tp76
Rp77
ag50
(g54
S'\x1946(U]\xc6?'
p78
tp79
Rp80
ag50
(g54
S'F\xe6\x98\xc0\x81\xc3\xe2?'
p81
tp82
Rp83
ag50
(g54
S'A\x05\xb3\xf8\xd9\x1d\xe6?'
p84
tp85
Rp86
ag50
(g54
S'Z^k\xbe\xeb%\xe1?'
p87
tp88
Rp89
ag50
(g54
S'\xd9<\x8f\xc26F\xe6?'
p90
tp91
Rp92
ag50
(g54
S'\xd0\x97b0\xad\xda\xc7?'
p93
tp94
Rp95
ag50
(g54
S'^\x96u\x88\xd7\xf1\xb6?'
p96
tp97
Rp98
ag50
(g54
S'\xd0\x97b0\xad\xda\xc7?'
p99
tp100
Rp101
ag50
(g54
S'\xe4L\xc1\xef@\xf2\xe9?'
p102
tp103
Rp104
ag50
(g54
S'A\x05\xb3\xf8\xd9\x1d\xe6?'
p105
tp106
Rp107
ag50
(g54
S'\x1946(U]\xc6?'
p108
tp109
Rp110
ag50
(g54
S'\xf9<[w\x8f;\xeb?'
p111
tp112
Rp113
ag50
(g54
S'\x05\xeei\xa6\x94<\xe2?'
p114
tp115
Rp116
asS'sp'
p117
(lp118
(S'p0'
p119
I0
S'x'
p120
tp121
a(S'p1'
p122
I0
g120
tp123
a(g122
I0
S'y'
p124
tp125
a(S'p2'
p126
I0
g124
tp127
a(g126
I0
g120
tp128
a(S'p3'
p129
I0
g120
tp130
a(g129
I0
S't'
p131
tp132
a(g129
F1.5707963267948966
g131
tp133
a(g129
F1.5707963267948966
g131
tp134
a(g129
I0
g131
tp135
a(g129
I0
g124
tp136
a(g126
I0
g124
tp137
ag128
ag130
ag132
ag133
ag135
ag133
a(g129
F1.5707963267948966
g124
tp138
a(S'p4'
p139
F1.5707963267948966
g124
tp140
asS's'
p141
(lp142
(g119
I0
g22
tp143
ag121
ag123
ag125
ag127
ag128
ag130
ag132
ag133
ag134
ag135
ag136
ag137
ag128
ag130
ag132
ag133
ag135
ag133
ag138
asS'ui'
p144
(lp145
S'ss'
p146
ag146
aS'hp'
p147
ag146
ag147
ag146
aS'hs'
p148
ag117
ag148
ag146
ag148
ag148
ag148
ag146
ag148
ag146
ag148
ag117
ag148
ag146
asS'um_before'
p149
(lp150
g146
ag146
ag147
ag148
ag148
ag146
ag148
ag117
ag117
ag146
ag148
ag117
ag148
ag146
ag148
ag146
ag146
ag117
ag147
ag148
asS'um_after'
p151
(lp152
g147
ag146
ag147
ag146
ag148
ag146
ag148
ag117
ag117
ag146
ag148
ag117
ag148
ag146
ag148
ag117
ag146
ag117
ag148
ag146
asS'is_normalized_entropy_less_than_threshold'
p153
(lp154
g50
(g51
(S'b1'
p155
I0
I1
tp156
Rp157
(I3
S'|'
p158
NNNI-1
I-1
I0
tp159
bS'\x01'
p160
tp161
Rp162
ag162
ag162
ag162
ag162
ag162
ag162
ag162
ag162
ag162
ag162
ag162
ag162
ag162
ag162
ag162
ag162
ag162
ag162
ag162
asaa(lp163
S'index'
p164
aI78693
aatp165
Rp166
.