ccollections
OrderedDict
p0
((lp1
(lp2
S'combination_dict'
p3
ag0
((lp4
(lp5
S'r_to_g_config'
p6
aS'bl'
p7
aa(lp8
S'num_turns'
p9
aI2
aa(lp10
S'start_direction'
p11
acutils_ms
StartDirection
p12
(I1
tp13
Rp14
aa(lp15
S'assistance_type'
p16
acutils_ms
AssistanceType
p17
(I0
tp18
Rp19
aa(lp20
S'start_mode'
p21
aS't'
p22
aa(lp23
S'ui_given_a_noise'
p24
aF0.1
aa(lp25
S'um_given_ui_noise'
p26
aF0.7
aa(lp27
S'entropy_threshold'
p28
aF0.6
aatp29
Rp30
aa(lp31
S'data'
p32
accollections
defaultdict
p33
(c__builtin__
list
p34
tp35
Rp36
S'a'
p37
(lp38
S'mode_l'
p39
aS'move_n'
p40
ag39
ag39
ag39
ag39
ag40
ag40
ag40
ag40
ag40
ag40
ag40
ag40
ag40
ag40
ag39
ag39
aS'move_p'
p41
ag39
ag39
ag40
asS'assistance_match_with_ground_truth'
p42
(lp43
I01
aI01
aI00
aI00
aI00
aI01
aI00
aI00
aI00
aI00
aI00
aI00
aI00
aI00
aI00
aI01
aI00
aI01
aI01
aI00
aI01
aI01
asS'is_u_intended_equals_um'
p44
(lp45
I01
aI01
aI00
aI00
aI00
aI01
aI00
aI00
aI00
aI00
aI00
aI00
aI00
aI00
aI00
aI01
aI00
aI01
aI01
aI00
aI01
aI01
asS'total_steps'
p46
I22
sS'normalized_h_of_p_ui_given_um'
p47
(lp48
cnumpy.core.multiarray
scalar
p49
(cnumpy
dtype
p50
(S'f8'
p51
I0
I1
tp52
Rp53
(I3
S'<'
p54
NNNI-1
I-1
I0
tp55
bS'\xde_{2i\xdd\xcf?'
p56
tp57
Rp58
ag49
(g53
S'\x98\xb8\x80\xc3\x1c\xfe\xb9?'
p59
tp60
Rp61
ag49
(g53
S'H\xc3\x88\x16e\xff\xe0?'
p62
tp63
Rp64
ag49
(g53
S'H\xc3\x88\x16e\xff\xe0?'
p65
tp66
Rp67
ag49
(g53
S'#\xb7x\xe2\xf9\x05\xea?'
p68
tp69
Rp70
ag49
(g53
S'\xde_{2i\xdd\xcf?'
p71
tp72
Rp73
ag49
(g53
S'\x14\x8cwb\x90P\xcf?'
p74
tp75
Rp76
ag49
(g53
S'\xba\xf1\xab\xf8w\xe7\xdf?'
p77
tp78
Rp79
ag49
(g53
S'\x14\x8cwb\x90P\xcf?'
p80
tp81
Rp82
ag49
(g53
S'\x14\x8cwb\x90P\xcf?'
p83
tp84
Rp85
ag49
(g53
S'F\x04\xac\xa8\xd5E\xd9?'
p86
tp87
Rp88
ag49
(g53
S'\xba\xf1\xab\xf8w\xe7\xdf?'
p89
tp90
Rp91
ag49
(g53
S'\xba\xf1\xab\xf8w\xe7\xdf?'
p92
tp93
Rp94
ag49
(g53
S'F\x04\xac\xa8\xd5E\xd9?'
p95
tp96
Rp97
ag49
(g53
S'F\x04\xac\xa8\xd5E\xd9?'
p98
tp99
Rp100
ag49
(g53
S'\x98\xb8\x80\xc3\x1c\xfe\xb9?'
p101
tp102
Rp103
ag49
(g53
S'H\xc3\x88\x16e\xff\xe0?'
p104
tp105
Rp106
ag49
(g53
S'\xde_{2i\xdd\xcf?'
p107
tp108
Rp109
ag49
(g53
S'\xfa\xda5+K!\xc8?'
p110
tp111
Rp112
ag49
(g53
S'\xcfYN>)X\xd7?'
p113
tp114
Rp115
ag49
(g53
S'\xde_{2i\xdd\xcf?'
p116
tp117
Rp118
ag49
(g53
S'\x98\xb8\x80\xc3\x1c\xfe\xb9?'
p119
tp120
Rp121
asS'sp'
p122
(lp123
(S'p0'
p124
I0
S'y'
p125
tp126
a(S'p1'
p127
I0
g125
tp128
ag128
ag128
a(g127
I0
g125
tp129
a(g127
I0
S'x'
p130
tp131
ag131
ag131
ag131
ag131
ag131
ag131
ag131
ag131
ag131
a(S'p2'
p132
I0
g130
tp133
ag133
a(g132
I0
S't'
p134
tp135
a(g132
F1.5707963267948966
g134
tp136
ag136
a(g132
F1.5707963267948966
g125
tp137
a(S'p3'
p138
F1.5707963267948966
g125
tp139
asS's'
p140
(lp141
(g124
I0
g22
tp142
ag126
ag128
ag128
ag128
ag129
ag131
ag131
ag131
ag131
ag131
ag131
ag131
ag131
ag131
ag131
ag133
ag133
ag135
ag136
ag136
ag137
asS'ui'
p143
(lp144
S'ss'
p145
ag145
aS'hs'
p146
ag146
ag122
ag146
ag122
ag145
ag145
ag145
ag122
ag145
ag145
ag145
ag145
ag145
ag146
ag146
ag122
ag146
ag146
ag122
asS'um_before'
p147
(lp148
g146
ag145
ag122
ag122
ag145
ag146
ag146
ag122
ag146
ag146
aS'hp'
p149
ag122
ag122
ag149
ag149
ag145
ag122
ag146
ag122
ag149
ag146
ag145
asS'um_after'
p150
(lp151
g146
ag145
aNaNag145
ag146
aNaNaNaNaNaNaNaNaNag145
aNag146
ag122
aNag146
ag145
asS'is_normalized_entropy_less_than_threshold'
p152
(lp153
g49
(g50
(S'b1'
p154
I0
I1
tp155
Rp156
(I3
S'|'
p157
NNNI-1
I-1
I0
tp158
bS'\x01'
p159
tp160
Rp161
ag161
ag161
ag161
ag49
(g156
S'\x00'
p162
tp163
Rp164
ag161
ag161
ag161
ag161
ag161
ag161
ag161
ag161
ag161
ag161
ag161
ag161
ag161
ag161
ag161
ag161
ag161
asaa(lp165
S'index'
p166
aI72967
aatp167
Rp168
.