ccollections
OrderedDict
p0
((lp1
(lp2
S'combination_dict'
p3
ag0
((lp4
(lp5
S'r_to_g_config'
p6
aS'bl'
p7
aa(lp8
S'num_turns'
p9
aI2
aa(lp10
S'start_direction'
p11
acutils_ms
StartDirection
p12
(I0
tp13
Rp14
aa(lp15
S'assistance_type'
p16
acutils_ms
AssistanceType
p17
(I1
tp18
Rp19
aa(lp20
S'start_mode'
p21
aS'y'
p22
aa(lp23
S'ui_given_a_noise'
p24
aF0.7
aa(lp25
S'um_given_ui_noise'
p26
aF0.5
aa(lp27
S'entropy_threshold'
p28
aF0.5
aatp29
Rp30
aa(lp31
S'data'
p32
accollections
defaultdict
p33
(c__builtin__
list
p34
tp35
Rp36
S'a'
p37
(lp38
S'mode_l'
p39
ag39
ag39
aS'mode_r'
p40
aS'move_n'
p41
ag41
ag41
ag40
ag40
ag41
ag39
ag40
ag40
ag39
ag40
ag39
ag41
ag40
ag41
ag39
ag40
ag40
ag40
ag40
ag40
ag40
ag41
ag39
ag40
ag41
ag40
ag40
ag40
ag40
ag39
ag41
ag39
ag41
ag41
ag41
ag39
ag41
ag40
ag39
ag39
ag39
ag41
ag39
ag41
ag40
ag40
ag40
ag40
ag41
ag40
ag40
ag40
aS'move_p'
p42
ag40
ag41
asS'assistance_match_with_ground_truth'
p43
(lp44
I00
aI00
aI00
aI01
aI00
aI00
aI01
aI00
aI01
aI00
aI00
aI00
aI00
aI00
aI00
aI01
aI00
aI01
aI00
aI00
aI00
aI00
aI00
aI00
aI00
aI01
aI00
aI00
aI01
aI00
aI00
aI00
aI00
aI00
aI01
aI00
aI01
aI00
aI00
aI00
aI01
aI01
aI00
aI00
aI00
aI01
aI00
aI01
aI00
aI00
aI00
aI00
aI01
aI01
aI00
aI00
aI01
aI01
aI01
aI01
asS'is_u_intended_equals_um'
p45
(lp46
I00
aI01
aI01
aI01
aI01
aI01
aI01
aI01
aI01
aI01
aI01
aI01
aI00
aI01
aI00
aI01
aI00
aI01
aI01
aI01
aI01
aI01
aI01
aI01
aI01
aI01
aI01
aI01
aI01
aI00
aI01
aI01
aI01
aI00
aI01
aI01
aI01
aI01
aI01
aI01
aI01
aI01
aI00
aI00
aI00
aI01
aI01
aI01
aI00
aI01
aI01
aI01
aI01
aI01
aI01
aI01
aI01
aI01
aI01
aI01
asS'total_steps'
p47
I60
sS'normalized_h_of_p_ui_given_um'
p48
(lp49
cnumpy.core.multiarray
scalar
p50
(cnumpy
dtype
p51
(S'f8'
p52
I0
I1
tp53
Rp54
(I3
S'<'
p55
NNNI-1
I-1
I0
tp56
bS"'\x86\xa2DN\xda\xe7?"
p57
tp58
Rp59
ag50
(g54
S'\xfa\xa5\xdc\xfek\xed\xe5?'
p60
tp61
Rp62
ag50
(g54
S'\xf0\xfd\xf7 \x18\x9c\xec?'
p63
tp64
Rp65
ag50
(g54
S'\x9d\x92\t\x89f[\xe4?'
p66
tp67
Rp68
ag50
(g54
S"'\xcd\x01(\\\x0f\xe3?"
p69
tp70
Rp71
ag50
(g54
S"'\xcd\x01(\\\x0f\xe3?"
p72
tp73
Rp74
ag50
(g54
S'(@qJoe\xe0?'
p75
tp76
Rp77
ag50
(g54
S'\xc4\xb0\tT1\xd1\xe6?'
p78
tp79
Rp80
ag50
(g54
S'\x9d\x92\t\x89f[\xe4?'
p81
tp82
Rp83
ag50
(g54
S'\xd8Z\xcfX\xe3h\xea?'
p84
tp85
Rp86
ag50
(g54
S'\xf0\xfd\xf7 \x18\x9c\xec?'
p87
tp88
Rp89
ag50
(g54
S':\xc9\xe2e\x16\x86\xe0?'
p90
tp91
Rp92
ag50
(g54
S"4'\x89T\xe0*\xe5?"
p93
tp94
Rp95
ag50
(g54
S'\xf0\xfd\xf7 \x18\x9c\xec?'
p96
tp97
Rp98
ag50
(g54
S"4'\x89T\xe0*\xe5?"
p99
tp100
Rp101
ag50
(g54
S'\xe0\xaf\xca\xcc\x86\xa4\xdc?'
p102
tp103
Rp104
ag50
(g54
S'\xbc\x9ay\xbb\xf5\x81\xeb?'
p105
tp106
Rp107
ag50
(g54
S'\x9d\x92\t\x89f[\xe4?'
p108
tp109
Rp110
ag50
(g54
S"'\xcd\x01(\\\x0f\xe3?"
p111
tp112
Rp113
ag50
(g54
S'\xf0\xfd\xf7 \x18\x9c\xec?'
p114
tp115
Rp116
ag50
(g54
S':\xc9\xe2e\x16\x86\xe0?'
p117
tp118
Rp119
ag50
(g54
S':\xc9\xe2e\x16\x86\xe0?'
p120
tp121
Rp122
ag50
(g54
S':\xc9\xe2e\x16\x86\xe0?'
p123
tp124
Rp125
ag50
(g54
S':\xc9\xe2e\x16\x86\xe0?'
p126
tp127
Rp128
ag50
(g54
S':\xc9\xe2e\x16\x86\xe0?'
p129
tp130
Rp131
ag50
(g54
S'\x9d\x92\t\x89f[\xe4?'
p132
tp133
Rp134
ag50
(g54
S'\xd8Z\xcfX\xe3h\xea?'
p135
tp136
Rp137
ag50
(g54
S'\xf0\xfd\xf7 \x18\x9c\xec?'
p138
tp139
Rp140
ag50
(g54
S'\x9d\x92\t\x89f[\xe4?'
p141
tp142
Rp143
ag50
(g54
S'\xbc\x9ay\xbb\xf5\x81\xeb?'
p144
tp145
Rp146
ag50
(g54
S':\xc9\xe2e\x16\x86\xe0?'
p147
tp148
Rp149
ag50
(g54
S'\xc4\xb0\tT1\xd1\xe6?'
p150
tp151
Rp152
ag50
(g54
S'\xc4\xb0\tT1\xd1\xe6?'
p153
tp154
Rp155
ag50
(g54
S"4'\x89T\xe0*\xe5?"
p156
tp157
Rp158
ag50
(g54
S'\xe0\xaf\xca\xcc\x86\xa4\xdc?'
p159
tp160
Rp161
ag50
(g54
S'\xd8Z\xcfX\xe3h\xea?'
p162
tp163
Rp164
ag50
(g54
S'\xe0\xaf\xca\xcc\x86\xa4\xdc?'
p165
tp166
Rp167
ag50
(g54
S"'\xcd\x01(\\\x0f\xe3?"
p168
tp169
Rp170
ag50
(g54
S"'\xcd\x01(\\\x0f\xe3?"
p171
tp172
Rp173
ag50
(g54
S'\xd8Z\xcfX\xe3h\xea?'
p174
tp175
Rp176
ag50
(g54
S'\xe0\xaf\xca\xcc\x86\xa4\xdc?'
p177
tp178
Rp179
ag50
(g54
S'(@qJoe\xe0?'
p180
tp181
Rp182
ag50
(g54
S"4'\x89T\xe0*\xe5?"
p183
tp184
Rp185
ag50
(g54
S"'\x86\xa2DN\xda\xe7?"
p186
tp187
Rp188
ag50
(g54
S"'\x86\xa2DN\xda\xe7?"
p189
tp190
Rp191
ag50
(g54
S'\xe0\xaf\xca\xcc\x86\xa4\xdc?'
p192
tp193
Rp194
ag50
(g54
S'\xd8Z\xcfX\xe3h\xea?'
p195
tp196
Rp197
ag50
(g54
S'\xe0\xaf\xca\xcc\x86\xa4\xdc?'
p198
tp199
Rp200
ag50
(g54
S'\xbc\x9ay\xbb\xf5\x81\xeb?'
p201
tp202
Rp203
ag50
(g54
S'\xc4\xb0\tT1\xd1\xe6?'
p204
tp205
Rp206
ag50
(g54
S':\xc9\xe2e\x16\x86\xe0?'
p207
tp208
Rp209
ag50
(g54
S':\xc9\xe2e\x16\x86\xe0?'
p210
tp211
Rp212
ag50
(g54
S'\x9d\x92\t\x89f[\xe4?'
p213
tp214
Rp215
ag50
(g54
S'(@qJoe\xe0?'
p216
tp217
Rp218
ag50
(g54
S':\xc9\xe2e\x16\x86\xe0?'
p219
tp220
Rp221
ag50
(g54
S':\xc9\xe2e\x16\x86\xe0?'
p222
tp223
Rp224
ag50
(g54
S'\x9d\x92\t\x89f[\xe4?'
p225
tp226
Rp227
ag50
(g54
S'\xe9\xba\x85\xb4\x15\xa2\xd3?'
p228
tp229
Rp230
ag50
(g54
S'\x9d\x92\t\x89f[\xe4?'
p231
tp232
Rp233
ag50
(g54
S'(@qJoe\xe0?'
p234
tp235
Rp236
asS'sp'
p237
(lp238
(S'p0'
p239
I0
S'y'
p240
tp241
a(g239
I0
g240
tp242
a(g239
I0
S't'
p243
tp244
a(g239
I0
S'x'
p245
tp246
a(g239
I0
g245
tp247
ag247
a(S'p1'
p248
I0
g245
tp249
a(g248
I0
g245
tp250
a(g248
I0
g240
tp251
a(g248
I0
g243
tp252
a(g248
I0
g245
tp253
a(g248
I0
g245
tp254
a(g248
I0
g243
tp255
ag253
ag255
a(g248
I0
g240
tp256
a(g248
I0
g245
tp257
ag251
a(g239
I0
g240
tp258
ag244
a(g239
I0
g243
tp259
ag259
ag259
ag259
ag259
ag246
a(g239
I0
g240
tp260
ag244
ag246
a(g239
I0
g243
tp261
ag259
a(g239
I0
g243
tp262
ag262
a(g239
I0
g240
tp263
a(g239
I0
g245
tp264
ag260
ag264
ag247
ag247
ag260
ag264
ag249
ag255
a(g248
I0
g243
tp265
ag265
ag256
ag252
ag256
ag257
ag250
ag254
ag254
ag251
a(S'p2'
p266
I0
g240
tp267
a(g266
I0
g240
tp268
ag268
a(g266
I0
g243
tp269
a(g266
F1.5707963267948966
g243
tp270
a(g266
F1.5707963267948966
g245
tp271
a(S'p3'
p272
F1.5707963267948966
g245
tp273
asS's'
p274
(lp275
(g239
I0
g22
tp276
ag241
ag242
ag244
ag246
ag247
ag247
ag249
ag250
ag251
ag252
ag253
ag254
ag255
ag253
ag255
ag256
ag257
ag251
ag258
ag244
ag259
ag259
ag259
ag259
ag259
ag246
ag260
ag244
ag246
ag261
ag259
ag262
ag262
ag263
ag264
ag260
ag264
ag247
ag247
ag260
ag264
ag249
ag255
ag265
ag265
ag256
ag252
ag256
ag257
ag250
ag254
ag254
ag251
ag267
ag268
ag268
ag269
ag270
ag271
asS'ui'
p277
(lp278
S'hs'
p279
aS'ss'
p280
aS'hp'
p281
ag281
ag279
ag279
ag281
ag237
ag281
ag281
ag281
ag237
ag281
ag279
ag281
ag281
ag279
ag237
ag279
ag237
ag237
ag237
ag237
ag237
ag237
ag280
ag280
ag281
ag280
ag279
ag237
ag280
ag281
ag281
ag279
ag237
ag279
ag237
ag237
ag281
ag279
ag280
ag281
ag279
ag279
ag279
ag281
ag279
ag279
ag237
ag237
ag237
ag281
ag280
ag237
ag237
ag281
ag237
ag281
ag280
asS'um_before'
p282
(lp283
g237
ag280
ag281
ag281
ag237
ag237
ag280
ag280
ag281
ag281
ag281
ag237
ag279
ag281
ag279
ag279
ag279
ag281
ag237
ag281
ag237
ag237
ag237
ag237
ag237
ag281
ag281
ag281
ag281
ag279
ag237
ag280
ag280
ag279
ag279
ag281
ag279
ag237
ag237
ag281
ag279
ag280
ag279
ag237
ag237
ag279
ag281
ag279
ag279
ag280
ag237
ag237
ag281
ag280
ag237
ag237
ag281
ag237
ag281
ag280
asS'um_after'
p284
(lp285
g237
ag280
ag281
ag281
ag237
ag237
ag280
ag280
ag281
ag281
ag281
ag237
ag279
ag281
ag279
ag279
ag279
ag281
ag237
ag281
ag237
ag237
ag237
ag237
ag237
ag281
ag281
ag281
ag281
ag279
ag237
ag280
ag280
ag279
ag279
ag281
ag279
ag237
ag237
ag281
ag279
ag280
ag279
ag237
ag237
ag279
ag281
ag279
ag279
ag280
ag237
ag237
ag281
ag280
ag237
ag237
ag281
ag237
ag281
ag280
asS'is_normalized_entropy_less_than_threshold'
p286
(lp287
g50
(g51
(S'b1'
p288
I0
I1
tp289
Rp290
(I3
S'|'
p291
NNNI-1
I-1
I0
tp292
bS'\x00'
p293
tp294
Rp295
ag295
ag295
ag295
ag295
ag295
ag295
ag295
ag295
ag295
ag295
ag295
ag295
ag295
ag295
ag50
(g290
S'\x01'
p296
tp297
Rp298
ag295
ag295
ag295
ag295
ag295
ag295
ag295
ag295
ag295
ag295
ag295
ag295
ag295
ag295
ag295
ag295
ag295
ag295
ag298
ag295
ag298
ag295
ag295
ag295
ag298
ag295
ag295
ag295
ag295
ag298
ag295
ag298
ag295
ag295
ag295
ag295
ag295
ag295
ag295
ag295
ag295
ag298
ag295
ag295
asaa(lp299
S'index'
p300
aI70303
aatp301
Rp302
.