ccollections
OrderedDict
p0
((lp1
(lp2
S'combination_dict'
p3
ag0
((lp4
(lp5
S'r_to_g_config'
p6
aS'tr'
p7
aa(lp8
S'num_turns'
p9
aI2
aa(lp10
S'start_direction'
p11
acutils_ms
StartDirection
p12
(I1
tp13
Rp14
aa(lp15
S'assistance_type'
p16
acutils_ms
AssistanceType
p17
(I2
tp18
Rp19
aa(lp20
S'start_mode'
p21
aS'x'
p22
aa(lp23
S'ui_given_a_noise'
p24
aF0.5
aa(lp25
S'um_given_ui_noise'
p26
aF0.5
aa(lp27
S'entropy_threshold'
p28
aF0.8
aatp29
Rp30
aa(lp31
S'data'
p32
accollections
defaultdict
p33
(c__builtin__
list
p34
tp35
Rp36
S'a'
p37
(lp38
S'mode_r'
p39
ag39
ag39
aS'move_p'
p40
ag39
ag40
ag40
ag39
ag39
aS'mode_l'
p41
ag40
ag39
ag39
ag39
ag40
ag40
ag41
ag41
ag39
ag39
ag41
ag40
ag39
ag39
ag39
ag40
ag41
ag41
ag39
ag39
ag40
ag41
ag41
ag40
ag39
ag39
ag40
ag39
ag40
ag40
ag41
ag40
ag39
ag39
ag40
ag41
ag41
ag40
ag39
ag41
ag41
ag41
ag40
ag41
ag41
ag41
ag41
ag41
ag41
ag41
ag41
ag41
ag39
ag39
ag40
ag40
ag41
ag40
ag39
ag40
ag40
ag39
ag40
ag41
ag39
ag39
ag40
ag40
ag40
ag41
ag40
ag40
ag39
ag39
ag40
ag39
ag41
ag41
ag41
ag39
ag39
ag39
ag40
ag41
ag40
ag39
ag41
ag39
ag39
ag39
ag41
ag41
ag40
asS'assistance_match_with_ground_truth'
p42
(lp43
I00
aI00
aI01
aI01
aI01
aI00
aI01
aI00
aI00
aI01
aI00
aI00
aI00
aI01
aI00
aI00
aI00
aI00
aI00
aI00
aI01
aI00
aI00
aI00
aI01
aI01
aI00
aI00
aI00
aI01
aI00
aI00
aI01
aI00
aI00
aI01
aI00
aI01
aI00
aI01
aI01
aI00
aI00
aI01
aI01
aI00
aI01
aI00
aI00
aI00
aI00
aI01
aI00
aI00
aI00
aI00
aI00
aI00
aI00
aI00
aI00
aI00
aI00
aI01
aI00
aI01
aI01
aI00
aI01
aI00
aI00
aI01
aI01
aI00
aI00
aI00
aI00
aI00
aI00
aI01
aI00
aI01
aI00
aI01
aI01
aI00
aI00
aI00
aI00
aI00
aI00
aI01
aI00
aI01
aI01
aI00
aI00
aI00
aI00
aI00
aI00
aI01
aI01
asS'is_u_intended_equals_um'
p44
(lp45
I01
aI01
aI01
aI01
aI01
aI01
aI01
aI01
aI01
aI01
aI01
aI01
aI01
aI01
aI01
aI01
aI01
aI01
aI01
aI01
aI01
aI01
aI01
aI01
aI01
aI01
aI01
aI01
aI01
aI01
aI01
aI01
aI01
aI01
aI01
aI01
aI01
aI01
aI01
aI01
aI01
aI01
aI01
aI01
aI01
aI01
aI01
aI01
aI01
aI01
aI01
aI01
aI01
aI01
aI01
aI01
aI01
aI01
aI01
aI01
aI01
aI01
aI01
aI01
aI01
aI01
aI01
aI01
aI01
aI01
aI01
aI01
aI01
aI01
aI01
aI01
aI01
aI01
aI01
aI01
aI01
aI01
aI01
aI01
aI01
aI01
aI01
aI01
aI01
aI01
aI01
aI01
aI01
aI01
aI01
aI01
aI01
aI01
aI01
aI01
aI01
aI01
aI01
asS'total_steps'
p46
I103
sS'normalized_h_of_p_ui_given_um'
p47
(lp48
cnumpy.core.multiarray
scalar
p49
(cnumpy
dtype
p50
(S'f8'
p51
I0
I1
tp52
Rp53
(I3
S'<'
p54
NNNI-1
I-1
I0
tp55
bS'm\xb8v\xf3\xfb\x05\xde?'
p56
tp57
Rp58
ag58
ag58
ag58
ag58
ag58
ag58
ag58
ag58
ag58
ag58
ag58
ag58
ag58
ag58
ag58
ag58
ag58
ag58
ag58
ag58
ag58
ag58
ag58
ag58
ag58
ag58
ag58
ag58
ag58
ag58
ag58
ag58
ag58
ag58
ag58
ag58
ag58
ag58
ag58
ag58
ag58
ag58
ag58
ag58
ag58
ag58
ag58
ag58
ag58
ag58
ag58
ag58
ag58
ag58
ag58
ag58
ag58
ag58
ag58
ag58
ag58
ag58
ag58
ag58
ag58
ag58
ag58
ag58
ag58
ag58
ag58
ag58
ag58
ag58
ag58
ag58
ag58
ag58
ag58
ag58
ag58
ag58
ag58
ag58
ag58
ag58
ag58
ag58
ag58
ag58
ag58
ag58
ag58
ag58
ag58
ag58
ag58
ag58
ag58
ag58
ag58
ag58
asS'sp'
p59
(lp60
(S'p0'
p61
I0
S'x'
p62
tp63
ag63
a(g61
I0
S'y'
p64
tp65
a(S'p1'
p66
I0
g64
tp67
a(g66
I0
S't'
p68
tp69
a(g66
I0
g68
tp70
a(g66
F1.5707963267948966
g68
tp71
a(g66
F1.5707963267948966
g68
tp72
a(g66
F1.5707963267948966
g64
tp73
a(g66
F1.5707963267948966
g62
tp74
a(g61
F1.5707963267948966
g62
tp75
a(g61
F1.5707963267948966
g62
tp76
a(g61
F1.5707963267948966
g62
tp77
a(g61
F1.5707963267948966
g64
tp78
a(g61
F1.5707963267948966
g64
tp79
a(g61
F1.5707963267948966
g68
tp80
a(g61
F1.5707963267948966
g68
tp81
a(g61
F1.5707963267948966
g62
tp82
ag76
a(g61
F1.5707963267948966
g68
tp83
a(g61
F1.5707963267948966
g64
tp84
a(g61
F1.5707963267948966
g62
tp85
ag76
ag77
ag78
a(g66
F1.5707963267948966
g64
tp86
a(g66
F1.5707963267948966
g64
tp87
a(g66
F1.5707963267948966
g68
tp88
ag72
a(g66
F1.5707963267948966
g62
tp89
a(g66
F1.5707963267948966
g64
tp90
ag87
ag74
a(g66
F1.5707963267948966
g68
tp91
ag72
ag89
ag75
ag78
ag79
ag86
ag74
ag75
ag77
ag78
ag86
a(g66
F1.5707963267948966
g64
tp92
ag74
ag75
ag83
ag81
ag81
ag84
ag80
ag81
a(g61
F1.5707963267948966
g68
tp93
ag81
ag81
ag93
ag81
ag81
ag93
ag82
ag77
ag78
ag79
ag86
ag74
ag75
ag78
ag79
ag85
ag78
ag86
ag88
ag72
a(g66
I0
g68
tp94
ag70
ag70
a(g66
I0
g62
tp95
a(g66
I0
g68
tp96
ag70
ag71
ag72
ag89
a(S'p2'
p97
F1.5707963267948966
g62
tp98
a(g97
F1.5707963267948966
g68
tp99
a(g97
F1.5707963267948966
g68
tp100
ag100
a(g97
F1.5707963267948966
g62
tp101
a(g97
F1.5707963267948966
g62
tp102
ag102
a(g97
F1.5707963267948966
g64
tp103
a(g66
F1.5707963267948966
g64
tp104
ag74
ag98
ag99
ag101
a(g97
F1.5707963267948966
g62
tp105
ag105
ag99
a(g97
F1.5707963267948966
g68
tp106
a(g97
F1.5707963267948966
g64
tp107
a(S'p3'
p108
F1.5707963267948966
g64
tp109
asS's'
p110
(lp111
(g61
I0
g22
tp112
ag63
ag63
ag65
ag67
ag69
ag70
ag71
ag72
ag73
ag74
ag75
ag76
ag77
ag78
ag79
ag80
ag81
ag82
ag76
ag83
ag84
ag85
ag76
ag77
ag78
ag86
ag87
ag88
ag72
ag89
ag90
ag87
ag74
ag91
ag72
ag89
ag75
ag78
ag79
ag86
ag74
ag75
ag77
ag78
ag86
ag92
ag74
ag75
ag83
ag81
ag81
ag84
ag80
ag81
ag93
ag81
ag81
ag93
ag81
ag81
ag93
ag82
ag77
ag78
ag79
ag86
ag74
ag75
ag78
ag79
ag85
ag78
ag86
ag88
ag72
ag94
ag70
ag70
ag95
ag96
ag70
ag71
ag72
ag89
ag98
ag99
ag100
ag100
ag101
ag102
ag102
ag103
ag104
ag74
ag98
ag99
ag101
ag105
ag105
ag99
ag106
ag107
asS'ui'
p113
(lp114
S'hs'
p115
aS'hp'
p116
ag116
ag59
ag116
aS'ss'
p117
ag59
ag116
ag59
ag115
ag117
ag117
ag115
ag116
ag117
ag117
ag59
ag115
ag59
ag115
ag115
ag117
ag116
ag59
ag116
ag59
ag115
ag115
ag59
ag116
ag59
ag115
ag115
ag116
ag116
ag115
ag59
ag116
ag117
ag59
ag115
ag59
ag116
ag116
ag59
ag117
ag115
ag117
ag116
ag59
ag115
ag115
ag116
ag59
ag59
ag59
ag59
ag117
ag115
ag59
ag117
ag59
ag59
ag59
ag117
ag59
ag115
ag117
ag116
ag117
ag116
ag116
ag59
ag115
ag59
ag116
ag117
ag117
ag117
ag115
ag59
ag59
ag116
ag115
ag116
ag116
ag59
ag115
ag115
ag59
ag116
ag115
ag59
ag115
ag59
ag115
ag115
ag117
ag116
ag115
ag59
ag115
ag59
asS'um_before'
p118
(lp119
g59
ag59
ag116
ag59
ag116
ag117
ag59
ag59
ag115
ag115
ag117
ag117
ag59
ag116
ag117
ag116
ag59
ag116
ag117
ag115
ag115
ag115
ag117
ag59
ag116
ag59
ag59
ag116
ag59
ag116
ag116
ag59
ag115
ag115
ag59
ag116
ag117
ag116
ag117
ag59
ag115
ag117
ag59
ag116
ag59
ag117
ag115
ag117
ag115
ag59
ag59
ag115
ag116
ag59
ag117
ag59
ag59
ag117
ag59
ag59
ag117
ag116
ag59
ag116
ag117
ag59
ag115
ag117
ag116
ag117
ag115
ag116
ag59
ag116
ag59
ag117
ag117
ag117
ag116
ag115
ag117
ag59
ag59
ag116
ag59
ag115
ag59
ag59
ag116
ag59
ag59
ag116
ag117
ag115
ag59
ag115
ag116
ag117
ag117
ag115
ag117
ag115
ag59
asS'um_after'
p120
(lp121
g59
ag59
ag116
ag59
ag116
ag117
ag59
ag59
ag115
ag115
ag117
ag117
ag59
ag116
ag117
ag116
ag59
ag116
ag117
ag115
ag115
ag115
ag117
ag59
ag116
ag59
ag59
ag116
ag59
ag116
ag116
ag59
ag115
ag115
ag59
ag116
ag117
ag116
ag117
ag59
ag115
ag117
ag59
ag116
ag59
ag117
ag115
ag117
ag115
ag59
ag59
ag115
ag116
ag59
ag117
ag59
ag59
ag117
ag59
ag59
ag117
ag116
ag59
ag116
ag117
ag59
ag115
ag117
ag116
ag117
ag115
ag116
ag59
ag116
ag59
ag117
ag117
ag117
ag116
ag115
ag117
ag59
ag59
ag116
ag59
ag115
ag59
ag59
ag116
ag59
ag59
ag116
ag117
ag115
ag59
ag115
ag116
ag117
ag117
ag115
ag117
ag115
ag59
asS'is_normalized_entropy_less_than_threshold'
p122
(lp123
g49
(g50
(S'b1'
p124
I0
I1
tp125
Rp126
(I3
S'|'
p127
NNNI-1
I-1
I0
tp128
bS'\x01'
p129
tp130
Rp131
ag131
ag131
ag131
ag131
ag131
ag131
ag131
ag131
ag131
ag131
ag131
ag131
ag131
ag131
ag131
ag131
ag131
ag131
ag131
ag131
ag131
ag131
ag131
ag131
ag131
ag131
ag131
ag131
ag131
ag131
ag131
ag131
ag131
ag131
ag131
ag131
ag131
ag131
ag131
ag131
ag131
ag131
ag131
ag131
ag131
ag131
ag131
ag131
ag131
ag131
ag131
ag131
ag131
ag131
ag131
ag131
ag131
ag131
ag131
ag131
ag131
ag131
ag131
ag131
ag131
ag131
ag131
ag131
ag131
ag131
ag131
ag131
ag131
ag131
ag131
ag131
ag131
ag131
ag131
ag131
ag131
ag131
ag131
ag131
ag131
ag131
ag131
ag131
ag131
ag131
ag131
ag131
ag131
ag131
ag131
ag131
ag131
ag131
ag131
ag131
ag131
ag131
asaa(lp132
S'index'
p133
aI18135
aatp134
Rp135
.