ccollections
OrderedDict
p0
((lp1
(lp2
S'combination_dict'
p3
ag0
((lp4
(lp5
S'r_to_g_config'
p6
aS'bl'
p7
aa(lp8
S'num_turns'
p9
aI3
aa(lp10
S'start_direction'
p11
acutils_ms
StartDirection
p12
(I0
tp13
Rp14
aa(lp15
S'assistance_type'
p16
acutils_ms
AssistanceType
p17
(I1
tp18
Rp19
aa(lp20
S'start_mode'
p21
aS't'
p22
aa(lp23
S'ui_given_a_noise'
p24
aF0.3
aa(lp25
S'um_given_ui_noise'
p26
aF0.3
aa(lp27
S'entropy_threshold'
p28
aF0.5
aatp29
Rp30
aa(lp31
S'data'
p32
accollections
defaultdict
p33
(c__builtin__
list
p34
tp35
Rp36
S'a'
p37
(lp38
S'mode_r'
p39
aS'move_n'
p40
ag39
aS'mode_l'
p41
ag40
ag39
ag40
ag41
ag39
ag41
ag40
ag39
ag40
ag39
ag41
ag40
asS'assistance_match_with_ground_truth'
p42
(lp43
I01
aI00
aI00
aI01
aI00
aI01
aI01
aI00
aI00
aI01
aI01
aI01
aI00
aI00
aI01
aI01
asS'is_u_intended_equals_um'
p44
(lp45
I01
aI01
aI00
aI01
aI01
aI01
aI01
aI01
aI01
aI01
aI01
aI01
aI01
aI00
aI01
aI01
asS'total_steps'
p46
I16
sS'normalized_h_of_p_ui_given_um'
p47
(lp48
cnumpy.core.multiarray
scalar
p49
(cnumpy
dtype
p50
(S'f8'
p51
I0
I1
tp52
Rp53
(I3
S'<'
p54
NNNI-1
I-1
I0
tp55
bS'\xea]\x04\x9f\rO\xcb?'
p56
tp57
Rp58
ag49
(g53
S'\xac@\xd1P\x0e.\xe4?'
p59
tp60
Rp61
ag49
(g53
S'\xf1\xe0>\x96\x14r\xe5?'
p62
tp63
Rp64
ag49
(g53
S'MB\x07\xbf\xba\x15\xc3?'
p65
tp66
Rp67
ag49
(g53
S'\xac@\xd1P\x0e.\xe4?'
p68
tp69
Rp70
ag49
(g53
S'\xea]\x04\x9f\rO\xcb?'
p71
tp72
Rp73
ag49
(g53
S'{\n\x89?\xf8\x80\xce?'
p74
tp75
Rp76
ag49
(g53
S'\xea\xba\x1aP\x9b2\xeb?'
p77
tp78
Rp79
ag49
(g53
S'\xf5\x9b\x1a\x81\xd8\x80\xe3?'
p80
tp81
Rp82
ag49
(g53
S'MB\x07\xbf\xba\x15\xc3?'
p83
tp84
Rp85
ag49
(g53
S'{\n\x89?\xf8\x80\xce?'
p86
tp87
Rp88
ag49
(g53
S'\xea]\x04\x9f\rO\xcb?'
p89
tp90
Rp91
ag49
(g53
S'\xac@\xd1P\x0e.\xe4?'
p92
tp93
Rp94
ag49
(g53
S'\xf1\xe0>\x96\x14r\xe5?'
p95
tp96
Rp97
ag49
(g53
S'MB\x07\xbf\xba\x15\xc3?'
p98
tp99
Rp100
ag49
(g53
S'{\n\x89?\xf8\x80\xce?'
p101
tp102
Rp103
asS'sp'
p104
(lp105
(S'p0'
p106
I0
S'x'
p107
tp108
a(g106
I0
S't'
p109
tp110
a(g106
I0
S'y'
p111
tp112
a(g106
I0
g107
tp113
ag110
ag108
a(S'p1'
p114
I0
g107
tp115
a(g114
I0
g111
tp116
a(S'p2'
p117
I0
g111
tp118
a(g117
I0
g107
tp119
a(S'p3'
p120
I0
g107
tp121
a(g120
I0
g111
tp122
a(g120
I0
g107
tp123
a(g120
I0
g109
tp124
a(g120
I0
g111
tp125
a(S'p4'
p126
I0
g111
tp127
asS's'
p128
(lp129
(g106
I0
g22
tp130
ag108
ag110
ag112
ag113
ag110
ag108
ag115
ag116
ag118
ag119
ag121
ag122
ag123
ag124
ag125
asS'ui'
p131
(lp132
S'hp'
p133
aS'hs'
p134
ag134
ag104
aS'ss'
p135
ag133
ag135
ag134
ag135
ag134
ag135
ag133
ag134
ag104
ag134
ag135
asS'um_before'
p136
(lp137
g133
ag134
ag134
ag134
ag134
ag133
ag135
ag133
ag135
ag134
ag135
ag133
ag134
ag134
ag134
ag135
asS'um_after'
p138
(lp139
g133
ag134
ag134
ag134
ag134
ag133
ag135
ag133
ag135
ag134
ag135
ag133
ag134
ag134
ag134
ag135
asS'is_normalized_entropy_less_than_threshold'
p140
(lp141
g49
(g50
(S'b1'
p142
I0
I1
tp143
Rp144
(I3
S'|'
p145
NNNI-1
I-1
I0
tp146
bS'\x01'
p147
tp148
Rp149
ag49
(g144
S'\x00'
p150
tp151
Rp152
ag152
ag149
ag152
ag149
ag149
ag152
ag152
ag149
ag149
ag149
ag152
ag152
ag149
ag149
asaa(lp153
S'index'
p154
aI78657
aatp155
Rp156
.