ccollections
OrderedDict
p0
((lp1
(lp2
S'combination_dict'
p3
ag0
((lp4
(lp5
S'r_to_g_config'
p6
aS'tl'
p7
aa(lp8
S'num_turns'
p9
aI1
aa(lp10
S'start_direction'
p11
acutils_ms
StartDirection
p12
(I0
tp13
Rp14
aa(lp15
S'assistance_type'
p16
acutils_ms
AssistanceType
p17
(I0
tp18
Rp19
aa(lp20
S'start_mode'
p21
aS't'
p22
aa(lp23
S'ui_given_a_noise'
p24
aF0.1
aa(lp25
S'um_given_ui_noise'
p26
aF0.3
aa(lp27
S'entropy_threshold'
p28
aF0.9
aatp29
Rp30
aa(lp31
S'data'
p32
accollections
defaultdict
p33
(c__builtin__
list
p34
tp35
Rp36
S'a'
p37
(lp38
S'mode_r'
p39
ag39
ag39
ag39
aS'move_n'
p40
aS'mode_l'
p41
ag41
ag41
ag41
ag41
ag41
aS'move_p'
p42
ag42
ag42
ag41
ag42
asS'assistance_match_with_ground_truth'
p43
(lp44
I00
aI00
aI00
aI01
aI01
aI00
aI00
aI00
aI00
aI00
aI01
aI00
aI00
aI01
aI01
aI01
asS'is_u_intended_equals_um'
p45
(lp46
I00
aI00
aI00
aI01
aI01
aI00
aI00
aI00
aI00
aI00
aI01
aI00
aI00
aI01
aI01
aI01
asS'total_steps'
p47
I16
sS'normalized_h_of_p_ui_given_um'
p48
(lp49
cnumpy.core.multiarray
scalar
p50
(cnumpy
dtype
p51
(S'f8'
p52
I0
I1
tp53
Rp54
(I3
S'<'
p55
NNNI-1
I-1
I0
tp56
bS'y\xcf\x07\xdb\x92\xb9\xe3?'
p57
tp58
Rp59
ag50
(g54
S'\r\xd73\xf1\x17\xe0\xe3?'
p60
tp61
Rp62
ag50
(g54
S'y\xcf\x07\xdb\x92\xb9\xe3?'
p63
tp64
Rp65
ag50
(g54
S'A\x85\xe5\x7f\xad\xf4\xbf?'
p66
tp67
Rp68
ag50
(g54
S'g\xe2\x83\\\xc9\x8a\xb6?'
p69
tp70
Rp71
ag50
(g54
S'\x84\n\x87\xab\xebk\xe0?'
p72
tp73
Rp74
ag50
(g54
S'\x84\n\x87\xab\xebk\xe0?'
p75
tp76
Rp77
ag50
(g54
S'\xa3Xb3\xa60\xdb?'
p78
tp79
Rp80
ag50
(g54
S'\x84\n\x87\xab\xebk\xe0?'
p81
tp82
Rp83
ag50
(g54
S'\x84\n\x87\xab\xebk\xe0?'
p84
tp85
Rp86
ag50
(g54
S'\xcf\xff h\x04\xd8\xb1?'
p87
tp88
Rp89
ag50
(g54
S'\xf3\xb4\xbe\x03\x99\xc4\xe4?'
p90
tp91
Rp92
ag50
(g54
S'\x83\x7f\xeb\xfa\x9ex\xe5?'
p93
tp94
Rp95
ag50
(g54
S'\xd4\xc9n%c\xd2\xbd?'
p96
tp97
Rp98
ag50
(g54
S'\xcf\xff h\x04\xd8\xb1?'
p99
tp100
Rp101
ag50
(g54
S'\xd4\xc9n%c\xd2\xbd?'
p102
tp103
Rp104
asS'sp'
p105
(lp106
(S'p0'
p107
I0
g22
tp108
ag108
ag108
a(g107
I0
S'x'
p109
tp110
a(S'p1'
p111
I0
g109
tp112
ag112
ag112
ag112
ag112
ag112
a(g111
I0
S't'
p113
tp114
ag114
ag114
a(g111
F1.5707963267948966
g113
tp115
a(g111
F1.5707963267948966
S'y'
p116
tp117
a(S'p2'
p118
F1.5707963267948966
g116
tp119
asS's'
p120
(lp121
g108
ag108
ag108
ag108
ag110
ag112
ag112
ag112
ag112
ag112
ag112
ag114
ag114
ag114
ag115
ag117
asS'ui'
p122
(lp123
S'hp'
p124
ag124
aS'hs'
p125
ag124
aS'ss'
p126
ag125
ag125
ag126
ag126
ag125
ag125
ag126
ag124
ag105
ag125
ag105
asS'um_before'
p127
(lp128
g105
ag126
ag105
ag124
ag126
ag126
ag126
ag124
ag126
ag126
ag125
ag125
ag124
ag105
ag125
ag105
asS'um_after'
p129
(lp130
NaNaNag124
ag126
aNaNaNaNaNag125
aNaNag105
ag125
ag105
asS'is_normalized_entropy_less_than_threshold'
p131
(lp132
g50
(g51
(S'b1'
p133
I0
I1
tp134
Rp135
(I3
S'|'
p136
NNNI-1
I-1
I0
tp137
bS'\x01'
p138
tp139
Rp140
ag140
ag140
ag140
ag140
ag140
ag140
ag140
ag140
ag140
ag140
ag140
ag140
ag140
ag140
ag140
asaa(lp141
S'index'
p142
aI28894
aatp143
Rp144
.