ccollections
OrderedDict
p0
((lp1
(lp2
S'combination_dict'
p3
ag0
((lp4
(lp5
S'r_to_g_config'
p6
aS'tr'
p7
aa(lp8
S'num_turns'
p9
aI1
aa(lp10
S'start_direction'
p11
acutils_ms
StartDirection
p12
(I0
tp13
Rp14
aa(lp15
S'assistance_type'
p16
acutils_ms
AssistanceType
p17
(I1
tp18
Rp19
aa(lp20
S'start_mode'
p21
aS't'
p22
aa(lp23
S'ui_given_a_noise'
p24
aF0.5
aa(lp25
S'um_given_ui_noise'
p26
aF0.7
aa(lp27
S'entropy_threshold'
p28
aF0.5
aatp29
Rp30
aa(lp31
S'data'
p32
accollections
defaultdict
p33
(c__builtin__
list
p34
tp35
Rp36
S'a'
p37
(lp38
S'mode_r'
p39
ag39
aS'mode_l'
p40
ag40
ag40
ag40
ag40
ag40
ag39
ag39
aS'move_p'
p41
ag40
ag41
ag40
ag40
ag41
ag41
ag39
ag40
ag39
ag40
ag39
ag39
ag40
ag40
ag39
ag39
ag39
ag39
ag39
ag39
ag41
ag41
ag40
ag40
ag40
ag40
ag40
ag40
ag41
ag40
ag40
ag39
ag41
ag39
asS'assistance_match_with_ground_truth'
p42
(lp43
I00
aI00
aI00
aI00
aI00
aI00
aI00
aI00
aI00
aI01
aI01
aI01
aI01
aI00
aI00
aI00
aI00
aI00
aI00
aI00
aI00
aI00
aI00
aI00
aI00
aI00
aI00
aI00
aI00
aI00
aI01
aI00
aI00
aI00
aI00
aI00
aI00
aI00
aI01
aI01
aI00
aI00
aI01
aI00
aI00
asS'is_u_intended_equals_um'
p44
(lp45
I00
aI00
aI00
aI00
aI00
aI00
aI00
aI00
aI01
aI01
aI01
aI01
aI01
aI00
aI00
aI01
aI00
aI00
aI00
aI00
aI00
aI00
aI00
aI00
aI00
aI00
aI01
aI00
aI00
aI00
aI01
aI01
aI00
aI00
aI00
aI00
aI00
aI00
aI01
aI01
aI00
aI00
aI01
aI00
aI01
asS'total_steps'
p46
I45
sS'normalized_h_of_p_ui_given_um'
p47
(lp48
cnumpy.core.multiarray
scalar
p49
(cnumpy
dtype
p50
(S'f8'
p51
I0
I1
tp52
Rp53
(I3
S'<'
p54
NNNI-1
I-1
I0
tp55
bS'\xec\xc2\xf5HY\x95\xea?'
p56
tp57
Rp58
ag49
(g53
S'Sx.\x9e\xbb\xc7\xed?'
p59
tp60
Rp61
ag49
(g53
S'\xfa}\xf0\xd8\xa2\xf5\xe7?'
p62
tp63
Rp64
ag49
(g53
S'\xfa}\xf0\xd8\xa2\xf5\xe7?'
p65
tp66
Rp67
ag49
(g53
S'\xfa}\xf0\xd8\xa2\xf5\xe7?'
p68
tp69
Rp70
ag49
(g53
S'W\xa8S\xf7V\xa6\xef?'
p71
tp72
Rp73
ag49
(g53
S'\xfa}\xf0\xd8\xa2\xf5\xe7?'
p74
tp75
Rp76
ag49
(g53
S'W m}|3\xe8?'
p77
tp78
Rp79
ag49
(g53
S'\xe7\xed\xf4v\x92\xff\xea?'
p80
tp81
Rp82
ag49
(g53
S'l\x90\xb69\x04\x86\xe4?'
p83
tp84
Rp85
ag49
(g53
S'HkdV\x84r\xd3?'
p86
tp87
Rp88
ag49
(g53
S'\x0fZv@f\xdf\xe0?'
p89
tp90
Rp91
ag49
(g53
S'HkdV\x84r\xd3?'
p92
tp93
Rp94
ag49
(g53
S'W\xa8S\xf7V\xa6\xef?'
p95
tp96
Rp97
ag49
(g53
S'\xfa}\xf0\xd8\xa2\xf5\xe7?'
p98
tp99
Rp100
ag49
(g53
S'\xafa\x8c\xc0oJ\xe9?'
p101
tp102
Rp103
ag49
(g53
S'=,(\x8c\xbe\xde\xe7?'
p104
tp105
Rp106
ag49
(g53
S'\xec\xc2\xf5HY\x95\xea?'
p107
tp108
Rp109
ag49
(g53
S'W m}|3\xe8?'
p110
tp111
Rp112
ag49
(g53
S'Sx.\x9e\xbb\xc7\xed?'
p113
tp114
Rp115
ag49
(g53
S'W m}|3\xe8?'
p116
tp117
Rp118
ag49
(g53
S'\xec\xc2\xf5HY\x95\xea?'
p119
tp120
Rp121
ag49
(g53
S'Sx.\x9e\xbb\xc7\xed?'
p122
tp123
Rp124
ag49
(g53
S'W\xa8S\xf7V\xa6\xef?'
p125
tp126
Rp127
ag49
(g53
S'W m}|3\xe8?'
p128
tp129
Rp130
ag49
(g53
S'\xec\xc2\xf5HY\x95\xea?'
p131
tp132
Rp133
ag49
(g53
S'\xe7\xed\xf4v\x92\xff\xea?'
p134
tp135
Rp136
ag49
(g53
S'\xec\xc2\xf5HY\x95\xea?'
p137
tp138
Rp139
ag49
(g53
S'\xec\xc2\xf5HY\x95\xea?'
p140
tp141
Rp142
ag49
(g53
S'\xec\xc2\xf5HY\x95\xea?'
p143
tp144
Rp145
ag49
(g53
S'l\x90\xb69\x04\x86\xe4?'
p146
tp147
Rp148
ag49
(g53
S'\xafa\x8c\xc0oJ\xe9?'
p149
tp150
Rp151
ag49
(g53
S'\x9d<\xd3,gf\xeb?'
p152
tp153
Rp154
ag49
(g53
S'\xfa}\xf0\xd8\xa2\xf5\xe7?'
p155
tp156
Rp157
ag49
(g53
S'\xfa}\xf0\xd8\xa2\xf5\xe7?'
p158
tp159
Rp160
ag49
(g53
S'\xfa}\xf0\xd8\xa2\xf5\xe7?'
p161
tp162
Rp163
ag49
(g53
S'W\xa8S\xf7V\xa6\xef?'
p164
tp165
Rp166
ag49
(g53
S'\xfa}\xf0\xd8\xa2\xf5\xe7?'
p167
tp168
Rp169
ag49
(g53
S'\x0fZv@f\xdf\xe0?'
p170
tp171
Rp172
ag49
(g53
S'HkdV\x84r\xd3?'
p173
tp174
Rp175
ag49
(g53
S'W\xa8S\xf7V\xa6\xef?'
p176
tp177
Rp178
ag49
(g53
S'W m}|3\xe8?'
p179
tp180
Rp181
ag49
(g53
S'l\x90\xb69\x04\x86\xe4?'
p182
tp183
Rp184
ag49
(g53
S'=,(\x8c\xbe\xde\xe7?'
p185
tp186
Rp187
ag49
(g53
S'\xe7\xed\xf4v\x92\xff\xea?'
p188
tp189
Rp190
asS'sp'
p191
(lp192
(S'p0'
p193
I0
S't'
p194
tp195
a(g193
I0
S'y'
p196
tp197
a(g193
I0
g196
tp198
ag198
ag198
a(g193
I0
g196
tp199
ag198
a(g193
I0
g194
tp200
a(g193
I0
g194
tp201
a(g193
I0
S'x'
p202
tp203
a(S'p1'
p204
I0
g202
tp205
a(g204
I0
g194
tp206
a(g204
F1.5707963267948966
g194
tp207
a(g204
F1.5707963267948966
g194
tp208
a(g204
I0
g194
tp209
a(g204
I0
g194
tp210
a(g204
I0
g196
tp211
a(g193
I0
g196
tp212
ag200
ag197
ag200
ag195
ag197
ag199
ag200
ag195
ag201
ag195
ag195
ag195
ag203
a(g193
I0
g202
tp213
a(g193
I0
g196
tp214
ag198
ag198
ag198
ag199
ag198
a(g193
I0
g202
tp215
ag205
a(g204
I0
g202
tp216
a(g204
I0
g196
tp217
a(g204
I0
g194
tp218
ag211
a(S'p2'
p219
I0
g196
tp220
asS's'
p221
(lp222
(g193
I0
g22
tp223
ag195
ag197
ag198
ag198
ag198
ag199
ag198
ag200
ag201
ag203
ag205
ag206
ag207
ag208
ag209
ag210
ag211
ag212
ag200
ag197
ag200
ag195
ag197
ag199
ag200
ag195
ag201
ag195
ag195
ag195
ag203
ag213
ag214
ag198
ag198
ag198
ag199
ag198
ag215
ag205
ag216
ag217
ag218
ag211
asS'ui'
p224
(lp225
S'ss'
p226
aS'hs'
p227
ag227
ag227
ag226
ag227
ag226
aS'hp'
p228
ag191
ag228
ag191
ag227
ag191
ag228
ag228
ag227
ag191
ag227
ag227
ag227
ag228
ag226
ag228
ag191
ag226
ag228
ag227
ag226
ag228
ag226
ag226
ag191
ag227
ag227
ag227
ag226
ag226
ag227
ag227
ag191
ag191
ag227
ag228
ag227
ag226
asS'um_before'
p229
(lp230
g226
ag227
ag226
ag226
ag226
ag191
ag226
ag228
ag191
ag228
ag191
ag227
ag191
ag191
ag226
ag226
ag227
ag226
ag228
ag227
ag228
ag226
ag227
ag191
ag228
ag226
ag191
ag226
ag226
ag226
ag228
ag226
ag228
ag226
ag226
ag226
ag191
ag226
ag227
ag191
ag191
ag228
ag228
ag227
ag191
asS'um_after'
p231
(lp232
g226
ag227
ag226
ag226
ag226
ag191
ag226
ag228
ag191
ag228
ag191
ag227
ag191
ag191
ag226
ag226
ag227
ag226
ag228
ag227
ag228
ag226
ag227
ag191
ag228
ag226
ag191
ag226
ag226
ag226
ag228
ag226
ag228
ag226
ag226
ag226
ag191
ag226
ag227
ag191
ag191
ag228
ag228
ag227
ag191
asS'is_normalized_entropy_less_than_threshold'
p233
(lp234
g49
(g50
(S'b1'
p235
I0
I1
tp236
Rp237
(I3
S'|'
p238
NNNI-1
I-1
I0
tp239
bS'\x00'
p240
tp241
Rp242
ag242
ag242
ag242
ag242
ag242
ag242
ag242
ag242
ag242
ag49
(g237
S'\x01'
p243
tp244
Rp245
ag242
ag245
ag242
ag242
ag242
ag242
ag242
ag242
ag242
ag242
ag242
ag242
ag242
ag242
ag242
ag242
ag242
ag242
ag242
ag242
ag242
ag242
ag242
ag242
ag242
ag242
ag242
ag242
ag245
ag242
ag242
ag242
ag242
ag242
asaa(lp246
S'index'
p247
aI2155
aatp248
Rp249
.