ccollections
OrderedDict
p0
((lp1
(lp2
S'combination_dict'
p3
ag0
((lp4
(lp5
S'r_to_g_config'
p6
aS'tr'
p7
aa(lp8
S'num_turns'
p9
aI1
aa(lp10
S'start_direction'
p11
acutils_ms
StartDirection
p12
(I1
tp13
Rp14
aa(lp15
S'assistance_type'
p16
acutils_ms
AssistanceType
p17
(I1
tp18
Rp19
aa(lp20
S'start_mode'
p21
aS't'
p22
aa(lp23
S'ui_given_a_noise'
p24
aF0.3
aa(lp25
S'um_given_ui_noise'
p26
aF0.5
aa(lp27
S'entropy_threshold'
p28
aF0.6
aatp29
Rp30
aa(lp31
S'data'
p32
accollections
defaultdict
p33
(c__builtin__
list
p34
tp35
Rp36
S'a'
p37
(lp38
S'mode_l'
p39
aS'move_p'
p40
ag40
ag39
ag39
ag40
ag40
ag39
ag40
ag40
aS'mode_r'
p41
ag40
ag40
ag41
ag40
ag41
ag41
ag40
ag39
ag40
asS'assistance_match_with_ground_truth'
p42
(lp43
I01
aI00
aI00
aI00
aI01
aI00
aI00
aI01
aI00
aI01
aI01
aI00
aI01
aI01
aI00
aI00
aI01
aI01
aI01
aI01
asS'is_u_intended_equals_um'
p44
(lp45
I01
aI00
aI01
aI01
aI00
aI00
aI01
aI01
aI00
aI00
aI01
aI00
aI01
aI01
aI00
aI00
aI01
aI01
aI01
aI01
asS'total_steps'
p46
I20
sS'normalized_h_of_p_ui_given_um'
p47
(lp48
cnumpy.core.multiarray
scalar
p49
(cnumpy
dtype
p50
(S'f8'
p51
I0
I1
tp52
Rp53
(I3
S'<'
p54
NNNI-1
I-1
I0
tp55
bS'\xd1\xc7\x9c\xf1\x9cB\xd7?'
p56
tp57
Rp58
ag49
(g53
S'\xee\x01\x80\xfdW\xa7\xea?'
p59
tp60
Rp61
ag49
(g53
S'\xcd\xfb\xfd\xc4\xd0]\xe9?'
p62
tp63
Rp64
ag49
(g53
S'\x12\x8bo\xb3\x92\xca\xe9?'
p65
tp66
Rp67
ag49
(g53
S',\xee\x00\xd7\xed\xee\xe0?'
p68
tp69
Rp70
ag49
(g53
S'\xee\x01\x80\xfdW\xa7\xea?'
p71
tp72
Rp73
ag49
(g53
S'\xcd\xfb\xfd\xc4\xd0]\xe9?'
p74
tp75
Rp76
ag49
(g53
S'\xd1\xc7\x9c\xf1\x9cB\xd7?'
p77
tp78
Rp79
ag49
(g53
S'\xee\x01\x80\xfdW\xa7\xea?'
p80
tp81
Rp82
ag49
(g53
S"<\xeex\xb2Z'\xe3?"
p83
tp84
Rp85
ag49
(g53
S'l:\x99\xba\xab6\xd8?'
p86
tp87
Rp88
ag49
(g53
S'\xee\x01\x80\xfdW\xa7\xea?'
p89
tp90
Rp91
ag49
(g53
S'\xbc\x12\xc1bx\xfc\xcc?'
p92
tp93
Rp94
ag49
(g53
S'l:\x99\xba\xab6\xd8?'
p95
tp96
Rp97
ag49
(g53
S'\xee\x01\x80\xfdW\xa7\xea?'
p98
tp99
Rp100
ag49
(g53
S'\xed\xf9AL!\x1b\xe6?'
p101
tp102
Rp103
ag49
(g53
S'l:\x99\xba\xab6\xd8?'
p104
tp105
Rp106
ag49
(g53
S'\xbc\x12\xc1bx\xfc\xcc?'
p107
tp108
Rp109
ag49
(g53
S'\xd1\xc7\x9c\xf1\x9cB\xd7?'
p110
tp111
Rp112
ag49
(g53
S'\xbc\x12\xc1bx\xfc\xcc?'
p113
tp114
Rp115
asS'sp'
p116
(lp117
(S'p0'
p118
I0
S'y'
p119
tp120
a(g118
I0
g119
tp121
a(g118
I0
S't'
p122
tp123
a(g118
I0
g122
tp124
ag120
ag121
ag123
ag120
ag121
a(S'p1'
p125
I0
g119
tp126
a(g125
I0
g122
tp127
a(g125
I0
g122
tp128
a(g125
F1.5707963267948966
g122
tp129
a(g125
F1.5707963267948966
S'x'
p130
tp131
a(g118
F1.5707963267948966
g130
tp132
a(g118
F1.5707963267948966
g130
tp133
a(g118
F1.5707963267948966
g119
tp134
a(g125
F1.5707963267948966
g119
tp135
a(g125
F1.5707963267948966
g130
tp136
a(S'p2'
p137
F1.5707963267948966
g130
tp138
asS's'
p139
(lp140
(g118
I0
g22
tp141
ag120
ag121
ag123
ag124
ag120
ag121
ag123
ag120
ag121
ag126
ag127
ag128
ag129
ag131
ag132
ag133
ag134
ag135
ag136
asS'ui'
p142
(lp143
S'hs'
p144
ag116
aS'hp'
p145
ag144
ag144
ag145
ag145
ag144
ag145
ag116
ag145
ag116
ag116
ag145
ag145
ag145
ag145
ag144
ag144
ag116
asS'um_before'
p146
(lp147
g144
aS'ss'
p148
ag145
ag148
ag116
ag148
ag145
ag144
ag148
ag144
ag145
ag148
ag116
ag145
ag148
ag148
ag145
ag116
ag144
ag116
asS'um_after'
p149
(lp150
g144
ag148
ag145
ag148
ag144
ag148
ag145
ag144
ag148
ag116
ag145
ag148
ag116
ag145
ag148
ag148
ag145
ag116
ag144
ag116
asS'is_normalized_entropy_less_than_threshold'
p151
(lp152
g49
(g50
(S'b1'
p153
I0
I1
tp154
Rp155
(I3
S'|'
p156
NNNI-1
I-1
I0
tp157
bS'\x01'
p158
tp159
Rp160
ag49
(g155
S'\x00'
p161
tp162
Rp163
ag163
ag163
ag160
ag163
ag163
ag160
ag163
ag160
ag160
ag163
ag160
ag160
ag163
ag163
ag160
ag160
ag160
ag160
asaa(lp164
S'index'
p165
aI7516
aatp166
Rp167
.