ccollections
OrderedDict
p0
((lp1
(lp2
S'combination_dict'
p3
ag0
((lp4
(lp5
S'r_to_g_config'
p6
aS'tl'
p7
aa(lp8
S'num_turns'
p9
aI3
aa(lp10
S'start_direction'
p11
acutils_ms
StartDirection
p12
(I0
tp13
Rp14
aa(lp15
S'assistance_type'
p16
acutils_ms
AssistanceType
p17
(I0
tp18
Rp19
aa(lp20
S'start_mode'
p21
aS't'
p22
aa(lp23
S'ui_given_a_noise'
p24
aF0.7
aa(lp25
S'um_given_ui_noise'
p26
aF0.1
aa(lp27
S'entropy_threshold'
p28
aF0.5
aatp29
Rp30
aa(lp31
S'data'
p32
accollections
defaultdict
p33
(c__builtin__
list
p34
tp35
Rp36
S'a'
p37
(lp38
S'mode_r'
p39
aS'move_n'
p40
ag39
aS'mode_l'
p41
aS'move_p'
p42
ag41
ag41
ag42
ag39
ag39
ag39
ag42
ag39
ag42
ag39
ag39
ag42
ag41
ag40
ag39
ag41
ag41
ag42
ag41
ag41
ag41
ag41
ag41
ag40
ag39
ag42
ag41
ag41
ag40
ag39
ag39
ag40
ag41
ag41
ag39
ag41
ag39
ag40
ag41
ag41
ag42
ag41
ag42
ag42
ag42
ag42
ag42
ag41
ag41
ag41
ag41
ag42
ag42
ag41
ag41
ag42
ag41
ag42
ag42
ag41
ag42
ag39
ag39
ag42
ag41
ag41
ag41
ag41
ag41
ag41
ag40
ag41
ag40
ag39
ag42
asS'assistance_match_with_ground_truth'
p43
(lp44
I01
aI01
aI00
aI01
aI00
aI00
aI01
aI00
aI00
aI00
aI01
aI00
aI01
aI00
aI00
aI01
aI00
aI01
aI01
aI00
aI00
aI01
aI01
aI00
aI00
aI00
aI00
aI01
aI00
aI01
aI01
aI00
aI01
aI00
aI00
aI01
aI01
aI00
aI00
aI00
aI00
aI01
aI01
aI00
aI01
aI01
aI00
aI00
aI00
aI00
aI00
aI00
aI00
aI00
aI00
aI01
aI00
aI01
aI00
aI00
aI01
aI00
aI00
aI01
aI01
aI00
aI00
aI01
aI00
aI00
aI00
aI00
aI00
aI00
aI01
aI00
aI01
aI01
aI01
aI01
asS'is_u_intended_equals_um'
p45
(lp46
I01
aI01
aI01
aI01
aI01
aI01
aI01
aI01
aI01
aI01
aI01
aI01
aI01
aI01
aI01
aI01
aI01
aI01
aI01
aI01
aI01
aI01
aI01
aI01
aI01
aI01
aI01
aI01
aI01
aI01
aI01
aI01
aI01
aI01
aI01
aI01
aI01
aI01
aI01
aI01
aI01
aI01
aI01
aI01
aI01
aI01
aI01
aI01
aI01
aI01
aI01
aI01
aI01
aI01
aI01
aI01
aI01
aI01
aI01
aI01
aI01
aI01
aI01
aI01
aI01
aI01
aI01
aI01
aI01
aI01
aI01
aI01
aI01
aI01
aI01
aI01
aI01
aI01
aI01
aI01
asS'total_steps'
p47
I80
sS'normalized_h_of_p_ui_given_um'
p48
(lp49
cnumpy.core.multiarray
scalar
p50
(cnumpy
dtype
p51
(S'f8'
p52
I0
I1
tp53
Rp54
(I3
S'<'
p55
NNNI-1
I-1
I0
tp56
bS'\xf1G\xe0\x97\xbb\x8c\xc2?'
p57
tp58
Rp59
ag50
(g54
S'\xed&\x00\x8e\rq\xc8?'
p60
tp61
Rp62
ag50
(g54
S'\x92Y\xbe\x05\x80\xff\xdb?'
p63
tp64
Rp65
ag50
(g54
S'\xd4VKv\x95w\xbe?'
p66
tp67
Rp68
ag50
(g54
S'W/\x8b\xa4\xf7\xa2\xd4?'
p69
tp70
Rp71
ag50
(g54
S'\x8aE\xf9\xde\r+\xd7?'
p72
tp73
Rp74
ag50
(g54
S'\xd4VKv\x95w\xbe?'
p75
tp76
Rp77
ag50
(g54
S'\x08\xd8\xa4\x02k$\xd3?'
p78
tp79
Rp80
ag50
(g54
S'\xdd\xf7`\x7f\x8a\xd5\xd9?'
p81
tp82
Rp83
ag50
(g54
S'\x91g\x90J\xc1M\xd9?'
p84
tp85
Rp86
ag50
(g54
S'\xf1G\xe0\x97\xbb\x8c\xc2?'
p87
tp88
Rp89
ag50
(g54
S'\x08\xd8\xa4\x02k$\xd3?'
p90
tp91
Rp92
ag50
(g54
S'\xf1G\xe0\x97\xbb\x8c\xc2?'
p93
tp94
Rp95
ag50
(g54
S'\x08\xd8\xa4\x02k$\xd3?'
p96
tp97
Rp98
ag50
(g54
S'\x91g\x90J\xc1M\xd9?'
p99
tp100
Rp101
ag50
(g54
S'\xf1G\xe0\x97\xbb\x8c\xc2?'
p102
tp103
Rp104
ag50
(g54
S'uO\x9c\xd4E\x1f\xd9?'
p105
tp106
Rp107
ag50
(g54
S'\xd4VKv\x95w\xbe?'
p108
tp109
Rp110
ag50
(g54
S'\xed&\x00\x8e\rq\xc8?'
p111
tp112
Rp113
ag50
(g54
S'\x92Y\xbe\x05\x80\xff\xdb?'
p114
tp115
Rp116
ag50
(g54
S'\x8aE\xf9\xde\r+\xd7?'
p117
tp118
Rp119
ag50
(g54
S'\xd4VKv\x95w\xbe?'
p120
tp121
Rp122
ag50
(g54
S'\x8b\xa6\x1d\x87\x8c\xc5\xc7?'
p123
tp124
Rp125
ag50
(g54
S'\xa2\x13\xfbu&\xa4\xd1?'
p126
tp127
Rp128
ag50
(g54
S'\x8aE\xf9\xde\r+\xd7?'
p129
tp130
Rp131
ag50
(g54
S'\x8aE\xf9\xde\r+\xd7?'
p132
tp133
Rp134
ag50
(g54
S'\x8aE\xf9\xde\r+\xd7?'
p135
tp136
Rp137
ag50
(g54
S'\xd4VKv\x95w\xbe?'
p138
tp139
Rp140
ag50
(g54
S'\xa7\xcbL4\xa4\xfd\xcf?'
p141
tp142
Rp143
ag50
(g54
S'\xf1G\xe0\x97\xbb\x8c\xc2?'
p144
tp145
Rp146
ag50
(g54
S'\x8b\xa6\x1d\x87\x8c\xc5\xc7?'
p147
tp148
Rp149
ag50
(g54
S'\xa2\x13\xfbu&\xa4\xd1?'
p150
tp151
Rp152
ag50
(g54
S'\xd4VKv\x95w\xbe?'
p153
tp154
Rp155
ag50
(g54
S'\x10^}\xce0\xc7\xd9?'
p156
tp157
Rp158
ag50
(g54
S'\x91g\x90J\xc1M\xd9?'
p159
tp160
Rp161
ag50
(g54
S'\xf1G\xe0\x97\xbb\x8c\xc2?'
p162
tp163
Rp164
ag50
(g54
S'\xed&\x00\x8e\rq\xc8?'
p165
tp166
Rp167
ag50
(g54
S'\xa2\x13\xfbu&\xa4\xd1?'
p168
tp169
Rp170
ag50
(g54
S'k\x90\x86\x1cv[\xe9?'
p171
tp172
Rp173
ag50
(g54
S'\x91g\x90J\xc1M\xd9?'
p174
tp175
Rp176
ag50
(g54
S'k\x90\x86\x1cv[\xe9?'
p177
tp178
Rp179
ag50
(g54
S'\xf1G\xe0\x97\xbb\x8c\xc2?'
p180
tp181
Rp182
ag50
(g54
S'\xed&\x00\x8e\rq\xc8?'
p183
tp184
Rp185
ag50
(g54
S'\xa2\x13\xfbu&\xa4\xd1?'
p186
tp187
Rp188
ag50
(g54
S'\xd4VKv\x95w\xbe?'
p189
tp190
Rp191
ag50
(g54
S'\x8b\xa6\x1d\x87\x8c\xc5\xc7?'
p192
tp193
Rp194
ag50
(g54
S'\x8aE\xf9\xde\r+\xd7?'
p195
tp196
Rp197
ag50
(g54
S'uO\x9c\xd4E\x1f\xd9?'
p198
tp199
Rp200
ag50
(g54
S'uO\x9c\xd4E\x1f\xd9?'
p201
tp202
Rp203
ag50
(g54
S'uO\x9c\xd4E\x1f\xd9?'
p204
tp205
Rp206
ag50
(g54
S'uO\x9c\xd4E\x1f\xd9?'
p207
tp208
Rp209
ag50
(g54
S'W/\x8b\xa4\xf7\xa2\xd4?'
p210
tp211
Rp212
ag50
(g54
S'\xa2\x13\xfbu&\xa4\xd1?'
p213
tp214
Rp215
ag50
(g54
S'\xa2\x13\xfbu&\xa4\xd1?'
p216
tp217
Rp218
ag50
(g54
S'\x8aE\xf9\xde\r+\xd7?'
p219
tp220
Rp221
ag50
(g54
S'\xd4VKv\x95w\xbe?'
p222
tp223
Rp224
ag50
(g54
S'uO\x9c\xd4E\x1f\xd9?'
p225
tp226
Rp227
ag50
(g54
S'\x8b\xa6\x1d\x87\x8c\xc5\xc7?'
p228
tp229
Rp230
ag50
(g54
S'\xa2\x13\xfbu&\xa4\xd1?'
p231
tp232
Rp233
ag50
(g54
S'\x8aE\xf9\xde\r+\xd7?'
p234
tp235
Rp236
ag50
(g54
S'\x8b\xa6\x1d\x87\x8c\xc5\xc7?'
p237
tp238
Rp239
ag50
(g54
S'\x8aE\xf9\xde\r+\xd7?'
p240
tp241
Rp242
ag50
(g54
S'uO\x9c\xd4E\x1f\xd9?'
p243
tp244
Rp245
ag50
(g54
S'\x8b\xa6\x1d\x87\x8c\xc5\xc7?'
p246
tp247
Rp248
ag50
(g54
S'\xd4VKv\x95w\xbe?'
p249
tp250
Rp251
ag50
(g54
S'\x08\xd8\xa4\x02k$\xd3?'
p252
tp253
Rp254
ag50
(g54
S'\xdd\xf7`\x7f\x8a\xd5\xd9?'
p255
tp256
Rp257
ag50
(g54
S'\xf1G\xe0\x97\xbb\x8c\xc2?'
p258
tp259
Rp260
ag50
(g54
S'uO\x9c\xd4E\x1f\xd9?'
p261
tp262
Rp263
ag50
(g54
S'\x8aE\xf9\xde\r+\xd7?'
p264
tp265
Rp266
ag50
(g54
S'\x8aE\xf9\xde\r+\xd7?'
p267
tp268
Rp269
ag50
(g54
S'\xa2\x13\xfbu&\xa4\xd1?'
p270
tp271
Rp272
ag50
(g54
S'\x8aE\xf9\xde\r+\xd7?'
p273
tp274
Rp275
ag50
(g54
S'\xa2\x13\xfbu&\xa4\xd1?'
p276
tp277
Rp278
ag50
(g54
S'\xd4VKv\x95w\xbe?'
p279
tp280
Rp281
ag50
(g54
S'\xe5m;\x83\xd3_\xd9?'
p282
tp283
Rp284
ag50
(g54
S'\xd4VKv\x95w\xbe?'
p285
tp286
Rp287
ag50
(g54
S'\xed&\x00\x8e\rq\xc8?'
p288
tp289
Rp290
ag50
(g54
S'\xf1G\xe0\x97\xbb\x8c\xc2?'
p291
tp292
Rp293
ag50
(g54
S'\x8b\xa6\x1d\x87\x8c\xc5\xc7?'
p294
tp295
Rp296
asS'sp'
p297
(lp298
(S'p0'
p299
I0
S'x'
p300
tp301
a(S'p1'
p302
I0
g300
tp303
a(g302
I0
S't'
p304
tp305
a(g302
I0
S'y'
p306
tp307
a(g302
I0
g304
tp308
a(g302
I0
g304
tp309
ag307
a(g302
I0
g300
tp310
a(g302
I0
g300
tp311
a(g302
I0
g300
tp312
a(g302
I0
g306
tp313
ag310
ag313
ag310
ag312
ag313
a(g299
I0
g306
tp314
a(g299
I0
g300
tp315
ag303
ag305
ag309
ag307
a(S'p2'
p316
I0
g306
tp317
a(g316
I0
g306
tp318
a(g316
I0
g306
tp319
ag319
ag319
a(g316
I0
g300
tp320
a(g302
I0
g300
tp321
ag313
ag317
ag318
ag320
a(g316
I0
g304
tp322
a(g316
I0
g304
tp323
a(g316
I0
g300
tp324
a(S'p3'
p325
I0
g300
tp326
a(g325
I0
g300
tp327
a(g325
I0
g306
tp328
a(g316
I0
g306
tp329
a(g316
I0
g304
tp330
ag324
ag326
ag327
a(g325
I0
g304
tp331
a(g325
F1.5707963267948966
g304
tp332
a(g325
I0
g304
tp333
a(g325
I0
g304
tp334
ag334
ag334
ag334
a(g325
I0
g300
tp335
ag327
ag327
a(g325
I0
g300
tp336
ag331
ag334
ag332
a(g325
F1.5707963267948966
g304
tp337
ag333
ag332
ag333
ag334
ag332
a(g325
F1.5707963267948966
g306
tp338
a(g325
F1.5707963267948966
g300
tp339
a(g325
F1.5707963267948966
g300
tp340
a(g325
F1.5707963267948966
g306
tp341
a(g316
F1.5707963267948966
g306
tp342
a(g316
F1.5707963267948966
g306
tp343
ag343
a(g316
F1.5707963267948966
g306
tp344
ag343
ag344
a(g316
F1.5707963267948966
g300
tp345
a(g316
F1.5707963267948966
g306
tp346
ag345
a(g325
F1.5707963267948966
g300
tp347
ag341
a(S'p4'
p348
F1.5707963267948966
g306
tp349
asS's'
p350
(lp351
(g299
I0
g22
tp352
ag301
ag303
ag305
ag307
ag308
ag309
ag307
ag310
ag311
ag312
ag313
ag310
ag313
ag310
ag312
ag313
ag314
ag315
ag303
ag305
ag309
ag307
ag317
ag318
ag319
ag319
ag319
ag320
ag321
ag313
ag317
ag318
ag320
ag322
ag323
ag324
ag326
ag327
ag328
ag329
ag330
ag324
ag326
ag327
ag331
ag332
ag333
ag334
ag334
ag334
ag334
ag335
ag327
ag327
ag336
ag331
ag334
ag332
ag337
ag333
ag332
ag333
ag334
ag332
ag338
ag339
ag340
ag341
ag342
ag343
ag343
ag344
ag343
ag344
ag345
ag346
ag345
ag347
ag341
asS'ui'
p353
(lp354
S'hp'
p355
aS'ss'
p356
aS'hs'
p357
ag357
ag355
ag356
ag357
ag357
ag297
ag356
ag355
ag357
ag355
ag357
ag356
ag355
ag357
ag357
ag356
ag357
ag356
ag357
ag297
ag297
ag356
ag357
ag356
ag357
ag297
ag355
ag297
ag297
ag357
ag356
ag356
ag355
ag356
ag297
ag357
ag356
ag355
ag355
ag356
ag297
ag357
ag297
ag356
ag356
ag356
ag356
ag355
ag355
ag297
ag297
ag357
ag357
ag356
ag297
ag297
ag356
ag297
ag355
ag356
ag297
ag357
ag356
ag297
ag355
ag356
ag357
ag356
ag297
ag356
ag297
ag357
ag355
ag357
ag356
ag355
ag297
asS'um_before'
p358
(lp359
g355
ag356
ag357
ag357
ag355
ag356
ag357
ag357
ag297
ag356
ag355
ag357
ag355
ag357
ag356
ag355
ag356
ag357
ag356
ag357
ag356
ag357
ag297
ag297
ag356
ag356
ag356
ag357
ag297
ag355
ag297
ag297
ag357
ag357
ag356
ag355
ag356
ag297
ag355
ag356
ag355
ag355
ag356
ag297
ag357
ag297
ag356
ag356
ag356
ag356
ag356
ag355
ag297
ag297
ag356
ag357
ag356
ag297
ag297
ag356
ag297
ag356
ag356
ag297
ag357
ag357
ag297
ag355
ag356
ag356
ag356
ag297
ag356
ag297
ag357
ag355
ag357
ag356
ag355
ag297
asS'um_after'
p360
(lp361
g355
ag356
ag357
ag357
ag355
ag356
ag357
ag357
ag297
ag356
ag355
ag357
ag355
ag357
ag356
ag355
ag356
ag357
ag356
ag357
ag356
ag357
ag297
ag297
ag356
ag356
ag356
ag357
ag297
ag355
ag297
ag297
ag357
ag357
ag356
ag355
ag356
ag297
ag355
ag356
ag355
ag355
ag356
ag297
ag357
ag297
ag356
ag356
ag356
ag356
ag356
ag355
ag297
ag297
ag356
ag357
ag356
ag297
ag297
ag356
ag297
ag356
ag356
ag297
ag357
ag357
ag297
ag355
ag356
ag356
ag356
ag297
ag356
ag297
ag357
ag355
ag357
ag356
ag355
ag297
asS'is_normalized_entropy_less_than_threshold'
p362
(lp363
g50
(g51
(S'b1'
p364
I0
I1
tp365
Rp366
(I3
S'|'
p367
NNNI-1
I-1
I0
tp368
bS'\x01'
p369
tp370
Rp371
ag371
ag371
ag371
ag371
ag371
ag371
ag371
ag371
ag371
ag371
ag371
ag371
ag371
ag371
ag371
ag371
ag371
ag371
ag371
ag371
ag371
ag371
ag371
ag371
ag371
ag371
ag371
ag371
ag371
ag371
ag371
ag371
ag371
ag371
ag371
ag371
ag371
ag50
(g366
S'\x00'
p372
tp373
Rp374
ag371
ag374
ag371
ag371
ag371
ag371
ag371
ag371
ag371
ag371
ag371
ag371
ag371
ag371
ag371
ag371
ag371
ag371
ag371
ag371
ag371
ag371
ag371
ag371
ag371
ag371
ag371
ag371
ag371
ag371
ag371
ag371
ag371
ag371
ag371
ag371
ag371
ag371
ag371
ag371
ag371
asaa(lp375
S'index'
p376
aI48608
aatp377
Rp378
.