ccollections
OrderedDict
p0
((lp1
(lp2
S'combination_dict'
p3
ag0
((lp4
(lp5
S'r_to_g_config'
p6
aS'bl'
p7
aa(lp8
S'num_turns'
p9
aI1
aa(lp10
S'start_direction'
p11
acutils_ms
StartDirection
p12
(I1
tp13
Rp14
aa(lp15
S'assistance_type'
p16
acutils_ms
AssistanceType
p17
(I0
tp18
Rp19
aa(lp20
S'start_mode'
p21
aS't'
p22
aa(lp23
S'ui_given_a_noise'
p24
aF0.1
aa(lp25
S'um_given_ui_noise'
p26
aF0.1
aa(lp27
S'entropy_threshold'
p28
aF0.7
aatp29
Rp30
aa(lp31
S'data'
p32
accollections
defaultdict
p33
(c__builtin__
list
p34
tp35
Rp36
S'a'
p37
(lp38
S'mode_l'
p39
aS'move_n'
p40
aS'mode_r'
p41
ag41
aS'move_p'
p42
ag41
ag40
ag41
ag40
ag39
ag40
asS'assistance_match_with_ground_truth'
p43
(lp44
I01
aI01
aI00
aI01
aI01
aI01
aI00
aI01
aI01
aI01
aI01
asS'is_u_intended_equals_um'
p45
(lp46
I01
aI01
aI01
aI01
aI01
aI01
aI01
aI01
aI01
aI01
aI01
asS'total_steps'
p47
I11
sS'normalized_h_of_p_ui_given_um'
p48
(lp49
cnumpy.core.multiarray
scalar
p50
(cnumpy
dtype
p51
(S'f8'
p52
I0
I1
tp53
Rp54
(I3
S'<'
p55
NNNI-1
I-1
I0
tp56
bS'\xaa\xf9\x1ck\xcf\x01\xa6?'
p57
tp58
Rp59
ag50
(g54
S'28\xcf9)\xe3\xa4?'
p60
tp61
Rp62
ag50
(g54
S'\x8cm\xe9\x0c\xf4\xd5\xdc?'
p63
tp64
Rp65
ag50
(g54
S'c\xeas\xacj\x9b\x9c?'
p66
tp67
Rp68
ag50
(g54
S'uT\xac\x07\xf6t\x94?'
p69
tp70
Rp71
ag50
(g54
S'c\xeas\xacj\x9b\x9c?'
p72
tp73
Rp74
ag50
(g54
S'\xb0\xe9\xa1\xd4_\xd1\xe1?'
p75
tp76
Rp77
ag50
(g54
S'c\xeas\xacj\x9b\x9c?'
p78
tp79
Rp80
ag50
(g54
S'28\xcf9)\xe3\xa4?'
p81
tp82
Rp83
ag50
(g54
S'\xaa\xf9\x1ck\xcf\x01\xa6?'
p84
tp85
Rp86
ag50
(g54
S'28\xcf9)\xe3\xa4?'
p87
tp88
Rp89
asS'sp'
p90
(lp91
(S'p0'
p92
I0
S'y'
p93
tp94
a(S'p1'
p95
I0
g93
tp96
a(g95
I0
g93
tp97
a(g95
I0
S't'
p98
tp99
a(g95
F1.5707963267948966
g98
tp100
a(g95
F1.5707963267948966
S'x'
p101
tp102
a(g92
F1.5707963267948966
g101
tp103
a(g92
F1.5707963267948966
g93
tp104
a(g95
F1.5707963267948966
g93
tp105
a(g95
F1.5707963267948966
g101
tp106
a(S'p2'
p107
F1.5707963267948966
g101
tp108
asS's'
p109
(lp110
(g92
I0
g22
tp111
ag94
ag96
ag97
ag99
ag100
ag102
ag103
ag104
ag105
ag106
asS'ui'
p112
(lp113
S'hs'
p114
aS'ss'
p115
ag90
aS'hp'
p116
ag90
ag116
ag90
ag116
ag115
ag114
ag115
asS'um_before'
p117
(lp118
g114
ag115
ag90
ag116
ag90
ag116
ag90
ag116
ag115
ag114
ag115
asS'um_after'
p119
(lp120
g114
ag115
ag90
ag116
ag90
ag116
ag90
ag116
ag115
ag114
ag115
asS'is_normalized_entropy_less_than_threshold'
p121
(lp122
g50
(g51
(S'b1'
p123
I0
I1
tp124
Rp125
(I3
S'|'
p126
NNNI-1
I-1
I0
tp127
bS'\x01'
p128
tp129
Rp130
ag130
ag130
ag130
ag130
ag130
ag130
ag130
ag130
ag130
ag130
asaa(lp131
S'index'
p132
aI63229
aatp133
Rp134
.