ccollections
OrderedDict
p0
((lp1
(lp2
S'combination_dict'
p3
ag0
((lp4
(lp5
S'r_to_g_config'
p6
aS'br'
p7
aa(lp8
S'num_turns'
p9
aI2
aa(lp10
S'start_direction'
p11
acutils_ms
StartDirection
p12
(I0
tp13
Rp14
aa(lp15
S'assistance_type'
p16
acutils_ms
AssistanceType
p17
(I0
tp18
Rp19
aa(lp20
S'start_mode'
p21
aS't'
p22
aa(lp23
S'ui_given_a_noise'
p24
aF0.3
aa(lp25
S'um_given_ui_noise'
p26
aF0.1
aa(lp27
S'entropy_threshold'
p28
aF0.8
aatp29
Rp30
aa(lp31
S'data'
p32
accollections
defaultdict
p33
(c__builtin__
list
p34
tp35
Rp36
S'a'
p37
(lp38
S'mode_r'
p39
aS'move_p'
p40
aS'mode_l'
p41
ag40
ag41
ag40
ag41
ag40
ag39
ag41
ag40
ag40
ag41
ag41
ag40
ag41
aS'move_n'
p42
ag39
ag41
ag42
ag41
ag40
asS'assistance_match_with_ground_truth'
p43
(lp44
I01
aI01
aI01
aI00
aI01
aI00
aI01
aI00
aI00
aI01
aI00
aI01
aI00
aI01
aI01
aI01
aI00
aI00
aI01
aI01
aI01
aI01
asS'is_u_intended_equals_um'
p45
(lp46
I01
aI01
aI01
aI01
aI01
aI01
aI01
aI01
aI01
aI01
aI01
aI01
aI01
aI01
aI01
aI01
aI01
aI01
aI01
aI01
aI01
aI01
asS'total_steps'
p47
I22
sS'normalized_h_of_p_ui_given_um'
p48
(lp49
cnumpy.core.multiarray
scalar
p50
(cnumpy
dtype
p51
(S'f8'
p52
I0
I1
tp53
Rp54
(I3
S'<'
p55
NNNI-1
I-1
I0
tp56
bS'\xab\xdc\xc3\xde\x1e\x8f\xbd?'
p57
tp58
Rp59
ag50
(g54
S"\x01F'!\xd2=\xc8?"
p60
tp61
Rp62
ag50
(g54
S'sU\x8a\xcd\x9c\x96\xb7?'
p63
tp64
Rp65
ag50
(g54
S'!.\xfe\x941o\xe6?'
p66
tp67
Rp68
ag50
(g54
S'sU\x8a\xcd\x9c\x96\xb7?'
p69
tp70
Rp71
ag50
(g54
S'!.\xfe\x941o\xe6?'
p72
tp73
Rp74
ag50
(g54
S'sU\x8a\xcd\x9c\x96\xb7?'
p75
tp76
Rp77
ag50
(g54
S'\x89H\xad"t\xfc\xe1?'
p78
tp79
Rp80
ag50
(g54
S'\x06+E\x006L\xe4?'
p81
tp82
Rp83
ag50
(g54
S'sU\x8a\xcd\x9c\x96\xb7?'
p84
tp85
Rp86
ag50
(g54
S'\xc6(\xec\xa7#\xa2\xdf?'
p87
tp88
Rp89
ag50
(g54
S"\x01F'!\xd2=\xc8?"
p90
tp91
Rp92
ag50
(g54
S'\xdf.\xb0\xb1\x90\xdb\xe2?'
p93
tp94
Rp95
ag50
(g54
S'sU\x8a\xcd\x9c\x96\xb7?'
p96
tp97
Rp98
ag50
(g54
S"\x01F'!\xd2=\xc8?"
p99
tp100
Rp101
ag50
(g54
S'sU\x8a\xcd\x9c\x96\xb7?'
p102
tp103
Rp104
ag50
(g54
S'|\xc0\x0b\xae*\x03\xea?'
p105
tp106
Rp107
ag50
(g54
S'\xad\x9b/,\x08\x1e\xe8?'
p108
tp109
Rp110
ag50
(g54
S'sU\x8a\xcd\x9c\x96\xb7?'
p111
tp112
Rp113
ag50
(g54
S'\x0c4\xa5P\xeb\xfb\xbe?'
p114
tp115
Rp116
ag50
(g54
S'sU\x8a\xcd\x9c\x96\xb7?'
p117
tp118
Rp119
ag50
(g54
S"\x01F'!\xd2=\xc8?"
p120
tp121
Rp122
asS'sp'
p123
(lp124
(S'p0'
p125
I0
S'x'
p126
tp127
a(S'p1'
p128
I0
g126
tp129
a(g128
I0
S't'
p130
tp131
a(g128
I0
g126
tp132
ag131
ag132
ag131
a(g128
I0
S'y'
p133
tp134
a(g125
I0
g133
tp135
a(g125
I0
g126
tp136
a(g125
I0
g126
tp137
ag129
a(g128
I0
g126
tp138
ag131
a(g128
F1.5707963267948966
g130
tp139
a(g128
F1.5707963267948966
g133
tp140
a(g128
F1.5707963267948966
g126
tp141
a(g128
F1.5707963267948966
g130
tp142
ag140
a(S'p2'
p143
F1.5707963267948966
g133
tp144
a(g143
F1.5707963267948966
g126
tp145
a(S'p3'
p146
F1.5707963267948966
g126
tp147
asS's'
p148
(lp149
(g125
I0
g22
tp150
ag127
ag129
ag131
ag132
ag131
ag132
ag131
ag134
ag135
ag136
ag137
ag129
ag138
ag131
ag139
ag140
ag141
ag142
ag140
ag144
ag145
asS'ui'
p151
(lp152
S'hp'
p153
ag123
aS'hs'
p154
aS'ss'
p155
ag154
ag153
ag154
ag154
ag154
ag154
ag155
ag123
ag154
ag154
ag123
ag154
ag123
ag154
ag154
ag155
ag154
ag123
asS'um_before'
p156
(lp157
g153
ag123
ag154
ag153
ag154
ag153
ag154
ag154
ag123
ag154
ag155
ag123
ag123
ag154
ag123
ag154
ag154
ag154
ag154
ag155
ag154
ag123
asS'um_after'
p158
(lp159
g153
ag123
ag154
ag153
ag154
ag153
ag154
ag154
ag123
ag154
ag155
ag123
ag123
ag154
ag123
ag154
ag154
ag154
ag154
ag155
ag154
ag123
asS'is_normalized_entropy_less_than_threshold'
p160
(lp161
g50
(g51
(S'b1'
p162
I0
I1
tp163
Rp164
(I3
S'|'
p165
NNNI-1
I-1
I0
tp166
bS'\x01'
p167
tp168
Rp169
ag169
ag169
ag169
ag169
ag169
ag169
ag169
ag169
ag169
ag169
ag169
ag169
ag169
ag169
ag169
ag50
(g164
S'\x00'
p170
tp171
Rp172
ag169
ag169
ag169
ag169
ag169
asaa(lp173
S'index'
p174
aI96239
aatp175
Rp176
.