ccollections
OrderedDict
p0
((lp1
(lp2
S'combination_dict'
p3
ag0
((lp4
(lp5
S'r_to_g_config'
p6
aS'br'
p7
aa(lp8
S'num_turns'
p9
aI2
aa(lp10
S'start_direction'
p11
acutils_ms
StartDirection
p12
(I1
tp13
Rp14
aa(lp15
S'assistance_type'
p16
acutils_ms
AssistanceType
p17
(I0
tp18
Rp19
aa(lp20
S'start_mode'
p21
aS'x'
p22
aa(lp23
S'ui_given_a_noise'
p24
aF0.7
aa(lp25
S'um_given_ui_noise'
p26
aF0.5
aa(lp27
S'entropy_threshold'
p28
aF0.7
aatp29
Rp30
aa(lp31
S'data'
p32
accollections
defaultdict
p33
(c__builtin__
list
p34
tp35
Rp36
S'a'
p37
(lp38
S'mode_r'
p39
aS'move_n'
p40
ag39
aS'move_p'
p41
ag39
aS'mode_l'
p42
ag42
ag41
ag42
ag42
ag41
ag39
ag42
ag39
ag42
ag40
ag39
ag42
ag40
ag42
ag42
ag40
asS'assistance_match_with_ground_truth'
p43
(lp44
I01
aI01
aI01
aI01
aI00
aI00
aI01
aI00
aI00
aI01
aI01
aI00
aI00
aI00
aI01
aI00
aI00
aI01
aI00
aI00
aI01
aI01
asS'is_u_intended_equals_um'
p45
(lp46
I01
aI01
aI01
aI01
aI01
aI01
aI01
aI00
aI01
aI01
aI01
aI01
aI00
aI01
aI01
aI01
aI01
aI01
aI01
aI01
aI01
aI01
asS'total_steps'
p47
I22
sS'normalized_h_of_p_ui_given_um'
p48
(lp49
cnumpy.core.multiarray
scalar
p50
(cnumpy
dtype
p51
(S'f8'
p52
I0
I1
tp53
Rp54
(I3
S'<'
p55
NNNI-1
I-1
I0
tp56
bS'k\x15\xdd\n,\xd0\xe3?'
p57
tp58
Rp59
ag50
(g54
S'\xba\x8f%\xd3\xa3\xaf\xd6?'
p60
tp61
Rp62
ag50
(g54
S'k\x15\xdd\n,\xd0\xe3?'
p63
tp64
Rp65
ag50
(g54
S'\xda\x9c\x82:\xba3\xd4?'
p66
tp67
Rp68
ag50
(g54
S'\xa5o\x0exCk\xe6?'
p69
tp70
Rp71
ag50
(g54
S'6\x96k4\x89\x85\xda?'
p72
tp73
Rp74
ag50
(g54
S'\xac!b\xa5\xe1D\xd1?'
p75
tp76
Rp77
ag50
(g54
S'\xb9\n8\x9e\x06\x19\xe8?'
p78
tp79
Rp80
ag50
(g54
S'6\x96k4\x89\x85\xda?'
p81
tp82
Rp83
ag50
(g54
S'\xac!b\xa5\xe1D\xd1?'
p84
tp85
Rp86
ag50
(g54
S'\xda\x9c\x82:\xba3\xd4?'
p87
tp88
Rp89
ag50
(g54
S'\xa5o\x0exCk\xe6?'
p90
tp91
Rp92
ag50
(g54
S'i\x91S\x9f\xf6\xf8\xec?'
p93
tp94
Rp95
ag50
(g54
S'\xa5o\x0exCk\xe6?'
p96
tp97
Rp98
ag50
(g54
S'\xac!b\xa5\xe1D\xd1?'
p99
tp100
Rp101
ag50
(g54
S'*\xa7-R\x93t\xe9?'
p102
tp103
Rp104
ag50
(g54
S'\xa5o\x0exCk\xe6?'
p105
tp106
Rp107
ag50
(g54
S'\xac!b\xa5\xe1D\xd1?'
p108
tp109
Rp110
ag50
(g54
S'\xe49t\xc2\x92t\xeb?'
p111
tp112
Rp113
ag50
(g54
S'6\x96k4\x89\x85\xda?'
p114
tp115
Rp116
ag50
(g54
S'\xac!b\xa5\xe1D\xd1?'
p117
tp118
Rp119
ag50
(g54
S'\xba\x8f%\xd3\xa3\xaf\xd6?'
p120
tp121
Rp122
asS'sp'
p123
(lp124
(S'p0'
p125
I0
S'y'
p126
tp127
a(S'p1'
p128
I0
g126
tp129
a(g128
I0
S't'
p130
tp131
a(g128
F1.5707963267948966
g130
tp132
a(g128
F1.5707963267948966
g126
tp133
a(g128
F1.5707963267948966
g126
tp134
a(g128
F1.5707963267948966
S'x'
p135
tp136
a(g128
F1.5707963267948966
g126
tp137
ag134
ag136
a(S'p2'
p138
F1.5707963267948966
g135
tp139
a(g138
F1.5707963267948966
g130
tp140
a(g138
F1.5707963267948966
g135
tp141
ag140
a(g138
F1.5707963267948966
g126
tp142
a(g138
F1.5707963267948966
g135
tp143
ag140
ag142
a(g138
F1.5707963267948966
g130
tp144
a(g138
F1.5707963267948966
g130
tp145
ag142
a(S'p3'
p146
F1.5707963267948966
g126
tp147
asS's'
p148
(lp149
(g125
I0
g22
tp150
ag127
ag129
ag131
ag132
ag133
ag134
ag136
ag137
ag134
ag136
ag139
ag140
ag141
ag140
ag142
ag143
ag140
ag142
ag144
ag145
ag142
asS'ui'
p151
(lp152
S'hs'
p153
aS'ss'
p154
aS'hp'
p155
ag123
ag153
ag123
ag153
ag153
ag123
ag153
ag123
ag153
ag154
ag153
ag153
ag123
ag155
ag153
ag154
ag154
ag153
ag154
asS'um_before'
p156
(lp157
g155
ag154
ag155
ag123
ag153
ag154
ag153
ag155
ag154
ag153
ag123
ag153
ag155
ag153
ag153
ag153
ag153
ag153
ag155
ag154
ag153
ag154
asS'um_after'
p158
(lp159
g155
ag154
ag155
ag123
ag153
ag154
ag153
ag155
ag154
ag153
ag123
ag153
ag155
ag153
ag153
ag153
ag153
ag153
ag155
ag154
ag153
ag154
asS'is_normalized_entropy_less_than_threshold'
p160
(lp161
g50
(g51
(S'b1'
p162
I0
I1
tp163
Rp164
(I3
S'|'
p165
NNNI-1
I-1
I0
tp166
bS'\x01'
p167
tp168
Rp169
ag169
ag169
ag169
ag50
(g164
S'\x00'
p170
tp171
Rp172
ag169
ag169
ag172
ag169
ag169
ag169
ag172
ag172
ag172
ag169
ag172
ag172
ag169
ag172
ag169
ag169
ag169
asaa(lp173
S'index'
p174
aI101527
aatp175
Rp176
.