ccollections
OrderedDict
p0
((lp1
(lp2
S'combination_dict'
p3
ag0
((lp4
(lp5
S'r_to_g_config'
p6
aS'tr'
p7
aa(lp8
S'num_turns'
p9
aI1
aa(lp10
S'start_direction'
p11
acutils_ms
StartDirection
p12
(I1
tp13
Rp14
aa(lp15
S'assistance_type'
p16
acutils_ms
AssistanceType
p17
(I1
tp18
Rp19
aa(lp20
S'start_mode'
p21
aS'x'
p22
aa(lp23
S'ui_given_a_noise'
p24
aF0.7
aa(lp25
S'um_given_ui_noise'
p26
aF0.1
aa(lp27
S'entropy_threshold'
p28
aF0.6
aatp29
Rp30
aa(lp31
S'data'
p32
accollections
defaultdict
p33
(c__builtin__
list
p34
tp35
Rp36
S'a'
p37
(lp38
S'mode_r'
p39
aS'move_p'
p40
ag39
ag39
aS'mode_l'
p41
ag39
ag40
ag40
ag39
ag40
ag41
ag41
ag39
ag39
ag39
ag41
ag41
ag41
ag40
ag40
ag39
ag39
ag40
ag39
ag41
ag40
ag39
ag40
ag39
ag39
ag40
ag41
ag41
ag41
ag41
ag39
ag40
ag41
ag41
ag40
ag39
ag40
ag41
ag40
ag41
ag40
asS'assistance_match_with_ground_truth'
p42
(lp43
I01
aI01
aI00
aI00
aI00
aI01
aI00
aI00
aI01
aI00
aI00
aI00
aI00
aI00
aI00
aI00
aI00
aI01
aI00
aI01
aI00
aI01
aI00
aI00
aI01
aI01
aI01
aI00
aI00
aI01
aI01
aI00
aI00
aI00
aI00
aI01
aI00
aI00
aI01
aI00
aI01
aI01
aI01
aI00
aI01
aI01
asS'is_u_intended_equals_um'
p44
(lp45
I01
aI01
aI01
aI01
aI01
aI01
aI01
aI00
aI01
aI01
aI01
aI01
aI01
aI01
aI01
aI01
aI01
aI01
aI01
aI01
aI01
aI01
aI00
aI01
aI01
aI01
aI01
aI01
aI01
aI01
aI01
aI01
aI01
aI01
aI01
aI01
aI01
aI01
aI01
aI01
aI01
aI01
aI01
aI01
aI01
aI01
asS'total_steps'
p46
I46
sS'normalized_h_of_p_ui_given_um'
p47
(lp48
cnumpy.core.multiarray
scalar
p49
(cnumpy
dtype
p50
(S'f8'
p51
I0
I1
tp52
Rp53
(I3
S'<'
p54
NNNI-1
I-1
I0
tp55
bS'(\xd9\x03\xc3\x9e\xd8\xbc?'
p56
tp57
Rp58
ag49
(g53
S'\xddk\xcc\xc5\xb4X\xcc?'
p59
tp60
Rp61
ag49
(g53
S'H\x87\xb9\xae\x1d\xcd\xde?'
p62
tp63
Rp64
ag49
(g53
S'\xd8\xa7\x1d\x9dm\xa6\xd7?'
p65
tp66
Rp67
ag49
(g53
S'\xfb@\xbbd\xb5\xc7\xd2?'
p68
tp69
Rp70
ag49
(g53
S'(\xd9\x03\xc3\x9e\xd8\xbc?'
p71
tp72
Rp73
ag49
(g53
S'J\xe7Z|\xfd\x95\xcd?'
p74
tp75
Rp76
ag49
(g53
S'y6 \x19\x90v\xe7?'
p77
tp78
Rp79
ag49
(g53
S'(\xd9\x03\xc3\x9e\xd8\xbc?'
p80
tp81
Rp82
ag49
(g53
S'\x19\xbf\xcd\x08Y\x1c\xc5?'
p83
tp84
Rp85
ag49
(g53
S'*\x02\xef\xe4\xc1x\xe1?'
p86
tp87
Rp88
ag49
(g53
S'\xbckx\x9f\x9d\xde\xd4?'
p89
tp90
Rp91
ag49
(g53
S'H\x87\xb9\xae\x1d\xcd\xde?'
p92
tp93
Rp94
ag49
(g53
S'H\x87\xb9\xae\x1d\xcd\xde?'
p95
tp96
Rp97
ag49
(g53
S'\xd8\xa7\x1d\x9dm\xa6\xd7?'
p98
tp99
Rp100
ag49
(g53
S'*\x02\xef\xe4\xc1x\xe1?'
p101
tp102
Rp103
ag49
(g53
S'\xfb@\xbbd\xb5\xc7\xd2?'
p104
tp105
Rp106
ag49
(g53
S'\xa6".1x\x13\xd1?'
p107
tp108
Rp109
ag49
(g53
S'J\xe7Z|\xfd\x95\xcd?'
p110
tp111
Rp112
ag49
(g53
S'\xddk\xcc\xc5\xb4X\xcc?'
p113
tp114
Rp115
ag49
(g53
S'H\x87\xb9\xae\x1d\xcd\xde?'
p116
tp117
Rp118
ag49
(g53
S'(\xd9\x03\xc3\x9e\xd8\xbc?'
p119
tp120
Rp121
ag49
(g53
S'y6 \x19\x90v\xe7?'
p122
tp123
Rp124
ag49
(g53
S'\xd8\xa7\x1d\x9dm\xa6\xd7?'
p125
tp126
Rp127
ag49
(g53
S'\xa6".1x\x13\xd1?'
p128
tp129
Rp130
ag49
(g53
S'\xddk\xcc\xc5\xb4X\xcc?'
p131
tp132
Rp133
ag49
(g53
S'(\xd9\x03\xc3\x9e\xd8\xbc?'
p134
tp135
Rp136
ag49
(g53
S'J\xe7Z|\xfd\x95\xcd?'
p137
tp138
Rp139
ag49
(g53
S'H\x87\xb9\xae\x1d\xcd\xde?'
p140
tp141
Rp142
ag49
(g53
S'(\xd9\x03\xc3\x9e\xd8\xbc?'
p143
tp144
Rp145
ag49
(g53
S'\xddk\xcc\xc5\xb4X\xcc?'
p146
tp147
Rp148
ag49
(g53
S'\xfb@\xbbd\xb5\xc7\xd2?'
p149
tp150
Rp151
ag49
(g53
S'*\x02\xef\xe4\xc1x\xe1?'
p152
tp153
Rp154
ag49
(g53
S'\xfb@\xbbd\xb5\xc7\xd2?'
p155
tp156
Rp157
ag49
(g53
S'\xbckx\x9f\x9d\xde\xd4?'
p158
tp159
Rp160
ag49
(g53
S'(\xd9\x03\xc3\x9e\xd8\xbc?'
p161
tp162
Rp163
ag49
(g53
S'\x19\xbf\xcd\x08Y\x1c\xc5?'
p164
tp165
Rp166
ag49
(g53
S'*\x02\xef\xe4\xc1x\xe1?'
p167
tp168
Rp169
ag49
(g53
S'\xa6".1x\x13\xd1?'
p170
tp171
Rp172
ag49
(g53
S'J\xe7Z|\xfd\x95\xcd?'
p173
tp174
Rp175
ag49
(g53
S'(\xd9\x03\xc3\x9e\xd8\xbc?'
p176
tp177
Rp178
ag49
(g53
S'\xddk\xcc\xc5\xb4X\xcc?'
p179
tp180
Rp181
ag49
(g53
S'\xa6".1x\x13\xd1?'
p182
tp183
Rp184
ag49
(g53
S'\x19\xbf\xcd\x08Y\x1c\xc5?'
p185
tp186
Rp187
ag49
(g53
S'\xa6".1x\x13\xd1?'
p188
tp189
Rp190
ag49
(g53
S'\xddk\xcc\xc5\xb4X\xcc?'
p191
tp192
Rp193
asS'sp'
p194
(lp195
(S'p0'
p196
I0
S'y'
p197
tp198
a(S'p1'
p199
I0
g197
tp200
a(g199
I0
g197
tp201
a(g199
I0
S'x'
p202
tp203
a(g196
I0
g202
tp204
ag198
a(g196
I0
g197
tp205
a(g196
I0
g202
tp206
ag198
a(g196
I0
S't'
p207
tp208
a(g196
I0
g207
tp209
a(g196
I0
g202
tp210
a(g196
I0
g202
tp211
ag211
a(g196
I0
g207
tp212
ag209
a(g196
I0
g207
tp213
a(g196
I0
g197
tp214
ag205
ag200
ag201
a(g199
I0
g207
tp215
a(g199
I0
g197
tp216
ag203
a(g199
I0
g207
tp217
a(g199
F1.5707963267948966
g207
tp218
a(g199
F1.5707963267948966
g202
tp219
a(g196
F1.5707963267948966
g202
tp220
a(g196
F1.5707963267948966
g202
tp221
a(g196
F1.5707963267948966
g197
tp222
a(g199
F1.5707963267948966
g197
tp223
a(g199
F1.5707963267948966
g197
tp224
a(g199
F1.5707963267948966
g197
tp225
ag224
a(g199
F1.5707963267948966
g207
tp226
ag219
a(g199
F1.5707963267948966
g197
tp227
ag225
a(g199
F1.5707963267948966
g202
tp228
ag220
ag222
ag223
ag228
ag227
ag228
a(S'p2'
p229
F1.5707963267948966
g202
tp230
asS's'
p231
(lp232
(g196
I0
g22
tp233
ag198
ag200
ag201
ag203
ag204
ag198
ag205
ag206
ag198
ag208
ag209
ag210
ag211
ag211
ag212
ag209
ag213
ag214
ag205
ag200
ag201
ag215
ag216
ag203
ag217
ag218
ag219
ag220
ag221
ag222
ag223
ag224
ag225
ag224
ag226
ag219
ag227
ag225
ag228
ag220
ag222
ag223
ag228
ag227
ag228
asS'ui'
p234
(lp235
S'hp'
p236
ag194
ag236
aS'hs'
p237
aS'ss'
p238
ag236
ag238
ag237
ag236
ag238
ag194
ag236
ag194
ag236
ag237
ag194
ag238
ag237
ag238
ag194
ag194
ag236
ag238
ag237
ag238
ag194
ag238
ag238
ag194
ag236
ag194
ag238
ag194
ag238
ag236
ag236
ag236
ag194
ag237
ag238
ag236
ag194
ag237
ag236
ag237
ag194
asS'um_before'
p239
(lp240
g236
ag194
ag194
ag237
ag238
ag236
ag238
ag237
ag236
ag236
ag194
ag236
ag194
ag194
ag237
ag194
ag238
ag237
ag238
ag194
ag194
ag236
ag237
ag237
ag237
ag194
ag236
ag238
ag194
ag236
ag194
ag238
ag194
ag238
ag236
ag236
ag236
ag194
ag237
ag238
ag236
ag194
ag237
ag236
ag237
ag194
asS'um_after'
p241
(lp242
g236
ag194
ag194
ag237
ag238
ag236
ag238
ag237
ag236
ag236
ag194
ag236
ag194
ag194
ag237
ag194
ag238
ag237
ag238
ag194
ag194
ag236
ag237
ag237
ag237
ag194
ag236
ag238
ag194
ag236
ag194
ag238
ag194
ag238
ag236
ag236
ag236
ag194
ag237
ag238
ag236
ag194
ag237
ag236
ag237
ag194
asS'is_normalized_entropy_less_than_threshold'
p243
(lp244
g49
(g50
(S'b1'
p245
I0
I1
tp246
Rp247
(I3
S'|'
p248
NNNI-1
I-1
I0
tp249
bS'\x01'
p250
tp251
Rp252
ag252
ag252
ag252
ag252
ag252
ag252
ag49
(g247
S'\x00'
p253
tp254
Rp255
ag252
ag252
ag252
ag252
ag252
ag252
ag252
ag252
ag252
ag252
ag252
ag252
ag252
ag252
ag255
ag252
ag252
ag252
ag252
ag252
ag252
ag252
ag252
ag252
ag252
ag252
ag252
ag252
ag252
ag252
ag252
ag252
ag252
ag252
ag252
ag252
ag252
ag252
asaa(lp256
S'index'
p257
aI7019
aatp258
Rp259
.