ccollections
OrderedDict
p0
((lp1
(lp2
S'combination_dict'
p3
ag0
((lp4
(lp5
S'r_to_g_config'
p6
aS'tl'
p7
aa(lp8
S'num_turns'
p9
aI2
aa(lp10
S'start_direction'
p11
acutils_ms
StartDirection
p12
(I0
tp13
Rp14
aa(lp15
S'assistance_type'
p16
acutils_ms
AssistanceType
p17
(I0
tp18
Rp19
aa(lp20
S'start_mode'
p21
aS'y'
p22
aa(lp23
S'ui_given_a_noise'
p24
aF0.7
aa(lp25
S'um_given_ui_noise'
p26
aF0.7
aa(lp27
S'entropy_threshold'
p28
aF0.7
aatp29
Rp30
aa(lp31
S'data'
p32
accollections
defaultdict
p33
(c__builtin__
list
p34
tp35
Rp36
S'a'
p37
(lp38
S'mode_l'
p39
ag39
ag39
aS'move_n'
p40
ag40
aS'mode_r'
p41
ag41
aS'move_p'
p42
ag39
ag39
ag40
ag41
ag42
ag41
ag41
ag42
ag41
ag41
ag41
ag41
ag41
ag41
ag42
ag42
ag39
ag41
ag42
ag39
ag42
ag39
ag41
ag39
ag39
ag41
ag39
ag39
ag42
ag41
ag41
ag41
ag41
ag42
ag41
ag40
ag39
ag39
ag39
ag40
ag39
ag40
ag41
ag42
ag39
ag40
ag41
ag42
ag41
ag41
ag41
ag42
ag39
ag39
ag39
ag42
ag39
ag39
ag40
ag41
ag42
ag41
ag39
ag41
ag41
ag42
ag39
ag41
ag42
ag39
ag40
asS'assistance_match_with_ground_truth'
p43
(lp44
I00
aI00
aI01
aI00
aI01
aI00
aI01
aI00
aI00
aI01
aI01
aI01
aI01
aI00
aI01
aI00
aI00
aI00
aI00
aI00
aI00
aI01
aI00
aI00
aI00
aI01
aI00
aI01
aI00
aI00
aI00
aI00
aI00
aI00
aI00
aI01
aI01
aI00
aI00
aI00
aI01
aI01
aI01
aI00
aI00
aI00
aI01
aI00
aI01
aI00
aI01
aI00
aI01
aI01
aI01
aI00
aI00
aI00
aI01
aI00
aI00
aI00
aI01
aI00
aI00
aI01
aI01
aI01
aI00
aI00
aI00
aI00
aI01
aI00
aI00
aI01
aI01
aI01
aI01
asS'is_u_intended_equals_um'
p45
(lp46
I00
aI00
aI01
aI00
aI01
aI00
aI01
aI01
aI00
aI01
aI01
aI01
aI01
aI00
aI01
aI01
aI00
aI00
aI00
aI00
aI00
aI01
aI01
aI00
aI01
aI01
aI00
aI01
aI00
aI00
aI01
aI00
aI01
aI01
aI00
aI01
aI01
aI00
aI00
aI00
aI01
aI01
aI01
aI01
aI00
aI00
aI01
aI01
aI01
aI00
aI01
aI01
aI01
aI01
aI01
aI01
aI00
aI00
aI01
aI00
aI00
aI00
aI01
aI01
aI00
aI01
aI01
aI01
aI01
aI01
aI01
aI00
aI01
aI00
aI01
aI01
aI01
aI01
aI01
asS'total_steps'
p47
I79
sS'normalized_h_of_p_ui_given_um'
p48
(lp49
cnumpy.core.multiarray
scalar
p50
(cnumpy
dtype
p51
(S'f8'
p52
I0
I1
tp53
Rp54
(I3
S'<'
p55
NNNI-1
I-1
I0
tp56
bS'\x81\xb7\xf4\xebi\xb5\xe9?'
p57
tp58
Rp59
ag50
(g54
S'W\xe5\x18\x94U\xf4\xeb?'
p60
tp61
Rp62
ag50
(g54
S'\\\xca+\x1c\xbe"\xe0?'
p63
tp64
Rp65
ag50
(g54
S'\xb5\xfa\x17\x1f\xe1\xd3\xe9?'
p66
tp67
Rp68
ag50
(g54
S'\xcc"\xa0\xd7\x85g\xdd?'
p69
tp70
Rp71
ag50
(g54
S'V\x14\xc3\x87\x967\xe9?'
p72
tp73
Rp74
ag50
(g54
S'O\n,\xf5~\xa8\xe1?'
p75
tp76
Rp77
ag50
(g54
S'\xe8\xe0(5F\x0b\xee?'
p78
tp79
Rp80
ag50
(g54
S'\x81\xb7\xf4\xebi\xb5\xe9?'
p81
tp82
Rp83
ag50
(g54
S'\\\xca+\x1c\xbe"\xe0?'
p84
tp85
Rp86
ag50
(g54
S'\xcc"\xa0\xd7\x85g\xdd?'
p87
tp88
Rp89
ag50
(g54
S'O\n,\xf5~\xa8\xe1?'
p90
tp91
Rp92
ag50
(g54
S'\xd8\x99\xe3\x0e\xcd\xd0\xe9?'
p93
tp94
Rp95
ag50
(g54
S'\xdc0xT\x03\xed\xee?'
p96
tp97
Rp98
ag50
(g54
S'O\n,\xf5~\xa8\xe1?'
p99
tp100
Rp101
ag50
(g54
S'\xe3\xa2\x0bE\x95\x9a\xe9?'
p102
tp103
Rp104
ag50
(g54
S'V\x14\xc3\x87\x967\xe9?'
p105
tp106
Rp107
ag50
(g54
S'V\x14\xc3\x87\x967\xe9?'
p108
tp109
Rp110
ag50
(g54
S'\xdc0xT\x03\xed\xee?'
p111
tp112
Rp113
ag50
(g54
S'\xdc0xT\x03\xed\xee?'
p114
tp115
Rp116
ag50
(g54
S'\xdc0xT\x03\xed\xee?'
p117
tp118
Rp119
ag50
(g54
S'O\n,\xf5~\xa8\xe1?'
p120
tp121
Rp122
ag50
(g54
S'\xe8\xe0(5F\x0b\xee?'
p123
tp124
Rp125
ag50
(g54
S'\xb0\xd8\xec\xb0\xb19\xea?'
p126
tp127
Rp128
ag50
(g54
S'M\xae\n\xfb\xbc`\xe8?'
p129
tp130
Rp131
ag50
(g54
S'O\n,\xf5~\xa8\xe1?'
p132
tp133
Rp134
ag50
(g54
S'\xb0\xd8\xec\xb0\xb19\xea?'
p135
tp136
Rp137
ag50
(g54
S'\\\xca+\x1c\xbe"\xe0?'
p138
tp139
Rp140
ag50
(g54
S'\xb0\xd8\xec\xb0\xb19\xea?'
p141
tp142
Rp143
ag50
(g54
S'\x81\xb7\xf4\xebi\xb5\xe9?'
p144
tp145
Rp146
ag50
(g54
S'H#\x80\x7fxe\xe9?'
p147
tp148
Rp149
ag50
(g54
S'W\xe5\x18\x94U\xf4\xeb?'
p150
tp151
Rp152
ag50
(g54
S'M\xae\n\xfb\xbc`\xe8?'
p153
tp154
Rp155
ag50
(g54
S'H#\x80\x7fxe\xe9?'
p156
tp157
Rp158
ag50
(g54
S'\x81\xb7\xf4\xebi\xb5\xe9?'
p159
tp160
Rp161
ag50
(g54
S'\\\xca+\x1c\xbe"\xe0?'
p162
tp163
Rp164
ag50
(g54
S'\xd8\x99\xe3\x0e\xcd\xd0\xe9?'
p165
tp166
Rp167
ag50
(g54
S'\xdc0xT\x03\xed\xee?'
p168
tp169
Rp170
ag50
(g54
S'V\x14\xc3\x87\x967\xe9?'
p171
tp172
Rp173
ag50
(g54
S'\xdc0xT\x03\xed\xee?'
p174
tp175
Rp176
ag50
(g54
S'O\n,\xf5~\xa8\xe1?'
p177
tp178
Rp179
ag50
(g54
S'\xd8\x99\xe3\x0e\xcd\xd0\xe9?'
p180
tp181
Rp182
ag50
(g54
S'O\n,\xf5~\xa8\xe1?'
p183
tp184
Rp185
ag50
(g54
S'\x98\xa0\rk\x97\xce\xe6?'
p186
tp187
Rp188
ag50
(g54
S'W\xe5\x18\x94U\xf4\xeb?'
p189
tp190
Rp191
ag50
(g54
S'\x81\xb7\xf4\xebi\xb5\xe9?'
p192
tp193
Rp194
ag50
(g54
S'\\\xca+\x1c\xbe"\xe0?'
p195
tp196
Rp197
ag50
(g54
S'\x98\xa0\rk\x97\xce\xe6?'
p198
tp199
Rp200
ag50
(g54
S'\\\xca+\x1c\xbe"\xe0?'
p201
tp202
Rp203
ag50
(g54
S'\xb5\xfa\x17\x1f\xe1\xd3\xe9?'
p204
tp205
Rp206
ag50
(g54
S'O\n,\xf5~\xa8\xe1?'
p207
tp208
Rp209
ag50
(g54
S'\xe8\xe0(5F\x0b\xee?'
p210
tp211
Rp212
ag50
(g54
S'\\\xca+\x1c\xbe"\xe0?'
p213
tp214
Rp215
ag50
(g54
S'\xcc"\xa0\xd7\x85g\xdd?'
p216
tp217
Rp218
ag50
(g54
S'O\n,\xf5~\xa8\xe1?'
p219
tp220
Rp221
ag50
(g54
S'\xe3\xa2\x0bE\x95\x9a\xe9?'
p222
tp223
Rp224
ag50
(g54
S'V\x14\xc3\x87\x967\xe9?'
p225
tp226
Rp227
ag50
(g54
S'V\x14\xc3\x87\x967\xe9?'
p228
tp229
Rp230
ag50
(g54
S'O\n,\xf5~\xa8\xe1?'
p231
tp232
Rp233
ag50
(g54
S'\xb0\xd8\xec\xb0\xb19\xea?'
p234
tp235
Rp236
ag50
(g54
S'\x81\xb7\xf4\xebi\xb5\xe9?'
p237
tp238
Rp239
ag50
(g54
S'\x81\xb7\xf4\xebi\xb5\xe9?'
p240
tp241
Rp242
ag50
(g54
S'\\\xca+\x1c\xbe"\xe0?'
p243
tp244
Rp245
ag50
(g54
S'\xe8\xe0(5F\x0b\xee?'
p246
tp247
Rp248
ag50
(g54
S'W\xe5\x18\x94U\xf4\xeb?'
p249
tp250
Rp251
ag50
(g54
S'\\\xca+\x1c\xbe"\xe0?'
p252
tp253
Rp254
ag50
(g54
S'\xcc"\xa0\xd7\x85g\xdd?'
p255
tp256
Rp257
ag50
(g54
S'O\n,\xf5~\xa8\xe1?'
p258
tp259
Rp260
ag50
(g54
S'\xe3\xa2\x0bE\x95\x9a\xe9?'
p261
tp262
Rp263
ag50
(g54
S'H#\x80\x7fxe\xe9?'
p264
tp265
Rp266
ag50
(g54
S'M\xae\n\xfb\xbc`\xe8?'
p267
tp268
Rp269
ag50
(g54
S'V\x14\xc3\x87\x967\xe9?'
p270
tp271
Rp272
ag50
(g54
S'O\n,\xf5~\xa8\xe1?'
p273
tp274
Rp275
ag50
(g54
S'\xb0\xd8\xec\xb0\xb19\xea?'
p276
tp277
Rp278
ag50
(g54
S'M\xae\n\xfb\xbc`\xe8?'
p279
tp280
Rp281
ag50
(g54
S'O\n,\xf5~\xa8\xe1?'
p282
tp283
Rp284
ag50
(g54
S'\xd8\x99\xe3\x0e\xcd\xd0\xe9?'
p285
tp286
Rp287
ag50
(g54
S'\\\xca+\x1c\xbe"\xe0?'
p288
tp289
Rp290
ag50
(g54
S'\xcc"\xa0\xd7\x85g\xdd?'
p291
tp292
Rp293
asS'sp'
p294
(lp295
(S'p0'
p296
I0
S'y'
p297
tp298
a(g296
I0
g297
tp299
a(g296
I0
S'x'
p300
tp301
a(g296
I0
g300
tp302
a(S'p1'
p303
I0
g300
tp304
a(g303
I0
g300
tp305
a(g303
I0
g297
tp306
a(g296
I0
g297
tp307
ag298
ag301
ag304
ag306
a(S'p2'
p308
I0
g297
tp309
a(g308
I0
g297
tp310
a(g308
I0
S't'
p311
tp312
a(g308
I0
g297
tp313
a(g308
I0
g297
tp314
ag314
ag310
ag310
ag310
ag312
a(g308
I0
g311
tp315
a(g308
I0
g300
tp316
a(g308
I0
g297
tp317
ag312
ag316
a(g308
I0
g311
tp318
ag316
a(g303
I0
g300
tp319
a(g303
I0
g311
tp320
a(g303
I0
g311
tp321
a(g303
I0
g300
tp322
ag320
a(g303
I0
g311
tp323
a(g303
I0
g297
tp324
ag309
ag310
ag314
ag310
ag312
a(g308
F1.5707963267948966
g311
tp325
a(g308
F1.5707963267948966
g300
tp326
a(g308
F1.5707963267948966
g297
tp327
a(g308
F1.5707963267948966
g297
tp328
a(g308
F1.5707963267948966
g297
tp329
a(g308
F1.5707963267948966
g300
tp330
ag327
ag330
a(g303
F1.5707963267948966
g300
tp331
a(g303
F1.5707963267948966
g297
tp332
a(g296
F1.5707963267948966
g297
tp333
a(g296
F1.5707963267948966
g300
tp334
a(g303
F1.5707963267948966
g300
tp335
ag332
a(g303
F1.5707963267948966
g300
tp336
a(g303
F1.5707963267948966
g300
tp337
ag337
ag332
a(g303
F1.5707963267948966
g311
tp338
a(g303
F1.5707963267948966
g311
tp339
ag339
a(g303
F1.5707963267948966
g297
tp340
ag333
a(g296
F1.5707963267948966
g297
tp341
ag334
ag335
ag332
ag336
a(g303
F1.5707963267948966
g311
tp342
a(g303
F1.5707963267948966
g300
tp343
ag337
ag332
ag338
ag343
ag332
a(g308
F1.5707963267948966
g297
tp344
ag330
a(S'p3'
p345
F1.5707963267948966
g300
tp346
asS's'
p347
(lp348
(g296
I0
g22
tp349
ag298
ag299
ag301
ag302
ag304
ag305
ag306
ag307
ag298
ag301
ag304
ag306
ag309
ag310
ag312
ag313
ag314
ag314
ag310
ag310
ag310
ag312
ag315
ag316
ag317
ag312
ag316
ag318
ag316
ag319
ag320
ag321
ag322
ag320
ag323
ag324
ag309
ag310
ag314
ag310
ag312
ag325
ag326
ag327
ag328
ag329
ag330
ag327
ag330
ag331
ag332
ag333
ag334
ag335
ag332
ag336
ag337
ag337
ag332
ag338
ag339
ag339
ag340
ag333
ag341
ag334
ag335
ag332
ag336
ag342
ag343
ag337
ag332
ag338
ag343
ag332
ag344
ag330
asS'ui'
p350
(lp351
S'hp'
p352
aS'hs'
p353
ag353
aS'ss'
p354
ag354
ag352
ag352
ag294
ag294
ag353
ag354
ag352
ag294
ag354
ag352
ag353
ag352
ag352
ag294
ag294
ag353
ag352
ag354
ag353
ag294
ag354
ag294
ag353
ag352
ag353
ag353
ag353
ag352
ag294
ag353
ag353
ag354
ag352
ag352
ag353
ag294
ag294
ag352
ag354
ag352
ag353
ag353
ag352
ag352
ag354
ag352
ag294
ag353
ag354
ag294
ag353
ag353
ag352
ag352
ag294
ag353
ag354
ag353
ag294
ag353
ag353
ag354
ag352
ag353
ag353
ag353
ag352
ag352
ag352
ag352
ag352
ag294
ag294
ag352
asS'um_before'
p355
(lp356
g294
ag354
ag353
ag294
ag354
ag354
ag352
ag354
ag294
ag353
ag354
ag352
ag294
ag294
ag352
ag353
ag354
ag354
ag294
ag294
ag294
ag352
ag354
ag352
ag352
ag352
ag352
ag353
ag352
ag294
ag353
ag354
ag352
ag353
ag294
ag353
ag294
ag294
ag354
ag294
ag352
ag294
ag352
ag352
ag354
ag294
ag353
ag352
ag353
ag294
ag352
ag354
ag353
ag354
ag352
ag353
ag354
ag354
ag352
ag352
ag294
ag294
ag353
ag354
ag354
ag353
ag354
ag352
ag353
ag353
ag352
ag354
ag352
ag352
ag352
ag352
ag294
ag353
ag354
asS'um_after'
p357
(lp358
g294
ag354
ag353
ag294
ag354
ag354
ag352
ag354
ag294
ag353
ag354
ag352
ag294
ag294
ag352
ag353
ag354
ag354
ag294
ag294
ag294
ag352
ag354
ag352
ag352
ag352
ag352
ag353
ag352
ag294
ag353
ag354
ag352
ag353
ag294
ag353
ag294
ag294
ag354
ag294
ag352
ag294
ag352
ag352
ag354
ag294
ag353
ag352
ag353
ag294
ag352
ag354
ag353
ag354
ag352
ag353
ag354
ag354
ag352
ag352
ag294
ag294
ag353
ag354
ag354
ag353
ag354
ag352
ag353
ag353
ag352
ag354
ag352
ag352
ag352
ag352
ag294
ag353
ag354
asS'is_normalized_entropy_less_than_threshold'
p359
(lp360
g50
(g51
(S'b1'
p361
I0
I1
tp362
Rp363
(I3
S'|'
p364
NNNI-1
I-1
I0
tp365
bS'\x00'
p366
tp367
Rp368
ag368
ag50
(g363
S'\x01'
p369
tp370
Rp371
ag368
ag371
ag368
ag371
ag368
ag368
ag371
ag371
ag371
ag368
ag368
ag371
ag368
ag368
ag368
ag368
ag368
ag368
ag371
ag368
ag368
ag368
ag371
ag368
ag371
ag368
ag368
ag368
ag368
ag368
ag368
ag368
ag371
ag368
ag368
ag368
ag368
ag371
ag368
ag371
ag368
ag368
ag368
ag371
ag368
ag371
ag368
ag371
ag368
ag371
ag371
ag371
ag368
ag368
ag368
ag371
ag368
ag368
ag368
ag371
ag368
ag368
ag371
ag371
ag371
ag368
ag368
ag368
ag368
ag371
ag368
ag368
ag371
ag368
ag371
ag371
asaa(lp372
S'index'
p373
aI39974
aatp374
Rp375
.