ccollections
OrderedDict
p0
((lp1
(lp2
S'combination_dict'
p3
ag0
((lp4
(lp5
S'r_to_g_config'
p6
aS'tr'
p7
aa(lp8
S'num_turns'
p9
aI3
aa(lp10
S'start_direction'
p11
acutils_ms
StartDirection
p12
(I1
tp13
Rp14
aa(lp15
S'assistance_type'
p16
acutils_ms
AssistanceType
p17
(I2
tp18
Rp19
aa(lp20
S'start_mode'
p21
aS'x'
p22
aa(lp23
S'ui_given_a_noise'
p24
aF0.3
aa(lp25
S'um_given_ui_noise'
p26
aF0.7
aa(lp27
S'entropy_threshold'
p28
aF0.8
aatp29
Rp30
aa(lp31
S'data'
p32
accollections
defaultdict
p33
(c__builtin__
list
p34
tp35
Rp36
S'a'
p37
(lp38
S'mode_r'
p39
aS'move_p'
p40
aS'mode_l'
p41
ag40
ag41
ag40
ag39
ag39
ag41
ag40
ag39
ag40
ag39
ag39
ag39
ag41
ag40
ag41
ag40
ag39
ag40
ag39
ag41
ag41
ag40
ag41
ag39
ag39
ag40
ag39
ag39
ag40
ag39
ag40
ag41
ag41
ag41
ag41
ag40
ag39
ag41
ag40
asS'assistance_match_with_ground_truth'
p42
(lp43
I01
aI00
aI01
aI00
aI01
aI01
aI00
aI00
aI01
aI01
aI01
aI00
aI00
aI00
aI00
aI01
aI01
aI01
aI00
aI01
aI01
aI00
aI00
aI01
aI01
aI00
aI00
aI01
aI00
aI00
aI01
aI00
aI01
aI00
aI00
aI00
aI00
aI01
aI00
aI00
aI01
aI01
asS'is_u_intended_equals_um'
p44
(lp45
I00
aI00
aI00
aI00
aI00
aI00
aI00
aI00
aI00
aI00
aI00
aI00
aI00
aI00
aI00
aI00
aI00
aI00
aI00
aI00
aI00
aI00
aI00
aI00
aI00
aI00
aI00
aI00
aI00
aI00
aI00
aI00
aI00
aI00
aI00
aI00
aI00
aI00
aI00
aI00
aI00
aI00
asS'total_steps'
p46
I42
sS'normalized_h_of_p_ui_given_um'
p47
(lp48
cnumpy.core.multiarray
scalar
p49
(cnumpy
dtype
p50
(S'f8'
p51
I0
I1
tp52
Rp53
(I3
S'<'
p54
NNNI-1
I-1
I0
tp55
bS'\rA\xc3\xd2\xcb\xa1\xe6?'
p56
tp57
Rp58
ag58
ag58
ag58
ag58
ag58
ag58
ag58
ag58
ag58
ag58
ag58
ag58
ag58
ag58
ag58
ag58
ag58
ag58
ag58
ag58
ag58
ag58
ag58
ag58
ag58
ag58
ag58
ag58
ag58
ag58
ag58
ag58
ag58
ag58
ag58
ag58
ag58
ag58
ag58
ag58
ag58
asS'sp'
p59
(lp60
(S'p0'
p61
I0
S'y'
p62
tp63
a(g61
I0
S't'
p64
tp65
a(g61
I0
g62
tp66
ag65
ag66
a(S'p1'
p67
I0
g62
tp68
a(g67
I0
g62
tp69
a(g67
I0
S'x'
p70
tp71
a(g67
I0
g64
tp72
a(g67
F1.5707963267948966
g64
tp73
a(g67
F1.5707963267948966
g70
tp74
a(g61
F1.5707963267948966
g70
tp75
a(g61
F1.5707963267948966
g70
tp76
a(g61
F1.5707963267948966
g70
tp77
a(g61
F1.5707963267948966
g64
tp78
a(g61
F1.5707963267948966
g62
tp79
a(g67
F1.5707963267948966
g62
tp80
a(g67
F1.5707963267948966
g70
tp81
a(g67
F1.5707963267948966
g64
tp82
ag74
a(S'p2'
p83
F1.5707963267948966
g70
tp84
a(g83
F1.5707963267948966
g64
tp85
a(g83
F1.5707963267948966
g64
tp86
a(g83
F1.5707963267948966
g62
tp87
a(S'p3'
p88
F1.5707963267948966
g62
tp89
a(g88
F1.5707963267948966
g64
tp90
a(g88
F1.5707963267948966
g64
tp91
a(g88
F1.5707963267948966
g70
tp92
a(g88
F1.5707963267948966
g64
tp93
ag91
ag92
ag93
ag92
a(g88
F1.5707963267948966
g62
tp94
a(g88
F1.5707963267948966
g62
tp95
a(g88
F1.5707963267948966
g62
tp96
ag96
a(g88
F1.5707963267948966
g70
tp97
ag93
a(g88
F1.5707963267948966
g62
tp98
ag97
a(S'p4'
p99
F1.5707963267948966
g70
tp100
asS's'
p101
(lp102
(g61
I0
g22
tp103
ag63
ag65
ag66
ag65
ag66
ag68
ag69
ag71
ag72
ag73
ag74
ag75
ag76
ag77
ag78
ag79
ag80
ag81
ag82
ag74
ag84
ag85
ag86
ag87
ag89
ag90
ag91
ag92
ag93
ag91
ag92
ag93
ag92
ag94
ag95
ag96
ag96
ag97
ag93
ag98
ag97
asS'ui'
p104
(lp105
S'hp'
p106
ag106
aS'hs'
p107
ag106
ag107
ag59
ag106
ag59
ag107
ag59
ag106
ag59
ag106
ag106
ag59
ag107
ag59
ag107
ag59
ag106
ag59
ag59
ag106
ag107
ag59
ag106
ag106
ag106
ag59
ag106
ag106
ag59
ag106
ag107
ag59
ag107
ag107
ag107
ag59
ag59
ag107
ag59
asS'um_before'
p108
(lp109
g106
ag106
ag107
ag106
ag107
ag59
aS'ss'
p110
ag107
ag107
ag59
ag106
ag110
ag59
ag110
ag107
ag107
ag59
ag107
ag107
ag106
ag59
ag107
ag110
ag107
ag59
ag106
ag59
ag106
ag107
ag59
ag106
ag107
ag106
ag106
ag59
ag110
ag110
ag107
ag107
ag107
ag107
ag59
asS'um_after'
p111
(lp112
g106
ag106
ag107
ag106
ag107
ag59
ag110
ag107
ag107
ag59
ag106
ag110
ag59
ag110
ag107
ag107
ag59
ag107
ag107
ag106
ag59
ag107
ag110
ag107
ag59
ag106
ag59
ag106
ag107
ag59
ag106
ag107
ag106
ag106
ag59
ag110
ag110
ag107
ag107
ag107
ag107
ag59
asS'is_normalized_entropy_less_than_threshold'
p113
(lp114
g49
(g50
(S'b1'
p115
I0
I1
tp116
Rp117
(I3
S'|'
p118
NNNI-1
I-1
I0
tp119
bS'\x01'
p120
tp121
Rp122
ag122
ag122
ag122
ag122
ag122
ag122
ag122
ag122
ag122
ag122
ag122
ag122
ag122
ag122
ag122
ag122
ag122
ag122
ag122
ag122
ag122
ag122
ag122
ag122
ag122
ag122
ag122
ag122
ag122
ag122
ag122
ag122
ag122
ag122
ag122
ag122
ag122
ag122
ag122
ag122
ag122
asaa(lp123
S'index'
p124
aI27588
aatp125
Rp126
.