ccollections
OrderedDict
p0
((lp1
(lp2
S'combination_dict'
p3
ag0
((lp4
(lp5
S'r_to_g_config'
p6
aS'tl'
p7
aa(lp8
S'num_turns'
p9
aI2
aa(lp10
S'start_direction'
p11
acutils_ms
StartDirection
p12
(I1
tp13
Rp14
aa(lp15
S'assistance_type'
p16
acutils_ms
AssistanceType
p17
(I2
tp18
Rp19
aa(lp20
S'start_mode'
p21
aS'x'
p22
aa(lp23
S'ui_given_a_noise'
p24
aF0.7
aa(lp25
S'um_given_ui_noise'
p26
aF0.7
aa(lp27
S'entropy_threshold'
p28
aF0.7
aatp29
Rp30
aa(lp31
S'data'
p32
accollections
defaultdict
p33
(c__builtin__
list
p34
tp35
Rp36
S'a'
p37
(lp38
S'mode_r'
p39
aS'move_p'
p40
ag39
ag39
ag39
ag40
ag39
ag40
aS'mode_l'
p41
ag40
ag40
ag39
ag41
ag39
ag40
ag39
ag39
aS'move_n'
p42
ag39
ag41
ag41
ag42
ag39
ag41
ag42
ag39
ag39
ag39
ag40
ag39
ag39
ag40
ag39
ag41
ag40
ag41
ag41
ag39
ag39
ag41
ag41
ag41
ag40
ag41
ag39
ag40
ag41
ag41
ag39
ag42
ag39
ag40
ag39
ag40
ag41
ag39
ag40
ag40
ag41
ag41
ag39
ag40
ag39
ag40
ag41
ag39
ag40
ag40
ag41
ag40
ag41
ag39
ag39
ag40
ag39
ag39
ag39
ag39
ag40
ag41
ag39
ag41
ag40
ag39
ag41
ag39
ag39
ag41
ag39
ag39
ag39
ag40
asS'assistance_match_with_ground_truth'
p43
(lp44
I01
aI00
aI00
aI00
aI01
aI00
aI01
aI00
aI01
aI00
aI01
aI00
aI00
aI01
aI01
aI00
aI01
aI00
aI00
aI00
aI01
aI00
aI00
aI01
aI01
aI00
aI00
aI01
aI00
aI00
aI01
aI00
aI00
aI01
aI00
aI00
aI00
aI00
aI00
aI00
aI00
aI01
aI00
aI00
aI01
aI00
aI00
aI00
aI01
aI00
aI00
aI00
aI01
aI00
aI00
aI01
aI00
aI00
aI00
aI00
aI01
aI01
aI01
aI00
aI00
aI01
aI00
aI00
aI01
aI00
aI00
aI00
aI01
aI00
aI00
aI00
aI00
aI01
aI00
aI00
aI00
aI01
aI01
aI00
aI00
aI00
aI00
aI00
aI00
aI00
aI01
aI01
asS'is_u_intended_equals_um'
p45
(lp46
I01
aI01
aI01
aI01
aI01
aI01
aI01
aI01
aI01
aI01
aI01
aI01
aI01
aI01
aI01
aI01
aI01
aI01
aI01
aI01
aI01
aI01
aI01
aI01
aI01
aI01
aI01
aI01
aI01
aI01
aI01
aI01
aI01
aI01
aI01
aI01
aI01
aI01
aI01
aI01
aI01
aI01
aI01
aI01
aI01
aI01
aI01
aI01
aI01
aI01
aI01
aI01
aI01
aI01
aI01
aI01
aI01
aI01
aI01
aI01
aI01
aI01
aI01
aI01
aI01
aI01
aI01
aI01
aI01
aI01
aI01
aI01
aI01
aI01
aI01
aI01
aI01
aI01
aI01
aI01
aI01
aI01
aI01
aI01
aI01
aI01
aI01
aI01
aI01
aI01
aI01
aI01
asS'total_steps'
p47
I92
sS'normalized_h_of_p_ui_given_um'
p48
(lp49
cnumpy.core.multiarray
scalar
p50
(cnumpy
dtype
p51
(S'f8'
p52
I0
I1
tp53
Rp54
(I3
S'<'
p55
NNNI-1
I-1
I0
tp56
bS'h\xf1e\xc5\x91\x8a\xe6?'
p57
tp58
Rp59
ag59
ag59
ag59
ag59
ag59
ag59
ag59
ag59
ag59
ag59
ag59
ag59
ag59
ag59
ag59
ag59
ag59
ag59
ag59
ag59
ag59
ag59
ag59
ag59
ag59
ag59
ag59
ag59
ag59
ag59
ag59
ag59
ag59
ag59
ag59
ag59
ag59
ag59
ag59
ag59
ag59
ag59
ag59
ag59
ag59
ag59
ag59
ag59
ag59
ag59
ag59
ag59
ag59
ag59
ag59
ag59
ag59
ag59
ag59
ag59
ag59
ag59
ag59
ag59
ag59
ag59
ag59
ag59
ag59
ag59
ag59
ag59
ag59
ag59
ag59
ag59
ag59
ag59
ag59
ag59
ag59
ag59
ag59
ag59
ag59
ag59
ag59
ag59
ag59
ag59
ag59
asS'sp'
p60
(lp61
(S'p0'
p62
I0
S'y'
p63
tp64
a(g62
I0
S'x'
p65
tp66
a(g62
I0
g65
tp67
ag67
ag64
ag66
ag64
a(g62
I0
S't'
p68
tp69
a(g62
I0
g63
tp70
a(g62
I0
g63
tp71
a(S'p1'
p72
I0
g63
tp73
a(g72
I0
g65
tp74
a(g72
I0
g63
tp75
a(g72
I0
g68
tp76
a(g72
F1.5707963267948966
g68
tp77
a(g72
F1.5707963267948966
g68
tp78
a(g72
F1.5707963267948966
g65
tp79
a(g72
F1.5707963267948966
g68
tp80
a(g72
F1.5707963267948966
g63
tp81
a(g72
F1.5707963267948966
g63
tp82
a(g72
F1.5707963267948966
g65
tp83
ag80
ag81
ag83
a(S'p2'
p84
F1.5707963267948966
g65
tp85
a(g84
F1.5707963267948966
g65
tp86
ag86
a(g84
F1.5707963267948966
g63
tp87
a(g84
F1.5707963267948966
g65
tp88
a(g84
F1.5707963267948966
g65
tp89
ag87
ag88
a(g84
F1.5707963267948966
g68
tp90
a(g84
F1.5707963267948966
g63
tp91
a(g84
F1.5707963267948966
g68
tp92
a(g84
F1.5707963267948966
g68
tp93
a(g84
F1.5707963267948966
g65
tp94
ag89
ag90
ag93
ag93
ag91
ag92
ag94
ag87
a(g72
F1.5707963267948966
g63
tp95
a(g72
F1.5707963267948966
g63
tp96
a(g72
F1.5707963267948966
g68
tp97
ag79
ag80
a(g72
I0
g68
tp98
a(g72
I0
g63
tp99
ag76
a(g72
I0
g65
tp100
a(g62
I0
g65
tp101
ag64
ag71
ag69
a(g62
I0
g68
tp102
a(g62
I0
g65
tp103
ag64
ag73
ag76
ag100
ag75
ag76
a(g72
I0
g68
tp104
ag100
a(g72
I0
g68
tp105
ag100
a(g84
I0
g65
tp106
a(g84
I0
g65
tp107
a(g84
I0
g63
tp108
a(g72
I0
g63
tp109
a(g72
I0
g63
tp110
ag110
ag110
ag76
ag100
ag101
a(g62
I0
g68
tp111
ag70
ag73
ag74
ag75
a(g72
I0
g63
tp112
ag74
ag106
a(g84
I0
g65
tp113
ag107
ag108
a(S'p3'
p114
I0
g63
tp115
asS's'
p116
(lp117
(g62
I0
g22
tp118
ag64
ag66
ag67
ag67
ag64
ag66
ag64
ag69
ag70
ag71
ag73
ag74
ag75
ag76
ag77
ag78
ag79
ag80
ag81
ag82
ag83
ag80
ag81
ag83
ag85
ag86
ag86
ag87
ag88
ag89
ag87
ag88
ag90
ag91
ag92
ag93
ag94
ag89
ag90
ag93
ag93
ag91
ag92
ag94
ag87
ag95
ag96
ag97
ag79
ag80
ag98
ag99
ag76
ag100
ag101
ag64
ag71
ag69
ag102
ag103
ag64
ag73
ag76
ag100
ag75
ag76
ag104
ag100
ag105
ag100
ag106
ag107
ag108
ag109
ag110
ag110
ag110
ag76
ag100
ag101
ag111
ag70
ag73
ag74
ag75
ag112
ag74
ag106
ag113
ag107
ag108
asS'ui'
p119
(lp120
S'hp'
p121
ag60
ag60
aS'ss'
p122
ag121
aS'hs'
p123
ag121
ag60
ag123
ag121
ag121
ag121
ag122
ag121
ag60
ag121
ag121
ag121
ag123
ag121
ag122
ag121
ag123
ag123
ag60
ag60
ag123
ag122
ag60
ag60
ag121
ag123
ag60
ag123
ag121
ag121
ag121
ag122
ag121
ag60
ag122
ag122
ag60
ag122
ag123
ag60
ag123
ag123
ag123
ag122
ag122
ag123
ag121
ag121
ag123
ag121
ag121
ag122
ag123
ag123
ag121
ag60
ag121
ag121
ag121
ag121
ag60
ag60
ag123
ag121
ag122
ag121
ag121
ag122
ag123
ag60
ag122
ag123
ag121
ag123
ag60
ag123
ag121
ag60
ag122
ag121
ag121
ag122
ag122
ag121
ag121
ag122
asS'um_before'
p124
(lp125
g121
ag123
ag122
ag122
ag121
ag123
ag121
ag121
ag123
ag122
ag60
ag123
ag121
ag121
ag60
ag60
ag121
ag123
ag123
ag122
ag123
ag123
ag123
ag123
ag122
ag60
ag60
ag121
ag123
ag122
ag121
ag123
ag123
ag123
ag121
ag60
ag121
ag122
ag123
ag60
ag60
ag123
ag121
ag121
ag121
ag122
ag60
ag121
ag121
ag123
ag122
ag123
ag121
ag121
ag60
ag121
ag122
ag121
ag60
ag121
ag121
ag60
ag121
ag121
ag121
ag121
ag122
ag121
ag123
ag121
ag122
ag60
ag121
ag122
ag122
ag122
ag122
ag121
ag121
ag60
ag123
ag123
ag60
ag123
ag121
ag60
ag123
ag122
ag122
ag60
ag121
ag60
asS'um_after'
p126
(lp127
g121
ag123
ag122
ag122
ag121
ag123
ag121
ag121
ag123
ag122
ag60
ag123
ag121
ag121
ag60
ag60
ag121
ag123
ag123
ag122
ag123
ag123
ag123
ag123
ag122
ag60
ag60
ag121
ag123
ag122
ag121
ag123
ag123
ag123
ag121
ag60
ag121
ag122
ag123
ag60
ag60
ag123
ag121
ag121
ag121
ag122
ag60
ag121
ag121
ag123
ag122
ag123
ag121
ag121
ag60
ag121
ag122
ag121
ag60
ag121
ag121
ag60
ag121
ag121
ag121
ag121
ag122
ag121
ag123
ag121
ag122
ag60
ag121
ag122
ag122
ag122
ag122
ag121
ag121
ag60
ag123
ag123
ag60
ag123
ag121
ag60
ag123
ag122
ag122
ag60
ag121
ag60
asS'is_normalized_entropy_less_than_threshold'
p128
(lp129
g50
(g51
(S'b1'
p130
I0
I1
tp131
Rp132
(I3
S'|'
p133
NNNI-1
I-1
I0
tp134
bS'\x01'
p135
tp136
Rp137
ag137
ag137
ag137
ag137
ag137
ag137
ag137
ag137
ag137
ag137
ag137
ag137
ag137
ag137
ag137
ag137
ag137
ag137
ag137
ag137
ag137
ag137
ag137
ag137
ag137
ag137
ag137
ag137
ag137
ag137
ag137
ag137
ag137
ag137
ag137
ag137
ag137
ag137
ag137
ag137
ag137
ag137
ag137
ag137
ag137
ag137
ag137
ag137
ag137
ag137
ag137
ag137
ag137
ag137
ag137
ag137
ag137
ag137
ag137
ag137
ag137
ag137
ag137
ag137
ag137
ag137
ag137
ag137
ag137
ag137
ag137
ag137
ag137
ag137
ag137
ag137
ag137
ag137
ag137
ag137
ag137
ag137
ag137
ag137
ag137
ag137
ag137
ag137
ag137
ag137
ag137
asaa(lp138
S'index'
p139
aI47174
aatp140
Rp141
.