ccollections
OrderedDict
p0
((lp1
(lp2
S'combination_dict'
p3
ag0
((lp4
(lp5
S'r_to_g_config'
p6
aS'bl'
p7
aa(lp8
S'num_turns'
p9
aI2
aa(lp10
S'start_direction'
p11
acutils_ms
StartDirection
p12
(I1
tp13
Rp14
aa(lp15
S'assistance_type'
p16
acutils_ms
AssistanceType
p17
(I0
tp18
Rp19
aa(lp20
S'start_mode'
p21
aS'x'
p22
aa(lp23
S'ui_given_a_noise'
p24
aF0.7
aa(lp25
S'um_given_ui_noise'
p26
aF0.1
aa(lp27
S'entropy_threshold'
p28
aF0.9
aatp29
Rp30
aa(lp31
S'data'
p32
accollections
defaultdict
p33
(c__builtin__
list
p34
tp35
Rp36
S'a'
p37
(lp38
S'mode_r'
p39
aS'mode_l'
p40
ag39
aS'move_n'
p41
ag40
ag41
ag40
ag41
ag39
ag39
ag40
ag41
ag39
ag39
ag39
ag40
ag41
ag40
ag41
ag39
ag40
ag41
ag39
ag41
ag40
ag41
ag40
aS'move_p'
p42
ag39
ag42
ag40
ag41
asS'assistance_match_with_ground_truth'
p43
(lp44
I00
aI00
aI01
aI00
aI01
aI00
aI01
aI00
aI00
aI00
aI01
aI00
aI00
aI00
aI00
aI01
aI01
aI01
aI00
aI00
aI01
aI00
aI01
aI01
aI01
aI01
aI01
aI00
aI01
aI01
aI01
aI01
asS'is_u_intended_equals_um'
p45
(lp46
I01
aI01
aI01
aI01
aI01
aI01
aI01
aI01
aI01
aI01
aI01
aI01
aI01
aI01
aI01
aI01
aI01
aI01
aI01
aI01
aI01
aI01
aI01
aI01
aI01
aI01
aI01
aI01
aI01
aI01
aI01
aI01
asS'total_steps'
p47
I32
sS'normalized_h_of_p_ui_given_um'
p48
(lp49
cnumpy.core.multiarray
scalar
p50
(cnumpy
dtype
p51
(S'f8'
p52
I0
I1
tp53
Rp54
(I3
S'<'
p55
NNNI-1
I-1
I0
tp56
bS'Wm\x13\xf7K\x19\xe1?'
p57
tp58
Rp59
ag50
(g54
S'\x86\xb3\x9d\xb9\x8eo\xd9?'
p60
tp61
Rp62
ag50
(g54
S'U\x99&\x97\xf4\xd0\xd4?'
p63
tp64
Rp65
ag50
(g54
S'x\xab\xb2T$\x86\xdd?'
p66
tp67
Rp68
ag50
(g54
S'\xe1\xffz_)&\xcf?'
p69
tp70
Rp71
ag50
(g54
S'x\xab\xb2T$\x86\xdd?'
p72
tp73
Rp74
ag50
(g54
S'\xe1\xffz_)&\xcf?'
p75
tp76
Rp77
ag50
(g54
S'\x8e\x0f\x8esu\x97\xe4?'
p78
tp79
Rp80
ag50
(g54
S'\no\xc9\xae\x01\xb3\xe1?'
p81
tp82
Rp83
ag50
(g54
S'Wm\x13\xf7K\x19\xe1?'
p84
tp85
Rp86
ag50
(g54
S'\xe1\xffz_)&\xcf?'
p87
tp88
Rp89
ag50
(g54
S'\x8e\x0f\x8esu\x97\xe4?'
p90
tp91
Rp92
ag50
(g54
S';\x96\xa7Kj\xaa\xd3?'
p93
tp94
Rp95
ag50
(g54
S'\no\xc9\xae\x01\xb3\xe1?'
p96
tp97
Rp98
ag50
(g54
S'Wm\x13\xf7K\x19\xe1?'
p99
tp100
Rp101
ag50
(g54
S'\xe1\xffz_)&\xcf?'
p102
tp103
Rp104
ag50
(g54
S'\x05\xaf\xa7\xf1\xf2\xe4\xcb?'
p105
tp106
Rp107
ag50
(g54
S'\xe1\xffz_)&\xcf?'
p108
tp109
Rp110
ag50
(g54
S'\x8e\x0f\x8esu\x97\xe4?'
p111
tp112
Rp113
ag50
(g54
S'Wm\x13\xf7K\x19\xe1?'
p114
tp115
Rp116
ag50
(g54
S'\xe1\xffz_)&\xcf?'
p117
tp118
Rp119
ag50
(g54
S'\x84\x88\xbd\xb0\xf1\xc8\xdf?'
p120
tp121
Rp122
ag50
(g54
S'U\x99&\x97\xf4\xd0\xd4?'
p123
tp124
Rp125
ag50
(g54
S'\x05\xaf\xa7\xf1\xf2\xe4\xcb?'
p126
tp127
Rp128
ag50
(g54
S'\xe1\xffz_)&\xcf?'
p129
tp130
Rp131
ag50
(g54
S'\x05\xaf\xa7\xf1\xf2\xe4\xcb?'
p132
tp133
Rp134
ag50
(g54
S'\xe1\xffz_)&\xcf?'
p135
tp136
Rp137
ag50
(g54
S'\x97c\xc1\xb3\x8f7\xda?'
p138
tp139
Rp140
ag50
(g54
S'U\x99&\x97\xf4\xd0\xd4?'
p141
tp142
Rp143
ag50
(g54
S'\x04\xebX[\xec\xf1\xba?'
p144
tp145
Rp146
ag50
(g54
S'\xe1\xffz_)&\xcf?'
p147
tp148
Rp149
ag50
(g54
S'\x05\xaf\xa7\xf1\xf2\xe4\xcb?'
p150
tp151
Rp152
asS'sp'
p153
(lp154
(S'p0'
p155
I0
S't'
p156
tp157
a(g155
I0
S'x'
p158
tp159
a(g155
I0
S'y'
p160
tp161
a(g155
I0
g156
tp162
a(g155
I0
g160
tp163
ag162
ag163
a(g155
I0
g158
tp164
a(g155
I0
g158
tp165
ag157
ag163
ag164
a(g155
I0
g158
tp166
ag165
ag157
ag163
a(S'p1'
p167
I0
g160
tp168
a(g167
I0
g158
tp169
a(g167
I0
g156
tp170
a(g167
I0
g160
tp171
ag169
a(g155
I0
g158
tp172
ag161
ag168
ag169
a(S'p2'
p173
I0
g158
tp174
a(g173
I0
g156
tp175
a(g173
I0
g160
tp176
a(g173
I0
g156
tp177
a(g173
F1.5707963267948966
g156
tp178
a(g173
F1.5707963267948966
g160
tp179
a(S'p3'
p180
F1.5707963267948966
g160
tp181
asS's'
p182
(lp183
(g155
I0
g22
tp184
ag157
ag159
ag161
ag162
ag163
ag162
ag163
ag164
ag165
ag157
ag163
ag164
ag166
ag165
ag157
ag163
ag168
ag169
ag170
ag171
ag169
ag172
ag161
ag168
ag169
ag174
ag175
ag176
ag177
ag178
ag179
asS'ui'
p185
(lp186
S'hs'
p187
aS'hp'
p188
ag188
aS'ss'
p189
ag187
ag189
ag187
ag187
ag189
ag187
ag187
ag187
ag153
ag189
ag188
ag188
ag189
ag187
ag187
ag187
ag187
ag187
ag188
ag189
ag187
ag189
ag187
ag187
ag188
ag153
ag187
ag189
asS'um_before'
p190
(lp191
g187
ag188
ag188
ag188
ag187
ag188
ag187
ag187
ag189
ag187
ag187
ag187
ag153
ag189
ag187
ag187
ag189
ag187
ag187
ag187
ag187
ag153
ag188
ag189
ag187
ag189
ag187
ag187
ag188
ag153
ag187
ag189
asS'um_after'
p192
(lp193
g187
ag188
ag188
ag188
ag187
ag188
ag187
ag187
ag189
ag187
ag187
ag187
ag153
ag189
ag187
ag187
ag189
ag187
ag187
ag187
ag187
ag153
ag188
ag189
ag187
ag189
ag187
ag187
ag188
ag153
ag187
ag189
asS'is_normalized_entropy_less_than_threshold'
p194
(lp195
g50
(g51
(S'b1'
p196
I0
I1
tp197
Rp198
(I3
S'|'
p199
NNNI-1
I-1
I0
tp200
bS'\x01'
p201
tp202
Rp203
ag203
ag203
ag203
ag203
ag203
ag203
ag203
ag203
ag203
ag203
ag203
ag203
ag203
ag203
ag203
ag203
ag203
ag203
ag203
ag203
ag203
ag203
ag203
ag203
ag203
ag203
ag203
ag203
ag203
ag203
ag203
asaa(lp204
S'index'
p205
aI72645
aatp206
Rp207
.