ccollections
OrderedDict
p0
((lp1
(lp2
S'combination_dict'
p3
ag0
((lp4
(lp5
S'r_to_g_config'
p6
aS'tr'
p7
aa(lp8
S'num_turns'
p9
aI3
aa(lp10
S'start_direction'
p11
acutils_ms
StartDirection
p12
(I0
tp13
Rp14
aa(lp15
S'assistance_type'
p16
acutils_ms
AssistanceType
p17
(I0
tp18
Rp19
aa(lp20
S'start_mode'
p21
aS'y'
p22
aa(lp23
S'ui_given_a_noise'
p24
aF0.5
aa(lp25
S'um_given_ui_noise'
p26
aF0.7
aa(lp27
S'entropy_threshold'
p28
aF0.7
aatp29
Rp30
aa(lp31
S'data'
p32
accollections
defaultdict
p33
(c__builtin__
list
p34
tp35
Rp36
S'a'
p37
(lp38
S'mode_l'
p39
ag39
ag39
aS'move_p'
p40
aS'mode_r'
p41
ag41
ag41
ag40
ag41
ag40
ag39
ag40
ag40
ag41
ag40
ag41
ag41
ag41
ag41
ag40
ag41
ag41
ag41
ag41
ag40
ag41
ag40
ag39
ag41
ag41
ag41
ag41
ag41
ag41
ag40
ag41
ag40
ag39
ag39
ag39
ag41
ag41
ag40
ag41
ag41
ag41
ag41
ag41
ag41
ag40
ag40
ag40
asS'assistance_match_with_ground_truth'
p42
(lp43
I00
aI00
aI01
aI00
aI00
aI00
aI01
aI01
aI01
aI00
aI01
aI00
aI01
aI01
aI01
aI00
aI00
aI00
aI01
aI01
aI00
aI00
aI00
aI01
aI01
aI01
aI00
aI00
aI00
aI00
aI00
aI00
aI00
aI01
aI01
aI01
aI00
aI00
aI00
aI00
aI00
aI01
aI01
aI00
aI00
aI00
aI00
aI00
aI01
aI00
aI00
aI01
asS'is_u_intended_equals_um'
p44
(lp45
I01
aI00
aI01
aI00
aI00
aI00
aI01
aI01
aI01
aI00
aI01
aI00
aI01
aI01
aI01
aI00
aI00
aI00
aI01
aI01
aI00
aI00
aI00
aI01
aI01
aI01
aI00
aI01
aI00
aI00
aI00
aI00
aI00
aI01
aI01
aI01
aI00
aI00
aI00
aI01
aI00
aI01
aI01
aI00
aI00
aI00
aI00
aI00
aI01
aI00
aI00
aI01
asS'total_steps'
p46
I52
sS'normalized_h_of_p_ui_given_um'
p47
(lp48
cnumpy.core.multiarray
scalar
p49
(cnumpy
dtype
p50
(S'f8'
p51
I0
I1
tp52
Rp53
(I3
S'<'
p54
NNNI-1
I-1
I0
tp55
bS'\x02\xa1# \xfd\xa2\xe9?'
p56
tp57
Rp58
ag49
(g53
S'\xe0\xa3\xdc\xc5y\r\xe8?'
p59
tp60
Rp61
ag49
(g53
S'\xf6P\x99\x857\xc9\xdf?'
p62
tp63
Rp64
ag49
(g53
S'\x96\xa7\x994Z(\xe7?'
p65
tp66
Rp67
ag49
(g53
S'\xdcLXX\xab\x19\xe3?'
p68
tp69
Rp70
ag49
(g53
S'\xdcLXX\xab\x19\xe3?'
p71
tp72
Rp73
ag49
(g53
S'\xfaov^M\xf1\xd4?'
p74
tp75
Rp76
ag49
(g53
S':uk\x19\xca\x0b\xcb?'
p77
tp78
Rp79
ag49
(g53
S'\xfaov^M\xf1\xd4?'
p80
tp81
Rp82
ag49
(g53
S'\x01\xab\xa6\xb9\x02{\xea?'
p83
tp84
Rp85
ag49
(g53
S'\xf6P\x99\x857\xc9\xdf?'
p86
tp87
Rp88
ag49
(g53
S'\xbe\xb9\xb2\xca\xb9\xdf\xe1?'
p89
tp90
Rp91
ag49
(g53
S':uk\x19\xca\x0b\xcb?'
p92
tp93
Rp94
ag49
(g53
S'\xfaov^M\xf1\xd4?'
p95
tp96
Rp97
ag49
(g53
S':uk\x19\xca\x0b\xcb?'
p98
tp99
Rp100
ag49
(g53
S'\x07\x84\xc7\x05^\xbf\xdf?'
p101
tp102
Rp103
ag49
(g53
S'\xdcLXX\xab\x19\xe3?'
p104
tp105
Rp106
ag49
(g53
S'\xdcLXX\xab\x19\xe3?'
p107
tp108
Rp109
ag49
(g53
S'\xfaov^M\xf1\xd4?'
p110
tp111
Rp112
ag49
(g53
S':uk\x19\xca\x0b\xcb?'
p113
tp114
Rp115
ag49
(g53
S'\xdcLXX\xab\x19\xe3?'
p116
tp117
Rp118
ag49
(g53
S'\xdcLXX\xab\x19\xe3?'
p119
tp120
Rp121
ag49
(g53
S'\xdcLXX\xab\x19\xe3?'
p122
tp123
Rp124
ag49
(g53
S'\xfaov^M\xf1\xd4?'
p125
tp126
Rp127
ag49
(g53
S':uk\x19\xca\x0b\xcb?'
p128
tp129
Rp130
ag49
(g53
S'\xfaov^M\xf1\xd4?'
p131
tp132
Rp133
ag49
(g53
S'\x01\xab\xa6\xb9\x02{\xea?'
p134
tp135
Rp136
ag49
(g53
S'\xe2{>\xde\x84\xe2\xea?'
p137
tp138
Rp139
ag49
(g53
S'\x07\x84\xc7\x05^\xbf\xdf?'
p140
tp141
Rp142
ag49
(g53
S'\x07\x84\xc7\x05^\xbf\xdf?'
p143
tp144
Rp145
ag49
(g53
S'\xdcLXX\xab\x19\xe3?'
p146
tp147
Rp148
ag49
(g53
S'\xdcLXX\xab\x19\xe3?'
p149
tp150
Rp151
ag49
(g53
S'\xcc\x0f\xff~G1\xe5?'
p152
tp153
Rp154
ag49
(g53
S'\xfaov^M\xf1\xd4?'
p155
tp156
Rp157
ag49
(g53
S':uk\x19\xca\x0b\xcb?'
p158
tp159
Rp160
ag49
(g53
S'\xfaov^M\xf1\xd4?'
p161
tp162
Rp163
ag49
(g53
S'\x01\xab\xa6\xb9\x02{\xea?'
p164
tp165
Rp166
ag49
(g53
S'\xe0\xa3\xdc\xc5y\r\xe8?'
p167
tp168
Rp169
ag49
(g53
S'\xe0\xa3\xdc\xc5y\r\xe8?'
p170
tp171
Rp172
ag49
(g53
S'\xe2{>\xde\x84\xe2\xea?'
p173
tp174
Rp175
ag49
(g53
S'\xdcLXX\xab\x19\xe3?'
p176
tp177
Rp178
ag49
(g53
S'\xfaov^M\xf1\xd4?'
p179
tp180
Rp181
ag49
(g53
S':uk\x19\xca\x0b\xcb?'
p182
tp183
Rp184
ag49
(g53
S'\xdcLXX\xab\x19\xe3?'
p185
tp186
Rp187
ag49
(g53
S'\xdcLXX\xab\x19\xe3?'
p188
tp189
Rp190
ag49
(g53
S'\xcc\x0f\xff~G1\xe5?'
p191
tp192
Rp193
ag49
(g53
S'\xdcLXX\xab\x19\xe3?'
p194
tp195
Rp196
ag49
(g53
S'\xdcLXX\xab\x19\xe3?'
p197
tp198
Rp199
ag49
(g53
S'\xfaov^M\xf1\xd4?'
p200
tp201
Rp202
ag49
(g53
S'\xbe\xb9\xb2\xca\xb9\xdf\xe1?'
p203
tp204
Rp205
ag49
(g53
S'\xbe\xb9\xb2\xca\xb9\xdf\xe1?'
p206
tp207
Rp208
ag49
(g53
S':uk\x19\xca\x0b\xcb?'
p209
tp210
Rp211
asS'sp'
p212
(lp213
(S'p0'
p214
I0
S'y'
p215
tp216
a(g214
I0
g215
tp217
a(g214
I0
S'x'
p218
tp219
a(g214
I0
S't'
p220
tp221
ag221
ag221
a(g214
I0
g218
tp222
a(S'p1'
p223
I0
g218
tp224
a(g223
I0
g215
tp225
a(g214
I0
g215
tp226
ag219
ag219
ag224
ag225
a(S'p2'
p227
I0
g215
tp228
ag228
ag228
ag228
a(g227
I0
g220
tp229
a(g227
F1.5707963267948966
g220
tp230
ag230
ag230
ag230
a(g227
F1.5707963267948966
g218
tp231
a(S'p3'
p232
F1.5707963267948966
g218
tp233
a(g232
F1.5707963267948966
g215
tp234
a(g227
F1.5707963267948966
g215
tp235
a(g227
F1.5707963267948966
g220
tp236
ag236
ag236
ag236
ag236
ag236
ag231
ag233
ag234
ag235
a(g227
F1.5707963267948966
g215
tp237
ag237
ag236
ag236
ag231
ag233
ag233
ag233
ag233
ag233
ag233
ag234
ag234
ag234
a(S'p4'
p238
F1.5707963267948966
g215
tp239
asS's'
p240
(lp241
(g214
I0
g22
tp242
ag216
ag217
ag219
ag221
ag221
ag221
ag222
ag224
ag225
ag226
ag219
ag219
ag224
ag225
ag228
ag228
ag228
ag228
ag229
ag230
ag230
ag230
ag230
ag231
ag233
ag234
ag235
ag236
ag236
ag236
ag236
ag236
ag236
ag231
ag233
ag234
ag235
ag237
ag237
ag236
ag236
ag231
ag233
ag233
ag233
ag233
ag233
ag233
ag234
ag234
ag234
asS'ui'
p243
(lp244
g212
aS'hs'
p245
ag245
ag245
aS'hp'
p246
ag212
ag246
ag212
ag246
ag212
ag245
ag212
ag212
ag246
ag212
aS'ss'
p247
ag212
ag245
ag246
ag212
ag212
ag246
ag246
ag246
ag212
ag246
ag212
ag212
ag246
ag246
ag212
ag246
ag246
ag246
ag212
ag246
ag212
ag247
ag245
ag246
ag246
ag246
ag212
ag212
ag247
ag246
ag212
ag212
ag212
ag212
ag212
ag246
asS'um_before'
p248
(lp249
g212
ag247
ag245
ag245
ag212
ag212
ag246
ag212
ag246
ag247
ag245
ag246
ag212
ag246
ag212
ag247
ag212
ag212
ag246
ag212
ag212
ag212
ag212
ag246
ag212
ag246
ag247
ag246
ag247
ag247
ag212
ag212
ag245
ag246
ag212
ag246
ag247
ag247
ag247
ag246
ag212
ag246
ag212
ag212
ag212
ag245
ag212
ag212
ag246
ag246
ag246
ag212
asS'um_after'
p250
(lp251
g212
ag247
ag245
ag245
aNaNag246
ag212
ag246
ag247
ag245
aNag212
ag246
ag212
aNaNaNag246
ag212
aNaNaNag246
ag212
ag246
ag247
ag246
aNaNaNaNaNag246
ag212
ag246
ag247
ag247
ag247
ag246
aNag246
ag212
aNaNaNaNaNag246
aNaNag212
asS'is_normalized_entropy_less_than_threshold'
p252
(lp253
g49
(g50
(S'b1'
p254
I0
I1
tp255
Rp256
(I3
S'|'
p257
NNNI-1
I-1
I0
tp258
bS'\x00'
p259
tp260
Rp261
ag261
ag49
(g256
S'\x01'
p262
tp263
Rp264
ag261
ag264
ag264
ag264
ag264
ag264
ag261
ag264
ag264
ag264
ag264
ag264
ag264
ag264
ag264
ag264
ag264
ag264
ag264
ag264
ag264
ag264
ag264
ag261
ag261
ag264
ag264
ag264
ag264
ag264
ag264
ag264
ag264
ag261
ag261
ag261
ag261
ag264
ag264
ag264
ag264
ag264
ag264
ag264
ag264
ag264
ag264
ag264
ag264
asaa(lp265
S'index'
p266
aI20572
aatp267
Rp268
.