ccollections
OrderedDict
p0
((lp1
(lp2
S'combination_dict'
p3
ag0
((lp4
(lp5
S'r_to_g_config'
p6
aS'tr'
p7
aa(lp8
S'num_turns'
p9
aI2
aa(lp10
S'start_direction'
p11
acutils_ms
StartDirection
p12
(I0
tp13
Rp14
aa(lp15
S'assistance_type'
p16
acutils_ms
AssistanceType
p17
(I1
tp18
Rp19
aa(lp20
S'start_mode'
p21
aS't'
p22
aa(lp23
S'ui_given_a_noise'
p24
aF0.3
aa(lp25
S'um_given_ui_noise'
p26
aF0.7
aa(lp27
S'entropy_threshold'
p28
aF0.9
aatp29
Rp30
aa(lp31
S'data'
p32
accollections
defaultdict
p33
(c__builtin__
list
p34
tp35
Rp36
S'a'
p37
(lp38
S'mode_r'
p39
aS'move_p'
p40
ag39
ag40
aS'mode_l'
p41
ag40
ag39
ag40
ag41
ag40
ag40
ag39
ag40
ag39
ag40
ag39
ag40
asS'assistance_match_with_ground_truth'
p42
(lp43
I01
aI01
aI01
aI00
aI01
aI01
aI01
aI00
aI01
aI00
aI01
aI01
aI01
aI01
aI01
aI01
aI01
asS'is_u_intended_equals_um'
p44
(lp45
I01
aI01
aI01
aI00
aI01
aI01
aI00
aI01
aI00
aI01
aI01
aI00
aI01
aI00
aI01
aI00
aI00
asS'total_steps'
p46
I17
sS'normalized_h_of_p_ui_given_um'
p47
(lp48
cnumpy.core.multiarray
scalar
p49
(cnumpy
dtype
p50
(S'f8'
p51
I0
I1
tp52
Rp53
(I3
S'<'
p54
NNNI-1
I-1
I0
tp55
bS'\x027\x9fH\xefp\xbd?'
p56
tp57
Rp58
ag49
(g53
S'4^\x03e?C\xd0?'
p59
tp60
Rp61
ag49
(g53
S'\x027\x9fH\xefp\xbd?'
p62
tp63
Rp64
ag49
(g53
S'\x05\x93\x93\x98\xdb]\xec?'
p65
tp66
Rp67
ag49
(g53
S'\tE\x9a\xf9Z\xda\xd6?'
p68
tp69
Rp70
ag49
(g53
S'4^\x03e?C\xd0?'
p71
tp72
Rp73
ag49
(g53
S'\xca\xb2\xc2\\\x1a^\xda?'
p74
tp75
Rp76
ag49
(g53
S'\x8e\n\x0f\x86\xd1\x0e\xe1?'
p77
tp78
Rp79
ag49
(g53
S'\x1e!N\xa3\x08\xe2\xe1?'
p80
tp81
Rp82
ag49
(g53
S'\x8e\n\x0f\x86\xd1\x0e\xe1?'
p83
tp84
Rp85
ag49
(g53
S'4^\x03e?C\xd0?'
p86
tp87
Rp88
ag49
(g53
S'\xca\xb2\xc2\\\x1a^\xda?'
p89
tp90
Rp91
ag49
(g53
S'4^\x03e?C\xd0?'
p92
tp93
Rp94
ag49
(g53
S'\xca\xb2\xc2\\\x1a^\xda?'
p95
tp96
Rp97
ag49
(g53
S'4^\x03e?C\xd0?'
p98
tp99
Rp100
ag49
(g53
S'\xca\xb2\xc2\\\x1a^\xda?'
p101
tp102
Rp103
ag49
(g53
S'z\x1f]\x109\x06\xd8?'
p104
tp105
Rp106
asS'sp'
p107
(lp108
(S'p0'
p109
I0
S'x'
p110
tp111
a(S'p1'
p112
I0
g110
tp113
a(g112
I0
S'y'
p114
tp115
a(g109
I0
g114
tp116
a(g109
I0
g110
tp117
ag113
ag115
ag116
ag117
a(g109
I0
g110
tp118
ag113
ag115
a(S'p2'
p119
I0
g114
tp120
a(g119
I0
S't'
p121
tp122
a(g119
F1.5707963267948966
g121
tp123
a(g119
F1.5707963267948966
g110
tp124
a(S'p3'
p125
F1.5707963267948966
g110
tp126
asS's'
p127
(lp128
(g109
I0
g22
tp129
ag111
ag113
ag115
ag116
ag117
ag113
ag115
ag116
ag117
ag118
ag113
ag115
ag120
ag122
ag123
ag124
asS'ui'
p130
(lp131
S'hp'
p132
ag107
ag132
aS'ss'
p133
aS'hs'
p134
ag107
ag132
ag133
ag134
ag133
ag132
ag132
ag107
ag132
ag132
ag132
ag107
asS'um_before'
p135
(lp136
g132
ag107
ag132
ag134
ag134
ag107
ag107
ag133
ag133
ag133
ag107
ag107
ag107
ag107
ag107
ag107
ag132
asS'um_after'
p137
(lp138
g132
ag107
ag132
ag133
ag134
ag107
ag132
ag133
ag134
ag133
ag107
ag132
ag107
ag132
ag107
ag132
ag107
asS'is_normalized_entropy_less_than_threshold'
p139
(lp140
g49
(g50
(S'b1'
p141
I0
I1
tp142
Rp143
(I3
S'|'
p144
NNNI-1
I-1
I0
tp145
bS'\x01'
p146
tp147
Rp148
ag148
ag148
ag148
ag148
ag148
ag148
ag148
ag148
ag148
ag148
ag148
ag148
ag148
ag148
ag148
ag148
asaa(lp149
S'index'
p150
aI11598
aatp151
Rp152
.