ccollections
OrderedDict
p0
((lp1
(lp2
S'combination_dict'
p3
ag0
((lp4
(lp5
S'r_to_g_config'
p6
aS'bl'
p7
aa(lp8
S'num_turns'
p9
aI2
aa(lp10
S'start_direction'
p11
acutils_ms
StartDirection
p12
(I1
tp13
Rp14
aa(lp15
S'assistance_type'
p16
acutils_ms
AssistanceType
p17
(I0
tp18
Rp19
aa(lp20
S'start_mode'
p21
aS'x'
p22
aa(lp23
S'ui_given_a_noise'
p24
aF0.7
aa(lp25
S'um_given_ui_noise'
p26
aF0.5
aa(lp27
S'entropy_threshold'
p28
aF0.9
aatp29
Rp30
aa(lp31
S'data'
p32
accollections
defaultdict
p33
(c__builtin__
list
p34
tp35
Rp36
S'a'
p37
(lp38
S'mode_r'
p39
aS'move_n'
p40
ag40
aS'mode_l'
p41
ag40
ag39
ag40
ag41
ag41
ag40
ag41
ag41
ag41
ag40
ag39
aS'move_p'
p42
ag42
ag42
ag39
ag42
ag42
ag39
ag42
ag39
ag41
ag39
ag40
ag39
ag39
ag40
asS'assistance_match_with_ground_truth'
p43
(lp44
I01
aI00
aI00
aI01
aI00
aI01
aI00
aI00
aI01
aI00
aI00
aI00
aI01
aI01
aI01
aI00
aI00
aI01
aI00
aI00
aI00
aI01
aI00
aI00
aI00
aI01
aI00
aI00
aI01
aI01
asS'is_u_intended_equals_um'
p45
(lp46
I01
aI01
aI01
aI01
aI00
aI01
aI01
aI00
aI01
aI01
aI00
aI00
aI01
aI01
aI01
aI01
aI00
aI01
aI01
aI00
aI01
aI01
aI01
aI00
aI01
aI01
aI00
aI01
aI01
aI01
asS'total_steps'
p47
I30
sS'normalized_h_of_p_ui_given_um'
p48
(lp49
cnumpy.core.multiarray
scalar
p50
(cnumpy
dtype
p51
(S'f8'
p52
I0
I1
tp53
Rp54
(I3
S'<'
p55
NNNI-1
I-1
I0
tp56
bS'\xf8\xd8\xff#&\x12\xe3?'
p57
tp58
Rp59
ag50
(g54
S'\xa9;c\xb3\x89c\xe8?'
p60
tp61
Rp62
ag50
(g54
S'\x1e\xbc\xea)\xfaI\xea?'
p63
tp64
Rp65
ag50
(g54
S'\xb5~\xceN\x84]\xe1?'
p66
tp67
Rp68
ag50
(g54
S'\xd59\x17\xde\xe5\xf9\xee?'
p69
tp70
Rp71
ag50
(g54
S'\xf8\xd8\xff#&\x12\xe3?'
p72
tp73
Rp74
ag50
(g54
S'\x1e\xbc\xea)\xfaI\xea?'
p75
tp76
Rp77
ag50
(g54
S'`\xd0\xce\xae\xa8\xbf\xe6?'
p78
tp79
Rp80
ag50
(g54
S'\xb5~\xceN\x84]\xe1?'
p81
tp82
Rp83
ag50
(g54
S'\x1e\xbc\xea)\xfaI\xea?'
p84
tp85
Rp86
ag50
(g54
S'`\xd0\xce\xae\xa8\xbf\xe6?'
p87
tp88
Rp89
ag50
(g54
S'`\xd0\xce\xae\xa8\xbf\xe6?'
p90
tp91
Rp92
ag50
(g54
S'\xb5~\xceN\x84]\xe1?'
p93
tp94
Rp95
ag50
(g54
S'\x06H\x1aT\xe9\x10\xdf?'
p96
tp97
Rp98
ag50
(g54
S'\xf8\xd8\xff#&\x12\xe3?'
p99
tp100
Rp101
ag50
(g54
S'\xe9\xa6\xb0@\xfd?\xe4?'
p102
tp103
Rp104
ag50
(g54
S'\xad\x81\xf2\x14h\x16\xea?'
p105
tp106
Rp107
ag50
(g54
S'u\x99S\xf7\xdb\xd1\xdc?'
p108
tp109
Rp110
ag50
(g54
S'\xe9>\x80\xe9\xb8_\xe6?'
p111
tp112
Rp113
ag50
(g54
S'\xad\x81\xf2\x14h\x16\xea?'
p114
tp115
Rp116
ag50
(g54
S't\x9du\x83H\xc8\xe7?'
p117
tp118
Rp119
ag50
(g54
S'\xf8\xd8\xff#&\x12\xe3?'
p120
tp121
Rp122
ag50
(g54
S't\x9du\x83H\xc8\xe7?'
p123
tp124
Rp125
ag50
(g54
S'\xeb$\x08P\xdb\x92\xee?'
p126
tp127
Rp128
ag50
(g54
S'z\x91\xbb\x9c\xff~\xe2?'
p129
tp130
Rp131
ag50
(g54
S'\xf8\xd8\xff#&\x12\xe3?'
p132
tp133
Rp134
ag50
(g54
S'\xd59\x17\xde\xe5\xf9\xee?'
p135
tp136
Rp137
ag50
(g54
S'\xe9>\x80\xe9\xb8_\xe6?'
p138
tp139
Rp140
ag50
(g54
S'\xf8\xd8\xff#&\x12\xe3?'
p141
tp142
Rp143
ag50
(g54
S'\x06H\x1aT\xe9\x10\xdf?'
p144
tp145
Rp146
asS'sp'
p147
(lp148
(S'p0'
p149
I0
S'y'
p150
tp151
a(g149
I0
g150
tp152
a(g149
I0
S't'
p153
tp154
a(g149
I0
g150
tp155
a(g149
I0
S'x'
p156
tp157
ag151
ag154
ag154
ag155
ag154
ag154
ag154
ag155
a(S'p1'
p158
I0
g150
tp159
a(g158
I0
g153
tp160
a(g158
I0
g153
tp161
ag161
a(g158
F1.5707963267948966
g153
tp162
a(g158
I0
g153
tp163
ag163
a(g158
I0
g150
tp164
ag160
ag164
a(g158
I0
g156
tp165
a(S'p2'
p166
I0
g156
tp167
a(g166
I0
g150
tp168
a(g166
I0
g156
tp169
a(g166
I0
g156
tp170
ag168
a(S'p3'
p171
I0
g150
tp172
asS's'
p173
(lp174
(g149
I0
g22
tp175
ag151
ag152
ag154
ag155
ag157
ag151
ag154
ag154
ag155
ag154
ag154
ag154
ag155
ag159
ag160
ag161
ag161
ag162
ag163
ag163
ag164
ag160
ag164
ag165
ag167
ag168
ag169
ag170
ag168
asS'ui'
p176
(lp177
S'hs'
p178
aS'ss'
p179
aS'hp'
p180
ag179
ag147
ag178
ag178
ag147
ag179
ag180
ag178
ag147
ag178
ag179
ag179
ag179
ag147
ag147
ag180
ag179
ag178
ag180
ag147
ag179
ag178
ag180
ag147
ag180
ag180
ag179
asS'um_before'
p181
(lp182
g180
ag147
ag180
ag178
ag178
ag180
ag180
ag147
ag178
ag180
ag147
ag147
ag178
ag179
ag180
ag179
ag180
ag147
ag179
ag180
ag178
ag180
ag178
ag178
ag179
ag180
ag178
ag179
ag180
ag179
asS'um_after'
p183
(lp184
g180
ag147
ag180
ag178
ag178
ag180
ag180
aNag178
ag180
aNaNag178
ag179
ag180
ag179
aNag147
ag179
aNag178
ag180
ag178
ag178
ag179
ag180
ag178
ag179
ag180
ag179
asS'is_normalized_entropy_less_than_threshold'
p185
(lp186
g50
(g51
(S'b1'
p187
I0
I1
tp188
Rp189
(I3
S'|'
p190
NNNI-1
I-1
I0
tp191
bS'\x01'
p192
tp193
Rp194
ag194
ag194
ag194
ag50
(g189
S'\x00'
p195
tp196
Rp197
ag194
ag194
ag194
ag194
ag194
ag194
ag194
ag194
ag194
ag194
ag194
ag194
ag194
ag194
ag194
ag194
ag194
ag194
ag197
ag194
ag194
ag197
ag194
ag194
ag194
asaa(lp198
S'index'
p199
aI72742
aatp200
Rp201
.