ccollections
OrderedDict
p0
((lp1
(lp2
S'combination_dict'
p3
ag0
((lp4
(lp5
S'r_to_g_config'
p6
aS'tr'
p7
aa(lp8
S'num_turns'
p9
aI1
aa(lp10
S'start_direction'
p11
acutils_ms
StartDirection
p12
(I1
tp13
Rp14
aa(lp15
S'assistance_type'
p16
acutils_ms
AssistanceType
p17
(I0
tp18
Rp19
aa(lp20
S'start_mode'
p21
aS'x'
p22
aa(lp23
S'ui_given_a_noise'
p24
aF0.1
aa(lp25
S'um_given_ui_noise'
p26
aF0.5
aa(lp27
S'entropy_threshold'
p28
aF0.8
aatp29
Rp30
aa(lp31
S'data'
p32
accollections
defaultdict
p33
(c__builtin__
list
p34
tp35
Rp36
S'a'
p37
(lp38
S'mode_r'
p39
ag39
aS'move_p'
p40
ag39
ag39
ag39
ag40
ag39
ag40
ag40
asS'assistance_match_with_ground_truth'
p41
(lp42
I00
aI01
aI01
aI00
aI00
aI01
aI01
aI01
aI00
aI01
asS'is_u_intended_equals_um'
p43
(lp44
I00
aI01
aI01
aI00
aI00
aI01
aI01
aI01
aI00
aI01
asS'total_steps'
p45
I10
sS'normalized_h_of_p_ui_given_um'
p46
(lp47
cnumpy.core.multiarray
scalar
p48
(cnumpy
dtype
p49
(S'f8'
p50
I0
I1
tp51
Rp52
(I3
S'<'
p53
NNNI-1
I-1
I0
tp54
bS'\n\x90T\x15\xc8\xdc\xc8?'
p55
tp56
Rp57
ag48
(g52
S'\xb7\xa4\x98<Sg\xb5?'
p58
tp59
Rp60
ag48
(g52
S'\xfc\x0b0\xa7\xe5\xec\xc2?'
p61
tp62
Rp63
ag48
(g52
S'\x9eZRh_.\xda?'
p64
tp65
Rp66
ag48
(g52
S'\x9eZRh_.\xda?'
p67
tp68
Rp69
ag48
(g52
S'\xb7\xa4\x98<Sg\xb5?'
p70
tp71
Rp72
ag48
(g52
S'\xfc\x0b0\xa7\xe5\xec\xc2?'
p73
tp74
Rp75
ag48
(g52
S'\xb7\xa4\x98<Sg\xb5?'
p76
tp77
Rp78
ag48
(g52
S'a\xeb\x04Z\x846\xe0?'
p79
tp80
Rp81
ag48
(g52
S'\xfc\x0b0\xa7\xe5\xec\xc2?'
p82
tp83
Rp84
asS'sp'
p85
(lp86
(S'p0'
p87
I0
g22
tp88
a(g87
I0
S'y'
p89
tp90
a(S'p1'
p91
I0
g89
tp92
ag92
ag92
a(g91
I0
S't'
p93
tp94
a(g91
F1.5707963267948966
g93
tp95
a(g91
F1.5707963267948966
S'x'
p96
tp97
ag97
a(S'p2'
p98
F1.5707963267948966
g96
tp99
asS's'
p100
(lp101
g88
ag88
ag90
ag92
ag92
ag92
ag94
ag95
ag97
ag97
asS'ui'
p102
(lp103
S'hp'
p104
ag104
ag85
ag104
ag85
ag104
ag85
ag104
ag85
ag85
asS'um_before'
p105
(lp106
S'hs'
p107
ag104
ag85
ag85
ag85
ag104
ag85
ag104
aS'ss'
p108
ag85
asS'um_after'
p109
(lp110
Nag104
ag85
aNaNag104
ag85
ag104
aNag85
asS'is_normalized_entropy_less_than_threshold'
p111
(lp112
g48
(g49
(S'b1'
p113
I0
I1
tp114
Rp115
(I3
S'|'
p116
NNNI-1
I-1
I0
tp117
bS'\x01'
p118
tp119
Rp120
ag120
ag120
ag120
ag120
ag120
ag120
ag120
ag120
ag120
asaa(lp121
S'index'
p122
aI4930
aatp123
Rp124
.