ccollections
OrderedDict
p0
((lp1
(lp2
S'combination_dict'
p3
ag0
((lp4
(lp5
S'r_to_g_config'
p6
aS'tr'
p7
aa(lp8
S'num_turns'
p9
aI3
aa(lp10
S'start_direction'
p11
acutils_ms
StartDirection
p12
(I0
tp13
Rp14
aa(lp15
S'assistance_type'
p16
acutils_ms
AssistanceType
p17
(I2
tp18
Rp19
aa(lp20
S'start_mode'
p21
aS't'
p22
aa(lp23
S'ui_given_a_noise'
p24
aF0.5
aa(lp25
S'um_given_ui_noise'
p26
aF0.7
aa(lp27
S'entropy_threshold'
p28
aF0.9
aatp29
Rp30
aa(lp31
S'data'
p32
accollections
defaultdict
p33
(c__builtin__
list
p34
tp35
Rp36
S'a'
p37
(lp38
S'mode_r'
p39
aS'move_p'
p40
ag39
aS'mode_l'
p41
ag41
ag39
ag40
ag41
ag40
ag39
ag41
ag40
ag39
ag41
ag39
ag39
ag41
ag41
ag40
ag39
ag39
ag41
ag41
ag41
ag41
ag39
ag40
ag40
ag40
ag40
ag39
ag39
ag41
ag41
ag40
ag39
ag41
ag40
ag39
ag41
ag40
ag39
ag39
ag41
ag39
ag41
ag39
ag39
ag41
ag40
ag41
ag41
ag40
ag39
ag41
ag39
ag39
ag39
ag39
ag40
ag41
ag40
ag41
ag40
ag40
ag39
ag39
ag40
ag39
ag39
ag40
ag39
ag39
ag40
ag39
ag40
ag39
ag41
ag40
ag39
ag40
ag41
ag41
ag41
ag39
ag40
ag41
ag40
ag39
ag40
ag39
ag39
ag41
ag40
ag41
ag40
ag39
ag40
ag41
ag40
ag39
ag39
ag39
ag41
ag40
ag41
ag41
ag41
ag41
ag40
asS'assistance_match_with_ground_truth'
p42
(lp43
I01
aI01
aI00
aI00
aI00
aI01
aI00
aI01
aI00
aI00
aI01
aI00
aI00
aI00
aI00
aI00
aI00
aI01
aI00
aI00
aI00
aI00
aI00
aI00
aI00
aI01
aI00
aI00
aI00
aI01
aI00
aI00
aI00
aI01
aI01
aI00
aI01
aI00
aI00
aI01
aI00
aI00
aI00
aI00
aI00
aI00
aI00
aI00
aI01
aI00
aI00
aI01
aI01
aI00
aI00
aI00
aI00
aI00
aI01
aI00
aI01
aI00
aI01
aI00
aI01
aI00
aI01
aI00
aI00
aI01
aI01
aI00
aI01
aI01
aI01
aI00
aI00
aI01
aI00
aI01
aI01
aI00
aI00
aI00
aI01
aI00
aI01
aI00
aI01
aI01
aI00
aI00
aI01
aI00
aI01
aI01
aI01
aI00
aI01
aI01
aI00
aI00
aI00
aI01
aI00
aI00
aI00
aI00
aI01
aI01
asS'is_u_intended_equals_um'
p44
(lp45
I00
aI00
aI00
aI00
aI00
aI00
aI00
aI00
aI00
aI00
aI00
aI00
aI00
aI00
aI00
aI00
aI00
aI00
aI00
aI00
aI00
aI00
aI00
aI00
aI00
aI00
aI00
aI00
aI00
aI00
aI00
aI00
aI00
aI00
aI00
aI00
aI00
aI00
aI00
aI00
aI00
aI00
aI00
aI00
aI00
aI00
aI00
aI00
aI00
aI00
aI00
aI00
aI00
aI00
aI00
aI00
aI00
aI00
aI00
aI00
aI00
aI00
aI00
aI00
aI00
aI00
aI00
aI00
aI00
aI00
aI00
aI00
aI00
aI00
aI00
aI00
aI00
aI00
aI00
aI00
aI00
aI00
aI00
aI00
aI00
aI00
aI00
aI00
aI00
aI00
aI00
aI00
aI00
aI00
aI00
aI00
aI00
aI00
aI00
aI00
aI00
aI00
aI00
aI00
aI00
aI00
aI00
aI00
aI00
aI00
asS'total_steps'
p46
I110
sS'normalized_h_of_p_ui_given_um'
p47
(lp48
cnumpy.core.multiarray
scalar
p49
(cnumpy
dtype
p50
(S'f8'
p51
I0
I1
tp52
Rp53
(I3
S'<'
p54
NNNI-1
I-1
I0
tp55
bS'B\x8a\xfd\x06]\x97\xe3?'
p56
tp57
Rp58
ag58
ag58
ag58
ag58
ag58
ag58
ag58
ag58
ag58
ag58
ag58
ag58
ag58
ag58
ag58
ag58
ag58
ag58
ag58
ag58
ag58
ag58
ag58
ag58
ag58
ag58
ag58
ag58
ag58
ag58
ag58
ag58
ag58
ag58
ag58
ag58
ag58
ag58
ag58
ag58
ag58
ag58
ag58
ag58
ag58
ag58
ag58
ag58
ag58
ag58
ag58
ag58
ag58
ag58
ag58
ag58
ag58
ag58
ag58
ag58
ag58
ag58
ag58
ag58
ag58
ag58
ag58
ag58
ag58
ag58
ag58
ag58
ag58
ag58
ag58
ag58
ag58
ag58
ag58
ag58
ag58
ag58
ag58
ag58
ag58
ag58
ag58
ag58
ag58
ag58
ag58
ag58
ag58
ag58
ag58
ag58
ag58
ag58
ag58
ag58
ag58
ag58
ag58
ag58
ag58
ag58
ag58
ag58
ag58
asS'sp'
p59
(lp60
(S'p0'
p61
I0
S'x'
p62
tp63
a(S'p1'
p64
I0
g62
tp65
a(g64
I0
S't'
p66
tp67
a(g64
I0
g66
tp68
a(g64
I0
g62
tp69
a(g64
I0
S'y'
p70
tp71
a(g61
I0
g70
tp72
a(g61
I0
g62
tp73
a(g61
I0
g66
tp74
a(g61
I0
g70
tp75
ag73
ag74
ag75
a(g61
I0
g66
tp76
a(g61
I0
g66
tp77
ag75
a(g61
I0
g70
tp78
ag73
ag74
a(g61
I0
g66
tp79
ag75
a(g61
I0
g70
tp80
ag78
ag78
ag76
ag63
a(g61
I0
g62
tp81
ag81
ag81
ag65
a(g64
I0
g62
tp82
ag67
ag68
a(g64
I0
g70
tp83
a(S'p2'
p84
I0
g70
tp85
a(g84
I0
g62
tp86
a(g84
I0
g66
tp87
a(g84
I0
g70
tp88
ag86
ag87
ag88
a(g84
I0
g70
tp89
ag86
a(g84
I0
g70
tp90
ag86
a(g64
I0
g62
tp91
a(g64
I0
g62
tp92
ag67
ag83
a(g64
I0
g66
tp93
a(g64
I0
g66
tp94
ag83
ag85
ag86
ag91
ag92
ag82
ag82
ag71
ag72
ag73
a(g61
I0
g70
tp95
ag73
ag81
ag65
ag92
ag71
a(g64
I0
g62
tp96
ag82
ag71
ag85
ag89
a(g84
I0
g66
tp97
a(g84
F1.5707963267948966
g66
tp98
a(g84
F1.5707963267948966
g62
tp99
a(g64
F1.5707963267948966
g62
tp100
a(g64
F1.5707963267948966
g66
tp101
a(g64
F1.5707963267948966
g70
tp102
a(g64
F1.5707963267948966
g62
tp103
a(g64
F1.5707963267948966
g70
tp104
a(g84
F1.5707963267948966
g70
tp105
a(g84
F1.5707963267948966
g70
tp106
a(g84
F1.5707963267948966
g70
tp107
a(g84
F1.5707963267948966
g66
tp108
ag99
a(g84
F1.5707963267948966
g70
tp109
a(g84
F1.5707963267948966
g62
tp110
a(g84
F1.5707963267948966
g66
tp111
ag99
a(S'p3'
p112
F1.5707963267948966
g62
tp113
a(g112
F1.5707963267948966
g62
tp114
a(g112
F1.5707963267948966
g66
tp115
a(g112
F1.5707963267948966
g70
tp116
a(g84
F1.5707963267948966
g70
tp117
ag110
ag113
a(g112
F1.5707963267948966
g70
tp118
ag117
ag110
ag113
ag114
ag114
ag115
ag116
a(g112
F1.5707963267948966
g66
tp119
a(g112
F1.5707963267948966
g66
tp120
a(g112
F1.5707963267948966
g66
tp121
ag121
ag116
a(S'p4'
p122
F1.5707963267948966
g70
tp123
asS's'
p124
(lp125
(g61
I0
g22
tp126
ag63
ag65
ag67
ag68
ag69
ag71
ag72
ag73
ag74
ag75
ag73
ag74
ag75
ag76
ag77
ag75
ag78
ag73
ag74
ag79
ag75
ag80
ag78
ag78
ag76
ag63
ag81
ag81
ag81
ag65
ag82
ag67
ag68
ag83
ag85
ag86
ag87
ag88
ag86
ag87
ag88
ag89
ag86
ag90
ag86
ag91
ag92
ag67
ag83
ag93
ag94
ag83
ag85
ag86
ag91
ag92
ag82
ag82
ag71
ag72
ag73
ag95
ag73
ag81
ag65
ag92
ag71
ag96
ag82
ag71
ag85
ag89
ag97
ag98
ag99
ag100
ag101
ag102
ag103
ag104
ag105
ag106
ag107
ag108
ag99
ag109
ag110
ag111
ag99
ag113
ag114
ag115
ag116
ag117
ag110
ag113
ag118
ag117
ag110
ag113
ag114
ag114
ag115
ag116
ag119
ag120
ag121
ag121
ag116
asS'ui'
p127
(lp128
S'hp'
p129
ag59
aS'hs'
p130
aS'ss'
p131
ag131
ag129
ag131
ag130
ag130
ag130
ag130
ag130
ag129
ag59
ag59
ag130
ag130
ag131
ag131
ag129
ag129
ag131
ag59
ag59
ag130
ag129
ag131
ag131
ag131
ag59
ag129
ag130
ag130
ag130
ag59
ag129
ag130
ag130
ag130
ag130
ag131
ag129
ag130
ag129
ag130
ag131
ag59
ag130
ag130
ag59
ag59
ag129
ag59
ag129
ag130
ag59
ag131
ag129
ag129
ag130
ag130
ag59
ag130
ag59
ag131
ag131
ag129
ag130
ag129
ag129
ag59
ag59
ag129
ag59
ag129
ag131
ag129
ag130
ag130
ag129
ag59
ag59
ag130
ag59
ag129
ag59
ag130
ag130
ag129
ag59
ag129
ag129
ag130
ag59
ag130
ag131
ag129
ag59
ag130
ag59
ag59
ag59
ag129
ag129
ag59
ag131
ag130
ag130
ag130
ag59
asS'um_before'
p132
(lp133
g129
ag59
ag130
ag131
ag129
ag129
ag131
ag130
ag130
ag130
ag130
ag130
ag130
ag129
ag59
ag130
ag59
ag130
ag130
ag131
ag130
ag131
ag59
ag59
ag129
ag129
ag131
ag131
ag131
ag59
ag131
ag130
ag131
ag130
ag59
ag130
ag130
ag130
ag130
ag130
ag130
ag59
ag130
ag129
ag130
ag131
ag59
ag130
ag130
ag129
ag59
ag130
ag59
ag130
ag131
ag59
ag131
ag131
ag129
ag131
ag130
ag129
ag130
ag131
ag59
ag59
ag129
ag130
ag131
ag129
ag59
ag59
ag129
ag59
ag129
ag131
ag130
ag130
ag130
ag129
ag59
ag131
ag59
ag129
ag129
ag129
ag130
ag130
ag129
ag59
ag59
ag130
ag130
ag131
ag130
ag59
ag129
ag131
ag130
ag59
ag59
ag59
ag130
ag130
ag129
ag131
ag59
ag59
ag130
ag59
asS'um_after'
p134
(lp135
g129
ag59
ag130
ag131
ag129
ag129
ag131
ag130
ag130
ag130
ag130
ag130
ag130
ag129
ag59
ag130
ag59
ag130
ag130
ag131
ag130
ag131
ag59
ag59
ag129
ag129
ag131
ag131
ag131
ag59
ag131
ag130
ag131
ag130
ag59
ag130
ag130
ag130
ag130
ag130
ag130
ag59
ag130
ag129
ag130
ag131
ag59
ag130
ag130
ag129
ag59
ag130
ag59
ag130
ag131
ag59
ag131
ag131
ag129
ag131
ag130
ag129
ag130
ag131
ag59
ag59
ag129
ag130
ag131
ag129
ag59
ag59
ag129
ag59
ag129
ag131
ag130
ag130
ag130
ag129
ag59
ag131
ag59
ag129
ag129
ag129
ag130
ag130
ag129
ag59
ag59
ag130
ag130
ag131
ag130
ag59
ag129
ag131
ag130
ag59
ag59
ag59
ag130
ag130
ag129
ag131
ag59
ag59
ag130
ag59
asS'is_normalized_entropy_less_than_threshold'
p136
(lp137
g49
(g50
(S'b1'
p138
I0
I1
tp139
Rp140
(I3
S'|'
p141
NNNI-1
I-1
I0
tp142
bS'\x01'
p143
tp144
Rp145
ag145
ag145
ag145
ag145
ag145
ag145
ag145
ag145
ag145
ag145
ag145
ag145
ag145
ag145
ag145
ag145
ag145
ag145
ag145
ag145
ag145
ag145
ag145
ag145
ag145
ag145
ag145
ag145
ag145
ag145
ag145
ag145
ag145
ag145
ag145
ag145
ag145
ag145
ag145
ag145
ag145
ag145
ag145
ag145
ag145
ag145
ag145
ag145
ag145
ag145
ag145
ag145
ag145
ag145
ag145
ag145
ag145
ag145
ag145
ag145
ag145
ag145
ag145
ag145
ag145
ag145
ag145
ag145
ag145
ag145
ag145
ag145
ag145
ag145
ag145
ag145
ag145
ag145
ag145
ag145
ag145
ag145
ag145
ag145
ag145
ag145
ag145
ag145
ag145
ag145
ag145
ag145
ag145
ag145
ag145
ag145
ag145
ag145
ag145
ag145
ag145
ag145
ag145
ag145
ag145
ag145
ag145
ag145
ag145
asaa(lp146
S'index'
p147
aI22991
aatp148
Rp149
.