ccollections
OrderedDict
p0
((lp1
(lp2
S'combination_dict'
p3
ag0
((lp4
(lp5
S'r_to_g_config'
p6
aS'bl'
p7
aa(lp8
S'num_turns'
p9
aI1
aa(lp10
S'start_direction'
p11
acutils_ms
StartDirection
p12
(I1
tp13
Rp14
aa(lp15
S'assistance_type'
p16
acutils_ms
AssistanceType
p17
(I0
tp18
Rp19
aa(lp20
S'start_mode'
p21
aS'x'
p22
aa(lp23
S'ui_given_a_noise'
p24
aF0.3
aa(lp25
S'um_given_ui_noise'
p26
aF0.7
aa(lp27
S'entropy_threshold'
p28
aF0.7
aatp29
Rp30
aa(lp31
S'data'
p32
accollections
defaultdict
p33
(c__builtin__
list
p34
tp35
Rp36
S'a'
p37
(lp38
S'mode_r'
p39
aS'move_n'
p40
ag39
ag39
ag39
ag40
ag39
ag39
ag39
ag40
ag39
ag39
ag39
ag39
ag39
aS'move_p'
p41
ag41
ag39
ag40
aS'mode_l'
p42
ag42
ag42
ag40
ag40
ag42
ag40
ag39
ag40
ag40
ag42
ag42
ag42
ag39
ag39
ag40
ag42
ag39
ag40
ag39
ag39
ag39
ag40
ag39
ag39
ag40
ag40
asS'assistance_match_with_ground_truth'
p43
(lp44
I01
aI00
aI00
aI00
aI01
aI00
aI00
aI00
aI01
aI01
aI00
aI00
aI00
aI00
aI01
aI00
aI01
aI01
aI00
aI00
aI00
aI01
aI00
aI00
aI01
aI00
aI01
aI00
aI00
aI00
aI00
aI00
aI00
aI01
aI00
aI00
aI01
aI00
aI00
aI00
aI01
aI00
aI00
aI01
aI00
aI01
asS'is_u_intended_equals_um'
p45
(lp46
I01
aI00
aI00
aI00
aI01
aI00
aI00
aI00
aI01
aI01
aI00
aI00
aI00
aI00
aI01
aI00
aI01
aI01
aI01
aI00
aI01
aI01
aI00
aI01
aI01
aI00
aI01
aI00
aI01
aI00
aI00
aI00
aI00
aI01
aI01
aI00
aI01
aI00
aI00
aI00
aI01
aI00
aI00
aI01
aI00
aI01
asS'total_steps'
p47
I46
sS'normalized_h_of_p_ui_given_um'
p48
(lp49
cnumpy.core.multiarray
scalar
p50
(cnumpy
dtype
p51
(S'f8'
p52
I0
I1
tp53
Rp54
(I3
S'<'
p55
NNNI-1
I-1
I0
tp56
bS'0 r\xa7\x03\x06\xd5?'
p57
tp58
Rp59
ag50
(g54
S'|c\x91\x1e\xe0\xff\xe6?'
p60
tp61
Rp62
ag50
(g54
S'\x0b\x9b\xeb-+\xfa\xe1?'
p63
tp64
Rp65
ag50
(g54
S'x\xf1\xf9\xa7\x07\xfa\xe7?'
p66
tp67
Rp68
ag50
(g54
S'0 r\xa7\x03\x06\xd5?'
p69
tp70
Rp71
ag50
(g54
S'|c\x91\x1e\xe0\xff\xe6?'
p72
tp73
Rp74
ag50
(g54
S'x\xf1\xf9\xa7\x07\xfa\xe7?'
p75
tp76
Rp77
ag50
(g54
S'x\xf1\xf9\xa7\x07\xfa\xe7?'
p78
tp79
Rp80
ag50
(g54
S'0 r\xa7\x03\x06\xd5?'
p81
tp82
Rp83
ag50
(g54
S'J+F\x11W"\xe0?'
p84
tp85
Rp86
ag50
(g54
S'\x0b\x9b\xeb-+\xfa\xe1?'
p87
tp88
Rp89
ag50
(g54
S'\x0b\x9b\xeb-+\xfa\xe1?'
p90
tp91
Rp92
ag50
(g54
S'\x0b\x9b\xeb-+\xfa\xe1?'
p93
tp94
Rp95
ag50
(g54
S'\xafU\x86\xcf\x81[\xe3?'
p96
tp97
Rp98
ag50
(g54
S'0 r\xa7\x03\x06\xd5?'
p99
tp100
Rp101
ag50
(g54
S'\x978\xa4\xffa\x13\xe2?'
p102
tp103
Rp104
ag50
(g54
S'*\x82pF\xb5\xeb\xcf?'
p105
tp106
Rp107
ag50
(g54
S'0 r\xa7\x03\x06\xd5?'
p108
tp109
Rp110
ag50
(g54
S":\xf6'\xfc\xb1\xcd\xe8?"
p111
tp112
Rp113
ag50
(g54
S'h}\x9b\xc2#\xe1\xe2?'
p114
tp115
Rp116
ag50
(g54
S'\x87\x97]\xfeF\x82\xe9?'
p117
tp118
Rp119
ag50
(g54
S"{'\xab\x0c\xa9\xf8\xd4?"
p120
tp121
Rp122
ag50
(g54
S'S\x04^\x0f\xf6\xb0\xde?'
p123
tp124
Rp125
ag50
(g54
S":\xf6'\xfc\xb1\xcd\xe8?"
p126
tp127
Rp128
ag50
(g54
S"{'\xab\x0c\xa9\xf8\xd4?"
p129
tp130
Rp131
ag50
(g54
S'|c\x91\x1e\xe0\xff\xe6?'
p132
tp133
Rp134
ag50
(g54
S'0 r\xa7\x03\x06\xd5?'
p135
tp136
Rp137
ag50
(g54
S'S\x04^\x0f\xf6\xb0\xde?'
p138
tp139
Rp140
ag50
(g54
S":\xf6'\xfc\xb1\xcd\xe8?"
p141
tp142
Rp143
ag50
(g54
S'h}\x9b\xc2#\xe1\xe2?'
p144
tp145
Rp146
ag50
(g54
S'h}\x9b\xc2#\xe1\xe2?'
p147
tp148
Rp149
ag50
(g54
S'\x14?=\xa2\xcd\x0b\xeb?'
p150
tp151
Rp152
ag50
(g54
S'x\xf1\xf9\xa7\x07\xfa\xe7?'
p153
tp154
Rp155
ag50
(g54
S'0 r\xa7\x03\x06\xd5?'
p156
tp157
Rp158
ag50
(g54
S":\xf6'\xfc\xb1\xcd\xe8?"
p159
tp160
Rp161
ag50
(g54
S'\x14?=\xa2\xcd\x0b\xeb?'
p162
tp163
Rp164
ag50
(g54
S'0 r\xa7\x03\x06\xd5?'
p165
tp166
Rp167
ag50
(g54
S'|c\x91\x1e\xe0\xff\xe6?'
p168
tp169
Rp170
ag50
(g54
S'\x0b\x9b\xeb-+\xfa\xe1?'
p171
tp172
Rp173
ag50
(g54
S'\x0b\x9b\xeb-+\xfa\xe1?'
p174
tp175
Rp176
ag50
(g54
S'0 r\xa7\x03\x06\xd5?'
p177
tp178
Rp179
ag50
(g54
S'|c\x91\x1e\xe0\xff\xe6?'
p180
tp181
Rp182
ag50
(g54
S'\x0b\x9b\xeb-+\xfa\xe1?'
p183
tp184
Rp185
ag50
(g54
S'0 r\xa7\x03\x06\xd5?'
p186
tp187
Rp188
ag50
(g54
S'S\x04^\x0f\xf6\xb0\xde?'
p189
tp190
Rp191
ag50
(g54
S'J+F\x11W"\xe0?'
p192
tp193
Rp194
asS'sp'
p195
(lp196
(S'p0'
p197
I0
S'y'
p198
tp199
a(g197
I0
S'x'
p200
tp201
ag201
a(g197
I0
g200
tp202
ag199
ag201
ag202
ag202
ag199
a(S'p1'
p203
I0
g198
tp204
ag204
ag204
ag204
ag204
a(g203
I0
S't'
p205
tp206
ag206
a(g203
F1.5707963267948966
g205
tp207
a(g203
F1.5707963267948966
g200
tp208
a(g203
F1.5707963267948966
g198
tp209
ag209
a(g203
F1.5707963267948966
g198
tp210
a(g203
F1.5707963267948966
g200
tp211
ag211
ag209
ag211
a(g203
F1.5707963267948966
g205
tp212
ag208
ag208
ag209
ag209
ag209
a(g203
F1.5707963267948966
g205
tp213
a(g203
F1.5707963267948966
g205
tp214
ag208
ag209
ag213
ag208
ag212
ag212
ag212
ag208
ag212
ag212
ag208
ag208
a(S'p2'
p215
F1.5707963267948966
g200
tp216
asS's'
p217
(lp218
(g197
I0
g22
tp219
ag199
ag201
ag201
ag202
ag199
ag201
ag202
ag202
ag199
ag204
ag204
ag204
ag204
ag204
ag206
ag206
ag207
ag208
ag209
ag209
ag210
ag211
ag211
ag209
ag211
ag212
ag208
ag208
ag209
ag209
ag209
ag213
ag214
ag208
ag209
ag213
ag208
ag212
ag212
ag212
ag208
ag212
ag212
ag208
ag208
asS'ui'
p220
(lp221
S'hp'
p222
aS'ss'
p223
ag222
ag222
ag222
ag223
ag222
ag222
ag222
aS'hs'
p224
ag223
ag222
ag222
ag224
ag222
ag195
ag195
ag222
ag222
ag222
ag195
ag224
ag223
ag222
ag224
ag224
ag222
ag223
ag222
ag224
ag224
ag224
ag195
ag222
ag223
ag195
ag222
ag222
ag222
ag222
ag222
ag223
ag223
ag195
ag223
ag224
asS'um_before'
p225
(lp226
g222
ag224
ag223
ag195
ag222
ag224
ag195
ag195
ag222
ag223
ag223
ag223
ag223
ag224
ag222
ag222
ag195
ag222
ag222
ag223
ag195
ag224
ag195
ag222
ag224
ag224
ag222
ag195
ag222
ag223
ag223
ag222
ag195
ag222
ag222
ag222
ag222
ag224
ag223
ag223
ag222
ag224
ag223
ag222
ag195
ag223
asS'um_after'
p227
(lp228
g222
ag224
aNag195
ag222
ag224
ag195
ag195
ag222
ag223
aNaNaNaNag222
aNag195
ag222
ag222
aNag195
ag224
aNag222
ag224
ag224
ag222
aNag222
aNaNag222
ag195
ag222
ag222
ag222
ag222
ag224
aNaNag222
ag224
aNag222
aNag223
asS'is_normalized_entropy_less_than_threshold'
p229
(lp230
g50
(g51
(S'b1'
p231
I0
I1
tp232
Rp233
(I3
S'|'
p234
NNNI-1
I-1
I0
tp235
bS'\x01'
p236
tp237
Rp238
ag50
(g233
S'\x00'
p239
tp240
Rp241
ag238
ag241
ag238
ag241
ag241
ag241
ag238
ag238
ag238
ag238
ag238
ag238
ag238
ag238
ag238
ag238
ag241
ag238
ag241
ag238
ag238
ag241
ag238
ag241
ag238
ag238
ag241
ag238
ag238
ag241
ag241
ag238
ag241
ag241
ag238
ag241
ag238
ag238
ag238
ag241
ag238
ag238
ag238
ag238
asaa(lp242
S'index'
p243
aI62770
aatp244
Rp245
.