ccollections
OrderedDict
p0
((lp1
(lp2
S'combination_dict'
p3
ag0
((lp4
(lp5
S'r_to_g_config'
p6
aS'br'
p7
aa(lp8
S'num_turns'
p9
aI2
aa(lp10
S'start_direction'
p11
acutils_ms
StartDirection
p12
(I0
tp13
Rp14
aa(lp15
S'assistance_type'
p16
acutils_ms
AssistanceType
p17
(I0
tp18
Rp19
aa(lp20
S'start_mode'
p21
aS't'
p22
aa(lp23
S'ui_given_a_noise'
p24
aF0.1
aa(lp25
S'um_given_ui_noise'
p26
aF0.7
aa(lp27
S'entropy_threshold'
p28
aF0.8
aatp29
Rp30
aa(lp31
S'data'
p32
accollections
defaultdict
p33
(c__builtin__
list
p34
tp35
Rp36
S'a'
p37
(lp38
S'mode_r'
p39
ag39
ag39
ag39
ag39
aS'move_p'
p40
aS'mode_l'
p41
ag40
ag40
ag41
ag41
ag41
ag41
ag41
ag41
aS'move_n'
p42
ag42
ag41
ag41
ag40
ag40
asS'assistance_match_with_ground_truth'
p43
(lp44
I00
aI00
aI00
aI00
aI01
aI01
aI01
aI00
aI01
aI00
aI00
aI00
aI00
aI00
aI01
aI00
aI01
aI00
aI01
aI00
aI01
asS'is_u_intended_equals_um'
p45
(lp46
I00
aI00
aI00
aI00
aI01
aI01
aI01
aI00
aI01
aI00
aI00
aI00
aI00
aI00
aI01
aI00
aI01
aI00
aI01
aI00
aI01
asS'total_steps'
p47
I21
sS'normalized_h_of_p_ui_given_um'
p48
(lp49
cnumpy.core.multiarray
scalar
p50
(cnumpy
dtype
p51
(S'f8'
p52
I0
I1
tp53
Rp54
(I3
S'<'
p55
NNNI-1
I-1
I0
tp56
bS'+c\x13?5^\xce?'
p57
tp58
Rp59
ag50
(g54
S'+c\x13?5^\xce?'
p60
tp61
Rp62
ag50
(g54
S'\xf7\xb7\xd3\x0e\xf6J\xd1?'
p63
tp64
Rp65
ag50
(g54
S'$\xb5gY\x9c\xdc\xd9?'
p66
tp67
Rp68
ag50
(g54
S'\xdc\x04\xce9\xf8\xc8\xa2?'
p69
tp70
Rp71
ag50
(g54
S'\xda\xe7Gz\x93\xf0\xc1?'
p72
tp73
Rp74
ag50
(g54
S']\xfe\xac=X;\xba?'
p75
tp76
Rp77
ag50
(g54
S"\xad\x9b'\xd2\xd0\x88\xe2?"
p78
tp79
Rp80
ag50
(g54
S'\xda\xe7Gz\x93\xf0\xc1?'
p81
tp82
Rp83
ag50
(g54
S'\xe6\xc0,(\xe6\\\xcc?'
p84
tp85
Rp86
ag50
(g54
S'+\xa6\r\xf3m\xad\xcd?'
p87
tp88
Rp89
ag50
(g54
S'\xe6\xc0,(\xe6\\\xcc?'
p90
tp91
Rp92
ag50
(g54
S'\xe6\xc0,(\xe6\\\xcc?'
p93
tp94
Rp95
ag50
(g54
S'+\xa6\r\xf3m\xad\xcd?'
p96
tp97
Rp98
ag50
(g54
S']\xfe\xac=X;\xba?'
p99
tp100
Rp101
ag50
(g54
S'\xccq>GL\xa9\xc7?'
p102
tp103
Rp104
ag50
(g54
S'\x94Do\xb6\x87\xdf\xb9?'
p105
tp106
Rp107
ag50
(g54
S'+\xa6\r\xf3m\xad\xcd?'
p108
tp109
Rp110
ag50
(g54
S']\xfe\xac=X;\xba?'
p111
tp112
Rp113
ag50
(g54
S'\xd6\x16W7\xdb\x17\xe3?'
p114
tp115
Rp116
ag50
(g54
S'\xda\xe7Gz\x93\xf0\xc1?'
p117
tp118
Rp119
asS'sp'
p120
(lp121
(S'p0'
p122
I0
g22
tp123
ag123
ag123
ag123
a(g122
I0
S'x'
p124
tp125
a(S'p1'
p126
I0
g124
tp127
a(g126
I0
S't'
p128
tp129
ag129
a(g126
F1.5707963267948966
g128
tp130
ag130
ag130
ag130
ag130
ag130
a(g126
F1.5707963267948966
S'y'
p131
tp132
ag132
a(S'p2'
p133
F1.5707963267948966
g131
tp134
ag134
a(g133
F1.5707963267948966
g124
tp135
ag135
a(S'p3'
p136
F1.5707963267948966
g124
tp137
asS's'
p138
(lp139
g123
ag123
ag123
ag123
ag123
ag125
ag127
ag129
ag129
ag130
ag130
ag130
ag130
ag130
ag130
ag132
ag132
ag134
ag134
ag135
ag135
asS'ui'
p140
(lp141
S'hp'
p142
ag142
ag142
ag142
ag142
aS'hs'
p143
ag143
ag120
ag120
ag142
ag143
ag143
ag143
ag143
ag143
aS'ss'
p144
ag144
ag143
ag143
ag143
ag120
asS'um_before'
p145
(lp146
g144
ag144
ag120
ag143
ag142
ag120
ag143
ag144
ag120
ag120
ag144
ag120
ag120
ag144
ag143
ag143
ag144
ag144
ag143
ag143
ag120
asS'um_after'
p147
(lp148
NaNaNaNag142
ag120
ag143
aNag120
aNaNaNaNaNag143
aNag144
aNag143
aNag120
asS'is_normalized_entropy_less_than_threshold'
p149
(lp150
g50
(g51
(S'b1'
p151
I0
I1
tp152
Rp153
(I3
S'|'
p154
NNNI-1
I-1
I0
tp155
bS'\x01'
p156
tp157
Rp158
ag158
ag158
ag158
ag158
ag158
ag158
ag158
ag158
ag158
ag158
ag158
ag158
ag158
ag158
ag158
ag158
ag158
ag158
ag158
ag158
asaa(lp159
S'index'
p160
aI96187
aatp161
Rp162
.