ccollections
OrderedDict
p0
((lp1
(lp2
S'combination_dict'
p3
ag0
((lp4
(lp5
S'r_to_g_config'
p6
aS'tl'
p7
aa(lp8
S'num_turns'
p9
aI3
aa(lp10
S'start_direction'
p11
acutils_ms
StartDirection
p12
(I1
tp13
Rp14
aa(lp15
S'assistance_type'
p16
acutils_ms
AssistanceType
p17
(I1
tp18
Rp19
aa(lp20
S'start_mode'
p21
aS't'
p22
aa(lp23
S'ui_given_a_noise'
p24
aF0.3
aa(lp25
S'um_given_ui_noise'
p26
aF0.7
aa(lp27
S'entropy_threshold'
p28
aF0.6
aatp29
Rp30
aa(lp31
S'data'
p32
accollections
defaultdict
p33
(c__builtin__
list
p34
tp35
Rp36
S'a'
p37
(lp38
S'mode_l'
p39
aS'move_p'
p40
ag39
ag39
aS'move_n'
p41
ag39
ag39
aS'mode_r'
p42
ag39
ag39
ag39
ag41
ag39
ag39
ag39
ag39
ag42
ag39
ag39
ag39
ag39
ag42
ag41
ag39
ag40
ag40
ag39
ag40
ag39
ag40
ag39
ag42
ag39
ag39
ag41
ag42
ag39
ag40
ag39
ag39
ag41
asS'assistance_match_with_ground_truth'
p43
(lp44
I01
aI01
aI00
aI01
aI00
aI00
aI00
aI00
aI00
aI00
aI01
aI01
aI00
aI00
aI00
aI00
aI00
aI00
aI00
aI00
aI00
aI01
aI01
aI01
aI00
aI01
aI00
aI01
aI01
aI01
aI00
aI00
aI00
aI01
aI00
aI00
aI01
aI01
aI00
aI01
aI01
asS'is_u_intended_equals_um'
p45
(lp46
I01
aI00
aI00
aI01
aI00
aI00
aI00
aI00
aI00
aI00
aI01
aI01
aI00
aI00
aI00
aI00
aI00
aI00
aI00
aI00
aI00
aI01
aI01
aI01
aI00
aI00
aI00
aI00
aI01
aI01
aI00
aI00
aI00
aI01
aI00
aI00
aI01
aI00
aI00
aI01
aI01
asS'total_steps'
p47
I41
sS'normalized_h_of_p_ui_given_um'
p48
(lp49
cnumpy.core.multiarray
scalar
p50
(cnumpy
dtype
p51
(S'f8'
p52
I0
I1
tp53
Rp54
(I3
S'<'
p55
NNNI-1
I-1
I0
tp56
bS'\x14t\xd4\xb6\xb2\xf7\xd6?'
p57
tp58
Rp59
ag50
(g54
S'\xf0\xedT\xa3\xdb\xfc\xd4?'
p60
tp61
Rp62
ag50
(g54
S'\x8c\x0c\x1bi\x0eQ\xe7?'
p63
tp64
Rp65
ag50
(g54
S'\x14t\xd4\xb6\xb2\xf7\xd6?'
p66
tp67
Rp68
ag50
(g54
S'\x85\xd3\x9b\xb2\x9a\xd5\xe4?'
p69
tp70
Rp71
ag50
(g54
S'\x8c\x0c\x1bi\x0eQ\xe7?'
p72
tp73
Rp74
ag50
(g54
S';\x02\tQ\t\x94\xe7?'
p75
tp76
Rp77
ag50
(g54
S'\xd5]\x05\x16\x93\x00\xe4?'
p78
tp79
Rp80
ag50
(g54
S'\x8c\x0c\x1bi\x0eQ\xe7?'
p81
tp82
Rp83
ag50
(g54
S'\x8c\x0c\x1bi\x0eQ\xe7?'
p84
tp85
Rp86
ag50
(g54
S'\x14t\xd4\xb6\xb2\xf7\xd6?'
p87
tp88
Rp89
ag50
(g54
S'\xc3Kn\xb2\n\x07\xc0?'
p90
tp91
Rp92
ag50
(g54
S'\x8c\x0c\x1bi\x0eQ\xe7?'
p93
tp94
Rp95
ag50
(g54
S'\x8c\x0c\x1bi\x0eQ\xe7?'
p96
tp97
Rp98
ag50
(g54
S'\xbd}\x15\xba\xe8x\xe7?'
p99
tp100
Rp101
ag50
(g54
S';\x02\tQ\t\x94\xe7?'
p102
tp103
Rp104
ag50
(g54
S'\xed\xdc\xb8\xbfv\x8c\xe3?'
p105
tp106
Rp107
ag50
(g54
S'\x8c\x0c\x1bi\x0eQ\xe7?'
p108
tp109
Rp110
ag50
(g54
S'\x8c\x0c\x1bi\x0eQ\xe7?'
p111
tp112
Rp113
ag50
(g54
S'\x8c\x0c\x1bi\x0eQ\xe7?'
p114
tp115
Rp116
ag50
(g54
S';\x02\tQ\t\x94\xe7?'
p117
tp118
Rp119
ag50
(g54
S'_)\x0e:\xfa\xc3\xd5?'
p120
tp121
Rp122
ag50
(g54
S'\xc3Kn\xb2\n\x07\xc0?'
p123
tp124
Rp125
ag50
(g54
S'\x14t\xd4\xb6\xb2\xf7\xd6?'
p126
tp127
Rp128
ag50
(g54
S'\xf06\x89\xfdi\xd7\xe5?'
p129
tp130
Rp131
ag50
(g54
S'\xf0\xedT\xa3\xdb\xfc\xd4?'
p132
tp133
Rp134
ag50
(g54
S'\xbd}\x15\xba\xe8x\xe7?'
p135
tp136
Rp137
ag50
(g54
S'\xc6\xa8\xf5e\xc5\xc8\xcf?'
p138
tp139
Rp140
ag50
(g54
S'\x14t\xd4\xb6\xb2\xf7\xd6?'
p141
tp142
Rp143
ag50
(g54
S'\x10j\xf6{5&\xc3?'
p144
tp145
Rp146
ag50
(g54
S';\x02\tQ\t\x94\xe7?'
p147
tp148
Rp149
ag50
(g54
S'\xd5]\x05\x16\x93\x00\xe4?'
p150
tp151
Rp152
ag50
(g54
S'\x8c\x0c\x1bi\x0eQ\xe7?'
p153
tp154
Rp155
ag50
(g54
S'\x14t\xd4\xb6\xb2\xf7\xd6?'
p156
tp157
Rp158
ag50
(g54
S'\xe2$\xfd@\xab\xe6\xe3?'
p159
tp160
Rp161
ag50
(g54
S'\xd5]\x05\x16\x93\x00\xe4?'
p162
tp163
Rp164
ag50
(g54
S'\x14t\xd4\xb6\xb2\xf7\xd6?'
p165
tp166
Rp167
ag50
(g54
S'\xc6\xa8\xf5e\xc5\xc8\xcf?'
p168
tp169
Rp170
ag50
(g54
S'\x8c\x0c\x1bi\x0eQ\xe7?'
p171
tp172
Rp173
ag50
(g54
S'\x14t\xd4\xb6\xb2\xf7\xd6?'
p174
tp175
Rp176
ag50
(g54
S'\xc3Kn\xb2\n\x07\xc0?'
p177
tp178
Rp179
asS'sp'
p180
(lp181
(S'p0'
p182
I0
S'y'
p183
tp184
a(S'p1'
p185
I0
g183
tp186
a(g185
I0
g183
tp187
a(g185
I0
S'x'
p188
tp189
a(g185
I0
g183
tp190
ag187
a(g185
I0
S't'
p191
tp192
a(g185
I0
g183
tp193
ag187
ag187
ag189
a(S'p2'
p194
I0
g188
tp195
a(g194
I0
g188
tp196
ag196
a(g194
I0
g188
tp197
a(g194
I0
g183
tp198
a(g185
I0
g183
tp199
ag187
ag187
ag187
ag192
a(g185
I0
g188
tp200
ag195
a(g194
I0
g191
tp201
a(g194
I0
g191
tp202
a(g194
F1.5707963267948966
g191
tp203
a(g194
I0
g191
tp204
ag203
a(g194
F1.5707963267948966
g183
tp205
a(S'p3'
p206
F1.5707963267948966
g183
tp207
a(g206
F1.5707963267948966
g191
tp208
a(g206
F1.5707963267948966
g183
tp209
a(g206
F1.5707963267948966
g183
tp210
a(g206
F1.5707963267948966
g188
tp211
a(g194
F1.5707963267948966
g188
tp212
a(g194
F1.5707963267948966
g191
tp213
ag205
ag207
ag210
ag211
a(S'p4'
p214
F1.5707963267948966
g188
tp215
asS's'
p216
(lp217
(g182
I0
g22
tp218
ag184
ag186
ag187
ag189
ag190
ag187
ag192
ag193
ag187
ag187
ag189
ag195
ag196
ag196
ag197
ag198
ag199
ag187
ag187
ag187
ag192
ag200
ag195
ag201
ag202
ag203
ag204
ag203
ag205
ag207
ag208
ag209
ag210
ag211
ag212
ag213
ag205
ag207
ag210
ag211
asS'ui'
p219
(lp220
g180
ag180
aS'hs'
p221
ag221
ag221
ag221
ag221
ag221
ag180
ag180
ag221
aS'ss'
p222
ag221
ag180
ag222
ag221
aS'hp'
p223
ag221
ag221
ag223
ag221
ag222
ag222
ag221
ag222
ag180
ag221
ag180
ag221
ag180
ag221
ag221
ag221
ag221
ag180
ag223
ag223
ag180
ag221
ag221
ag222
asS'um_before'
p224
(lp225
g221
ag221
ag180
ag221
ag223
ag180
ag223
ag221
ag180
ag180
ag221
ag222
ag180
ag180
ag222
ag223
ag222
ag180
ag180
ag180
ag223
ag223
ag222
ag221
ag222
ag221
ag222
ag223
ag221
ag180
ag223
ag221
ag180
ag221
ag180
ag221
ag221
ag223
ag180
ag221
ag222
asS'um_after'
p226
(lp227
g221
ag180
ag180
ag221
ag223
ag180
ag223
ag221
ag180
ag180
ag221
ag222
ag180
ag180
ag222
ag223
ag222
ag180
ag180
ag180
ag223
ag223
ag222
ag221
ag222
ag180
ag222
ag180
ag221
ag180
ag223
ag221
ag180
ag221
ag180
ag221
ag221
ag180
ag180
ag221
ag222
asS'is_normalized_entropy_less_than_threshold'
p228
(lp229
g50
(g51
(S'b1'
p230
I0
I1
tp231
Rp232
(I3
S'|'
p233
NNNI-1
I-1
I0
tp234
bS'\x01'
p235
tp236
Rp237
ag237
ag50
(g232
S'\x00'
p238
tp239
Rp240
ag237
ag240
ag240
ag240
ag240
ag240
ag240
ag237
ag237
ag240
ag240
ag240
ag240
ag240
ag240
ag240
ag240
ag240
ag237
ag237
ag237
ag240
ag237
ag240
ag237
ag237
ag237
ag240
ag240
ag240
ag237
ag240
ag240
ag237
ag237
ag240
ag237
ag237
asaa(lp241
S'index'
p242
aI55561
aatp243
Rp244
.