ccollections
OrderedDict
p0
((lp1
(lp2
S'combination_dict'
p3
ag0
((lp4
(lp5
S'r_to_g_config'
p6
aS'tr'
p7
aa(lp8
S'num_turns'
p9
aI1
aa(lp10
S'start_direction'
p11
acutils_ms
StartDirection
p12
(I0
tp13
Rp14
aa(lp15
S'assistance_type'
p16
acutils_ms
AssistanceType
p17
(I0
tp18
Rp19
aa(lp20
S'start_mode'
p21
aS't'
p22
aa(lp23
S'ui_given_a_noise'
p24
aF0.3
aa(lp25
S'um_given_ui_noise'
p26
aF0.1
aa(lp27
S'entropy_threshold'
p28
aF0.6
aatp29
Rp30
aa(lp31
S'data'
p32
accollections
defaultdict
p33
(c__builtin__
list
p34
tp35
Rp36
S'a'
p37
(lp38
S'mode_r'
p39
aS'move_p'
p40
ag39
ag40
aS'mode_l'
p41
ag40
ag41
ag40
ag39
ag41
ag40
asS'assistance_match_with_ground_truth'
p42
(lp43
I01
aI00
aI01
aI01
aI01
aI01
aI01
aI00
aI00
aI01
aI01
asS'is_u_intended_equals_um'
p44
(lp45
I01
aI01
aI01
aI01
aI01
aI01
aI01
aI01
aI00
aI01
aI01
asS'total_steps'
p46
I11
sS'normalized_h_of_p_ui_given_um'
p47
(lp48
cnumpy.core.multiarray
scalar
p49
(cnumpy
dtype
p50
(S'f8'
p51
I0
I1
tp52
Rp53
(I3
S'<'
p54
NNNI-1
I-1
I0
tp55
bS'\x1c8\x0e\xec\xe5\xaa\xa7?'
p56
tp57
Rp58
ag49
(g53
S'\x06\xb1n`>_\xe9?'
p59
tp60
Rp61
ag49
(g53
S'\x1c8\x0e\xec\xe5\xaa\xa7?'
p62
tp63
Rp64
ag49
(g53
S'>h\xb8}\x94\xb5\xa8?'
p65
tp66
Rp67
ag49
(g53
S'\x97\xf5 \x95\x85\xa2\x9f?'
p68
tp69
Rp70
ag49
(g53
S'>h\xb8}\x94\xb5\xa8?'
p71
tp72
Rp73
ag49
(g53
S'\x97\xf5 \x95\x85\xa2\x9f?'
p74
tp75
Rp76
ag49
(g53
S'\x06\xb1n`>_\xe9?'
p77
tp78
Rp79
ag49
(g53
S'\xa4\xa2\xb4\xb8Q\x93\xe6?'
p80
tp81
Rp82
ag49
(g53
S'\x97\xf5 \x95\x85\xa2\x9f?'
p83
tp84
Rp85
ag49
(g53
S'>h\xb8}\x94\xb5\xa8?'
p86
tp87
Rp88
asS'sp'
p89
(lp90
(S'p0'
p91
I0
S'x'
p92
tp93
a(g91
I0
S't'
p94
tp95
ag93
a(S'p1'
p96
I0
g92
tp97
a(g96
I0
g94
tp98
a(g96
F1.5707963267948966
g94
tp99
a(g96
F1.5707963267948966
S'y'
p100
tp101
a(g96
F1.5707963267948966
g92
tp102
a(g96
F1.5707963267948966
g94
tp103
ag101
a(S'p2'
p104
F1.5707963267948966
g100
tp105
asS's'
p106
(lp107
(g91
I0
g22
tp108
ag93
ag95
ag93
ag97
ag98
ag99
ag101
ag102
ag103
ag101
asS'ui'
p109
(lp110
S'hp'
p111
ag111
ag111
ag89
aS'hs'
p112
ag89
ag112
ag89
aS'ss'
p113
ag112
ag89
asS'um_before'
p114
(lp115
g111
ag112
ag111
ag89
ag112
ag89
ag112
ag112
ag112
ag112
ag89
asS'um_after'
p116
(lp117
g111
ag112
ag111
ag89
ag112
ag89
ag112
ag112
ag112
ag112
ag89
asS'is_normalized_entropy_less_than_threshold'
p118
(lp119
g49
(g50
(S'b1'
p120
I0
I1
tp121
Rp122
(I3
S'|'
p123
NNNI-1
I-1
I0
tp124
bS'\x01'
p125
tp126
Rp127
ag49
(g122
S'\x00'
p128
tp129
Rp130
ag127
ag127
ag127
ag127
ag127
ag130
ag130
ag127
ag127
asaa(lp131
S'index'
p132
aI213
aatp133
Rp134
.