ccollections
OrderedDict
p0
((lp1
(lp2
S'combination_dict'
p3
ag0
((lp4
(lp5
S'r_to_g_config'
p6
aS'tl'
p7
aa(lp8
S'num_turns'
p9
aI3
aa(lp10
S'start_direction'
p11
acutils_ms
StartDirection
p12
(I0
tp13
Rp14
aa(lp15
S'assistance_type'
p16
acutils_ms
AssistanceType
p17
(I1
tp18
Rp19
aa(lp20
S'start_mode'
p21
aS'y'
p22
aa(lp23
S'ui_given_a_noise'
p24
aF0.7
aa(lp25
S'um_given_ui_noise'
p26
aF0.7
aa(lp27
S'entropy_threshold'
p28
aF0.9
aatp29
Rp30
aa(lp31
S'data'
p32
accollections
defaultdict
p33
(c__builtin__
list
p34
tp35
Rp36
S'a'
p37
(lp38
S'mode_l'
p39
aS'mode_r'
p40
ag39
ag39
ag39
ag40
ag39
aS'move_n'
p41
ag39
ag39
aS'move_p'
p42
ag39
ag42
ag39
ag39
ag39
ag39
ag42
ag39
ag41
ag40
ag39
ag42
ag39
ag40
ag41
ag39
ag41
ag40
ag42
ag39
ag39
ag41
ag40
ag40
ag42
ag39
ag40
ag39
ag41
ag40
ag42
asS'assistance_match_with_ground_truth'
p43
(lp44
I00
aI00
aI00
aI00
aI00
aI00
aI01
aI01
aI00
aI01
aI01
aI01
aI00
aI00
aI00
aI00
aI01
aI01
aI01
aI01
aI00
aI01
aI00
aI00
aI01
aI00
aI01
aI01
aI01
aI00
aI00
aI01
aI01
aI00
aI01
aI00
aI00
aI00
aI01
aI01
aI01
aI01
asS'is_u_intended_equals_um'
p45
(lp46
I01
aI01
aI00
aI00
aI01
aI00
aI00
aI01
aI00
aI00
aI01
aI00
aI01
aI00
aI00
aI00
aI00
aI00
aI01
aI01
aI01
aI00
aI01
aI01
aI01
aI00
aI01
aI01
aI01
aI01
aI00
aI00
aI00
aI00
aI01
aI01
aI01
aI00
aI01
aI01
aI01
aI01
asS'total_steps'
p47
I42
sS'normalized_h_of_p_ui_given_um'
p48
(lp49
cnumpy.core.multiarray
scalar
p50
(cnumpy
dtype
p51
(S'f8'
p52
I0
I1
tp53
Rp54
(I3
S'<'
p55
NNNI-1
I-1
I0
tp56
bS'\x10r\x83\xc9\x99I\xec?'
p57
tp58
Rp59
ag50
(g54
S'\xd8F\xc8\xce\xd3\xeb\xe4?'
p60
tp61
Rp62
ag50
(g54
S'\xde\xa0\x1f\xc9\xddy\xef?'
p63
tp64
Rp65
ag50
(g54
S'\xde\xa0\x1f\xc9\xddy\xef?'
p66
tp67
Rp68
ag50
(g54
S'\x10r\x83\xc9\x99I\xec?'
p69
tp70
Rp71
ag50
(g54
S'\xf4\xfa\x8e\x91\xe5\x01\xec?'
p72
tp73
Rp74
ag50
(g54
S'\xb2\x7fK\x16\x802\xe7?'
p75
tp76
Rp77
ag50
(g54
S'\x00Vh\xf8\x900\xe2?'
p78
tp79
Rp80
ag50
(g54
S'\xde\xa0\x1f\xc9\xddy\xef?'
p81
tp82
Rp83
ag50
(g54
S'\xb2\x7fK\x16\x802\xe7?'
p84
tp85
Rp86
ag50
(g54
S'f\x1c\x8f\xc2\x89\x17\xe7?'
p87
tp88
Rp89
ag50
(g54
S'\xb2\x7fK\x16\x802\xe7?'
p90
tp91
Rp92
ag50
(g54
S'8\xa1^\x1b\x05\xb8\xe7?'
p93
tp94
Rp95
ag50
(g54
S'\xde\xa0\x1f\xc9\xddy\xef?'
p96
tp97
Rp98
ag50
(g54
S'\xde\xa0\x1f\xc9\xddy\xef?'
p99
tp100
Rp101
ag50
(g54
S'\xde\xa0\x1f\xc9\xddy\xef?'
p102
tp103
Rp104
ag50
(g54
S'\xb2\x7fK\x16\x802\xe7?'
p105
tp106
Rp107
ag50
(g54
S'a\xa3\x8e\xb0\xda\xdb\xe9?'
p108
tp109
Rp110
ag50
(g54
S'\xd0\xe6\x1d-Y\xc6\xdd?'
p111
tp112
Rp113
ag50
(g54
S'\x00Vh\xf8\x900\xe2?'
p114
tp115
Rp116
ag50
(g54
S'\xd8F\xc8\xce\xd3\xeb\xe4?'
p117
tp118
Rp119
ag50
(g54
S'\xb2\x7fK\x16\x802\xe7?'
p120
tp121
Rp122
ag50
(g54
S';\n\xd7\x1b:\x12\xe8?'
p123
tp124
Rp125
ag50
(g54
S'\x10r\x83\xc9\x99I\xec?'
p126
tp127
Rp128
ag50
(g54
S'P\r\xbfV\x1f\x8a\xe2?'
p129
tp130
Rp131
ag50
(g54
S'R?\xfe\xc0\xcb\x97\xed?'
p132
tp133
Rp134
ag50
(g54
S'\xd0\xe6\x1d-Y\xc6\xdd?'
p135
tp136
Rp137
ag50
(g54
S'\x00Vh\xf8\x900\xe2?'
p138
tp139
Rp140
ag50
(g54
S'P\r\xbfV\x1f\x8a\xe2?'
p141
tp142
Rp143
ag50
(g54
S';\n\xd7\x1b:\x12\xe8?'
p144
tp145
Rp146
ag50
(g54
S'\xde\xa0\x1f\xc9\xddy\xef?'
p147
tp148
Rp149
ag50
(g54
S'\xb2\x7fK\x16\x802\xe7?'
p150
tp151
Rp152
ag50
(g54
S'*\xed8\x0e\x9b\xb5\xe9?'
p153
tp154
Rp155
ag50
(g54
S'\xcb\xf7G\xb1\xf7\xc4\xed?'
p156
tp157
Rp158
ag50
(g54
S'P\r\xbfV\x1f\x8a\xe2?'
p159
tp160
Rp161
ag50
(g54
S';\n\xd7\x1b:\x12\xe8?'
p162
tp163
Rp164
ag50
(g54
S'\x10r\x83\xc9\x99I\xec?'
p165
tp166
Rp167
ag50
(g54
S'\xf4\xfa\x8e\x91\xe5\x01\xec?'
p168
tp169
Rp170
ag50
(g54
S'\xd0\xe6\x1d-Y\xc6\xdd?'
p171
tp172
Rp173
ag50
(g54
S'\x00Vh\xf8\x900\xe2?'
p174
tp175
Rp176
ag50
(g54
S'P\r\xbfV\x1f\x8a\xe2?'
p177
tp178
Rp179
ag50
(g54
S'f\x1c\x8f\xc2\x89\x17\xe7?'
p180
tp181
Rp182
asS'sp'
p183
(lp184
(S'p0'
p185
I0
S't'
p186
tp187
a(g185
I0
S'y'
p188
tp189
a(g185
I0
g188
tp190
ag190
ag187
ag189
a(g185
I0
S'x'
p191
tp192
a(S'p1'
p193
I0
g191
tp194
a(g193
I0
g191
tp195
a(g193
I0
g186
tp196
a(g193
F1.5707963267948966
g186
tp197
a(g193
F1.5707963267948966
g188
tp198
a(g193
F1.5707963267948966
g186
tp199
a(g193
F1.5707963267948966
g186
tp200
ag200
ag200
ag198
a(S'p2'
p201
F1.5707963267948966
g188
tp202
a(g201
F1.5707963267948966
g191
tp203
a(S'p3'
p204
F1.5707963267948966
g191
tp205
a(g204
F1.5707963267948966
g186
tp206
a(g204
F1.5707963267948966
g188
tp207
a(g201
F1.5707963267948966
g188
tp208
a(g201
F1.5707963267948966
g186
tp209
a(g201
F1.5707963267948966
g191
tp210
a(g201
F1.5707963267948966
g188
tp211
ag203
ag205
a(g204
F1.5707963267948966
g188
tp212
ag208
a(g201
F1.5707963267948966
g188
tp213
ag203
ag205
a(g204
F1.5707963267948966
g191
tp214
ag212
ag208
ag209
a(g201
F1.5707963267948966
g188
tp215
ag203
ag205
ag212
a(S'p4'
p216
F1.5707963267948966
g188
tp217
asS's'
p218
(lp219
(g185
I0
g22
tp220
ag187
ag189
ag190
ag190
ag187
ag189
ag192
ag194
ag195
ag196
ag197
ag198
ag199
ag200
ag200
ag200
ag198
ag202
ag203
ag205
ag206
ag207
ag208
ag209
ag210
ag211
ag203
ag205
ag212
ag208
ag213
ag203
ag205
ag214
ag212
ag208
ag209
ag215
ag203
ag205
ag212
asS'ui'
p221
(lp222
S'hp'
p223
aS'hs'
p224
ag183
aS'ss'
p225
ag225
ag225
ag225
ag225
ag183
ag225
ag183
ag225
ag225
ag223
ag224
ag183
ag224
ag223
ag224
ag224
ag224
ag224
ag225
ag224
ag223
ag225
ag223
ag225
ag223
ag183
ag183
ag225
ag225
ag223
ag225
ag224
ag223
ag224
ag224
ag225
ag223
ag225
asS'um_before'
p226
(lp227
g223
ag224
ag183
ag183
ag223
ag225
ag225
ag225
ag183
ag225
ag183
ag225
ag223
ag183
ag183
ag183
ag225
ag224
ag224
ag225
ag224
ag225
ag225
ag223
ag223
ag223
ag224
ag225
ag223
ag225
ag183
ag225
ag183
ag183
ag223
ag225
ag223
ag225
ag224
ag225
ag223
ag183
asS'um_after'
p228
(lp229
g223
ag224
ag183
ag183
ag223
ag224
ag224
ag225
ag183
ag224
ag183
ag224
ag223
ag183
ag183
ag183
ag224
ag183
ag224
ag225
ag224
ag224
ag225
ag223
ag223
ag223
ag224
ag225
ag223
ag225
ag183
ag224
ag225
ag183
ag223
ag225
ag223
ag224
ag224
ag225
ag223
ag183
asS'is_normalized_entropy_less_than_threshold'
p230
(lp231
g50
(g51
(S'b1'
p232
I0
I1
tp233
Rp234
(I3
S'|'
p235
NNNI-1
I-1
I0
tp236
bS'\x01'
p237
tp238
Rp239
ag239
ag50
(g234
S'\x00'
p240
tp241
Rp242
ag242
ag239
ag239
ag239
ag239
ag242
ag239
ag239
ag239
ag239
ag242
ag242
ag242
ag239
ag239
ag239
ag239
ag239
ag239
ag239
ag239
ag239
ag242
ag239
ag239
ag239
ag239
ag242
ag239
ag239
ag242
ag239
ag239
ag239
ag239
ag239
ag239
ag239
ag239
asaa(lp243
S'index'
p244
aI51193
aatp245
Rp246
.