ccollections
OrderedDict
p0
((lp1
(lp2
S'combination_dict'
p3
ag0
((lp4
(lp5
S'r_to_g_config'
p6
aS'br'
p7
aa(lp8
S'num_turns'
p9
aI1
aa(lp10
S'start_direction'
p11
acutils_ms
StartDirection
p12
(I0
tp13
Rp14
aa(lp15
S'assistance_type'
p16
acutils_ms
AssistanceType
p17
(I1
tp18
Rp19
aa(lp20
S'start_mode'
p21
aS'y'
p22
aa(lp23
S'ui_given_a_noise'
p24
aF0.3
aa(lp25
S'um_given_ui_noise'
p26
aF0.3
aa(lp27
S'entropy_threshold'
p28
aF0.6
aatp29
Rp30
aa(lp31
S'data'
p32
accollections
defaultdict
p33
(c__builtin__
list
p34
tp35
Rp36
S'a'
p37
(lp38
S'mode_l'
p39
aS'mode_r'
p40
aS'move_p'
p41
ag39
ag41
ag41
ag41
ag39
ag39
ag39
ag41
ag39
aS'move_n'
p42
ag39
ag39
ag39
ag41
ag40
ag40
ag40
ag42
ag39
ag39
ag40
ag39
ag41
ag40
ag42
ag39
ag42
asS'assistance_match_with_ground_truth'
p43
(lp44
I00
aI01
aI01
aI01
aI00
aI00
aI00
aI00
aI00
aI01
aI01
aI01
aI00
aI00
aI00
aI01
aI01
aI00
aI00
aI01
aI00
aI00
aI00
aI00
aI01
aI01
aI01
aI00
aI01
aI01
asS'is_u_intended_equals_um'
p45
(lp46
I00
aI01
aI01
aI01
aI01
aI01
aI00
aI01
aI00
aI01
aI00
aI01
aI00
aI00
aI00
aI01
aI01
aI01
aI01
aI01
aI00
aI00
aI00
aI00
aI01
aI01
aI01
aI00
aI01
aI01
asS'total_steps'
p47
I30
sS'normalized_h_of_p_ui_given_um'
p48
(lp49
cnumpy.core.multiarray
scalar
p50
(cnumpy
dtype
p51
(S'f8'
p52
I0
I1
tp53
Rp54
(I3
S'<'
p55
NNNI-1
I-1
I0
tp56
bS'Bs\xe0\xcc,\x0e\xec?'
p57
tp58
Rp59
ag50
(g54
S'X\x8aX\xa3w5\xc2?'
p60
tp61
Rp62
ag50
(g54
S'\x90^.\x80\xce\x9b\xc4?'
p63
tp64
Rp65
ag50
(g54
S'\xb8h\x1a\xa0\x06+\xd0?'
p66
tp67
Rp68
ag50
(g54
S'\x83\x9c\xa8}\xc4\x8b\xd6?'
p69
tp70
Rp71
ag50
(g54
S'\x83\x9c\xa8}\xc4\x8b\xd6?'
p72
tp73
Rp74
ag50
(g54
S'\\\xef\xfd\xf5\xaf\x08\xe6?'
p75
tp76
Rp77
ag50
(g54
S'*\xd6;\x00N,\xd1?'
p78
tp79
Rp80
ag50
(g54
S'\xd2s\xd5lCa\xe6?'
p81
tp82
Rp83
ag50
(g54
S'\xb8h\x1a\xa0\x06+\xd0?'
p84
tp85
Rp86
ag50
(g54
S'G$\x08S\xd9\x16\xe3?'
p87
tp88
Rp89
ag50
(g54
S'\xb8h\x1a\xa0\x06+\xd0?'
p90
tp91
Rp92
ag50
(g54
S'\xf6i\xea\xa4\xbf$\xe5?'
p93
tp94
Rp95
ag50
(g54
S'\xd2s\xd5lCa\xe6?'
p96
tp97
Rp98
ag50
(g54
S'\xd2s\xd5lCa\xe6?'
p99
tp100
Rp101
ag50
(g54
S'\xb8h\x1a\xa0\x06+\xd0?'
p102
tp103
Rp104
ag50
(g54
S'\x90^.\x80\xce\x9b\xc4?'
p105
tp106
Rp107
ag50
(g54
S'\x9eY*\xd7\xe5L\xda?'
p108
tp109
Rp110
ag50
(g54
S'\x9eY*\xd7\xe5L\xda?'
p111
tp112
Rp113
ag50
(g54
S'X\x8aX\xa3w5\xc2?'
p114
tp115
Rp116
ag50
(g54
S'\xf6i\xea\xa4\xbf$\xe5?'
p117
tp118
Rp119
ag50
(g54
S'\xd2s\xd5lCa\xe6?'
p120
tp121
Rp122
ag50
(g54
S'Bs\xe0\xcc,\x0e\xec?'
p123
tp124
Rp125
ag50
(g54
S'\xec\xd3C\xa6\xb9\xcf\xe3?'
p126
tp127
Rp128
ag50
(g54
S'\xb8h\x1a\xa0\x06+\xd0?'
p129
tp130
Rp131
ag50
(g54
S'\x90^.\x80\xce\x9b\xc4?'
p132
tp133
Rp134
ag50
(g54
S'X\x8aX\xa3w5\xc2?'
p135
tp136
Rp137
ag50
(g54
S'>P~Zm]\xe5?'
p138
tp139
Rp140
ag50
(g54
S'\xb8h\x1a\xa0\x06+\xd0?'
p141
tp142
Rp143
ag50
(g54
S'\xa6pM\x07\xa9\xc4\x9e?'
p144
tp145
Rp146
asS'sp'
p147
(lp148
(S'p0'
p149
I0
S't'
p150
tp151
a(g149
I0
S'x'
p152
tp153
a(S'p1'
p154
I0
g152
tp155
a(g154
I0
g150
tp156
a(g154
I0
g150
tp157
ag157
a(g154
I0
g152
tp158
a(g154
I0
g152
tp159
a(g154
I0
g152
tp160
ag156
a(g154
F1.5707963267948966
g150
tp161
a(g154
F1.5707963267948966
S'y'
p162
tp163
a(g149
F1.5707963267948966
g162
tp164
a(g149
F1.5707963267948966
g162
tp165
ag165
a(g149
F1.5707963267948966
g152
tp166
a(g154
F1.5707963267948966
g152
tp167
a(g154
F1.5707963267948966
g152
tp168
ag168
a(g154
F1.5707963267948966
g162
tp169
ag164
ag165
a(g149
F1.5707963267948966
g150
tp170
a(g149
F1.5707963267948966
g162
tp171
ag166
ag167
ag169
a(g154
F1.5707963267948966
g150
tp172
ag163
a(S'p2'
p173
F1.5707963267948966
g162
tp174
asS's'
p175
(lp176
(g149
I0
g22
tp177
ag151
ag153
ag155
ag156
ag157
ag157
ag158
ag159
ag160
ag156
ag161
ag163
ag164
ag165
ag165
ag166
ag167
ag168
ag168
ag169
ag164
ag165
ag170
ag171
ag166
ag167
ag169
ag172
ag163
asS'ui'
p178
(lp179
S'hs'
p180
ag147
ag147
aS'hp'
p181
aS'ss'
p182
ag182
ag181
ag180
ag180
ag180
ag180
ag180
ag182
ag147
ag180
ag180
ag147
ag182
ag182
ag181
ag147
ag180
ag180
ag180
ag182
ag147
ag181
ag182
ag180
ag182
asS'um_before'
p183
(lp184
g181
ag181
ag147
ag180
ag182
ag182
ag181
ag182
ag147
ag180
ag180
ag180
ag147
ag147
ag147
ag180
ag147
ag182
ag182
ag181
ag147
ag147
ag181
ag180
ag180
ag147
ag181
ag181
ag180
ag182
asS'um_after'
p185
(lp186
g181
ag181
ag147
ag180
ag182
ag182
ag181
ag182
ag147
ag180
ag147
ag180
ag147
ag147
ag147
ag180
ag147
ag182
ag182
ag181
ag147
ag147
ag181
ag180
ag180
ag147
ag181
ag181
ag180
ag182
asS'is_normalized_entropy_less_than_threshold'
p187
(lp188
g50
(g51
(S'b1'
p189
I0
I1
tp190
Rp191
(I3
S'|'
p192
NNNI-1
I-1
I0
tp193
bS'\x00'
p194
tp195
Rp196
ag50
(g191
S'\x01'
p197
tp198
Rp199
ag199
ag199
ag199
ag199
ag196
ag199
ag196
ag199
ag199
ag199
ag196
ag196
ag196
ag199
ag199
ag199
ag199
ag199
ag196
ag196
ag196
ag196
ag199
ag199
ag199
ag196
ag199
ag199
asaa(lp200
S'index'
p201
aI89064
aatp202
Rp203
.