ccollections
OrderedDict
p0
((lp1
(lp2
S'combination_dict'
p3
ag0
((lp4
(lp5
S'r_to_g_config'
p6
aS'bl'
p7
aa(lp8
S'num_turns'
p9
aI2
aa(lp10
S'start_direction'
p11
acutils_ms
StartDirection
p12
(I1
tp13
Rp14
aa(lp15
S'assistance_type'
p16
acutils_ms
AssistanceType
p17
(I0
tp18
Rp19
aa(lp20
S'start_mode'
p21
aS't'
p22
aa(lp23
S'ui_given_a_noise'
p24
aF0.1
aa(lp25
S'um_given_ui_noise'
p26
aF0.1
aa(lp27
S'entropy_threshold'
p28
aF0.8
aatp29
Rp30
aa(lp31
S'data'
p32
accollections
defaultdict
p33
(c__builtin__
list
p34
tp35
Rp36
S'a'
p37
(lp38
S'mode_l'
p39
ag39
aS'move_n'
p40
aS'mode_r'
p41
ag40
ag41
ag41
aS'move_p'
p42
ag39
ag42
ag42
ag41
ag41
ag40
ag41
ag40
ag39
ag40
ag41
ag40
ag40
ag41
ag40
ag41
ag40
ag39
ag40
ag41
ag40
asS'assistance_match_with_ground_truth'
p43
(lp44
I00
aI01
aI00
aI01
aI01
aI00
aI01
aI00
aI01
aI00
aI01
aI00
aI01
aI01
aI01
aI00
aI01
aI00
aI01
aI00
aI01
aI01
aI00
aI01
aI00
aI01
aI01
aI01
aI01
asS'is_u_intended_equals_um'
p45
(lp46
I00
aI01
aI01
aI01
aI01
aI00
aI01
aI01
aI01
aI00
aI01
aI00
aI01
aI01
aI01
aI01
aI01
aI01
aI01
aI00
aI01
aI01
aI01
aI01
aI01
aI01
aI01
aI01
aI01
asS'total_steps'
p47
I29
sS'normalized_h_of_p_ui_given_um'
p48
(lp49
cnumpy.core.multiarray
scalar
p50
(cnumpy
dtype
p51
(S'f8'
p52
I0
I1
tp53
Rp54
(I3
S'<'
p55
NNNI-1
I-1
I0
tp56
bS'6\xa2 \xb8\xa8\xd1\xdd?'
p57
tp58
Rp59
ag50
(g54
S'\x03\x87\xdb\xa7\xb9\x8b\xa6?'
p60
tp61
Rp62
ag50
(g54
S'v\xcf\x0flj\xff\xe3?'
p63
tp64
Rp65
ag50
(g54
S'R\xf6=\xcb\x14\x8f\x92?'
p66
tp67
Rp68
ag50
(g54
S'\xd8\xfa,\x80\xcb\xc9\xb0?'
p69
tp70
Rp71
ag50
(g54
S'R\xe7k\x1b\x1d\xa9\xe4?'
p72
tp73
Rp74
ag50
(g54
S'R\xf6=\xcb\x14\x8f\x92?'
p75
tp76
Rp77
ag50
(g54
S'w"\x12RE\x8e\xd4?'
p78
tp79
Rp80
ag50
(g54
S'\x03\x87\xdb\xa7\xb9\x8b\xa6?'
p81
tp82
Rp83
ag50
(g54
S'\x86\xfa\xb2?5\x91\xe4?'
p84
tp85
Rp86
ag50
(g54
S'$E\x0e\x9c\x92`\x97?'
p87
tp88
Rp89
ag50
(g54
S'=\x00>\t\xda\\\xe4?'
p90
tp91
Rp92
ag50
(g54
S'R\xf6=\xcb\x14\x8f\x92?'
p93
tp94
Rp95
ag50
(g54
S'\xd8\xfa,\x80\xcb\xc9\xb0?'
p96
tp97
Rp98
ag50
(g54
S'R\xf6=\xcb\x14\x8f\x92?'
p99
tp100
Rp101
ag50
(g54
S't\x13)HB\x06\xe1?'
p102
tp103
Rp104
ag50
(g54
S'\x03\x87\xdb\xa7\xb9\x8b\xa6?'
p105
tp106
Rp107
ag50
(g54
S'v\xcf\x0flj\xff\xe3?'
p108
tp109
Rp110
ag50
(g54
S'R\xf6=\xcb\x14\x8f\x92?'
p111
tp112
Rp113
ag50
(g54
S'Q\xb2\xd0\xdf\xf2w\xe4?'
p114
tp115
Rp116
ag50
(g54
S'\xd8\xfa,\x80\xcb\xc9\xb0?'
p117
tp118
Rp119
ag50
(g54
S'R\xf6=\xcb\x14\x8f\x92?'
p120
tp121
Rp122
ag50
(g54
S'v\xcf\x0flj\xff\xe3?'
p123
tp124
Rp125
ag50
(g54
S'R\xf6=\xcb\x14\x8f\x92?'
p126
tp127
Rp128
ag50
(g54
S't\x13)HB\x06\xe1?'
p129
tp130
Rp131
ag50
(g54
S'\x03\x87\xdb\xa7\xb9\x8b\xa6?'
p132
tp133
Rp134
ag50
(g54
S'\xd8\xfa,\x80\xcb\xc9\xb0?'
p135
tp136
Rp137
ag50
(g54
S'R\xf6=\xcb\x14\x8f\x92?'
p138
tp139
Rp140
ag50
(g54
S'\xd8\xfa,\x80\xcb\xc9\xb0?'
p141
tp142
Rp143
asS'sp'
p144
(lp145
(S'p0'
p146
I0
g22
tp147
a(g146
I0
S'y'
p148
tp149
a(g146
I0
S'x'
p150
tp151
a(g146
I0
g148
tp152
a(S'p1'
p153
I0
g148
tp154
ag154
a(g153
I0
S't'
p155
tp156
a(g153
I0
g150
tp157
a(g153
I0
g155
tp158
ag158
a(g153
F1.5707963267948966
g155
tp159
ag159
a(g153
F1.5707963267948966
g150
tp160
a(S'p2'
p161
F1.5707963267948966
g150
tp162
a(g161
F1.5707963267948966
g148
tp163
a(g153
F1.5707963267948966
g148
tp164
a(g153
F1.5707963267948966
g150
tp165
a(g153
F1.5707963267948966
g155
tp166
ag160
ag160
ag162
ag163
a(g161
F1.5707963267948966
g150
tp167
ag163
ag164
ag165
ag162
ag163
a(S'p3'
p168
F1.5707963267948966
g148
tp169
asS's'
p170
(lp171
g147
ag147
ag149
ag151
ag152
ag154
ag154
ag156
ag157
ag158
ag158
ag159
ag159
ag160
ag162
ag163
ag164
ag165
ag166
ag160
ag160
ag162
ag163
ag167
ag163
ag164
ag165
ag162
ag163
asS'ui'
p172
(lp173
S'hs'
p174
ag174
ag174
aS'hp'
p175
aS'ss'
p176
ag175
ag175
ag175
ag174
ag174
ag144
ag144
ag175
ag176
ag175
ag176
ag174
ag174
ag175
ag176
ag176
ag175
ag144
ag175
ag176
ag174
ag176
ag175
ag176
asS'um_before'
p177
(lp178
g175
ag174
ag174
ag175
ag176
ag176
ag175
ag175
ag174
ag174
ag144
ag174
ag175
ag176
ag175
ag144
ag174
ag174
ag175
ag175
ag176
ag175
ag174
ag175
ag144
ag174
ag176
ag175
ag176
asS'um_after'
p179
(lp180
Nag174
ag174
ag175
ag176
aNag175
ag175
ag174
aNag144
aNag175
ag176
ag175
ag144
ag174
ag174
ag175
aNag176
ag175
ag174
ag175
ag144
ag174
ag176
ag175
ag176
asS'is_normalized_entropy_less_than_threshold'
p181
(lp182
g50
(g51
(S'b1'
p183
I0
I1
tp184
Rp185
(I3
S'|'
p186
NNNI-1
I-1
I0
tp187
bS'\x01'
p188
tp189
Rp190
ag190
ag190
ag190
ag190
ag190
ag190
ag190
ag190
ag190
ag190
ag190
ag190
ag190
ag190
ag190
ag190
ag190
ag190
ag190
ag190
ag190
ag190
ag190
ag190
ag190
ag190
ag190
ag190
asaa(lp191
S'index'
p192
aI72834
aatp193
Rp194
.