ccollections
OrderedDict
p0
((lp1
(lp2
S'combination_dict'
p3
ag0
((lp4
(lp5
S'r_to_g_config'
p6
aS'tr'
p7
aa(lp8
S'num_turns'
p9
aI2
aa(lp10
S'start_direction'
p11
acutils_ms
StartDirection
p12
(I0
tp13
Rp14
aa(lp15
S'assistance_type'
p16
acutils_ms
AssistanceType
p17
(I1
tp18
Rp19
aa(lp20
S'start_mode'
p21
aS'y'
p22
aa(lp23
S'ui_given_a_noise'
p24
aF0.7
aa(lp25
S'um_given_ui_noise'
p26
aF0.7
aa(lp27
S'entropy_threshold'
p28
aF0.5
aatp29
Rp30
aa(lp31
S'data'
p32
accollections
defaultdict
p33
(c__builtin__
list
p34
tp35
Rp36
S'a'
p37
(lp38
S'mode_l'
p39
aS'move_p'
p40
ag39
ag39
ag40
aS'mode_r'
p41
ag39
ag39
ag41
ag39
ag41
ag40
ag39
ag39
ag40
ag39
ag41
ag40
ag41
ag39
ag40
ag39
ag39
ag39
ag40
ag40
ag39
ag40
ag41
ag41
ag39
ag40
ag39
ag40
ag41
ag40
ag39
ag40
asS'assistance_match_with_ground_truth'
p42
(lp43
I01
aI01
aI00
aI01
aI00
aI00
aI00
aI00
aI00
aI00
aI01
aI01
aI00
aI01
aI00
aI00
aI01
aI01
aI00
aI01
aI00
aI00
aI00
aI01
aI00
aI00
aI01
aI01
aI00
aI00
aI01
aI00
aI01
aI01
aI01
aI01
aI01
aI01
asS'is_u_intended_equals_um'
p44
(lp45
I01
aI01
aI00
aI01
aI01
aI00
aI00
aI00
aI00
aI00
aI01
aI01
aI01
aI01
aI00
aI00
aI01
aI01
aI00
aI01
aI00
aI00
aI01
aI01
aI00
aI00
aI01
aI01
aI01
aI00
aI01
aI00
aI01
aI01
aI01
aI01
aI01
aI01
asS'total_steps'
p46
I38
sS'normalized_h_of_p_ui_given_um'
p47
(lp48
cnumpy.core.multiarray
scalar
p49
(cnumpy
dtype
p50
(S'f8'
p51
I0
I1
tp52
Rp53
(I3
S'<'
p54
NNNI-1
I-1
I0
tp55
bS'I\x94\xa5\xd3\x84\xa6\xde?'
p56
tp57
Rp58
ag49
(g53
S'\x90\x9c\x08\xe5\x9e\xaa\xdf?'
p59
tp60
Rp61
ag49
(g53
S"\xe4\xdc\x87J\xf1'\xea?"
p62
tp63
Rp64
ag49
(g53
S'I\x94\xa5\xd3\x84\xa6\xde?'
p65
tp66
Rp67
ag49
(g53
S"R\tRf'\t\xea?"
p68
tp69
Rp70
ag49
(g53
S'\x04\xf2\xf5\xd0e\xd1\xe5?'
p71
tp72
Rp73
ag49
(g53
S"\xe4\xdc\x87J\xf1'\xea?"
p74
tp75
Rp76
ag49
(g53
S'\xcc\x18\xa9X\xc9d\xec?'
p77
tp78
Rp79
ag49
(g53
S'\x04\xf2\xf5\xd0e\xd1\xe5?'
p80
tp81
Rp82
ag49
(g53
S'\xcc\x18\xa9X\xc9d\xec?'
p83
tp84
Rp85
ag49
(g53
S'\xc7\x1d\x13G\xa9\x92\xe6?'
p86
tp87
Rp88
ag49
(g53
S'\x90\x9c\x08\xe5\x9e\xaa\xdf?'
p89
tp90
Rp91
ag49
(g53
S'\x13\x84\x0b\xb7kZ\xe8?'
p92
tp93
Rp94
ag49
(g53
S'I\x94\xa5\xd3\x84\xa6\xde?'
p95
tp96
Rp97
ag49
(g53
S'\x08\x01w\xb3\x14\xc2\xe2?'
p98
tp99
Rp100
ag49
(g53
S'\xcc\x18\xa9X\xc9d\xec?'
p101
tp102
Rp103
ag49
(g53
S'\xc7\x1d\x13G\xa9\x92\xe6?'
p104
tp105
Rp106
ag49
(g53
S'\x90\x9c\x08\xe5\x9e\xaa\xdf?'
p107
tp108
Rp109
ag49
(g53
S'\x04\xf2\xf5\xd0e\xd1\xe5?'
p110
tp111
Rp112
ag49
(g53
S'I\x94\xa5\xd3\x84\xa6\xde?'
p113
tp114
Rp115
ag49
(g53
S'\x08\x01w\xb3\x14\xc2\xe2?'
p116
tp117
Rp118
ag49
(g53
S"\xe4\xdc\x87J\xf1'\xea?"
p119
tp120
Rp121
ag49
(g53
S'\x13\x84\x0b\xb7kZ\xe8?'
p122
tp123
Rp124
ag49
(g53
S'I\x94\xa5\xd3\x84\xa6\xde?'
p125
tp126
Rp127
ag49
(g53
S'\x08\x01w\xb3\x14\xc2\xe2?'
p128
tp129
Rp130
ag49
(g53
S'\xea\x14\xf2\x068\x0c\xea?'
p131
tp132
Rp133
ag49
(g53
S'I\x94\xa5\xd3\x84\xa6\xde?'
p134
tp135
Rp136
ag49
(g53
S'\x90\x9c\x08\xe5\x9e\xaa\xdf?'
p137
tp138
Rp139
ag49
(g53
S'\xe5\xf6\x12\xb4\xf4\xbe\xe7?'
p140
tp141
Rp142
ag49
(g53
S'\x04\xf2\xf5\xd0e\xd1\xe5?'
p143
tp144
Rp145
ag49
(g53
S'I\x94\xa5\xd3\x84\xa6\xde?'
p146
tp147
Rp148
ag49
(g53
S'\x08\x01w\xb3\x14\xc2\xe2?'
p149
tp150
Rp151
ag49
(g53
S'I\x94\xa5\xd3\x84\xa6\xde?'
p152
tp153
Rp154
ag49
(g53
S'\x90\x9c\x08\xe5\x9e\xaa\xdf?'
p155
tp156
Rp157
ag49
(g53
S'\xc7\x1d\x13G\xa9\x92\xe6?'
p158
tp159
Rp160
ag49
(g53
S'\x90\x9c\x08\xe5\x9e\xaa\xdf?'
p161
tp162
Rp163
ag49
(g53
S'I\x94\xa5\xd3\x84\xa6\xde?'
p164
tp165
Rp166
ag49
(g53
S'\x90\x9c\x08\xe5\x9e\xaa\xdf?'
p167
tp168
Rp169
asS'sp'
p170
(lp171
(S'p0'
p172
I0
S'x'
p173
tp174
a(S'p1'
p175
I0
g173
tp176
a(g175
I0
g173
tp177
a(g175
I0
S't'
p178
tp179
a(g175
I0
S'y'
p180
tp181
a(g175
I0
g173
tp182
ag177
a(g175
I0
g180
tp183
ag182
ag183
a(g175
I0
g178
tp184
a(g175
F1.5707963267948966
g178
tp185
a(g175
F1.5707963267948966
g178
tp186
a(g175
F1.5707963267948966
g180
tp187
a(g172
F1.5707963267948966
g180
tp188
a(g172
F1.5707963267948966
g178
tp189
a(g172
F1.5707963267948966
g173
tp190
a(g175
F1.5707963267948966
g173
tp191
a(g175
F1.5707963267948966
g178
tp192
ag187
ag188
a(g172
F1.5707963267948966
g180
tp193
a(g172
F1.5707963267948966
g180
tp194
a(g172
F1.5707963267948966
g173
tp195
a(g172
F1.5707963267948966
g173
tp196
a(g172
F1.5707963267948966
g180
tp197
ag195
ag191
a(g175
F1.5707963267948966
g173
tp198
ag192
ag187
ag188
ag195
ag191
a(g175
F1.5707963267948966
g180
tp199
a(S'p2'
p200
F1.5707963267948966
g180
tp201
a(g200
F1.5707963267948966
g173
tp202
a(S'p3'
p203
F1.5707963267948966
g173
tp204
asS's'
p205
(lp206
(g172
I0
g22
tp207
ag174
ag176
ag177
ag179
ag181
ag182
ag177
ag183
ag182
ag183
ag184
ag185
ag186
ag187
ag188
ag189
ag190
ag191
ag192
ag187
ag188
ag193
ag194
ag195
ag196
ag197
ag195
ag191
ag198
ag192
ag187
ag188
ag195
ag191
ag199
ag201
ag202
asS'ui'
p208
(lp209
S'hp'
p210
ag170
ag210
aS'hs'
p211
ag170
ag210
aS'ss'
p212
ag211
ag212
ag211
ag210
ag170
ag211
ag211
ag170
ag211
ag210
ag170
ag210
ag211
ag170
ag170
ag170
ag211
ag170
ag170
ag211
ag170
ag170
ag210
ag211
ag170
ag211
ag211
ag212
ag170
ag211
ag170
asS'um_before'
p213
(lp214
g211
ag170
ag212
ag211
ag211
ag211
ag212
ag210
ag211
ag210
ag210
ag170
ag170
ag211
ag212
ag210
ag210
ag170
ag211
ag211
ag212
ag212
ag170
ag211
ag212
ag210
ag211
ag170
ag212
ag211
ag211
ag212
ag211
ag170
ag210
ag170
ag211
ag170
asS'um_after'
p215
(lp216
g211
ag170
ag212
ag211
ag211
ag211
ag212
ag210
ag211
ag210
ag210
ag170
ag170
ag211
ag212
ag210
ag210
ag170
ag211
ag211
ag212
ag212
ag170
ag211
ag212
ag210
ag211
ag170
ag212
ag211
ag211
ag212
ag211
ag170
ag210
ag170
ag211
ag170
asS'is_normalized_entropy_less_than_threshold'
p217
(lp218
g49
(g50
(S'b1'
p219
I0
I1
tp220
Rp221
(I3
S'|'
p222
NNNI-1
I-1
I0
tp223
bS'\x01'
p224
tp225
Rp226
ag226
ag49
(g221
S'\x00'
p227
tp228
Rp229
ag226
ag229
ag229
ag229
ag229
ag229
ag229
ag229
ag226
ag229
ag226
ag229
ag229
ag229
ag226
ag229
ag226
ag229
ag229
ag229
ag226
ag229
ag229
ag226
ag226
ag229
ag229
ag226
ag229
ag226
ag226
ag229
ag226
ag226
ag226
asaa(lp230
S'index'
p231
aI12757
aatp232
Rp233
.