ccollections
OrderedDict
p0
((lp1
(lp2
S'combination_dict'
p3
ag0
((lp4
(lp5
S'r_to_g_config'
p6
aS'bl'
p7
aa(lp8
S'num_turns'
p9
aI2
aa(lp10
S'start_direction'
p11
acutils_ms
StartDirection
p12
(I0
tp13
Rp14
aa(lp15
S'assistance_type'
p16
acutils_ms
AssistanceType
p17
(I2
tp18
Rp19
aa(lp20
S'start_mode'
p21
aS'y'
p22
aa(lp23
S'ui_given_a_noise'
p24
aF0.1
aa(lp25
S'um_given_ui_noise'
p26
aF0.7
aa(lp27
S'entropy_threshold'
p28
aF0.6
aatp29
Rp30
aa(lp31
S'data'
p32
accollections
defaultdict
p33
(c__builtin__
list
p34
tp35
Rp36
S'a'
p37
(lp38
S'mode_l'
p39
ag39
aS'move_n'
p40
aS'mode_r'
p41
ag41
ag40
ag41
aS'move_p'
p42
ag41
ag39
ag40
ag41
ag40
ag41
ag41
ag40
ag39
ag40
ag39
ag39
ag40
ag39
ag40
ag39
ag41
ag40
ag41
ag41
ag41
ag39
ag40
ag39
ag40
ag39
ag39
ag40
asS'assistance_match_with_ground_truth'
p43
(lp44
I00
aI01
aI01
aI00
aI01
aI01
aI01
aI01
aI00
aI01
aI00
aI01
aI00
aI00
aI01
aI00
aI01
aI00
aI00
aI01
aI00
aI01
aI00
aI00
aI01
aI01
aI00
aI00
aI00
aI01
aI00
aI01
aI01
aI00
aI01
aI01
asS'is_u_intended_equals_um'
p45
(lp46
I01
aI01
aI01
aI01
aI01
aI01
aI01
aI01
aI01
aI01
aI01
aI01
aI01
aI01
aI01
aI01
aI01
aI01
aI01
aI01
aI01
aI01
aI01
aI01
aI01
aI01
aI01
aI01
aI01
aI01
aI01
aI01
aI01
aI01
aI01
aI01
asS'total_steps'
p47
I36
sS'normalized_h_of_p_ui_given_um'
p48
(lp49
cnumpy.core.multiarray
scalar
p50
(cnumpy
dtype
p51
(S'f8'
p52
I0
I1
tp53
Rp54
(I3
S'<'
p55
NNNI-1
I-1
I0
tp56
bS'\x8a\t\xc0>^M\xd6?'
p57
tp58
Rp59
ag59
ag59
ag59
ag59
ag59
ag59
ag59
ag59
ag59
ag59
ag59
ag59
ag59
ag59
ag59
ag59
ag59
ag59
ag59
ag59
ag59
ag59
ag59
ag59
ag59
ag59
ag59
ag59
ag59
ag59
ag59
ag59
ag59
ag59
ag59
asS'sp'
p60
(lp61
(S'p0'
p62
I0
S'y'
p63
tp64
a(g62
I0
S'x'
p65
tp66
a(S'p1'
p67
I0
g65
tp68
a(g67
I0
g65
tp69
a(g67
I0
g63
tp70
a(S'p2'
p71
I0
g63
tp72
a(g71
I0
S't'
p73
tp74
a(g71
F1.5707963267948966
g73
tp75
a(g71
F1.5707963267948966
g63
tp76
a(g71
F1.5707963267948966
g65
tp77
a(g71
F1.5707963267948966
g73
tp78
a(g71
F1.5707963267948966
g65
tp79
a(g67
F1.5707963267948966
g65
tp80
a(g67
F1.5707963267948966
g65
tp81
a(g67
F1.5707963267948966
g63
tp82
a(g67
F1.5707963267948966
g73
tp83
a(g67
F1.5707963267948966
g63
tp84
a(g62
F1.5707963267948966
g63
tp85
a(g62
F1.5707963267948966
g63
tp86
a(g62
F1.5707963267948966
g65
tp87
a(g62
F1.5707963267948966
g63
tp88
ag87
ag88
a(g62
F1.5707963267948966
g73
tp89
a(g62
F1.5707963267948966
g65
tp90
a(g67
F1.5707963267948966
g65
tp91
ag81
ag81
a(g67
F1.5707963267948966
g73
tp92
ag84
ag83
ag84
a(g71
F1.5707963267948966
g63
tp93
a(g71
F1.5707963267948966
g63
tp94
ag77
a(S'p3'
p95
F1.5707963267948966
g65
tp96
asS's'
p97
(lp98
(g62
I0
g22
tp99
ag64
ag66
ag68
ag69
ag70
ag72
ag74
ag75
ag76
ag77
ag78
ag79
ag80
ag81
ag82
ag83
ag84
ag85
ag86
ag87
ag88
ag87
ag88
ag89
ag90
ag91
ag81
ag81
ag92
ag84
ag83
ag84
ag93
ag94
ag77
asS'ui'
p100
(lp101
S'hs'
p102
ag102
ag60
aS'hp'
p103
ag103
aS'ss'
p104
ag103
ag60
ag102
ag102
ag104
ag103
ag104
ag103
ag103
ag104
ag102
ag104
ag102
ag102
ag104
ag102
ag104
ag102
ag103
ag104
ag103
ag103
ag103
ag102
ag104
ag102
ag104
ag102
ag102
ag104
asS'um_before'
p105
(lp106
g60
ag102
ag104
ag60
ag103
ag104
ag103
ag60
ag102
ag102
ag102
ag103
ag60
ag60
ag103
ag103
ag102
ag60
ag104
ag102
ag103
ag102
ag103
ag103
ag103
ag104
ag60
ag60
ag102
ag102
ag103
ag102
ag104
ag104
ag102
ag104
asS'um_after'
p107
(lp108
g60
ag102
ag104
ag60
ag103
ag104
ag103
ag60
ag102
ag102
ag102
ag103
ag60
ag60
ag103
ag103
ag102
ag60
ag104
ag102
ag103
ag102
ag103
ag103
ag103
ag104
ag60
ag60
ag102
ag102
ag103
ag102
ag104
ag104
ag102
ag104
asS'is_normalized_entropy_less_than_threshold'
p109
(lp110
g50
(g51
(S'b1'
p111
I0
I1
tp112
Rp113
(I3
S'|'
p114
NNNI-1
I-1
I0
tp115
bS'\x01'
p116
tp117
Rp118
ag118
ag118
ag118
ag118
ag118
ag118
ag118
ag118
ag118
ag118
ag118
ag118
ag118
ag118
ag118
ag118
ag118
ag118
ag118
ag118
ag118
ag118
ag118
ag118
ag118
ag118
ag118
ag118
ag118
ag118
ag118
ag118
ag118
ag118
ag118
asaa(lp119
S'index'
p120
aI71362
aatp121
Rp122
.