ccollections
OrderedDict
p0
((lp1
(lp2
S'combination_dict'
p3
ag0
((lp4
(lp5
S'r_to_g_config'
p6
aS'tr'
p7
aa(lp8
S'num_turns'
p9
aI3
aa(lp10
S'start_direction'
p11
acutils_ms
StartDirection
p12
(I1
tp13
Rp14
aa(lp15
S'assistance_type'
p16
acutils_ms
AssistanceType
p17
(I1
tp18
Rp19
aa(lp20
S'start_mode'
p21
aS't'
p22
aa(lp23
S'ui_given_a_noise'
p24
aF0.3
aa(lp25
S'um_given_ui_noise'
p26
aF0.3
aa(lp27
S'entropy_threshold'
p28
aF0.8
aatp29
Rp30
aa(lp31
S'data'
p32
accollections
defaultdict
p33
(c__builtin__
list
p34
tp35
Rp36
S'a'
p37
(lp38
S'mode_l'
p39
aS'move_p'
p40
aS'mode_r'
p41
ag41
ag40
ag40
ag39
ag40
ag39
ag39
ag40
ag41
ag41
ag40
ag39
ag40
ag41
ag41
ag41
ag41
ag40
ag40
ag40
ag41
ag40
asS'assistance_match_with_ground_truth'
p42
(lp43
I01
aI00
aI00
aI01
aI00
aI01
aI01
aI00
aI00
aI01
aI01
aI00
aI01
aI00
aI01
aI01
aI00
aI00
aI00
aI01
aI00
aI00
aI01
aI01
aI01
asS'is_u_intended_equals_um'
p44
(lp45
I01
aI01
aI01
aI01
aI00
aI01
aI01
aI01
aI01
aI01
aI01
aI01
aI01
aI01
aI01
aI01
aI01
aI01
aI01
aI00
aI00
aI00
aI01
aI01
aI01
asS'total_steps'
p46
I25
sS'normalized_h_of_p_ui_given_um'
p47
(lp48
cnumpy.core.multiarray
scalar
p49
(cnumpy
dtype
p50
(S'f8'
p51
I0
I1
tp52
Rp53
(I3
S'<'
p54
NNNI-1
I-1
I0
tp55
bS'y\rI\x923O\xc2?'
p56
tp57
Rp58
ag49
(g53
S'\x82R\x87fp\xa2\xe6?'
p59
tp60
Rp61
ag49
(g53
S'\xbe\x7f\x82Zk\x08\xe5?'
p62
tp63
Rp64
ag49
(g53
S'~\x87\x1b\xeb\xf5\x13\xd1?'
p65
tp66
Rp67
ag49
(g53
S'\x9d\xac\xec~- \xeb?'
p68
tp69
Rp70
ag49
(g53
S'jT\x12\xe3\xa2\x94\xd2?'
p71
tp72
Rp73
ag49
(g53
S'y\rI\x923O\xc2?'
p74
tp75
Rp76
ag49
(g53
S'\x96H\xbd\x06\\\xe1\xe1?'
p77
tp78
Rp79
ag49
(g53
S'\xdb\xb3/\xfa\xaa<\xe1?'
p80
tp81
Rp82
ag49
(g53
S'y\rI\x923O\xc2?'
p83
tp84
Rp85
ag49
(g53
S'jT\x12\xe3\xa2\x94\xd2?'
p86
tp87
Rp88
ag49
(g53
S'\xbe\x7f\x82Zk\x08\xe5?'
p89
tp90
Rp91
ag49
(g53
S'~\x87\x1b\xeb\xf5\x13\xd1?'
p92
tp93
Rp94
ag49
(g53
S'\x96H\xbd\x06\\\xe1\xe1?'
p95
tp96
Rp97
ag49
(g53
S'y\rI\x923O\xc2?'
p98
tp99
Rp100
ag49
(g53
S'jT\x12\xe3\xa2\x94\xd2?'
p101
tp102
Rp103
ag49
(g53
S'\xbe\x7f\x82Zk\x08\xe5?'
p104
tp105
Rp106
ag49
(g53
S'\xbe\x7f\x82Zk\x08\xe5?'
p107
tp108
Rp109
ag49
(g53
S'\xbe\x7f\x82Zk\x08\xe5?'
p110
tp111
Rp112
ag49
(g53
S'\xfeX\xd4\xda\xaa\x96\xe5?'
p113
tp114
Rp115
ag49
(g53
S'\x9d\xac\xec~- \xeb?'
p116
tp117
Rp118
ag49
(g53
S'\x9d\xac\xec~- \xeb?'
p119
tp120
Rp121
ag49
(g53
S'jT\x12\xe3\xa2\x94\xd2?'
p122
tp123
Rp124
ag49
(g53
S'~\x87\x1b\xeb\xf5\x13\xd1?'
p125
tp126
Rp127
ag49
(g53
S'jT\x12\xe3\xa2\x94\xd2?'
p128
tp129
Rp130
asS'sp'
p131
(lp132
(S'p0'
p133
I0
S'y'
p134
tp135
a(g133
I0
S'x'
p136
tp137
a(g133
I0
g136
tp138
a(g133
I0
g134
tp139
a(g133
I0
g134
tp140
a(S'p1'
p141
I0
g134
tp142
a(g141
I0
g136
tp143
a(g141
I0
g134
tp144
a(g141
I0
g134
tp145
ag143
a(S'p2'
p146
I0
g136
tp147
a(g146
I0
g136
tp148
a(g146
I0
g134
tp149
a(g146
I0
S't'
p150
tp151
a(g146
I0
g134
tp152
a(S'p3'
p153
I0
g134
tp154
a(g153
I0
g134
tp155
ag155
ag155
a(g153
I0
g150
tp156
a(g153
I0
g150
tp157
ag157
a(g153
F1.5707963267948966
g150
tp158
a(g153
F1.5707963267948966
g136
tp159
a(S'p4'
p160
F1.5707963267948966
g136
tp161
asS's'
p162
(lp163
(g133
I0
g22
tp164
ag135
ag137
ag138
ag139
ag140
ag142
ag143
ag144
ag145
ag143
ag147
ag148
ag149
ag151
ag152
ag154
ag155
ag155
ag155
ag156
ag157
ag157
ag158
ag159
asS'ui'
p165
(lp166
S'hs'
p167
ag167
aS'ss'
p168
aS'hp'
p169
ag168
ag131
ag167
ag169
ag131
ag167
ag131
ag168
ag169
ag169
ag167
ag131
ag169
ag169
ag168
ag169
ag131
ag131
ag131
ag167
ag131
asS'um_before'
p170
(lp171
g167
ag167
ag168
ag169
ag168
ag131
ag167
ag169
ag131
ag167
ag131
ag168
ag169
ag169
ag167
ag131
ag168
ag168
ag168
ag131
ag168
ag168
ag131
ag169
ag131
asS'um_after'
p172
(lp173
g167
ag167
ag168
ag169
ag168
ag131
ag167
ag169
ag131
ag167
ag131
ag168
ag169
ag169
ag167
ag131
ag168
ag168
ag168
ag169
ag168
ag168
ag131
ag169
ag131
asS'is_normalized_entropy_less_than_threshold'
p174
(lp175
g49
(g50
(S'b1'
p176
I0
I1
tp177
Rp178
(I3
S'|'
p179
NNNI-1
I-1
I0
tp180
bS'\x01'
p181
tp182
Rp183
ag183
ag183
ag183
ag49
(g178
S'\x00'
p184
tp185
Rp186
ag183
ag183
ag183
ag183
ag183
ag183
ag183
ag183
ag183
ag183
ag183
ag183
ag183
ag183
ag183
ag186
ag186
ag183
ag183
ag183
asaa(lp187
S'index'
p188
aI26685
aatp189
Rp190
.