ccollections
OrderedDict
p0
((lp1
(lp2
S'combination_dict'
p3
ag0
((lp4
(lp5
S'r_to_g_config'
p6
aS'br'
p7
aa(lp8
S'num_turns'
p9
aI1
aa(lp10
S'start_direction'
p11
acutils_ms
StartDirection
p12
(I1
tp13
Rp14
aa(lp15
S'assistance_type'
p16
acutils_ms
AssistanceType
p17
(I1
tp18
Rp19
aa(lp20
S'start_mode'
p21
aS't'
p22
aa(lp23
S'ui_given_a_noise'
p24
aF0.3
aa(lp25
S'um_given_ui_noise'
p26
aF0.1
aa(lp27
S'entropy_threshold'
p28
aF0.5
aatp29
Rp30
aa(lp31
S'data'
p32
accollections
defaultdict
p33
(c__builtin__
list
p34
tp35
Rp36
S'a'
p37
(lp38
S'mode_l'
p39
aS'move_n'
p40
aS'mode_r'
p41
ag39
aS'move_p'
p42
ag41
ag41
ag41
ag42
ag39
ag39
ag42
asS'assistance_match_with_ground_truth'
p43
(lp44
I01
aI01
aI00
aI01
aI01
aI00
aI00
aI01
aI00
aI00
aI01
aI01
asS'is_u_intended_equals_um'
p45
(lp46
I01
aI01
aI01
aI01
aI01
aI01
aI01
aI01
aI01
aI01
aI01
aI01
asS'total_steps'
p47
I12
sS'normalized_h_of_p_ui_given_um'
p48
(lp49
cnumpy.core.multiarray
scalar
p50
(cnumpy
dtype
p51
(S'f8'
p52
I0
I1
tp53
Rp54
(I3
S'<'
p55
NNNI-1
I-1
I0
tp56
bS'\xd5\x86Tn\xb0{\xbd?'
p57
tp58
Rp59
ag50
(g54
S'U\x16\xacI\xc8\xfe\xaa?'
p60
tp61
Rp62
ag50
(g54
S'\xc4>z\xa1X\x97\xe3?'
p63
tp64
Rp65
ag50
(g54
S'\xd5\x86Tn\xb0{\xbd?'
p66
tp67
Rp68
ag50
(g54
S'\xd6Fmt\x01\xe1\xb2?'
p69
tp70
Rp71
ag50
(g54
S'\x10is1\xd1\x01\xda?'
p72
tp73
Rp74
ag50
(g54
S'\x10is1\xd1\x01\xda?'
p75
tp76
Rp77
ag50
(g54
S'\xa4\xe7\xdc\x14\x10\xc3\xb9?'
p78
tp79
Rp80
ag50
(g54
S'f B\xd0\xc6\x9f\xcb?'
p81
tp82
Rp83
ag50
(g54
S':\xd0?\x91\xe6\xf7\xe2?'
p84
tp85
Rp86
ag50
(g54
S'\xd5\x86Tn\xb0{\xbd?'
p87
tp88
Rp89
ag50
(g54
S'\xd6Fmt\x01\xe1\xb2?'
p90
tp91
Rp92
asS'sp'
p93
(lp94
(S'p0'
p95
I0
S'y'
p96
tp97
a(S'p1'
p98
I0
g96
tp99
a(g98
I0
S'x'
p100
tp101
a(g98
I0
S't'
p102
tp103
a(g98
F1.5707963267948966
g102
tp104
a(g98
F1.5707963267948966
g102
tp105
ag105
a(g98
F1.5707963267948966
g100
tp106
a(g98
F1.5707963267948966
g96
tp107
a(g98
F1.5707963267948966
g96
tp108
a(g98
F1.5707963267948966
g100
tp109
a(S'p2'
p110
F1.5707963267948966
g100
tp111
asS's'
p112
(lp113
(g95
I0
g22
tp114
ag97
ag99
ag101
ag103
ag104
ag105
ag105
ag106
ag107
ag108
ag109
asS'ui'
p115
(lp116
S'hs'
p117
aS'ss'
p118
ag117
ag117
aS'hp'
p119
ag93
ag93
ag119
ag119
ag117
ag117
ag93
asS'um_before'
p120
(lp121
g117
ag118
ag117
ag117
ag93
ag93
ag93
ag119
ag119
ag118
ag117
ag93
asS'um_after'
p122
(lp123
g117
ag118
ag117
ag117
ag93
ag93
ag93
ag119
ag119
ag118
ag117
ag93
asS'is_normalized_entropy_less_than_threshold'
p124
(lp125
g50
(g51
(S'b1'
p126
I0
I1
tp127
Rp128
(I3
S'|'
p129
NNNI-1
I-1
I0
tp130
bS'\x01'
p131
tp132
Rp133
ag133
ag50
(g128
S'\x00'
p134
tp135
Rp136
ag133
ag133
ag133
ag133
ag133
ag133
ag136
ag133
ag133
asaa(lp137
S'index'
p138
aI93806
aatp139
Rp140
.