ccollections
OrderedDict
p0
((lp1
(lp2
S'combination_dict'
p3
ag0
((lp4
(lp5
S'r_to_g_config'
p6
aS'br'
p7
aa(lp8
S'num_turns'
p9
aI1
aa(lp10
S'start_direction'
p11
acutils_ms
StartDirection
p12
(I1
tp13
Rp14
aa(lp15
S'assistance_type'
p16
acutils_ms
AssistanceType
p17
(I1
tp18
Rp19
aa(lp20
S'start_mode'
p21
aS't'
p22
aa(lp23
S'ui_given_a_noise'
p24
aF0.3
aa(lp25
S'um_given_ui_noise'
p26
aF0.7
aa(lp27
S'entropy_threshold'
p28
aF0.6
aatp29
Rp30
aa(lp31
S'data'
p32
accollections
defaultdict
p33
(c__builtin__
list
p34
tp35
Rp36
S'a'
p37
(lp38
S'mode_l'
p39
ag39
aS'mode_r'
p40
aS'move_n'
p41
ag40
aS'move_p'
p42
ag40
ag42
ag39
ag39
ag40
ag42
asS'assistance_match_with_ground_truth'
p43
(lp44
I00
aI00
aI01
aI01
aI01
aI01
aI01
aI00
aI00
aI00
aI01
aI01
asS'is_u_intended_equals_um'
p45
(lp46
I00
aI00
aI01
aI00
aI00
aI01
aI01
aI00
aI00
aI00
aI01
aI01
asS'total_steps'
p47
I12
sS'normalized_h_of_p_ui_given_um'
p48
(lp49
cnumpy.core.multiarray
scalar
p50
(cnumpy
dtype
p51
(S'f8'
p52
I0
I1
tp53
Rp54
(I3
S'<'
p55
NNNI-1
I-1
I0
tp56
bS'\xea\xd1kvz\x80\xed?'
p57
tp58
Rp59
ag50
(g54
S'\xd9\xe9\xeb(\xdf\xeb\xe6?'
p60
tp61
Rp62
ag50
(g54
S'N-\x9a\xb0rV\xcd?'
p63
tp64
Rp65
ag50
(g54
S'ti\xed7\xec\x8c\xdd?'
p66
tp67
Rp68
ag50
(g54
S'\x16k\xeel~\x02\xe0?'
p69
tp70
Rp71
ag50
(g54
S'\xf2Z*\xdag$\xd5?'
p72
tp73
Rp74
ag50
(g54
S'N-\x9a\xb0rV\xcd?'
p75
tp76
Rp77
ag50
(g54
S'P\x1b\xd2\x83\xb9\x9f\xe7?'
p78
tp79
Rp80
ag50
(g54
S'\xea\xd1kvz\x80\xed?'
p81
tp82
Rp83
ag50
(g54
S'\xd9\xe9\xeb(\xdf\xeb\xe6?'
p84
tp85
Rp86
ag50
(g54
S'N-\x9a\xb0rV\xcd?'
p87
tp88
Rp89
ag50
(g54
S'\xf2Z*\xdag$\xd5?'
p90
tp91
Rp92
asS'sp'
p93
(lp94
(S'p0'
p95
I0
S't'
p96
tp97
a(g95
I0
S'x'
p98
tp99
a(g95
I0
S'y'
p100
tp101
a(S'p1'
p102
I0
g100
tp103
a(g102
I0
g96
tp104
a(g102
F1.5707963267948966
g96
tp105
a(g102
F1.5707963267948966
g98
tp106
a(g102
F1.5707963267948966
g100
tp107
a(g102
F1.5707963267948966
g100
tp108
a(g102
F1.5707963267948966
g96
tp109
ag106
a(S'p2'
p110
F1.5707963267948966
g98
tp111
asS's'
p112
(lp113
(g95
I0
g22
tp114
ag97
ag99
ag101
ag103
ag104
ag105
ag106
ag107
ag108
ag109
ag106
asS'ui'
p115
(lp116
g93
aS'hs'
p117
aS'hp'
p118
aS'ss'
p119
ag119
ag93
ag118
ag93
ag117
ag117
ag118
ag93
asS'um_before'
p120
(lp121
g119
ag118
ag118
ag117
ag119
ag93
ag118
ag118
ag119
ag118
ag118
ag93
asS'um_after'
p122
(lp123
g119
ag118
ag118
ag119
ag118
ag93
ag118
ag118
ag119
ag118
ag118
ag93
asS'is_normalized_entropy_less_than_threshold'
p124
(lp125
g50
(g51
(S'b1'
p126
I0
I1
tp127
Rp128
(I3
S'|'
p129
NNNI-1
I-1
I0
tp130
bS'\x00'
p131
tp132
Rp133
ag133
ag50
(g128
S'\x01'
p134
tp135
Rp136
ag136
ag136
ag136
ag136
ag133
ag133
ag133
ag136
ag136
asaa(lp137
S'index'
p138
aI93965
aatp139
Rp140
.