ccollections
OrderedDict
p0
((lp1
(lp2
S'combination_dict'
p3
ag0
((lp4
(lp5
S'r_to_g_config'
p6
aS'tr'
p7
aa(lp8
S'num_turns'
p9
aI3
aa(lp10
S'start_direction'
p11
acutils_ms
StartDirection
p12
(I0
tp13
Rp14
aa(lp15
S'assistance_type'
p16
acutils_ms
AssistanceType
p17
(I1
tp18
Rp19
aa(lp20
S'start_mode'
p21
aS't'
p22
aa(lp23
S'ui_given_a_noise'
p24
aF0.5
aa(lp25
S'um_given_ui_noise'
p26
aF0.5
aa(lp27
S'entropy_threshold'
p28
aF0.8
aatp29
Rp30
aa(lp31
S'data'
p32
accollections
defaultdict
p33
(c__builtin__
list
p34
tp35
Rp36
S'a'
p37
(lp38
S'mode_r'
p39
aS'move_p'
p40
aS'mode_l'
p41
ag39
ag39
ag40
ag41
ag40
ag41
ag39
ag41
ag40
ag39
ag40
ag41
ag40
ag41
ag41
ag41
ag39
ag41
ag40
ag41
ag40
ag41
ag40
asS'assistance_match_with_ground_truth'
p42
(lp43
I01
aI00
aI00
aI00
aI01
aI00
aI01
aI00
aI00
aI00
aI01
aI01
aI01
aI00
aI01
aI01
aI00
aI00
aI00
aI00
aI01
aI01
aI01
aI01
aI01
aI01
asS'is_u_intended_equals_um'
p44
(lp45
I01
aI01
aI01
aI01
aI01
aI01
aI01
aI01
aI01
aI01
aI01
aI00
aI01
aI01
aI00
aI01
aI01
aI01
aI01
aI01
aI01
aI00
aI00
aI01
aI01
aI00
asS'total_steps'
p46
I26
sS'normalized_h_of_p_ui_given_um'
p47
(lp48
cnumpy.core.multiarray
scalar
p49
(cnumpy
dtype
p50
(S'f8'
p51
I0
I1
tp52
Rp53
(I3
S'<'
p54
NNNI-1
I-1
I0
tp55
bS'S\xc3\xf9\xe6\x1f\\\xd9?'
p56
tp57
Rp58
ag49
(g53
S'\xe8I\x98\xd8:o\xe4?'
p59
tp60
Rp61
ag49
(g53
S'O\x1e\xeb\x1d\x17\xfa\xeb?'
p62
tp63
Rp64
ag49
(g53
S'\xb8\xd59\xd2\x1a_\xe7?'
p65
tp66
Rp67
ag49
(g53
S'S\xc3\xf9\xe6\x1f\\\xd9?'
p68
tp69
Rp70
ag49
(g53
S'\xe8I\x98\xd8:o\xe4?'
p71
tp72
Rp73
ag49
(g53
S'0\x03\x8f~k\xce\xd9?'
p74
tp75
Rp76
ag49
(g53
S'\xe8I\x98\xd8:o\xe4?'
p77
tp78
Rp79
ag49
(g53
S'O\x1e\xeb\x1d\x17\xfa\xeb?'
p80
tp81
Rp82
ag49
(g53
S'\x8e\x98\xdb\xf3d2\xe6?'
p83
tp84
Rp85
ag49
(g53
S'0\x03\x8f~k\xce\xd9?'
p86
tp87
Rp88
ag49
(g53
S'\xda\x19O\xb9`W\xe9?'
p89
tp90
Rp91
ag49
(g53
S'S\xc3\xf9\xe6\x1f\\\xd9?'
p92
tp93
Rp94
ag49
(g53
S'\xe8I\x98\xd8:o\xe4?'
p95
tp96
Rp97
ag49
(g53
S'\x14N\xc4c8\x88\xe9?'
p98
tp99
Rp100
ag49
(g53
S'\x12\xa5\xd6\xb0\xe6\r\xc3?'
p101
tp102
Rp103
ag49
(g53
S'\xc4\xc3"K{\xdf\xe4?'
p104
tp105
Rp106
ag49
(g53
S'\xc4\xc3"K{\xdf\xe4?'
p107
tp108
Rp109
ag49
(g53
S'O\x1e\xeb\x1d\x17\xfa\xeb?'
p110
tp111
Rp112
ag49
(g53
S'\x8e\x98\xdb\xf3d2\xe6?'
p113
tp114
Rp115
ag49
(g53
S'0\x03\x8f~k\xce\xd9?'
p116
tp117
Rp118
ag49
(g53
S'\xda\x19O\xb9`W\xe9?'
p119
tp120
Rp121
ag49
(g53
S'\x14N\xc4c8\x88\xe9?'
p122
tp123
Rp124
ag49
(g53
S'\x12\xa5\xd6\xb0\xe6\r\xc3?'
p125
tp126
Rp127
ag49
(g53
S'0\x03\x8f~k\xce\xd9?'
p128
tp129
Rp130
ag49
(g53
S'\xda\x19O\xb9`W\xe9?'
p131
tp132
Rp133
asS'sp'
p134
(lp135
(S'p0'
p136
I0
S'x'
p137
tp138
a(g136
I0
S'y'
p139
tp140
a(g136
I0
S't'
p141
tp142
a(g136
I0
g141
tp143
ag138
ag140
a(g136
I0
g137
tp144
ag140
ag142
a(g136
I0
g139
tp145
ag144
a(S'p1'
p146
I0
g137
tp147
a(g146
I0
g139
tp148
a(g146
I0
g141
tp149
a(g146
I0
g139
tp150
a(S'p2'
p151
I0
g139
tp152
a(g151
I0
g139
tp153
ag153
a(g151
I0
g141
tp154
a(g151
I0
g139
tp155
a(g151
I0
g137
tp156
a(S'p3'
p157
I0
g137
tp158
a(g157
I0
g141
tp159
a(g157
F1.5707963267948966
g141
tp160
a(g157
F1.5707963267948966
g139
tp161
a(S'p4'
p162
F1.5707963267948966
g139
tp163
asS's'
p164
(lp165
(g136
I0
g22
tp166
ag138
ag140
ag142
ag143
ag138
ag140
ag144
ag140
ag142
ag145
ag144
ag147
ag148
ag149
ag150
ag152
ag153
ag153
ag154
ag155
ag156
ag158
ag159
ag160
ag161
asS'ui'
p167
(lp168
S'hp'
p169
ag134
ag169
aS'hs'
p170
ag169
ag169
aS'ss'
p171
ag169
ag170
ag169
ag170
ag134
ag169
ag169
ag170
ag134
ag134
ag169
ag169
ag170
ag170
ag134
ag170
ag134
ag171
ag134
asS'um_before'
p172
(lp173
g169
ag169
ag169
ag134
ag169
ag169
ag170
ag169
ag169
ag170
ag170
ag170
ag169
ag169
ag171
ag134
ag134
ag134
ag169
ag170
ag170
ag170
ag171
ag134
ag170
ag170
asS'um_after'
p174
(lp175
g169
ag169
ag169
ag134
ag169
ag169
ag170
ag169
ag169
ag170
ag170
ag134
ag169
ag169
ag170
ag134
ag134
ag134
ag169
ag170
ag170
ag134
ag170
ag134
ag170
ag134
asS'is_normalized_entropy_less_than_threshold'
p176
(lp177
g49
(g50
(S'b1'
p178
I0
I1
tp179
Rp180
(I3
S'|'
p181
NNNI-1
I-1
I0
tp182
bS'\x01'
p183
tp184
Rp185
ag185
ag49
(g180
S'\x00'
p186
tp187
Rp188
ag185
ag185
ag185
ag185
ag185
ag188
ag185
ag185
ag185
ag185
ag185
ag185
ag185
ag185
ag185
ag188
ag185
ag185
ag185
ag185
ag185
ag185
ag185
asaa(lp189
S'index'
p190
aI21334
aatp191
Rp192
.