ccollections
OrderedDict
p0
((lp1
(lp2
S'combination_dict'
p3
ag0
((lp4
(lp5
S'r_to_g_config'
p6
aS'bl'
p7
aa(lp8
S'num_turns'
p9
aI3
aa(lp10
S'start_direction'
p11
acutils_ms
StartDirection
p12
(I1
tp13
Rp14
aa(lp15
S'assistance_type'
p16
acutils_ms
AssistanceType
p17
(I0
tp18
Rp19
aa(lp20
S'start_mode'
p21
aS'x'
p22
aa(lp23
S'ui_given_a_noise'
p24
aF0.3
aa(lp25
S'um_given_ui_noise'
p26
aF0.5
aa(lp27
S'entropy_threshold'
p28
aF0.5
aatp29
Rp30
aa(lp31
S'data'
p32
accollections
defaultdict
p33
(c__builtin__
list
p34
tp35
Rp36
S'a'
p37
(lp38
S'mode_r'
p39
ag39
aS'mode_l'
p40
ag39
aS'move_n'
p41
ag40
ag39
ag39
ag41
ag39
ag41
ag41
ag39
ag39
ag41
ag39
aS'move_p'
p42
ag39
ag42
ag39
ag40
ag40
ag40
ag41
asS'assistance_match_with_ground_truth'
p43
(lp44
I00
aI00
aI00
aI01
aI01
aI00
aI00
aI01
aI00
aI01
aI00
aI01
aI00
aI01
aI01
aI01
aI01
aI00
aI01
aI00
aI00
aI00
aI01
aI01
asS'is_u_intended_equals_um'
p45
(lp46
I00
aI01
aI00
aI01
aI01
aI00
aI00
aI01
aI01
aI01
aI00
aI01
aI00
aI01
aI01
aI01
aI01
aI00
aI01
aI01
aI00
aI00
aI01
aI01
asS'total_steps'
p47
I24
sS'normalized_h_of_p_ui_given_um'
p48
(lp49
cnumpy.core.multiarray
scalar
p50
(cnumpy
dtype
p51
(S'f8'
p52
I0
I1
tp53
Rp54
(I3
S'<'
p55
NNNI-1
I-1
I0
tp56
bS'=W\x0c\xde4\x19\xe8?'
p57
tp58
Rp59
ag50
(g54
S'\xa4)tgu\xf6\xea?'
p60
tp61
Rp62
ag50
(g54
S'\xfc$\x92\xdd\xa6\xcb\xe4?'
p63
tp64
Rp65
ag50
(g54
S'\xd8lUy\xf4\x92\xde?'
p66
tp67
Rp68
ag50
(g54
S'\x92\x82\xf5\x9fP\x9b\xd1?'
p69
tp70
Rp71
ag50
(g54
S'\xfc$\x92\xdd\xa6\xcb\xe4?'
p72
tp73
Rp74
ag50
(g54
S'=W\x0c\xde4\x19\xe8?'
p75
tp76
Rp77
ag50
(g54
S'\xd8lUy\xf4\x92\xde?'
p78
tp79
Rp80
ag50
(g54
S'R0\xca\xe1\xc5\xb8\xe3?'
p81
tp82
Rp83
ag50
(g54
S'\xd8lUy\xf4\x92\xde?'
p84
tp85
Rp86
ag50
(g54
S'\xf1b\x0e\xec\xa4n\xde?'
p87
tp88
Rp89
ag50
(g54
S'\x92\x82\xf5\x9fP\x9b\xd1?'
p90
tp91
Rp92
ag50
(g54
S'=W\x0c\xde4\x19\xe8?'
p93
tp94
Rp95
ag50
(g54
S'\xd8lUy\xf4\x92\xde?'
p96
tp97
Rp98
ag50
(g54
S'\x92\x82\xf5\x9fP\x9b\xd1?'
p99
tp100
Rp101
ag50
(g54
S'\xd8lUy\xf4\x92\xde?'
p102
tp103
Rp104
ag50
(g54
S'\xdbY\x85\x8d\xe7\x9d\xc2?'
p105
tp106
Rp107
ag50
(g54
S'=W\x0c\xde4\x19\xe8?'
p108
tp109
Rp110
ag50
(g54
S'\xdbY\x85\x8d\xe7\x9d\xc2?'
p111
tp112
Rp113
ag50
(g54
S'\xa4)tgu\xf6\xea?'
p114
tp115
Rp116
ag50
(g54
S'\xdf\x8e\rpt\xaf\xe4?'
p117
tp118
Rp119
ag50
(g54
S'\x16p\x10\x17\x92[\xeb?'
p120
tp121
Rp122
ag50
(g54
S"\x1e'gd5~\xd2?"
p123
tp124
Rp125
ag50
(g54
S'\x92\x82\xf5\x9fP\x9b\xd1?'
p126
tp127
Rp128
asS'sp'
p129
(lp130
(S'p0'
p131
I0
S'x'
p132
tp133
a(g131
I0
S't'
p134
tp135
a(g131
I0
g132
tp136
a(g131
I0
S'y'
p137
tp138
a(S'p1'
p139
I0
g137
tp140
a(g139
I0
g134
tp141
a(g139
I0
g134
tp142
a(g139
I0
g132
tp143
a(g139
I0
g134
tp144
ag143
ag143
a(S'p2'
p145
I0
g132
tp146
a(g145
I0
g132
tp147
a(g145
I0
g137
tp148
a(S'p3'
p149
I0
g137
tp150
a(g149
I0
g134
tp151
a(g149
F1.5707963267948966
g134
tp152
a(g149
I0
g134
tp153
ag152
a(g149
F1.5707963267948966
g137
tp154
a(g149
F1.5707963267948966
g137
tp155
a(g149
F1.5707963267948966
g137
tp156
a(g149
F1.5707963267948966
g132
tp157
a(S'p4'
p158
F1.5707963267948966
g132
tp159
asS's'
p160
(lp161
(g131
I0
g22
tp162
ag133
ag135
ag136
ag138
ag140
ag141
ag142
ag143
ag144
ag143
ag143
ag146
ag147
ag148
ag150
ag151
ag152
ag153
ag152
ag154
ag155
ag156
ag157
asS'ui'
p163
(lp164
S'hp'
p165
ag129
aS'hs'
p166
ag165
aS'ss'
p167
ag166
ag165
ag165
ag167
ag165
ag167
ag167
ag166
ag165
ag167
ag165
ag129
ag165
ag129
ag166
ag129
ag165
ag166
ag166
asS'um_before'
p168
(lp169
g167
ag166
ag165
ag165
ag167
ag165
ag167
ag165
ag166
ag165
ag165
ag167
ag167
ag165
ag167
ag165
ag129
ag167
ag129
ag166
ag129
ag167
ag166
ag167
asS'um_after'
p170
(lp171
g167
ag166
ag165
ag165
ag167
ag165
ag167
ag165
ag166
ag165
aNag167
ag167
ag165
ag167
ag165
ag129
ag167
ag129
ag166
ag129
ag167
ag166
ag167
asS'is_normalized_entropy_less_than_threshold'
p172
(lp173
g50
(g51
(S'b1'
p174
I0
I1
tp175
Rp176
(I3
S'|'
p177
NNNI-1
I-1
I0
tp178
bS'\x00'
p179
tp180
Rp181
ag181
ag181
ag50
(g176
S'\x01'
p182
tp183
Rp184
ag184
ag181
ag181
ag184
ag181
ag184
ag184
ag184
ag181
ag184
ag184
ag184
ag184
ag181
ag184
ag181
ag181
ag181
ag184
ag184
asaa(lp185
S'index'
p186
aI81905
aatp187
Rp188
.