ccollections
OrderedDict
p0
((lp1
(lp2
S'combination_dict'
p3
ag0
((lp4
(lp5
S'r_to_g_config'
p6
aS'tl'
p7
aa(lp8
S'num_turns'
p9
aI3
aa(lp10
S'start_direction'
p11
acutils_ms
StartDirection
p12
(I1
tp13
Rp14
aa(lp15
S'assistance_type'
p16
acutils_ms
AssistanceType
p17
(I0
tp18
Rp19
aa(lp20
S'start_mode'
p21
aS'x'
p22
aa(lp23
S'ui_given_a_noise'
p24
aF0.7
aa(lp25
S'um_given_ui_noise'
p26
aF0.5
aa(lp27
S'entropy_threshold'
p28
aF0.6
aatp29
Rp30
aa(lp31
S'data'
p32
accollections
defaultdict
p33
(c__builtin__
list
p34
tp35
Rp36
S'a'
p37
(lp38
S'mode_r'
p39
aS'move_p'
p40
aS'mode_l'
p41
ag41
ag41
ag41
ag40
ag39
ag40
ag40
ag41
ag40
ag41
aS'move_n'
p42
ag39
ag41
ag41
ag41
ag40
ag39
ag40
ag41
ag42
ag39
ag40
ag39
ag40
ag41
ag41
ag42
ag39
ag39
ag39
ag41
ag41
ag41
ag41
ag41
ag41
ag41
ag41
ag41
ag41
ag40
ag41
ag41
ag41
ag42
ag39
ag39
ag39
ag42
ag39
ag42
ag41
ag42
ag41
ag41
ag41
ag42
ag39
ag39
ag41
ag40
ag41
ag41
ag42
ag39
ag39
ag41
ag40
ag41
ag42
ag41
ag41
ag42
ag39
ag39
ag41
ag41
ag42
ag39
ag39
ag41
ag41
ag40
ag41
ag41
ag42
ag39
ag42
ag41
ag42
ag39
ag39
ag41
ag41
ag41
ag40
ag39
ag40
ag39
ag39
ag41
ag42
ag39
ag42
ag39
ag41
ag40
ag41
ag41
ag42
asS'assistance_match_with_ground_truth'
p43
(lp44
I01
aI00
aI00
aI00
aI00
aI01
aI00
aI01
aI00
aI00
aI01
aI01
aI01
aI01
aI00
aI00
aI00
aI01
aI00
aI01
aI00
aI01
aI01
aI01
aI00
aI01
aI00
aI00
aI01
aI00
aI00
aI00
aI00
aI00
aI00
aI00
aI00
aI00
aI00
aI00
aI00
aI00
aI01
aI01
aI00
aI00
aI01
aI00
aI00
aI00
aI01
aI00
aI01
aI00
aI01
aI00
aI00
aI00
aI01
aI01
aI00
aI00
aI01
aI00
aI00
aI01
aI00
aI00
aI00
aI01
aI01
aI01
aI00
aI00
aI01
aI00
aI00
aI00
aI00
aI01
aI00
aI00
aI00
aI00
aI01
aI01
aI00
aI01
aI00
aI01
aI00
aI01
aI01
aI00
aI00
aI00
aI00
aI01
aI01
aI01
aI01
aI00
aI00
aI01
aI00
aI01
aI00
aI00
aI01
aI01
aI00
aI01
aI01
asS'is_u_intended_equals_um'
p45
(lp46
I01
aI00
aI00
aI00
aI00
aI01
aI00
aI01
aI00
aI00
aI01
aI01
aI01
aI01
aI01
aI01
aI00
aI01
aI00
aI01
aI00
aI01
aI01
aI01
aI00
aI01
aI00
aI00
aI01
aI01
aI01
aI01
aI01
aI01
aI00
aI00
aI00
aI01
aI00
aI01
aI01
aI00
aI01
aI01
aI00
aI00
aI01
aI01
aI01
aI01
aI01
aI01
aI01
aI01
aI01
aI01
aI00
aI00
aI01
aI01
aI01
aI01
aI01
aI00
aI01
aI01
aI01
aI01
aI01
aI01
aI01
aI01
aI01
aI00
aI01
aI01
aI01
aI01
aI00
aI01
aI01
aI01
aI01
aI01
aI01
aI01
aI00
aI01
aI01
aI01
aI01
aI01
aI01
aI01
aI01
aI00
aI00
aI01
aI01
aI01
aI01
aI01
aI01
aI01
aI01
aI01
aI01
aI01
aI01
aI01
aI00
aI01
aI01
asS'total_steps'
p47
I113
sS'normalized_h_of_p_ui_given_um'
p48
(lp49
cnumpy.core.multiarray
scalar
p50
(cnumpy
dtype
p51
(S'f8'
p52
I0
I1
tp53
Rp54
(I3
S'<'
p55
NNNI-1
I-1
I0
tp56
bS'\x91OUu^\x1d\xe9?'
p57
tp58
Rp59
ag50
(g54
S'\xe5\xcb\xce[\x9av\xe7?'
p60
tp61
Rp62
ag50
(g54
S'\x8c\x15\xf4\xac\x0e\xf9\xe9?'
p63
tp64
Rp65
ag50
(g54
S'\xcc\xcb\x08\xddo\xfb\xe1?'
p66
tp67
Rp68
ag50
(g54
S'\xcc\xcb\x08\xddo\xfb\xe1?'
p69
tp70
Rp71
ag50
(g54
S'\xbe\x94l^=2\xd3?'
p72
tp73
Rp74
ag50
(g54
S'\x8b\x81\x06/\xd0w\xe3?'
p75
tp76
Rp77
ag50
(g54
S'\x91OUu^\x1d\xe9?'
p78
tp79
Rp80
ag50
(g54
S'Z\xa3!u\x84\xd1\xe8?'
p81
tp82
Rp83
ag50
(g54
S'\xe5\xcb\xce[\x9av\xe7?'
p84
tp85
Rp86
ag50
(g54
S'\xbe\x94l^=2\xd3?'
p87
tp88
Rp89
ag50
(g54
S'\x95^\xd4\xa6\x19\x84\xd0?'
p90
tp91
Rp92
ag50
(g54
S'\xbe\x94l^=2\xd3?'
p93
tp94
Rp95
ag50
(g54
S'z\xe76X\xe8{\xe1?'
p96
tp97
Rp98
ag50
(g54
S'\xfey\x19\xb5\x1e|\xec?'
p99
tp100
Rp101
ag50
(g54
S'd\xc9\x95\xf9\xec\n\xd9?'
p102
tp103
Rp104
ag50
(g54
S'\xcc\xcb\x08\xddo\xfb\xe1?'
p105
tp106
Rp107
ag50
(g54
S'\xbe\x94l^=2\xd3?'
p108
tp109
Rp110
ag50
(g54
S'\x8b\x81\x06/\xd0w\xe3?'
p111
tp112
Rp113
ag50
(g54
S'\x91OUu^\x1d\xe9?'
p114
tp115
Rp116
ag50
(g54
S'Z\xa3!u\x84\xd1\xe8?'
p117
tp118
Rp119
ag50
(g54
S'\xbe\x94l^=2\xd3?'
p120
tp121
Rp122
ag50
(g54
S'z\xe76X\xe8{\xe1?'
p123
tp124
Rp125
ag50
(g54
S'\x91OUu^\x1d\xe9?'
p126
tp127
Rp128
ag50
(g54
S'\x8b\x81\x06/\xd0w\xe3?'
p129
tp130
Rp131
ag50
(g54
S'\x91OUu^\x1d\xe9?'
p132
tp133
Rp134
ag50
(g54
S'Z\xa3!u\x84\xd1\xe8?'
p135
tp136
Rp137
ag50
(g54
S'\xcc\xcb\x08\xddo\xfb\xe1?'
p138
tp139
Rp140
ag50
(g54
S'\xbe\x94l^=2\xd3?'
p141
tp142
Rp143
ag50
(g54
S'\x81U\x03\xfe\xe5>\xea?'
p144
tp145
Rp146
ag50
(g54
S'\x8e^4\xa7w\xf3\xe6?'
p147
tp148
Rp149
ag50
(g54
S'\xf4^\x07\x8a\n\xf6\xe7?'
p150
tp151
Rp152
ag50
(g54
S'\xfey\x19\xb5\x1e|\xec?'
p153
tp154
Rp155
ag50
(g54
S'd\xc9\x95\xf9\xec\n\xd9?'
p156
tp157
Rp158
ag50
(g54
S'\xcc\xcb\x08\xddo\xfb\xe1?'
p159
tp160
Rp161
ag50
(g54
S'\xcc\xcb\x08\xddo\xfb\xe1?'
p162
tp163
Rp164
ag50
(g54
S'\xcc\xcb\x08\xddo\xfb\xe1?'
p165
tp166
Rp167
ag50
(g54
S'd\xc9\x95\xf9\xec\n\xd9?'
p168
tp169
Rp170
ag50
(g54
S'\xcc\xcb\x08\xddo\xfb\xe1?'
p171
tp172
Rp173
ag50
(g54
S'd\xc9\x95\xf9\xec\n\xd9?'
p174
tp175
Rp176
ag50
(g54
S'd\xc9\x95\xf9\xec\n\xd9?'
p177
tp178
Rp179
ag50
(g54
S'\xcc\xcb\x08\xddo\xfb\xe1?'
p180
tp181
Rp182
ag50
(g54
S'\xbe\x94l^=2\xd3?'
p183
tp184
Rp185
ag50
(g54
S'\x95^\xd4\xa6\x19\x84\xd0?'
p186
tp187
Rp188
ag50
(g54
S'\xcc\xcb\x08\xddo\xfb\xe1?'
p189
tp190
Rp191
ag50
(g54
S'\x8c\x15\xf4\xac\x0e\xf9\xe9?'
p192
tp193
Rp194
ag50
(g54
S'\xbe\x94l^=2\xd3?'
p195
tp196
Rp197
ag50
(g54
S'\xccQ\x1d\xae\xa0\x02\xea?'
p198
tp199
Rp200
ag50
(g54
S'\x8e^4\xa7w\xf3\xe6?'
p201
tp202
Rp203
ag50
(g54
S'\x8e^4\xa7w\xf3\xe6?'
p204
tp205
Rp206
ag50
(g54
S'\x91OUu^\x1d\xe9?'
p207
tp208
Rp209
ag50
(g54
S'\xccQ\x1d\xae\xa0\x02\xea?'
p210
tp211
Rp212
ag50
(g54
S'\x91OUu^\x1d\xe9?'
p213
tp214
Rp215
ag50
(g54
S'L^_4ov\xed?'
p216
tp217
Rp218
ag50
(g54
S'\xbe\x94l^=2\xd3?'
p219
tp220
Rp221
ag50
(g54
S'L^_4ov\xed?'
p222
tp223
Rp224
ag50
(g54
S'\xcc\xcb\x08\xddo\xfb\xe1?'
p225
tp226
Rp227
ag50
(g54
S'\xcc\xcb\x08\xddo\xfb\xe1?'
p228
tp229
Rp230
ag50
(g54
S'\xbe\x94l^=2\xd3?'
p231
tp232
Rp233
ag50
(g54
S'z\xe76X\xe8{\xe1?'
p234
tp235
Rp236
ag50
(g54
S'\x8e^4\xa7w\xf3\xe6?'
p237
tp238
Rp239
ag50
(g54
S'\xfey\x19\xb5\x1e|\xec?'
p240
tp241
Rp242
ag50
(g54
S'\xbe\x94l^=2\xd3?'
p243
tp244
Rp245
ag50
(g54
S'Z\xa3!u\x84\xd1\xe8?'
p246
tp247
Rp248
ag50
(g54
S'd\xc9\x95\xf9\xec\n\xd9?'
p249
tp250
Rp251
ag50
(g54
S'\xbe\x94l^=2\xd3?'
p252
tp253
Rp254
ag50
(g54
S'\x81U\x03\xfe\xe5>\xea?'
p255
tp256
Rp257
ag50
(g54
S'\x8e^4\xa7w\xf3\xe6?'
p258
tp259
Rp260
ag50
(g54
S'\xfey\x19\xb5\x1e|\xec?'
p261
tp262
Rp263
ag50
(g54
S'\xbe\x94l^=2\xd3?'
p264
tp265
Rp266
ag50
(g54
S'\x95^\xd4\xa6\x19\x84\xd0?'
p267
tp268
Rp269
ag50
(g54
S'\xbe\x94l^=2\xd3?'
p270
tp271
Rp272
ag50
(g54
S'L^_4ov\xed?'
p273
tp274
Rp275
ag50
(g54
S'\xcc\xcb\x08\xddo\xfb\xe1?'
p276
tp277
Rp278
ag50
(g54
S'\xbe\x94l^=2\xd3?'
p279
tp280
Rp281
ag50
(g54
S'\xccQ\x1d\xae\xa0\x02\xea?'
p282
tp283
Rp284
ag50
(g54
S'\x8e^4\xa7w\xf3\xe6?'
p285
tp286
Rp287
ag50
(g54
S'\xfey\x19\xb5\x1e|\xec?'
p288
tp289
Rp290
ag50
(g54
S'\xcc\xcb\x08\xddo\xfb\xe1?'
p291
tp292
Rp293
ag50
(g54
S'\xbe\x94l^=2\xd3?'
p294
tp295
Rp296
ag50
(g54
S'\x81U\x03\xfe\xe5>\xea?'
p297
tp298
Rp299
ag50
(g54
S'\x8e^4\xa7w\xf3\xe6?'
p300
tp301
Rp302
ag50
(g54
S'\xfey\x19\xb5\x1e|\xec?'
p303
tp304
Rp305
ag50
(g54
S'd\xc9\x95\xf9\xec\n\xd9?'
p306
tp307
Rp308
ag50
(g54
S'\xbe\x94l^=2\xd3?'
p309
tp310
Rp311
ag50
(g54
S'\x95^\xd4\xa6\x19\x84\xd0?'
p312
tp313
Rp314
ag50
(g54
S'\xcc\xcb\x08\xddo\xfb\xe1?'
p315
tp316
Rp317
ag50
(g54
S'\xbe\x94l^=2\xd3?'
p318
tp319
Rp320
ag50
(g54
S'\xccQ\x1d\xae\xa0\x02\xea?'
p321
tp322
Rp323
ag50
(g54
S'\x91OUu^\x1d\xe9?'
p324
tp325
Rp326
ag50
(g54
S'L^_4ov\xed?'
p327
tp328
Rp329
ag50
(g54
S'\xbe\x94l^=2\xd3?'
p330
tp331
Rp332
ag50
(g54
S'z\xe76X\xe8{\xe1?'
p333
tp334
Rp335
ag50
(g54
S'\xf4^\x07\x8a\n\xf6\xe7?'
p336
tp337
Rp338
ag50
(g54
S'\xfey\x19\xb5\x1e|\xec?'
p339
tp340
Rp341
ag50
(g54
S'\xcc\xcb\x08\xddo\xfb\xe1?'
p342
tp343
Rp344
ag50
(g54
S'\xcc\xcb\x08\xddo\xfb\xe1?'
p345
tp346
Rp347
ag50
(g54
S'\xbe\x94l^=2\xd3?'
p348
tp349
Rp350
ag50
(g54
S'\x95^\xd4\xa6\x19\x84\xd0?'
p351
tp352
Rp353
ag50
(g54
S'\x91OUu^\x1d\xe9?'
p354
tp355
Rp356
ag50
(g54
S'\x95^\xd4\xa6\x19\x84\xd0?'
p357
tp358
Rp359
ag50
(g54
S'\x8e^4\xa7w\xf3\xe6?'
p360
tp361
Rp362
ag50
(g54
S'\xfey\x19\xb5\x1e|\xec?'
p363
tp364
Rp365
ag50
(g54
S'\xbe\x94l^=2\xd3?'
p366
tp367
Rp368
ag50
(g54
S'\xccQ\x1d\xae\xa0\x02\xea?'
p369
tp370
Rp371
ag50
(g54
S'\x91OUu^\x1d\xe9?'
p372
tp373
Rp374
ag50
(g54
S'\x81U\x03\xfe\xe5>\xea?'
p375
tp376
Rp377
ag50
(g54
S'\xfey\x19\xb5\x1e|\xec?'
p378
tp379
Rp380
ag50
(g54
S'\xbe\x94l^=2\xd3?'
p381
tp382
Rp383
ag50
(g54
S'\x95^\xd4\xa6\x19\x84\xd0?'
p384
tp385
Rp386
ag50
(g54
S'\xcc\xcb\x08\xddo\xfb\xe1?'
p387
tp388
Rp389
ag50
(g54
S'\xbe\x94l^=2\xd3?'
p390
tp391
Rp392
ag50
(g54
S'z\xe76X\xe8{\xe1?'
p393
tp394
Rp395
asS'sp'
p396
(lp397
(S'p0'
p398
I0
S'y'
p399
tp400
a(g398
I0
S't'
p401
tp402
a(g398
I0
g401
tp403
ag403
ag403
a(g398
I0
g399
tp404
a(g398
I0
S'x'
p405
tp406
ag400
a(g398
I0
g399
tp407
ag402
ag404
a(S'p1'
p408
I0
g399
tp409
a(g408
I0
g405
tp410
a(S'p2'
p411
I0
g405
tp412
a(g411
I0
g401
tp413
a(g411
I0
g401
tp414
ag414
a(g411
I0
g399
tp415
a(g411
I0
g405
tp416
a(g411
I0
g399
tp417
a(g408
I0
g399
tp418
ag410
ag412
ag417
ag416
ag417
ag418
ag418
ag410
a(g398
I0
g405
tp419
a(g398
I0
g405
tp420
a(g398
I0
g405
tp421
a(g398
I0
g401
tp422
a(g398
I0
g401
tp423
ag423
ag423
ag423
ag423
ag423
ag423
ag423
ag423
ag404
ag409
ag409
a(g408
I0
g399
tp424
ag410
a(g408
I0
g401
tp425
a(g408
I0
g401
tp426
ag426
a(g408
I0
g405
tp427
ag425
ag427
a(g408
I0
g399
tp428
ag410
ag428
ag428
ag428
ag410
ag412
a(g411
I0
g405
tp429
ag413
ag415
ag418
a(g408
I0
g399
tp430
ag410
ag419
ag420
ag422
ag404
ag409
ag410
ag428
ag428
ag410
ag425
ag426
a(g408
I0
g399
tp431
ag431
ag410
ag419
ag420
ag422
ag423
ag404
ag409
ag409
ag410
ag425
ag427
ag428
ag410
ag412
a(g411
I0
g405
tp432
ag413
ag413
ag413
ag415
a(S'p3'
p433
I0
g399
tp434
a(g433
I0
g401
tp435
a(g433
F1.5707963267948966
g401
tp436
a(g433
F1.5707963267948966
g401
tp437
a(g433
F1.5707963267948966
g399
tp438
a(g433
F1.5707963267948966
g405
tp439
a(g433
F1.5707963267948966
g401
tp440
a(g433
F1.5707963267948966
g405
tp441
a(g411
F1.5707963267948966
g405
tp442
a(g411
F1.5707963267948966
g401
tp443
a(g411
F1.5707963267948966
g399
tp444
a(g433
F1.5707963267948966
g399
tp445
ag445
ag439
a(S'p4'
p446
F1.5707963267948966
g405
tp447
asS's'
p448
(lp449
(g398
I0
g22
tp450
ag400
ag402
ag403
ag403
ag403
ag404
ag406
ag400
ag407
ag402
ag404
ag409
ag410
ag412
ag413
ag414
ag414
ag415
ag416
ag417
ag418
ag410
ag412
ag417
ag416
ag417
ag418
ag418
ag410
ag419
ag420
ag421
ag422
ag423
ag423
ag423
ag423
ag423
ag423
ag423
ag423
ag423
ag404
ag409
ag409
ag424
ag410
ag425
ag426
ag426
ag427
ag425
ag427
ag428
ag410
ag428
ag428
ag428
ag410
ag412
ag429
ag413
ag415
ag418
ag430
ag410
ag419
ag420
ag422
ag404
ag409
ag410
ag428
ag428
ag410
ag425
ag426
ag431
ag431
ag410
ag419
ag420
ag422
ag423
ag404
ag409
ag409
ag410
ag425
ag427
ag428
ag410
ag412
ag432
ag413
ag413
ag413
ag415
ag434
ag435
ag436
ag437
ag438
ag439
ag440
ag441
ag442
ag443
ag444
ag445
ag445
ag439
asS'ui'
p451
(lp452
S'hs'
p453
ag396
ag453
ag453
ag453
ag453
ag396
ag453
ag396
ag396
ag453
ag396
ag453
aS'ss'
p454
ag454
ag396
ag396
ag453
ag396
ag396
aS'hp'
p455
ag453
ag454
ag453
ag396
ag454
ag454
ag453
ag396
ag396
ag396
ag455
ag396
ag455
ag453
ag453
ag455
ag396
ag453
ag396
ag396
ag453
ag453
ag396
ag396
ag455
ag396
ag453
ag396
ag455
ag455
ag453
ag455
ag455
ag453
ag453
ag396
ag453
ag453
ag454
ag455
ag453
ag453
ag454
ag396
ag453
ag454
ag396
ag455
ag453
ag396
ag453
ag454
ag453
ag453
ag453
ag396
ag396
ag453
ag453
ag396
ag455
ag453
ag396
ag453
ag396
ag453
ag453
ag453
ag455
ag455
ag453
ag454
ag455
ag455
ag453
ag453
ag453
ag396
ag455
ag396
ag396
ag455
ag453
ag453
ag396
ag455
ag454
ag453
ag396
ag453
ag396
ag454
asS'um_before'
p456
(lp457
g455
ag455
ag454
ag455
ag455
ag453
ag453
ag455
ag454
ag455
ag453
ag396
ag453
ag454
ag453
ag396
ag455
ag453
ag453
ag455
ag454
ag453
ag454
ag455
ag453
ag455
ag454
ag455
ag453
ag396
ag396
ag454
ag453
ag396
ag455
ag455
ag455
ag396
ag455
ag396
ag396
ag455
ag453
ag396
ag455
ag454
ag453
ag453
ag396
ag396
ag455
ag453
ag455
ag455
ag453
ag455
ag455
ag455
ag453
ag454
ag396
ag453
ag453
ag454
ag396
ag453
ag396
ag396
ag453
ag453
ag396
ag453
ag455
ag455
ag453
ag453
ag396
ag453
ag455
ag453
ag396
ag396
ag453
ag396
ag453
ag396
ag455
ag453
ag453
ag455
ag455
ag453
ag454
ag454
ag453
ag455
ag455
ag453
ag396
ag455
ag396
ag396
ag453
ag453
ag453
ag455
ag396
ag453
ag453
ag396
ag455
ag453
ag454
asS'um_after'
p458
(lp459
g455
ag455
ag454
aNaNag453
ag453
ag455
ag454
ag455
ag453
ag396
ag453
ag454
ag453
ag396
aNag453
ag453
ag455
ag454
ag453
ag454
ag455
ag453
ag455
ag454
aNag453
ag396
ag396
ag454
ag453
ag396
aNaNaNag396
aNag396
ag396
aNag453
ag396
aNag454
ag453
ag453
ag396
ag396
ag455
ag453
ag455
ag455
ag453
ag455
aNaNag453
ag454
ag396
ag453
ag453
ag454
ag396
ag453
ag396
ag396
ag453
ag453
ag396
ag453
ag455
aNag453
ag453
ag396
ag453
aNag453
ag396
ag396
ag453
ag396
ag453
ag396
aNag453
ag453
ag455
ag455
ag453
ag454
ag454
ag453
aNaNag453
ag396
ag455
ag396
ag396
ag453
ag453
ag453
ag455
ag396
ag453
ag453
ag396
aNag453
ag454
asS'is_normalized_entropy_less_than_threshold'
p460
(lp461
g50
(g51
(S'b1'
p462
I0
I1
tp463
Rp464
(I3
S'|'
p465
NNNI-1
I-1
I0
tp466
bS'\x00'
p467
tp468
Rp469
ag469
ag469
ag50
(g464
S'\x01'
p470
tp471
Rp472
ag472
ag472
ag469
ag469
ag469
ag469
ag472
ag472
ag472
ag472
ag469
ag472
ag472
ag472
ag469
ag469
ag469
ag472
ag472
ag469
ag469
ag469
ag469
ag472
ag472
ag469
ag469
ag469
ag469
ag472
ag472
ag472
ag472
ag472
ag472
ag472
ag472
ag472
ag472
ag472
ag472
ag469
ag472
ag469
ag469
ag469
ag469
ag469
ag469
ag469
ag472
ag469
ag472
ag472
ag472
ag472
ag469
ag469
ag472
ag469
ag472
ag472
ag469
ag469
ag469
ag472
ag472
ag472
ag469
ag472
ag472
ag469
ag469
ag469
ag472
ag472
ag469
ag469
ag469
ag472
ag472
ag472
ag472
ag472
ag469
ag469
ag469
ag472
ag472
ag469
ag469
ag472
ag472
ag472
ag472
ag469
ag472
ag469
ag469
ag472
ag469
ag469
ag469
ag469
ag472
ag472
ag472
ag472
ag472
asaa(lp473
S'index'
p474
aI53515
aatp475
Rp476
.