ccollections
OrderedDict
p0
((lp1
(lp2
S'combination_dict'
p3
ag0
((lp4
(lp5
S'r_to_g_config'
p6
aS'tr'
p7
aa(lp8
S'num_turns'
p9
aI3
aa(lp10
S'start_direction'
p11
acutils_ms
StartDirection
p12
(I1
tp13
Rp14
aa(lp15
S'assistance_type'
p16
acutils_ms
AssistanceType
p17
(I2
tp18
Rp19
aa(lp20
S'start_mode'
p21
aS't'
p22
aa(lp23
S'ui_given_a_noise'
p24
aF0.3
aa(lp25
S'um_given_ui_noise'
p26
aF0.5
aa(lp27
S'entropy_threshold'
p28
aF0.9
aatp29
Rp30
aa(lp31
S'data'
p32
accollections
defaultdict
p33
(c__builtin__
list
p34
tp35
Rp36
S'a'
p37
(lp38
S'mode_l'
p39
aS'move_p'
p40
aS'mode_r'
p41
ag40
ag41
ag39
ag39
ag40
ag39
ag40
ag39
ag39
ag40
ag39
ag40
ag40
ag40
ag41
ag39
ag39
ag41
ag41
ag40
ag39
ag40
ag41
ag40
ag39
ag41
ag39
ag40
ag40
ag41
ag39
ag40
ag39
ag40
ag41
ag41
ag40
ag39
ag41
ag40
ag39
ag40
ag41
ag41
ag40
ag39
ag40
ag41
ag41
ag39
ag40
ag39
ag40
ag39
ag40
ag41
ag40
ag39
ag40
ag41
ag40
ag39
ag40
ag41
ag40
ag39
ag40
ag41
ag41
ag40
ag39
ag40
ag41
ag39
ag40
ag39
ag39
ag39
ag41
ag41
ag41
ag40
ag41
ag39
ag40
ag41
ag40
ag39
ag40
ag41
ag40
ag39
ag40
ag41
ag41
ag40
ag41
ag40
ag39
ag40
ag39
ag39
ag39
ag39
ag39
ag39
ag40
ag39
ag39
ag40
asS'assistance_match_with_ground_truth'
p42
(lp43
I01
aI00
aI01
aI00
aI00
aI00
aI01
aI01
aI01
aI01
aI00
aI01
aI01
aI00
aI00
aI00
aI00
aI00
aI00
aI00
aI00
aI01
aI00
aI01
aI00
aI01
aI01
aI00
aI00
aI00
aI00
aI00
aI00
aI01
aI01
aI01
aI00
aI00
aI01
aI00
aI00
aI01
aI00
aI01
aI00
aI00
aI01
aI00
aI01
aI01
aI00
aI00
aI01
aI00
aI01
aI00
aI01
aI00
aI01
aI00
aI01
aI01
aI01
aI01
aI01
aI00
aI01
aI01
aI01
aI00
aI00
aI01
aI01
aI01
aI00
aI00
aI01
aI01
aI00
aI00
aI00
aI00
aI00
aI01
aI00
aI00
aI01
aI00
aI01
aI00
aI01
aI01
aI01
aI00
aI01
aI00
aI00
aI01
aI01
aI01
aI01
aI01
aI00
aI00
aI00
aI00
aI00
aI00
aI01
aI00
aI00
aI01
aI01
asS'is_u_intended_equals_um'
p44
(lp45
I00
aI00
aI00
aI00
aI00
aI00
aI00
aI00
aI00
aI00
aI00
aI00
aI00
aI00
aI00
aI00
aI00
aI00
aI00
aI00
aI00
aI00
aI00
aI00
aI00
aI00
aI00
aI00
aI00
aI00
aI00
aI00
aI00
aI00
aI00
aI00
aI00
aI00
aI00
aI00
aI00
aI00
aI00
aI00
aI00
aI00
aI00
aI00
aI00
aI00
aI00
aI00
aI00
aI00
aI00
aI00
aI00
aI00
aI00
aI00
aI00
aI00
aI00
aI00
aI00
aI00
aI00
aI00
aI00
aI00
aI00
aI00
aI00
aI00
aI00
aI00
aI00
aI00
aI00
aI00
aI00
aI00
aI00
aI00
aI00
aI00
aI00
aI00
aI00
aI00
aI00
aI00
aI00
aI00
aI00
aI00
aI00
aI00
aI00
aI00
aI00
aI00
aI00
aI00
aI00
aI00
aI00
aI00
aI00
aI00
aI00
aI00
aI00
asS'total_steps'
p46
I113
sS'normalized_h_of_p_ui_given_um'
p47
(lp48
cnumpy.core.multiarray
scalar
p49
(cnumpy
dtype
p50
(S'f8'
p51
I0
I1
tp52
Rp53
(I3
S'<'
p54
NNNI-1
I-1
I0
tp55
bS'\rA\xc3\xd2\xcb\xa1\xe6?'
p56
tp57
Rp58
ag58
ag58
ag58
ag58
ag58
ag58
ag58
ag58
ag58
ag58
ag58
ag58
ag58
ag58
ag58
ag58
ag58
ag58
ag58
ag58
ag58
ag58
ag58
ag58
ag58
ag58
ag58
ag58
ag58
ag58
ag58
ag58
ag58
ag58
ag58
ag58
ag58
ag58
ag58
ag58
ag58
ag58
ag58
ag58
ag58
ag58
ag58
ag58
ag58
ag58
ag58
ag58
ag58
ag58
ag58
ag58
ag58
ag58
ag58
ag58
ag58
ag58
ag58
ag58
ag58
ag58
ag58
ag58
ag58
ag58
ag58
ag58
ag58
ag58
ag58
ag58
ag58
ag58
ag58
ag58
ag58
ag58
ag58
ag58
ag58
ag58
ag58
ag58
ag58
ag58
ag58
ag58
ag58
ag58
ag58
ag58
ag58
ag58
ag58
ag58
ag58
ag58
ag58
ag58
ag58
ag58
ag58
ag58
ag58
ag58
ag58
ag58
asS'sp'
p59
(lp60
(S'p0'
p61
I0
S'y'
p62
tp63
a(g61
I0
S'x'
p64
tp65
a(g61
I0
g62
tp66
ag65
a(g61
I0
S't'
p67
tp68
a(g61
I0
g67
tp69
ag63
a(S'p1'
p70
I0
g62
tp71
a(g70
I0
g64
tp72
a(S'p2'
p73
I0
g64
tp74
a(g73
I0
g64
tp75
a(g73
I0
g67
tp76
a(g73
F1.5707963267948966
g67
tp77
a(g73
I0
g67
tp78
a(g73
I0
g67
tp79
ag79
a(g73
I0
g62
tp80
a(S'p3'
p81
I0
g62
tp82
a(g81
I0
g62
tp83
a(g81
I0
g67
tp84
a(g81
I0
g67
tp85
a(g81
I0
g64
tp86
a(g73
I0
g64
tp87
ag76
ag80
a(g73
I0
g67
tp88
ag77
a(g73
F1.5707963267948966
g64
tp89
a(g73
F1.5707963267948966
g67
tp90
ag78
ag79
ag80
a(g73
I0
g64
tp91
ag76
ag77
a(g73
F1.5707963267948966
g62
tp92
a(g73
F1.5707963267948966
g64
tp93
a(g73
F1.5707963267948966
g64
tp94
a(g73
F1.5707963267948966
g62
tp95
a(g70
F1.5707963267948966
g62
tp96
a(g70
F1.5707963267948966
g67
tp97
a(g70
F1.5707963267948966
g64
tp98
a(g70
F1.5707963267948966
g62
tp99
a(g70
F1.5707963267948966
g64
tp100
a(g70
F1.5707963267948966
g67
tp101
a(g70
F1.5707963267948966
g67
tp102
ag98
ag99
ag100
a(g73
F1.5707963267948966
g64
tp103
ag94
ag90
ag92
a(g73
F1.5707963267948966
g67
tp104
ag92
ag104
ag92
ag93
ag95
ag96
ag100
ag103
ag95
a(g81
F1.5707963267948966
g62
tp105
a(g81
F1.5707963267948966
g64
tp106
a(g73
F1.5707963267948966
g64
tp107
ag95
ag105
ag106
ag107
a(g73
F1.5707963267948966
g64
tp108
ag95
ag105
ag106
ag107
ag90
ag92
ag105
a(g81
F1.5707963267948966
g62
tp109
ag109
a(g81
F1.5707963267948966
g67
tp110
a(g81
F1.5707963267948966
g67
tp111
ag111
a(g81
F1.5707963267948966
g64
tp112
ag107
ag90
ag92
ag93
ag95
ag96
ag100
ag103
ag95
ag96
ag100
ag101
ag102
ag98
ag103
ag95
ag105
ag106
a(g81
F1.5707963267948966
g62
tp113
a(g81
F1.5707963267948966
g62
tp114
ag109
ag114
ag109
ag114
ag106
ag113
ag109
ag106
a(S'p4'
p115
F1.5707963267948966
g64
tp116
asS's'
p117
(lp118
(g61
I0
g22
tp119
ag63
ag65
ag66
ag65
ag68
ag69
ag63
ag71
ag72
ag74
ag75
ag76
ag77
ag78
ag79
ag79
ag80
ag82
ag83
ag84
ag85
ag86
ag87
ag76
ag80
ag88
ag77
ag89
ag90
ag78
ag79
ag80
ag91
ag76
ag77
ag92
ag93
ag94
ag95
ag96
ag97
ag98
ag99
ag100
ag101
ag102
ag98
ag99
ag100
ag103
ag94
ag90
ag92
ag104
ag92
ag104
ag92
ag93
ag95
ag96
ag100
ag103
ag95
ag105
ag106
ag107
ag95
ag105
ag106
ag107
ag108
ag95
ag105
ag106
ag107
ag90
ag92
ag105
ag109
ag109
ag110
ag111
ag111
ag112
ag107
ag90
ag92
ag93
ag95
ag96
ag100
ag103
ag95
ag96
ag100
ag101
ag102
ag98
ag103
ag95
ag105
ag106
ag113
ag114
ag109
ag114
ag109
ag114
ag106
ag113
ag109
ag106
asS'ui'
p120
(lp121
S'hs'
p122
aS'ss'
p123
aS'hp'
p124
ag122
ag122
ag122
ag122
ag59
ag122
ag59
ag122
ag122
ag59
ag122
ag123
ag123
ag123
ag124
ag122
ag122
ag124
ag124
ag124
ag122
ag59
ag124
ag59
ag124
ag124
ag122
ag123
ag59
ag124
ag122
ag59
ag122
ag59
ag122
ag124
ag123
ag122
ag124
ag59
ag122
ag59
ag124
ag124
ag59
ag122
ag59
ag124
ag122
ag122
ag122
ag124
ag124
ag122
ag59
ag124
ag123
ag122
ag59
ag124
ag124
ag122
ag123
ag124
ag59
ag122
ag123
ag124
ag124
ag59
ag122
ag122
ag124
ag122
ag59
ag122
ag122
ag122
ag123
ag123
ag124
ag123
ag124
ag122
ag59
ag124
ag59
ag122
ag59
ag124
ag123
ag122
ag59
ag124
ag124
ag59
ag124
ag59
ag122
ag59
ag59
ag122
ag124
ag122
ag124
ag59
ag122
ag122
ag122
ag124
asS'um_before'
p125
(lp126
g122
ag122
ag124
ag122
ag122
ag123
ag122
ag59
ag122
ag59
ag123
ag122
ag59
ag123
ag123
ag123
ag122
ag59
ag123
ag124
ag59
ag124
ag123
ag122
ag122
ag124
ag59
ag124
ag122
ag123
ag123
ag122
ag122
ag122
ag59
ag122
ag122
ag123
ag124
ag123
ag124
ag124
ag124
ag122
ag122
ag59
ag124
ag124
ag122
ag59
ag123
ag122
ag122
ag124
ag122
ag124
ag122
ag122
ag124
ag123
ag122
ag59
ag124
ag59
ag122
ag123
ag124
ag59
ag122
ag123
ag59
ag124
ag59
ag122
ag123
ag122
ag122
ag59
ag123
ag123
ag124
ag123
ag123
ag124
ag123
ag122
ag122
ag122
ag124
ag123
ag122
ag59
ag124
ag123
ag122
ag122
ag59
ag124
ag59
ag124
ag59
ag122
ag124
ag59
ag123
ag59
ag123
ag59
ag122
ag124
ag123
ag122
ag59
asS'um_after'
p127
(lp128
g122
ag122
ag124
ag122
ag122
ag123
ag122
ag59
ag122
ag59
ag123
ag122
ag59
ag123
ag123
ag123
ag122
ag59
ag123
ag124
ag59
ag124
ag123
ag122
ag122
ag124
ag59
ag124
ag122
ag123
ag123
ag122
ag122
ag122
ag59
ag122
ag122
ag123
ag124
ag123
ag124
ag124
ag124
ag122
ag122
ag59
ag124
ag124
ag122
ag59
ag123
ag122
ag122
ag124
ag122
ag124
ag122
ag122
ag124
ag123
ag122
ag59
ag124
ag59
ag122
ag123
ag124
ag59
ag122
ag123
ag59
ag124
ag59
ag122
ag123
ag122
ag122
ag59
ag123
ag123
ag124
ag123
ag123
ag124
ag123
ag122
ag122
ag122
ag124
ag123
ag122
ag59
ag124
ag123
ag122
ag122
ag59
ag124
ag59
ag124
ag59
ag122
ag124
ag59
ag123
ag59
ag123
ag59
ag122
ag124
ag123
ag122
ag59
asS'is_normalized_entropy_less_than_threshold'
p129
(lp130
g49
(g50
(S'b1'
p131
I0
I1
tp132
Rp133
(I3
S'|'
p134
NNNI-1
I-1
I0
tp135
bS'\x01'
p136
tp137
Rp138
ag138
ag138
ag138
ag138
ag138
ag138
ag138
ag138
ag138
ag138
ag138
ag138
ag138
ag138
ag138
ag138
ag138
ag138
ag138
ag138
ag138
ag138
ag138
ag138
ag138
ag138
ag138
ag138
ag138
ag138
ag138
ag138
ag138
ag138
ag138
ag138
ag138
ag138
ag138
ag138
ag138
ag138
ag138
ag138
ag138
ag138
ag138
ag138
ag138
ag138
ag138
ag138
ag138
ag138
ag138
ag138
ag138
ag138
ag138
ag138
ag138
ag138
ag138
ag138
ag138
ag138
ag138
ag138
ag138
ag138
ag138
ag138
ag138
ag138
ag138
ag138
ag138
ag138
ag138
ag138
ag138
ag138
ag138
ag138
ag138
ag138
ag138
ag138
ag138
ag138
ag138
ag138
ag138
ag138
ag138
ag138
ag138
ag138
ag138
ag138
ag138
ag138
ag138
ag138
ag138
ag138
ag138
ag138
ag138
ag138
ag138
ag138
asaa(lp139
S'index'
p140
aI28348
aatp141
Rp142
.