ccollections
OrderedDict
p0
((lp1
(lp2
S'combination_dict'
p3
ag0
((lp4
(lp5
S'r_to_g_config'
p6
aS'tr'
p7
aa(lp8
S'num_turns'
p9
aI3
aa(lp10
S'start_direction'
p11
acutils_ms
StartDirection
p12
(I0
tp13
Rp14
aa(lp15
S'assistance_type'
p16
acutils_ms
AssistanceType
p17
(I0
tp18
Rp19
aa(lp20
S'start_mode'
p21
aS'y'
p22
aa(lp23
S'ui_given_a_noise'
p24
aF0.3
aa(lp25
S'um_given_ui_noise'
p26
aF0.7
aa(lp27
S'entropy_threshold'
p28
aF0.9
aatp29
Rp30
aa(lp31
S'data'
p32
accollections
defaultdict
p33
(c__builtin__
list
p34
tp35
Rp36
S'a'
p37
(lp38
S'mode_l'
p39
aS'move_p'
p40
ag40
ag40
aS'mode_r'
p41
ag41
ag41
ag40
ag40
ag40
ag41
ag41
ag41
ag41
ag40
ag41
ag40
ag40
ag40
ag40
ag40
ag40
ag40
ag41
ag41
ag41
ag41
ag40
ag40
asS'assistance_match_with_ground_truth'
p42
(lp43
I01
aI00
aI00
aI01
aI00
aI00
aI01
aI00
aI00
aI01
aI00
aI00
aI00
aI01
aI01
aI01
aI00
aI00
aI00
aI00
aI00
aI00
aI01
aI00
aI00
aI00
aI01
aI00
aI01
asS'is_u_intended_equals_um'
p44
(lp45
I01
aI00
aI00
aI01
aI00
aI00
aI01
aI00
aI00
aI01
aI00
aI00
aI00
aI01
aI01
aI01
aI00
aI00
aI00
aI00
aI00
aI00
aI01
aI00
aI00
aI00
aI01
aI00
aI01
asS'total_steps'
p46
I29
sS'normalized_h_of_p_ui_given_um'
p47
(lp48
cnumpy.core.multiarray
scalar
p49
(cnumpy
dtype
p50
(S'f8'
p51
I0
I1
tp52
Rp53
(I3
S'<'
p54
NNNI-1
I-1
I0
tp55
bS'j\x1c\x89/\xe2\x99\xdb?'
p56
tp57
Rp58
ag49
(g53
S'\rH\x1e\xfb\xe3\x13\xea?'
p59
tp60
Rp61
ag49
(g53
S'\xa6\x1c\x1f\x8b\xbe\xaf\xe7?'
p62
tp63
Rp64
ag49
(g53
S'\x07A!\xd3d\x07\xd4?'
p65
tp66
Rp67
ag49
(g53
S'\x87\x9a\x00Q\xc7\x19\xea?'
p68
tp69
Rp70
ag49
(g53
S's\x8e8}\x0bG\xe9?'
p71
tp72
Rp73
ag49
(g53
S'X#\x9b\x90\x88,\xe2?'
p74
tp75
Rp76
ag49
(g53
S'\rH\x1e\xfb\xe3\x13\xea?'
p77
tp78
Rp79
ag49
(g53
S'\xa6\x1c\x1f\x8b\xbe\xaf\xe7?'
p80
tp81
Rp82
ag49
(g53
S'\x07A!\xd3d\x07\xd4?'
p83
tp84
Rp85
ag49
(g53
S'\x87\x9a\x00Q\xc7\x19\xea?'
p86
tp87
Rp88
ag49
(g53
S'\x87\x9a\x00Q\xc7\x19\xea?'
p89
tp90
Rp91
ag49
(g53
S's\x8e8}\x0bG\xe9?'
p92
tp93
Rp94
ag49
(g53
S'X#\x9b\x90\x88,\xe2?'
p95
tp96
Rp97
ag49
(g53
S'\x07A!\xd3d\x07\xd4?'
p98
tp99
Rp100
ag49
(g53
S'X#\x9b\x90\x88,\xe2?'
p101
tp102
Rp103
ag49
(g53
S'Xl\x19\xae\xd6\x03\xe3?'
p104
tp105
Rp106
ag49
(g53
S'\xa6\x1c\x1f\x8b\xbe\xaf\xe7?'
p107
tp108
Rp109
ag49
(g53
S'Xl\x19\xae\xd6\x03\xe3?'
p110
tp111
Rp112
ag49
(g53
S'Xl\x19\xae\xd6\x03\xe3?'
p113
tp114
Rp115
ag49
(g53
S'Xl\x19\xae\xd6\x03\xe3?'
p116
tp117
Rp118
ag49
(g53
S'\xa6\x1c\x1f\x8b\xbe\xaf\xe7?'
p119
tp120
Rp121
ag49
(g53
S'\x07A!\xd3d\x07\xd4?'
p122
tp123
Rp124
ag49
(g53
S's\x8e8}\x0bG\xe9?'
p125
tp126
Rp127
ag49
(g53
S's\x8e8}\x0bG\xe9?'
p128
tp129
Rp130
ag49
(g53
S'\x9e`\x9c\xd3NU\xe6?'
p131
tp132
Rp133
ag49
(g53
S'X#\x9b\x90\x88,\xe2?'
p134
tp135
Rp136
ag49
(g53
S'\xa6\x1c\x1f\x8b\xbe\xaf\xe7?'
p137
tp138
Rp139
ag49
(g53
S'\x07A!\xd3d\x07\xd4?'
p140
tp141
Rp142
asS'sp'
p143
(lp144
(S'p0'
p145
I0
S'x'
p146
tp147
ag147
ag147
a(S'p1'
p148
I0
g146
tp149
ag149
ag149
a(g148
I0
S'y'
p150
tp151
ag151
ag151
a(S'p2'
p152
I0
g150
tp153
ag153
ag153
ag153
a(g152
I0
S't'
p154
tp155
a(g152
F1.5707963267948966
g154
tp156
a(g152
F1.5707963267948966
g146
tp157
ag157
ag157
ag157
ag157
ag157
ag157
a(S'p3'
p158
F1.5707963267948966
g146
tp159
ag159
ag159
ag159
a(g158
F1.5707963267948966
g150
tp160
ag160
a(S'p4'
p161
F1.5707963267948966
g150
tp162
asS's'
p163
(lp164
(g145
I0
g22
tp165
ag147
ag147
ag147
ag149
ag149
ag149
ag151
ag151
ag151
ag153
ag153
ag153
ag153
ag155
ag156
ag157
ag157
ag157
ag157
ag157
ag157
ag157
ag159
ag159
ag159
ag159
ag160
ag160
asS'ui'
p166
(lp167
g143
aS'ss'
p168
ag143
ag143
ag143
aS'hp'
p169
ag169
ag168
aS'hs'
p170
ag143
ag169
ag169
ag169
ag168
ag143
ag169
ag170
ag170
ag143
ag143
ag169
ag143
ag143
ag168
ag170
ag143
ag143
ag170
ag143
asS'um_before'
p171
(lp172
g170
ag168
ag169
ag143
ag170
ag168
ag169
ag168
ag169
ag143
ag170
ag170
ag168
ag169
ag143
ag169
ag170
ag169
ag170
ag170
ag170
ag169
ag143
ag168
ag168
ag143
ag169
ag169
ag143
asS'um_after'
p173
(lp174
g170
aNaNag143
aNaNag169
aNaNag143
aNaNaNag169
ag143
ag169
aNaNaNaNaNaNag143
aNaNaNag169
aNag143
asS'is_normalized_entropy_less_than_threshold'
p175
(lp176
g49
(g50
(S'b1'
p177
I0
I1
tp178
Rp179
(I3
S'|'
p180
NNNI-1
I-1
I0
tp181
bS'\x01'
p182
tp183
Rp184
ag184
ag184
ag184
ag184
ag184
ag184
ag184
ag184
ag184
ag184
ag184
ag184
ag184
ag184
ag184
ag184
ag184
ag184
ag184
ag184
ag184
ag184
ag184
ag184
ag184
ag184
ag184
ag184
asaa(lp185
S'index'
p186
aI20396
aatp187
Rp188
.