ccollections
OrderedDict
p0
((lp1
(lp2
S'combination_dict'
p3
ag0
((lp4
(lp5
S'r_to_g_config'
p6
aS'br'
p7
aa(lp8
S'num_turns'
p9
aI3
aa(lp10
S'start_direction'
p11
acutils_ms
StartDirection
p12
(I0
tp13
Rp14
aa(lp15
S'assistance_type'
p16
acutils_ms
AssistanceType
p17
(I2
tp18
Rp19
aa(lp20
S'start_mode'
p21
aS'y'
p22
aa(lp23
S'ui_given_a_noise'
p24
aF0.3
aa(lp25
S'um_given_ui_noise'
p26
aF0.7
aa(lp27
S'entropy_threshold'
p28
aF0.9
aatp29
Rp30
aa(lp31
S'data'
p32
accollections
defaultdict
p33
(c__builtin__
list
p34
tp35
Rp36
S'a'
p37
(lp38
S'mode_l'
p39
aS'mode_r'
p40
ag40
ag40
aS'move_p'
p41
ag40
ag40
ag41
ag40
aS'move_n'
p42
ag40
ag41
ag39
ag41
ag41
ag40
ag41
ag39
ag39
ag41
ag39
ag41
ag40
ag41
ag39
ag41
ag40
ag41
ag40
ag42
ag39
ag39
ag41
ag40
ag40
ag42
ag39
ag39
ag40
ag42
ag39
ag41
ag40
ag39
ag42
ag39
ag41
ag40
ag42
ag39
ag42
ag40
ag40
ag40
ag39
ag42
ag39
ag40
ag39
ag41
ag40
ag40
ag42
ag39
ag42
ag39
ag41
ag40
ag41
ag40
ag41
ag40
ag41
ag40
ag40
ag42
ag40
ag42
ag39
ag39
ag42
ag40
ag39
ag39
ag42
ag39
ag42
asS'assistance_match_with_ground_truth'
p43
(lp44
I00
aI00
aI00
aI01
aI00
aI00
aI01
aI01
aI01
aI01
aI01
aI00
aI01
aI00
aI01
aI01
aI00
aI00
aI01
aI00
aI01
aI00
aI01
aI00
aI01
aI00
aI01
aI00
aI01
aI00
aI00
aI01
aI01
aI00
aI01
aI00
aI00
aI00
aI01
aI00
aI01
aI01
aI00
aI01
aI01
aI01
aI01
aI01
aI00
aI01
aI00
aI00
aI00
aI00
aI01
aI00
aI00
aI00
aI01
aI01
aI00
aI01
aI00
aI01
aI00
aI01
aI00
aI00
aI00
aI01
aI01
aI01
aI01
aI00
aI01
aI00
aI01
aI00
aI00
aI01
aI00
aI00
aI00
aI01
aI00
aI01
aI01
asS'is_u_intended_equals_um'
p45
(lp46
I01
aI01
aI01
aI01
aI01
aI01
aI01
aI01
aI01
aI01
aI01
aI01
aI01
aI01
aI01
aI01
aI01
aI01
aI01
aI01
aI01
aI01
aI01
aI01
aI01
aI01
aI01
aI01
aI01
aI01
aI01
aI01
aI01
aI01
aI01
aI01
aI01
aI01
aI01
aI01
aI01
aI01
aI01
aI01
aI01
aI01
aI01
aI01
aI01
aI01
aI01
aI01
aI01
aI01
aI01
aI01
aI01
aI01
aI01
aI01
aI01
aI01
aI01
aI01
aI01
aI01
aI01
aI01
aI01
aI01
aI01
aI01
aI01
aI01
aI01
aI01
aI01
aI01
aI01
aI01
aI01
aI01
aI01
aI01
aI01
aI01
aI01
asS'total_steps'
p47
I87
sS'normalized_h_of_p_ui_given_um'
p48
(lp49
cnumpy.core.multiarray
scalar
p50
(cnumpy
dtype
p51
(S'f8'
p52
I0
I1
tp53
Rp54
(I3
S'<'
p55
NNNI-1
I-1
I0
tp56
bS'\xeb\x05\xa2\xec\xe0\x9e\xe5?'
p57
tp58
Rp59
ag59
ag59
ag59
ag59
ag59
ag59
ag59
ag59
ag59
ag59
ag59
ag59
ag59
ag59
ag59
ag59
ag59
ag59
ag59
ag59
ag59
ag59
ag59
ag59
ag59
ag59
ag59
ag59
ag59
ag59
ag59
ag59
ag59
ag59
ag59
ag59
ag59
ag59
ag59
ag59
ag59
ag59
ag59
ag59
ag59
ag59
ag59
ag59
ag59
ag59
ag59
ag59
ag59
ag59
ag59
ag59
ag59
ag59
ag59
ag59
ag59
ag59
ag59
ag59
ag59
ag59
ag59
ag59
ag59
ag59
ag59
ag59
ag59
ag59
ag59
ag59
ag59
ag59
ag59
ag59
ag59
ag59
ag59
ag59
ag59
ag59
asS'sp'
p60
(lp61
(S'p0'
p62
I0
S't'
p63
tp64
a(g62
I0
g63
tp65
a(g62
I0
g63
tp66
a(g62
I0
S'x'
p67
tp68
a(g62
I0
g63
tp69
ag66
ag68
a(S'p1'
p70
I0
g67
tp71
a(g70
I0
S'y'
p72
tp73
a(S'p2'
p74
I0
g72
tp75
a(g74
I0
g63
tp76
a(g74
I0
g67
tp77
a(g74
I0
g63
tp78
a(g74
I0
g63
tp79
a(g74
F1.5707963267948966
g63
tp80
a(g74
F1.5707963267948966
g67
tp81
a(g74
F1.5707963267948966
g72
tp82
a(g74
F1.5707963267948966
g72
tp83
a(g74
F1.5707963267948966
g67
tp84
ag82
ag84
a(g74
F1.5707963267948966
g63
tp85
ag81
ag82
ag84
ag85
ag81
a(g70
F1.5707963267948966
g67
tp86
a(g70
F1.5707963267948966
g72
tp87
a(g62
F1.5707963267948966
g72
tp88
a(g62
F1.5707963267948966
g72
tp89
a(g62
F1.5707963267948966
g67
tp90
a(g70
F1.5707963267948966
g67
tp91
a(g70
F1.5707963267948966
g67
tp92
ag87
a(g70
F1.5707963267948966
g63
tp93
a(g70
F1.5707963267948966
g63
tp94
a(g70
F1.5707963267948966
g67
tp95
ag87
ag88
ag90
ag91
a(g70
F1.5707963267948966
g63
tp96
a(g70
F1.5707963267948966
g72
tp97
a(g74
F1.5707963267948966
g72
tp98
ag84
a(S'p3'
p99
F1.5707963267948966
g67
tp100
a(g99
F1.5707963267948966
g72
tp101
a(g99
F1.5707963267948966
g63
tp102
a(g99
F1.5707963267948966
g72
tp103
a(g99
F1.5707963267948966
g67
tp104
a(g99
F1.5707963267948966
g67
tp105
a(g99
F1.5707963267948966
g67
tp106
a(g99
F1.5707963267948966
g63
tp107
ag103
a(g74
F1.5707963267948966
g72
tp108
a(g74
F1.5707963267948966
g63
tp109
a(g74
F1.5707963267948966
g72
tp110
ag84
ag100
ag106
ag101
ag102
ag103
ag108
ag84
ag85
a(g74
I0
g63
tp111
a(g74
I0
g72
tp112
ag76
ag80
ag81
ag100
ag105
ag101
ag104
ag101
ag102
a(g99
F1.5707963267948966
g63
tp113
ag103
ag104
ag107
a(g99
F1.5707963267948966
g63
tp114
ag103
ag102
ag103
a(S'p4'
p115
F1.5707963267948966
g72
tp116
asS's'
p117
(lp118
(g62
I0
g22
tp119
ag64
ag65
ag66
ag68
ag69
ag66
ag68
ag71
ag73
ag75
ag76
ag77
ag78
ag79
ag80
ag81
ag82
ag83
ag84
ag82
ag84
ag85
ag81
ag82
ag84
ag85
ag81
ag86
ag87
ag88
ag89
ag90
ag91
ag92
ag87
ag93
ag94
ag95
ag87
ag88
ag90
ag91
ag96
ag97
ag98
ag84
ag100
ag101
ag102
ag103
ag104
ag105
ag106
ag107
ag103
ag108
ag109
ag110
ag84
ag100
ag106
ag101
ag102
ag103
ag108
ag84
ag85
ag111
ag112
ag76
ag80
ag81
ag100
ag105
ag101
ag104
ag101
ag102
ag113
ag103
ag104
ag107
ag114
ag103
ag102
ag103
asS'ui'
p120
(lp121
S'hs'
p122
aS'hp'
p123
ag123
ag123
ag122
ag123
ag123
ag60
ag123
aS'ss'
p124
ag123
ag60
ag122
ag124
ag60
ag123
ag60
ag122
ag122
ag123
ag122
ag60
ag123
ag60
ag122
ag60
ag123
ag124
ag123
ag60
ag122
ag122
ag60
ag123
ag122
ag124
ag122
ag123
ag123
ag60
ag122
ag60
ag122
ag122
ag124
ag122
ag60
ag123
ag123
ag122
ag122
ag124
ag122
ag123
ag122
ag124
ag123
ag123
ag122
ag60
ag123
ag123
ag124
ag122
ag124
ag122
ag123
ag124
ag123
ag123
ag60
ag123
ag60
ag124
ag123
ag122
ag123
ag124
ag123
ag122
ag122
ag123
ag124
ag122
ag124
ag122
ag124
asS'um_before'
p125
(lp126
g123
ag124
ag60
ag123
ag122
ag60
ag123
ag60
ag123
ag124
ag123
ag123
ag122
ag124
ag60
ag123
ag123
ag124
ag122
ag123
ag122
ag122
ag123
ag123
ag122
ag122
ag123
ag124
ag123
ag60
ag124
ag122
ag60
ag60
ag123
ag123
ag124
ag123
ag123
ag60
ag122
ag60
ag122
ag122
ag124
ag122
ag60
ag123
ag123
ag122
ag122
ag124
ag60
ag122
ag122
ag60
ag123
ag122
ag122
ag60
ag60
ag123
ag123
ag122
ag60
ag122
ag122
ag124
ag122
ag123
ag60
ag123
ag60
ag124
ag123
ag122
ag123
ag123
ag60
ag122
ag122
ag122
ag124
ag122
ag123
ag122
ag124
asS'um_after'
p127
(lp128
g123
ag124
ag60
ag123
ag122
ag60
ag123
ag60
ag123
ag124
ag123
ag123
ag122
ag124
ag60
ag123
ag123
ag124
ag122
ag123
ag122
ag122
ag123
ag123
ag122
ag122
ag123
ag124
ag123
ag60
ag124
ag122
ag60
ag60
ag123
ag123
ag124
ag123
ag123
ag60
ag122
ag60
ag122
ag122
ag124
ag122
ag60
ag123
ag123
ag122
ag122
ag124
ag60
ag122
ag122
ag60
ag123
ag122
ag122
ag60
ag60
ag123
ag123
ag122
ag60
ag122
ag122
ag124
ag122
ag123
ag60
ag123
ag60
ag124
ag123
ag122
ag123
ag123
ag60
ag122
ag122
ag122
ag124
ag122
ag123
ag122
ag124
asS'is_normalized_entropy_less_than_threshold'
p129
(lp130
g50
(g51
(S'b1'
p131
I0
I1
tp132
Rp133
(I3
S'|'
p134
NNNI-1
I-1
I0
tp135
bS'\x01'
p136
tp137
Rp138
ag138
ag138
ag138
ag138
ag138
ag138
ag138
ag138
ag138
ag138
ag138
ag138
ag138
ag138
ag138
ag138
ag138
ag138
ag138
ag138
ag138
ag138
ag138
ag138
ag138
ag138
ag138
ag138
ag138
ag138
ag138
ag138
ag138
ag138
ag138
ag138
ag138
ag138
ag138
ag138
ag138
ag138
ag138
ag138
ag138
ag138
ag138
ag138
ag138
ag138
ag138
ag138
ag138
ag138
ag138
ag138
ag138
ag138
ag138
ag138
ag138
ag138
ag138
ag138
ag138
ag138
ag138
ag138
ag138
ag138
ag138
ag138
ag138
ag138
ag138
ag138
ag138
ag138
ag138
ag138
ag138
ag138
ag138
ag138
ag138
ag138
asaa(lp139
S'index'
p140
aI109990
aatp141
Rp142
.