ccollections
OrderedDict
p0
((lp1
(lp2
S'combination_dict'
p3
ag0
((lp4
(lp5
S'r_to_g_config'
p6
aS'tl'
p7
aa(lp8
S'num_turns'
p9
aI3
aa(lp10
S'start_direction'
p11
acutils_ms
StartDirection
p12
(I1
tp13
Rp14
aa(lp15
S'assistance_type'
p16
acutils_ms
AssistanceType
p17
(I2
tp18
Rp19
aa(lp20
S'start_mode'
p21
aS't'
p22
aa(lp23
S'ui_given_a_noise'
p24
aF0.7
aa(lp25
S'um_given_ui_noise'
p26
aF0.1
aa(lp27
S'entropy_threshold'
p28
aF0.6
aatp29
Rp30
aa(lp31
S'data'
p32
accollections
defaultdict
p33
(c__builtin__
list
p34
tp35
Rp36
S'a'
p37
(lp38
S'mode_l'
p39
aS'move_p'
p40
aS'mode_r'
p41
ag41
ag40
ag39
ag39
ag39
ag39
ag39
ag41
aS'move_n'
p42
ag41
ag40
ag39
ag42
ag41
ag41
ag40
ag39
ag39
ag40
ag41
ag41
ag40
ag41
ag42
asS'assistance_match_with_ground_truth'
p43
(lp44
I01
aI00
aI00
aI01
aI01
aI00
aI00
aI00
aI00
aI00
aI01
aI00
aI01
aI01
aI01
aI01
aI00
aI01
aI00
aI00
aI01
aI01
aI00
aI01
aI01
aI01
aI01
asS'is_u_intended_equals_um'
p45
(lp46
I01
aI01
aI01
aI01
aI01
aI01
aI01
aI01
aI01
aI01
aI01
aI01
aI01
aI01
aI01
aI01
aI01
aI01
aI01
aI01
aI01
aI01
aI01
aI01
aI01
aI01
aI01
asS'total_steps'
p47
I27
sS'normalized_h_of_p_ui_given_um'
p48
(lp49
cnumpy.core.multiarray
scalar
p50
(cnumpy
dtype
p51
(S'f8'
p52
I0
I1
tp53
Rp54
(I3
S'<'
p55
NNNI-1
I-1
I0
tp56
bS'\x05n\x9b\xd5\xce\xb4\xe5?'
p57
tp58
Rp59
ag59
ag59
ag59
ag59
ag59
ag59
ag59
ag59
ag59
ag59
ag59
ag59
ag59
ag59
ag59
ag59
ag59
ag59
ag59
ag59
ag59
ag59
ag59
ag59
ag59
ag59
asS'sp'
p60
(lp61
(S'p0'
p62
I0
S'y'
p63
tp64
a(g62
I0
S'x'
p65
tp66
a(g62
I0
g65
tp67
a(g62
I0
g63
tp68
a(S'p1'
p69
I0
g63
tp70
a(g69
I0
g63
tp71
ag71
ag71
ag71
a(g69
I0
S't'
p72
tp73
a(g69
I0
g65
tp74
a(g62
I0
g65
tp75
ag68
ag70
a(g69
I0
g65
tp76
a(S'p2'
p77
I0
g65
tp78
a(g77
I0
g65
tp79
a(g77
I0
g63
tp80
a(g77
I0
g72
tp81
a(g77
I0
g72
tp82
a(g77
I0
g63
tp83
a(S'p3'
p84
I0
g63
tp85
a(g84
I0
g63
tp86
a(g84
I0
g72
tp87
a(g84
F1.5707963267948966
g72
tp88
a(g84
F1.5707963267948966
g65
tp89
a(S'p4'
p90
F1.5707963267948966
g65
tp91
asS's'
p92
(lp93
(g62
I0
g22
tp94
ag64
ag66
ag67
ag68
ag70
ag71
ag71
ag71
ag71
ag73
ag74
ag75
ag68
ag70
ag76
ag78
ag79
ag80
ag81
ag82
ag83
ag85
ag86
ag87
ag88
ag89
asS'ui'
p95
(lp96
S'hs'
p97
ag97
aS'ss'
p98
aS'hp'
p99
ag60
ag98
ag98
ag98
ag98
ag98
ag99
ag60
ag99
ag60
ag97
ag98
ag99
ag99
ag99
ag98
ag97
ag60
ag60
ag99
ag60
ag99
ag98
asS'um_before'
p100
(lp101
g97
ag97
ag98
ag99
ag60
ag98
ag98
ag98
ag98
ag99
ag99
ag60
ag99
ag60
ag97
ag98
ag60
ag99
ag99
ag98
ag97
ag60
ag98
ag99
ag60
ag99
ag98
asS'um_after'
p102
(lp103
g97
ag97
ag98
ag99
ag60
ag98
ag98
ag98
ag98
ag99
ag99
ag60
ag99
ag60
ag97
ag98
ag60
ag99
ag99
ag98
ag97
ag60
ag98
ag99
ag60
ag99
ag98
asS'is_normalized_entropy_less_than_threshold'
p104
(lp105
g50
(g51
(S'b1'
p106
I0
I1
tp107
Rp108
(I3
S'|'
p109
NNNI-1
I-1
I0
tp110
bS'\x01'
p111
tp112
Rp113
ag113
ag113
ag113
ag113
ag113
ag113
ag113
ag113
ag113
ag113
ag113
ag113
ag113
ag113
ag113
ag113
ag113
ag113
ag113
ag113
ag113
ag113
ag113
ag113
ag113
ag113
asaa(lp114
S'index'
p115
aI57414
aatp116
Rp117
.