ccollections
OrderedDict
p0
((lp1
(lp2
S'combination_dict'
p3
ag0
((lp4
(lp5
S'r_to_g_config'
p6
aS'br'
p7
aa(lp8
S'num_turns'
p9
aI2
aa(lp10
S'start_direction'
p11
acutils_ms
StartDirection
p12
(I1
tp13
Rp14
aa(lp15
S'assistance_type'
p16
acutils_ms
AssistanceType
p17
(I0
tp18
Rp19
aa(lp20
S'start_mode'
p21
aS't'
p22
aa(lp23
S'ui_given_a_noise'
p24
aF0.3
aa(lp25
S'um_given_ui_noise'
p26
aF0.3
aa(lp27
S'entropy_threshold'
p28
aF0.6
aatp29
Rp30
aa(lp31
S'data'
p32
accollections
defaultdict
p33
(c__builtin__
list
p34
tp35
Rp36
S'a'
p37
(lp38
S'mode_l'
p39
aS'mode_r'
p40
aS'move_n'
p41
ag39
aS'move_p'
p42
ag39
ag39
ag40
ag42
ag39
ag41
asS'assistance_match_with_ground_truth'
p43
(lp44
I00
aI01
aI01
aI01
aI01
aI00
aI00
aI01
aI01
aI01
aI01
asS'is_u_intended_equals_um'
p45
(lp46
I01
aI01
aI01
aI01
aI01
aI00
aI01
aI01
aI01
aI01
aI01
asS'total_steps'
p47
I11
sS'normalized_h_of_p_ui_given_um'
p48
(lp49
cnumpy.core.multiarray
scalar
p50
(cnumpy
dtype
p51
(S'f8'
p52
I0
I1
tp53
Rp54
(I3
S'<'
p55
NNNI-1
I-1
I0
tp56
bS'\x9f\x99\x96\x08I\xde\xe7?'
p57
tp58
Rp59
ag50
(g54
S'\x8a\x93\xeb\xb3\xd3\xfa\xc6?'
p60
tp61
Rp62
ag50
(g54
S'6X\xf8Q\xf8\xd8\xc3?'
p63
tp64
Rp65
ag50
(g54
S'\xb8\xf0\xf2`\x02[\xc7?'
p66
tp67
Rp68
ag50
(g54
S'\x80y9\x8c\x04\x05\xb9?'
p69
tp70
Rp71
ag50
(g54
S'UX6\xf9r\xb4\xe7?'
p72
tp73
Rp74
ag50
(g54
S'\x9f\x99\x96\x08I\xde\xe7?'
p75
tp76
Rp77
ag50
(g54
S'\x8a\x93\xeb\xb3\xd3\xfa\xc6?'
p78
tp79
Rp80
ag50
(g54
S'\x80y9\x8c\x04\x05\xb9?'
p81
tp82
Rp83
ag50
(g54
S'\xb8\xf0\xf2`\x02[\xc7?'
p84
tp85
Rp86
ag50
(g54
S'6X\xf8Q\xf8\xd8\xc3?'
p87
tp88
Rp89
asS'sp'
p90
(lp91
(S'p0'
p92
I0
S'x'
p93
tp94
a(g92
I0
S'y'
p95
tp96
a(S'p1'
p97
I0
g95
tp98
a(g97
I0
g93
tp99
a(S'p2'
p100
I0
g93
tp101
a(g100
I0
g93
tp102
a(g100
I0
g95
tp103
a(g100
I0
S't'
p104
tp105
a(g100
F1.5707963267948966
g104
tp106
a(g100
F1.5707963267948966
g95
tp107
a(S'p3'
p108
F1.5707963267948966
g95
tp109
asS's'
p110
(lp111
(g92
I0
g22
tp112
ag94
ag96
ag98
ag99
ag101
ag102
ag103
ag105
ag106
ag107
asS'ui'
p113
(lp114
S'ss'
p115
aS'hp'
p116
ag115
aS'hs'
p117
ag90
ag117
ag116
ag116
ag90
ag117
ag115
asS'um_before'
p118
(lp119
g116
ag116
ag115
ag117
ag90
ag115
ag116
ag116
ag90
ag117
ag115
asS'um_after'
p120
(lp121
g116
ag116
ag115
ag117
ag90
ag115
ag116
ag116
ag90
ag117
ag115
asS'is_normalized_entropy_less_than_threshold'
p122
(lp123
g50
(g51
(S'b1'
p124
I0
I1
tp125
Rp126
(I3
S'|'
p127
NNNI-1
I-1
I0
tp128
bS'\x00'
p129
tp130
Rp131
ag50
(g126
S'\x01'
p132
tp133
Rp134
ag134
ag134
ag134
ag131
ag131
ag134
ag134
ag134
ag134
asaa(lp135
S'index'
p136
aI101866
aatp137
Rp138
.