ccollections
OrderedDict
p0
((lp1
(lp2
S'combination_dict'
p3
ag0
((lp4
(lp5
S'r_to_g_config'
p6
aS'br'
p7
aa(lp8
S'num_turns'
p9
aI3
aa(lp10
S'start_direction'
p11
acutils_ms
StartDirection
p12
(I1
tp13
Rp14
aa(lp15
S'assistance_type'
p16
acutils_ms
AssistanceType
p17
(I0
tp18
Rp19
aa(lp20
S'start_mode'
p21
aS'x'
p22
aa(lp23
S'ui_given_a_noise'
p24
aF0.3
aa(lp25
S'um_given_ui_noise'
p26
aF0.1
aa(lp27
S'entropy_threshold'
p28
aF0.7
aatp29
Rp30
aa(lp31
S'data'
p32
accollections
defaultdict
p33
(c__builtin__
list
p34
tp35
Rp36
S'a'
p37
(lp38
S'mode_r'
p39
aS'move_n'
p40
aS'mode_l'
p41
aS'move_p'
p42
ag41
ag42
ag41
ag42
ag42
ag41
ag40
ag39
ag40
ag39
ag40
ag41
ag42
asS'assistance_match_with_ground_truth'
p43
(lp44
I01
aI01
aI01
aI00
aI01
aI01
aI01
aI00
aI01
aI01
aI00
aI01
aI00
aI01
aI01
aI01
aI01
asS'is_u_intended_equals_um'
p45
(lp46
I01
aI01
aI01
aI01
aI01
aI01
aI01
aI00
aI01
aI01
aI01
aI01
aI01
aI01
aI01
aI01
aI01
asS'total_steps'
p47
I17
sS'normalized_h_of_p_ui_given_um'
p48
(lp49
cnumpy.core.multiarray
scalar
p50
(cnumpy
dtype
p51
(S'f8'
p52
I0
I1
tp53
Rp54
(I3
S'<'
p55
NNNI-1
I-1
I0
tp56
bS'\x95\x8a\xa7\x81m\xe3\xad?'
p57
tp58
Rp59
ag50
(g54
S'<\xa3\x0eG\x1c\x18\xa8?'
p60
tp61
Rp62
ag50
(g54
S'o\x7f\xf82K\xf2\xaf?'
p63
tp64
Rp65
ag50
(g54
S'\xb6J\xc0\xf2\xa1\xc0\xe2?'
p66
tp67
Rp68
ag50
(g54
S'o\x7f\xf82K\xf2\xaf?'
p69
tp70
Rp71
ag50
(g54
S'\x13"e\xc5\x02\x07\xab?'
p72
tp73
Rp74
ag50
(g54
S'o\x7f\xf82K\xf2\xaf?'
p75
tp76
Rp77
ag50
(g54
S'#u\x08>\x94l\xe4?'
p78
tp79
Rp80
ag50
(g54
S'\x13"e\xc5\x02\x07\xab?'
p81
tp82
Rp83
ag50
(g54
S'o\x7f\xf82K\xf2\xaf?'
p84
tp85
Rp86
ag50
(g54
S'\xfd\x14\xbeX,\xf9\xdc?'
p87
tp88
Rp89
ag50
(g54
S'\x95\x8a\xa7\x81m\xe3\xad?'
p90
tp91
Rp92
ag50
(g54
S'\xfd\x14\xbeX,\xf9\xdc?'
p93
tp94
Rp95
ag50
(g54
S'\x95\x8a\xa7\x81m\xe3\xad?'
p96
tp97
Rp98
ag50
(g54
S'<\xa3\x0eG\x1c\x18\xa8?'
p99
tp100
Rp101
ag50
(g54
S'o\x7f\xf82K\xf2\xaf?'
p102
tp103
Rp104
ag50
(g54
S'\x13"e\xc5\x02\x07\xab?'
p105
tp106
Rp107
asS'sp'
p108
(lp109
(S'p0'
p110
I0
S'y'
p111
tp112
a(S'p1'
p113
I0
g111
tp114
a(g113
I0
S'x'
p115
tp116
a(g113
I0
g111
tp117
ag116
a(S'p2'
p118
I0
g115
tp119
a(g118
I0
S't'
p120
tp121
ag121
a(g118
F1.5707963267948966
g120
tp122
a(g118
F1.5707963267948966
g111
tp123
a(g118
F1.5707963267948966
g115
tp124
a(g118
F1.5707963267948966
g111
tp125
ag124
ag125
a(S'p3'
p126
F1.5707963267948966
g111
tp127
a(g126
F1.5707963267948966
g115
tp128
a(S'p4'
p129
F1.5707963267948966
g115
tp130
asS's'
p131
(lp132
(g110
I0
g22
tp133
ag112
ag114
ag116
ag117
ag116
ag119
ag121
ag121
ag122
ag123
ag124
ag125
ag124
ag125
ag127
ag128
asS'ui'
p134
(lp135
S'hp'
p136
aS'ss'
p137
aS'hs'
p138
ag136
ag138
ag108
ag138
ag108
ag108
ag138
ag138
ag136
ag138
ag136
ag137
ag138
ag108
asS'um_before'
p139
(lp140
g136
ag137
ag138
ag136
ag138
ag108
ag138
ag137
ag108
ag138
ag138
ag136
ag138
ag136
ag137
ag138
ag108
asS'um_after'
p141
(lp142
g136
ag137
ag138
ag136
ag138
ag108
ag138
aNag108
ag138
ag138
ag136
ag138
ag136
ag137
ag138
ag108
asS'is_normalized_entropy_less_than_threshold'
p143
(lp144
g50
(g51
(S'b1'
p145
I0
I1
tp146
Rp147
(I3
S'|'
p148
NNNI-1
I-1
I0
tp149
bS'\x01'
p150
tp151
Rp152
ag152
ag152
ag152
ag152
ag152
ag152
ag152
ag152
ag152
ag152
ag152
ag152
ag152
ag152
ag152
ag152
asaa(lp153
S'index'
p154
aI110629
aatp155
Rp156
.