ccollections
OrderedDict
p0
((lp1
(lp2
S'combination_dict'
p3
ag0
((lp4
(lp5
S'r_to_g_config'
p6
aS'bl'
p7
aa(lp8
S'num_turns'
p9
aI3
aa(lp10
S'start_direction'
p11
acutils_ms
StartDirection
p12
(I0
tp13
Rp14
aa(lp15
S'assistance_type'
p16
acutils_ms
AssistanceType
p17
(I0
tp18
Rp19
aa(lp20
S'start_mode'
p21
aS't'
p22
aa(lp23
S'ui_given_a_noise'
p24
aF0.7
aa(lp25
S'um_given_ui_noise'
p26
aF0.3
aa(lp27
S'entropy_threshold'
p28
aF0.8
aatp29
Rp30
aa(lp31
S'data'
p32
accollections
defaultdict
p33
(c__builtin__
list
p34
tp35
Rp36
S'a'
p37
(lp38
S'mode_r'
p39
aS'move_n'
p40
aS'mode_l'
p41
aS'move_p'
p42
ag39
ag41
ag42
ag39
ag42
ag41
ag42
ag41
ag41
ag41
ag42
ag39
ag41
ag42
ag41
ag40
ag39
ag40
ag41
ag41
ag40
ag41
ag41
ag40
ag39
ag40
ag39
ag40
ag41
ag40
ag41
ag40
ag41
ag41
ag40
ag39
ag39
ag40
asS'assistance_match_with_ground_truth'
p43
(lp44
I01
aI01
aI01
aI00
aI00
aI01
aI00
aI01
aI01
aI00
aI00
aI00
aI00
aI01
aI00
aI00
aI01
aI01
aI01
aI00
aI01
aI00
aI00
aI01
aI00
aI00
aI01
aI00
aI01
aI01
aI01
aI01
aI01
aI00
aI01
aI00
aI00
aI01
aI01
aI00
aI01
aI01
asS'is_u_intended_equals_um'
p45
(lp46
I01
aI01
aI01
aI01
aI01
aI01
aI01
aI01
aI01
aI01
aI01
aI01
aI01
aI01
aI01
aI01
aI01
aI01
aI01
aI01
aI01
aI01
aI01
aI01
aI00
aI00
aI01
aI01
aI01
aI01
aI01
aI01
aI01
aI01
aI01
aI01
aI01
aI01
aI01
aI00
aI01
aI01
asS'total_steps'
p47
I42
sS'normalized_h_of_p_ui_given_um'
p48
(lp49
cnumpy.core.multiarray
scalar
p50
(cnumpy
dtype
p51
(S'f8'
p52
I0
I1
tp53
Rp54
(I3
S'<'
p55
NNNI-1
I-1
I0
tp56
bS'.\xd5\x99F\x80\x95\xd2?'
p57
tp58
Rp59
ag50
(g54
S'\xa3n\xbfV\xc9\x9c\xd4?'
p60
tp61
Rp62
ag50
(g54
S'H\x8a\xac\xa9\x1e\x80\xcb?'
p63
tp64
Rp65
ag50
(g54
S'\x03\xb2\xd81,\x06\xd9?'
p66
tp67
Rp68
ag50
(g54
S'\x00\x85L\xb2L\xe9\xdc?'
p69
tp70
Rp71
ag50
(g54
S'H\x8a\xac\xa9\x1e\x80\xcb?'
p72
tp73
Rp74
ag50
(g54
S'\x03\xb2\xd81,\x06\xd9?'
p75
tp76
Rp77
ag50
(g54
S'.\xd5\x99F\x80\x95\xd2?'
p78
tp79
Rp80
ag50
(g54
S'\x86Z\xe3\xc0\x99\xd5\xd0?'
p81
tp82
Rp83
ag50
(g54
S'\xeb\xc76\xf2\x0cQ\xe9?'
p84
tp85
Rp86
ag50
(g54
S'\xe2#\x96a\x89\xd5\xe4?'
p87
tp88
Rp89
ag50
(g54
S'\xeb\xc76\xf2\x0cQ\xe9?'
p90
tp91
Rp92
ag50
(g54
S'\xeb\xc76\xf2\x0cQ\xe9?'
p93
tp94
Rp95
ag50
(g54
S'H\x8a\xac\xa9\x1e\x80\xcb?'
p96
tp97
Rp98
ag50
(g54
S'\x03\xb2\xd81,\x06\xd9?'
p99
tp100
Rp101
ag50
(g54
S'\x00\x85L\xb2L\xe9\xdc?'
p102
tp103
Rp104
ag50
(g54
S'H\x8a\xac\xa9\x1e\x80\xcb?'
p105
tp106
Rp107
ag50
(g54
S'\x86Z\xe3\xc0\x99\xd5\xd0?'
p108
tp109
Rp110
ag50
(g54
S'H\x8a\xac\xa9\x1e\x80\xcb?'
p111
tp112
Rp113
ag50
(g54
S'O%\r\x1b^?\xe2?'
p114
tp115
Rp116
ag50
(g54
S'.\xd5\x99F\x80\x95\xd2?'
p117
tp118
Rp119
ag50
(g54
S'\xb6\xec\xf4=\xdcb\xe1?'
p120
tp121
Rp122
ag50
(g54
S'\xcd\xe0vW\xde\x9e\xd3?'
p123
tp124
Rp125
ag50
(g54
S'H\x8a\xac\xa9\x1e\x80\xcb?'
p126
tp127
Rp128
ag50
(g54
S'\x9e\x84\x9d\xe7\xd5\xa7\xe9?'
p129
tp130
Rp131
ag50
(g54
S'_U\xdb"\xf1\xe3\xe6?'
p132
tp133
Rp134
ag50
(g54
S'H\x8a\xac\xa9\x1e\x80\xcb?'
p135
tp136
Rp137
ag50
(g54
S'O%\r\x1b^?\xe2?'
p138
tp139
Rp140
ag50
(g54
S'.\xd5\x99F\x80\x95\xd2?'
p141
tp142
Rp143
ag50
(g54
S'\xa3n\xbfV\xc9\x9c\xd4?'
p144
tp145
Rp146
ag50
(g54
S'.\xd5\x99F\x80\x95\xd2?'
p147
tp148
Rp149
ag50
(g54
S'\xa3n\xbfV\xc9\x9c\xd4?'
p150
tp151
Rp152
ag50
(g54
S'H\x8a\xac\xa9\x1e\x80\xcb?'
p153
tp154
Rp155
ag50
(g54
S'\xb6\xec\xf4=\xdcb\xe1?'
p156
tp157
Rp158
ag50
(g54
S'H\x8a\xac\xa9\x1e\x80\xcb?'
p159
tp160
Rp161
ag50
(g54
S'\xb6\xec\xf4=\xdcb\xe1?'
p162
tp163
Rp164
ag50
(g54
S'\xcd\xe0vW\xde\x9e\xd3?'
p165
tp166
Rp167
ag50
(g54
S'H\x8a\xac\xa9\x1e\x80\xcb?'
p168
tp169
Rp170
ag50
(g54
S'\xa3n\xbfV\xc9\x9c\xd4?'
p171
tp172
Rp173
ag50
(g54
S'x\x83T\xe7H(\xea?'
p174
tp175
Rp176
ag50
(g54
S'.\xd5\x99F\x80\x95\xd2?'
p177
tp178
Rp179
ag50
(g54
S'\xa3n\xbfV\xc9\x9c\xd4?'
p180
tp181
Rp182
asS'sp'
p183
(lp184
(S'p0'
p185
I0
S'x'
p186
tp187
a(S'p1'
p188
I0
g186
tp189
a(g188
I0
S't'
p190
tp191
a(g188
I0
S'y'
p192
tp193
a(g188
I0
g186
tp194
ag191
ag193
a(g188
I0
g190
tp195
a(g188
F1.5707963267948966
g190
tp196
a(g188
I0
g190
tp197
a(g188
I0
g186
tp198
a(g188
I0
g186
tp199
ag199
ag191
ag193
ag194
ag191
ag196
a(g188
F1.5707963267948966
g192
tp200
a(g188
F1.5707963267948966
g186
tp201
a(g188
F1.5707963267948966
g192
tp202
a(g188
F1.5707963267948966
g190
tp203
a(g188
F1.5707963267948966
g190
tp204
ag200
a(g185
F1.5707963267948966
g192
tp205
ag205
a(g185
F1.5707963267948966
g186
tp206
a(g185
F1.5707963267948966
g190
tp207
a(g185
F1.5707963267948966
g186
tp208
a(g188
F1.5707963267948966
g186
tp209
ag202
a(S'p2'
p210
F1.5707963267948966
g192
tp211
a(g210
F1.5707963267948966
g186
tp212
a(g210
F1.5707963267948966
g192
tp213
ag212
ag213
a(g210
F1.5707963267948966
g192
tp214
ag212
a(S'p3'
p215
F1.5707963267948966
g186
tp216
a(g215
F1.5707963267948966
g186
tp217
a(g215
F1.5707963267948966
g192
tp218
a(S'p4'
p219
F1.5707963267948966
g192
tp220
asS's'
p221
(lp222
(g185
I0
g22
tp223
ag187
ag189
ag191
ag193
ag194
ag191
ag193
ag195
ag196
ag197
ag198
ag199
ag199
ag191
ag193
ag194
ag191
ag196
ag200
ag201
ag202
ag203
ag204
ag200
ag205
ag205
ag206
ag207
ag208
ag209
ag202
ag211
ag212
ag213
ag212
ag213
ag214
ag212
ag216
ag217
ag218
asS'ui'
p224
(lp225
S'hp'
p226
aS'ss'
p227
aS'hs'
p228
ag228
ag228
ag228
ag228
ag226
ag183
ag228
ag226
ag228
ag183
ag228
ag226
ag226
ag228
ag183
ag228
ag227
ag226
ag226
ag183
ag228
ag227
ag183
ag228
ag226
ag226
ag227
ag183
ag227
ag228
ag226
ag228
ag226
ag183
ag228
ag227
ag226
ag226
ag227
asS'um_before'
p229
(lp230
g226
ag227
ag228
ag228
ag228
ag228
ag228
ag226
ag183
ag227
ag226
ag227
ag227
ag228
ag228
ag228
ag228
ag183
ag228
ag228
ag226
ag226
ag183
ag228
ag183
ag226
ag228
ag228
ag226
ag227
ag226
ag227
ag228
ag226
ag228
ag226
ag183
ag228
ag227
ag183
ag226
ag227
asS'um_after'
p231
(lp232
g226
ag227
ag228
ag228
ag228
ag228
ag228
ag226
ag183
ag227
ag226
ag227
ag227
ag228
ag228
ag228
ag228
ag183
ag228
ag228
ag226
ag226
ag183
ag228
ag183
aNag228
ag228
ag226
ag227
ag226
ag227
ag228
ag226
ag228
ag226
ag183
ag228
ag227
ag183
ag226
ag227
asS'is_normalized_entropy_less_than_threshold'
p233
(lp234
g50
(g51
(S'b1'
p235
I0
I1
tp236
Rp237
(I3
S'|'
p238
NNNI-1
I-1
I0
tp239
bS'\x01'
p240
tp241
Rp242
ag242
ag242
ag242
ag242
ag242
ag242
ag242
ag242
ag242
ag242
ag242
ag242
ag242
ag242
ag242
ag242
ag242
ag242
ag242
ag242
ag242
ag242
ag242
ag50
(g237
S'\x00'
p243
tp244
Rp245
ag242
ag242
ag242
ag242
ag242
ag242
ag242
ag242
ag242
ag242
ag242
ag242
ag242
ag242
ag245
ag242
ag242
asaa(lp246
S'index'
p247
aI77483
aatp248
Rp249
.