ccollections
OrderedDict
p0
((lp1
(lp2
S'combination_dict'
p3
ag0
((lp4
(lp5
S'r_to_g_config'
p6
aS'tr'
p7
aa(lp8
S'num_turns'
p9
aI3
aa(lp10
S'start_direction'
p11
acutils_ms
StartDirection
p12
(I0
tp13
Rp14
aa(lp15
S'assistance_type'
p16
acutils_ms
AssistanceType
p17
(I1
tp18
Rp19
aa(lp20
S'start_mode'
p21
aS'y'
p22
aa(lp23
S'ui_given_a_noise'
p24
aF0.3
aa(lp25
S'um_given_ui_noise'
p26
aF0.3
aa(lp27
S'entropy_threshold'
p28
aF0.7
aatp29
Rp30
aa(lp31
S'data'
p32
accollections
defaultdict
p33
(c__builtin__
list
p34
tp35
Rp36
S'a'
p37
(lp38
S'mode_l'
p39
aS'move_p'
p40
ag39
ag39
ag40
ag39
ag40
ag39
aS'mode_r'
p41
ag40
ag39
ag41
ag40
ag41
ag40
ag39
ag39
ag40
ag41
ag41
ag41
ag40
ag39
ag40
asS'assistance_match_with_ground_truth'
p42
(lp43
I01
aI01
aI00
aI01
aI01
aI01
aI01
aI00
aI01
aI00
aI00
aI01
aI01
aI01
aI00
aI00
aI01
aI01
aI00
aI00
aI01
aI00
aI01
aI01
asS'is_u_intended_equals_um'
p44
(lp45
I01
aI01
aI01
aI01
aI01
aI01
aI01
aI01
aI01
aI00
aI01
aI00
aI01
aI01
aI01
aI01
aI01
aI01
aI00
aI00
aI00
aI00
aI01
aI01
asS'total_steps'
p46
I24
sS'normalized_h_of_p_ui_given_um'
p47
(lp48
cnumpy.core.multiarray
scalar
p49
(cnumpy
dtype
p50
(S'f8'
p51
I0
I1
tp52
Rp53
(I3
S'<'
p54
NNNI-1
I-1
I0
tp55
bS'\x0f\x19\xe6\xf7\x88\x08\xd5?'
p56
tp57
Rp58
ag49
(g53
S'J\xa5\x08L^\xb4\xc3?'
p59
tp60
Rp61
ag49
(g53
S'\t;VA+\xbc\xe6?'
p62
tp63
Rp64
ag49
(g53
S'\x0f\x19\xe6\xf7\x88\x08\xd5?'
p65
tp66
Rp67
ag49
(g53
S'J\xa5\x08L^\xb4\xc3?'
p68
tp69
Rp70
ag49
(g53
S'\x0f\x19\xe6\xf7\x88\x08\xd5?'
p71
tp72
Rp73
ag49
(g53
S'J\xa5\x08L^\xb4\xc3?'
p74
tp75
Rp76
ag49
(g53
S'\xdeg8\xb4J\x8f\xe8?'
p77
tp78
Rp79
ag49
(g53
S'\xcd\x14mK\x84\xe3\xca?'
p80
tp81
Rp82
ag49
(g53
S'\x84\x89H\x04<9\xea?'
p83
tp84
Rp85
ag49
(g53
S'\xdeg8\xb4J\x8f\xe8?'
p86
tp87
Rp88
ag49
(g53
S'\x01Wt\xf8\t\x00\xe3?'
p89
tp90
Rp91
ag49
(g53
S'J\xa5\x08L^\xb4\xc3?'
p92
tp93
Rp94
ag49
(g53
S'\xcd\x14mK\x84\xe3\xca?'
p95
tp96
Rp97
ag49
(g53
S'\xf2\x01\xf0\xa4\xa0\xc8\xe1?'
p98
tp99
Rp100
ag49
(g53
S'\t;VA+\xbc\xe6?'
p101
tp102
Rp103
ag49
(g53
S'\x0f\x19\xe6\xf7\x88\x08\xd5?'
p104
tp105
Rp106
ag49
(g53
S'J\xa5\x08L^\xb4\xc3?'
p107
tp108
Rp109
ag49
(g53
S'\x15\xbe(\xd9\xcbm\xef?'
p110
tp111
Rp112
ag49
(g53
S'\x15\xbe(\xd9\xcbm\xef?'
p113
tp114
Rp115
ag49
(g53
S'\x01Wt\xf8\t\x00\xe3?'
p116
tp117
Rp118
ag49
(g53
S'\x84\x89H\x04<9\xea?'
p119
tp120
Rp121
ag49
(g53
S'\x0f\x19\xe6\xf7\x88\x08\xd5?'
p122
tp123
Rp124
ag49
(g53
S'J\xa5\x08L^\xb4\xc3?'
p125
tp126
Rp127
asS'sp'
p128
(lp129
(S'p0'
p130
I0
S'x'
p131
tp132
a(S'p1'
p133
I0
g131
tp134
a(g133
I0
g131
tp135
a(g133
I0
S't'
p136
tp137
a(g133
F1.5707963267948966
g136
tp138
a(g133
F1.5707963267948966
S'y'
p139
tp140
a(S'p2'
p141
F1.5707963267948966
g139
tp142
a(g141
F1.5707963267948966
g136
tp143
a(g141
F1.5707963267948966
g131
tp144
a(g141
F1.5707963267948966
g139
tp145
ag143
ag144
a(S'p3'
p146
F1.5707963267948966
g131
tp147
a(g146
F1.5707963267948966
g139
tp148
a(g141
F1.5707963267948966
g139
tp149
a(g141
F1.5707963267948966
g139
tp150
a(g141
F1.5707963267948966
g131
tp151
ag147
a(g146
F1.5707963267948966
g131
tp152
ag152
ag148
a(g146
F1.5707963267948966
g136
tp153
a(g146
F1.5707963267948966
g139
tp154
a(S'p4'
p155
F1.5707963267948966
g139
tp156
asS's'
p157
(lp158
(g130
I0
g22
tp159
ag132
ag134
ag135
ag137
ag138
ag140
ag142
ag143
ag144
ag145
ag143
ag144
ag147
ag148
ag149
ag150
ag151
ag147
ag152
ag152
ag148
ag153
ag154
asS'ui'
p160
(lp161
S'hs'
p162
ag128
ag162
ag162
ag128
ag162
ag128
aS'hp'
p163
ag128
aS'ss'
p164
ag163
ag163
ag128
ag163
ag128
ag128
ag163
ag128
ag163
ag164
ag162
ag163
ag162
ag128
asS'um_before'
p165
(lp166
g162
ag128
ag128
ag162
ag128
ag162
ag128
ag163
ag163
ag163
ag163
ag162
ag128
ag163
ag164
ag128
ag162
ag128
ag164
ag164
ag162
ag163
ag162
ag128
asS'um_after'
p167
(lp168
g162
ag128
ag128
ag162
ag128
ag162
ag128
ag163
ag163
ag163
ag163
ag163
ag128
ag163
ag164
ag128
ag162
ag128
ag164
ag164
ag163
ag163
ag162
ag128
asS'is_normalized_entropy_less_than_threshold'
p169
(lp170
g49
(g50
(S'b1'
p171
I0
I1
tp172
Rp173
(I3
S'|'
p174
NNNI-1
I-1
I0
tp175
bS'\x01'
p176
tp177
Rp178
ag178
ag49
(g173
S'\x00'
p179
tp180
Rp181
ag178
ag178
ag178
ag178
ag181
ag178
ag181
ag181
ag178
ag178
ag178
ag178
ag181
ag178
ag178
ag181
ag181
ag178
ag181
ag178
ag178
asaa(lp182
S'index'
p183
aI21876
aatp184
Rp185
.