ccollections
OrderedDict
p0
((lp1
(lp2
S'combination_dict'
p3
ag0
((lp4
(lp5
S'r_to_g_config'
p6
aS'bl'
p7
aa(lp8
S'num_turns'
p9
aI2
aa(lp10
S'start_direction'
p11
acutils_ms
StartDirection
p12
(I1
tp13
Rp14
aa(lp15
S'assistance_type'
p16
acutils_ms
AssistanceType
p17
(I2
tp18
Rp19
aa(lp20
S'start_mode'
p21
aS't'
p22
aa(lp23
S'ui_given_a_noise'
p24
aF0.5
aa(lp25
S'um_given_ui_noise'
p26
aF0.3
aa(lp27
S'entropy_threshold'
p28
aF0.9
aatp29
Rp30
aa(lp31
S'data'
p32
accollections
defaultdict
p33
(c__builtin__
list
p34
tp35
Rp36
S'a'
p37
(lp38
S'mode_l'
p39
ag39
ag39
ag39
aS'move_n'
p40
aS'mode_r'
p41
ag41
ag40
ag40
ag40
ag41
ag41
ag39
aS'move_p'
p42
ag39
ag42
ag39
ag41
ag41
ag41
ag41
ag41
ag42
ag41
ag40
ag41
ag39
ag39
ag40
ag41
ag40
ag41
ag40
ag39
ag40
ag39
ag41
ag41
ag40
ag41
ag39
ag40
ag41
ag39
ag39
ag41
ag40
ag39
ag40
ag41
ag39
ag40
asS'assistance_match_with_ground_truth'
p43
(lp44
I00
aI00
aI00
aI01
aI00
aI00
aI01
aI00
aI00
aI01
aI00
aI00
aI01
aI00
aI01
aI00
aI00
aI00
aI00
aI00
aI00
aI01
aI01
aI01
aI00
aI00
aI00
aI01
aI00
aI01
aI00
aI01
aI01
aI01
aI00
aI00
aI00
aI01
aI00
aI00
aI01
aI01
aI00
aI00
aI00
aI01
aI00
aI01
aI00
aI00
aI01
aI01
asS'is_u_intended_equals_um'
p45
(lp46
I00
aI00
aI00
aI00
aI00
aI00
aI00
aI00
aI00
aI00
aI00
aI00
aI00
aI00
aI00
aI00
aI00
aI00
aI00
aI00
aI00
aI00
aI00
aI00
aI00
aI00
aI00
aI00
aI00
aI00
aI00
aI00
aI00
aI00
aI00
aI00
aI00
aI00
aI00
aI00
aI00
aI00
aI00
aI00
aI00
aI00
aI00
aI00
aI00
aI00
aI00
aI00
asS'total_steps'
p47
I52
sS'normalized_h_of_p_ui_given_um'
p48
(lp49
cnumpy.core.multiarray
scalar
p50
(cnumpy
dtype
p51
(S'f8'
p52
I0
I1
tp53
Rp54
(I3
S'<'
p55
NNNI-1
I-1
I0
tp56
bS'4\xe9\x1d\x8e\x06\x83\xea?'
p57
tp58
Rp59
ag59
ag59
ag59
ag59
ag59
ag59
ag59
ag59
ag59
ag59
ag59
ag59
ag59
ag59
ag59
ag59
ag59
ag59
ag59
ag59
ag59
ag59
ag59
ag59
ag59
ag59
ag59
ag59
ag59
ag59
ag59
ag59
ag59
ag59
ag59
ag59
ag59
ag59
ag59
ag59
ag59
ag59
ag59
ag59
ag59
ag59
ag59
ag59
ag59
ag59
ag59
asS'sp'
p60
(lp61
(S'p0'
p62
I0
S't'
p63
tp64
a(g62
I0
g63
tp65
ag65
a(g62
I0
S'y'
p66
tp67
a(g62
I0
S'x'
p68
tp69
a(g62
I0
g68
tp70
a(g62
I0
g66
tp71
a(g62
I0
g66
tp72
ag72
a(S'p1'
p73
I0
g66
tp74
a(g73
I0
g66
tp75
a(g73
I0
g68
tp76
a(g73
I0
g63
tp77
a(g73
I0
g68
tp78
ag77
ag78
a(g73
I0
g66
tp79
ag75
a(g73
I0
g66
tp80
ag80
ag80
a(g73
I0
g63
tp81
a(g73
F1.5707963267948966
g63
tp82
a(g73
F1.5707963267948966
g68
tp83
a(g73
F1.5707963267948966
g63
tp84
a(g73
F1.5707963267948966
g66
tp85
a(g73
F1.5707963267948966
g66
tp86
a(g73
F1.5707963267948966
g68
tp87
ag84
ag83
a(g62
F1.5707963267948966
g68
tp88
a(g62
F1.5707963267948966
g66
tp89
a(g73
F1.5707963267948966
g66
tp90
ag87
a(g73
F1.5707963267948966
g66
tp91
a(g73
F1.5707963267948966
g63
tp92
a(g73
F1.5707963267948966
g63
tp93
ag83
ag84
ag85
ag87
a(S'p2'
p94
F1.5707963267948966
g68
tp95
a(g94
F1.5707963267948966
g63
tp96
a(g94
F1.5707963267948966
g63
tp97
a(g94
F1.5707963267948966
g68
tp98
a(g94
F1.5707963267948966
g66
tp99
a(g94
F1.5707963267948966
g63
tp100
a(g94
F1.5707963267948966
g66
tp101
a(g94
F1.5707963267948966
g68
tp102
ag96
ag101
a(S'p3'
p103
F1.5707963267948966
g66
tp104
asS's'
p105
(lp106
(g62
I0
g22
tp107
ag64
ag65
ag65
ag67
ag69
ag70
ag71
ag72
ag72
ag74
ag75
ag76
ag77
ag78
ag77
ag78
ag79
ag75
ag80
ag80
ag80
ag81
ag82
ag83
ag84
ag85
ag86
ag87
ag84
ag83
ag88
ag89
ag90
ag87
ag91
ag92
ag93
ag83
ag84
ag85
ag87
ag95
ag96
ag97
ag98
ag99
ag100
ag101
ag102
ag96
ag101
asS'ui'
p108
(lp109
g60
aS'hs'
p110
aS'hp'
p111
ag110
ag110
ag111
ag111
ag110
ag60
aS'ss'
p112
ag112
ag110
ag110
ag111
ag110
ag111
ag111
ag112
ag60
ag111
ag110
ag111
ag60
ag112
ag110
ag110
ag110
ag110
ag110
ag111
ag60
ag112
ag112
ag110
ag110
ag111
ag111
ag111
ag112
ag110
ag110
ag112
ag110
ag60
ag111
ag111
ag110
ag110
ag112
ag112
ag110
ag60
asS'um_before'
p113
(lp114
g60
ag112
ag112
ag110
ag110
ag60
ag111
ag60
ag60
ag112
ag112
ag110
ag110
ag111
ag110
ag111
ag111
ag112
ag60
ag60
ag60
ag111
ag60
ag111
ag110
ag110
ag60
ag110
ag110
ag111
ag60
ag111
ag112
ag110
ag111
ag111
ag60
ag111
ag110
ag110
ag110
ag112
ag110
ag60
ag111
ag111
ag111
ag110
ag110
ag110
ag110
ag112
asS'um_after'
p115
(lp116
g60
ag112
ag112
ag110
ag110
ag60
ag111
ag60
ag60
ag112
ag112
ag110
ag110
ag111
ag110
ag111
ag111
ag112
ag60
ag60
ag60
ag111
ag60
ag111
ag110
ag110
ag60
ag110
ag110
ag111
ag60
ag111
ag112
ag110
ag111
ag111
ag60
ag111
ag110
ag110
ag110
ag112
ag110
ag60
ag111
ag111
ag111
ag110
ag110
ag110
ag110
ag112
asS'is_normalized_entropy_less_than_threshold'
p117
(lp118
g50
(g51
(S'b1'
p119
I0
I1
tp120
Rp121
(I3
S'|'
p122
NNNI-1
I-1
I0
tp123
bS'\x01'
p124
tp125
Rp126
ag126
ag126
ag126
ag126
ag126
ag126
ag126
ag126
ag126
ag126
ag126
ag126
ag126
ag126
ag126
ag126
ag126
ag126
ag126
ag126
ag126
ag126
ag126
ag126
ag126
ag126
ag126
ag126
ag126
ag126
ag126
ag126
ag126
ag126
ag126
ag126
ag126
ag126
ag126
ag126
ag126
ag126
ag126
ag126
ag126
ag126
ag126
ag126
ag126
ag126
ag126
asaa(lp127
S'index'
p128
aI76495
aatp129
Rp130
.