ccollections
OrderedDict
p0
((lp1
(lp2
S'combination_dict'
p3
ag0
((lp4
(lp5
S'r_to_g_config'
p6
aS'bl'
p7
aa(lp8
S'num_turns'
p9
aI3
aa(lp10
S'start_direction'
p11
acutils_ms
StartDirection
p12
(I1
tp13
Rp14
aa(lp15
S'assistance_type'
p16
acutils_ms
AssistanceType
p17
(I0
tp18
Rp19
aa(lp20
S'start_mode'
p21
aS't'
p22
aa(lp23
S'ui_given_a_noise'
p24
aF0.7
aa(lp25
S'um_given_ui_noise'
p26
aF0.1
aa(lp27
S'entropy_threshold'
p28
aF0.6
aatp29
Rp30
aa(lp31
S'data'
p32
accollections
defaultdict
p33
(c__builtin__
list
p34
tp35
Rp36
S'a'
p37
(lp38
S'mode_l'
p39
aS'move_n'
p40
aS'mode_r'
p41
ag41
ag41
ag41
ag41
aS'move_p'
p42
ag39
ag41
ag40
ag41
ag42
ag39
ag41
ag40
ag41
ag42
ag42
ag39
ag42
ag41
ag41
ag40
ag41
ag41
ag40
ag39
ag40
ag39
ag41
ag41
ag40
asS'assistance_match_with_ground_truth'
p43
(lp44
I01
aI01
aI00
aI00
aI00
aI00
aI01
aI00
aI00
aI01
aI01
aI01
aI00
aI00
aI01
aI01
aI01
aI00
aI00
aI01
aI01
aI00
aI01
aI01
aI00
aI01
aI00
aI01
aI01
aI00
aI00
aI01
aI01
asS'is_u_intended_equals_um'
p45
(lp46
I01
aI01
aI01
aI01
aI01
aI01
aI01
aI01
aI01
aI01
aI01
aI01
aI01
aI01
aI01
aI01
aI01
aI01
aI01
aI01
aI01
aI01
aI01
aI01
aI01
aI01
aI01
aI01
aI01
aI01
aI01
aI01
aI01
asS'total_steps'
p47
I33
sS'normalized_h_of_p_ui_given_um'
p48
(lp49
cnumpy.core.multiarray
scalar
p50
(cnumpy
dtype
p51
(S'f8'
p52
I0
I1
tp53
Rp54
(I3
S'<'
p55
NNNI-1
I-1
I0
tp56
bS'7\xa4\x8b\x8a\xf3&\xb7?'
p57
tp58
Rp59
ag50
(g54
S'\xa6\xcb\xe5=g\x8e\xc3?'
p60
tp61
Rp62
ag50
(g54
S'\xfaW\xc0\x97\x9f\xa9\xdd?'
p63
tp64
Rp65
ag50
(g54
S'r\xcc\xb3\xdbR%\xd5?'
p66
tp67
Rp68
ag50
(g54
S'r\xcc\xb3\xdbR%\xd5?'
p69
tp70
Rp71
ag50
(g54
S'\xfaW\xc0\x97\x9f\xa9\xdd?'
p72
tp73
Rp74
ag50
(g54
S'\x83\x1f\xbc 8T\xd1?'
p75
tp76
Rp77
ag50
(g54
S'\x17\x86X\x88\xa0a\xe1?'
p78
tp79
Rp80
ag50
(g54
S'\x8aXs\xe7\xb5A\xe7?'
p81
tp82
Rp83
ag50
(g54
S'\x83\x1f\xbc 8T\xd1?'
p84
tp85
Rp86
ag50
(g54
S'\xa6\xcb\xe5=g\x8e\xc3?'
p87
tp88
Rp89
ag50
(g54
S'\x83\x1f\xbc 8T\xd1?'
p90
tp91
Rp92
ag50
(g54
S'\x17\x86X\x88\xa0a\xe1?'
p93
tp94
Rp95
ag50
(g54
S'\x8aXs\xe7\xb5A\xe7?'
p96
tp97
Rp98
ag50
(g54
S'\x83\x1f\xbc 8T\xd1?'
p99
tp100
Rp101
ag50
(g54
S'\xa6\xcb\xe5=g\x8e\xc3?'
p102
tp103
Rp104
ag50
(g54
S'\x83\x1f\xbc 8T\xd1?'
p105
tp106
Rp107
ag50
(g54
S'\xa0\xa2F\xf3\x00\x11\xd7?'
p108
tp109
Rp110
ag50
(g54
S'\x17\x86X\x88\xa0a\xe1?'
p111
tp112
Rp113
ag50
(g54
S'7\xa4\x8b\x8a\xf3&\xb7?'
p114
tp115
Rp116
ag50
(g54
S'\xa6Xec\xafl\xcb?'
p117
tp118
Rp119
ag50
(g54
S'\xfaW\xc0\x97\x9f\xa9\xdd?'
p120
tp121
Rp122
ag50
(g54
S'\x83\x1f\xbc 8T\xd1?'
p123
tp124
Rp125
ag50
(g54
S'\xa6\xcb\xe5=g\x8e\xc3?'
p126
tp127
Rp128
ag50
(g54
S'r\xcc\xb3\xdbR%\xd5?'
p129
tp130
Rp131
ag50
(g54
S'\x83\x1f\xbc 8T\xd1?'
p132
tp133
Rp134
ag50
(g54
S'\xf4\xad\xf5\xfd\xac\xdf\xe5?'
p135
tp136
Rp137
ag50
(g54
S'7\xa4\x8b\x8a\xf3&\xb7?'
p138
tp139
Rp140
ag50
(g54
S'\xa6\xcb\xe5=g\x8e\xc3?'
p141
tp142
Rp143
ag50
(g54
S'\x1f\x96Y\x0f\xbe\xf2\xd3?'
p144
tp145
Rp146
ag50
(g54
S'r\xcc\xb3\xdbR%\xd5?'
p147
tp148
Rp149
ag50
(g54
S'\x83\x1f\xbc 8T\xd1?'
p150
tp151
Rp152
ag50
(g54
S'\xa6\xcb\xe5=g\x8e\xc3?'
p153
tp154
Rp155
asS'sp'
p156
(lp157
(S'p0'
p158
I0
S'y'
p159
tp160
a(S'p1'
p161
I0
g159
tp162
a(g161
I0
g159
tp163
a(g161
I0
g159
tp164
ag164
ag163
a(g161
I0
S't'
p165
tp166
a(g161
I0
S'x'
p167
tp168
a(g158
I0
g167
tp169
a(g158
I0
g159
tp170
ag162
ag166
ag168
ag169
ag170
ag162
ag166
a(g161
I0
g165
tp171
ag168
a(g161
I0
g165
tp172
a(g161
F1.5707963267948966
g165
tp173
a(g161
F1.5707963267948966
g165
tp174
a(g161
F1.5707963267948966
g167
tp175
a(S'p2'
p176
F1.5707963267948966
g167
tp177
a(g176
F1.5707963267948966
g167
tp178
a(g176
F1.5707963267948966
g159
tp179
a(g176
F1.5707963267948966
g165
tp180
a(g176
F1.5707963267948966
g159
tp181
a(S'p3'
p182
F1.5707963267948966
g159
tp183
a(g182
F1.5707963267948966
g165
tp184
a(g182
F1.5707963267948966
g165
tp185
a(g182
F1.5707963267948966
g167
tp186
a(S'p4'
p187
F1.5707963267948966
g167
tp188
asS's'
p189
(lp190
(g158
I0
g22
tp191
ag160
ag162
ag163
ag164
ag164
ag163
ag166
ag168
ag169
ag170
ag162
ag166
ag168
ag169
ag170
ag162
ag166
ag171
ag168
ag172
ag173
ag174
ag175
ag177
ag178
ag179
ag180
ag181
ag183
ag184
ag185
ag186
asS'ui'
p192
(lp193
S'hs'
p194
aS'ss'
p195
aS'hp'
p196
ag195
ag195
ag156
ag196
ag196
ag194
ag196
ag195
ag196
ag196
ag194
ag196
ag195
ag196
ag195
ag196
ag196
ag156
ag196
ag196
ag195
ag195
ag196
ag195
ag194
ag195
ag196
ag195
ag196
ag195
asS'um_before'
p197
(lp198
g194
ag195
ag156
ag195
ag195
ag156
ag196
ag196
ag156
ag196
ag195
ag196
ag196
ag156
ag196
ag195
ag196
ag195
ag196
ag194
ag156
ag156
ag196
ag195
ag195
ag196
ag196
ag194
ag195
ag196
ag195
ag196
ag195
asS'um_after'
p199
(lp200
g194
ag195
ag156
ag195
ag195
ag156
ag196
ag196
ag156
ag196
ag195
ag196
ag196
ag156
ag196
ag195
ag196
ag195
ag196
ag194
ag156
ag156
ag196
ag195
ag195
ag196
ag196
ag194
ag195
ag196
ag195
ag196
ag195
asS'is_normalized_entropy_less_than_threshold'
p201
(lp202
g50
(g51
(S'b1'
p203
I0
I1
tp204
Rp205
(I3
S'|'
p206
NNNI-1
I-1
I0
tp207
bS'\x01'
p208
tp209
Rp210
ag210
ag210
ag210
ag210
ag210
ag210
ag210
ag50
(g205
S'\x00'
p211
tp212
Rp213
ag210
ag210
ag210
ag210
ag213
ag210
ag210
ag210
ag210
ag210
ag210
ag210
ag210
ag210
ag210
ag210
ag210
ag213
ag210
ag210
ag210
ag210
ag210
ag210
asaa(lp214
S'index'
p215
aI83017
aatp216
Rp217
.