ccollections
OrderedDict
p0
((lp1
(lp2
S'combination_dict'
p3
ag0
((lp4
(lp5
S'r_to_g_config'
p6
aS'tr'
p7
aa(lp8
S'num_turns'
p9
aI1
aa(lp10
S'start_direction'
p11
acutils_ms
StartDirection
p12
(I0
tp13
Rp14
aa(lp15
S'assistance_type'
p16
acutils_ms
AssistanceType
p17
(I1
tp18
Rp19
aa(lp20
S'start_mode'
p21
aS'y'
p22
aa(lp23
S'ui_given_a_noise'
p24
aF0.5
aa(lp25
S'um_given_ui_noise'
p26
aF0.1
aa(lp27
S'entropy_threshold'
p28
aF0.7
aatp29
Rp30
aa(lp31
S'data'
p32
accollections
defaultdict
p33
(c__builtin__
list
p34
tp35
Rp36
S'a'
p37
(lp38
S'mode_l'
p39
ag39
ag39
ag39
ag39
aS'move_p'
p40
aS'mode_r'
p41
ag40
ag39
ag39
ag40
ag40
ag39
ag40
ag39
ag39
ag40
ag41
ag39
ag40
ag41
ag40
asS'assistance_match_with_ground_truth'
p42
(lp43
I00
aI00
aI00
aI00
aI01
aI00
aI01
aI00
aI00
aI01
aI00
aI01
aI01
aI01
aI00
aI01
aI00
aI00
aI01
aI00
aI01
aI01
asS'is_u_intended_equals_um'
p44
(lp45
I01
aI01
aI01
aI01
aI01
aI01
aI01
aI01
aI01
aI01
aI01
aI01
aI01
aI01
aI01
aI01
aI01
aI01
aI01
aI01
aI01
aI01
asS'total_steps'
p46
I22
sS'normalized_h_of_p_ui_given_um'
p47
(lp48
cnumpy.core.multiarray
scalar
p49
(cnumpy
dtype
p50
(S'f8'
p51
I0
I1
tp52
Rp53
(I3
S'<'
p54
NNNI-1
I-1
I0
tp55
bS'\xab\xf6\xb1\x19\xba\xf7\xda?'
p56
tp57
Rp58
ag49
(g53
S'\xab\xf6\xb1\x19\xba\xf7\xda?'
p59
tp60
Rp61
ag49
(g53
S'\xd4b\x7f7R*\xe2?'
p62
tp63
Rp64
ag49
(g53
S'\xab\xf6\xb1\x19\xba\xf7\xda?'
p65
tp66
Rp67
ag49
(g53
S'b.m\xb3/J\xca?'
p68
tp69
Rp70
ag49
(g53
S'NS\xa55i<\xe1?'
p71
tp72
Rp73
ag49
(g53
S'F_^\xff\xe7;\xa0?'
p74
tp75
Rp76
ag49
(g53
S'\x07\xbe\x07\xc9\x87\xfa\xd9?'
p77
tp78
Rp79
ag49
(g53
S'\xab\xf6\xb1\x19\xba\xf7\xda?'
p80
tp81
Rp82
ag49
(g53
S'b.m\xb3/J\xca?'
p83
tp84
Rp85
ag49
(g53
S'\xf1\x1d\xc2\xbf?\xff\xdb?'
p86
tp87
Rp88
ag49
(g53
S'{l\xf0\xad\xbe\xee\xce?'
p89
tp90
Rp91
ag49
(g53
S'b.m\xb3/J\xca?'
p92
tp93
Rp94
ag49
(g53
S'{l\xf0\xad\xbe\xee\xce?'
p95
tp96
Rp97
ag49
(g53
S'\xd4b\x7f7R*\xe2?'
p98
tp99
Rp100
ag49
(g53
S'b.m\xb3/J\xca?'
p101
tp102
Rp103
ag49
(g53
S'NS\xa55i<\xe1?'
p104
tp105
Rp106
ag49
(g53
S'\xe6\x0e\xbdRK\x08\xe2?'
p107
tp108
Rp109
ag49
(g53
S'b.m\xb3/J\xca?'
p110
tp111
Rp112
ag49
(g53
S'NS\xa55i<\xe1?'
p113
tp114
Rp115
ag49
(g53
S'F_^\xff\xe7;\xa0?'
p116
tp117
Rp118
ag49
(g53
S'{l\xf0\xad\xbe\xee\xce?'
p119
tp120
Rp121
asS'sp'
p122
(lp123
(S'p0'
p124
I0
S'y'
p125
tp126
ag126
a(g124
I0
g125
tp127
ag126
a(g124
I0
S'x'
p128
tp129
a(g124
I0
S't'
p130
tp131
a(g124
I0
g128
tp132
a(g124
I0
g125
tp133
ag126
ag129
a(g124
I0
g128
tp134
a(S'p1'
p135
I0
g128
tp136
a(g135
I0
g130
tp137
a(g135
F1.5707963267948966
g130
tp138
a(g135
F1.5707963267948966
g130
tp139
a(g135
F1.5707963267948966
g125
tp140
a(g135
F1.5707963267948966
g128
tp141
a(g135
F1.5707963267948966
g130
tp142
ag140
ag141
a(g135
F1.5707963267948966
g125
tp143
a(S'p2'
p144
F1.5707963267948966
g125
tp145
asS's'
p146
(lp147
(g124
I0
g22
tp148
ag126
ag126
ag127
ag126
ag129
ag131
ag132
ag133
ag126
ag129
ag134
ag136
ag137
ag138
ag139
ag140
ag141
ag142
ag140
ag141
ag143
asS'ui'
p149
(lp150
S'hs'
p151
aS'ss'
p152
ag122
ag152
ag151
aS'hp'
p153
ag153
ag153
ag152
ag151
ag152
ag122
ag151
ag153
ag122
ag151
ag152
ag152
ag151
ag151
ag153
ag122
asS'um_before'
p154
(lp155
g152
ag152
ag122
ag152
ag151
ag151
ag153
ag153
ag152
ag151
ag152
ag122
ag151
ag122
ag122
ag151
ag151
ag151
ag151
ag151
ag153
ag122
asS'um_after'
p156
(lp157
g152
ag152
ag122
ag152
ag151
ag151
ag153
ag153
ag152
ag151
ag152
ag122
ag151
ag122
ag122
ag151
ag151
ag151
ag151
ag151
ag153
ag122
asS'is_normalized_entropy_less_than_threshold'
p158
(lp159
g49
(g50
(S'b1'
p160
I0
I1
tp161
Rp162
(I3
S'|'
p163
NNNI-1
I-1
I0
tp164
bS'\x01'
p165
tp166
Rp167
ag167
ag167
ag167
ag167
ag167
ag167
ag167
ag167
ag167
ag167
ag167
ag167
ag167
ag167
ag167
ag167
ag167
ag167
ag167
ag167
ag167
asaa(lp168
S'index'
p169
aI2827
aatp170
Rp171
.