ccollections
OrderedDict
p0
((lp1
(lp2
S'combination_dict'
p3
ag0
((lp4
(lp5
S'r_to_g_config'
p6
aS'tr'
p7
aa(lp8
S'num_turns'
p9
aI1
aa(lp10
S'start_direction'
p11
acutils_ms
StartDirection
p12
(I0
tp13
Rp14
aa(lp15
S'assistance_type'
p16
acutils_ms
AssistanceType
p17
(I0
tp18
Rp19
aa(lp20
S'start_mode'
p21
aS't'
p22
aa(lp23
S'ui_given_a_noise'
p24
aF0.3
aa(lp25
S'um_given_ui_noise'
p26
aF0.1
aa(lp27
S'entropy_threshold'
p28
aF0.7
aatp29
Rp30
aa(lp31
S'data'
p32
accollections
defaultdict
p33
(c__builtin__
list
p34
tp35
Rp36
S'a'
p37
(lp38
S'mode_r'
p39
ag39
aS'mode_l'
p40
aS'move_p'
p41
ag39
ag40
ag41
ag41
ag41
ag40
ag40
ag41
ag40
ag41
ag39
ag39
ag41
asS'assistance_match_with_ground_truth'
p42
(lp43
I00
aI00
aI01
aI00
aI00
aI01
aI00
aI00
aI01
aI00
aI01
aI01
aI01
aI00
aI00
aI01
aI01
asS'is_u_intended_equals_um'
p44
(lp45
I01
aI01
aI01
aI01
aI01
aI01
aI00
aI01
aI01
aI01
aI01
aI01
aI01
aI01
aI01
aI01
aI01
asS'total_steps'
p46
I17
sS'normalized_h_of_p_ui_given_um'
p47
(lp48
cnumpy.core.multiarray
scalar
p49
(cnumpy
dtype
p50
(S'f8'
p51
I0
I1
tp52
Rp53
(I3
S'<'
p54
NNNI-1
I-1
I0
tp55
bS'\xd0\x8d8\xb0\xbcT\xe1?'
p56
tp57
Rp58
ag49
(g53
S'N!\xc6\xae\xae\xfb\xdf?'
p59
tp60
Rp61
ag49
(g53
S'\xfc-m\xa9\xad\xf3\xbf?'
p62
tp63
Rp64
ag49
(g53
S'\xbc\xb6\x9a\xc2\xf1\xd8\xde?'
p65
tp66
Rp67
ag49
(g53
S'N!\xc6\xae\xae\xfb\xdf?'
p68
tp69
Rp70
ag49
(g53
S'\xfc-m\xa9\xad\xf3\xbf?'
p71
tp72
Rp73
ag49
(g53
S'\xca+E\xcf\x13[\xe5?'
p74
tp75
Rp76
ag49
(g53
S'\x99\xb0\x9e\x88\x0fv\xe3?'
p77
tp78
Rp79
ag49
(g53
S'%*\xafij\x90\xaa?'
p80
tp81
Rp82
ag49
(g53
S'[\x12o\x17\xca\xa4\xe0?'
p83
tp84
Rp85
ag49
(g53
S'\xfc-m\xa9\xad\xf3\xbf?'
p86
tp87
Rp88
ag49
(g53
S'%*\xafij\x90\xaa?'
p89
tp90
Rp91
ag49
(g53
S'\xfc-m\xa9\xad\xf3\xbf?'
p92
tp93
Rp94
ag49
(g53
S'\xbc\xb6\x9a\xc2\xf1\xd8\xde?'
p95
tp96
Rp97
ag49
(g53
S'\xd0\x8d8\xb0\xbcT\xe1?'
p98
tp99
Rp100
ag49
(g53
S'\x08\xf4\xf2\x834\xbb\xbb?'
p101
tp102
Rp103
ag49
(g53
S'%*\xafij\x90\xaa?'
p104
tp105
Rp106
asS'sp'
p107
(lp108
(S'p0'
p109
I0
S't'
p110
tp111
a(g109
I0
S'y'
p112
tp113
a(g109
I0
S'x'
p114
tp115
a(g109
I0
g110
tp116
ag113
ag115
ag115
a(g109
I0
g114
tp117
a(S'p1'
p118
I0
g114
tp119
a(g118
I0
g114
tp120
a(g118
I0
g110
tp121
a(g118
F1.5707963267948966
g110
tp122
a(g118
F1.5707963267948966
g112
tp123
a(g118
F1.5707963267948966
g114
tp124
a(g118
F1.5707963267948966
g114
tp125
a(g118
F1.5707963267948966
g112
tp126
a(S'p2'
p127
F1.5707963267948966
g112
tp128
asS's'
p129
(lp130
(g109
I0
g22
tp131
ag111
ag113
ag115
ag116
ag113
ag115
ag115
ag117
ag119
ag120
ag121
ag122
ag123
ag124
ag125
ag126
asS'ui'
p132
(lp133
S'ss'
p134
aS'hs'
p135
ag135
ag135
aS'hp'
p136
ag135
ag136
ag134
ag107
ag134
ag135
ag107
ag135
ag135
ag134
ag136
ag107
asS'um_before'
p137
(lp138
g134
ag135
ag135
ag135
ag135
ag135
ag136
ag134
ag107
ag134
ag135
ag107
ag135
ag135
ag134
ag136
ag107
asS'um_after'
p139
(lp140
g134
ag135
ag135
ag135
ag135
ag135
aNag134
ag107
ag134
ag135
ag107
ag135
ag135
ag134
ag136
ag107
asS'is_normalized_entropy_less_than_threshold'
p141
(lp142
g49
(g50
(S'b1'
p143
I0
I1
tp144
Rp145
(I3
S'|'
p146
NNNI-1
I-1
I0
tp147
bS'\x01'
p148
tp149
Rp150
ag150
ag150
ag150
ag150
ag150
ag150
ag150
ag150
ag150
ag150
ag150
ag150
ag150
ag150
ag150
ag150
asaa(lp151
S'index'
p152
aI222
aatp153
Rp154
.