ccollections
OrderedDict
p0
((lp1
(lp2
S'combination_dict'
p3
ag0
((lp4
(lp5
S'r_to_g_config'
p6
aS'tl'
p7
aa(lp8
S'num_turns'
p9
aI3
aa(lp10
S'start_direction'
p11
acutils_ms
StartDirection
p12
(I1
tp13
Rp14
aa(lp15
S'assistance_type'
p16
acutils_ms
AssistanceType
p17
(I1
tp18
Rp19
aa(lp20
S'start_mode'
p21
aS't'
p22
aa(lp23
S'ui_given_a_noise'
p24
aF0.5
aa(lp25
S'um_given_ui_noise'
p26
aF0.3
aa(lp27
S'entropy_threshold'
p28
aF0.9
aatp29
Rp30
aa(lp31
S'data'
p32
accollections
defaultdict
p33
(c__builtin__
list
p34
tp35
Rp36
S'a'
p37
(lp38
S'mode_l'
p39
ag39
aS'move_p'
p40
ag39
aS'mode_r'
p41
ag40
ag39
ag39
ag39
aS'move_n'
p42
ag41
ag40
ag39
ag42
ag41
ag41
ag40
ag41
ag40
ag41
ag42
asS'assistance_match_with_ground_truth'
p43
(lp44
I00
aI01
aI00
aI00
aI01
aI01
aI00
aI00
aI01
aI01
aI01
aI00
aI01
aI01
aI00
aI01
aI01
aI01
aI01
aI01
aI01
asS'is_u_intended_equals_um'
p45
(lp46
I01
aI01
aI00
aI01
aI01
aI01
aI01
aI01
aI01
aI01
aI01
aI01
aI01
aI01
aI00
aI00
aI01
aI00
aI01
aI01
aI01
asS'total_steps'
p47
I21
sS'normalized_h_of_p_ui_given_um'
p48
(lp49
cnumpy.core.multiarray
scalar
p50
(cnumpy
dtype
p51
(S'f8'
p52
I0
I1
tp53
Rp54
(I3
S'<'
p55
NNNI-1
I-1
I0
tp56
bS'zm\x8b\xb9\x1e+\xe8?'
p57
tp58
Rp59
ag50
(g54
S'h\xb1\xfa\xff#\x99\xd5?'
p60
tp61
Rp62
ag50
(g54
S'\xc4x+.D\xf0\xec?'
p63
tp64
Rp65
ag50
(g54
S'\xc1\x88\xd1[\xb9\xa1\xe9?'
p66
tp67
Rp68
ag50
(g54
S'S/\xa7\xdd9\xed\xd1?'
p69
tp70
Rp71
ag50
(g54
S'\xef\xfb\x9eG_\xc6\xd4?'
p72
tp73
Rp74
ag50
(g54
S'.sK7\t.\xec?'
p75
tp76
Rp77
ag50
(g54
S'.sK7\t.\xec?'
p78
tp79
Rp80
ag50
(g54
S'h\xb1\xfa\xff#\x99\xd5?'
p81
tp82
Rp83
ag50
(g54
S'X\xbc\xd3\x8f\xfc\n\xe1?'
p84
tp85
Rp86
ag50
(g54
S'S/\xa7\xdd9\xed\xd1?'
p87
tp88
Rp89
ag50
(g54
S'\t\x9a\xb4Hw\xc5\xe5?'
p90
tp91
Rp92
ag50
(g54
S'h\xb1\xfa\xff#\x99\xd5?'
p93
tp94
Rp95
ag50
(g54
S'X\xbc\xd3\x8f\xfc\n\xe1?'
p96
tp97
Rp98
ag50
(g54
S'>\xe8ZB(\xa9\xea?'
p99
tp100
Rp101
ag50
(g54
S'\xe8]\x85\xd2\x06\xaf\xe2?'
p102
tp103
Rp104
ag50
(g54
S'\xef\xfb\x9eG_\xc6\xd4?'
p105
tp106
Rp107
ag50
(g54
S'\xe8]\x85\xd2\x06\xaf\xe2?'
p108
tp109
Rp110
ag50
(g54
S'\xef\xfb\x9eG_\xc6\xd4?'
p111
tp112
Rp113
ag50
(g54
S'S/\xa7\xdd9\xed\xd1?'
p114
tp115
Rp116
ag50
(g54
S'X\xbc\xd3\x8f\xfc\n\xe1?'
p117
tp118
Rp119
asS'sp'
p120
(lp121
(S'p0'
p122
I0
S't'
p123
tp124
a(g122
I0
S'y'
p125
tp126
a(g122
I0
g123
tp127
a(g122
I0
S'x'
p128
tp129
a(g122
I0
g125
tp130
a(S'p1'
p131
I0
g125
tp132
a(g131
I0
g125
tp133
ag133
a(g131
I0
g128
tp134
a(S'p2'
p135
I0
g128
tp136
a(g135
I0
g125
tp137
a(g131
I0
g125
tp138
ag134
ag136
a(g135
I0
g128
tp139
ag137
a(S'p3'
p140
I0
g125
tp141
a(g140
I0
g123
tp142
a(g140
F1.5707963267948966
g123
tp143
a(g140
F1.5707963267948966
g128
tp144
a(S'p4'
p145
F1.5707963267948966
g128
tp146
asS's'
p147
(lp148
(g122
I0
g22
tp149
ag124
ag126
ag127
ag129
ag130
ag132
ag133
ag133
ag134
ag136
ag137
ag138
ag134
ag136
ag139
ag137
ag141
ag142
ag143
ag144
asS'ui'
p150
(lp151
S'ss'
p152
aS'hs'
p153
ag153
aS'hp'
p154
ag154
ag120
ag153
ag152
ag153
ag152
ag154
ag120
ag154
ag152
ag152
ag154
ag120
ag153
ag152
ag154
ag152
asS'um_before'
p155
(lp156
g120
ag153
ag154
ag154
ag154
ag120
ag152
ag152
ag153
ag152
ag154
ag152
ag153
ag152
ag120
ag153
ag120
ag153
ag120
ag154
ag152
asS'um_after'
p157
(lp158
g120
ag153
ag154
ag154
ag154
ag120
ag152
ag152
ag153
ag152
ag154
ag152
ag153
ag152
ag152
ag154
ag120
ag154
ag120
ag154
ag152
asS'is_normalized_entropy_less_than_threshold'
p159
(lp160
g50
(g51
(S'b1'
p161
I0
I1
tp162
Rp163
(I3
S'|'
p164
NNNI-1
I-1
I0
tp165
bS'\x01'
p166
tp167
Rp168
ag168
ag50
(g163
S'\x00'
p169
tp170
Rp171
ag168
ag168
ag168
ag168
ag168
ag168
ag168
ag168
ag168
ag168
ag168
ag168
ag168
ag168
ag168
ag168
ag168
ag168
asaa(lp172
S'index'
p173
aI55690
aatp174
Rp175
.