ccollections
OrderedDict
p0
((lp1
(lp2
S'combination_dict'
p3
ag0
((lp4
(lp5
S'r_to_g_config'
p6
aS'tl'
p7
aa(lp8
S'num_turns'
p9
aI3
aa(lp10
S'start_direction'
p11
acutils_ms
StartDirection
p12
(I0
tp13
Rp14
aa(lp15
S'assistance_type'
p16
acutils_ms
AssistanceType
p17
(I1
tp18
Rp19
aa(lp20
S'start_mode'
p21
aS't'
p22
aa(lp23
S'ui_given_a_noise'
p24
aF0.5
aa(lp25
S'um_given_ui_noise'
p26
aF0.5
aa(lp27
S'entropy_threshold'
p28
aF0.6
aatp29
Rp30
aa(lp31
S'data'
p32
accollections
defaultdict
p33
(c__builtin__
list
p34
tp35
Rp36
S'a'
p37
(lp38
S'mode_r'
p39
ag39
ag39
ag39
aS'move_n'
p40
ag39
aS'move_p'
p41
ag39
aS'mode_l'
p42
ag39
ag41
ag42
ag41
ag39
ag41
ag41
ag39
ag42
ag39
ag39
ag42
ag39
ag41
ag39
ag41
ag41
ag41
ag42
ag39
ag41
ag39
ag41
ag39
ag42
ag41
ag39
ag40
ag39
ag39
ag39
ag41
asS'assistance_match_with_ground_truth'
p43
(lp44
I00
aI00
aI00
aI01
aI01
aI01
aI01
aI00
aI00
aI01
aI00
aI01
aI00
aI01
aI00
aI00
aI00
aI00
aI00
aI00
aI00
aI01
aI01
aI00
aI00
aI00
aI00
aI00
aI01
aI00
aI01
aI00
aI00
aI01
aI01
aI01
aI01
aI00
aI00
aI01
aI01
asS'is_u_intended_equals_um'
p45
(lp46
I00
aI00
aI01
aI01
aI00
aI01
aI01
aI01
aI00
aI01
aI00
aI01
aI01
aI01
aI01
aI01
aI01
aI00
aI00
aI01
aI00
aI01
aI01
aI01
aI01
aI01
aI00
aI00
aI01
aI01
aI01
aI01
aI01
aI01
aI01
aI01
aI01
aI00
aI01
aI01
aI01
asS'total_steps'
p47
I41
sS'normalized_h_of_p_ui_given_um'
p48
(lp49
cnumpy.core.multiarray
scalar
p50
(cnumpy
dtype
p51
(S'f8'
p52
I0
I1
tp53
Rp54
(I3
S'<'
p55
NNNI-1
I-1
I0
tp56
bS'JIw\x82\xbeM\xe9?'
p57
tp58
Rp59
ag50
(g54
S'JIw\x82\xbeM\xe9?'
p60
tp61
Rp62
ag50
(g54
S'\x98m\x06\xe7Gt\xec?'
p63
tp64
Rp65
ag50
(g54
S'\nq\xce\x9bM\x18\xe1?'
p66
tp67
Rp68
ag50
(g54
S'1\xc4\x15L\x88\x89\xe2?'
p69
tp70
Rp71
ag50
(g54
S'\nq\xce\x9bM\x18\xe1?'
p72
tp73
Rp74
ag50
(g54
S'V\x13\xc5_\x80\xcd\xd5?'
p75
tp76
Rp77
ag50
(g54
S'zq\x9d% \x87\xe6?'
p78
tp79
Rp80
ag50
(g54
S'\x02\xa3\n\xa3T\xfd\xe7?'
p81
tp82
Rp83
ag50
(g54
S'\nq\xce\x9bM\x18\xe1?'
p84
tp85
Rp86
ag50
(g54
S'\x062\xfc\xce\xb1.\xe9?'
p87
tp88
Rp89
ag50
(g54
S'\xbdUX\xd1\xa2\xe0\xd1?'
p90
tp91
Rp92
ag50
(g54
S'\x0cn\t\xac\x88\xa1\xe6?'
p93
tp94
Rp95
ag50
(g54
S'\nq\xce\x9bM\x18\xe1?'
p96
tp97
Rp98
ag50
(g54
S'\x0cn\t\xac\x88\xa1\xe6?'
p99
tp100
Rp101
ag50
(g54
S'X\x13\xfcl\x8b\xa2\xeb?'
p102
tp103
Rp104
ag50
(g54
S'zq\x9d% \x87\xe6?'
p105
tp106
Rp107
ag50
(g54
S'\xc8a\xa2\xc6\rR\xef?'
p108
tp109
Rp110
ag50
(g54
S'JIw\x82\xbeM\xe9?'
p111
tp112
Rp113
ag50
(g54
S'zq\x9d% \x87\xe6?'
p114
tp115
Rp116
ag50
(g54
S'\xc8a\xa2\xc6\rR\xef?'
p117
tp118
Rp119
ag50
(g54
S'\nq\xce\x9bM\x18\xe1?'
p120
tp121
Rp122
ag50
(g54
S'V\x13\xc5_\x80\xcd\xd5?'
p123
tp124
Rp125
ag50
(g54
S'\x98m\x06\xe7Gt\xec?'
p126
tp127
Rp128
ag50
(g54
S'\x0cn\t\xac\x88\xa1\xe6?'
p129
tp130
Rp131
ag50
(g54
S'\x0cn\t\xac\x88\xa1\xe6?'
p132
tp133
Rp134
ag50
(g54
S'\x062\xfc\xce\xb1.\xe9?'
p135
tp136
Rp137
ag50
(g54
S'\x02\xa3\n\xa3T\xfd\xe7?'
p138
tp139
Rp140
ag50
(g54
S'\nq\xce\x9bM\x18\xe1?'
p141
tp142
Rp143
ag50
(g54
S'\x0cn\t\xac\x88\xa1\xe6?'
p144
tp145
Rp146
ag50
(g54
S'\nq\xce\x9bM\x18\xe1?'
p147
tp148
Rp149
ag50
(g54
S'X\x13\xfcl\x8b\xa2\xeb?'
p150
tp151
Rp152
ag50
(g54
S'zq\x9d% \x87\xe6?'
p153
tp154
Rp155
ag50
(g54
S'\xbdUX\xd1\xa2\xe0\xd1?'
p156
tp157
Rp158
ag50
(g54
S'V\x13\xc5_\x80\xcd\xd5?'
p159
tp160
Rp161
ag50
(g54
S'\nq\xce\x9bM\x18\xe1?'
p162
tp163
Rp164
ag50
(g54
S'M\x96\xd3\x0f\xdf\x84\xd6?'
p165
tp166
Rp167
ag50
(g54
S'JIw\x82\xbeM\xe9?'
p168
tp169
Rp170
ag50
(g54
S'\x98m\x06\xe7Gt\xec?'
p171
tp172
Rp173
ag50
(g54
S'\nq\xce\x9bM\x18\xe1?'
p174
tp175
Rp176
ag50
(g54
S'V\x13\xc5_\x80\xcd\xd5?'
p177
tp178
Rp179
asS'sp'
p180
(lp181
(S'p0'
p182
I0
S't'
p183
tp184
ag184
a(g182
I0
g183
tp185
a(g182
I0
S'x'
p186
tp187
a(S'p1'
p188
I0
g186
tp189
a(g188
I0
S'y'
p190
tp191
a(S'p2'
p192
I0
g190
tp193
a(g192
I0
g186
tp194
a(S'p3'
p195
I0
g186
tp196
a(g195
I0
g190
tp197
a(g195
I0
g183
tp198
a(g195
I0
g190
tp199
a(g192
I0
g190
tp200
a(g192
I0
g183
tp201
a(g192
I0
g183
tp202
a(g192
I0
g190
tp203
ag194
a(g192
I0
g190
tp204
a(g192
I0
g190
tp205
ag194
ag204
ag201
a(g192
F1.5707963267948966
g183
tp206
a(g192
I0
g183
tp207
ag202
ag202
a(g192
I0
g186
tp208
ag196
ag197
ag200
ag201
ag203
ag194
a(g192
I0
g183
tp209
ag206
a(g192
F1.5707963267948966
g186
tp210
a(g195
F1.5707963267948966
g186
tp211
a(g195
F1.5707963267948966
g186
tp212
a(g195
F1.5707963267948966
g186
tp213
a(g195
F1.5707963267948966
g190
tp214
a(S'p4'
p215
F1.5707963267948966
g190
tp216
asS's'
p217
(lp218
(g182
I0
g22
tp219
ag184
ag184
ag185
ag187
ag189
ag191
ag193
ag194
ag196
ag197
ag198
ag199
ag200
ag201
ag202
ag203
ag194
ag204
ag205
ag194
ag204
ag201
ag206
ag207
ag202
ag202
ag208
ag196
ag197
ag200
ag201
ag203
ag194
ag209
ag206
ag210
ag211
ag212
ag213
ag214
asS'ui'
p220
(lp221
S'hs'
p222
ag222
aS'hp'
p223
aS'ss'
p224
ag224
ag223
ag223
ag222
ag224
ag222
ag223
ag222
ag180
ag223
ag224
ag180
ag222
ag222
ag223
ag222
ag224
ag223
ag224
ag223
ag180
ag180
ag224
ag222
ag224
ag224
ag224
ag224
ag222
ag222
ag180
ag223
ag224
ag223
ag223
ag223
ag180
asS'um_before'
p225
(lp226
g180
ag180
ag224
ag223
ag223
ag223
ag180
ag222
ag224
ag223
ag223
ag222
ag224
ag223
ag224
ag222
ag222
ag223
ag180
ag222
ag223
ag223
ag180
ag224
ag224
ag224
ag223
ag224
ag223
ag224
ag223
ag222
ag222
ag222
ag180
ag223
ag224
ag180
ag224
ag223
ag180
asS'um_after'
p227
(lp228
g180
ag180
ag224
ag223
ag224
ag223
ag180
ag222
ag224
ag223
ag223
ag222
ag224
ag223
ag224
ag222
ag222
ag223
ag180
ag222
ag223
ag223
ag180
ag224
ag224
ag224
ag223
ag224
ag223
ag224
ag223
ag222
ag222
ag222
ag180
ag223
ag224
ag180
ag224
ag223
ag180
asS'is_normalized_entropy_less_than_threshold'
p229
(lp230
g50
(g51
(S'b1'
p231
I0
I1
tp232
Rp233
(I3
S'|'
p234
NNNI-1
I-1
I0
tp235
bS'\x00'
p236
tp237
Rp238
ag238
ag238
ag50
(g233
S'\x01'
p239
tp240
Rp241
ag241
ag241
ag241
ag238
ag238
ag241
ag238
ag241
ag238
ag241
ag238
ag238
ag238
ag238
ag238
ag238
ag238
ag241
ag241
ag238
ag238
ag238
ag238
ag238
ag241
ag238
ag241
ag238
ag238
ag241
ag241
ag241
ag241
ag238
ag238
ag241
ag241
asaa(lp242
S'index'
p243
aI50111
aatp244
Rp245
.