ccollections
OrderedDict
p0
((lp1
(lp2
S'combination_dict'
p3
ag0
((lp4
(lp5
S'r_to_g_config'
p6
aS'br'
p7
aa(lp8
S'num_turns'
p9
aI3
aa(lp10
S'start_direction'
p11
acutils_ms
StartDirection
p12
(I0
tp13
Rp14
aa(lp15
S'assistance_type'
p16
acutils_ms
AssistanceType
p17
(I0
tp18
Rp19
aa(lp20
S'start_mode'
p21
aS't'
p22
aa(lp23
S'ui_given_a_noise'
p24
aF0.5
aa(lp25
S'um_given_ui_noise'
p26
aF0.7
aa(lp27
S'entropy_threshold'
p28
aF0.7
aatp29
Rp30
aa(lp31
S'data'
p32
accollections
defaultdict
p33
(c__builtin__
list
p34
tp35
Rp36
S'a'
p37
(lp38
S'mode_r'
p39
ag39
aS'move_p'
p40
ag40
ag39
aS'mode_l'
p41
ag40
ag40
ag40
ag39
ag39
ag39
ag39
ag39
aS'move_n'
p42
ag42
ag41
ag40
ag39
ag39
ag41
ag39
ag39
ag40
ag41
ag41
ag41
ag40
ag40
ag40
ag41
ag41
ag40
ag40
ag41
ag42
asS'assistance_match_with_ground_truth'
p43
(lp44
I00
aI01
aI00
aI00
aI00
aI01
aI00
aI00
aI01
aI00
aI00
aI00
aI00
aI01
aI00
aI01
aI01
aI00
aI00
aI00
aI00
aI00
aI01
aI00
aI00
aI00
aI01
aI00
aI00
aI01
aI00
aI01
aI00
aI01
aI01
aI01
asS'is_u_intended_equals_um'
p45
(lp46
I01
aI01
aI00
aI00
aI00
aI01
aI00
aI00
aI01
aI01
aI01
aI00
aI00
aI01
aI00
aI01
aI01
aI00
aI01
aI00
aI01
aI01
aI01
aI01
aI00
aI00
aI01
aI00
aI00
aI01
aI00
aI01
aI00
aI01
aI01
aI01
asS'total_steps'
p47
I36
sS'normalized_h_of_p_ui_given_um'
p48
(lp49
cnumpy.core.multiarray
scalar
p50
(cnumpy
dtype
p51
(S'f8'
p52
I0
I1
tp53
Rp54
(I3
S'<'
p55
NNNI-1
I-1
I0
tp56
bS'\xae\xb4\x1a\x98\x14\x96\xe7?'
p57
tp58
Rp59
ag50
(g54
S':\xbf\xff\x8e\xd7\x11\xe1?'
p60
tp61
Rp62
ag50
(g54
S'\xea\xa3\x81\x9c\x00\xd8\xe5?'
p63
tp64
Rp65
ag50
(g54
S'=-\x05\x9cG,\xe8?'
p66
tp67
Rp68
ag50
(g54
S'\n\xd9o\xd9\x1b\xee\xe8?'
p69
tp70
Rp71
ag50
(g54
S':\xeeiw\x85\xb7\xd6?'
p72
tp73
Rp74
ag50
(g54
S'\xea\xa3\x81\x9c\x00\xd8\xe5?'
p75
tp76
Rp77
ag50
(g54
S'\xea\xa3\x81\x9c\x00\xd8\xe5?'
p78
tp79
Rp80
ag50
(g54
S'\xfeyx\x9a\xa4\x7f\xd4?'
p81
tp82
Rp83
ag50
(g54
S'\xae\xb4\x1a\x98\x14\x96\xe7?'
p84
tp85
Rp86
ag50
(g54
S'\xae\xb4\x1a\x98\x14\x96\xe7?'
p87
tp88
Rp89
ag50
(g54
S'\x8d\t\xaf*jN\xe2?'
p90
tp91
Rp92
ag50
(g54
S'\x8d\t\xaf*jN\xe2?'
p93
tp94
Rp95
ag50
(g54
S':\xbf\xff\x8e\xd7\x11\xe1?'
p96
tp97
Rp98
ag50
(g54
S'?N6L\x94B\xe2?'
p99
tp100
Rp101
ag50
(g54
S'\xdf\xc1\x1b\xc0\xc7\x00\xd9?'
p102
tp103
Rp104
ag50
(g54
S':\xeeiw\x85\xb7\xd6?'
p105
tp106
Rp107
ag50
(g54
S'=-\x05\x9cG,\xe8?'
p108
tp109
Rp110
ag50
(g54
S'\xae\xb4\x1a\x98\x14\x96\xe7?'
p111
tp112
Rp113
ag50
(g54
S'\n\xd9o\xd9\x1b\xee\xe8?'
p114
tp115
Rp116
ag50
(g54
S'jt\x15<\xc2\xca\xe7?'
p117
tp118
Rp119
ag50
(g54
S'\xae\xb4\x1a\x98\x14\x96\xe7?'
p120
tp121
Rp122
ag50
(g54
S':\xbf\xff\x8e\xd7\x11\xe1?'
p123
tp124
Rp125
ag50
(g54
S'\xec\xe4\x80\x80Q\xc4\xea?'
p126
tp127
Rp128
ag50
(g54
S'f[.A\x12\xd6\xe7?'
p129
tp130
Rp131
ag50
(g54
S'\x9d\xf0\xa1\x99X\xc1\xec?'
p132
tp133
Rp134
ag50
(g54
S':\xeeiw\x85\xb7\xd6?'
p135
tp136
Rp137
ag50
(g54
S'\xea\xa3\x81\x9c\x00\xd8\xe5?'
p138
tp139
Rp140
ag50
(g54
S'\xea\xa3\x81\x9c\x00\xd8\xe5?'
p141
tp142
Rp143
ag50
(g54
S'\xfeyx\x9a\xa4\x7f\xd4?'
p144
tp145
Rp146
ag50
(g54
S'f[.A\x12\xd6\xe7?'
p147
tp148
Rp149
ag50
(g54
S':\xeeiw\x85\xb7\xd6?'
p150
tp151
Rp152
ag50
(g54
S'\xea\xa3\x81\x9c\x00\xd8\xe5?'
p153
tp154
Rp155
ag50
(g54
S'\xfeyx\x9a\xa4\x7f\xd4?'
p156
tp157
Rp158
ag50
(g54
S':\xeeiw\x85\xb7\xd6?'
p159
tp160
Rp161
ag50
(g54
S'\xdf\xc1\x1b\xc0\xc7\x00\xd9?'
p162
tp163
Rp164
asS'sp'
p165
(lp166
(S'p0'
p167
I0
S't'
p168
tp169
a(g167
I0
S'x'
p170
tp171
ag171
a(g167
I0
g168
tp172
a(g167
I0
S'y'
p173
tp174
a(g167
I0
g170
tp175
ag175
ag175
a(S'p1'
p176
I0
g170
tp177
a(g176
I0
g170
tp178
ag178
ag178
ag178
a(g176
I0
g173
tp179
ag179
a(S'p2'
p180
I0
g173
tp181
a(g180
I0
g170
tp182
a(g180
I0
g168
tp183
a(g180
I0
g168
tp184
a(g180
I0
g173
tp185
a(g180
I0
g168
tp186
ag184
a(g180
I0
g170
tp187
a(g180
I0
g173
tp188
a(g180
I0
g173
tp189
a(g180
I0
g173
tp190
ag182
ag182
ag182
a(S'p3'
p191
I0
g170
tp192
a(g191
I0
g170
tp193
a(g191
I0
g168
tp194
ag194
a(g191
F1.5707963267948966
g168
tp195
a(g191
F1.5707963267948966
g173
tp196
a(S'p4'
p197
F1.5707963267948966
g173
tp198
asS's'
p199
(lp200
(g167
I0
g22
tp201
ag169
ag171
ag171
ag172
ag174
ag175
ag175
ag175
ag177
ag178
ag178
ag178
ag178
ag179
ag179
ag181
ag182
ag183
ag184
ag185
ag186
ag184
ag187
ag188
ag189
ag190
ag182
ag182
ag182
ag192
ag193
ag194
ag194
ag195
ag196
asS'ui'
p202
(lp203
S'hp'
p204
ag204
ag165
ag165
ag204
aS'hs'
p205
ag165
ag165
ag165
ag204
aS'ss'
p206
ag204
ag165
ag204
ag206
ag206
ag205
ag205
ag206
ag204
ag204
ag204
ag206
ag204
ag204
ag204
ag205
ag165
ag165
ag204
ag204
ag205
ag206
ag165
ag205
ag165
asS'um_before'
p207
(lp208
g206
ag204
ag206
ag205
ag205
ag205
ag206
ag206
ag165
ag206
ag206
ag165
ag165
ag204
ag204
ag206
ag205
ag205
ag206
ag205
ag204
ag206
ag204
ag204
ag165
ag206
ag205
ag206
ag206
ag165
ag165
ag205
ag206
ag165
ag205
ag206
asS'um_after'
p209
(lp210
g206
ag204
aNag205
ag205
ag205
aNaNag165
ag206
ag206
aNaNag204
aNag206
ag205
ag205
ag206
ag205
ag204
ag206
ag204
ag204
ag165
ag206
ag205
aNaNag165
ag165
ag205
aNag165
ag205
ag206
asS'is_normalized_entropy_less_than_threshold'
p211
(lp212
g50
(g51
(S'b1'
p213
I0
I1
tp214
Rp215
(I3
S'|'
p216
NNNI-1
I-1
I0
tp217
bS'\x00'
p218
tp219
Rp220
ag50
(g215
S'\x01'
p221
tp222
Rp223
ag223
ag220
ag220
ag223
ag223
ag223
ag223
ag220
ag220
ag223
ag223
ag223
ag223
ag223
ag223
ag220
ag220
ag220
ag220
ag220
ag223
ag220
ag220
ag220
ag223
ag223
ag223
ag223
ag220
ag223
ag223
ag223
ag223
ag223
asaa(lp224
S'index'
p225
aI106174
aatp226
Rp227
.