ccollections
OrderedDict
p0
((lp1
(lp2
S'combination_dict'
p3
ag0
((lp4
(lp5
S'r_to_g_config'
p6
aS'tr'
p7
aa(lp8
S'num_turns'
p9
aI1
aa(lp10
S'start_direction'
p11
acutils_ms
StartDirection
p12
(I1
tp13
Rp14
aa(lp15
S'assistance_type'
p16
acutils_ms
AssistanceType
p17
(I0
tp18
Rp19
aa(lp20
S'start_mode'
p21
aS't'
p22
aa(lp23
S'ui_given_a_noise'
p24
aF0.5
aa(lp25
S'um_given_ui_noise'
p26
aF0.5
aa(lp27
S'entropy_threshold'
p28
aF0.9
aatp29
Rp30
aa(lp31
S'data'
p32
accollections
defaultdict
p33
(c__builtin__
list
p34
tp35
Rp36
S'a'
p37
(lp38
S'mode_l'
p39
ag39
ag39
ag39
aS'move_p'
p40
aS'mode_r'
p41
ag40
ag40
ag40
ag41
ag41
ag40
ag41
ag40
asS'assistance_match_with_ground_truth'
p42
(lp43
I00
aI00
aI00
aI01
aI01
aI01
aI00
aI00
aI01
aI00
aI00
aI01
aI01
aI01
asS'is_u_intended_equals_um'
p44
(lp45
I01
aI01
aI00
aI01
aI01
aI01
aI00
aI00
aI01
aI00
aI01
aI01
aI01
aI01
asS'total_steps'
p46
I14
sS'normalized_h_of_p_ui_given_um'
p47
(lp48
cnumpy.core.multiarray
scalar
p49
(cnumpy
dtype
p50
(S'f8'
p51
I0
I1
tp52
Rp53
(I3
S'<'
p54
NNNI-1
I-1
I0
tp55
bS'\xf4\xa5\x81\x17\xd7\xd5\xe6?'
p56
tp57
Rp58
ag49
(g53
S'\xf4\xa5\x81\x17\xd7\xd5\xe6?'
p59
tp60
Rp61
ag49
(g53
S'\xf7[\xeb\xffF7\xed?'
p62
tp63
Rp64
ag49
(g53
S'T\xa0\xde\xbf\xb0"\xe2?'
p65
tp66
Rp67
ag49
(g53
S'\x8c:\xa3\xf0|\xff\xe0?'
p68
tp69
Rp70
ag49
(g53
S'\xf6\xf5PW\x1f\x1b\xdc?'
p71
tp72
Rp73
ag49
(g53
S'\x85\x90\x07\xc1#\xbe\xe4?'
p74
tp75
Rp76
ag49
(g53
S'\x85\x90\x07\xc1#\xbe\xe4?'
p77
tp78
Rp79
ag49
(g53
S'\x8c:\xa3\xf0|\xff\xe0?'
p80
tp81
Rp82
ag49
(g53
S'^?\xa5/)\xb9\xe9?'
p83
tp84
Rp85
ag49
(g53
S'\xa9c\xf8Y\xb3\x89\xe4?'
p86
tp87
Rp88
ag49
(g53
S'\x8c:\xa3\xf0|\xff\xe0?'
p89
tp90
Rp91
ag49
(g53
S'\xf6\xf5PW\x1f\x1b\xdc?'
p92
tp93
Rp94
ag49
(g53
S'\x8c:\xa3\xf0|\xff\xe0?'
p95
tp96
Rp97
asS'sp'
p98
(lp99
(S'p0'
p100
I0
S't'
p101
tp102
ag102
a(g100
I0
g101
tp103
a(g100
I0
S'y'
p104
tp105
a(S'p1'
p106
I0
g104
tp107
a(g106
I0
g101
tp108
ag108
ag108
a(g106
F1.5707963267948966
g101
tp109
ag109
a(g106
I0
g101
tp110
ag109
a(g106
F1.5707963267948966
S'x'
p111
tp112
a(S'p2'
p113
F1.5707963267948966
g111
tp114
asS's'
p115
(lp116
(g100
I0
g22
tp117
ag102
ag102
ag103
ag105
ag107
ag108
ag108
ag108
ag109
ag109
ag110
ag109
ag112
asS'ui'
p118
(lp119
S'hs'
p120
aS'ss'
p121
ag121
ag120
ag98
aS'hp'
p122
ag98
ag120
ag98
ag120
ag122
ag98
ag122
ag98
asS'um_before'
p123
(lp124
g121
ag121
ag98
ag120
ag98
ag122
ag122
ag122
ag98
ag120
ag121
ag98
ag122
ag98
asS'um_after'
p125
(lp126
g121
ag121
ag98
ag120
ag98
ag122
aNaNag98
aNag121
ag98
ag122
ag98
asS'is_normalized_entropy_less_than_threshold'
p127
(lp128
g49
(g50
(S'b1'
p129
I0
I1
tp130
Rp131
(I3
S'|'
p132
NNNI-1
I-1
I0
tp133
bS'\x01'
p134
tp135
Rp136
ag136
ag49
(g131
S'\x00'
p137
tp138
Rp139
ag136
ag136
ag136
ag136
ag136
ag136
ag136
ag136
ag136
ag136
ag136
asaa(lp140
S'index'
p141
aI6147
aatp142
Rp143
.