ccollections
OrderedDict
p0
((lp1
(lp2
S'combination_dict'
p3
ag0
((lp4
(lp5
S'r_to_g_config'
p6
aS'tr'
p7
aa(lp8
S'num_turns'
p9
aI3
aa(lp10
S'start_direction'
p11
acutils_ms
StartDirection
p12
(I0
tp13
Rp14
aa(lp15
S'assistance_type'
p16
acutils_ms
AssistanceType
p17
(I0
tp18
Rp19
aa(lp20
S'start_mode'
p21
aS'y'
p22
aa(lp23
S'ui_given_a_noise'
p24
aF0.3
aa(lp25
S'um_given_ui_noise'
p26
aF0.3
aa(lp27
S'entropy_threshold'
p28
aF0.7
aatp29
Rp30
aa(lp31
S'data'
p32
accollections
defaultdict
p33
(c__builtin__
list
p34
tp35
Rp36
S'a'
p37
(lp38
S'mode_l'
p39
ag39
ag39
ag39
aS'move_p'
p40
aS'mode_r'
p41
ag41
ag40
ag41
ag41
ag41
ag39
ag39
ag39
ag40
ag41
ag39
ag40
ag39
ag40
ag39
ag39
ag40
ag41
ag39
ag40
ag39
ag40
ag41
ag39
ag40
ag41
ag39
ag40
ag39
ag39
ag40
ag41
ag40
ag39
ag39
ag40
ag41
ag41
ag41
ag41
ag40
ag41
ag40
ag39
ag39
ag39
ag39
ag40
asS'assistance_match_with_ground_truth'
p42
(lp43
I00
aI00
aI00
aI01
aI01
aI00
aI01
aI00
aI00
aI00
aI00
aI00
aI00
aI01
aI00
aI00
aI01
aI01
aI01
aI01
aI00
aI01
aI00
aI00
aI01
aI01
aI00
aI00
aI00
aI01
aI00
aI00
aI01
aI01
aI00
aI01
aI00
aI01
aI01
aI00
aI01
aI00
aI00
aI00
aI00
aI01
aI00
aI01
aI00
aI00
aI00
aI00
aI01
aI01
asS'is_u_intended_equals_um'
p44
(lp45
I00
aI01
aI01
aI01
aI01
aI01
aI01
aI01
aI00
aI01
aI00
aI01
aI01
aI01
aI01
aI00
aI01
aI01
aI01
aI01
aI00
aI01
aI01
aI00
aI01
aI01
aI01
aI01
aI00
aI01
aI01
aI00
aI01
aI01
aI00
aI01
aI01
aI01
aI01
aI00
aI01
aI01
aI00
aI00
aI01
aI01
aI01
aI01
aI01
aI01
aI00
aI01
aI01
aI01
asS'total_steps'
p46
I54
sS'normalized_h_of_p_ui_given_um'
p47
(lp48
cnumpy.core.multiarray
scalar
p49
(cnumpy
dtype
p50
(S'f8'
p51
I0
I1
tp52
Rp53
(I3
S'<'
p54
NNNI-1
I-1
I0
tp55
bS'\x96c48u)\xe5?'
p56
tp57
Rp58
ag49
(g53
S'\xee\xcf6\x16(u\xe2?'
p59
tp60
Rp61
ag49
(g53
S'\r;\x92\xa8\xaf\xa1\xe8?'
p62
tp63
Rp64
ag49
(g53
S"6vC'\x18\x89\xcf?"
p65
tp66
Rp67
ag49
(g53
S'\x02\x8f\xc5\x0bO\xfa\xc6?'
p68
tp69
Rp70
ag49
(g53
S'v+x\xaf\xc3J\xe7?'
p71
tp72
Rp73
ag49
(g53
S'\x9e\x16\x7f\xb8\xd7\x87\xcb?'
p74
tp75
Rp76
ag49
(g53
S'1<\x93\x1d\x0c\xba\xe8?'
p77
tp78
Rp79
ag49
(g53
S'>\x90\xc8\\\xbeJ\xe7?'
p80
tp81
Rp82
ag49
(g53
S'v+x\xaf\xc3J\xe7?'
p83
tp84
Rp85
ag49
(g53
S'\x8c\xc67I\xfd\xe2\xe8?'
p86
tp87
Rp88
ag49
(g53
S'\r;\x92\xa8\xaf\xa1\xe8?'
p89
tp90
Rp91
ag49
(g53
S'\xee\xcf6\x16(u\xe2?'
p92
tp93
Rp94
ag49
(g53
S"6vC'\x18\x89\xcf?"
p95
tp96
Rp97
ag49
(g53
S'1<\x93\x1d\x0c\xba\xe8?'
p98
tp99
Rp100
ag49
(g53
S'\x8c\xc67I\xfd\xe2\xe8?'
p101
tp102
Rp103
ag49
(g53
S"6vC'\x18\x89\xcf?"
p104
tp105
Rp106
ag49
(g53
S'\x02\x8f\xc5\x0bO\xfa\xc6?'
p107
tp108
Rp109
ag49
(g53
S"6vC'\x18\x89\xcf?"
p110
tp111
Rp112
ag49
(g53
S'\x02\x8f\xc5\x0bO\xfa\xc6?'
p113
tp114
Rp115
ag49
(g53
S'\x96c48u)\xe5?'
p116
tp117
Rp118
ag49
(g53
S"6vC'\x18\x89\xcf?"
p119
tp120
Rp121
ag49
(g53
S'1<\x93\x1d\x0c\xba\xe8?'
p122
tp123
Rp124
ag49
(g53
S'\x8c\xc67I\xfd\xe2\xe8?'
p125
tp126
Rp127
ag49
(g53
S"6vC'\x18\x89\xcf?"
p128
tp129
Rp130
ag49
(g53
S'\x02\x8f\xc5\x0bO\xfa\xc6?'
p131
tp132
Rp133
ag49
(g53
S'\r;\x92\xa8\xaf\xa1\xe8?'
p134
tp135
Rp136
ag49
(g53
S'1<\x93\x1d\x0c\xba\xe8?'
p137
tp138
Rp139
ag49
(g53
S'\x8c\xc67I\xfd\xe2\xe8?'
p140
tp141
Rp142
ag49
(g53
S"6vC'\x18\x89\xcf?"
p143
tp144
Rp145
ag49
(g53
S'1<\x93\x1d\x0c\xba\xe8?'
p146
tp147
Rp148
ag49
(g53
S'>\x90\xc8\\\xbeJ\xe7?'
p149
tp150
Rp151
ag49
(g53
S"6vC'\x18\x89\xcf?"
p152
tp153
Rp154
ag49
(g53
S'\x02\x8f\xc5\x0bO\xfa\xc6?'
p155
tp156
Rp157
ag49
(g53
S'\x96c48u)\xe5?'
p158
tp159
Rp160
ag49
(g53
S"6vC'\x18\x89\xcf?"
p161
tp162
Rp163
ag49
(g53
S'1<\x93\x1d\x0c\xba\xe8?'
p164
tp165
Rp166
ag49
(g53
S'\x9e\x16\x7f\xb8\xd7\x87\xcb?'
p167
tp168
Rp169
ag49
(g53
S'\x02\x8f\xc5\x0bO\xfa\xc6?'
p170
tp171
Rp172
ag49
(g53
S'\x96c48u)\xe5?'
p173
tp174
Rp175
ag49
(g53
S"6vC'\x18\x89\xcf?"
p176
tp177
Rp178
ag49
(g53
S'1<\x93\x1d\x0c\xba\xe8?'
p179
tp180
Rp181
ag49
(g53
S'>\x90\xc8\\\xbeJ\xe7?'
p182
tp183
Rp184
ag49
(g53
S'>\x90\xc8\\\xbeJ\xe7?'
p185
tp186
Rp187
ag49
(g53
S'v+x\xaf\xc3J\xe7?'
p188
tp189
Rp190
ag49
(g53
S'\x9e\x16\x7f\xb8\xd7\x87\xcb?'
p191
tp192
Rp193
ag49
(g53
S'1<\x93\x1d\x0c\xba\xe8?'
p194
tp195
Rp196
ag49
(g53
S'\x9e\x16\x7f\xb8\xd7\x87\xcb?'
p197
tp198
Rp199
ag49
(g53
S"Y\x19\xf5'\xa5\xe9\xe9?"
p200
tp201
Rp202
ag49
(g53
S'\xee\xcf6\x16(u\xe2?'
p203
tp204
Rp205
ag49
(g53
S'\x96c48u)\xe5?'
p206
tp207
Rp208
ag49
(g53
S'\xee\xcf6\x16(u\xe2?'
p209
tp210
Rp211
ag49
(g53
S"6vC'\x18\x89\xcf?"
p212
tp213
Rp214
ag49
(g53
S'\x02\x8f\xc5\x0bO\xfa\xc6?'
p215
tp216
Rp217
asS'sp'
p218
(lp219
(S'p0'
p220
I0
g22
tp221
a(g220
I0
S'y'
p222
tp223
a(g220
I0
g222
tp224
a(g220
I0
S'x'
p225
tp226
a(S'p1'
p227
I0
g225
tp228
a(g227
I0
g225
tp229
a(g227
I0
g222
tp230
a(g227
I0
g225
tp231
a(g227
I0
g225
tp232
ag229
a(g227
I0
S't'
p233
tp234
a(g227
I0
g233
tp235
a(g227
I0
g233
tp236
a(g227
I0
g222
tp237
ag231
ag234
ag237
a(S'p2'
p238
I0
g222
tp239
a(g238
I0
g225
tp240
a(S'p3'
p241
I0
g225
tp242
ag242
a(g241
I0
g233
tp243
a(g241
I0
g222
tp244
a(g241
I0
g225
tp245
ag243
a(g241
F1.5707963267948966
g233
tp246
a(g241
I0
g233
tp247
ag244
ag245
ag243
ag244
a(g238
I0
g222
tp248
ag240
ag242
ag242
ag243
ag244
a(g241
I0
g233
tp249
ag246
ag246
a(g241
F1.5707963267948966
g222
tp250
a(g241
F1.5707963267948966
g225
tp251
a(g241
F1.5707963267948966
g225
tp252
ag252
a(g241
F1.5707963267948966
g225
tp253
a(g241
F1.5707963267948966
g222
tp254
ag251
ag254
a(g241
F1.5707963267948966
g233
tp255
a(g241
F1.5707963267948966
g233
tp256
ag256
ag256
ag250
a(S'p4'
p257
F1.5707963267948966
g222
tp258
asS's'
p259
(lp260
g221
ag221
ag223
ag224
ag226
ag228
ag229
ag230
ag231
ag232
ag229
ag234
ag235
ag236
ag237
ag231
ag234
ag237
ag239
ag240
ag242
ag242
ag243
ag244
ag245
ag243
ag246
ag247
ag244
ag245
ag243
ag244
ag248
ag240
ag242
ag242
ag243
ag244
ag249
ag246
ag246
ag250
ag251
ag252
ag252
ag253
ag254
ag251
ag254
ag255
ag256
ag256
ag256
ag250
asS'ui'
p261
(lp262
S'hp'
p263
aS'hs'
p264
aS'ss'
p265
ag264
ag218
ag218
ag263
ag264
ag263
ag218
ag264
ag265
ag218
ag264
ag264
ag264
ag264
ag218
ag218
ag218
ag264
ag264
ag218
ag264
ag264
ag218
ag264
ag218
ag263
ag264
ag264
ag263
ag264
ag218
ag264
ag264
ag264
ag263
ag218
ag264
ag264
ag264
ag263
ag218
ag218
ag263
ag264
ag263
ag264
ag264
ag264
ag264
ag264
ag218
asS'um_before'
p266
(lp267
g263
ag218
ag265
ag264
ag218
ag218
ag263
ag264
ag265
ag218
ag264
ag265
ag218
ag264
ag264
ag264
ag264
ag218
ag264
ag218
ag263
ag264
ag264
ag264
ag264
ag218
ag265
ag264
ag264
ag264
ag264
ag265
ag264
ag218
ag263
ag264
ag264
ag263
ag218
ag263
ag264
ag264
ag265
ag265
ag218
ag263
ag264
ag263
ag263
ag218
ag263
ag218
ag264
ag218
asS'um_after'
p268
(lp269
Nag218
ag265
ag264
ag218
ag218
ag263
ag264
ag265
ag218
ag264
ag265
ag218
ag264
ag264
ag264
ag264
ag218
ag264
ag218
aNag264
ag264
ag264
ag264
ag218
ag265
ag264
ag264
ag264
ag264
ag265
ag264
ag218
aNag264
ag264
ag263
ag218
aNag264
ag264
ag265
ag265
ag218
ag263
ag264
ag263
ag263
ag218
aNag218
ag264
ag218
asS'is_normalized_entropy_less_than_threshold'
p270
(lp271
g49
(g50
(S'b1'
p272
I0
I1
tp273
Rp274
(I3
S'|'
p275
NNNI-1
I-1
I0
tp276
bS'\x01'
p277
tp278
Rp279
ag279
ag49
(g274
S'\x00'
p280
tp281
Rp282
ag279
ag279
ag282
ag279
ag282
ag282
ag282
ag282
ag282
ag279
ag279
ag282
ag282
ag279
ag279
ag279
ag279
ag279
ag279
ag282
ag282
ag279
ag279
ag282
ag282
ag282
ag279
ag282
ag282
ag279
ag279
ag279
ag279
ag282
ag279
ag279
ag279
ag279
ag282
ag282
ag282
ag282
ag279
ag282
ag279
ag282
ag279
ag279
ag279
ag279
ag279
asaa(lp283
S'index'
p284
aI20270
aatp285
Rp286
.