ccollections
OrderedDict
p0
((lp1
(lp2
S'combination_dict'
p3
ag0
((lp4
(lp5
S'r_to_g_config'
p6
aS'tl'
p7
aa(lp8
S'num_turns'
p9
aI3
aa(lp10
S'start_direction'
p11
acutils_ms
StartDirection
p12
(I0
tp13
Rp14
aa(lp15
S'assistance_type'
p16
acutils_ms
AssistanceType
p17
(I0
tp18
Rp19
aa(lp20
S'start_mode'
p21
aS'y'
p22
aa(lp23
S'ui_given_a_noise'
p24
aF0.1
aa(lp25
S'um_given_ui_noise'
p26
aF0.5
aa(lp27
S'entropy_threshold'
p28
aF0.5
aatp29
Rp30
aa(lp31
S'data'
p32
accollections
defaultdict
p33
(c__builtin__
list
p34
tp35
Rp36
S'a'
p37
(lp38
S'mode_l'
p39
ag39
aS'move_n'
p40
aS'mode_r'
p41
ag41
aS'move_p'
p42
ag42
ag39
ag40
ag40
ag41
ag41
ag41
ag41
ag42
ag42
ag39
ag39
ag40
ag39
ag39
ag42
ag39
ag42
asS'assistance_match_with_ground_truth'
p43
(lp44
I00
aI01
aI01
aI00
aI01
aI00
aI00
aI01
aI00
aI01
aI00
aI00
aI00
aI01
aI00
aI01
aI00
aI01
aI01
aI00
aI01
aI01
aI01
aI01
asS'is_u_intended_equals_um'
p45
(lp46
I00
aI01
aI01
aI00
aI01
aI00
aI00
aI01
aI00
aI01
aI00
aI00
aI00
aI01
aI00
aI01
aI01
aI01
aI01
aI00
aI01
aI01
aI01
aI01
asS'total_steps'
p47
I24
sS'normalized_h_of_p_ui_given_um'
p48
(lp49
cnumpy.core.multiarray
scalar
p50
(cnumpy
dtype
p51
(S'f8'
p52
I0
I1
tp53
Rp54
(I3
S'<'
p55
NNNI-1
I-1
I0
tp56
bS'\xd8\x02l\xa5>\xda\xe4?'
p57
tp58
Rp59
ag50
(g54
S'o\xf0\xd40\x11\x16\xc0?'
p60
tp61
Rp62
ag50
(g54
S'\xc4\xf4C\xd4_\xa3\xb4?'
p63
tp64
Rp65
ag50
(g54
S'\xd0uM\x1cZ\x14\xd2?'
p66
tp67
Rp68
ag50
(g54
S'\x9d\xe3H8\xab)\xc8?'
p69
tp70
Rp71
ag50
(g54
S'o\xfaR\xa9\x03 \xde?'
p72
tp73
Rp74
ag50
(g54
S'\x03N\xed\x9d\xbe\x9c\xe1?'
p75
tp76
Rp77
ag50
(g54
S'o\xf0\xd40\x11\x16\xc0?'
p78
tp79
Rp80
ag50
(g54
S'\xd2Z<? \xa5\xd7?'
p81
tp82
Rp83
ag50
(g54
S'\xc4\xf4C\xd4_\xa3\xb4?'
p84
tp85
Rp86
ag50
(g54
S'\x9b\xf72\xc9\xccP\xe0?'
p87
tp88
Rp89
ag50
(g54
S'\x9b\xf72\xc9\xccP\xe0?'
p90
tp91
Rp92
ag50
(g54
S'\xd0uM\x1cZ\x14\xd2?'
p93
tp94
Rp95
ag50
(g54
S'\x9d\xe3H8\xab)\xc8?'
p96
tp97
Rp98
ag50
(g54
S'o\xfaR\xa9\x03 \xde?'
p99
tp100
Rp101
ag50
(g54
S'\x86zP\xd3\xfc\x04\xc7?'
p102
tp103
Rp104
ag50
(g54
S'\xff\x91\x94.\\a\xe9?'
p105
tp106
Rp107
ag50
(g54
S'o\xf0\xd40\x11\x16\xc0?'
p108
tp109
Rp110
ag50
(g54
S'\xc4\xf4C\xd4_\xa3\xb4?'
p111
tp112
Rp113
ag50
(g54
S'\xd8\x02l\xa5>\xda\xe4?'
p114
tp115
Rp116
ag50
(g54
S'o\xf0\xd40\x11\x16\xc0?'
p117
tp118
Rp119
ag50
(g54
S'\x86zP\xd3\xfc\x04\xc7?'
p120
tp121
Rp122
ag50
(g54
S'o\xf0\xd40\x11\x16\xc0?'
p123
tp124
Rp125
ag50
(g54
S'\x86zP\xd3\xfc\x04\xc7?'
p126
tp127
Rp128
asS'sp'
p129
(lp130
(S'p0'
p131
I0
S'y'
p132
tp133
a(g131
I0
S'x'
p134
tp135
a(S'p1'
p136
I0
g134
tp137
ag137
a(g136
I0
g132
tp138
ag138
a(g131
I0
g132
tp139
ag135
ag135
ag137
a(g136
I0
g134
tp140
ag140
ag140
ag138
ag138
a(S'p2'
p141
I0
g132
tp142
a(g141
I0
g132
tp143
a(g141
I0
g134
tp144
a(S'p3'
p145
I0
g134
tp146
a(g145
I0
g134
tp147
a(g145
I0
S't'
p148
tp149
a(g145
F1.5707963267948966
g148
tp150
a(g145
F1.5707963267948966
g132
tp151
a(S'p4'
p152
F1.5707963267948966
g132
tp153
asS's'
p154
(lp155
(g131
I0
g22
tp156
ag133
ag135
ag137
ag137
ag138
ag138
ag139
ag135
ag135
ag137
ag140
ag140
ag140
ag138
ag138
ag142
ag143
ag144
ag146
ag147
ag149
ag150
ag151
asS'ui'
p157
(lp158
S'hs'
p159
ag159
aS'ss'
p160
aS'hp'
p161
ag161
ag129
ag129
ag159
ag161
ag160
ag161
ag161
ag129
ag161
ag129
ag129
ag129
ag159
ag160
ag159
ag159
ag129
ag159
ag161
asS'um_before'
p162
(lp163
g129
ag159
ag160
ag160
ag161
ag159
ag160
ag159
ag161
ag160
ag129
ag129
ag160
ag161
ag159
ag129
ag160
ag159
ag160
ag129
ag159
ag129
ag159
ag129
asS'um_after'
p164
(lp165
g129
ag159
ag160
aNag161
aNag160
ag159
aNag160
ag129
ag129
aNag161
aNag129
ag160
ag159
ag160
ag129
ag159
ag129
ag159
ag129
asS'is_normalized_entropy_less_than_threshold'
p166
(lp167
g50
(g51
(S'b1'
p168
I0
I1
tp169
Rp170
(I3
S'|'
p171
NNNI-1
I-1
I0
tp172
bS'\x00'
p173
tp174
Rp175
ag50
(g170
S'\x01'
p176
tp177
Rp178
ag178
ag178
ag178
ag178
ag175
ag178
ag178
ag178
ag175
ag175
ag178
ag178
ag178
ag178
ag175
ag178
ag178
ag175
ag178
ag178
ag178
ag178
asaa(lp179
S'index'
p180
aI48900
aatp181
Rp182
.