ccollections
OrderedDict
p0
((lp1
(lp2
S'combination_dict'
p3
ag0
((lp4
(lp5
S'r_to_g_config'
p6
aS'tr'
p7
aa(lp8
S'num_turns'
p9
aI3
aa(lp10
S'start_direction'
p11
acutils_ms
StartDirection
p12
(I0
tp13
Rp14
aa(lp15
S'assistance_type'
p16
acutils_ms
AssistanceType
p17
(I2
tp18
Rp19
aa(lp20
S'start_mode'
p21
aS't'
p22
aa(lp23
S'ui_given_a_noise'
p24
aF0.7
aa(lp25
S'um_given_ui_noise'
p26
aF0.5
aa(lp27
S'entropy_threshold'
p28
aF0.7
aatp29
Rp30
aa(lp31
S'data'
p32
accollections
defaultdict
p33
(c__builtin__
list
p34
tp35
Rp36
S'a'
p37
(lp38
S'mode_r'
p39
aS'move_p'
p40
aS'mode_l'
p41
ag39
ag41
ag41
ag39
ag40
ag39
ag40
ag41
ag39
ag41
ag41
ag41
ag40
ag41
ag41
ag41
ag40
ag39
ag40
ag39
ag40
ag41
ag40
ag41
ag40
ag39
ag41
ag41
ag41
ag40
ag39
ag40
ag41
ag41
ag40
ag41
ag41
ag40
ag40
ag41
ag40
ag41
ag41
ag41
ag39
asS'assistance_match_with_ground_truth'
p42
(lp43
I01
aI00
aI00
aI00
aI00
aI00
aI01
aI01
aI01
aI00
aI00
aI00
aI00
aI00
aI01
aI00
aI00
aI00
aI01
aI01
aI01
aI00
aI01
aI00
aI01
aI00
aI01
aI00
aI00
aI00
aI00
aI01
aI01
aI01
aI01
aI00
aI01
aI01
aI00
aI01
aI00
aI00
aI01
aI00
aI00
aI00
aI00
aI00
asS'is_u_intended_equals_um'
p44
(lp45
I00
aI00
aI00
aI00
aI00
aI00
aI00
aI00
aI00
aI00
aI00
aI00
aI00
aI00
aI00
aI00
aI00
aI00
aI00
aI00
aI00
aI00
aI00
aI00
aI00
aI00
aI00
aI00
aI00
aI00
aI00
aI00
aI00
aI00
aI00
aI00
aI00
aI00
aI00
aI00
aI00
aI00
aI00
aI00
aI00
aI00
aI00
aI00
asS'total_steps'
p46
I48
sS'normalized_h_of_p_ui_given_um'
p47
(lp48
cnumpy.core.multiarray
scalar
p49
(cnumpy
dtype
p50
(S'f8'
p51
I0
I1
tp52
Rp53
(I3
S'<'
p54
NNNI-1
I-1
I0
tp55
bS'B\x8a\xfd\x06]\x97\xe3?'
p56
tp57
Rp58
ag58
ag58
ag58
ag58
ag58
ag58
ag58
ag58
ag58
ag58
ag58
ag58
ag58
ag58
ag58
ag58
ag58
ag58
ag58
ag58
ag58
ag58
ag58
ag58
ag58
ag58
ag58
ag58
ag58
ag58
ag58
ag58
ag58
ag58
ag58
ag58
ag58
ag58
ag58
ag58
ag58
ag58
ag58
ag58
ag58
ag58
ag58
asS'sp'
p59
(lp60
(S'p0'
p61
I0
S'x'
p62
tp63
a(g61
I0
S'y'
p64
tp65
a(g61
I0
S't'
p66
tp67
a(g61
I0
g64
tp68
a(g61
I0
g64
tp69
ag67
ag63
a(S'p1'
p70
I0
g62
tp71
a(g70
I0
g64
tp72
a(g70
I0
g66
tp73
a(g70
I0
g62
tp74
a(g70
I0
g66
tp75
a(g70
I0
g66
tp76
ag76
a(g70
I0
g64
tp77
a(g61
I0
g64
tp78
a(g61
I0
g64
tp79
ag79
a(g61
I0
g62
tp80
ag71
ag72
a(g70
I0
g62
tp81
ag72
ag73
ag77
ag78
ag80
a(g61
I0
g66
tp82
ag68
ag79
ag69
ag80
ag71
ag72
a(S'p2'
p83
I0
g64
tp84
a(g83
I0
g64
tp85
a(g83
I0
g62
tp86
a(S'p3'
p87
I0
g62
tp88
a(g87
I0
g62
tp89
a(g87
I0
g66
tp90
a(g87
I0
g66
tp91
a(g87
I0
g62
tp92
ag90
ag92
a(g87
I0
g62
tp93
ag93
a(g87
I0
g64
tp94
a(S'p4'
p95
I0
g64
tp96
asS's'
p97
(lp98
(g61
I0
g22
tp99
ag63
ag65
ag67
ag68
ag69
ag67
ag63
ag71
ag72
ag73
ag74
ag75
ag76
ag76
ag77
ag78
ag79
ag79
ag80
ag71
ag72
ag81
ag72
ag73
ag77
ag78
ag80
ag82
ag68
ag79
ag69
ag80
ag71
ag72
ag84
ag85
ag86
ag88
ag89
ag90
ag91
ag92
ag90
ag92
ag93
ag93
ag94
asS'ui'
p100
(lp101
S'hp'
p102
ag102
aS'hs'
p103
ag103
ag103
ag103
ag103
ag59
ag102
ag102
ag59
ag59
aS'ss'
p104
ag104
ag103
ag104
ag104
ag102
ag103
ag59
ag59
ag103
ag102
ag102
ag103
ag104
ag103
ag102
ag103
ag103
ag59
ag103
ag59
ag102
ag59
ag104
ag103
ag59
ag59
ag103
ag102
ag102
ag103
ag59
ag59
ag103
ag102
ag102
asS'um_before'
p105
(lp106
g102
ag102
ag102
ag103
ag59
ag102
ag102
ag59
ag102
ag102
ag102
ag103
ag104
ag104
ag103
ag104
ag104
ag104
ag103
ag59
ag102
ag103
ag102
ag102
ag103
ag104
ag103
ag103
ag103
ag104
ag59
ag103
ag59
ag102
ag59
ag104
ag103
ag59
ag104
ag103
ag104
ag102
ag103
ag102
ag59
ag59
ag102
ag59
asS'um_after'
p107
(lp108
g102
ag102
ag102
ag103
ag59
ag102
ag102
ag59
ag102
ag102
ag102
ag103
ag104
ag104
ag103
ag104
ag104
ag104
ag103
ag59
ag102
ag103
ag102
ag102
ag103
ag104
ag103
ag103
ag103
ag104
ag59
ag103
ag59
ag102
ag59
ag104
ag103
ag59
ag104
ag103
ag104
ag102
ag103
ag102
ag59
ag59
ag102
ag59
asS'is_normalized_entropy_less_than_threshold'
p109
(lp110
g49
(g50
(S'b1'
p111
I0
I1
tp112
Rp113
(I3
S'|'
p114
NNNI-1
I-1
I0
tp115
bS'\x01'
p116
tp117
Rp118
ag118
ag118
ag118
ag118
ag118
ag118
ag118
ag118
ag118
ag118
ag118
ag118
ag118
ag118
ag118
ag118
ag118
ag118
ag118
ag118
ag118
ag118
ag118
ag118
ag118
ag118
ag118
ag118
ag118
ag118
ag118
ag118
ag118
ag118
ag118
ag118
ag118
ag118
ag118
ag118
ag118
ag118
ag118
ag118
ag118
ag118
ag118
asaa(lp119
S'index'
p120
aI23121
aatp121
Rp122
.