ccollections
OrderedDict
p0
((lp1
(lp2
S'combination_dict'
p3
ag0
((lp4
(lp5
S'r_to_g_config'
p6
aS'tr'
p7
aa(lp8
S'num_turns'
p9
aI3
aa(lp10
S'start_direction'
p11
acutils_ms
StartDirection
p12
(I1
tp13
Rp14
aa(lp15
S'assistance_type'
p16
acutils_ms
AssistanceType
p17
(I1
tp18
Rp19
aa(lp20
S'start_mode'
p21
aS'x'
p22
aa(lp23
S'ui_given_a_noise'
p24
aF0.7
aa(lp25
S'um_given_ui_noise'
p26
aF0.7
aa(lp27
S'entropy_threshold'
p28
aF0.7
aatp29
Rp30
aa(lp31
S'data'
p32
accollections
defaultdict
p33
(c__builtin__
list
p34
tp35
Rp36
S'a'
p37
(lp38
S'mode_r'
p39
aS'move_p'
p40
ag40
ag40
aS'mode_l'
p41
ag40
ag39
ag39
ag40
ag39
ag39
ag40
ag39
ag40
ag39
ag40
ag39
ag39
ag40
ag39
ag40
ag39
ag39
ag39
ag39
ag39
ag40
ag39
ag40
ag39
ag40
ag40
ag39
ag40
ag39
ag40
ag39
ag39
ag40
ag41
asS'assistance_match_with_ground_truth'
p42
(lp43
I01
aI00
aI00
aI01
aI01
aI00
aI00
aI01
aI00
aI00
aI01
aI01
aI01
aI00
aI01
aI00
aI00
aI01
aI01
aI01
aI00
aI00
aI00
aI00
aI00
aI01
aI01
aI00
aI00
aI01
aI00
aI01
aI00
aI01
aI00
aI00
aI00
aI01
aI00
aI00
asS'is_u_intended_equals_um'
p44
(lp45
I00
aI00
aI00
aI01
aI01
aI00
aI00
aI01
aI00
aI01
aI00
aI01
aI01
aI00
aI01
aI00
aI00
aI01
aI01
aI01
aI00
aI01
aI01
aI01
aI01
aI01
aI01
aI01
aI00
aI01
aI00
aI01
aI01
aI01
aI01
aI00
aI00
aI00
aI01
aI00
asS'total_steps'
p46
I40
sS'normalized_h_of_p_ui_given_um'
p47
(lp48
cnumpy.core.multiarray
scalar
p49
(cnumpy
dtype
p50
(S'f8'
p51
I0
I1
tp52
Rp53
(I3
S'<'
p54
NNNI-1
I-1
I0
tp55
bS'\xa4\x05\x00\xf3\x87\x86\xe1?'
p56
tp57
Rp58
ag49
(g53
S'\xca*\x84\x1f\xba\xb0\xec?'
p59
tp60
Rp61
ag49
(g53
S'\xca*\x84\x1f\xba\xb0\xec?'
p62
tp63
Rp64
ag49
(g53
S'7\xcd-\x15)\xdd\xe0?'
p65
tp66
Rp67
ag49
(g53
S'\x9c\x1e`b\xc0\x0c\xd2?'
p68
tp69
Rp70
ag49
(g53
S'e\x7fb\xc2\x926\xe8?'
p71
tp72
Rp73
ag49
(g53
S'\xf0\x83\x8eg\xaf,\xe3?'
p74
tp75
Rp76
ag49
(g53
S'X\xda\x16\xc9\x0f\x00\xda?'
p77
tp78
Rp79
ag49
(g53
S'e\x7fb\xc2\x926\xe8?'
p80
tp81
Rp82
ag49
(g53
S'P7\\\xee\x14\x86\xe3?'
p83
tp84
Rp85
ag49
(g53
S'\xa4\x05\x00\xf3\x87\x86\xe1?'
p86
tp87
Rp88
ag49
(g53
S'7\xcd-\x15)\xdd\xe0?'
p89
tp90
Rp91
ag49
(g53
S'X\xda\x16\xc9\x0f\x00\xda?'
p92
tp93
Rp94
ag49
(g53
S'e\x7fb\xc2\x926\xe8?'
p95
tp96
Rp97
ag49
(g53
S'X\xda\x16\xc9\x0f\x00\xda?'
p98
tp99
Rp100
ag49
(g53
S'e\x7fb\xc2\x926\xe8?'
p101
tp102
Rp103
ag49
(g53
S'\xf0\x83\x8eg\xaf,\xe3?'
p104
tp105
Rp106
ag49
(g53
S'X\xda\x16\xc9\x0f\x00\xda?'
p107
tp108
Rp109
ag49
(g53
S'7\xcd-\x15)\xdd\xe0?'
p110
tp111
Rp112
ag49
(g53
S'X\xda\x16\xc9\x0f\x00\xda?'
p113
tp114
Rp115
ag49
(g53
S'e\x7fb\xc2\x926\xe8?'
p116
tp117
Rp118
ag49
(g53
S'P7\\\xee\x14\x86\xe3?'
p119
tp120
Rp121
ag49
(g53
S'P7\\\xee\x14\x86\xe3?'
p122
tp123
Rp124
ag49
(g53
S'P7\\\xee\x14\x86\xe3?'
p125
tp126
Rp127
ag49
(g53
S'P7\\\xee\x14\x86\xe3?'
p128
tp129
Rp130
ag49
(g53
S'X\xda\x16\xc9\x0f\x00\xda?'
p131
tp132
Rp133
ag49
(g53
S'7\xcd-\x15)\xdd\xe0?'
p134
tp135
Rp136
ag49
(g53
S'P7\\\xee\x14\x86\xe3?'
p137
tp138
Rp139
ag49
(g53
S'e\x7fb\xc2\x926\xe8?'
p140
tp141
Rp142
ag49
(g53
S'X\xda\x16\xc9\x0f\x00\xda?'
p143
tp144
Rp145
ag49
(g53
S'\xca*\x84\x1f\xba\xb0\xec?'
p146
tp147
Rp148
ag49
(g53
S'7\xcd-\x15)\xdd\xe0?'
p149
tp150
Rp151
ag49
(g53
S'P7\\\xee\x14\x86\xe3?'
p152
tp153
Rp154
ag49
(g53
S'7\xcd-\x15)\xdd\xe0?'
p155
tp156
Rp157
ag49
(g53
S'P7\\\xee\x14\x86\xe3?'
p158
tp159
Rp160
ag49
(g53
S'e\x7fb\xc2\x926\xe8?'
p161
tp162
Rp163
ag49
(g53
S'\xf0\x83\x8eg\xaf,\xe3?'
p164
tp165
Rp166
ag49
(g53
S'\xa4\x05\x00\xf3\x87\x86\xe1?'
p167
tp168
Rp169
ag49
(g53
S'^\xc3\x0f\xae\x9a\x92\xe9?'
p170
tp171
Rp172
ag49
(g53
S'v\xa6\xa4\xa0\x95\x7f\xe9?'
p173
tp174
Rp175
asS'sp'
p176
(lp177
(S'p0'
p178
I0
S'y'
p179
tp180
a(g178
I0
g179
tp181
ag181
a(S'p1'
p182
I0
g179
tp183
a(g182
I0
S'x'
p184
tp185
a(g182
I0
S't'
p186
tp187
a(g182
I0
g186
tp188
a(g182
I0
g184
tp189
ag187
ag188
ag189
a(S'p2'
p190
I0
g184
tp191
a(g190
I0
g179
tp192
a(g190
I0
g184
tp193
ag192
ag193
a(g190
I0
g184
tp194
ag192
a(S'p3'
p195
I0
g179
tp196
a(g195
I0
g186
tp197
a(g195
I0
g179
tp198
a(g195
I0
g179
tp199
ag199
ag199
ag199
ag197
a(g195
F1.5707963267948966
g186
tp200
a(g195
I0
g186
tp201
ag198
ag197
a(g195
I0
g186
tp202
ag200
ag201
ag200
ag201
ag198
ag199
ag197
a(g195
I0
g184
tp203
a(S'p4'
p204
I0
g184
tp205
asS's'
p206
(lp207
(g178
I0
g22
tp208
ag180
ag181
ag181
ag183
ag185
ag187
ag188
ag189
ag187
ag188
ag189
ag191
ag192
ag193
ag192
ag193
ag194
ag192
ag196
ag197
ag198
ag199
ag199
ag199
ag199
ag197
ag200
ag201
ag198
ag197
ag202
ag200
ag201
ag200
ag201
ag198
ag199
ag197
ag203
asS'ui'
p209
(lp210
S'hs'
p211
ag176
ag176
ag176
ag211
ag211
ag176
aS'hp'
p212
ag212
aS'ss'
p213
ag211
ag176
ag212
ag211
ag212
ag211
ag213
ag212
ag176
ag211
ag176
ag212
ag213
ag213
ag212
ag212
ag176
ag212
ag211
ag212
ag212
ag176
ag211
ag176
ag212
ag176
ag213
ag212
ag212
ag213
asS'um_before'
p214
(lp215
g211
ag213
ag213
ag176
ag211
ag211
ag176
ag212
ag211
ag213
ag211
ag176
ag212
ag211
ag212
ag211
ag176
ag212
ag176
ag212
ag211
ag213
ag213
ag213
ag213
ag212
ag176
ag213
ag211
ag212
ag213
ag176
ag213
ag176
ag213
ag211
ag176
ag211
ag212
ag176
asS'um_after'
p216
(lp217
g212
ag213
ag213
ag176
ag211
ag211
ag213
ag212
ag211
ag213
ag212
ag176
ag212
ag211
ag212
ag211
ag213
ag212
ag176
ag212
ag211
ag213
ag213
ag213
ag213
ag212
ag176
ag213
ag211
ag212
ag213
ag176
ag213
ag176
ag213
ag211
ag213
ag212
ag212
ag176
asS'is_normalized_entropy_less_than_threshold'
p218
(lp219
g49
(g50
(S'b1'
p220
I0
I1
tp221
Rp222
(I3
S'|'
p223
NNNI-1
I-1
I0
tp224
bS'\x01'
p225
tp226
Rp227
ag49
(g222
S'\x00'
p228
tp229
Rp230
ag230
ag227
ag227
ag230
ag227
ag227
ag230
ag227
ag227
ag227
ag227
ag230
ag227
ag230
ag227
ag227
ag227
ag227
ag230
ag227
ag227
ag227
ag227
ag227
ag227
ag227
ag230
ag227
ag230
ag227
ag227
ag227
ag227
ag230
ag227
ag227
ag230
ag230
asaa(lp231
S'index'
p232
aI26374
aatp233
Rp234
.