ccollections
OrderedDict
p0
((lp1
(lp2
S'combination_dict'
p3
ag0
((lp4
(lp5
S'r_to_g_config'
p6
aS'bl'
p7
aa(lp8
S'num_turns'
p9
aI3
aa(lp10
S'start_direction'
p11
acutils_ms
StartDirection
p12
(I0
tp13
Rp14
aa(lp15
S'assistance_type'
p16
acutils_ms
AssistanceType
p17
(I0
tp18
Rp19
aa(lp20
S'start_mode'
p21
aS'y'
p22
aa(lp23
S'ui_given_a_noise'
p24
aF0.1
aa(lp25
S'um_given_ui_noise'
p26
aF0.1
aa(lp27
S'entropy_threshold'
p28
aF0.7
aatp29
Rp30
aa(lp31
S'data'
p32
accollections
defaultdict
p33
(c__builtin__
list
p34
tp35
Rp36
S'a'
p37
(lp38
S'mode_l'
p39
aS'move_n'
p40
aS'mode_r'
p41
ag41
ag41
ag41
ag40
ag40
ag41
ag40
ag40
ag39
ag40
ag41
ag40
ag41
ag40
ag39
aS'move_p'
p42
ag39
ag40
ag40
ag40
asS'assistance_match_with_ground_truth'
p43
(lp44
I01
aI01
aI00
aI00
aI00
aI01
aI00
aI00
aI01
aI00
aI01
aI01
aI00
aI01
aI00
aI01
aI01
aI01
aI01
aI01
aI00
aI00
aI01
asS'is_u_intended_equals_um'
p45
(lp46
I01
aI01
aI00
aI00
aI00
aI01
aI00
aI01
aI01
aI00
aI01
aI01
aI01
aI01
aI01
aI01
aI01
aI01
aI01
aI01
aI00
aI00
aI01
asS'total_steps'
p47
I23
sS'normalized_h_of_p_ui_given_um'
p48
(lp49
cnumpy.core.multiarray
scalar
p50
(cnumpy
dtype
p51
(S'f8'
p52
I0
I1
tp53
Rp54
(I3
S'<'
p55
NNNI-1
I-1
I0
tp56
bS'\x02\x1bT\xd0\xe0\xed\xa8?'
p57
tp58
Rp59
ag50
(g54
S'\x11\xabt5\xbd\xfa\xa3?'
p60
tp61
Rp62
ag50
(g54
S'\xf4F\xd2@`\x9c\xdb?'
p63
tp64
Rp65
ag50
(g54
S'\xa3\xfai**\xdc\xe2?'
p66
tp67
Rp68
ag50
(g54
S'\xf4F\xd2@`\x9c\xdb?'
p69
tp70
Rp71
ag50
(g54
S'F\x8e\xb6I-H\xaa?'
p72
tp73
Rp74
ag50
(g54
S'(\xe7m\x8c\xe4\x89\xe5?'
p75
tp76
Rp77
ag50
(g54
S'L\xef\x89D\xea\x8f\xe2?'
p78
tp79
Rp80
ag50
(g54
S'F\x8e\xb6I-H\xaa?'
p81
tp82
Rp83
ag50
(g54
S'MB\xd9\x11\x04\x93\xe4?'
p84
tp85
Rp86
ag50
(g54
S'\x11\xabt5\xbd\xfa\xa3?'
p87
tp88
Rp89
ag50
(g54
S'\x02\x1bT\xd0\xe0\xed\xa8?'
p90
tp91
Rp92
ag50
(g54
S'L\xef\x89D\xea\x8f\xe2?'
p93
tp94
Rp95
ag50
(g54
S'F\x8e\xb6I-H\xaa?'
p96
tp97
Rp98
ag50
(g54
S'L\xef\x89D\xea\x8f\xe2?'
p99
tp100
Rp101
ag50
(g54
S'F\x8e\xb6I-H\xaa?'
p102
tp103
Rp104
ag50
(g54
S'\x11\xabt5\xbd\xfa\xa3?'
p105
tp106
Rp107
ag50
(g54
S'\x02\x1bT\xd0\xe0\xed\xa8?'
p108
tp109
Rp110
ag50
(g54
S'Z\x0f>\xc7\xa7A\xa7?'
p111
tp112
Rp113
ag50
(g54
S'\x02\x1bT\xd0\xe0\xed\xa8?'
p114
tp115
Rp116
ag50
(g54
S'(\xe7m\x8c\xe4\x89\xe5?'
p117
tp118
Rp119
ag50
(g54
S'(\xe7m\x8c\xe4\x89\xe5?'
p120
tp121
Rp122
ag50
(g54
S'\x11\xabt5\xbd\xfa\xa3?'
p123
tp124
Rp125
asS'sp'
p126
(lp127
(S'p0'
p128
I0
S'x'
p129
tp130
a(S'p1'
p131
I0
g129
tp132
ag132
ag132
ag132
a(g131
I0
S'y'
p133
tp134
ag134
a(g131
I0
g129
tp135
ag134
ag134
a(S'p2'
p136
I0
g133
tp137
a(g136
I0
g129
tp138
a(g136
I0
S't'
p139
tp140
a(g136
I0
g129
tp141
ag140
ag141
a(S'p3'
p142
I0
g129
tp143
a(g142
I0
g139
tp144
a(g142
F1.5707963267948966
g139
tp145
a(g142
F1.5707963267948966
g133
tp146
ag146
ag146
a(S'p4'
p147
F1.5707963267948966
g133
tp148
asS's'
p149
(lp150
(g128
I0
g22
tp151
ag130
ag132
ag132
ag132
ag132
ag134
ag134
ag135
ag134
ag134
ag137
ag138
ag140
ag141
ag140
ag141
ag143
ag144
ag145
ag146
ag146
ag146
asS'ui'
p152
(lp153
S'hs'
p154
aS'ss'
p155
aS'hp'
p156
ag156
ag126
ag156
ag156
ag154
ag156
ag126
ag155
ag154
ag154
ag156
ag154
ag156
ag155
ag154
ag126
ag154
ag155
ag155
ag155
asS'um_before'
p157
(lp158
g154
ag155
ag126
ag154
ag126
ag156
ag156
ag154
ag156
ag126
ag155
ag154
ag154
ag156
ag154
ag156
ag155
ag154
ag126
ag154
ag156
ag156
ag155
asS'um_after'
p159
(lp160
g154
ag155
aNaNaNag156
aNag154
ag156
aNag155
ag154
ag154
ag156
ag154
ag156
ag155
ag154
ag126
ag154
aNaNag155
asS'is_normalized_entropy_less_than_threshold'
p161
(lp162
g50
(g51
(S'b1'
p163
I0
I1
tp164
Rp165
(I3
S'|'
p166
NNNI-1
I-1
I0
tp167
bS'\x01'
p168
tp169
Rp170
ag170
ag170
ag170
ag170
ag170
ag170
ag170
ag170
ag170
ag170
ag170
ag170
ag170
ag170
ag170
ag170
ag170
ag170
ag170
ag170
ag170
ag170
asaa(lp171
S'index'
p172
aI77628
aatp173
Rp174
.