ccollections
OrderedDict
p0
((lp1
(lp2
S'combination_dict'
p3
ag0
((lp4
(lp5
S'r_to_g_config'
p6
aS'tl'
p7
aa(lp8
S'num_turns'
p9
aI3
aa(lp10
S'start_direction'
p11
acutils_ms
StartDirection
p12
(I1
tp13
Rp14
aa(lp15
S'assistance_type'
p16
acutils_ms
AssistanceType
p17
(I2
tp18
Rp19
aa(lp20
S'start_mode'
p21
aS't'
p22
aa(lp23
S'ui_given_a_noise'
p24
aF0.3
aa(lp25
S'um_given_ui_noise'
p26
aF0.7
aa(lp27
S'entropy_threshold'
p28
aF0.7
aatp29
Rp30
aa(lp31
S'data'
p32
accollections
defaultdict
p33
(c__builtin__
list
p34
tp35
Rp36
S'a'
p37
(lp38
S'mode_l'
p39
ag39
aS'mode_r'
p40
ag40
ag40
ag39
aS'move_p'
p41
ag40
ag40
ag40
ag40
ag41
ag40
ag39
ag40
ag40
ag40
ag40
ag41
ag40
ag41
ag40
ag40
ag41
ag39
ag40
ag41
ag40
ag39
ag40
ag40
ag39
ag39
ag41
ag40
ag40
ag41
ag40
ag40
ag39
ag40
ag41
ag40
ag40
ag41
ag41
ag39
ag41
ag40
ag39
ag40
ag41
ag39
ag40
ag39
aS'move_n'
p42
ag40
ag39
ag41
ag40
ag40
ag40
ag39
ag39
ag40
ag40
ag40
ag39
ag39
ag41
ag39
ag40
ag41
ag40
ag39
ag40
ag40
ag41
ag39
ag39
ag42
ag40
ag40
ag39
ag39
ag39
ag39
ag39
ag39
ag39
ag42
ag39
ag39
ag40
ag42
asS'assistance_match_with_ground_truth'
p43
(lp44
I00
aI00
aI00
aI00
aI00
aI01
aI00
aI00
aI00
aI00
aI01
aI00
aI00
aI00
aI00
aI00
aI00
aI01
aI00
aI01
aI01
aI00
aI01
aI00
aI00
aI01
aI00
aI00
aI00
aI00
aI00
aI00
aI01
aI00
aI00
aI01
aI00
aI00
aI00
aI00
aI01
aI00
aI00
aI01
aI00
aI00
aI01
aI01
aI00
aI00
aI01
aI01
aI00
aI00
aI01
aI00
aI00
aI01
aI00
aI00
aI00
aI00
aI00
aI00
aI00
aI00
aI00
aI00
aI01
aI00
aI00
aI01
aI00
aI00
aI00
aI00
aI01
aI01
aI00
aI01
aI00
aI00
aI00
aI00
aI00
aI00
aI00
aI00
aI00
aI01
aI00
aI00
aI00
aI01
aI01
asS'is_u_intended_equals_um'
p45
(lp46
I01
aI01
aI01
aI01
aI01
aI01
aI01
aI01
aI01
aI01
aI01
aI01
aI01
aI01
aI01
aI01
aI01
aI01
aI01
aI01
aI01
aI01
aI01
aI01
aI01
aI01
aI01
aI01
aI01
aI01
aI01
aI01
aI01
aI01
aI01
aI01
aI01
aI01
aI01
aI01
aI01
aI01
aI01
aI01
aI01
aI01
aI01
aI01
aI01
aI01
aI01
aI01
aI01
aI01
aI01
aI01
aI01
aI01
aI01
aI01
aI01
aI01
aI01
aI01
aI01
aI01
aI01
aI01
aI01
aI01
aI01
aI01
aI01
aI01
aI01
aI01
aI01
aI01
aI01
aI01
aI01
aI01
aI01
aI01
aI01
aI01
aI01
aI01
aI01
aI01
aI01
aI01
aI01
aI01
aI01
asS'total_steps'
p47
I95
sS'normalized_h_of_p_ui_given_um'
p48
(lp49
cnumpy.core.multiarray
scalar
p50
(cnumpy
dtype
p51
(S'f8'
p52
I0
I1
tp53
Rp54
(I3
S'<'
p55
NNNI-1
I-1
I0
tp56
bS'\x05n\x9b\xd5\xce\xb4\xe5?'
p57
tp58
Rp59
ag59
ag59
ag59
ag59
ag59
ag59
ag59
ag59
ag59
ag59
ag59
ag59
ag59
ag59
ag59
ag59
ag59
ag59
ag59
ag59
ag59
ag59
ag59
ag59
ag59
ag59
ag59
ag59
ag59
ag59
ag59
ag59
ag59
ag59
ag59
ag59
ag59
ag59
ag59
ag59
ag59
ag59
ag59
ag59
ag59
ag59
ag59
ag59
ag59
ag59
ag59
ag59
ag59
ag59
ag59
ag59
ag59
ag59
ag59
ag59
ag59
ag59
ag59
ag59
ag59
ag59
ag59
ag59
ag59
ag59
ag59
ag59
ag59
ag59
ag59
ag59
ag59
ag59
ag59
ag59
ag59
ag59
ag59
ag59
ag59
ag59
ag59
ag59
ag59
ag59
ag59
ag59
ag59
ag59
asS'sp'
p60
(lp61
(S'p0'
p62
I0
S't'
p63
tp64
a(g62
I0
S'x'
p65
tp66
a(g62
I0
g65
tp67
a(g62
I0
g65
tp68
a(g62
I0
g63
tp69
a(g62
I0
S'y'
p70
tp71
a(g62
I0
g65
tp72
ag67
ag68
ag68
a(g62
I0
g70
tp73
ag72
ag69
ag66
ag68
ag67
ag68
ag73
ag72
ag73
a(S'p1'
p74
I0
g70
tp75
a(g74
I0
g70
tp76
a(g74
I0
g63
tp77
a(g74
I0
g65
tp78
a(S'p2'
p79
I0
g65
tp80
a(g79
I0
g70
tp81
a(g74
I0
g70
tp82
a(g74
I0
g65
tp83
ag80
a(g79
I0
g65
tp84
a(g79
I0
g63
tp85
a(g79
I0
g63
tp86
a(g79
I0
g70
tp87
ag82
a(g74
I0
g70
tp88
ag77
a(g74
I0
g70
tp89
ag88
ag83
a(g62
I0
g65
tp90
ag73
ag72
ag68
ag73
a(g62
I0
g70
tp91
a(g62
I0
g63
tp92
ag71
ag75
ag83
ag80
ag81
a(S'p3'
p93
I0
g70
tp94
a(g93
I0
g63
tp95
a(g93
I0
g70
tp96
a(g93
I0
g65
tp97
a(g79
I0
g65
tp98
ag85
ag87
a(g79
I0
g65
tp99
ag84
ag84
ag85
ag86
a(g79
I0
g65
tp100
ag84
ag84
ag85
a(g79
I0
g63
tp101
ag87
a(g79
I0
g63
tp102
ag100
ag81
ag99
ag85
ag100
ag84
ag81
ag94
a(g93
I0
g70
tp103
ag97
a(g93
I0
g63
tp104
a(g93
I0
g63
tp105
ag96
a(g93
I0
g70
tp106
ag106
ag103
ag103
ag103
ag103
ag97
a(g93
I0
g70
tp107
ag106
ag95
a(g93
I0
g65
tp108
a(S'p4'
p109
I0
g65
tp110
asS's'
p111
(lp112
(g62
I0
g22
tp113
ag64
ag66
ag67
ag68
ag69
ag71
ag72
ag67
ag68
ag68
ag73
ag72
ag69
ag66
ag68
ag67
ag68
ag73
ag72
ag73
ag75
ag76
ag77
ag78
ag80
ag81
ag82
ag83
ag80
ag84
ag85
ag86
ag87
ag82
ag88
ag77
ag89
ag88
ag83
ag90
ag73
ag72
ag68
ag73
ag91
ag92
ag71
ag75
ag83
ag80
ag81
ag94
ag95
ag96
ag97
ag98
ag85
ag87
ag99
ag84
ag84
ag85
ag86
ag100
ag84
ag84
ag85
ag101
ag87
ag102
ag100
ag81
ag99
ag85
ag100
ag84
ag81
ag94
ag103
ag97
ag104
ag105
ag96
ag106
ag106
ag103
ag103
ag103
ag103
ag97
ag107
ag106
ag95
ag108
asS'ui'
p114
(lp115
S'hs'
p116
ag116
aS'hp'
p117
aS'ss'
p118
ag117
ag116
ag116
ag118
ag117
ag117
ag117
ag60
ag117
ag117
ag117
ag118
ag118
ag117
ag60
ag117
ag60
ag118
ag117
ag60
ag116
ag117
ag118
ag117
ag116
ag117
ag117
ag116
ag116
ag60
ag60
ag118
ag116
ag117
ag117
ag116
ag117
ag60
ag117
ag118
ag60
ag60
ag116
ag60
ag117
ag116
ag117
ag116
ag117
ag117
ag116
ag118
ag117
ag116
ag116
ag118
ag117
ag117
ag60
ag116
ag118
ag117
ag117
ag116
ag116
ag116
ag117
ag117
ag60
ag117
ag116
ag118
ag118
ag60
ag116
ag116
ag118
ag117
ag118
ag118
ag118
ag116
ag118
ag116
ag118
ag116
ag118
ag116
ag116
ag117
ag118
asS'um_before'
p119
(lp120
g118
ag117
ag60
ag118
ag116
ag116
ag116
ag60
ag118
ag118
ag117
ag116
ag116
ag117
ag118
ag60
ag118
ag117
ag116
ag117
ag60
ag118
ag117
ag117
ag118
ag117
ag118
ag116
ag118
ag118
ag116
ag118
ag116
ag118
ag60
ag117
ag116
ag60
ag116
ag60
ag117
ag116
ag118
ag117
ag118
ag117
ag116
ag60
ag116
ag118
ag117
ag60
ag117
ag116
ag116
ag60
ag116
ag116
ag116
ag118
ag118
ag116
ag118
ag117
ag118
ag118
ag116
ag60
ag116
ag117
ag117
ag117
ag116
ag116
ag117
ag118
ag117
ag60
ag60
ag116
ag116
ag118
ag116
ag118
ag118
ag60
ag60
ag60
ag60
ag116
ag117
ag118
ag117
ag117
ag118
asS'um_after'
p121
(lp122
g118
ag117
ag60
ag118
ag116
ag116
ag116
ag60
ag118
ag118
ag117
ag116
ag116
ag117
ag118
ag60
ag118
ag117
ag116
ag117
ag60
ag118
ag117
ag117
ag118
ag117
ag118
ag116
ag118
ag118
ag116
ag118
ag116
ag118
ag60
ag117
ag116
ag60
ag116
ag60
ag117
ag116
ag118
ag117
ag118
ag117
ag116
ag60
ag116
ag118
ag117
ag60
ag117
ag116
ag116
ag60
ag116
ag116
ag116
ag118
ag118
ag116
ag118
ag117
ag118
ag118
ag116
ag60
ag116
ag117
ag117
ag117
ag116
ag116
ag117
ag118
ag117
ag60
ag60
ag116
ag116
ag118
ag116
ag118
ag118
ag60
ag60
ag60
ag60
ag116
ag117
ag118
ag117
ag117
ag118
asS'is_normalized_entropy_less_than_threshold'
p123
(lp124
g50
(g51
(S'b1'
p125
I0
I1
tp126
Rp127
(I3
S'|'
p128
NNNI-1
I-1
I0
tp129
bS'\x01'
p130
tp131
Rp132
ag132
ag132
ag132
ag132
ag132
ag132
ag132
ag132
ag132
ag132
ag132
ag132
ag132
ag132
ag132
ag132
ag132
ag132
ag132
ag132
ag132
ag132
ag132
ag132
ag132
ag132
ag132
ag132
ag132
ag132
ag132
ag132
ag132
ag132
ag132
ag132
ag132
ag132
ag132
ag132
ag132
ag132
ag132
ag132
ag132
ag132
ag132
ag132
ag132
ag132
ag132
ag132
ag132
ag132
ag132
ag132
ag132
ag132
ag132
ag132
ag132
ag132
ag132
ag132
ag132
ag132
ag132
ag132
ag132
ag132
ag132
ag132
ag132
ag132
ag132
ag132
ag132
ag132
ag132
ag132
ag132
ag132
ag132
ag132
ag132
ag132
ag132
ag132
ag132
ag132
ag132
ag132
ag132
ag132
asaa(lp133
S'index'
p134
aI57177
aatp135
Rp136
.