ccollections
OrderedDict
p0
((lp1
(lp2
S'combination_dict'
p3
ag0
((lp4
(lp5
S'r_to_g_config'
p6
aS'br'
p7
aa(lp8
S'num_turns'
p9
aI3
aa(lp10
S'start_direction'
p11
acutils_ms
StartDirection
p12
(I0
tp13
Rp14
aa(lp15
S'assistance_type'
p16
acutils_ms
AssistanceType
p17
(I0
tp18
Rp19
aa(lp20
S'start_mode'
p21
aS't'
p22
aa(lp23
S'ui_given_a_noise'
p24
aF0.7
aa(lp25
S'um_given_ui_noise'
p26
aF0.3
aa(lp27
S'entropy_threshold'
p28
aF0.9
aatp29
Rp30
aa(lp31
S'data'
p32
accollections
defaultdict
p33
(c__builtin__
list
p34
tp35
Rp36
S'a'
p37
(lp38
S'mode_r'
p39
aS'mode_l'
p40
ag40
ag40
ag40
ag40
aS'move_p'
p41
ag40
ag41
ag39
ag39
ag40
ag41
ag41
ag39
ag40
ag41
ag40
ag40
ag41
ag41
ag40
ag40
ag41
ag39
ag40
ag41
ag39
ag40
ag40
ag40
ag41
ag39
ag39
ag39
ag41
ag41
ag40
ag41
ag40
ag40
ag39
ag41
ag40
aS'move_n'
p42
ag40
ag41
ag41
ag40
ag40
ag41
ag39
ag40
ag39
ag42
ag40
ag39
ag39
ag40
ag41
ag39
ag40
ag42
asS'assistance_match_with_ground_truth'
p43
(lp44
I00
aI00
aI00
aI00
aI00
aI01
aI00
aI01
aI00
aI00
aI00
aI01
aI00
aI00
aI00
aI01
aI01
aI00
aI01
aI00
aI00
aI00
aI01
aI00
aI00
aI01
aI00
aI00
aI00
aI00
aI01
aI00
aI00
aI00
aI01
aI00
aI01
aI01
aI00
aI00
aI00
aI01
aI01
aI01
aI00
aI01
aI00
aI00
aI00
aI01
aI01
aI00
aI00
aI01
aI01
aI00
aI00
aI00
aI01
aI01
aI00
aI01
aI01
asS'is_u_intended_equals_um'
p45
(lp46
I01
aI01
aI00
aI01
aI00
aI01
aI01
aI01
aI01
aI01
aI01
aI01
aI01
aI01
aI01
aI01
aI01
aI00
aI01
aI01
aI01
aI01
aI01
aI01
aI01
aI01
aI01
aI01
aI01
aI00
aI01
aI01
aI01
aI01
aI01
aI01
aI01
aI01
aI01
aI01
aI01
aI01
aI01
aI01
aI01
aI01
aI01
aI01
aI01
aI01
aI01
aI01
aI01
aI01
aI01
aI01
aI01
aI01
aI01
aI01
aI01
aI01
aI01
asS'total_steps'
p47
I63
sS'normalized_h_of_p_ui_given_um'
p48
(lp49
cnumpy.core.multiarray
scalar
p50
(cnumpy
dtype
p51
(S'f8'
p52
I0
I1
tp53
Rp54
(I3
S'<'
p55
NNNI-1
I-1
I0
tp56
bS'\xa4\xb0\x0e\x08\x8a/\xe2?'
p57
tp58
Rp59
ag50
(g54
S'O\x00\xf9\xd3\xd6\x05\xe5?'
p60
tp61
Rp62
ag50
(g54
S'\xa0_(o\xf7\xd2\xe2?'
p63
tp64
Rp65
ag50
(g54
S'O\x00\xf9\xd3\xd6\x05\xe5?'
p66
tp67
Rp68
ag50
(g54
S'\xa0_(o\xf7\xd2\xe2?'
p69
tp70
Rp71
ag50
(g54
S'~\r\xfcE\xf5\xc9\xce?'
p72
tp73
Rp74
ag50
(g54
S'\xc1 2b\x1a\xd9\xe6?'
p75
tp76
Rp77
ag50
(g54
S'~\r\xfcE\xf5\xc9\xce?'
p78
tp79
Rp80
ag50
(g54
S'N#-\xd4\xc0\xf8\xe2?'
p81
tp82
Rp83
ag50
(g54
S'\x9a>_\xc1CK\xe0?'
p84
tp85
Rp86
ag50
(g54
S'\xa4\xb0\x0e\x08\x8a/\xe2?'
p87
tp88
Rp89
ag50
(g54
S'~\r\xfcE\xf5\xc9\xce?'
p90
tp91
Rp92
ag50
(g54
S'\xc0s\xdc\xab\xd5i\xe0?'
p93
tp94
Rp95
ag50
(g54
S'N#-\xd4\xc0\xf8\xe2?'
p96
tp97
Rp98
ag50
(g54
S'\xa4\xb0\x0e\x08\x8a/\xe2?'
p99
tp100
Rp101
ag50
(g54
S'~\r\xfcE\xf5\xc9\xce?'
p102
tp103
Rp104
ag50
(g54
S'\xefd\x1f\xc8\xd2f\xd5?'
p105
tp106
Rp107
ag50
(g54
S'\xa0_(o\xf7\xd2\xe2?'
p108
tp109
Rp110
ag50
(g54
S'~\r\xfcE\xf5\xc9\xce?'
p111
tp112
Rp113
ag50
(g54
S'\xc0s\xdc\xab\xd5i\xe0?'
p114
tp115
Rp116
ag50
(g54
S'\xc1 2b\x1a\xd9\xe6?'
p117
tp118
Rp119
ag50
(g54
S'O\x00\xf9\xd3\xd6\x05\xe5?'
p120
tp121
Rp122
ag50
(g54
S'~\r\xfcE\xf5\xc9\xce?'
p123
tp124
Rp125
ag50
(g54
S'N#-\xd4\xc0\xf8\xe2?'
p126
tp127
Rp128
ag50
(g54
S'\x9a>_\xc1CK\xe0?'
p129
tp130
Rp131
ag50
(g54
S'~\r\xfcE\xf5\xc9\xce?'
p132
tp133
Rp134
ag50
(g54
S'N#-\xd4\xc0\xf8\xe2?'
p135
tp136
Rp137
ag50
(g54
S'\xa4\xb0\x0e\x08\x8a/\xe2?'
p138
tp139
Rp140
ag50
(g54
S'O\x00\xf9\xd3\xd6\x05\xe5?'
p141
tp142
Rp143
ag50
(g54
S'\xa0_(o\xf7\xd2\xe2?'
p144
tp145
Rp146
ag50
(g54
S'~\r\xfcE\xf5\xc9\xce?'
p147
tp148
Rp149
ag50
(g54
S'N#-\xd4\xc0\xf8\xe2?'
p150
tp151
Rp152
ag50
(g54
S'\x9a>_\xc1CK\xe0?'
p153
tp154
Rp155
ag50
(g54
S'\x9a>_\xc1CK\xe0?'
p156
tp157
Rp158
ag50
(g54
S'\x8c\x9c3\x93\xd1\x8e\xd6?'
p159
tp160
Rp161
ag50
(g54
S'\xc0s\xdc\xab\xd5i\xe0?'
p162
tp163
Rp164
ag50
(g54
S'\xefd\x1f\xc8\xd2f\xd5?'
p165
tp166
Rp167
ag50
(g54
S'~\r\xfcE\xf5\xc9\xce?'
p168
tp169
Rp170
ag50
(g54
S'\xc1 2b\x1a\xd9\xe6?'
p171
tp172
Rp173
ag50
(g54
S'O\x00\xf9\xd3\xd6\x05\xe5?'
p174
tp175
Rp176
ag50
(g54
S'\xeb\xd8w\xd8\x1f\xd1\xdb?'
p177
tp178
Rp179
ag50
(g54
S'\x8c\x9c3\x93\xd1\x8e\xd6?'
p180
tp181
Rp182
ag50
(g54
S'\xefd\x1f\xc8\xd2f\xd5?'
p183
tp184
Rp185
ag50
(g54
S'~\r\xfcE\xf5\xc9\xce?'
p186
tp187
Rp188
ag50
(g54
S'\x94"Bp\x9d\xc9\xe5?'
p189
tp190
Rp191
ag50
(g54
S'~\r\xfcE\xf5\xc9\xce?'
p192
tp193
Rp194
ag50
(g54
S'\xc0s\xdc\xab\xd5i\xe0?'
p195
tp196
Rp197
ag50
(g54
S'\xc1 2b\x1a\xd9\xe6?'
p198
tp199
Rp200
ag50
(g54
S'O\x00\xf9\xd3\xd6\x05\xe5?'
p201
tp202
Rp203
ag50
(g54
S'~\r\xfcE\xf5\xc9\xce?'
p204
tp205
Rp206
ag50
(g54
S'\xefd\x1f\xc8\xd2f\xd5?'
p207
tp208
Rp209
ag50
(g54
S'\xa4\xb0\x0e\x08\x8a/\xe2?'
p210
tp211
Rp212
ag50
(g54
S'\xeb\xd8w\xd8\x1f\xd1\xdb?'
p213
tp214
Rp215
ag50
(g54
S'\x8c\x9c3\x93\xd1\x8e\xd6?'
p216
tp217
Rp218
ag50
(g54
S'mA\xa9\xf3db\xce?'
p219
tp220
Rp221
ag50
(g54
S'\xeb\xd8w\xd8\x1f\xd1\xdb?'
p222
tp223
Rp224
ag50
(g54
S'\x9a>_\xc1CK\xe0?'
p225
tp226
Rp227
ag50
(g54
S'\xa4\xb0\x0e\x08\x8a/\xe2?'
p228
tp229
Rp230
ag50
(g54
S'~\r\xfcE\xf5\xc9\xce?'
p231
tp232
Rp233
ag50
(g54
S'\xefd\x1f\xc8\xd2f\xd5?'
p234
tp235
Rp236
ag50
(g54
S'\xa4\xb0\x0e\x08\x8a/\xe2?'
p237
tp238
Rp239
ag50
(g54
S'~\r\xfcE\xf5\xc9\xce?'
p240
tp241
Rp242
ag50
(g54
S'mA\xa9\xf3db\xce?'
p243
tp244
Rp245
asS'sp'
p246
(lp247
(S'p0'
p248
I0
S'y'
p249
tp250
a(g248
I0
g249
tp251
ag251
ag251
ag251
a(g248
I0
S'x'
p252
tp253
a(g248
I0
g249
tp254
ag253
a(g248
I0
S't'
p255
tp256
a(g248
I0
g255
tp257
ag250
ag253
a(g248
I0
g252
tp258
ag256
ag250
ag253
a(S'p1'
p259
I0
g252
tp260
ag260
a(g259
I0
g255
tp261
a(g259
I0
g255
tp262
a(g259
I0
g252
tp263
a(g259
I0
g252
tp264
ag261
a(g259
I0
g249
tp265
a(g248
I0
g249
tp266
ag253
ag256
ag250
ag251
ag251
ag253
ag256
ag257
ag257
a(g248
I0
g252
tp267
ag258
ag260
ag261
ag263
ag264
a(g259
I0
g249
tp268
a(g259
I0
g255
tp269
a(g259
F1.5707963267948966
g255
tp270
a(g259
F1.5707963267948966
g249
tp271
a(g248
F1.5707963267948966
g249
tp272
a(g248
F1.5707963267948966
g252
tp273
a(g248
F1.5707963267948966
g252
tp274
a(g248
F1.5707963267948966
g249
tp275
a(g248
F1.5707963267948966
g249
tp276
ag273
a(g259
F1.5707963267948966
g252
tp277
a(g259
F1.5707963267948966
g255
tp278
a(g259
F1.5707963267948966
g252
tp279
a(g259
F1.5707963267948966
g249
tp280
a(S'p2'
p281
F1.5707963267948966
g249
tp282
a(g281
F1.5707963267948966
g255
tp283
a(g281
F1.5707963267948966
g255
tp284
a(g281
F1.5707963267948966
g249
tp285
a(g281
F1.5707963267948966
g252
tp286
a(S'p3'
p287
F1.5707963267948966
g252
tp288
a(g287
F1.5707963267948966
g255
tp289
a(g287
F1.5707963267948966
g249
tp290
a(S'p4'
p291
F1.5707963267948966
g249
tp292
asS's'
p293
(lp294
(g248
I0
g22
tp295
ag250
ag251
ag251
ag251
ag251
ag253
ag254
ag253
ag256
ag257
ag250
ag253
ag258
ag256
ag250
ag253
ag260
ag260
ag261
ag262
ag263
ag264
ag261
ag265
ag266
ag253
ag256
ag250
ag251
ag251
ag253
ag256
ag257
ag257
ag267
ag258
ag260
ag261
ag263
ag264
ag268
ag269
ag270
ag271
ag272
ag273
ag274
ag275
ag276
ag273
ag277
ag278
ag279
ag280
ag282
ag283
ag284
ag285
ag286
ag288
ag289
ag290
asS'ui'
p296
(lp297
S'hs'
p298
ag246
ag298
ag298
ag298
ag298
ag246
ag298
ag298
ag246
ag246
ag298
aS'ss'
p299
ag298
aS'hp'
p300
ag298
ag246
ag298
ag298
ag299
ag300
ag246
ag298
ag300
ag246
ag298
ag298
ag298
ag246
ag298
ag298
ag298
ag246
ag246
ag300
ag299
ag246
ag298
ag300
ag298
ag300
ag300
ag246
ag298
ag246
ag298
ag299
ag299
ag246
ag298
ag246
ag298
ag300
ag300
ag246
ag246
ag300
ag298
ag298
ag246
ag246
ag298
ag299
asS'um_before'
p301
(lp302
g298
ag246
ag299
ag246
ag299
ag298
ag300
ag298
ag298
ag246
ag298
ag298
ag299
ag298
ag298
ag298
ag246
ag299
ag298
ag299
ag300
ag246
ag298
ag298
ag246
ag298
ag298
ag298
ag246
ag299
ag298
ag298
ag246
ag246
ag300
ag299
ag246
ag298
ag300
ag246
ag300
ag300
ag246
ag298
ag246
ag298
ag299
ag300
ag246
ag298
ag246
ag298
ag300
ag300
ag299
ag300
ag246
ag298
ag298
ag246
ag298
ag298
ag299
asS'um_after'
p303
(lp304
g298
ag246
aNag246
aNag298
ag300
ag298
ag298
ag246
ag298
ag298
ag299
ag298
ag298
ag298
ag246
aNag298
ag299
ag300
ag246
ag298
ag298
ag246
ag298
ag298
ag298
ag246
aNag298
ag298
ag246
ag246
ag300
ag299
ag246
ag298
ag300
ag246
ag300
ag300
ag246
ag298
ag246
ag298
ag299
ag300
ag246
ag298
ag246
ag298
ag300
ag300
ag299
ag300
ag246
ag298
ag298
ag246
ag298
ag298
ag299
asS'is_normalized_entropy_less_than_threshold'
p305
(lp306
g50
(g51
(S'b1'
p307
I0
I1
tp308
Rp309
(I3
S'|'
p310
NNNI-1
I-1
I0
tp311
bS'\x01'
p312
tp313
Rp314
ag314
ag314
ag314
ag314
ag314
ag314
ag314
ag314
ag314
ag314
ag314
ag314
ag314
ag314
ag314
ag314
ag314
ag314
ag314
ag314
ag314
ag314
ag314
ag314
ag314
ag314
ag314
ag314
ag314
ag314
ag314
ag314
ag314
ag314
ag314
ag314
ag314
ag314
ag314
ag314
ag314
ag314
ag314
ag314
ag314
ag314
ag314
ag314
ag314
ag314
ag314
ag314
ag314
ag314
ag314
ag314
ag314
ag314
ag314
ag314
ag314
ag314
asaa(lp315
S'index'
p316
aI106292
aatp317
Rp318
.