ccollections
OrderedDict
p0
((lp1
(lp2
S'combination_dict'
p3
ag0
((lp4
(lp5
S'r_to_g_config'
p6
aS'br'
p7
aa(lp8
S'num_turns'
p9
aI2
aa(lp10
S'start_direction'
p11
acutils_ms
StartDirection
p12
(I1
tp13
Rp14
aa(lp15
S'assistance_type'
p16
acutils_ms
AssistanceType
p17
(I0
tp18
Rp19
aa(lp20
S'start_mode'
p21
aS'x'
p22
aa(lp23
S'ui_given_a_noise'
p24
aF0.5
aa(lp25
S'um_given_ui_noise'
p26
aF0.5
aa(lp27
S'entropy_threshold'
p28
aF0.7
aatp29
Rp30
aa(lp31
S'data'
p32
accollections
defaultdict
p33
(c__builtin__
list
p34
tp35
Rp36
S'a'
p37
(lp38
S'mode_r'
p39
aS'mode_l'
p40
ag40
ag39
ag40
ag40
ag39
ag40
aS'move_n'
p41
ag41
ag39
aS'move_p'
p42
ag39
ag42
ag39
ag40
ag42
ag39
ag39
ag41
ag39
ag41
ag40
ag39
ag39
ag39
ag39
ag40
ag40
ag39
ag40
ag40
ag40
ag40
ag39
ag40
ag39
ag39
ag39
ag40
ag39
ag41
ag39
ag39
ag39
ag40
ag40
ag41
ag40
ag39
ag39
ag39
ag41
asS'assistance_match_with_ground_truth'
p43
(lp44
I00
aI00
aI00
aI00
aI00
aI00
aI00
aI01
aI00
aI01
aI01
aI00
aI01
aI01
aI00
aI01
aI01
aI00
aI01
aI00
aI01
aI00
aI00
aI00
aI00
aI00
aI00
aI00
aI00
aI00
aI00
aI00
aI00
aI00
aI00
aI00
aI00
aI00
aI00
aI00
aI01
aI00
aI00
aI00
aI00
aI00
aI01
aI00
aI00
aI00
aI00
aI01
aI01
asS'is_u_intended_equals_um'
p45
(lp46
I01
aI01
aI01
aI01
aI00
aI01
aI01
aI01
aI00
aI01
aI01
aI01
aI01
aI01
aI01
aI01
aI01
aI00
aI01
aI00
aI01
aI00
aI01
aI00
aI00
aI00
aI01
aI01
aI01
aI01
aI00
aI00
aI01
aI01
aI01
aI01
aI00
aI00
aI01
aI01
aI01
aI00
aI00
aI00
aI01
aI00
aI01
aI00
aI01
aI00
aI00
aI01
aI01
asS'total_steps'
p47
I53
sS'normalized_h_of_p_ui_given_um'
p48
(lp49
cnumpy.core.multiarray
scalar
p50
(cnumpy
dtype
p51
(S'f8'
p52
I0
I1
tp53
Rp54
(I3
S'<'
p55
NNNI-1
I-1
I0
tp56
bS'$\x0ej$\xa2\xc2\xe1?'
p57
tp58
Rp59
ag50
(g54
S'\xbb\xea\xe5\xaa\xa5\xb4\xe5?'
p60
tp61
Rp62
ag50
(g54
S'\xf4P\xa2\xd3\x93\xfc\xea?'
p63
tp64
Rp65
ag50
(g54
S'$\x0ej$\xa2\xc2\xe1?'
p66
tp67
Rp68
ag50
(g54
S'\xee~CoE\xa7\xea?'
p69
tp70
Rp71
ag50
(g54
S'\xf4P\xa2\xd3\x93\xfc\xea?'
p72
tp73
Rp74
ag50
(g54
S'$\x0ej$\xa2\xc2\xe1?'
p75
tp76
Rp77
ag50
(g54
S'\xca\xb3:T\xb5\xe7\xda?'
p78
tp79
Rp80
ag50
(g54
S'\xca\xfcw\x16\xa0\xb0\xeb?'
p81
tp82
Rp83
ag50
(g54
S'K\xdd\xf5p@\xc5\xd6?'
p84
tp85
Rp86
ag50
(g54
S'\x91\xa68\xcf\xbc;\xd8?'
p87
tp88
Rp89
ag50
(g54
S'\xbc\xffwg\x95\x8c\xed?'
p90
tp91
Rp92
ag50
(g54
S'\x91\xa68\xcf\xbc;\xd8?'
p93
tp94
Rp95
ag50
(g54
S'e\xc5R"\xa2\xe6\xe1?'
p96
tp97
Rp98
ag50
(g54
S'$\x0ej$\xa2\xc2\xe1?'
p99
tp100
Rp101
ag50
(g54
S'\xca\xb3:T\xb5\xe7\xda?'
p102
tp103
Rp104
ag50
(g54
S'e\xc5R"\xa2\xe6\xe1?'
p105
tp106
Rp107
ag50
(g54
S'}\xed\xd2\x1c\xea\xac\xe6?'
p108
tp109
Rp110
ag50
(g54
S'\x91\xa68\xcf\xbc;\xd8?'
p111
tp112
Rp113
ag50
(g54
S'r\xaa\x1d\xcd\x8d\xa9\xe7?'
p114
tp115
Rp116
ag50
(g54
S'\x91\xa68\xcf\xbc;\xd8?'
p117
tp118
Rp119
ag50
(g54
S'\x86\xd7`rcs\xeb?'
p120
tp121
Rp122
ag50
(g54
S'\xf4P\xa2\xd3\x93\xfc\xea?'
p123
tp124
Rp125
ag50
(g54
S'}\xed\xd2\x1c\xea\xac\xe6?'
p126
tp127
Rp128
ag50
(g54
S'}\xed\xd2\x1c\xea\xac\xe6?'
p129
tp130
Rp131
ag50
(g54
S'}\xed\xd2\x1c\xea\xac\xe6?'
p132
tp133
Rp134
ag50
(g54
S'$\x0ej$\xa2\xc2\xe1?'
p135
tp136
Rp137
ag50
(g54
S'\xbb\xea\xe5\xaa\xa5\xb4\xe5?'
p138
tp139
Rp140
ag50
(g54
S'\xf4P\xa2\xd3\x93\xfc\xea?'
p141
tp142
Rp143
ag50
(g54
S'$\x0ej$\xa2\xc2\xe1?'
p144
tp145
Rp146
ag50
(g54
S'\xee~CoE\xa7\xea?'
p147
tp148
Rp149
ag50
(g54
S'\xee~CoE\xa7\xea?'
p150
tp151
Rp152
ag50
(g54
S'\xbb\xea\xe5\xaa\xa5\xb4\xe5?'
p153
tp154
Rp155
ag50
(g54
S'\xf4P\xa2\xd3\x93\xfc\xea?'
p156
tp157
Rp158
ag50
(g54
S'$\x0ej$\xa2\xc2\xe1?'
p159
tp160
Rp161
ag50
(g54
S'\xf4P\xa2\xd3\x93\xfc\xea?'
p162
tp163
Rp164
ag50
(g54
S'}\xed\xd2\x1c\xea\xac\xe6?'
p165
tp166
Rp167
ag50
(g54
S'2\xb2\x11\xc9\xa7E\xe3?'
p168
tp169
Rp170
ag50
(g54
S'$\x0ej$\xa2\xc2\xe1?'
p171
tp172
Rp173
ag50
(g54
S'\xf4P\xa2\xd3\x93\xfc\xea?'
p174
tp175
Rp176
ag50
(g54
S'\x91\xa68\xcf\xbc;\xd8?'
p177
tp178
Rp179
ag50
(g54
S'r\xaa\x1d\xcd\x8d\xa9\xe7?'
p180
tp181
Rp182
ag50
(g54
S'}\xed\xd2\x1c\xea\xac\xe6?'
p183
tp184
Rp185
ag50
(g54
S'2\xb2\x11\xc9\xa7E\xe3?'
p186
tp187
Rp188
ag50
(g54
S'$\x0ej$\xa2\xc2\xe1?'
p189
tp190
Rp191
ag50
(g54
S'\xee~CoE\xa7\xea?'
p192
tp193
Rp194
ag50
(g54
S'\xca\xb3:T\xb5\xe7\xda?'
p195
tp196
Rp197
ag50
(g54
S'\x86\xd7`rcs\xeb?'
p198
tp199
Rp200
ag50
(g54
S'\xf4P\xa2\xd3\x93\xfc\xea?'
p201
tp202
Rp203
ag50
(g54
S'}\xed\xd2\x1c\xea\xac\xe6?'
p204
tp205
Rp206
ag50
(g54
S'}\xed\xd2\x1c\xea\xac\xe6?'
p207
tp208
Rp209
ag50
(g54
S'\x91\xa68\xcf\xbc;\xd8?'
p210
tp211
Rp212
ag50
(g54
S'K\xdd\xf5p@\xc5\xd6?'
p213
tp214
Rp215
asS'sp'
p216
(lp217
(S'p0'
p218
I0
S't'
p219
tp220
a(g218
I0
g219
tp221
a(g218
I0
S'x'
p222
tp223
ag220
a(g218
I0
g219
tp224
ag223
ag220
a(g218
I0
S'y'
p225
tp226
a(g218
I0
g225
tp227
a(S'p1'
p228
I0
g225
tp229
a(g228
I0
g219
tp230
a(g228
I0
g225
tp231
ag230
a(g228
F1.5707963267948966
g219
tp232
a(g228
F1.5707963267948966
g225
tp233
a(g228
F1.5707963267948966
g222
tp234
a(S'p2'
p235
F1.5707963267948966
g222
tp236
a(g235
F1.5707963267948966
g222
tp237
a(g235
F1.5707963267948966
g225
tp238
a(g235
F1.5707963267948966
g222
tp239
ag238
a(g235
F1.5707963267948966
g219
tp240
a(g235
F1.5707963267948966
g222
tp241
ag237
ag237
ag237
a(g235
F1.5707963267948966
g219
tp242
a(g235
F1.5707963267948966
g219
tp243
ag241
ag242
a(g235
F1.5707963267948966
g219
tp244
ag244
ag243
ag241
ag242
ag241
ag237
ag237
ag242
ag241
ag238
ag239
ag237
ag237
ag242
ag244
a(g235
F1.5707963267948966
g225
tp245
ag240
ag241
ag237
ag237
ag238
a(S'p3'
p246
F1.5707963267948966
g225
tp247
asS's'
p248
(lp249
(g218
I0
g22
tp250
ag220
ag221
ag223
ag220
ag224
ag223
ag220
ag226
ag227
ag229
ag230
ag231
ag230
ag232
ag233
ag234
ag236
ag237
ag238
ag239
ag238
ag240
ag241
ag237
ag237
ag237
ag242
ag243
ag241
ag242
ag244
ag244
ag243
ag241
ag242
ag241
ag237
ag237
ag242
ag241
ag238
ag239
ag237
ag237
ag242
ag244
ag245
ag240
ag241
ag237
ag237
ag238
asS'ui'
p251
(lp252
S'hp'
p253
ag253
aS'ss'
p254
aS'hs'
p255
ag253
ag255
ag253
ag255
ag216
ag254
ag253
ag255
ag253
ag216
ag255
ag255
ag216
ag253
ag253
ag255
ag255
ag254
ag253
ag216
ag255
ag216
ag253
ag254
ag253
ag253
ag254
ag216
ag254
ag254
ag253
ag253
ag255
ag253
ag255
ag255
ag253
ag254
ag255
ag254
ag255
ag254
ag255
ag254
ag255
ag253
ag253
ag253
ag254
asS'um_before'
p256
(lp257
g255
ag254
ag253
ag255
ag216
ag253
ag255
ag255
ag216
ag254
ag253
ag255
ag253
ag216
ag255
ag255
ag216
ag216
ag253
ag255
ag253
ag253
ag253
ag216
ag216
ag216
ag255
ag254
ag253
ag255
ag216
ag216
ag254
ag253
ag255
ag253
ag216
ag254
ag255
ag253
ag253
ag255
ag216
ag254
ag255
ag216
ag255
ag253
ag253
ag216
ag216
ag253
ag254
asS'um_after'
p258
(lp259
g255
ag254
ag253
ag255
ag216
ag253
ag255
ag255
ag216
ag254
ag253
ag255
ag253
ag216
ag255
ag255
ag216
ag216
ag253
ag255
ag253
ag253
ag253
ag216
ag216
ag216
ag255
ag254
ag253
ag255
ag216
ag216
ag254
ag253
ag255
ag253
ag216
aNag255
ag253
ag253
ag255
ag216
aNag255
ag216
ag255
ag253
ag253
ag216
ag216
ag253
ag254
asS'is_normalized_entropy_less_than_threshold'
p260
(lp261
g50
(g51
(S'b1'
p262
I0
I1
tp263
Rp264
(I3
S'|'
p265
NNNI-1
I-1
I0
tp266
bS'\x01'
p267
tp268
Rp269
ag269
ag50
(g264
S'\x00'
p270
tp271
Rp272
ag269
ag272
ag272
ag269
ag269
ag272
ag269
ag269
ag272
ag269
ag269
ag269
ag269
ag269
ag272
ag269
ag272
ag269
ag272
ag272
ag272
ag272
ag272
ag269
ag269
ag272
ag269
ag272
ag272
ag269
ag272
ag269
ag272
ag272
ag269
ag269
ag272
ag269
ag272
ag272
ag269
ag269
ag272
ag269
ag272
ag272
ag272
ag272
ag269
ag269
asaa(lp273
S'index'
p274
aI101327
aatp275
Rp276
.