ccollections
OrderedDict
p0
((lp1
(lp2
S'combination_dict'
p3
ag0
((lp4
(lp5
S'r_to_g_config'
p6
aS'tr'
p7
aa(lp8
S'num_turns'
p9
aI2
aa(lp10
S'start_direction'
p11
acutils_ms
StartDirection
p12
(I1
tp13
Rp14
aa(lp15
S'assistance_type'
p16
acutils_ms
AssistanceType
p17
(I2
tp18
Rp19
aa(lp20
S'start_mode'
p21
aS'x'
p22
aa(lp23
S'ui_given_a_noise'
p24
aF0.5
aa(lp25
S'um_given_ui_noise'
p26
aF0.7
aa(lp27
S'entropy_threshold'
p28
aF0.6
aatp29
Rp30
aa(lp31
S'data'
p32
accollections
defaultdict
p33
(c__builtin__
list
p34
tp35
Rp36
S'a'
p37
(lp38
S'mode_r'
p39
ag39
aS'mode_l'
p40
aS'move_p'
p41
ag41
ag40
ag41
ag40
ag41
ag40
ag41
ag39
ag39
ag40
ag40
ag40
ag40
ag39
ag39
ag39
ag41
ag40
ag40
ag39
ag39
ag39
ag39
ag39
ag41
ag39
ag40
ag41
ag40
ag41
ag40
ag41
ag41
ag40
ag40
ag41
ag39
ag40
ag39
asS'assistance_match_with_ground_truth'
p42
(lp43
I00
aI00
aI01
aI00
aI00
aI01
aI01
aI01
aI00
aI01
aI00
aI00
aI00
aI00
aI00
aI00
aI00
aI00
aI00
aI01
aI01
aI00
aI00
aI00
aI00
aI00
aI00
aI01
aI00
aI00
aI01
aI00
aI01
aI01
aI01
aI00
aI00
aI00
aI01
aI00
aI00
aI00
aI00
asS'is_u_intended_equals_um'
p44
(lp45
I01
aI01
aI01
aI01
aI01
aI01
aI01
aI01
aI01
aI01
aI01
aI01
aI01
aI01
aI01
aI01
aI01
aI01
aI01
aI01
aI01
aI01
aI01
aI01
aI01
aI01
aI01
aI01
aI01
aI01
aI01
aI01
aI01
aI01
aI01
aI01
aI01
aI01
aI01
aI01
aI01
aI01
aI01
asS'total_steps'
p46
I43
sS'normalized_h_of_p_ui_given_um'
p47
(lp48
cnumpy.core.multiarray
scalar
p49
(cnumpy
dtype
p50
(S'f8'
p51
I0
I1
tp52
Rp53
(I3
S'<'
p54
NNNI-1
I-1
I0
tp55
bS'm\xb8v\xf3\xfb\x05\xde?'
p56
tp57
Rp58
ag58
ag58
ag58
ag58
ag58
ag58
ag58
ag58
ag58
ag58
ag58
ag58
ag58
ag58
ag58
ag58
ag58
ag58
ag58
ag58
ag58
ag58
ag58
ag58
ag58
ag58
ag58
ag58
ag58
ag58
ag58
ag58
ag58
ag58
ag58
ag58
ag58
ag58
ag58
ag58
ag58
ag58
asS'sp'
p59
(lp60
(S'p0'
p61
I0
S'x'
p62
tp63
a(g61
I0
S't'
p64
tp65
a(g61
I0
S'y'
p66
tp67
a(g61
I0
g66
tp68
a(g61
I0
g64
tp69
ag67
a(S'p1'
p70
I0
g66
tp71
a(g70
I0
g62
tp72
a(g70
I0
g66
tp73
ag72
a(g61
I0
g62
tp74
ag63
ag65
a(g61
I0
g64
tp75
a(g61
I0
g64
tp76
ag75
a(g61
I0
g62
tp77
ag63
a(g61
I0
g62
tp78
a(g61
I0
g66
tp79
ag71
a(g70
I0
g66
tp80
a(g70
I0
g64
tp81
a(g70
I0
g64
tp82
a(g70
I0
g64
tp83
ag83
ag83
a(g70
I0
g62
tp84
a(g70
I0
g64
tp85
a(g70
I0
g66
tp86
ag72
ag73
ag72
a(S'p2'
p87
I0
g62
tp88
a(g87
I0
g64
tp89
a(g87
I0
g64
tp90
a(g87
I0
g62
tp91
a(g87
I0
g62
tp92
ag89
a(g87
I0
g66
tp93
a(g87
I0
g62
tp94
a(g87
I0
g66
tp95
a(S'p3'
p96
I0
g66
tp97
asS's'
p98
(lp99
(g61
I0
g22
tp100
ag63
ag65
ag67
ag68
ag69
ag67
ag71
ag72
ag73
ag72
ag74
ag63
ag65
ag75
ag76
ag75
ag77
ag63
ag78
ag79
ag71
ag80
ag81
ag82
ag83
ag83
ag83
ag84
ag85
ag86
ag72
ag73
ag72
ag88
ag89
ag90
ag91
ag92
ag89
ag93
ag94
ag95
asS'ui'
p101
(lp102
S'hp'
p103
ag59
ag59
ag103
ag59
aS'hs'
p104
aS'ss'
p105
ag104
ag59
ag104
ag59
ag103
ag59
ag104
ag104
ag105
ag103
ag103
ag103
ag103
ag104
ag103
ag59
ag59
ag103
ag103
ag103
ag59
ag105
ag103
ag104
ag103
ag104
ag59
ag104
ag59
ag59
ag103
ag104
ag59
ag103
ag104
ag103
asS'um_before'
p106
(lp107
g59
ag104
ag104
ag105
ag103
ag104
ag59
ag104
ag103
ag104
ag105
ag59
ag104
ag105
ag59
ag105
ag103
ag59
ag105
ag103
ag59
ag59
ag103
ag59
ag105
ag105
ag105
ag103
ag104
ag104
ag104
ag103
ag104
ag59
ag104
ag105
ag103
ag59
ag104
ag104
ag104
ag103
ag59
asS'um_after'
p108
(lp109
g59
ag104
ag104
ag105
ag103
ag104
ag59
ag104
ag103
ag104
ag105
ag59
ag104
ag105
ag59
ag105
ag103
ag59
ag105
ag103
ag59
ag59
ag103
ag59
ag105
ag105
ag105
ag103
ag104
ag104
ag104
ag103
ag104
ag59
ag104
ag105
ag103
ag59
ag104
ag104
ag104
ag103
ag59
asS'is_normalized_entropy_less_than_threshold'
p110
(lp111
g49
(g50
(S'b1'
p112
I0
I1
tp113
Rp114
(I3
S'|'
p115
NNNI-1
I-1
I0
tp116
bS'\x01'
p117
tp118
Rp119
ag119
ag119
ag119
ag119
ag119
ag119
ag119
ag119
ag119
ag119
ag119
ag119
ag119
ag119
ag119
ag119
ag119
ag119
ag119
ag119
ag119
ag119
ag119
ag119
ag119
ag119
ag119
ag119
ag119
ag119
ag119
ag119
ag119
ag119
ag119
ag119
ag119
ag119
ag119
ag119
ag119
ag119
asaa(lp120
S'index'
p121
aI18168
aatp122
Rp123
.