ccollections
OrderedDict
p0
((lp1
(lp2
S'combination_dict'
p3
ag0
((lp4
(lp5
S'r_to_g_config'
p6
aS'tl'
p7
aa(lp8
S'num_turns'
p9
aI3
aa(lp10
S'start_direction'
p11
acutils_ms
StartDirection
p12
(I0
tp13
Rp14
aa(lp15
S'assistance_type'
p16
acutils_ms
AssistanceType
p17
(I2
tp18
Rp19
aa(lp20
S'start_mode'
p21
aS'y'
p22
aa(lp23
S'ui_given_a_noise'
p24
aF0.7
aa(lp25
S'um_given_ui_noise'
p26
aF0.3
aa(lp27
S'entropy_threshold'
p28
aF0.5
aatp29
Rp30
aa(lp31
S'data'
p32
accollections
defaultdict
p33
(c__builtin__
list
p34
tp35
Rp36
S'a'
p37
(lp38
S'mode_l'
p39
aS'move_n'
p40
ag39
ag39
ag39
ag39
aS'mode_r'
p41
ag41
ag40
ag41
ag41
ag41
ag40
ag39
ag41
ag40
ag41
ag41
ag41
ag41
ag41
aS'move_p'
p42
ag41
ag41
ag39
ag42
ag39
ag42
ag41
ag42
ag41
ag41
ag39
ag41
ag42
ag39
ag41
ag42
ag41
ag42
ag41
ag42
ag39
ag41
ag41
ag41
ag42
asS'assistance_match_with_ground_truth'
p43
(lp44
I01
aI00
aI00
aI00
aI00
aI00
aI00
aI01
aI00
aI00
aI00
aI01
aI00
aI00
aI01
aI01
aI00
aI00
aI00
aI00
aI01
aI00
aI00
aI00
aI01
aI00
aI01
aI01
aI01
aI00
aI00
aI00
aI00
aI01
aI00
aI00
aI01
aI00
aI01
aI00
aI01
aI00
aI00
aI00
aI00
aI01
aI01
asS'is_u_intended_equals_um'
p45
(lp46
I00
aI00
aI00
aI00
aI00
aI00
aI00
aI00
aI00
aI00
aI00
aI00
aI00
aI00
aI00
aI00
aI00
aI00
aI00
aI00
aI00
aI00
aI00
aI00
aI00
aI00
aI00
aI00
aI00
aI00
aI00
aI00
aI00
aI00
aI00
aI00
aI00
aI00
aI00
aI00
aI00
aI00
aI00
aI00
aI00
aI00
aI00
asS'total_steps'
p47
I47
sS'normalized_h_of_p_ui_given_um'
p48
(lp49
cnumpy.core.multiarray
scalar
p50
(cnumpy
dtype
p51
(S'f8'
p52
I0
I1
tp53
Rp54
(I3
S'<'
p55
NNNI-1
I-1
I0
tp56
bS'a\xa3\x8e\xb0\xda\xdb\xe9?'
p57
tp58
Rp59
ag59
ag59
ag59
ag59
ag59
ag59
ag59
ag59
ag59
ag59
ag59
ag59
ag59
ag59
ag59
ag59
ag59
ag59
ag59
ag59
ag59
ag59
ag59
ag59
ag59
ag59
ag59
ag59
ag59
ag59
ag59
ag59
ag59
ag59
ag59
ag59
ag59
ag59
ag59
ag59
ag59
ag59
ag59
ag59
ag59
ag59
asS'sp'
p60
(lp61
(S'p0'
p62
I0
S'x'
p63
tp64
a(g62
I0
S'y'
p65
tp66
a(g62
I0
g65
tp67
a(g62
I0
g65
tp68
ag68
a(g62
I0
S't'
p69
tp70
a(g62
I0
g69
tp71
a(g62
I0
g63
tp72
a(g62
I0
g69
tp73
ag71
a(g62
I0
g69
tp74
ag72
ag66
ag70
ag72
a(S'p1'
p75
I0
g63
tp76
a(g75
I0
g63
tp77
a(g75
I0
g63
tp78
ag78
ag77
a(g75
I0
g65
tp79
a(g75
I0
g63
tp80
ag77
a(g75
I0
g69
tp81
a(g75
I0
g65
tp82
a(g75
I0
g69
tp83
ag82
a(S'p2'
p84
I0
g65
tp85
a(g84
I0
g69
tp86
a(g84
I0
g65
tp87
a(g84
I0
g65
tp88
a(g84
I0
g63
tp89
a(g84
I0
g65
tp90
ag86
a(g84
I0
g63
tp91
a(S'p3'
p92
I0
g63
tp93
a(g92
I0
g65
tp94
a(g84
I0
g65
tp95
ag86
ag87
ag86
ag91
ag93
a(g92
I0
g63
tp96
ag96
ag94
a(S'p4'
p97
I0
g65
tp98
asS's'
p99
(lp100
(g62
I0
g22
tp101
ag64
ag66
ag67
ag68
ag68
ag70
ag71
ag72
ag73
ag71
ag74
ag72
ag66
ag70
ag72
ag76
ag77
ag78
ag78
ag77
ag79
ag80
ag77
ag81
ag82
ag83
ag82
ag85
ag86
ag87
ag88
ag89
ag90
ag86
ag91
ag93
ag94
ag95
ag86
ag87
ag86
ag91
ag93
ag96
ag96
ag94
asS'ui'
p102
(lp103
S'hs'
p104
aS'hp'
p105
ag60
ag60
ag60
ag105
ag105
ag105
ag104
aS'ss'
p106
ag106
ag105
ag104
ag105
ag60
ag106
ag105
ag60
ag106
ag60
ag105
ag60
ag106
ag104
ag105
ag105
ag104
ag60
ag104
ag104
ag60
ag104
ag105
ag105
ag104
ag104
ag104
ag60
ag105
ag104
ag105
ag104
ag105
ag105
ag106
ag105
ag60
asS'um_before'
p107
(lp108
g104
ag105
ag60
ag106
ag106
ag105
ag106
ag105
ag104
ag106
ag60
ag105
ag105
ag105
ag105
ag106
ag106
ag60
ag60
ag106
ag105
ag104
ag106
ag104
ag104
ag105
ag104
ag60
ag105
ag104
ag60
ag104
ag105
ag105
ag105
ag106
ag105
ag106
ag105
ag104
ag105
ag105
ag106
ag60
ag60
ag105
ag60
asS'um_after'
p109
(lp110
g104
ag105
ag60
ag106
ag106
ag105
ag106
ag105
ag104
ag106
ag60
ag105
ag105
ag105
ag105
ag106
ag106
ag60
ag60
ag106
ag105
ag104
ag106
ag104
ag104
ag105
ag104
ag60
ag105
ag104
ag60
ag104
ag105
ag105
ag105
ag106
ag105
ag106
ag105
ag104
ag105
ag105
ag106
ag60
ag60
ag105
ag60
asS'is_normalized_entropy_less_than_threshold'
p111
(lp112
g50
(g51
(S'b1'
p113
I0
I1
tp114
Rp115
(I3
S'|'
p116
NNNI-1
I-1
I0
tp117
bS'\x01'
p118
tp119
Rp120
ag120
ag120
ag120
ag120
ag120
ag120
ag120
ag120
ag120
ag120
ag120
ag120
ag120
ag120
ag120
ag120
ag120
ag120
ag120
ag120
ag120
ag120
ag120
ag120
ag120
ag120
ag120
ag120
ag120
ag120
ag120
ag120
ag120
ag120
ag120
ag120
ag120
ag120
ag120
ag120
ag120
ag120
ag120
ag120
ag120
ag120
asaa(lp121
S'index'
p122
aI52652
aatp123
Rp124
.