ccollections
OrderedDict
p0
((lp1
(lp2
S'combination_dict'
p3
ag0
((lp4
(lp5
S'r_to_g_config'
p6
aS'br'
p7
aa(lp8
S'num_turns'
p9
aI1
aa(lp10
S'start_direction'
p11
acutils_ms
StartDirection
p12
(I0
tp13
Rp14
aa(lp15
S'assistance_type'
p16
acutils_ms
AssistanceType
p17
(I0
tp18
Rp19
aa(lp20
S'start_mode'
p21
aS'y'
p22
aa(lp23
S'ui_given_a_noise'
p24
aF0.3
aa(lp25
S'um_given_ui_noise'
p26
aF0.5
aa(lp27
S'entropy_threshold'
p28
aF0.6
aatp29
Rp30
aa(lp31
S'data'
p32
accollections
defaultdict
p33
(c__builtin__
list
p34
tp35
Rp36
S'a'
p37
(lp38
S'mode_l'
p39
ag39
ag39
aS'mode_r'
p40
aS'move_p'
p41
ag39
ag40
ag40
ag41
ag39
aS'move_n'
p42
asS'assistance_match_with_ground_truth'
p43
(lp44
I00
aI00
aI00
aI01
aI01
aI00
aI00
aI01
aI01
aI01
aI01
asS'is_u_intended_equals_um'
p45
(lp46
I01
aI01
aI00
aI01
aI01
aI00
aI00
aI01
aI01
aI01
aI01
asS'total_steps'
p47
I11
sS'normalized_h_of_p_ui_given_um'
p48
(lp49
cnumpy.core.multiarray
scalar
p50
(cnumpy
dtype
p51
(S'f8'
p52
I0
I1
tp53
Rp54
(I3
S'<'
p55
NNNI-1
I-1
I0
tp56
bS'\xbfh0\x84\xa1\x8c\xe3?'
p57
tp58
Rp59
ag50
(g54
S'\xbfh0\x84\xa1\x8c\xe3?'
p60
tp61
Rp62
ag50
(g54
S'\x97\xa3\x8eT6\xcc\xe3?'
p63
tp64
Rp65
ag50
(g54
S'\xc6\xbd\xe0\x86XT\xd4?'
p66
tp67
Rp68
ag50
(g54
S'@7-[|r\xd0?'
p69
tp70
Rp71
ag50
(g54
S'\x97\xa3\x8eT6\xcc\xe3?'
p72
tp73
Rp74
ag50
(g54
S'V\x81\xdd\x87\x1fP\xe0?'
p75
tp76
Rp77
ag50
(g54
S'\xc6\xbd\xe0\x86XT\xd4?'
p78
tp79
Rp80
ag50
(g54
S'@7-[|r\xd0?'
p81
tp82
Rp83
ag50
(g54
S'N\xff\xf8X\xfd?\xbb?'
p84
tp85
Rp86
ag50
(g54
S'\x13\xb1\xba\x81ms\xc3?'
p87
tp88
Rp89
asS'sp'
p90
(lp91
(S'p0'
p92
I0
S'y'
p93
tp94
ag94
a(g92
I0
S't'
p95
tp96
a(g92
I0
S'x'
p97
tp98
a(S'p1'
p99
I0
g97
tp100
a(g99
I0
g93
tp101
ag101
a(g99
I0
g95
tp102
a(g99
F1.5707963267948966
g95
tp103
a(g99
F1.5707963267948966
g93
tp104
a(S'p2'
p105
F1.5707963267948966
g93
tp106
asS's'
p107
(lp108
(g92
I0
g22
tp109
ag94
ag94
ag96
ag98
ag100
ag101
ag101
ag102
ag103
ag104
asS'ui'
p110
(lp111
S'ss'
p112
ag112
aS'hp'
p113
ag113
ag90
aS'hs'
p114
ag112
ag113
ag90
ag114
ag112
asS'um_before'
p115
(lp116
g112
ag112
ag113
ag113
ag90
ag113
ag90
ag113
ag90
ag114
ag112
asS'um_after'
p117
(lp118
g112
ag112
ag113
ag113
ag90
ag113
aNag113
ag90
ag114
ag112
asS'is_normalized_entropy_less_than_threshold'
p119
(lp120
g50
(g51
(S'b1'
p121
I0
I1
tp122
Rp123
(I3
S'|'
p124
NNNI-1
I-1
I0
tp125
bS'\x00'
p126
tp127
Rp128
ag128
ag128
ag50
(g123
S'\x01'
p129
tp130
Rp131
ag131
ag128
ag131
ag131
ag131
ag131
ag131
asaa(lp132
S'index'
p133
aI87515
aatp134
Rp135
.