ccollections
OrderedDict
p0
((lp1
(lp2
S'combination_dict'
p3
ag0
((lp4
(lp5
S'r_to_g_config'
p6
aS'tl'
p7
aa(lp8
S'num_turns'
p9
aI1
aa(lp10
S'start_direction'
p11
acutils_ms
StartDirection
p12
(I1
tp13
Rp14
aa(lp15
S'assistance_type'
p16
acutils_ms
AssistanceType
p17
(I0
tp18
Rp19
aa(lp20
S'start_mode'
p21
aS'x'
p22
aa(lp23
S'ui_given_a_noise'
p24
aF0.5
aa(lp25
S'um_given_ui_noise'
p26
aF0.5
aa(lp27
S'entropy_threshold'
p28
aF0.9
aatp29
Rp30
aa(lp31
S'data'
p32
accollections
defaultdict
p33
(c__builtin__
list
p34
tp35
Rp36
S'a'
p37
(lp38
S'mode_r'
p39
ag39
aS'mode_l'
p40
aS'move_p'
p41
ag41
ag39
ag41
ag39
ag41
ag39
ag41
ag39
ag39
ag39
ag41
ag41
ag39
ag41
ag39
ag39
ag40
aS'move_n'
p42
asS'assistance_match_with_ground_truth'
p43
(lp44
I00
aI00
aI01
aI00
aI01
aI01
aI00
aI01
aI01
aI00
aI01
aI00
aI00
aI00
aI00
aI01
aI00
aI01
aI00
aI00
aI01
aI01
asS'is_u_intended_equals_um'
p45
(lp46
I01
aI01
aI01
aI00
aI01
aI01
aI01
aI01
aI01
aI00
aI01
aI01
aI01
aI00
aI00
aI01
aI00
aI01
aI01
aI01
aI01
aI01
asS'total_steps'
p47
I22
sS'normalized_h_of_p_ui_given_um'
p48
(lp49
cnumpy.core.multiarray
scalar
p50
(cnumpy
dtype
p51
(S'f8'
p52
I0
I1
tp53
Rp54
(I3
S'<'
p55
NNNI-1
I-1
I0
tp56
bS'h\xc5\x99mtP\xe8?'
p57
tp58
Rp59
ag50
(g54
S'bZ\xc8\xf0v<\xe5?'
p60
tp61
Rp62
ag50
(g54
S'AHk\x10\x1c\xaf\xd8?'
p63
tp64
Rp65
ag50
(g54
S'<3\xca\xdd\xb5\x1d\xeb?'
p66
tp67
Rp68
ag50
(g54
S'\x03\x8c\xc1\xd9\rU\xde?'
p69
tp70
Rp71
ag50
(g54
S'\x93G1\xd7\x19\xe0\xcc?'
p72
tp73
Rp74
ag50
(g54
S'\xa5\xf3`\xeep\xe7\xe6?'
p75
tp76
Rp77
ag50
(g54
S'\x93G1\xd7\x19\xe0\xcc?'
p78
tp79
Rp80
ag50
(g54
S'\x03\x8c\xc1\xd9\rU\xde?'
p81
tp82
Rp83
ag50
(g54
S'v\xe3\xb3j\x9cV\xed?'
p84
tp85
Rp86
ag50
(g54
S'\x03\x8c\xc1\xd9\rU\xde?'
p87
tp88
Rp89
ag50
(g54
S'h\xc5\x99mtP\xe8?'
p90
tp91
Rp92
ag50
(g54
S'h\xc5\x99mtP\xe8?'
p93
tp94
Rp95
ag50
(g54
S'v\xe3\xb3j\x9cV\xed?'
p96
tp97
Rp98
ag50
(g54
S'<3\xca\xdd\xb5\x1d\xeb?'
p99
tp100
Rp101
ag50
(g54
S'\x03\x8c\xc1\xd9\rU\xde?'
p102
tp103
Rp104
ag50
(g54
S'v\xe3\xb3j\x9cV\xed?'
p105
tp106
Rp107
ag50
(g54
S'\x03\x8c\xc1\xd9\rU\xde?'
p108
tp109
Rp110
ag50
(g54
S'h\xc5\x99mtP\xe8?'
p111
tp112
Rp113
ag50
(g54
S'bZ\xc8\xf0v<\xe5?'
p114
tp115
Rp116
ag50
(g54
S'AHk\x10\x1c\xaf\xd8?'
p117
tp118
Rp119
ag50
(g54
S'\x0b\xb4;\x05\xf6#\xdb?'
p120
tp121
Rp122
asS'sp'
p123
(lp124
(S'p0'
p125
I0
S'x'
p126
tp127
a(g125
I0
S't'
p128
tp129
a(g125
I0
S'y'
p130
tp131
ag131
a(S'p1'
p132
I0
g130
tp133
a(g132
I0
g128
tp134
a(g132
I0
g130
tp135
ag134
a(g132
F1.5707963267948966
g128
tp136
a(g132
I0
g128
tp137
ag136
a(g132
F1.5707963267948966
g128
tp138
ag138
ag137
ag137
ag136
ag137
ag136
ag138
a(g132
F1.5707963267948966
g130
tp139
a(g132
F1.5707963267948966
g126
tp140
a(S'p2'
p141
F1.5707963267948966
g126
tp142
asS's'
p143
(lp144
(g125
I0
g22
tp145
ag127
ag129
ag131
ag131
ag133
ag134
ag135
ag134
ag136
ag137
ag136
ag138
ag138
ag137
ag137
ag136
ag137
ag136
ag138
ag139
ag140
asS'ui'
p146
(lp147
S'hp'
p148
aS'hs'
p149
aS'ss'
p150
ag149
ag123
ag148
ag149
ag148
ag123
ag149
ag149
ag123
ag123
ag148
ag150
ag123
ag149
ag148
ag148
ag148
ag150
ag150
asS'um_before'
p151
(lp152
g123
ag149
ag149
ag150
ag123
ag148
ag149
ag148
ag123
ag150
ag123
ag123
ag123
ag150
ag150
ag123
ag150
ag123
ag123
ag149
ag149
ag150
asS'um_after'
p153
(lp154
g123
ag149
ag149
aNag123
ag148
ag149
ag148
ag123
ag150
ag123
ag123
ag123
ag150
aNag123
ag150
ag123
ag123
ag149
ag149
ag150
asS'is_normalized_entropy_less_than_threshold'
p155
(lp156
g50
(g51
(S'b1'
p157
I0
I1
tp158
Rp159
(I3
S'|'
p160
NNNI-1
I-1
I0
tp161
bS'\x01'
p162
tp163
Rp164
ag164
ag164
ag164
ag164
ag164
ag164
ag164
ag164
ag50
(g159
S'\x00'
p165
tp166
Rp167
ag164
ag164
ag164
ag167
ag164
ag164
ag167
ag164
ag164
ag164
ag164
ag164
asaa(lp168
S'index'
p169
aI34146
aatp170
Rp171
.