ccollections
OrderedDict
p0
((lp1
(lp2
S'combination_dict'
p3
ag0
((lp4
(lp5
S'r_to_g_config'
p6
aS'tr'
p7
aa(lp8
S'num_turns'
p9
aI2
aa(lp10
S'start_direction'
p11
acutils_ms
StartDirection
p12
(I1
tp13
Rp14
aa(lp15
S'assistance_type'
p16
acutils_ms
AssistanceType
p17
(I1
tp18
Rp19
aa(lp20
S'start_mode'
p21
aS't'
p22
aa(lp23
S'ui_given_a_noise'
p24
aF0.1
aa(lp25
S'um_given_ui_noise'
p26
aF0.5
aa(lp27
S'entropy_threshold'
p28
aF0.5
aatp29
Rp30
aa(lp31
S'data'
p32
accollections
defaultdict
p33
(c__builtin__
list
p34
tp35
Rp36
S'a'
p37
(lp38
S'mode_l'
p39
ag39
ag39
aS'move_p'
p40
aS'mode_r'
p41
ag40
ag41
ag40
ag41
ag40
asS'assistance_match_with_ground_truth'
p42
(lp43
I00
aI00
aI01
aI01
aI01
aI01
aI01
aI01
aI01
aI01
asS'is_u_intended_equals_um'
p44
(lp45
I00
aI00
aI01
aI01
aI01
aI01
aI01
aI01
aI01
aI01
asS'total_steps'
p46
I10
sS'normalized_h_of_p_ui_given_um'
p47
(lp48
cnumpy.core.multiarray
scalar
p49
(cnumpy
dtype
p50
(S'f8'
p51
I0
I1
tp52
Rp53
(I3
S'<'
p54
NNNI-1
I-1
I0
tp55
bS'\x1e+\xce(?q\xe7?'
p56
tp57
Rp58
ag49
(g53
S'\x1e+\xce(?q\xe7?'
p59
tp60
Rp61
ag49
(g53
S'\xfe\xca\xa4O\x14\x93\xbf?'
p62
tp63
Rp64
ag49
(g53
S'\xc2\xee{,-\x19\xc5?'
p65
tp66
Rp67
ag49
(g53
S'\n\xf8HP\x93.\xca?'
p68
tp69
Rp70
ag49
(g53
S'\xc2\xee{,-\x19\xc5?'
p71
tp72
Rp73
ag49
(g53
S'\n\xf8HP\x93.\xca?'
p74
tp75
Rp76
ag49
(g53
S'\xc2\xee{,-\x19\xc5?'
p77
tp78
Rp79
ag49
(g53
S'\n\xf8HP\x93.\xca?'
p80
tp81
Rp82
ag49
(g53
S'\xc2\xee{,-\x19\xc5?'
p83
tp84
Rp85
asS'sp'
p86
(lp87
(S'p0'
p88
I0
S't'
p89
tp90
ag90
a(g88
I0
S'y'
p91
tp92
a(S'p1'
p93
I0
g91
tp94
a(g93
I0
g89
tp95
a(g93
F1.5707963267948966
g89
tp96
a(g93
F1.5707963267948966
S'x'
p97
tp98
a(S'p2'
p99
F1.5707963267948966
g97
tp100
a(g99
F1.5707963267948966
g91
tp101
a(S'p3'
p102
F1.5707963267948966
g91
tp103
asS's'
p104
(lp105
(g88
I0
g22
tp106
ag90
ag90
ag92
ag94
ag95
ag96
ag98
ag100
ag101
asS'ui'
p107
(lp108
g86
aS'hs'
p109
ag109
ag86
aS'hp'
p110
ag86
ag110
ag86
ag110
ag86
asS'um_before'
p111
(lp112
g86
ag86
ag109
ag86
ag110
ag86
ag110
ag86
ag110
ag86
asS'um_after'
p113
(lp114
g86
ag86
ag109
ag86
ag110
ag86
ag110
ag86
ag110
ag86
asS'is_normalized_entropy_less_than_threshold'
p115
(lp116
g49
(g50
(S'b1'
p117
I0
I1
tp118
Rp119
(I3
S'|'
p120
NNNI-1
I-1
I0
tp121
bS'\x00'
p122
tp123
Rp124
ag124
ag49
(g119
S'\x01'
p125
tp126
Rp127
ag127
ag127
ag127
ag127
ag127
ag127
ag127
asaa(lp128
S'index'
p129
aI16900
aatp130
Rp131
.