ccollections
OrderedDict
p0
((lp1
(lp2
S'combination_dict'
p3
ag0
((lp4
(lp5
S'r_to_g_config'
p6
aS'br'
p7
aa(lp8
S'num_turns'
p9
aI3
aa(lp10
S'start_direction'
p11
acutils_ms
StartDirection
p12
(I1
tp13
Rp14
aa(lp15
S'assistance_type'
p16
acutils_ms
AssistanceType
p17
(I2
tp18
Rp19
aa(lp20
S'start_mode'
p21
aS't'
p22
aa(lp23
S'ui_given_a_noise'
p24
aF0.3
aa(lp25
S'um_given_ui_noise'
p26
aF0.7
aa(lp27
S'entropy_threshold'
p28
aF0.5
aatp29
Rp30
aa(lp31
S'data'
p32
accollections
defaultdict
p33
(c__builtin__
list
p34
tp35
Rp36
S'a'
p37
(lp38
S'mode_l'
p39
aS'move_n'
p40
aS'mode_r'
p41
aS'move_p'
p42
ag42
ag39
ag42
ag41
ag42
ag41
ag39
ag41
ag41
ag41
ag39
ag41
ag42
ag42
ag41
ag39
ag41
ag41
ag39
ag42
ag41
ag41
ag40
ag39
ag39
ag42
ag41
ag41
ag40
ag39
ag39
ag40
ag39
ag39
ag39
ag42
ag41
ag42
ag42
ag39
ag42
ag41
ag41
ag39
ag41
ag40
ag40
ag39
ag40
ag41
ag41
ag39
ag41
ag40
ag41
ag41
ag42
ag39
ag41
ag39
ag39
ag39
ag39
ag39
ag39
ag40
ag39
ag40
ag39
ag42
asS'assistance_match_with_ground_truth'
p43
(lp44
I01
aI01
aI01
aI00
aI00
aI01
aI01
aI00
aI00
aI00
aI00
aI00
aI00
aI00
aI00
aI01
aI00
aI01
aI00
aI00
aI00
aI00
aI01
aI00
aI00
aI01
aI01
aI00
aI01
aI01
aI00
aI01
aI00
aI00
aI01
aI00
aI00
aI00
aI01
aI00
aI00
aI00
aI00
aI01
aI00
aI00
aI00
aI00
aI01
aI00
aI00
aI01
aI01
aI00
aI00
aI00
aI01
aI00
aI00
aI01
aI00
aI00
aI00
aI00
aI00
aI00
aI00
aI00
aI01
aI00
aI01
aI01
aI01
aI01
asS'is_u_intended_equals_um'
p45
(lp46
I01
aI01
aI01
aI01
aI01
aI01
aI01
aI01
aI01
aI01
aI01
aI01
aI01
aI01
aI01
aI01
aI01
aI01
aI01
aI01
aI01
aI01
aI01
aI01
aI01
aI01
aI01
aI01
aI01
aI01
aI01
aI01
aI01
aI01
aI01
aI01
aI01
aI01
aI01
aI01
aI01
aI01
aI01
aI01
aI01
aI01
aI01
aI01
aI01
aI01
aI01
aI01
aI01
aI01
aI01
aI01
aI01
aI01
aI01
aI01
aI01
aI01
aI01
aI01
aI01
aI01
aI01
aI01
aI01
aI01
aI01
aI01
aI01
aI01
asS'total_steps'
p47
I74
sS'normalized_h_of_p_ui_given_um'
p48
(lp49
cnumpy.core.multiarray
scalar
p50
(cnumpy
dtype
p51
(S'f8'
p52
I0
I1
tp53
Rp54
(I3
S'<'
p55
NNNI-1
I-1
I0
tp56
bS'[Dj\xb2fs\xd9?'
p57
tp58
Rp59
ag59
ag59
ag59
ag59
ag59
ag59
ag59
ag59
ag59
ag59
ag59
ag59
ag59
ag59
ag59
ag59
ag59
ag59
ag59
ag59
ag59
ag59
ag59
ag59
ag59
ag59
ag59
ag59
ag59
ag59
ag59
ag59
ag59
ag59
ag59
ag59
ag59
ag59
ag59
ag59
ag59
ag59
ag59
ag59
ag59
ag59
ag59
ag59
ag59
ag59
ag59
ag59
ag59
ag59
ag59
ag59
ag59
ag59
ag59
ag59
ag59
ag59
ag59
ag59
ag59
ag59
ag59
ag59
ag59
ag59
ag59
ag59
ag59
asS'sp'
p60
(lp61
(S'p0'
p62
I0
S'y'
p63
tp64
a(S'p1'
p65
I0
g63
tp66
a(g65
I0
S't'
p67
tp68
a(g65
I0
g67
tp69
a(g65
I0
S'x'
p70
tp71
a(g65
I0
g67
tp72
a(g65
F1.5707963267948966
g67
tp73
a(g65
I0
g67
tp74
a(g65
I0
g63
tp75
a(g65
I0
g70
tp76
a(g65
I0
g63
tp77
a(g65
I0
g63
tp78
ag78
ag76
ag77
ag68
ag69
ag73
a(g65
F1.5707963267948966
g63
tp79
a(g65
F1.5707963267948966
g67
tp80
a(g65
F1.5707963267948966
g67
tp81
ag79
a(g65
F1.5707963267948966
g70
tp82
a(g62
F1.5707963267948966
g70
tp83
a(g62
F1.5707963267948966
g70
tp84
a(g62
F1.5707963267948966
g63
tp85
a(g65
F1.5707963267948966
g63
tp86
a(g65
F1.5707963267948966
g63
tp87
ag82
a(S'p2'
p88
F1.5707963267948966
g70
tp89
a(g88
F1.5707963267948966
g70
tp90
a(g88
F1.5707963267948966
g63
tp91
a(g88
F1.5707963267948966
g67
tp92
a(g88
F1.5707963267948966
g67
tp93
a(g88
F1.5707963267948966
g63
tp94
a(g65
F1.5707963267948966
g63
tp95
a(g65
F1.5707963267948966
g63
tp96
ag96
ag82
a(g65
F1.5707963267948966
g67
tp97
ag74
ag69
ag71
ag72
ag75
a(g65
I0
g63
tp98
ag76
a(g62
I0
g70
tp99
a(g62
I0
g63
tp100
a(g62
I0
g63
tp101
a(g62
I0
g67
tp102
ag64
ag66
ag98
ag76
a(g88
I0
g70
tp103
a(g88
I0
g63
tp104
a(g65
I0
g63
tp105
ag78
ag68
ag71
ag103
a(g88
I0
g67
tp106
a(g88
I0
g67
tp107
a(g88
I0
g67
tp108
ag108
ag107
ag107
a(g88
I0
g63
tp109
a(g88
I0
g67
tp110
ag109
a(S'p3'
p111
I0
g63
tp112
a(g111
I0
g70
tp113
a(S'p4'
p114
I0
g70
tp115
asS's'
p116
(lp117
(g62
I0
g22
tp118
ag64
ag66
ag68
ag69
ag71
ag72
ag73
ag74
ag75
ag76
ag77
ag78
ag78
ag76
ag77
ag68
ag69
ag73
ag79
ag80
ag81
ag79
ag82
ag83
ag84
ag85
ag86
ag87
ag82
ag89
ag90
ag91
ag92
ag93
ag94
ag95
ag96
ag96
ag82
ag97
ag74
ag69
ag71
ag72
ag75
ag98
ag76
ag99
ag100
ag101
ag102
ag64
ag66
ag98
ag76
ag103
ag104
ag105
ag78
ag68
ag71
ag103
ag106
ag107
ag108
ag108
ag107
ag107
ag109
ag110
ag109
ag112
ag113
asS'ui'
p119
(lp120
S'hs'
p121
aS'ss'
p122
aS'hp'
p123
ag60
ag121
ag121
ag60
ag123
ag121
ag60
ag121
ag123
ag123
ag60
ag121
ag123
ag60
ag121
ag60
ag121
ag121
ag121
ag121
ag60
ag122
ag123
ag122
ag121
ag121
ag60
ag60
ag123
ag123
ag121
ag60
ag122
ag123
ag121
ag121
ag60
ag123
ag60
ag60
ag121
ag60
ag60
ag121
ag121
ag122
ag60
ag123
ag121
ag122
ag60
ag123
ag60
ag123
ag122
ag123
ag123
ag121
ag121
ag123
ag121
ag121
ag121
ag60
ag123
ag121
ag122
ag121
ag122
ag121
ag60
asS'um_before'
p124
(lp125
g121
ag122
ag123
ag122
ag123
ag121
ag60
ag122
ag121
ag121
ag123
ag122
ag122
ag121
ag123
ag123
ag122
ag60
ag121
ag123
ag60
ag121
ag121
ag122
ag122
ag123
ag122
ag122
ag121
ag60
ag122
ag123
ag123
ag60
ag121
ag60
ag60
ag60
ag121
ag121
ag122
ag122
ag123
ag121
ag121
ag60
ag121
ag122
ag123
ag60
ag123
ag121
ag122
ag60
ag121
ag60
ag123
ag60
ag122
ag123
ag123
ag60
ag121
ag60
ag122
ag122
ag60
ag60
ag121
ag123
ag121
ag122
ag121
ag60
asS'um_after'
p126
(lp127
g121
ag122
ag123
ag122
ag123
ag121
ag60
ag122
ag121
ag121
ag123
ag122
ag122
ag121
ag123
ag123
ag122
ag60
ag121
ag123
ag60
ag121
ag121
ag122
ag122
ag123
ag122
ag122
ag121
ag60
ag122
ag123
ag123
ag60
ag121
ag60
ag60
ag60
ag121
ag121
ag122
ag122
ag123
ag121
ag121
ag60
ag121
ag122
ag123
ag60
ag123
ag121
ag122
ag60
ag121
ag60
ag123
ag60
ag122
ag123
ag123
ag60
ag121
ag60
ag122
ag122
ag60
ag60
ag121
ag123
ag121
ag122
ag121
ag60
asS'is_normalized_entropy_less_than_threshold'
p128
(lp129
g50
(g51
(S'b1'
p130
I0
I1
tp131
Rp132
(I3
S'|'
p133
NNNI-1
I-1
I0
tp134
bS'\x01'
p135
tp136
Rp137
ag137
ag137
ag137
ag137
ag137
ag137
ag137
ag137
ag137
ag137
ag137
ag137
ag137
ag137
ag137
ag137
ag137
ag137
ag137
ag137
ag137
ag137
ag137
ag137
ag137
ag137
ag137
ag137
ag137
ag137
ag137
ag137
ag137
ag137
ag137
ag137
ag137
ag137
ag137
ag137
ag137
ag137
ag137
ag137
ag137
ag137
ag137
ag137
ag137
ag137
ag137
ag137
ag137
ag137
ag137
ag137
ag137
ag137
ag137
ag137
ag137
ag137
ag137
ag137
ag137
ag137
ag137
ag137
ag137
ag137
ag137
ag137
ag137
asaa(lp138
S'index'
p139
aI114756
aatp140
Rp141
.