ccollections
OrderedDict
p0
((lp1
(lp2
S'combination_dict'
p3
ag0
((lp4
(lp5
S'r_to_g_config'
p6
aS'br'
p7
aa(lp8
S'num_turns'
p9
aI3
aa(lp10
S'start_direction'
p11
acutils_ms
StartDirection
p12
(I1
tp13
Rp14
aa(lp15
S'assistance_type'
p16
acutils_ms
AssistanceType
p17
(I0
tp18
Rp19
aa(lp20
S'start_mode'
p21
aS'x'
p22
aa(lp23
S'ui_given_a_noise'
p24
aF0.5
aa(lp25
S'um_given_ui_noise'
p26
aF0.7
aa(lp27
S'entropy_threshold'
p28
aF0.6
aatp29
Rp30
aa(lp31
S'data'
p32
accollections
defaultdict
p33
(c__builtin__
list
p34
tp35
Rp36
S'a'
p37
(lp38
S'mode_r'
p39
aS'mode_l'
p40
ag40
ag39
ag39
ag39
aS'move_n'
p41
ag41
ag41
ag39
ag39
ag39
ag40
aS'move_p'
p42
ag39
ag40
ag40
ag40
ag40
ag42
ag42
ag39
ag39
ag40
ag39
ag41
ag41
ag40
ag40
ag41
ag41
ag40
ag42
ag42
asS'assistance_match_with_ground_truth'
p43
(lp44
I00
aI00
aI00
aI00
aI00
aI01
aI00
aI00
aI01
aI00
aI00
aI00
aI01
aI01
aI00
aI00
aI00
aI00
aI01
aI00
aI01
aI00
aI00
aI00
aI01
aI00
aI00
aI00
aI01
aI00
aI01
aI01
aI00
aI01
asS'is_u_intended_equals_um'
p45
(lp46
I01
aI00
aI01
aI00
aI00
aI01
aI00
aI00
aI01
aI00
aI00
aI01
aI01
aI01
aI01
aI00
aI00
aI00
aI01
aI00
aI01
aI00
aI01
aI01
aI01
aI00
aI01
aI00
aI01
aI00
aI01
aI01
aI00
aI01
asS'total_steps'
p47
I34
sS'normalized_h_of_p_ui_given_um'
p48
(lp49
cnumpy.core.multiarray
scalar
p50
(cnumpy
dtype
p51
(S'f8'
p52
I0
I1
tp53
Rp54
(I3
S'<'
p55
NNNI-1
I-1
I0
tp56
bS'\xb4\x9a\xe8\xa2M)\xe9?'
p57
tp58
Rp59
ag50
(g54
S'T\xf3c_k\xfd\xe9?'
p60
tp61
Rp62
ag50
(g54
S"C',\x1b\xd6\xd4\xcd?"
p63
tp64
Rp65
ag50
(g54
S'\x87JN\r\x186\xeb?'
p66
tp67
Rp68
ag50
(g54
S'\xfc\xb6\xf2\r3x\xe9?'
p69
tp70
Rp71
ag50
(g54
S'\x18\xc2\xf9\x1ed\x1d\xc3?'
p72
tp73
Rp74
ag50
(g54
S'\xef1u\x03\xbf^\xe2?'
p75
tp76
Rp77
ag50
(g54
S'\xa6\x1a\x1b\xdb9}\xe1?'
p78
tp79
Rp80
ag50
(g54
S'~F=Fw\xd7\xd6?'
p81
tp82
Rp83
ag50
(g54
S'\xfc\xb6\xf2\r3x\xe9?'
p84
tp85
Rp86
ag50
(g54
S'\x87JN\r\x186\xeb?'
p87
tp88
Rp89
ag50
(g54
S'\xb4\x9a\xe8\xa2M)\xe9?'
p90
tp91
Rp92
ag50
(g54
S'\xf3\x8c\xd3\xd1\xa9/\xc9?'
p93
tp94
Rp95
ag50
(g54
S'#}/R\xd1\xa8\xd4?'
p96
tp97
Rp98
ag50
(g54
S'\xb4\x9a\xe8\xa2M)\xe9?'
p99
tp100
Rp101
ag50
(g54
S'\xf0\xd6\xbd\xb8s\x8e\xe7?'
p102
tp103
Rp104
ag50
(g54
S'T\xf3c_k\xfd\xe9?'
p105
tp106
Rp107
ag50
(g54
S'T\xf3c_k\xfd\xe9?'
p108
tp109
Rp110
ag50
(g54
S'\xf3\x8c\xd3\xd1\xa9/\xc9?'
p111
tp112
Rp113
ag50
(g54
S'_e\x04\xbe\x99\xdc\xe2?'
p114
tp115
Rp116
ag50
(g54
S'#}/R\xd1\xa8\xd4?'
p117
tp118
Rp119
ag50
(g54
S'\xfc\xb6\xf2\r3x\xe9?'
p120
tp121
Rp122
ag50
(g54
S'\xb4\x9a\xe8\xa2M)\xe9?'
p123
tp124
Rp125
ag50
(g54
S"C',\x1b\xd6\xd4\xcd?"
p126
tp127
Rp128
ag50
(g54
S'\x18\xc2\xf9\x1ed\x1d\xc3?'
p129
tp130
Rp131
ag50
(g54
S'\xef1u\x03\xbf^\xe2?'
p132
tp133
Rp134
ag50
(g54
S'\xac\x92\x99\x9fz&\xdf?'
p135
tp136
Rp137
ag50
(g54
S'\xf0\xd6\xbd\xb8s\x8e\xe7?'
p138
tp139
Rp140
ag50
(g54
S'\xf3\x8c\xd3\xd1\xa9/\xc9?'
p141
tp142
Rp143
ag50
(g54
S'\xa6\x1a\x1b\xdb9}\xe1?'
p144
tp145
Rp146
ag50
(g54
S'~F=Fw\xd7\xd6?'
p147
tp148
Rp149
ag50
(g54
S'\xf3\x8c\xd3\xd1\xa9/\xc9?'
p150
tp151
Rp152
ag50
(g54
S'_e\x04\xbe\x99\xdc\xe2?'
p153
tp154
Rp155
ag50
(g54
S'#}/R\xd1\xa8\xd4?'
p156
tp157
Rp158
asS'sp'
p159
(lp160
(S'p0'
p161
I0
S't'
p162
tp163
a(g161
I0
g162
tp164
a(g161
I0
S'x'
p165
tp166
a(g161
I0
g165
tp167
a(g161
I0
g165
tp168
a(g161
I0
S'y'
p169
tp170
ag170
ag170
a(S'p1'
p171
I0
g169
tp172
a(g171
I0
g169
tp173
a(g171
I0
g169
tp174
a(g171
I0
g165
tp175
a(g171
I0
g162
tp176
a(g171
F1.5707963267948966
g162
tp177
a(g171
F1.5707963267948966
g169
tp178
a(g171
F1.5707963267948966
g169
tp179
a(g171
F1.5707963267948966
g169
tp180
ag180
a(g171
F1.5707963267948966
g165
tp181
ag181
a(S'p2'
p182
F1.5707963267948966
g165
tp183
a(g182
F1.5707963267948966
g165
tp184
a(g182
F1.5707963267948966
g162
tp185
a(g182
F1.5707963267948966
g165
tp186
a(g182
F1.5707963267948966
g169
tp187
ag187
a(g182
F1.5707963267948966
g162
tp188
a(g182
F1.5707963267948966
g162
tp189
a(g182
F1.5707963267948966
g169
tp190
ag190
a(S'p3'
p191
F1.5707963267948966
g169
tp192
a(g191
F1.5707963267948966
g165
tp193
ag193
a(S'p4'
p194
F1.5707963267948966
g165
tp195
asS's'
p196
(lp197
(g161
I0
g22
tp198
ag163
ag164
ag166
ag167
ag168
ag170
ag170
ag170
ag172
ag173
ag174
ag175
ag176
ag177
ag178
ag179
ag180
ag180
ag181
ag181
ag183
ag184
ag185
ag186
ag187
ag187
ag188
ag189
ag190
ag190
ag192
ag193
ag193
asS'ui'
p199
(lp200
S'hs'
p201
ag159
aS'hp'
p202
ag159
ag202
aS'ss'
p203
ag203
ag203
ag203
ag159
ag202
ag202
ag201
ag159
ag203
ag201
ag201
ag202
ag202
ag202
ag159
ag202
ag203
ag202
ag202
ag203
ag202
ag201
ag201
ag203
ag203
ag201
ag202
ag159
asS'um_before'
p204
(lp205
g201
ag159
ag202
ag159
ag203
ag202
ag159
ag201
ag203
ag203
ag159
ag201
ag201
ag159
ag201
ag203
ag159
ag159
ag201
ag203
ag159
ag203
ag201
ag202
ag202
ag159
ag202
ag203
ag201
ag201
ag203
ag201
ag203
ag159
asS'um_after'
p206
(lp207
g201
ag159
ag202
ag159
ag203
ag202
aNaNag203
ag203
ag159
ag201
ag201
ag159
ag201
ag203
ag159
ag159
ag201
aNag159
ag203
ag201
ag202
ag202
aNag202
ag203
ag201
aNag203
ag201
aNag159
asS'is_normalized_entropy_less_than_threshold'
p208
(lp209
g50
(g51
(S'b1'
p210
I0
I1
tp211
Rp212
(I3
S'|'
p213
NNNI-1
I-1
I0
tp214
bS'\x00'
p215
tp216
Rp217
ag217
ag50
(g212
S'\x01'
p218
tp219
Rp220
ag217
ag217
ag220
ag220
ag220
ag220
ag217
ag217
ag217
ag220
ag220
ag217
ag217
ag217
ag217
ag220
ag220
ag220
ag217
ag217
ag220
ag220
ag220
ag220
ag217
ag220
ag220
ag220
ag220
ag220
ag220
asaa(lp221
S'index'
p222
aI110966
aatp223
Rp224
.