ccollections
OrderedDict
p0
((lp1
(lp2
S'combination_dict'
p3
ag0
((lp4
(lp5
S'r_to_g_config'
p6
aS'tl'
p7
aa(lp8
S'num_turns'
p9
aI1
aa(lp10
S'start_direction'
p11
acutils_ms
StartDirection
p12
(I1
tp13
Rp14
aa(lp15
S'assistance_type'
p16
acutils_ms
AssistanceType
p17
(I2
tp18
Rp19
aa(lp20
S'start_mode'
p21
aS'x'
p22
aa(lp23
S'ui_given_a_noise'
p24
aF0.5
aa(lp25
S'um_given_ui_noise'
p26
aF0.3
aa(lp27
S'entropy_threshold'
p28
aF0.6
aatp29
Rp30
aa(lp31
S'data'
p32
accollections
defaultdict
p33
(c__builtin__
list
p34
tp35
Rp36
S'a'
p37
(lp38
S'mode_r'
p39
aS'move_p'
p40
aS'mode_l'
p41
ag40
ag39
ag41
ag40
ag39
ag39
ag40
ag39
aS'move_n'
p42
ag39
ag39
ag39
ag39
ag40
ag39
ag40
ag40
ag41
ag42
ag41
ag39
ag41
ag42
asS'assistance_match_with_ground_truth'
p43
(lp44
I01
aI00
aI01
aI00
aI00
aI01
aI01
aI00
aI01
aI01
aI01
aI00
aI00
aI00
aI00
aI01
aI00
aI01
aI00
aI01
aI01
aI00
aI00
aI00
aI01
aI01
asS'is_u_intended_equals_um'
p45
(lp46
I01
aI01
aI01
aI01
aI01
aI01
aI01
aI01
aI01
aI01
aI01
aI01
aI01
aI01
aI01
aI01
aI01
aI01
aI01
aI01
aI01
aI01
aI01
aI01
aI01
aI01
asS'total_steps'
p47
I26
sS'normalized_h_of_p_ui_given_um'
p48
(lp49
cnumpy.core.multiarray
scalar
p50
(cnumpy
dtype
p51
(S'f8'
p52
I0
I1
tp53
Rp54
(I3
S'<'
p55
NNNI-1
I-1
I0
tp56
bS'\xf2\xa9?\x10\x14\n\xe6?'
p57
tp58
Rp59
ag59
ag59
ag59
ag59
ag59
ag59
ag59
ag59
ag59
ag59
ag59
ag59
ag59
ag59
ag59
ag59
ag59
ag59
ag59
ag59
ag59
ag59
ag59
ag59
ag59
asS'sp'
p60
(lp61
(S'p0'
p62
I0
S'y'
p63
tp64
a(g62
I0
S't'
p65
tp66
a(g62
I0
g63
tp67
a(g62
I0
S'x'
p68
tp69
a(g62
I0
g65
tp70
ag67
a(S'p1'
p71
I0
g63
tp72
a(g71
I0
g63
tp73
a(g71
I0
g65
tp74
a(g71
F1.5707963267948966
g65
tp75
a(g71
F1.5707963267948966
g68
tp76
a(g62
F1.5707963267948966
g68
tp77
a(g62
F1.5707963267948966
g68
tp78
a(g62
F1.5707963267948966
g68
tp79
ag78
a(g62
F1.5707963267948966
g63
tp80
a(g62
F1.5707963267948966
g68
tp81
ag80
a(g62
F1.5707963267948966
g63
tp82
a(g71
F1.5707963267948966
g63
tp83
a(g71
F1.5707963267948966
g68
tp84
a(g71
F1.5707963267948966
g63
tp85
a(g71
F1.5707963267948966
g65
tp86
a(g71
F1.5707963267948966
g63
tp87
ag84
a(S'p2'
p88
F1.5707963267948966
g68
tp89
asS's'
p90
(lp91
(g62
I0
g22
tp92
ag64
ag66
ag67
ag69
ag70
ag67
ag72
ag73
ag74
ag75
ag76
ag77
ag78
ag79
ag78
ag80
ag81
ag80
ag82
ag83
ag84
ag85
ag86
ag87
ag84
asS'ui'
p93
(lp94
S'hs'
p95
ag60
ag95
ag95
aS'hp'
p96
ag95
ag60
aS'ss'
p97
ag96
ag60
ag96
ag97
ag97
ag95
ag96
ag96
ag60
ag95
ag97
ag60
ag95
ag97
ag95
ag95
ag95
ag97
asS'um_before'
p98
(lp99
g96
ag96
ag95
ag95
ag95
ag95
ag60
ag97
ag96
ag60
ag96
ag60
ag97
ag60
ag97
ag96
ag95
ag96
ag97
ag60
ag95
ag96
ag96
ag95
ag95
ag97
asS'um_after'
p100
(lp101
g96
ag96
ag95
ag95
ag95
ag95
ag60
ag97
ag96
ag60
ag96
ag60
ag97
ag60
ag97
ag96
ag95
ag96
ag97
ag60
ag95
ag96
ag96
ag95
ag95
ag97
asS'is_normalized_entropy_less_than_threshold'
p102
(lp103
g50
(g51
(S'b1'
p104
I0
I1
tp105
Rp106
(I3
S'|'
p107
NNNI-1
I-1
I0
tp108
bS'\x01'
p109
tp110
Rp111
ag111
ag111
ag111
ag111
ag111
ag111
ag111
ag111
ag111
ag111
ag111
ag111
ag111
ag111
ag111
ag111
ag111
ag111
ag111
ag111
ag111
ag111
ag111
ag111
ag111
asaa(lp112
S'index'
p113
aI37269
aatp114
Rp115
.