ccollections
OrderedDict
p0
((lp1
(lp2
S'combination_dict'
p3
ag0
((lp4
(lp5
S'r_to_g_config'
p6
aS'bl'
p7
aa(lp8
S'num_turns'
p9
aI2
aa(lp10
S'start_direction'
p11
acutils_ms
StartDirection
p12
(I0
tp13
Rp14
aa(lp15
S'assistance_type'
p16
acutils_ms
AssistanceType
p17
(I1
tp18
Rp19
aa(lp20
S'start_mode'
p21
aS'y'
p22
aa(lp23
S'ui_given_a_noise'
p24
aF0.5
aa(lp25
S'um_given_ui_noise'
p26
aF0.1
aa(lp27
S'entropy_threshold'
p28
aF0.5
aatp29
Rp30
aa(lp31
S'data'
p32
accollections
defaultdict
p33
(c__builtin__
list
p34
tp35
Rp36
S'a'
p37
(lp38
S'mode_l'
p39
aS'mode_r'
p40
ag40
aS'move_n'
p41
ag40
ag41
ag39
ag41
ag40
ag40
ag39
ag39
ag39
ag39
ag39
ag39
ag39
ag41
ag40
ag41
ag39
aS'move_p'
p42
ag40
ag42
ag39
ag41
ag39
ag39
ag41
ag40
ag41
ag40
ag40
ag41
ag40
ag40
ag41
ag40
ag41
ag39
ag39
ag39
ag39
ag40
ag41
asS'assistance_match_with_ground_truth'
p43
(lp44
I00
aI00
aI01
aI00
aI01
aI00
aI01
aI00
aI00
aI00
aI00
aI00
aI00
aI00
aI00
aI00
aI01
aI00
aI01
aI01
aI01
aI00
aI01
aI01
aI01
aI01
aI00
aI01
aI00
aI01
aI00
aI00
aI01
aI00
aI00
aI01
aI00
aI01
aI00
aI00
aI00
aI00
aI00
aI01
aI01
asS'is_u_intended_equals_um'
p45
(lp46
I01
aI01
aI01
aI01
aI01
aI01
aI01
aI01
aI01
aI01
aI01
aI01
aI01
aI01
aI01
aI01
aI01
aI01
aI01
aI01
aI01
aI01
aI01
aI01
aI01
aI01
aI01
aI01
aI01
aI01
aI01
aI01
aI01
aI01
aI00
aI01
aI01
aI01
aI01
aI01
aI01
aI01
aI01
aI01
aI01
asS'total_steps'
p47
I45
sS'normalized_h_of_p_ui_given_um'
p48
(lp49
cnumpy.core.multiarray
scalar
p50
(cnumpy
dtype
p51
(S'f8'
p52
I0
I1
tp53
Rp54
(I3
S'<'
p55
NNNI-1
I-1
I0
tp56
bS'\xe2\xff\xad\xc0\xc1\x08\xdc?'
p57
tp58
Rp59
ag50
(g54
S'\xb4} &\xc3f\xe0?'
p60
tp61
Rp62
ag50
(g54
S'\x82\xd8\x8a[\x81=\xbb?'
p63
tp64
Rp65
ag50
(g54
S'f\xfe\xe0\x9f\xeb0\xda?'
p66
tp67
Rp68
ag50
(g54
S'\x82\xd8\x8a[\x81=\xbb?'
p69
tp70
Rp71
ag50
(g54
S'\xfaw\xb2?\xfa\xaf\xdf?'
p72
tp73
Rp74
ag50
(g54
S'\xe0GbM*\xad\xc0?'
p75
tp76
Rp77
ag50
(g54
S'f\xfe\xe0\x9f\xeb0\xda?'
p78
tp79
Rp80
ag50
(g54
S'\xb4} &\xc3f\xe0?'
p81
tp82
Rp83
ag50
(g54
S'\xcb\xbb\xbd\xacGB\xcf?'
p84
tp85
Rp86
ag50
(g54
S"')X\xa8{\x92\xdb?"
p87
tp88
Rp89
ag50
(g54
S'tM\xecBz\x85\xe6?'
p90
tp91
Rp92
ag50
(g54
S'tM\xecBz\x85\xe6?'
p93
tp94
Rp95
ag50
(g54
S"')X\xa8{\x92\xdb?"
p96
tp97
Rp98
ag50
(g54
S"')X\xa8{\x92\xdb?"
p99
tp100
Rp101
ag50
(g54
S'tM\xecBz\x85\xe6?'
p102
tp103
Rp104
ag50
(g54
S'\xe0GbM*\xad\xc0?'
p105
tp106
Rp107
ag50
(g54
S'f\xfe\xe0\x9f\xeb0\xda?'
p108
tp109
Rp110
ag50
(g54
S'\x82\xd8\x8a[\x81=\xbb?'
p111
tp112
Rp113
ag50
(g54
S' c\xe3\r\x80\x06\xc6?'
p114
tp115
Rp116
ag50
(g54
S'\xe0GbM*\xad\xc0?'
p117
tp118
Rp119
ag50
(g54
S'K\xb8em<Z\xd7?'
p120
tp121
Rp122
ag50
(g54
S'\x82\xd8\x8a[\x81=\xbb?'
p123
tp124
Rp125
ag50
(g54
S'P\xce\xb2M\xa4k\xc7?'
p126
tp127
Rp128
ag50
(g54
S'\xe0GbM*\xad\xc0?'
p129
tp130
Rp131
ag50
(g54
S' c\xe3\r\x80\x06\xc6?'
p132
tp133
Rp134
ag50
(g54
S"')X\xa8{\x92\xdb?"
p135
tp136
Rp137
ag50
(g54
S'\xe0GbM*\xad\xc0?'
p138
tp139
Rp140
ag50
(g54
S'f\xfe\xe0\x9f\xeb0\xda?'
p141
tp142
Rp143
ag50
(g54
S'\x82\xd8\x8a[\x81=\xbb?'
p144
tp145
Rp146
ag50
(g54
S'f\xfe\xe0\x9f\xeb0\xda?'
p147
tp148
Rp149
ag50
(g54
S'\xb4} &\xc3f\xe0?'
p150
tp151
Rp152
ag50
(g54
S'\x82\xd8\x8a[\x81=\xbb?'
p153
tp154
Rp155
ag50
(g54
S'f\xfe\xe0\x9f\xeb0\xda?'
p156
tp157
Rp158
ag50
(g54
S'\xa7!\xf2\xf5\xb2\xf5\xec?'
p159
tp160
Rp161
ag50
(g54
S'\x82\xd8\x8a[\x81=\xbb?'
p162
tp163
Rp164
ag50
(g54
S'f\xfe\xe0\x9f\xeb0\xda?'
p165
tp166
Rp167
ag50
(g54
S'\x82\xd8\x8a[\x81=\xbb?'
p168
tp169
Rp170
ag50
(g54
S'\xfaw\xb2?\xfa\xaf\xdf?'
p171
tp172
Rp173
ag50
(g54
S"')X\xa8{\x92\xdb?"
p174
tp175
Rp176
ag50
(g54
S"')X\xa8{\x92\xdb?"
p177
tp178
Rp179
ag50
(g54
S"')X\xa8{\x92\xdb?"
p180
tp181
Rp182
ag50
(g54
S'\xe2\xff\xad\xc0\xc1\x08\xdc?'
p183
tp184
Rp185
ag50
(g54
S'\x82\xd8\x8a[\x81=\xbb?'
p186
tp187
Rp188
ag50
(g54
S' c\xe3\r\x80\x06\xc6?'
p189
tp190
Rp191
asS'sp'
p192
(lp193
(S'p0'
p194
I0
S't'
p195
tp196
a(g194
I0
g195
tp197
a(g194
I0
S'x'
p198
tp199
a(g194
I0
g195
tp200
ag199
a(g194
I0
S'y'
p201
tp202
a(g194
I0
g198
tp203
ag200
ag197
a(g194
I0
g201
tp204
a(g194
I0
g201
tp205
a(g194
I0
g201
tp206
ag206
ag205
ag205
ag206
ag203
ag200
ag199
a(S'p1'
p207
I0
g198
tp208
a(g207
I0
g195
tp209
a(g207
I0
g201
tp210
a(g207
I0
g195
tp211
a(g207
F1.5707963267948966
g195
tp212
a(g207
F1.5707963267948966
g201
tp213
a(S'p2'
p214
F1.5707963267948966
g201
tp215
a(g214
F1.5707963267948966
g201
tp216
a(g214
F1.5707963267948966
g198
tp217
a(g214
F1.5707963267948966
g195
tp218
a(g214
F1.5707963267948966
g198
tp219
ag218
a(g214
F1.5707963267948966
g195
tp220
ag219
ag218
a(g214
F1.5707963267948966
g195
tp221
ag219
ag218
ag219
a(g214
F1.5707963267948966
g201
tp222
ag216
ag216
ag216
a(g214
F1.5707963267948966
g195
tp223
ag219
a(S'p3'
p224
F1.5707963267948966
g198
tp225
asS's'
p226
(lp227
(g194
I0
g22
tp228
ag196
ag197
ag199
ag200
ag199
ag202
ag203
ag200
ag197
ag204
ag205
ag206
ag206
ag205
ag205
ag206
ag203
ag200
ag199
ag208
ag209
ag210
ag211
ag212
ag213
ag215
ag216
ag217
ag218
ag219
ag218
ag220
ag219
ag218
ag221
ag219
ag218
ag219
ag222
ag216
ag216
ag216
ag223
ag219
asS'ui'
p229
(lp230
g192
aS'hs'
p231
aS'hp'
p232
ag231
ag232
ag232
ag231
ag231
ag192
ag231
ag192
aS'ss'
p233
ag233
ag192
ag192
ag231
ag231
ag231
ag232
ag233
ag231
ag231
ag232
ag192
ag231
ag233
ag192
ag231
ag231
ag232
ag233
ag192
ag232
ag231
ag232
ag232
ag231
ag232
ag232
ag192
ag192
ag192
ag232
ag232
ag233
asS'um_before'
p234
(lp235
g232
ag192
ag232
ag231
ag232
ag232
ag231
ag231
ag192
ag231
ag192
ag233
ag233
ag192
ag192
ag233
ag231
ag231
ag232
ag233
ag231
ag231
ag232
ag192
ag231
ag233
ag192
ag231
ag231
ag232
ag231
ag192
ag232
ag231
ag233
ag232
ag231
ag232
ag232
ag192
ag192
ag192
ag232
ag232
ag233
asS'um_after'
p236
(lp237
g232
ag192
ag232
ag231
ag232
ag232
ag231
ag231
ag192
ag231
ag192
ag233
ag233
ag192
ag192
ag233
ag231
ag231
ag232
ag233
ag231
ag231
ag232
ag192
ag231
ag233
ag192
ag231
ag231
ag232
ag231
ag192
ag232
ag231
ag233
ag232
ag231
ag232
ag232
ag192
ag192
ag192
ag232
ag232
ag233
asS'is_normalized_entropy_less_than_threshold'
p238
(lp239
g50
(g51
(S'b1'
p240
I0
I1
tp241
Rp242
(I3
S'|'
p243
NNNI-1
I-1
I0
tp244
bS'\x01'
p245
tp246
Rp247
ag50
(g242
S'\x00'
p248
tp249
Rp250
ag247
ag247
ag247
ag247
ag247
ag247
ag250
ag247
ag247
ag250
ag250
ag247
ag247
ag250
ag247
ag247
ag247
ag247
ag247
ag247
ag247
ag247
ag247
ag247
ag247
ag247
ag247
ag247
ag247
ag250
ag247
ag247
ag250
ag247
ag247
ag247
ag247
ag247
ag247
ag247
ag247
ag247
ag247
asaa(lp251
S'index'
p252
aI70004
aatp253
Rp254
.