ccollections
OrderedDict
p0
((lp1
(lp2
S'combination_dict'
p3
ag0
((lp4
(lp5
S'r_to_g_config'
p6
aS'bl'
p7
aa(lp8
S'num_turns'
p9
aI3
aa(lp10
S'start_direction'
p11
acutils_ms
StartDirection
p12
(I0
tp13
Rp14
aa(lp15
S'assistance_type'
p16
acutils_ms
AssistanceType
p17
(I1
tp18
Rp19
aa(lp20
S'start_mode'
p21
aS'y'
p22
aa(lp23
S'ui_given_a_noise'
p24
aF0.5
aa(lp25
S'um_given_ui_noise'
p26
aF0.7
aa(lp27
S'entropy_threshold'
p28
aF0.7
aatp29
Rp30
aa(lp31
S'data'
p32
accollections
defaultdict
p33
(c__builtin__
list
p34
tp35
Rp36
S'a'
p37
(lp38
S'mode_l'
p39
aS'move_n'
p40
ag39
ag39
aS'move_p'
p41
aS'mode_r'
p42
ag41
ag42
ag39
ag39
ag39
ag40
ag42
ag39
ag40
asS'assistance_match_with_ground_truth'
p43
(lp44
I01
aI01
aI00
aI01
aI00
aI01
aI00
aI00
aI00
aI00
aI01
aI01
aI00
aI01
aI01
asS'is_u_intended_equals_um'
p45
(lp46
I01
aI01
aI00
aI01
aI01
aI01
aI01
aI01
aI00
aI00
aI01
aI01
aI01
aI01
aI01
asS'total_steps'
p47
I15
sS'normalized_h_of_p_ui_given_um'
p48
(lp49
cnumpy.core.multiarray
scalar
p50
(cnumpy
dtype
p51
(S'f8'
p52
I0
I1
tp53
Rp54
(I3
S'<'
p55
NNNI-1
I-1
I0
tp56
bS'\x84\x9cX\xb3\x9a\x12\xd6?'
p57
tp58
Rp59
ag50
(g54
S'\xb4\x8e\xa7\x0b>\xb5\xd2?'
p60
tp61
Rp62
ag50
(g54
S'v\xdb\xe4\xec\xc2\xc3\xe7?'
p63
tp64
Rp65
ag50
(g54
S'\x84\x9cX\xb3\x9a\x12\xd6?'
p66
tp67
Rp68
ag50
(g54
S'\x9c\xd9g\xd63\xdc\xe4?'
p69
tp70
Rp71
ag50
(g54
S'\x98\x02+R\x18I\xdc?'
p72
tp73
Rp74
ag50
(g54
S'\x9c\xd9g\xd63\xdc\xe4?'
p75
tp76
Rp77
ag50
(g54
S'\x9ew\xca\x1f\xca\xb3\xec?'
p78
tp79
Rp80
ag50
(g54
S'v\xdb\xe4\xec\xc2\xc3\xe7?'
p81
tp82
Rp83
ag50
(g54
S'v\xdb\xe4\xec\xc2\xc3\xe7?'
p84
tp85
Rp86
ag50
(g54
S'\x84\x9cX\xb3\x9a\x12\xd6?'
p87
tp88
Rp89
ag50
(g54
S'\xb4\x8e\xa7\x0b>\xb5\xd2?'
p90
tp91
Rp92
ag50
(g54
S'\x04\x9aE\xcfV1\xe6?'
p93
tp94
Rp95
ag50
(g54
S'\x84\x9cX\xb3\x9a\x12\xd6?'
p96
tp97
Rp98
ag50
(g54
S'\xb4\x8e\xa7\x0b>\xb5\xd2?'
p99
tp100
Rp101
asS'sp'
p102
(lp103
(S'p0'
p104
I0
S'x'
p105
tp106
a(S'p1'
p107
I0
g105
tp108
a(g107
I0
g105
tp109
a(g107
I0
S't'
p110
tp111
a(g107
I0
S'y'
p112
tp113
a(g107
I0
g110
tp114
ag113
a(S'p2'
p115
I0
g112
tp116
a(g115
I0
g112
tp117
ag117
a(g115
I0
g105
tp118
a(S'p3'
p119
I0
g105
tp120
a(g119
I0
g110
tp121
a(g119
I0
g112
tp122
a(S'p4'
p123
I0
g112
tp124
asS's'
p125
(lp126
(g104
I0
g22
tp127
ag106
ag108
ag109
ag111
ag113
ag114
ag113
ag116
ag117
ag117
ag118
ag120
ag121
ag122
asS'ui'
p128
(lp129
S'hs'
p130
aS'ss'
p131
ag102
ag102
ag102
ag130
ag130
ag130
ag102
ag102
ag130
ag131
aS'hp'
p132
ag130
ag132
asS'um_before'
p133
(lp134
g130
ag131
ag102
ag130
ag130
ag132
ag130
ag131
ag102
ag102
ag130
ag131
ag130
ag130
ag131
asS'um_after'
p135
(lp136
g130
ag131
ag102
ag130
ag130
ag132
ag130
ag131
ag102
ag102
ag130
ag131
ag130
ag130
ag131
asS'is_normalized_entropy_less_than_threshold'
p137
(lp138
g50
(g51
(S'b1'
p139
I0
I1
tp140
Rp141
(I3
S'|'
p142
NNNI-1
I-1
I0
tp143
bS'\x01'
p144
tp145
Rp146
ag146
ag50
(g141
S'\x00'
p147
tp148
Rp149
ag146
ag146
ag146
ag146
ag149
ag149
ag149
ag146
ag146
ag146
ag146
ag146
asaa(lp150
S'index'
p151
aI79771
aatp152
Rp153
.