ccollections
OrderedDict
p0
((lp1
(lp2
S'combination_dict'
p3
ag0
((lp4
(lp5
S'r_to_g_config'
p6
aS'tr'
p7
aa(lp8
S'num_turns'
p9
aI2
aa(lp10
S'start_direction'
p11
acutils_ms
StartDirection
p12
(I1
tp13
Rp14
aa(lp15
S'assistance_type'
p16
acutils_ms
AssistanceType
p17
(I1
tp18
Rp19
aa(lp20
S'start_mode'
p21
aS't'
p22
aa(lp23
S'ui_given_a_noise'
p24
aF0.5
aa(lp25
S'um_given_ui_noise'
p26
aF0.5
aa(lp27
S'entropy_threshold'
p28
aF0.9
aatp29
Rp30
aa(lp31
S'data'
p32
accollections
defaultdict
p33
(c__builtin__
list
p34
tp35
Rp36
S'a'
p37
(lp38
S'mode_l'
p39
aS'move_p'
p40
ag39
ag40
ag39
aS'mode_r'
p41
ag39
ag40
ag41
ag40
ag39
ag41
ag41
ag41
ag40
ag41
ag40
ag41
ag39
ag40
asS'assistance_match_with_ground_truth'
p42
(lp43
I01
aI00
aI01
aI00
aI00
aI00
aI01
aI01
aI01
aI00
aI00
aI00
aI00
aI01
aI01
aI01
aI01
aI00
aI01
aI01
asS'is_u_intended_equals_um'
p44
(lp45
I01
aI00
aI01
aI00
aI01
aI00
aI01
aI00
aI00
aI00
aI00
aI01
aI01
aI01
aI01
aI01
aI01
aI00
aI01
aI00
asS'total_steps'
p46
I20
sS'normalized_h_of_p_ui_given_um'
p47
(lp48
cnumpy.core.multiarray
scalar
p49
(cnumpy
dtype
p50
(S'f8'
p51
I0
I1
tp52
Rp53
(I3
S'<'
p54
NNNI-1
I-1
I0
tp55
bS'\xedj*\xf8^\xbf\xdf?'
p56
tp57
Rp58
ag49
(g53
S'\x8eo\xb5\x10\x82d\xef?'
p59
tp60
Rp61
ag49
(g53
S'\xedj*\xf8^\xbf\xdf?'
p62
tp63
Rp64
ag49
(g53
S'\x8eo\xb5\x10\x82d\xef?'
p65
tp66
Rp67
ag49
(g53
S'\xf2\xc2#\x9d&\x0c\xe3?'
p68
tp69
Rp70
ag49
(g53
S'ze\xc0h\x13~\xee?'
p71
tp72
Rp73
ag49
(g53
S'\xedj*\xf8^\xbf\xdf?'
p74
tp75
Rp76
ag49
(g53
S'\x16s\xeb\xf342\xe9?'
p77
tp78
Rp79
ag49
(g53
S'l\xe6\x95\xb1x\xc1\xe6?'
p80
tp81
Rp82
ag49
(g53
S'\x8eo\xb5\x10\x82d\xef?'
p83
tp84
Rp85
ag49
(g53
S'E\x1b\xf5\xbc\x99\xbe\xe9?'
p86
tp87
Rp88
ag49
(g53
S'\x82\x11\xe6\xd4z\xad\xe7?'
p89
tp90
Rp91
ag49
(g53
S'\x82\x11\xe6\xd4z\xad\xe7?'
p92
tp93
Rp94
ag49
(g53
S'\x04\x8f5\xdfZ\x1e\xde?'
p95
tp96
Rp97
ag49
(g53
S'h\x7f\xcb\xe5\x82\xb1\xd2?'
p98
tp99
Rp100
ag49
(g53
S'\x04\x8f5\xdfZ\x1e\xde?'
p101
tp102
Rp103
ag49
(g53
S'h\x7f\xcb\xe5\x82\xb1\xd2?'
p104
tp105
Rp106
ag49
(g53
S'ze\xc0h\x13~\xee?'
p107
tp108
Rp109
ag49
(g53
S'\xedj*\xf8^\xbf\xdf?'
p110
tp111
Rp112
ag49
(g53
S'\x16s\xeb\xf342\xe9?'
p113
tp114
Rp115
asS'sp'
p116
(lp117
(S'p0'
p118
I0
S'y'
p119
tp120
a(g118
I0
S't'
p121
tp122
ag120
ag122
a(g118
I0
S'x'
p123
tp124
a(g118
I0
g121
tp125
ag120
a(S'p1'
p126
I0
g119
tp127
a(g126
I0
g121
tp128
a(g126
I0
g123
tp129
a(g126
I0
g119
tp130
a(g126
I0
g119
tp131
ag131
ag128
a(g126
F1.5707963267948966
g121
tp132
a(g126
F1.5707963267948966
g123
tp133
a(S'p2'
p134
F1.5707963267948966
g123
tp135
a(g134
F1.5707963267948966
g121
tp136
a(g134
F1.5707963267948966
g119
tp137
a(S'p3'
p138
F1.5707963267948966
g119
tp139
asS's'
p140
(lp141
(g118
I0
g22
tp142
ag120
ag122
ag120
ag122
ag124
ag125
ag120
ag127
ag128
ag129
ag130
ag131
ag131
ag128
ag132
ag133
ag135
ag136
ag137
asS'ui'
p143
(lp144
S'hs'
p145
aS'hp'
p146
ag145
ag145
ag145
ag146
ag146
aS'ss'
p147
ag147
ag146
ag146
ag116
ag145
ag146
ag116
ag146
ag147
ag145
ag146
ag116
asS'um_before'
p148
(lp149
g145
ag146
ag145
ag146
ag146
ag145
ag145
ag145
ag147
ag146
ag147
ag116
ag116
ag146
ag116
ag146
ag116
ag145
ag145
ag145
asS'um_after'
p150
(lp151
g145
ag146
ag145
ag146
ag146
ag145
ag145
ag116
ag146
ag146
ag146
ag116
ag116
ag146
ag116
ag146
ag116
ag145
ag145
ag116
asS'is_normalized_entropy_less_than_threshold'
p152
(lp153
g49
(g50
(S'b1'
p154
I0
I1
tp155
Rp156
(I3
S'|'
p157
NNNI-1
I-1
I0
tp158
bS'\x01'
p159
tp160
Rp161
ag49
(g156
S'\x00'
p162
tp163
Rp164
ag161
ag164
ag161
ag164
ag161
ag161
ag161
ag164
ag161
ag161
ag161
ag161
ag161
ag161
ag161
ag164
ag161
ag161
asaa(lp165
S'index'
p166
aI17344
aatp167
Rp168
.