ccollections
OrderedDict
p0
((lp1
(lp2
S'combination_dict'
p3
ag0
((lp4
(lp5
S'r_to_g_config'
p6
aS'bl'
p7
aa(lp8
S'num_turns'
p9
aI3
aa(lp10
S'start_direction'
p11
acutils_ms
StartDirection
p12
(I0
tp13
Rp14
aa(lp15
S'assistance_type'
p16
acutils_ms
AssistanceType
p17
(I0
tp18
Rp19
aa(lp20
S'start_mode'
p21
aS'y'
p22
aa(lp23
S'ui_given_a_noise'
p24
aF0.3
aa(lp25
S'um_given_ui_noise'
p26
aF0.3
aa(lp27
S'entropy_threshold'
p28
aF0.9
aatp29
Rp30
aa(lp31
S'data'
p32
accollections
defaultdict
p33
(c__builtin__
list
p34
tp35
Rp36
S'a'
p37
(lp38
S'mode_l'
p39
aS'mode_r'
p40
ag40
aS'move_n'
p41
ag40
ag41
ag40
aS'move_p'
p42
ag40
ag40
ag40
ag40
ag41
ag39
ag41
ag39
ag39
ag39
ag41
ag40
ag41
ag41
asS'assistance_match_with_ground_truth'
p43
(lp44
I00
aI00
aI01
aI01
aI01
aI01
aI01
aI01
aI00
aI00
aI00
aI01
aI00
aI01
aI00
aI00
aI00
aI01
aI01
aI01
aI00
aI01
asS'is_u_intended_equals_um'
p45
(lp46
I01
aI00
aI01
aI01
aI01
aI01
aI01
aI01
aI00
aI00
aI00
aI01
aI01
aI01
aI01
aI01
aI01
aI01
aI01
aI01
aI00
aI01
asS'total_steps'
p47
I22
sS'normalized_h_of_p_ui_given_um'
p48
(lp49
cnumpy.core.multiarray
scalar
p50
(cnumpy
dtype
p51
(S'f8'
p52
I0
I1
tp53
Rp54
(I3
S'<'
p55
NNNI-1
I-1
I0
tp56
bS'\x80\xaa\n\x884Z\xe6?'
p57
tp58
Rp59
ag50
(g54
S'\xc2\x94\xf2P4\x04\xec?'
p60
tp61
Rp62
ag50
(g54
S'H\x8f\xa9\xa3\xc8/\xcc?'
p63
tp64
Rp65
ag50
(g54
S'&j\x91\xde\x9aY\xc3?'
p66
tp67
Rp68
ag50
(g54
S'H\x8f\xa9\xa3\xc8/\xcc?'
p69
tp70
Rp71
ag50
(g54
S'&j\x91\xde\x9aY\xc3?'
p72
tp73
Rp74
ag50
(g54
S'H\x8f\xa9\xa3\xc8/\xcc?'
p75
tp76
Rp77
ag50
(g54
S'\xde\x94\xc6\xda\x18~\xd2?'
p78
tp79
Rp80
ag50
(g54
S'\x8f3\xe1\xec\xdb*\xe6?'
p81
tp82
Rp83
ag50
(g54
S'\x8f3\xe1\xec\xdb*\xe6?'
p84
tp85
Rp86
ag50
(g54
S'\x8f3\xe1\xec\xdb*\xe6?'
p87
tp88
Rp89
ag50
(g54
S'H\x8f\xa9\xa3\xc8/\xcc?'
p90
tp91
Rp92
ag50
(g54
S'\x86\xe3\x1b*\x96\xea\xe4?'
p93
tp94
Rp95
ag50
(g54
S'\xa4\x06\xbc\xe4\x0e\xcf\xd4?'
p96
tp97
Rp98
ag50
(g54
S'\x86\xe3\x1b*\x96\xea\xe4?'
p99
tp100
Rp101
ag50
(g54
S'\x14\xb7\xcf\xf1#\xc0\xe8?'
p102
tp103
Rp104
ag50
(g54
S'\x14\xb7\xcf\xf1#\xc0\xe8?'
p105
tp106
Rp107
ag50
(g54
S'\xa4\x06\xbc\xe4\x0e\xcf\xd4?'
p108
tp109
Rp110
ag50
(g54
S'&j\x91\xde\x9aY\xc3?'
p111
tp112
Rp113
ag50
(g54
S'H\x8f\xa9\xa3\xc8/\xcc?'
p114
tp115
Rp116
ag50
(g54
S'\xfe\xb5\xde)W\x82\xe9?'
p117
tp118
Rp119
ag50
(g54
S'&j\x91\xde\x9aY\xc3?'
p120
tp121
Rp122
asS'sp'
p123
(lp124
(S'p0'
p125
I0
S't'
p126
tp127
ag127
a(g125
I0
S'x'
p128
tp129
a(S'p1'
p130
I0
g128
tp131
a(g130
I0
S'y'
p132
tp133
a(S'p2'
p134
I0
g132
tp135
a(g134
I0
g126
tp136
a(g134
F1.5707963267948966
g126
tp137
ag137
ag137
ag137
a(g134
F1.5707963267948966
g128
tp138
a(g134
F1.5707963267948966
g132
tp139
a(g134
F1.5707963267948966
g128
tp140
ag139
a(g134
F1.5707963267948966
g132
tp141
ag141
ag140
a(S'p3'
p142
F1.5707963267948966
g128
tp143
a(g142
F1.5707963267948966
g132
tp144
ag144
a(S'p4'
p145
F1.5707963267948966
g132
tp146
asS's'
p147
(lp148
(g125
I0
g22
tp149
ag127
ag127
ag129
ag131
ag133
ag135
ag136
ag137
ag137
ag137
ag137
ag138
ag139
ag140
ag139
ag141
ag141
ag140
ag143
ag144
ag144
asS'ui'
p150
(lp151
S'hp'
p152
aS'ss'
p153
ag152
ag153
ag152
ag153
ag152
ag123
ag152
ag152
ag152
ag153
ag152
aS'hs'
p154
ag153
ag154
ag123
ag154
ag153
ag152
ag153
ag153
asS'um_before'
p155
(lp156
g152
ag154
ag152
ag153
ag152
ag153
ag152
ag123
ag123
ag123
ag123
ag152
ag152
ag154
ag152
ag123
ag123
ag154
ag153
ag152
ag154
ag153
asS'um_after'
p157
(lp158
g152
aNag152
ag153
ag152
ag153
ag152
ag123
aNaNaNag152
ag152
ag154
ag152
ag123
ag123
ag154
ag153
ag152
aNag153
asS'is_normalized_entropy_less_than_threshold'
p159
(lp160
g50
(g51
(S'b1'
p161
I0
I1
tp162
Rp163
(I3
S'|'
p164
NNNI-1
I-1
I0
tp165
bS'\x01'
p166
tp167
Rp168
ag168
ag168
ag168
ag168
ag168
ag168
ag168
ag168
ag168
ag168
ag168
ag168
ag168
ag168
ag168
ag168
ag168
ag168
ag168
ag168
ag168
asaa(lp169
S'index'
p170
aI77898
aatp171
Rp172
.