ccollections
OrderedDict
p0
((lp1
(lp2
S'combination_dict'
p3
ag0
((lp4
(lp5
S'r_to_g_config'
p6
aS'bl'
p7
aa(lp8
S'num_turns'
p9
aI2
aa(lp10
S'start_direction'
p11
acutils_ms
StartDirection
p12
(I1
tp13
Rp14
aa(lp15
S'assistance_type'
p16
acutils_ms
AssistanceType
p17
(I0
tp18
Rp19
aa(lp20
S'start_mode'
p21
aS'x'
p22
aa(lp23
S'ui_given_a_noise'
p24
aF0.1
aa(lp25
S'um_given_ui_noise'
p26
aF0.7
aa(lp27
S'entropy_threshold'
p28
aF0.6
aatp29
Rp30
aa(lp31
S'data'
p32
accollections
defaultdict
p33
(c__builtin__
list
p34
tp35
Rp36
S'a'
p37
(lp38
S'mode_r'
p39
ag39
ag39
ag39
aS'move_n'
p40
aS'mode_l'
p41
ag41
ag41
ag41
ag40
ag41
ag41
ag41
ag40
ag40
ag40
ag40
ag41
ag41
aS'move_p'
p42
ag42
ag41
ag41
ag40
asS'assistance_match_with_ground_truth'
p43
(lp44
I00
aI00
aI00
aI01
aI00
aI00
aI00
aI00
aI01
aI01
aI00
aI00
aI01
aI00
aI00
aI00
aI01
aI00
aI01
aI00
aI01
aI00
aI01
aI01
asS'is_u_intended_equals_um'
p45
(lp46
I00
aI00
aI00
aI01
aI00
aI00
aI00
aI00
aI01
aI01
aI00
aI00
aI01
aI00
aI00
aI00
aI01
aI00
aI01
aI00
aI01
aI00
aI01
aI01
asS'total_steps'
p47
I24
sS'normalized_h_of_p_ui_given_um'
p48
(lp49
cnumpy.core.multiarray
scalar
p50
(cnumpy
dtype
p51
(S'f8'
p52
I0
I1
tp53
Rp54
(I3
S'<'
p55
NNNI-1
I-1
I0
tp56
bS'\x12x\x14\x92ky\xd6?'
p57
tp58
Rp59
ag50
(g54
S'\xbd\xce\xbb|\xbb\xd9\xe4?'
p60
tp61
Rp62
ag50
(g54
S'Y\x895\x90\xfc\xdf\xe1?'
p63
tp64
Rp65
ag50
(g54
S'\x9a&\x10\x05\xbb\x0e\xd1?'
p66
tp67
Rp68
ag50
(g54
S'\x88j\xe8\xa5i\xf6\xe3?'
p69
tp70
Rp71
ag50
(g54
S'\xc2\xb8\x9a\xd1\x7fS\xdb?'
p72
tp73
Rp74
ag50
(g54
S'O\xdc\xae\x00P\xb1\xda?'
p75
tp76
Rp77
ag50
(g54
S'\xc2\xb8\x9a\xd1\x7fS\xdb?'
p78
tp79
Rp80
ag50
(g54
S'\x939\x02\xa5\x03\xbe\xc3?'
p81
tp82
Rp83
ag50
(g54
S'\x1c\xc6h|*\xb2\xce?'
p84
tp85
Rp86
ag50
(g54
S'O\xdc\xae\x00P\xb1\xda?'
p87
tp88
Rp89
ag50
(g54
S'\xc2\xb8\x9a\xd1\x7fS\xdb?'
p90
tp91
Rp92
ag50
(g54
S'\x939\x02\xa5\x03\xbe\xc3?'
p93
tp94
Rp95
ag50
(g54
S'\xed\xb2\x16\xaa53\xd8?'
p96
tp97
Rp98
ag50
(g54
S'y\xff\xac\xeb\xef\xdd\xd2?'
p99
tp100
Rp101
ag50
(g54
S'\xed\xb2\x16\xaa53\xd8?'
p102
tp103
Rp104
ag50
(g54
S'\x1c\xc6h|*\xb2\xce?'
p105
tp106
Rp107
ag50
(g54
S'\xc2\xb8\x9a\xd1\x7fS\xdb?'
p108
tp109
Rp110
ag50
(g54
S'\x939\x02\xa5\x03\xbe\xc3?'
p111
tp112
Rp113
ag50
(g54
S'5W\x1f\x10\x17\xf7\xe5?'
p114
tp115
Rp116
ag50
(g54
S'%\x9aMq\x13l\xca?'
p117
tp118
Rp119
ag50
(g54
S'O\xdc\xae\x00P\xb1\xda?'
p120
tp121
Rp122
ag50
(g54
S'\x939\x02\xa5\x03\xbe\xc3?'
p123
tp124
Rp125
ag50
(g54
S'\x1c\xc6h|*\xb2\xce?'
p126
tp127
Rp128
asS'sp'
p129
(lp130
(S'p0'
p131
I0
g22
tp132
a(g131
I0
S'x'
p133
tp134
ag134
a(g131
I0
S'y'
p135
tp136
a(g131
I0
S't'
p137
tp138
ag138
ag138
ag138
a(g131
I0
g135
tp139
a(S'p1'
p140
I0
g135
tp141
ag141
ag141
a(g140
I0
g133
tp142
ag142
ag142
ag142
a(S'p2'
p143
I0
g133
tp144
ag144
a(g143
I0
g137
tp145
a(g143
I0
g137
tp146
a(g143
F1.5707963267948966
g137
tp147
ag147
a(g143
F1.5707963267948966
g135
tp148
a(S'p3'
p149
F1.5707963267948966
g135
tp150
asS's'
p151
(lp152
g132
ag132
ag134
ag134
ag136
ag138
ag138
ag138
ag138
ag139
ag141
ag141
ag141
ag142
ag142
ag142
ag142
ag144
ag144
ag145
ag146
ag147
ag147
ag148
asS'ui'
p153
(lp154
S'hp'
p155
ag155
aS'hs'
p156
ag155
aS'ss'
p157
ag156
ag156
ag156
ag156
ag157
ag156
ag156
ag156
ag157
ag157
ag157
ag157
ag156
ag156
ag129
ag129
ag156
ag156
ag129
asS'um_before'
p158
(lp159
g157
ag129
ag156
ag155
ag155
ag157
ag155
ag157
ag156
ag157
ag155
ag157
ag156
ag129
ag156
ag129
ag157
ag157
ag156
ag157
ag129
ag155
ag156
ag157
asS'um_after'
p160
(lp161
Nag129
aNag155
ag155
aNaNaNag156
ag157
aNaNag156
aNaNaNag157
aNag156
ag157
ag129
aNag156
ag157
asS'is_normalized_entropy_less_than_threshold'
p162
(lp163
g50
(g51
(S'b1'
p164
I0
I1
tp165
Rp166
(I3
S'|'
p167
NNNI-1
I-1
I0
tp168
bS'\x01'
p169
tp170
Rp171
ag50
(g166
S'\x00'
p172
tp173
Rp174
ag171
ag171
ag174
ag171
ag171
ag171
ag171
ag171
ag171
ag171
ag171
ag171
ag171
ag171
ag171
ag171
ag171
ag174
ag171
ag171
ag171
ag171
asaa(lp175
S'index'
p176
aI72164
aatp177
Rp178
.