ccollections
OrderedDict
p0
((lp1
(lp2
S'combination_dict'
p3
ag0
((lp4
(lp5
S'r_to_g_config'
p6
aS'tr'
p7
aa(lp8
S'num_turns'
p9
aI1
aa(lp10
S'start_direction'
p11
acutils_ms
StartDirection
p12
(I0
tp13
Rp14
aa(lp15
S'assistance_type'
p16
acutils_ms
AssistanceType
p17
(I0
tp18
Rp19
aa(lp20
S'start_mode'
p21
aS't'
p22
aa(lp23
S'ui_given_a_noise'
p24
aF0.7
aa(lp25
S'um_given_ui_noise'
p26
aF0.7
aa(lp27
S'entropy_threshold'
p28
aF0.7
aatp29
Rp30
aa(lp31
S'data'
p32
accollections
defaultdict
p33
(c__builtin__
list
p34
tp35
Rp36
S'a'
p37
(lp38
S'mode_r'
p39
ag39
ag39
ag39
aS'move_p'
p40
ag40
aS'mode_l'
p41
ag39
ag40
ag40
ag41
ag40
ag39
ag41
ag41
ag41
ag40
ag40
ag40
ag39
ag41
ag41
ag41
ag39
ag39
ag39
ag40
ag39
ag39
ag40
ag41
ag39
ag39
ag41
ag39
ag40
ag39
ag39
ag39
ag40
ag40
ag40
ag40
ag39
ag40
ag41
ag41
ag40
ag40
ag41
ag40
ag39
ag40
ag41
ag39
ag40
ag39
ag41
ag41
ag41
ag39
ag40
ag39
ag39
ag40
ag40
asS'assistance_match_with_ground_truth'
p42
(lp43
I00
aI00
aI00
aI01
aI00
aI01
aI00
aI01
aI00
aI01
aI00
aI00
aI00
aI00
aI00
aI01
aI00
aI00
aI00
aI00
aI00
aI00
aI00
aI00
aI00
aI01
aI00
aI00
aI01
aI01
aI00
aI00
aI00
aI00
aI01
aI00
aI00
aI00
aI01
aI00
aI00
aI00
aI00
aI01
aI01
aI00
aI01
aI00
aI01
aI01
aI00
aI01
aI00
aI00
aI01
aI00
aI00
aI00
aI00
aI00
aI01
aI01
aI00
aI01
aI00
aI01
asS'is_u_intended_equals_um'
p44
(lp45
I00
aI00
aI00
aI01
aI00
aI01
aI01
aI01
aI00
aI01
aI01
aI00
aI01
aI01
aI01
aI01
aI00
aI00
aI00
aI00
aI01
aI01
aI01
aI00
aI00
aI01
aI00
aI00
aI01
aI01
aI01
aI00
aI00
aI01
aI01
aI00
aI00
aI00
aI01
aI00
aI00
aI00
aI00
aI01
aI01
aI01
aI01
aI00
aI01
aI01
aI00
aI01
aI00
aI01
aI01
aI00
aI01
aI00
aI00
aI01
aI01
aI01
aI00
aI01
aI00
aI01
asS'total_steps'
p46
I66
sS'normalized_h_of_p_ui_given_um'
p47
(lp48
cnumpy.core.multiarray
scalar
p49
(cnumpy
dtype
p50
(S'f8'
p51
I0
I1
tp52
Rp53
(I3
S'<'
p54
NNNI-1
I-1
I0
tp55
bS'\x00C\xa1\xd3\xc4\xfc\xe5?'
p56
tp57
Rp58
ag49
(g53
S'\xca\x91\x8c\x9ea\x9e\xec?'
p59
tp60
Rp61
ag49
(g53
S'\xca\x91\x8c\x9ea\x9e\xec?'
p62
tp63
Rp64
ag49
(g53
S'\xd2u\xa4\xe1\xa5H\xe2?'
p65
tp66
Rp67
ag49
(g53
S'6N`\x1a\x9c\x9a\xe4?'
p68
tp69
Rp70
ag49
(g53
S'\xdcx\xac\xd6:\xe6\xd9?'
p71
tp72
Rp73
ag49
(g53
S'j\xbd\xbeU9[\xe6?'
p74
tp75
Rp76
ag49
(g53
S'\xd2u\xa4\xe1\xa5H\xe2?'
p77
tp78
Rp79
ag49
(g53
S'\xe3h\x9f5\x82\xef\xe8?'
p80
tp81
Rp82
ag49
(g53
S'\xdcx\xac\xd6:\xe6\xd9?'
p83
tp84
Rp85
ag49
(g53
S'\xe4f\x19\xda \x03\xea?'
p86
tp87
Rp88
ag49
(g53
S'^\xc2\x12N\xdb\xca\xe6?'
p89
tp90
Rp91
ag49
(g53
S'j\xec\xb09z\x96\xeb?'
p92
tp93
Rp94
ag49
(g53
S'\xe4f\x19\xda \x03\xea?'
p95
tp96
Rp97
ag49
(g53
S'\xe4f\x19\xda \x03\xea?'
p98
tp99
Rp100
ag49
(g53
S'\xae\x17-\xfc\x05\xf1\xe3?'
p101
tp102
Rp103
ag49
(g53
S'\xe3h\x9f5\x82\xef\xe8?'
p104
tp105
Rp106
ag49
(g53
S'6N`\x1a\x9c\x9a\xe4?'
p107
tp108
Rp109
ag49
(g53
S'^\xc2\x12N\xdb\xca\xe6?'
p110
tp111
Rp112
ag49
(g53
S'\xca\x91\x8c\x9ea\x9e\xec?'
p113
tp114
Rp115
ag49
(g53
S'\xe4f\x19\xda \x03\xea?'
p116
tp117
Rp118
ag49
(g53
S'\xe4f\x19\xda \x03\xea?'
p119
tp120
Rp121
ag49
(g53
S'j\xbd\xbeU9[\xe6?'
p122
tp123
Rp124
ag49
(g53
S'\xca\x91\x8c\x9ea\x9e\xec?'
p125
tp126
Rp127
ag49
(g53
S'\xca\x91\x8c\x9ea\x9e\xec?'
p128
tp129
Rp130
ag49
(g53
S'\xd2u\xa4\xe1\xa5H\xe2?'
p131
tp132
Rp133
ag49
(g53
S'^\xc2\x12N\xdb\xca\xe6?'
p134
tp135
Rp136
ag49
(g53
S'\x00C\xa1\xd3\xc4\xfc\xe5?'
p137
tp138
Rp139
ag49
(g53
S'\xd2u\xa4\xe1\xa5H\xe2?'
p140
tp141
Rp142
ag49
(g53
S'\xdcx\xac\xd6:\xe6\xd9?'
p143
tp144
Rp145
ag49
(g53
S'j\xbd\xbeU9[\xe6?'
p146
tp147
Rp148
ag49
(g53
S'\x00C\xa1\xd3\xc4\xfc\xe5?'
p149
tp150
Rp151
ag49
(g53
S'\xca\x91\x8c\x9ea\x9e\xec?'
p152
tp153
Rp154
ag49
(g53
S'j\xbd\xbeU9[\xe6?'
p155
tp156
Rp157
ag49
(g53
S'\xd2u\xa4\xe1\xa5H\xe2?'
p158
tp159
Rp160
ag49
(g53
S'^\xc2\x12N\xdb\xca\xe6?'
p161
tp162
Rp163
ag49
(g53
S'\xca\x91\x8c\x9ea\x9e\xec?'
p164
tp165
Rp166
ag49
(g53
S'\x00C\xa1\xd3\xc4\xfc\xe5?'
p167
tp168
Rp169
ag49
(g53
S'\xd2u\xa4\xe1\xa5H\xe2?'
p170
tp171
Rp172
ag49
(g53
S'6N`\x1a\x9c\x9a\xe4?'
p173
tp174
Rp175
ag49
(g53
S'6N`\x1a\x9c\x9a\xe4?'
p176
tp177
Rp178
ag49
(g53
S'\xe3h\x9f5\x82\xef\xe8?'
p179
tp180
Rp181
ag49
(g53
S'^\xc2\x12N\xdb\xca\xe6?'
p182
tp183
Rp184
ag49
(g53
S'\xd2u\xa4\xe1\xa5H\xe2?'
p185
tp186
Rp187
ag49
(g53
S'\xdcx\xac\xd6:\xe6\xd9?'
p188
tp189
Rp190
ag49
(g53
S'\xe4f\x19\xda \x03\xea?'
p191
tp192
Rp193
ag49
(g53
S'\xae\x17-\xfc\x05\xf1\xe3?'
p194
tp195
Rp196
ag49
(g53
S'\xe3h\x9f5\x82\xef\xe8?'
p197
tp198
Rp199
ag49
(g53
S'\xdcx\xac\xd6:\xe6\xd9?'
p200
tp201
Rp202
ag49
(g53
S'\xae\x17-\xfc\x05\xf1\xe3?'
p203
tp204
Rp205
ag49
(g53
S'^\xc2\x12N\xdb\xca\xe6?'
p206
tp207
Rp208
ag49
(g53
S'\xd2u\xa4\xe1\xa5H\xe2?'
p209
tp210
Rp211
ag49
(g53
S'\xe3h\x9f5\x82\xef\xe8?'
p212
tp213
Rp214
ag49
(g53
S'j\xbd\xbeU9[\xe6?'
p215
tp216
Rp217
ag49
(g53
S'\xd2u\xa4\xe1\xa5H\xe2?'
p218
tp219
Rp220
ag49
(g53
S'^\xc2\x12N\xdb\xca\xe6?'
p221
tp222
Rp223
ag49
(g53
S'j\xec\xb09z\x96\xeb?'
p224
tp225
Rp226
ag49
(g53
S'\xf3\xa5\xeb\xd1z\xe7\xec?'
p227
tp228
Rp229
ag49
(g53
S'\xf3\xa5\xeb\xd1z\xe7\xec?'
p230
tp231
Rp232
ag49
(g53
S'j\xbd\xbeU9[\xe6?'
p233
tp234
Rp235
ag49
(g53
S'\xd2u\xa4\xe1\xa5H\xe2?'
p236
tp237
Rp238
ag49
(g53
S'\xdcx\xac\xd6:\xe6\xd9?'
p239
tp240
Rp241
ag49
(g53
S'\x00C\xa1\xd3\xc4\xfc\xe5?'
p242
tp243
Rp244
ag49
(g53
S'\xd2u\xa4\xe1\xa5H\xe2?'
p245
tp246
Rp247
ag49
(g53
S'6N`\x1a\x9c\x9a\xe4?'
p248
tp249
Rp250
ag49
(g53
S'\xdcx\xac\xd6:\xe6\xd9?'
p251
tp252
Rp253
asS'sp'
p254
(lp255
(S'p0'
p256
I0
g22
tp257
a(g256
I0
S't'
p258
tp259
ag259
a(g256
I0
S'x'
p260
tp261
ag261
a(S'p1'
p262
I0
g260
tp263
a(g262
I0
S'y'
p264
tp265
a(g262
I0
g258
tp266
a(g262
I0
g258
tp267
a(g262
F1.5707963267948966
g258
tp268
a(g262
I0
g258
tp269
a(g262
I0
g264
tp270
a(g262
I0
g260
tp271
a(g262
I0
g260
tp272
ag272
a(g262
I0
g258
tp273
ag267
ag267
ag270
a(g256
I0
g264
tp274
a(g256
I0
g264
tp275
ag275
a(g256
I0
g258
tp276
ag259
ag259
ag261
a(g256
I0
g258
tp277
ag277
ag261
ag263
ag265
ag265
ag274
ag276
ag261
ag277
ag259
ag259
ag261
ag261
ag261
a(g256
I0
g260
tp278
ag277
ag261
ag263
ag272
ag273
ag267
ag268
a(g262
F1.5707963267948966
g264
tp279
a(g262
F1.5707963267948966
g260
tp280
a(g262
F1.5707963267948966
g264
tp281
a(g256
F1.5707963267948966
g264
tp282
a(g256
F1.5707963267948966
g258
tp283
a(g256
F1.5707963267948966
g260
tp284
a(g256
F1.5707963267948966
g258
tp285
a(g256
F1.5707963267948966
g264
tp286
a(g256
F1.5707963267948966
g264
tp287
ag287
ag283
ag284
a(g262
F1.5707963267948966
g260
tp288
ag288
ag281
ag281
a(S'p2'
p289
F1.5707963267948966
g264
tp290
asS's'
p291
(lp292
g257
ag257
ag259
ag259
ag261
ag261
ag263
ag265
ag266
ag267
ag268
ag269
ag270
ag271
ag272
ag272
ag273
ag267
ag267
ag270
ag274
ag275
ag275
ag276
ag259
ag259
ag261
ag277
ag277
ag261
ag263
ag265
ag265
ag274
ag276
ag261
ag277
ag259
ag259
ag261
ag261
ag261
ag278
ag277
ag261
ag263
ag272
ag273
ag267
ag268
ag279
ag280
ag281
ag282
ag283
ag284
ag285
ag286
ag287
ag287
ag283
ag284
ag288
ag288
ag281
ag281
asS'ui'
p293
(lp294
S'hp'
p295
ag295
aS'ss'
p296
ag295
aS'hs'
p297
ag254
ag296
ag254
ag254
ag254
ag297
ag297
ag297
ag296
ag296
ag297
ag254
ag296
ag297
ag296
ag254
ag296
ag295
ag297
ag254
ag295
ag254
ag254
ag295
ag254
ag254
ag295
ag296
ag297
ag295
ag254
ag295
ag295
ag295
ag254
ag254
ag296
ag254
ag295
ag254
ag296
ag297
ag254
ag296
ag297
ag254
ag295
ag254
ag297
ag295
ag296
ag296
ag296
ag296
ag297
ag295
ag254
ag295
ag295
ag297
ag254
asS'um_before'
p298
(lp299
g254
ag296
ag296
ag295
ag295
ag254
ag295
ag295
ag296
ag254
ag296
ag297
ag297
ag296
ag296
ag297
ag296
ag295
ag297
ag296
ag296
ag296
ag295
ag296
ag296
ag295
ag297
ag254
ag295
ag254
ag295
ag254
ag296
ag295
ag295
ag297
ag296
ag254
ag295
ag295
ag295
ag296
ag297
ag295
ag254
ag296
ag297
ag296
ag254
ag297
ag297
ag295
ag296
ag295
ag295
ag297
ag297
ag254
ag254
ag295
ag295
ag254
ag254
ag295
ag295
ag254
asS'um_after'
p300
(lp301
Nag296
ag296
ag295
aNag254
ag295
ag295
ag296
ag254
ag296
ag297
ag297
ag296
ag296
ag297
ag296
aNag297
ag296
ag296
ag296
ag295
ag296
ag296
ag295
ag297
aNag295
ag254
ag295
aNag296
ag295
ag295
ag297
ag296
aNag295
aNaNag296
ag297
ag295
ag254
ag296
ag297
ag296
ag254
ag297
ag297
ag295
ag296
ag295
ag295
ag297
ag297
ag254
ag254
ag295
ag295
ag254
aNag295
aNag254
asS'is_normalized_entropy_less_than_threshold'
p302
(lp303
g49
(g50
(S'b1'
p304
I0
I1
tp305
Rp306
(I3
S'|'
p307
NNNI-1
I-1
I0
tp308
bS'\x01'
p309
tp310
Rp311
ag49
(g306
S'\x00'
p312
tp313
Rp314
ag314
ag311
ag311
ag311
ag311
ag311
ag314
ag311
ag314
ag314
ag314
ag314
ag314
ag311
ag314
ag311
ag314
ag314
ag314
ag314
ag311
ag314
ag314
ag311
ag314
ag311
ag311
ag311
ag311
ag311
ag314
ag311
ag311
ag314
ag314
ag311
ag311
ag311
ag311
ag314
ag314
ag311
ag311
ag314
ag311
ag314
ag311
ag311
ag314
ag311
ag314
ag311
ag311
ag314
ag314
ag314
ag314
ag311
ag311
ag311
ag311
ag311
ag311
ag311
asaa(lp315
S'index'
p316
aI773
aatp317
Rp318
.