ccollections
OrderedDict
p0
((lp1
(lp2
S'combination_dict'
p3
ag0
((lp4
(lp5
S'r_to_g_config'
p6
aS'tl'
p7
aa(lp8
S'num_turns'
p9
aI1
aa(lp10
S'start_direction'
p11
acutils_ms
StartDirection
p12
(I1
tp13
Rp14
aa(lp15
S'assistance_type'
p16
acutils_ms
AssistanceType
p17
(I1
tp18
Rp19
aa(lp20
S'start_mode'
p21
aS't'
p22
aa(lp23
S'ui_given_a_noise'
p24
aF0.5
aa(lp25
S'um_given_ui_noise'
p26
aF0.7
aa(lp27
S'entropy_threshold'
p28
aF0.6
aatp29
Rp30
aa(lp31
S'data'
p32
accollections
defaultdict
p33
(c__builtin__
list
p34
tp35
Rp36
S'a'
p37
(lp38
S'mode_l'
p39
ag39
aS'mode_r'
p40
ag40
ag40
aS'move_p'
p41
ag39
ag40
ag40
ag40
ag40
ag41
ag40
ag40
ag41
ag40
ag41
ag40
ag40
aS'move_n'
p42
asS'assistance_match_with_ground_truth'
p43
(lp44
I00
aI00
aI00
aI00
aI01
aI00
aI00
aI00
aI00
aI00
aI01
aI01
aI00
aI01
aI00
aI01
aI01
aI00
aI01
aI01
asS'is_u_intended_equals_um'
p45
(lp46
I00
aI00
aI01
aI01
aI00
aI00
aI00
aI01
aI01
aI01
aI00
aI01
aI01
aI00
aI00
aI00
aI01
aI01
aI00
aI01
asS'total_steps'
p47
I20
sS'normalized_h_of_p_ui_given_um'
p48
(lp49
cnumpy.core.multiarray
scalar
p50
(cnumpy
dtype
p51
(S'f8'
p52
I0
I1
tp53
Rp54
(I3
S'<'
p55
NNNI-1
I-1
I0
tp56
bS'\x17\xc2\xf8\xba\x046\xed?'
p57
tp58
Rp59
ag50
(g54
S'F\xe7\xf8\xad9\x8f\xe9?'
p60
tp61
Rp62
ag50
(g54
S'\x18\x016\xfa\xe5\xcf\xe9?'
p63
tp64
Rp65
ag50
(g54
S'D\x1d\x06%\r_\xe9?'
p66
tp67
Rp68
ag50
(g54
S'\xe8\xf7\x89\xb7Q\xa1\xe2?'
p69
tp70
Rp71
ag50
(g54
S'\xc6G\xd7l\xda\xfe\xe6?'
p72
tp73
Rp74
ag50
(g54
S'F\xe7\xf8\xad9\x8f\xe9?'
p75
tp76
Rp77
ag50
(g54
S'D\x1d\x06%\r_\xe9?'
p78
tp79
Rp80
ag50
(g54
S'D\x1d\x06%\r_\xe9?'
p81
tp82
Rp83
ag50
(g54
S'D\x1d\x06%\r_\xe9?'
p84
tp85
Rp86
ag50
(g54
S'\xe8\xf7\x89\xb7Q\xa1\xe2?'
p87
tp88
Rp89
ag50
(g54
S'+\xfc\xa6\xfd\x97y\xe4?'
p90
tp91
Rp92
ag50
(g54
S'D\x1d\x06%\r_\xe9?'
p93
tp94
Rp95
ag50
(g54
S'\xe8\xf7\x89\xb7Q\xa1\xe2?'
p96
tp97
Rp98
ag50
(g54
S'`\xdd\xb6\x82\xee3\xef?'
p99
tp100
Rp101
ag50
(g54
S'\xe8\xf7\x89\xb7Q\xa1\xe2?'
p102
tp103
Rp104
ag50
(g54
S'+\xfc\xa6\xfd\x97y\xe4?'
p105
tp106
Rp107
ag50
(g54
S'D\x1d\x06%\r_\xe9?'
p108
tp109
Rp110
ag50
(g54
S'\xe8\xf7\x89\xb7Q\xa1\xe2?'
p111
tp112
Rp113
ag50
(g54
S'\x9ap$\x94\xd0\xe4\xe2?'
p114
tp115
Rp116
asS'sp'
p117
(lp118
(S'p0'
p119
I0
S't'
p120
tp121
a(g119
I0
S'x'
p122
tp123
a(g119
I0
g122
tp124
a(g119
I0
g122
tp125
a(g119
I0
S'y'
p126
tp127
a(g119
I0
g120
tp128
ag123
ag125
ag125
ag125
ag127
a(S'p1'
p129
I0
g126
tp130
a(g129
I0
g126
tp131
a(g129
I0
g120
tp132
a(g129
I0
g126
tp133
ag132
a(g129
F1.5707963267948966
g120
tp134
a(g129
F1.5707963267948966
g120
tp135
a(g129
F1.5707963267948966
g122
tp136
a(S'p2'
p137
F1.5707963267948966
g122
tp138
asS's'
p139
(lp140
(g119
I0
g22
tp141
ag121
ag123
ag124
ag125
ag127
ag128
ag123
ag125
ag125
ag125
ag127
ag130
ag131
ag132
ag133
ag132
ag134
ag135
ag136
asS'ui'
p142
(lp143
S'hs'
p144
aS'hp'
p145
aS'ss'
p146
ag145
ag117
ag144
ag145
ag146
ag145
ag145
ag145
ag117
ag145
ag145
ag117
ag144
ag145
ag117
ag117
ag146
asS'um_before'
p147
(lp148
g117
ag145
ag146
ag117
ag144
ag145
ag145
ag117
ag117
ag117
ag144
ag117
ag117
ag144
ag144
ag144
ag117
ag117
ag144
ag146
asS'um_after'
p149
(lp150
g117
ag145
ag146
ag117
ag145
ag145
ag145
ag117
ag117
ag117
ag145
ag117
ag117
ag145
ag144
ag145
ag117
ag117
ag145
ag146
asS'is_normalized_entropy_less_than_threshold'
p151
(lp152
g50
(g51
(S'b1'
p153
I0
I1
tp154
Rp155
(I3
S'|'
p156
NNNI-1
I-1
I0
tp157
bS'\x00'
p158
tp159
Rp160
ag160
ag160
ag160
ag50
(g155
S'\x01'
p161
tp162
Rp163
ag160
ag160
ag160
ag160
ag160
ag163
ag160
ag160
ag163
ag160
ag163
ag160
ag160
ag163
ag163
asaa(lp164
S'index'
p165
aI36567
aatp166
Rp167
.