ccollections
OrderedDict
p0
((lp1
(lp2
S'combination_dict'
p3
ag0
((lp4
(lp5
S'r_to_g_config'
p6
aS'tr'
p7
aa(lp8
S'num_turns'
p9
aI3
aa(lp10
S'start_direction'
p11
acutils_ms
StartDirection
p12
(I1
tp13
Rp14
aa(lp15
S'assistance_type'
p16
acutils_ms
AssistanceType
p17
(I0
tp18
Rp19
aa(lp20
S'start_mode'
p21
aS't'
p22
aa(lp23
S'ui_given_a_noise'
p24
aF0.5
aa(lp25
S'um_given_ui_noise'
p26
aF0.7
aa(lp27
S'entropy_threshold'
p28
aF0.6
aatp29
Rp30
aa(lp31
S'data'
p32
accollections
defaultdict
p33
(c__builtin__
list
p34
tp35
Rp36
S'a'
p37
(lp38
S'mode_l'
p39
aS'mode_r'
p40
aS'move_p'
p41
ag40
ag41
ag40
ag41
ag39
ag41
ag39
ag40
ag40
ag40
ag40
ag41
ag40
ag40
ag39
ag40
ag39
ag39
ag40
ag41
ag40
ag40
ag40
ag39
ag41
ag39
ag39
ag40
ag39
ag40
ag39
ag39
ag41
ag41
ag39
ag41
ag39
ag40
ag40
ag40
ag41
ag40
ag40
ag40
ag40
ag40
ag41
ag41
ag39
ag41
ag40
ag41
ag40
ag40
ag39
ag41
ag40
ag41
ag40
ag40
ag40
ag40
ag41
ag39
ag40
ag40
ag40
ag40
ag41
ag40
ag41
ag39
ag39
ag41
ag40
ag41
ag40
ag40
ag41
ag39
ag40
ag40
ag40
ag40
ag41
asS'assistance_match_with_ground_truth'
p42
(lp43
I00
aI01
aI01
aI01
aI00
aI01
aI00
aI01
aI00
aI00
aI00
aI00
aI00
aI01
aI01
aI00
aI00
aI00
aI00
aI00
aI00
aI01
aI01
aI00
aI00
aI00
aI01
aI00
aI00
aI00
aI00
aI00
aI00
aI00
aI01
aI00
aI00
aI01
aI00
aI00
aI00
aI00
aI01
aI01
aI00
aI00
aI00
aI00
aI01
aI00
aI00
aI01
aI01
aI00
aI01
aI00
aI00
aI01
aI01
aI01
aI00
aI00
aI00
aI00
aI01
aI01
aI00
aI00
aI00
aI00
aI01
aI00
aI01
aI01
aI00
aI01
aI00
aI01
aI00
aI00
aI01
aI01
aI00
aI00
aI00
aI00
aI01
aI01
asS'is_u_intended_equals_um'
p44
(lp45
I00
aI01
aI01
aI01
aI00
aI01
aI00
aI01
aI00
aI00
aI00
aI00
aI00
aI01
aI01
aI00
aI01
aI00
aI01
aI00
aI00
aI01
aI01
aI00
aI00
aI01
aI01
aI00
aI00
aI00
aI01
aI00
aI01
aI00
aI01
aI00
aI00
aI01
aI00
aI00
aI00
aI00
aI01
aI01
aI00
aI00
aI00
aI00
aI01
aI00
aI00
aI01
aI01
aI00
aI01
aI00
aI01
aI01
aI01
aI01
aI00
aI00
aI00
aI00
aI01
aI01
aI00
aI00
aI00
aI00
aI01
aI00
aI01
aI01
aI00
aI01
aI00
aI01
aI00
aI00
aI01
aI01
aI00
aI00
aI00
aI00
aI01
aI01
asS'total_steps'
p46
I88
sS'normalized_h_of_p_ui_given_um'
p47
(lp48
cnumpy.core.multiarray
scalar
p49
(cnumpy
dtype
p50
(S'f8'
p51
I0
I1
tp52
Rp53
(I3
S'<'
p54
NNNI-1
I-1
I0
tp55
bS'j\xa4\xa1F\x82Y\xe8?'
p56
tp57
Rp58
ag49
(g53
S'\x12\xa2>\xedFB\xe2?'
p59
tp60
Rp61
ag49
(g53
S'\xc6\xb7\xe5\xf7\r\xae\xe4?'
p62
tp63
Rp64
ag49
(g53
S'\x12\xa2>\xedFB\xe2?'
p65
tp66
Rp67
ag49
(g53
S'\xf7?\xda\x12\xce\xa4\xe5?'
p68
tp69
Rp70
ag49
(g53
S'\x12\xa2>\xedFB\xe2?'
p71
tp72
Rp73
ag49
(g53
S'\xc7$x\xfa\xb2\xbf\xe7?'
p74
tp75
Rp76
ag49
(g53
S'\xea!\xfce\xa0p\xcd?'
p77
tp78
Rp79
ag49
(g53
S'\xc7$x\xfa\xb2\xbf\xe7?'
p80
tp81
Rp82
ag49
(g53
S'\x81\xd1\xb3\x91\x0f\xf0\xe3?'
p83
tp84
Rp85
ag49
(g53
S'\xf2s\xad\xc4:\xfa\xe7?'
p86
tp87
Rp88
ag49
(g53
S'\x145\xd7\xb7\xc3\x14\xed?'
p89
tp90
Rp91
ag49
(g53
S'\x145\xd7\xb7\xc3\x14\xed?'
p92
tp93
Rp94
ag49
(g53
S'\x12\xa2>\xedFB\xe2?'
p95
tp96
Rp97
ag49
(g53
S'\xc6\xb7\xe5\xf7\r\xae\xe4?'
p98
tp99
Rp100
ag49
(g53
S'\xf2s\xad\xc4:\xfa\xe7?'
p101
tp102
Rp103
ag49
(g53
S'h\xa3\xc3\xf9\xdd\x98\xec?'
p104
tp105
Rp106
ag49
(g53
S'\x81\xd1\xb3\x91\x0f\xf0\xe3?'
p107
tp108
Rp109
ag49
(g53
S'h\xa3\xc3\xf9\xdd\x98\xec?'
p110
tp111
Rp112
ag49
(g53
S'\x81\xd1\xb3\x91\x0f\xf0\xe3?'
p113
tp114
Rp115
ag49
(g53
S'j\xa4\xa1F\x82Y\xe8?'
p116
tp117
Rp118
ag49
(g53
S'\x12\xa2>\xedFB\xe2?'
p119
tp120
Rp121
ag49
(g53
S'\xc6\xb7\xe5\xf7\r\xae\xe4?'
p122
tp123
Rp124
ag49
(g53
S'\x145\xd7\xb7\xc3\x14\xed?'
p125
tp126
Rp127
ag49
(g53
S'\x145\xd7\xb7\xc3\x14\xed?'
p128
tp129
Rp130
ag49
(g53
S'h\xa3\xc3\xf9\xdd\x98\xec?'
p131
tp132
Rp133
ag49
(g53
S'\xea!\xfce\xa0p\xcd?'
p134
tp135
Rp136
ag49
(g53
S'\xc7$x\xfa\xb2\xbf\xe7?'
p137
tp138
Rp139
ag49
(g53
S'By\xc0\xde\xef\xc6\xe0?'
p140
tp141
Rp142
ag49
(g53
S'\x81\xd1\xb3\x91\x0f\xf0\xe3?'
p143
tp144
Rp145
ag49
(g53
S'h\xa3\xc3\xf9\xdd\x98\xec?'
p146
tp147
Rp148
ag49
(g53
S'j\xa4\xa1F\x82Y\xe8?'
p149
tp150
Rp151
ag49
(g53
S'h\xa3\xc3\xf9\xdd\x98\xec?'
p152
tp153
Rp154
ag49
(g53
S'By\xc0\xde\xef\xc6\xe0?'
p155
tp156
Rp157
ag49
(g53
S'\xea!\xfce\xa0p\xcd?'
p158
tp159
Rp160
ag49
(g53
S'\x9a\xe6KEz\xaa\xec?'
p161
tp162
Rp163
ag49
(g53
S'\xc7$x\xfa\xb2\xbf\xe7?'
p164
tp165
Rp166
ag49
(g53
S'\xea!\xfce\xa0p\xcd?'
p167
tp168
Rp169
ag49
(g53
S'\xc7$x\xfa\xb2\xbf\xe7?'
p170
tp171
Rp172
ag49
(g53
S'j\xa4\xa1F\x82Y\xe8?'
p173
tp174
Rp175
ag49
(g53
S'\x145\xd7\xb7\xc3\x14\xed?'
p176
tp177
Rp178
ag49
(g53
S'\x145\xd7\xb7\xc3\x14\xed?'
p179
tp180
Rp181
ag49
(g53
S'\x12\xa2>\xedFB\xe2?'
p182
tp183
Rp184
ag49
(g53
S'\xc6\xb7\xe5\xf7\r\xae\xe4?'
p185
tp186
Rp187
ag49
(g53
S'\xf2s\xad\xc4:\xfa\xe7?'
p188
tp189
Rp190
ag49
(g53
S'\xf2s\xad\xc4:\xfa\xe7?'
p191
tp192
Rp193
ag49
(g53
S'\x145\xd7\xb7\xc3\x14\xed?'
p194
tp195
Rp196
ag49
(g53
S'\x145\xd7\xb7\xc3\x14\xed?'
p197
tp198
Rp199
ag49
(g53
S'\x12\xa2>\xedFB\xe2?'
p200
tp201
Rp202
ag49
(g53
S'\x9a\xe6KEz\xaa\xec?'
p203
tp204
Rp205
ag49
(g53
S'\xc7$x\xfa\xb2\xbf\xe7?'
p206
tp207
Rp208
ag49
(g53
S'\xea!\xfce\xa0p\xcd?'
p209
tp210
Rp211
ag49
(g53
S'\xc6\xb7\xe5\xf7\r\xae\xe4?'
p212
tp213
Rp214
ag49
(g53
S'\x145\xd7\xb7\xc3\x14\xed?'
p215
tp216
Rp217
ag49
(g53
S'\xc6\xb7\xe5\xf7\r\xae\xe4?'
p218
tp219
Rp220
ag49
(g53
S'\xf2s\xad\xc4:\xfa\xe7?'
p221
tp222
Rp223
ag49
(g53
S'h\xa3\xc3\xf9\xdd\x98\xec?'
p224
tp225
Rp226
ag49
(g53
S'\xea!\xfce\xa0p\xcd?'
p227
tp228
Rp229
ag49
(g53
S'\xc6\xb7\xe5\xf7\r\xae\xe4?'
p230
tp231
Rp232
ag49
(g53
S'\x12\xa2>\xedFB\xe2?'
p233
tp234
Rp235
ag49
(g53
S'\xf7?\xda\x12\xce\xa4\xe5?'
p236
tp237
Rp238
ag49
(g53
S'\xf2s\xad\xc4:\xfa\xe7?'
p239
tp240
Rp241
ag49
(g53
S'\xf2s\xad\xc4:\xfa\xe7?'
p242
tp243
Rp244
ag49
(g53
S'\x145\xd7\xb7\xc3\x14\xed?'
p245
tp246
Rp247
ag49
(g53
S'\x12\xa2>\xedFB\xe2?'
p248
tp249
Rp250
ag49
(g53
S'\xc6\xb7\xe5\xf7\r\xae\xe4?'
p251
tp252
Rp253
ag49
(g53
S'j\xa4\xa1F\x82Y\xe8?'
p254
tp255
Rp256
ag49
(g53
S'\x145\xd7\xb7\xc3\x14\xed?'
p257
tp258
Rp259
ag49
(g53
S'\xf2s\xad\xc4:\xfa\xe7?'
p260
tp261
Rp262
ag49
(g53
S'\x145\xd7\xb7\xc3\x14\xed?'
p263
tp264
Rp265
ag49
(g53
S'\x12\xa2>\xedFB\xe2?'
p266
tp267
Rp268
ag49
(g53
S'\x9a\xe6KEz\xaa\xec?'
p269
tp270
Rp271
ag49
(g53
S'\x12\xa2>\xedFB\xe2?'
p272
tp273
Rp274
ag49
(g53
S'\xc6\xb7\xe5\xf7\r\xae\xe4?'
p275
tp276
Rp277
ag49
(g53
S'By\xc0\xde\xef\xc6\xe0?'
p278
tp279
Rp280
ag49
(g53
S'\xea!\xfce\xa0p\xcd?'
p281
tp282
Rp283
ag49
(g53
S'\x9a\xe6KEz\xaa\xec?'
p284
tp285
Rp286
ag49
(g53
S'\x12\xa2>\xedFB\xe2?'
p287
tp288
Rp289
ag49
(g53
S'\xf7?\xda\x12\xce\xa4\xe5?'
p290
tp291
Rp292
ag49
(g53
S'\x145\xd7\xb7\xc3\x14\xed?'
p293
tp294
Rp295
ag49
(g53
S'\x12\xa2>\xedFB\xe2?'
p296
tp297
Rp298
ag49
(g53
S'\xc6\xb7\xe5\xf7\r\xae\xe4?'
p299
tp300
Rp301
ag49
(g53
S'j\xa4\xa1F\x82Y\xe8?'
p302
tp303
Rp304
ag49
(g53
S'\xf2s\xad\xc4:\xfa\xe7?'
p305
tp306
Rp307
ag49
(g53
S'\xf2s\xad\xc4:\xfa\xe7?'
p308
tp309
Rp310
ag49
(g53
S'\xf2s\xad\xc4:\xfa\xe7?'
p311
tp312
Rp313
ag49
(g53
S'\x12\xa2>\xedFB\xe2?'
p314
tp315
Rp316
ag49
(g53
S'\xc6\xb7\xe5\xf7\r\xae\xe4?'
p317
tp318
Rp319
asS'sp'
p320
(lp321
(S'p0'
p322
I0
S'x'
p323
tp324
a(g322
I0
S'y'
p325
tp326
a(S'p1'
p327
I0
g325
tp328
a(g327
I0
S't'
p329
tp330
a(g327
I0
g325
tp331
ag330
a(g327
I0
g323
tp332
a(g327
I0
g329
tp333
ag332
a(g322
I0
g323
tp334
a(g322
I0
g323
tp335
a(g322
I0
g323
tp336
ag336
ag326
ag328
a(g327
I0
g325
tp337
a(g327
I0
g323
tp338
ag334
a(g322
I0
g329
tp339
a(g322
I0
g329
tp340
ag324
ag326
ag328
a(g327
I0
g325
tp341
ag341
ag338
ag333
ag332
ag332
ag334
ag339
ag324
ag339
ag339
a(g322
I0
g325
tp342
a(g322
I0
g325
tp343
a(g322
I0
g329
tp344
ag342
ag344
ag324
ag336
ag336
ag326
ag328
ag337
ag337
ag341
ag341
ag330
a(g327
I0
g329
tp345
ag332
ag333
a(g327
F1.5707963267948966
g329
tp346
a(g327
I0
g329
tp347
ag346
a(g327
F1.5707963267948966
g329
tp348
a(g327
F1.5707963267948966
g325
tp349
a(g327
F1.5707963267948966
g323
tp350
a(S'p2'
p351
F1.5707963267948966
g323
tp352
a(g351
F1.5707963267948966
g325
tp353
a(g351
F1.5707963267948966
g323
tp354
a(g351
F1.5707963267948966
g323
tp355
ag355
a(g351
F1.5707963267948966
g323
tp356
ag353
a(S'p3'
p357
F1.5707963267948966
g325
tp358
a(g357
F1.5707963267948966
g329
tp359
a(g357
F1.5707963267948966
g329
tp360
a(g357
F1.5707963267948966
g329
tp361
ag360
a(g357
F1.5707963267948966
g323
tp362
a(g351
F1.5707963267948966
g323
tp363
ag353
ag358
ag358
a(g357
F1.5707963267948966
g323
tp364
ag363
ag353
ag354
ag356
ag353
ag358
ag359
ag361
ag361
ag361
ag362
a(S'p4'
p365
F1.5707963267948966
g323
tp366
asS's'
p367
(lp368
(g322
I0
g22
tp369
ag324
ag326
ag328
ag330
ag331
ag330
ag332
ag333
ag332
ag334
ag335
ag336
ag336
ag326
ag328
ag337
ag338
ag334
ag339
ag340
ag324
ag326
ag328
ag341
ag341
ag338
ag333
ag332
ag332
ag334
ag339
ag324
ag339
ag339
ag342
ag343
ag344
ag342
ag344
ag324
ag336
ag336
ag326
ag328
ag337
ag337
ag341
ag341
ag330
ag345
ag332
ag333
ag346
ag347
ag346
ag348
ag349
ag350
ag352
ag353
ag354
ag355
ag355
ag356
ag353
ag358
ag359
ag360
ag361
ag360
ag362
ag363
ag353
ag358
ag358
ag364
ag363
ag353
ag354
ag356
ag353
ag358
ag359
ag361
ag361
ag361
ag362
asS'ui'
p370
(lp371
S'hs'
p372
ag320
aS'hp'
p373
ag373
ag372
ag373
ag372
ag372
ag320
ag372
ag373
ag373
ag320
ag373
ag320
ag373
ag320
ag372
ag320
ag373
aS'ss'
p374
ag373
ag320
ag373
ag374
ag373
ag320
ag373
ag372
ag374
ag372
ag373
ag372
ag372
ag372
ag320
ag320
ag320
ag373
ag372
ag373
ag374
ag373
ag320
ag320
ag320
ag373
ag373
ag373
ag320
ag320
ag372
ag320
ag374
ag320
ag320
ag373
ag372
ag320
ag373
ag372
ag320
ag373
ag373
ag373
ag320
ag373
ag372
ag373
ag372
ag373
ag320
ag374
ag372
ag372
ag372
ag320
ag373
ag320
ag374
ag373
ag320
ag373
ag373
ag373
ag373
ag373
ag320
asS'um_before'
p375
(lp376
g373
ag373
ag320
ag373
ag372
ag373
ag373
ag372
ag373
ag374
ag320
ag374
ag374
ag373
ag320
ag320
ag372
ag374
ag372
ag374
ag373
ag373
ag320
ag374
ag374
ag372
ag372
ag373
ag320
ag374
ag372
ag373
ag372
ag320
ag372
ag374
ag373
ag372
ag373
ag373
ag374
ag374
ag373
ag320
ag320
ag320
ag374
ag374
ag373
ag374
ag373
ag372
ag320
ag374
ag320
ag320
ag372
ag372
ag320
ag373
ag372
ag320
ag320
ag374
ag373
ag320
ag373
ag374
ag320
ag374
ag373
ag374
ag373
ag320
ag320
ag372
ag374
ag373
ag372
ag374
ag373
ag320
ag373
ag320
ag320
ag320
ag373
ag320
asS'um_after'
p377
(lp378
g373
ag373
ag320
ag373
ag372
ag373
ag373
ag372
ag373
ag374
ag320
ag374
ag374
ag373
ag320
ag320
ag372
ag374
ag372
ag374
ag373
ag373
ag320
ag374
ag374
ag372
ag372
ag373
aNag374
ag372
ag373
ag372
aNag372
ag374
ag373
ag372
ag373
ag373
ag374
ag374
ag373
ag320
ag320
ag320
ag374
ag374
ag373
ag374
ag373
ag372
ag320
ag374
ag320
ag320
ag372
ag372
ag320
ag373
ag372
ag320
ag320
ag374
ag373
ag320
ag373
ag374
ag320
ag374
ag373
ag374
ag373
ag320
aNag372
ag374
ag373
ag372
ag374
ag373
ag320
ag373
ag320
ag320
ag320
ag373
ag320
asS'is_normalized_entropy_less_than_threshold'
p379
(lp380
g49
(g50
(S'b1'
p381
I0
I1
tp382
Rp383
(I3
S'|'
p384
NNNI-1
I-1
I0
tp385
bS'\x00'
p386
tp387
Rp388
ag49
(g383
S'\x01'
p389
tp390
Rp391
ag388
ag391
ag388
ag391
ag388
ag391
ag388
ag388
ag388
ag388
ag388
ag391
ag388
ag388
ag388
ag388
ag388
ag388
ag388
ag391
ag388
ag388
ag388
ag388
ag391
ag388
ag391
ag388
ag388
ag388
ag388
ag391
ag391
ag388
ag388
ag391
ag388
ag388
ag388
ag388
ag391
ag388
ag388
ag388
ag388
ag388
ag391
ag388
ag388
ag391
ag388
ag388
ag388
ag388
ag388
ag391
ag388
ag391
ag388
ag388
ag388
ag388
ag391
ag388
ag388
ag388
ag388
ag388
ag391
ag388
ag391
ag388
ag391
ag391
ag388
ag391
ag388
ag388
ag391
ag388
ag388
ag388
ag388
ag388
ag391
ag388
asaa(lp392
S'index'
p393
aI25368
aatp394
Rp395
.