ccollections
OrderedDict
p0
((lp1
(lp2
S'combination_dict'
p3
ag0
((lp4
(lp5
S'r_to_g_config'
p6
aS'tl'
p7
aa(lp8
S'num_turns'
p9
aI3
aa(lp10
S'start_direction'
p11
acutils_ms
StartDirection
p12
(I0
tp13
Rp14
aa(lp15
S'assistance_type'
p16
acutils_ms
AssistanceType
p17
(I2
tp18
Rp19
aa(lp20
S'start_mode'
p21
aS't'
p22
aa(lp23
S'ui_given_a_noise'
p24
aF0.7
aa(lp25
S'um_given_ui_noise'
p26
aF0.5
aa(lp27
S'entropy_threshold'
p28
aF0.8
aatp29
Rp30
aa(lp31
S'data'
p32
accollections
defaultdict
p33
(c__builtin__
list
p34
tp35
Rp36
S'a'
p37
(lp38
S'mode_r'
p39
ag39
ag39
aS'move_n'
p40
ag40
ag39
ag39
ag40
ag39
ag40
ag39
ag39
ag40
ag40
aS'mode_l'
p41
aS'move_p'
p42
ag41
ag42
ag41
ag40
ag39
ag39
ag42
ag39
ag41
ag42
ag41
ag42
ag41
ag42
ag42
ag39
ag41
ag40
ag41
ag40
ag41
ag42
ag41
ag42
ag39
ag41
ag41
ag42
ag41
ag42
ag39
ag42
ag42
ag41
ag41
ag42
ag41
ag40
ag40
ag39
ag39
ag39
ag42
ag39
ag39
ag42
ag39
ag41
ag41
ag41
ag42
ag41
ag41
ag40
ag39
ag42
ag41
ag41
ag41
ag41
ag41
ag40
ag39
ag41
ag42
ag41
ag42
ag41
ag41
ag42
ag41
ag41
ag40
ag39
ag39
ag42
ag41
ag40
ag39
ag42
asS'assistance_match_with_ground_truth'
p43
(lp44
I00
aI00
aI01
aI00
aI00
aI00
aI01
aI00
aI01
aI00
aI00
aI01
aI00
aI01
aI01
aI01
aI01
aI00
aI01
aI01
aI00
aI01
aI00
aI00
aI00
aI01
aI01
aI00
aI00
aI00
aI00
aI00
aI01
aI00
aI01
aI01
aI01
aI00
aI01
aI00
aI00
aI00
aI01
aI01
aI00
aI00
aI01
aI00
aI01
aI00
aI01
aI00
aI01
aI00
aI01
aI00
aI00
aI01
aI00
aI00
aI01
aI00
aI00
aI00
aI00
aI01
aI00
aI00
aI01
aI01
aI01
aI01
aI00
aI00
aI00
aI00
aI01
aI01
aI00
aI01
aI00
aI01
aI00
aI00
aI01
aI00
aI00
aI01
aI01
aI00
aI01
aI00
aI01
aI01
aI01
aI01
asS'is_u_intended_equals_um'
p45
(lp46
I00
aI00
aI00
aI00
aI00
aI00
aI00
aI00
aI00
aI00
aI00
aI00
aI00
aI00
aI00
aI00
aI00
aI00
aI00
aI00
aI00
aI00
aI00
aI00
aI00
aI00
aI00
aI00
aI00
aI00
aI00
aI00
aI00
aI00
aI00
aI00
aI00
aI00
aI00
aI00
aI00
aI00
aI00
aI00
aI00
aI00
aI00
aI00
aI00
aI00
aI00
aI00
aI00
aI00
aI00
aI00
aI00
aI00
aI00
aI00
aI00
aI00
aI00
aI00
aI00
aI00
aI00
aI00
aI00
aI00
aI00
aI00
aI00
aI00
aI00
aI00
aI00
aI00
aI00
aI00
aI00
aI00
aI00
aI00
aI00
aI00
aI00
aI00
aI00
aI00
aI00
aI00
aI00
aI00
aI00
aI00
asS'total_steps'
p47
I96
sS'normalized_h_of_p_ui_given_um'
p48
(lp49
cnumpy.core.multiarray
scalar
p50
(cnumpy
dtype
p51
(S'f8'
p52
I0
I1
tp53
Rp54
(I3
S'<'
p55
NNNI-1
I-1
I0
tp56
bS'a\xa3\x8e\xb0\xda\xdb\xe9?'
p57
tp58
Rp59
ag59
ag59
ag59
ag59
ag59
ag59
ag59
ag59
ag59
ag59
ag59
ag59
ag59
ag59
ag59
ag59
ag59
ag59
ag59
ag59
ag59
ag59
ag59
ag59
ag59
ag59
ag59
ag59
ag59
ag59
ag59
ag59
ag59
ag59
ag59
ag59
ag59
ag59
ag59
ag59
ag59
ag59
ag59
ag59
ag59
ag59
ag59
ag59
ag59
ag59
ag59
ag59
ag59
ag59
ag59
ag59
ag59
ag59
ag59
ag59
ag59
ag59
ag59
ag59
ag59
ag59
ag59
ag59
ag59
ag59
ag59
ag59
ag59
ag59
ag59
ag59
ag59
ag59
ag59
ag59
ag59
ag59
ag59
ag59
ag59
ag59
ag59
ag59
ag59
ag59
ag59
ag59
ag59
ag59
ag59
asS'sp'
p60
(lp61
(S'p0'
p62
I0
S't'
p63
tp64
a(g62
I0
g63
tp65
a(g62
I0
S'x'
p66
tp67
a(g62
I0
g66
tp68
a(g62
I0
g63
tp69
ag64
ag67
ag69
ag67
ag69
ag65
ag67
ag68
a(S'p1'
p70
I0
g66
tp71
a(g70
I0
g63
tp72
a(g70
F1.5707963267948966
g63
tp73
a(g70
F1.5707963267948966
S'y'
p74
tp75
a(g62
F1.5707963267948966
g74
tp76
a(g62
F1.5707963267948966
g66
tp77
a(g70
F1.5707963267948966
g66
tp78
a(g70
F1.5707963267948966
g66
tp79
a(g70
F1.5707963267948966
g74
tp80
a(g70
F1.5707963267948966
g66
tp81
a(g70
F1.5707963267948966
g63
tp82
a(g70
I0
g63
tp83
ag73
ag75
a(g70
F1.5707963267948966
g63
tp84
ag83
a(g70
I0
g63
tp85
a(g70
I0
g74
tp86
a(g62
I0
g74
tp87
a(g62
I0
g66
tp88
a(g62
I0
g74
tp89
ag88
ag71
ag72
a(g70
I0
g66
tp90
ag72
ag86
a(g70
I0
g66
tp91
a(g70
I0
g66
tp92
ag72
ag73
ag83
ag86
a(g70
I0
g63
tp93
ag85
ag73
a(g70
F1.5707963267948966
g63
tp94
ag75
ag76
ag77
a(g62
F1.5707963267948966
g66
tp95
ag78
ag79
ag79
ag80
ag81
ag79
ag80
ag81
ag82
ag94
ag94
ag75
ag76
a(g62
F1.5707963267948966
g74
tp96
ag77
ag78
ag80
a(S'p2'
p97
F1.5707963267948966
g74
tp98
a(g97
F1.5707963267948966
g74
tp99
a(g97
F1.5707963267948966
g74
tp100
ag99
ag99
a(g97
F1.5707963267948966
g66
tp101
a(S'p3'
p102
F1.5707963267948966
g66
tp103
a(g102
F1.5707963267948966
g63
tp104
a(g102
F1.5707963267948966
g74
tp105
a(g102
F1.5707963267948966
g63
tp106
ag105
ag106
a(g102
F1.5707963267948966
g63
tp107
ag105
a(g97
F1.5707963267948966
g74
tp108
ag99
ag101
ag103
a(g102
F1.5707963267948966
g66
tp109
a(g102
F1.5707963267948966
g74
tp110
ag108
ag101
ag103
ag110
a(S'p4'
p111
F1.5707963267948966
g74
tp112
asS's'
p113
(lp114
(g62
I0
g22
tp115
ag64
ag65
ag67
ag68
ag69
ag64
ag67
ag69
ag67
ag69
ag65
ag67
ag68
ag71
ag72
ag73
ag75
ag76
ag77
ag78
ag79
ag80
ag81
ag82
ag83
ag73
ag75
ag84
ag83
ag85
ag86
ag87
ag88
ag89
ag88
ag71
ag72
ag90
ag72
ag86
ag91
ag92
ag72
ag73
ag83
ag86
ag93
ag85
ag73
ag94
ag75
ag76
ag77
ag95
ag78
ag79
ag79
ag80
ag81
ag79
ag80
ag81
ag82
ag94
ag94
ag75
ag76
ag96
ag77
ag78
ag80
ag98
ag99
ag100
ag99
ag99
ag101
ag103
ag104
ag105
ag106
ag105
ag106
ag107
ag105
ag108
ag99
ag101
ag103
ag109
ag110
ag108
ag101
ag103
ag110
asS'ui'
p116
(lp117
S'hp'
p118
aS'hs'
p119
aS'ss'
p120
ag120
ag120
ag120
ag118
ag120
ag118
ag119
ag120
ag119
ag120
ag120
ag119
ag60
ag119
ag60
ag119
ag120
ag60
ag60
ag119
ag120
ag119
ag60
ag119
ag60
ag119
ag120
ag60
ag120
ag119
ag120
ag119
ag120
ag119
ag120
ag119
ag119
ag60
ag60
ag119
ag60
ag119
ag119
ag118
ag120
ag60
ag60
ag119
ag120
ag119
ag60
ag120
ag118
ag60
ag118
ag60
ag60
ag118
ag119
ag118
ag119
ag60
ag119
ag60
ag60
ag119
ag120
ag118
ag60
ag60
ag60
ag119
ag60
ag119
ag120
ag118
ag119
ag60
ag119
ag60
ag60
ag60
ag120
ag60
ag119
ag120
ag118
ag118
ag60
ag119
ag120
ag118
ag60
asS'um_before'
p121
(lp122
g120
ag60
ag118
ag60
ag119
ag120
ag118
ag119
ag118
ag119
ag60
ag118
ag60
ag120
ag119
ag60
ag119
ag120
ag119
ag120
ag60
ag118
ag119
ag119
ag120
ag60
ag119
ag118
ag120
ag120
ag119
ag120
ag119
ag118
ag119
ag120
ag119
ag118
ag119
ag119
ag119
ag60
ag119
ag60
ag120
ag119
ag118
ag120
ag60
ag60
ag119
ag120
ag119
ag60
ag120
ag60
ag60
ag118
ag119
ag60
ag118
ag119
ag119
ag60
ag60
ag119
ag120
ag60
ag119
ag120
ag118
ag60
ag60
ag120
ag60
ag60
ag119
ag120
ag119
ag119
ag118
ag119
ag118
ag60
ag119
ag120
ag60
ag119
ag120
ag120
ag118
ag120
ag119
ag120
ag118
ag60
asS'um_after'
p123
(lp124
g120
ag60
ag118
ag60
ag119
ag120
ag118
ag119
ag118
ag119
ag60
ag118
ag60
ag120
ag119
ag60
ag119
ag120
ag119
ag120
ag60
ag118
ag119
ag119
ag120
ag60
ag119
ag118
ag120
ag120
ag119
ag120
ag119
ag118
ag119
ag120
ag119
ag118
ag119
ag119
ag119
ag60
ag119
ag60
ag120
ag119
ag118
ag120
ag60
ag60
ag119
ag120
ag119
ag60
ag120
ag60
ag60
ag118
ag119
ag60
ag118
ag119
ag119
ag60
ag60
ag119
ag120
ag60
ag119
ag120
ag118
ag60
ag60
ag120
ag60
ag60
ag119
ag120
ag119
ag119
ag118
ag119
ag118
ag60
ag119
ag120
ag60
ag119
ag120
ag120
ag118
ag120
ag119
ag120
ag118
ag60
asS'is_normalized_entropy_less_than_threshold'
p125
(lp126
g50
(g51
(S'b1'
p127
I0
I1
tp128
Rp129
(I3
S'|'
p130
NNNI-1
I-1
I0
tp131
bS'\x01'
p132
tp133
Rp134
ag134
ag134
ag134
ag134
ag134
ag134
ag134
ag134
ag134
ag134
ag134
ag134
ag134
ag134
ag134
ag134
ag134
ag134
ag134
ag134
ag134
ag134
ag134
ag134
ag134
ag134
ag134
ag134
ag134
ag134
ag134
ag134
ag134
ag134
ag134
ag134
ag134
ag134
ag134
ag134
ag134
ag134
ag134
ag134
ag134
ag134
ag134
ag134
ag134
ag134
ag134
ag134
ag134
ag134
ag134
ag134
ag134
ag134
ag134
ag134
ag134
ag134
ag134
ag134
ag134
ag134
ag134
ag134
ag134
ag134
ag134
ag134
ag134
ag134
ag134
ag134
ag134
ag134
ag134
ag134
ag134
ag134
ag134
ag134
ag134
ag134
ag134
ag134
ag134
ag134
ag134
ag134
ag134
ag134
ag134
asaa(lp135
S'index'
p136
aI51935
aatp137
Rp138
.