ccollections
OrderedDict
p0
((lp1
(lp2
S'combination_dict'
p3
ag0
((lp4
(lp5
S'r_to_g_config'
p6
aS'br'
p7
aa(lp8
S'num_turns'
p9
aI2
aa(lp10
S'start_direction'
p11
acutils_ms
StartDirection
p12
(I1
tp13
Rp14
aa(lp15
S'assistance_type'
p16
acutils_ms
AssistanceType
p17
(I0
tp18
Rp19
aa(lp20
S'start_mode'
p21
aS'x'
p22
aa(lp23
S'ui_given_a_noise'
p24
aF0.5
aa(lp25
S'um_given_ui_noise'
p26
aF0.7
aa(lp27
S'entropy_threshold'
p28
aF0.9
aatp29
Rp30
aa(lp31
S'data'
p32
accollections
defaultdict
p33
(c__builtin__
list
p34
tp35
Rp36
S'a'
p37
(lp38
S'mode_r'
p39
aS'move_n'
p40
ag40
ag39
ag39
ag39
ag40
aS'mode_l'
p41
ag41
aS'move_p'
p42
ag41
ag41
ag41
ag41
ag41
ag42
ag42
ag41
ag41
ag42
ag41
ag39
ag39
ag40
asS'assistance_match_with_ground_truth'
p43
(lp44
I01
aI00
aI00
aI00
aI00
aI01
aI01
aI00
aI01
aI00
aI00
aI00
aI00
aI00
aI01
aI00
aI01
aI00
aI01
aI01
aI00
aI00
aI01
aI01
asS'is_u_intended_equals_um'
p45
(lp46
I01
aI00
aI01
aI00
aI00
aI01
aI01
aI01
aI01
aI01
aI00
aI01
aI01
aI01
aI01
aI00
aI01
aI00
aI01
aI01
aI01
aI00
aI01
aI01
asS'total_steps'
p47
I24
sS'normalized_h_of_p_ui_given_um'
p48
(lp49
cnumpy.core.multiarray
scalar
p50
(cnumpy
dtype
p51
(S'f8'
p52
I0
I1
tp53
Rp54
(I3
S'<'
p55
NNNI-1
I-1
I0
tp56
bS',1\xeai\xd5\x14\xd4?'
p57
tp58
Rp59
ag50
(g54
S'H\xd0\xbf\xa0EW\xe0?'
p60
tp61
Rp62
ag50
(g54
S'\xe2\xf8iF\x91w\xe7?'
p63
tp64
Rp65
ag50
(g54
S'qK\xf5\x13\xf1\xe7\xea?'
p66
tp67
Rp68
ag50
(g54
S'qK\xf5\x13\xf1\xe7\xea?'
p69
tp70
Rp71
ag50
(g54
S',1\xeai\xd5\x14\xd4?'
p72
tp73
Rp74
ag50
(g54
S'\xc4\x9aJ\xe1\x13\x0f\xd6?'
p75
tp76
Rp77
ag50
(g54
S'Q\xb8\x9f\x05\xda\x8f\xe9?'
p78
tp79
Rp80
ag50
(g54
S'\x1btV\xec\xaev\xe0?'
p81
tp82
Rp83
ag50
(g54
S'\x880\x92+\x83\xc1\xe5?'
p84
tp85
Rp86
ag50
(g54
S'\xdaY )\xedo\xeb?'
p87
tp88
Rp89
ag50
(g54
S'Q\xb8\x9f\x05\xda\x8f\xe9?'
p90
tp91
Rp92
ag50
(g54
S'Q\xb8\x9f\x05\xda\x8f\xe9?'
p93
tp94
Rp95
ag50
(g54
S'Q\xb8\x9f\x05\xda\x8f\xe9?'
p96
tp97
Rp98
ag50
(g54
S'\x1btV\xec\xaev\xe0?'
p99
tp100
Rp101
ag50
(g54
S'\x84\xe9]\xc4\x99\x90\xe8?'
p102
tp103
Rp104
ag50
(g54
S'\xc4c\xf5\xbd\xbbv\xe6?'
p105
tp106
Rp107
ag50
(g54
S'\xdaY )\xedo\xeb?'
p108
tp109
Rp110
ag50
(g54
S'\x1btV\xec\xaev\xe0?'
p111
tp112
Rp113
ag50
(g54
S'\xc4c\xf5\xbd\xbbv\xe6?'
p114
tp115
Rp116
ag50
(g54
S'\xc4\x12\x1e\x90\x98F\xe9?'
p117
tp118
Rp119
ag50
(g54
S'qK\xf5\x13\xf1\xe7\xea?'
p120
tp121
Rp122
ag50
(g54
S',1\xeai\xd5\x14\xd4?'
p123
tp124
Rp125
ag50
(g54
S'\xc4\x9aJ\xe1\x13\x0f\xd6?'
p126
tp127
Rp128
asS'sp'
p129
(lp130
(S'p0'
p131
I0
S'y'
p132
tp133
ag133
a(g131
I0
S'x'
p134
tp135
ag135
ag135
ag133
a(S'p1'
p136
I0
g132
tp137
a(g136
I0
g132
tp138
a(g136
I0
g134
tp139
a(g136
I0
g132
tp140
ag140
ag138
ag138
ag138
ag139
ag139
a(S'p2'
p141
I0
g134
tp142
ag142
a(g141
I0
S't'
p143
tp144
a(g141
F1.5707963267948966
g143
tp145
a(g141
F1.5707963267948966
g134
tp146
ag146
a(g141
F1.5707963267948966
g132
tp147
a(S'p3'
p148
F1.5707963267948966
g132
tp149
asS's'
p150
(lp151
(g131
I0
g22
tp152
ag133
ag133
ag135
ag135
ag135
ag133
ag137
ag138
ag139
ag140
ag140
ag138
ag138
ag138
ag139
ag139
ag142
ag142
ag144
ag145
ag146
ag146
ag147
asS'ui'
p153
(lp154
S'hp'
p155
aS'ss'
p156
aS'hs'
p157
ag155
ag155
ag155
ag156
ag129
ag157
ag155
ag157
ag155
ag129
ag156
ag157
ag156
ag129
ag157
ag157
ag157
ag155
ag155
ag155
ag156
asS'um_before'
p158
(lp159
g155
ag155
ag157
ag129
ag129
ag155
ag156
ag156
ag157
ag155
ag129
ag156
ag156
ag156
ag157
ag156
ag129
ag129
ag157
ag129
ag155
ag129
ag155
ag156
asS'um_after'
p160
(lp161
g155
aNag157
aNaNag155
ag156
ag156
ag157
ag155
aNag156
ag156
ag156
ag157
aNag129
aNag157
ag129
ag155
aNag155
ag156
asS'is_normalized_entropy_less_than_threshold'
p162
(lp163
g50
(g51
(S'b1'
p164
I0
I1
tp165
Rp166
(I3
S'|'
p167
NNNI-1
I-1
I0
tp168
bS'\x01'
p169
tp170
Rp171
ag171
ag171
ag171
ag171
ag171
ag171
ag171
ag171
ag171
ag171
ag171
ag171
ag171
ag171
ag171
ag171
ag171
ag171
ag171
ag171
ag171
ag171
ag171
asaa(lp172
S'index'
p173
aI101396
aatp174
Rp175
.