ccollections
OrderedDict
p0
((lp1
(lp2
S'combination_dict'
p3
ag0
((lp4
(lp5
S'r_to_g_config'
p6
aS'br'
p7
aa(lp8
S'num_turns'
p9
aI1
aa(lp10
S'start_direction'
p11
acutils_ms
StartDirection
p12
(I1
tp13
Rp14
aa(lp15
S'assistance_type'
p16
acutils_ms
AssistanceType
p17
(I0
tp18
Rp19
aa(lp20
S'start_mode'
p21
aS't'
p22
aa(lp23
S'ui_given_a_noise'
p24
aF0.5
aa(lp25
S'um_given_ui_noise'
p26
aF0.7
aa(lp27
S'entropy_threshold'
p28
aF0.6
aatp29
Rp30
aa(lp31
S'data'
p32
accollections
defaultdict
p33
(c__builtin__
list
p34
tp35
Rp36
S'a'
p37
(lp38
S'mode_l'
p39
aS'mode_r'
p40
ag40
ag40
ag39
ag40
ag39
ag39
ag40
ag39
ag39
aS'move_n'
p41
ag40
ag39
ag40
ag41
ag40
ag41
ag40
ag40
aS'move_p'
p42
ag42
ag40
ag40
ag42
ag40
ag40
ag40
ag39
ag42
asS'assistance_match_with_ground_truth'
p43
(lp44
I00
aI00
aI00
aI00
aI00
aI00
aI00
aI00
aI00
aI00
aI01
aI00
aI00
aI00
aI01
aI00
aI01
aI01
aI00
aI01
aI00
aI00
aI00
aI01
aI01
aI00
aI00
aI00
aI01
aI01
asS'is_u_intended_equals_um'
p45
(lp46
I01
aI00
aI00
aI01
aI01
aI01
aI00
aI01
aI01
aI00
aI01
aI01
aI01
aI01
aI01
aI01
aI01
aI01
aI00
aI01
aI01
aI01
aI00
aI01
aI01
aI00
aI00
aI01
aI01
aI01
asS'total_steps'
p47
I30
sS'normalized_h_of_p_ui_given_um'
p48
(lp49
cnumpy.core.multiarray
scalar
p50
(cnumpy
dtype
p51
(S'f8'
p52
I0
I1
tp53
Rp54
(I3
S'<'
p55
NNNI-1
I-1
I0
tp56
bS'\xa2\x97@\xac2*\xed?'
p57
tp58
Rp59
ag50
(g54
S'\x8dn\x05\xc0\x19\xa5\xeb?'
p60
tp61
Rp62
ag50
(g54
S'X\xdd\xeeq\xae\xf1\xea?'
p63
tp64
Rp65
ag50
(g54
S'\xbc\x9b \xe4\xbd\xd9\xe7?'
p66
tp67
Rp68
ag50
(g54
S'\xa2\x97@\xac2*\xed?'
p69
tp70
Rp71
ag50
(g54
S'\xbc\x9b \xe4\xbd\xd9\xe7?'
p72
tp73
Rp74
ag50
(g54
S'@\xa4\xf4\x90l\xd6\xeb?'
p75
tp76
Rp77
ag50
(g54
S'\xa2\x97@\xac2*\xed?'
p78
tp79
Rp80
ag50
(g54
S'\xbc\x9b \xe4\xbd\xd9\xe7?'
p81
tp82
Rp83
ag50
(g54
S'@\xa4\xf4\x90l\xd6\xeb?'
p84
tp85
Rp86
ag50
(g54
S'\xe7$\x12 #p\xe1?'
p87
tp88
Rp89
ag50
(g54
S'>\xb8O\x00\xb9\xa5\xeb?'
p90
tp91
Rp92
ag50
(g54
S'\xbc\x9b \xe4\xbd\xd9\xe7?'
p93
tp94
Rp95
ag50
(g54
S'\xa2\x97@\xac2*\xed?'
p96
tp97
Rp98
ag50
(g54
S'\x9dVL\xad\xb3\x13\xe7?'
p99
tp100
Rp101
ag50
(g54
S'>\xb8O\x00\xb9\xa5\xeb?'
p102
tp103
Rp104
ag50
(g54
S'\x9dVL\xad\xb3\x13\xe7?'
p105
tp106
Rp107
ag50
(g54
S'\x95\xe3d;\xf4\x9c\xe2?'
p108
tp109
Rp110
ag50
(g54
S'X\xdd\xeeq\xae\xf1\xea?'
p111
tp112
Rp113
ag50
(g54
S'\x9dVL\xad\xb3\x13\xe7?'
p114
tp115
Rp116
ag50
(g54
S'\xd6\xd3\x8f\x97\x9b\x9a\xed?'
p117
tp118
Rp119
ag50
(g54
S'\x83\x7f!#\x02\xef\xe9?'
p120
tp121
Rp122
ag50
(g54
S'\x8dn\x05\xc0\x19\xa5\xeb?'
p123
tp124
Rp125
ag50
(g54
S'\x9dVL\xad\xb3\x13\xe7?'
p126
tp127
Rp128
ag50
(g54
S'\xf0\x94\x03\xbce\xec\xe5?'
p129
tp130
Rp131
ag50
(g54
S'X\xdd\xeeq\xae\xf1\xea?'
p132
tp133
Rp134
ag50
(g54
S'X\xdd\xeeq\xae\xf1\xea?'
p135
tp136
Rp137
ag50
(g54
S'\xbc\x9b \xe4\xbd\xd9\xe7?'
p138
tp139
Rp140
ag50
(g54
S'\xe7$\x12 #p\xe1?'
p141
tp142
Rp143
ag50
(g54
S'\xf0\x94\x03\xbce\xec\xe5?'
p144
tp145
Rp146
asS'sp'
p147
(lp148
(S'p0'
p149
I0
S'x'
p150
tp151
a(g149
I0
g150
tp152
a(g149
I0
g150
tp153
a(g149
I0
S't'
p154
tp155
ag151
ag155
a(g149
I0
g154
tp156
ag151
ag155
ag156
a(g149
I0
S'y'
p157
tp158
a(g149
I0
g150
tp159
ag155
ag151
a(g149
I0
g157
tp160
ag159
ag160
a(S'p1'
p161
I0
g157
tp162
a(g161
I0
g157
tp163
a(g161
I0
g154
tp164
a(g161
I0
g154
tp165
a(g161
I0
g157
tp166
a(g161
I0
g157
tp167
ag164
a(g161
F1.5707963267948966
g154
tp168
a(g161
F1.5707963267948966
g154
tp169
ag169
a(g161
F1.5707963267948966
g157
tp170
a(g161
F1.5707963267948966
g150
tp171
a(S'p2'
p172
F1.5707963267948966
g150
tp173
asS's'
p174
(lp175
(g149
I0
g22
tp176
ag151
ag152
ag153
ag155
ag151
ag155
ag156
ag151
ag155
ag156
ag158
ag159
ag155
ag151
ag160
ag159
ag160
ag162
ag163
ag164
ag165
ag166
ag167
ag164
ag168
ag169
ag169
ag170
ag171
asS'ui'
p177
(lp178
S'hs'
p179
ag147
aS'hp'
p180
ag180
ag180
ag180
ag147
ag180
ag180
ag147
ag179
aS'ss'
p181
ag179
ag180
ag180
ag180
ag147
ag181
ag147
ag181
ag180
ag179
ag181
ag180
ag147
ag179
ag180
ag179
ag179
ag147
asS'um_before'
p182
(lp183
g180
ag181
ag147
ag179
ag180
ag179
ag147
ag180
ag179
ag147
ag179
ag179
ag179
ag180
ag180
ag179
ag180
ag181
ag147
ag180
ag181
ag179
ag181
ag180
ag147
ag147
ag147
ag179
ag179
ag147
asS'um_after'
p184
(lp185
g180
ag181
ag147
ag179
ag180
ag179
ag147
ag180
ag179
ag147
ag179
ag179
ag179
ag180
ag180
ag179
ag180
ag181
ag147
ag180
ag181
ag179
ag181
ag180
ag147
ag147
ag147
ag179
ag179
ag147
asS'is_normalized_entropy_less_than_threshold'
p186
(lp187
g50
(g51
(S'b1'
p188
I0
I1
tp189
Rp190
(I3
S'|'
p191
NNNI-1
I-1
I0
tp192
bS'\x00'
p193
tp194
Rp195
ag195
ag195
ag195
ag195
ag195
ag195
ag195
ag195
ag195
ag50
(g190
S'\x01'
p196
tp197
Rp198
ag195
ag195
ag195
ag195
ag195
ag195
ag198
ag195
ag195
ag195
ag195
ag195
ag195
ag195
ag195
ag195
ag195
ag198
ag195
asaa(lp199
S'index'
p200
aI92560
aatp201
Rp202
.