ccollections
OrderedDict
p0
((lp1
(lp2
S'combination_dict'
p3
ag0
((lp4
(lp5
S'r_to_g_config'
p6
aS'br'
p7
aa(lp8
S'num_turns'
p9
aI3
aa(lp10
S'start_direction'
p11
acutils_ms
StartDirection
p12
(I0
tp13
Rp14
aa(lp15
S'assistance_type'
p16
acutils_ms
AssistanceType
p17
(I0
tp18
Rp19
aa(lp20
S'start_mode'
p21
aS'y'
p22
aa(lp23
S'ui_given_a_noise'
p24
aF0.7
aa(lp25
S'um_given_ui_noise'
p26
aF0.3
aa(lp27
S'entropy_threshold'
p28
aF0.6
aatp29
Rp30
aa(lp31
S'data'
p32
accollections
defaultdict
p33
(c__builtin__
list
p34
tp35
Rp36
S'a'
p37
(lp38
S'mode_l'
p39
aS'move_p'
p40
ag39
aS'mode_r'
p41
ag39
ag39
ag40
ag39
ag39
ag39
ag40
ag39
aS'move_n'
p42
ag39
ag40
ag40
ag40
ag39
ag41
ag40
ag39
ag39
ag40
ag39
ag39
ag41
ag41
ag42
ag41
ag41
ag41
ag42
ag41
ag41
ag42
ag41
ag42
ag39
ag39
ag40
ag39
ag40
ag39
ag40
ag40
ag39
ag40
ag39
ag39
ag39
ag39
ag39
ag40
ag39
ag41
ag39
ag42
ag39
ag40
ag40
ag40
ag41
ag42
ag39
ag39
ag40
ag40
ag40
ag41
ag42
ag39
ag40
ag41
ag39
ag42
ag41
ag42
ag41
ag41
ag42
asS'assistance_match_with_ground_truth'
p43
(lp44
I01
aI01
aI00
aI00
aI00
aI01
aI00
aI00
aI00
aI01
aI01
aI01
aI00
aI00
aI00
aI00
aI00
aI00
aI01
aI00
aI00
aI01
aI01
aI00
aI00
aI00
aI01
aI00
aI00
aI00
aI01
aI00
aI00
aI01
aI00
aI01
aI00
aI00
aI00
aI00
aI01
aI00
aI01
aI00
aI01
aI00
aI00
aI00
aI00
aI00
aI00
aI01
aI01
aI00
aI00
aI01
aI00
aI01
aI00
aI00
aI01
aI01
aI00
aI00
aI01
aI00
aI00
aI01
aI01
aI01
aI01
aI01
aI00
aI01
aI00
aI01
aI00
aI00
aI01
aI01
asS'is_u_intended_equals_um'
p45
(lp46
I01
aI01
aI00
aI00
aI01
aI01
aI00
aI01
aI01
aI01
aI01
aI01
aI01
aI01
aI00
aI00
aI01
aI00
aI01
aI01
aI01
aI01
aI01
aI01
aI00
aI01
aI01
aI01
aI01
aI00
aI01
aI01
aI01
aI01
aI01
aI01
aI01
aI01
aI01
aI01
aI01
aI01
aI01
aI00
aI01
aI01
aI01
aI01
aI01
aI01
aI01
aI01
aI01
aI00
aI01
aI01
aI01
aI01
aI00
aI00
aI01
aI01
aI01
aI01
aI01
aI00
aI00
aI01
aI01
aI01
aI01
aI01
aI01
aI01
aI01
aI01
aI01
aI01
aI01
aI01
asS'total_steps'
p47
I80
sS'normalized_h_of_p_ui_given_um'
p48
(lp49
cnumpy.core.multiarray
scalar
p50
(cnumpy
dtype
p51
(S'f8'
p52
I0
I1
tp53
Rp54
(I3
S'<'
p55
NNNI-1
I-1
I0
tp56
bS'\x88y\xf4\x97\x13\xe7\xd2?'
p57
tp58
Rp59
ag50
(g54
S'\x84`d\xdb\xf6d\xd2?'
p60
tp61
Rp62
ag50
(g54
S'$%"\\F\xb2\xec?'
p63
tp64
Rp65
ag50
(g54
S'\\\xd5%\xdf*\xa4\xe3?'
p66
tp67
Rp68
ag50
(g54
S'R\xc8\xff\xc8\x83\xda\xe4?'
p69
tp70
Rp71
ag50
(g54
S'\x88y\xf4\x97\x13\xe7\xd2?'
p72
tp73
Rp74
ag50
(g54
S'\x98\xd2\x99\xc1\x1d2\xea?'
p75
tp76
Rp77
ag50
(g54
S'R\xc8\xff\xc8\x83\xda\xe4?'
p78
tp79
Rp80
ag50
(g54
S'R\xc8\xff\xc8\x83\xda\xe4?'
p81
tp82
Rp83
ag50
(g54
S'\x88y\xf4\x97\x13\xe7\xd2?'
p84
tp85
Rp86
ag50
(g54
S'\x84`d\xdb\xf6d\xd2?'
p87
tp88
Rp89
ag50
(g54
S'\x88y\xf4\x97\x13\xe7\xd2?'
p90
tp91
Rp92
ag50
(g54
S'D\x1e.l\xear\xe6?'
p93
tp94
Rp95
ag50
(g54
S'R\xc8\xff\xc8\x83\xda\xe4?'
p96
tp97
Rp98
ag50
(g54
S'\xc0]o\xaa\xc6\xe7\xd7?'
p99
tp100
Rp101
ag50
(g54
S'\x98\xd2\x99\xc1\x1d2\xea?'
p102
tp103
Rp104
ag50
(g54
S'\xe1\xca\xd9\xe8w\xcd\xdb?'
p105
tp106
Rp107
ag50
(g54
S'$%"\\F\xb2\xec?'
p108
tp109
Rp110
ag50
(g54
S'N\x1f\x03\xf7IR\xc7?'
p111
tp112
Rp113
ag50
(g54
S'\xe1\xca\xd9\xe8w\xcd\xdb?'
p114
tp115
Rp116
ag50
(g54
S'\x91\xa3\xf4\xf4m7\xe7?'
p117
tp118
Rp119
ag50
(g54
S'\x88y\xf4\x97\x13\xe7\xd2?'
p120
tp121
Rp122
ag50
(g54
S'\x84`d\xdb\xf6d\xd2?'
p123
tp124
Rp125
ag50
(g54
S'\x91\xa3\xf4\xf4m7\xe7?'
p126
tp127
Rp128
ag50
(g54
S'$%"\\F\xb2\xec?'
p129
tp130
Rp131
ag50
(g54
S'3i\x96\x82O\xcb\xe3?'
p132
tp133
Rp134
ag50
(g54
S'N\x1f\x03\xf7IR\xc7?'
p135
tp136
Rp137
ag50
(g54
S'\xecd\xd6Pdl\xe2?'
p138
tp139
Rp140
ag50
(g54
S'3i\x96\x82O\xcb\xe3?'
p141
tp142
Rp143
ag50
(g54
S'\\\xd5%\xdf*\xa4\xe3?'
p144
tp145
Rp146
ag50
(g54
S'N\x1f\x03\xf7IR\xc7?'
p147
tp148
Rp149
ag50
(g54
S'\xecd\xd6Pdl\xe2?'
p150
tp151
Rp152
ag50
(g54
S'3i\x96\x82O\xcb\xe3?'
p153
tp154
Rp155
ag50
(g54
S'N\x1f\x03\xf7IR\xc7?'
p156
tp157
Rp158
ag50
(g54
S'\xecd\xd6Pdl\xe2?'
p159
tp160
Rp161
ag50
(g54
S'N\x1f\x03\xf7IR\xc7?'
p162
tp163
Rp164
ag50
(g54
S'D\x1e.l\xear\xe6?'
p165
tp166
Rp167
ag50
(g54
S'\x91\xa3\xf4\xf4m7\xe7?'
p168
tp169
Rp170
ag50
(g54
S'R\xc8\xff\xc8\x83\xda\xe4?'
p171
tp172
Rp173
ag50
(g54
S'\xe1\xca\xd9\xe8w\xcd\xdb?'
p174
tp175
Rp176
ag50
(g54
S'\x88y\xf4\x97\x13\xe7\xd2?'
p177
tp178
Rp179
ag50
(g54
S'\xe1\xca\xd9\xe8w\xcd\xdb?'
p180
tp181
Rp182
ag50
(g54
S'\x88y\xf4\x97\x13\xe7\xd2?'
p183
tp184
Rp185
ag50
(g54
S'\xc0]o\xaa\xc6\xe7\xd7?'
p186
tp187
Rp188
ag50
(g54
S'\x84`d\xdb\xf6d\xd2?'
p189
tp190
Rp191
ag50
(g54
S'R\xc8\xff\xc8\x83\xda\xe4?'
p192
tp193
Rp194
ag50
(g54
S'\xe1\xca\xd9\xe8w\xcd\xdb?'
p195
tp196
Rp197
ag50
(g54
S'R\xc8\xff\xc8\x83\xda\xe4?'
p198
tp199
Rp200
ag50
(g54
S'R\xc8\xff\xc8\x83\xda\xe4?'
p201
tp202
Rp203
ag50
(g54
S'\x91\xa3\xf4\xf4m7\xe7?'
p204
tp205
Rp206
ag50
(g54
S'\x91\xa3\xf4\xf4m7\xe7?'
p207
tp208
Rp209
ag50
(g54
S'\x88y\xf4\x97\x13\xe7\xd2?'
p210
tp211
Rp212
ag50
(g54
S'\x84`d\xdb\xf6d\xd2?'
p213
tp214
Rp215
ag50
(g54
S'$%"\\F\xb2\xec?'
p216
tp217
Rp218
ag50
(g54
S'7\xa5\x1f\xb4Yp\xe5?'
p219
tp220
Rp221
ag50
(g54
S'\x88y\xf4\x97\x13\xe7\xd2?'
p222
tp223
Rp224
ag50
(g54
S'\x9a\x80\xba\xc4\xde\xc6\xec?'
p225
tp226
Rp227
ag50
(g54
S'\x88y\xf4\x97\x13\xe7\xd2?'
p228
tp229
Rp230
ag50
(g54
S'\x98\xd2\x99\xc1\x1d2\xea?'
p231
tp232
Rp233
ag50
(g54
S'\x98\xd2\x99\xc1\x1d2\xea?'
p234
tp235
Rp236
ag50
(g54
S'\x84`d\xdb\xf6d\xd2?'
p237
tp238
Rp239
ag50
(g54
S'N\x1f\x03\xf7IR\xc7?'
p240
tp241
Rp242
ag50
(g54
S'\x9a\x80\xba\xc4\xde\xc6\xec?'
p243
tp244
Rp245
ag50
(g54
S'\x91\xa3\xf4\xf4m7\xe7?'
p246
tp247
Rp248
ag50
(g54
S'\x88y\xf4\x97\x13\xe7\xd2?'
p249
tp250
Rp251
ag50
(g54
S'\x98\xd2\x99\xc1\x1d2\xea?'
p252
tp253
Rp254
ag50
(g54
S'\xc0]o\xaa\xc6\xe7\xd7?'
p255
tp256
Rp257
ag50
(g54
S'\x84`d\xdb\xf6d\xd2?'
p258
tp259
Rp260
ag50
(g54
S'N\x1f\x03\xf7IR\xc7?'
p261
tp262
Rp263
ag50
(g54
S"\xd3\xe0\xda'\xa9#\xde?"
p264
tp265
Rp266
ag50
(g54
S'\x88y\xf4\x97\x13\xe7\xd2?'
p267
tp268
Rp269
ag50
(g54
S'\x84`d\xdb\xf6d\xd2?'
p270
tp271
Rp272
ag50
(g54
S'7\xa5\x1f\xb4Yp\xe5?'
p273
tp274
Rp275
ag50
(g54
S'\x88y\xf4\x97\x13\xe7\xd2?'
p276
tp277
Rp278
ag50
(g54
S'\xecd\xd6Pdl\xe2?'
p279
tp280
Rp281
ag50
(g54
S'N\x1f\x03\xf7IR\xc7?'
p282
tp283
Rp284
ag50
(g54
S'\xecd\xd6Pdl\xe2?'
p285
tp286
Rp287
ag50
(g54
S'3i\x96\x82O\xcb\xe3?'
p288
tp289
Rp290
ag50
(g54
S'N\x1f\x03\xf7IR\xc7?'
p291
tp292
Rp293
ag50
(g54
S"\xd3\xe0\xda'\xa9#\xde?"
p294
tp295
Rp296
asS'sp'
p297
(lp298
(S'p0'
p299
I0
S'x'
p300
tp301
a(S'p1'
p302
I0
g300
tp303
a(g302
I0
S'y'
p304
tp305
a(S'p2'
p306
I0
g304
tp307
a(g306
I0
g304
tp308
a(g306
I0
g300
tp309
a(g302
I0
g300
tp310
a(g302
I0
g300
tp311
ag311
a(g302
I0
S't'
p312
tp313
a(g302
F1.5707963267948966
g312
tp314
a(g302
F1.5707963267948966
g304
tp315
a(g302
F1.5707963267948966
g312
tp316
a(g302
I0
g312
tp317
ag317
a(g302
I0
g312
tp318
a(g302
I0
g300
tp319
ag305
a(g302
I0
g312
tp320
ag319
a(g302
I0
g300
tp321
ag313
ag314
a(g302
F1.5707963267948966
g312
tp322
a(g302
F1.5707963267948966
g300
tp323
a(g302
F1.5707963267948966
g300
tp324
a(g302
F1.5707963267948966
g304
tp325
a(g302
F1.5707963267948966
g300
tp326
ag324
a(g302
F1.5707963267948966
g300
tp327
ag325
ag326
ag324
ag325
ag326
ag325
ag316
ag322
ag317
ag319
ag313
ag319
ag313
ag313
ag314
ag317
ag319
ag311
ag311
ag321
ag321
ag313
ag314
ag323
a(g302
F1.5707963267948966
g312
tp328
ag315
a(g299
F1.5707963267948966
g304
tp329
a(g299
F1.5707963267948966
g300
tp330
a(g299
F1.5707963267948966
g300
tp331
ag331
a(g302
F1.5707963267948966
g300
tp332
ag325
ag329
a(g299
F1.5707963267948966
g304
tp333
ag330
ag331
ag331
ag332
ag325
a(g306
F1.5707963267948966
g304
tp334
a(g306
F1.5707963267948966
g300
tp335
a(S'p3'
p336
F1.5707963267948966
g300
tp337
a(g336
F1.5707963267948966
g312
tp338
a(g336
F1.5707963267948966
g304
tp339
a(g336
F1.5707963267948966
g300
tp340
a(g336
F1.5707963267948966
g304
tp341
ag340
a(g336
F1.5707963267948966
g300
tp342
ag341
a(S'p4'
p343
F1.5707963267948966
g304
tp344
asS's'
p345
(lp346
(g299
I0
g22
tp347
ag301
ag303
ag305
ag307
ag308
ag309
ag310
ag311
ag311
ag313
ag314
ag315
ag316
ag317
ag317
ag318
ag319
ag305
ag320
ag319
ag321
ag313
ag314
ag322
ag323
ag324
ag325
ag326
ag324
ag327
ag325
ag326
ag324
ag325
ag326
ag325
ag316
ag322
ag317
ag319
ag313
ag319
ag313
ag313
ag314
ag317
ag319
ag311
ag311
ag321
ag321
ag313
ag314
ag323
ag328
ag315
ag329
ag330
ag331
ag331
ag332
ag325
ag329
ag333
ag330
ag331
ag331
ag332
ag325
ag334
ag335
ag337
ag338
ag339
ag340
ag341
ag340
ag342
ag341
asS'ui'
p348
(lp349
S'hs'
p350
ag297
ag350
aS'hp'
p351
ag297
ag350
ag351
aS'ss'
p352
ag352
ag350
ag297
ag350
ag351
ag350
ag297
ag297
ag351
ag352
ag351
ag297
ag297
ag297
ag297
ag297
ag350
ag351
ag351
ag350
ag351
ag350
ag351
ag350
ag351
ag351
ag297
ag351
ag351
ag352
ag352
ag297
ag350
ag351
ag350
ag351
ag351
ag352
ag351
ag352
ag352
ag297
ag352
ag350
ag297
ag350
ag350
ag350
ag352
ag350
ag352
ag297
ag297
ag297
ag297
ag350
ag350
ag352
ag297
ag351
ag351
ag352
ag350
ag297
ag297
ag350
ag350
ag351
ag352
ag351
ag351
ag352
asS'um_before'
p353
(lp354
g350
ag297
ag351
ag352
ag352
ag350
ag352
ag352
ag352
ag350
ag297
ag350
ag351
ag352
ag350
ag352
ag351
ag351
ag351
ag351
ag297
ag350
ag297
ag297
ag351
ag297
ag351
ag350
ag297
ag352
ag351
ag350
ag297
ag351
ag350
ag351
ag351
ag297
ag352
ag351
ag350
ag351
ag350
ag350
ag297
ag352
ag351
ag352
ag352
ag297
ag297
ag350
ag297
ag351
ag350
ag350
ag297
ag350
ag352
ag352
ag297
ag351
ag297
ag297
ag350
ag352
ag350
ag297
ag351
ag352
ag350
ag297
ag350
ag350
ag350
ag351
ag350
ag297
ag351
ag352
asS'um_after'
p355
(lp356
g350
ag297
ag351
ag352
ag352
ag350
ag352
ag352
ag352
ag350
ag297
ag350
ag351
ag352
aNag352
ag351
ag351
ag351
ag351
ag297
ag350
ag297
ag297
ag351
ag297
ag351
ag350
ag297
ag352
ag351
ag350
ag297
ag351
ag350
ag351
ag351
ag297
ag352
ag351
ag350
ag351
ag350
aNag297
ag352
ag351
ag352
ag352
ag297
ag297
ag350
ag297
ag351
ag350
ag350
ag297
ag350
ag352
ag352
ag297
ag351
ag297
ag297
ag350
ag352
aNag297
ag351
ag352
ag350
ag297
ag350
ag350
ag350
ag351
ag350
ag297
ag351
ag352
asS'is_normalized_entropy_less_than_threshold'
p357
(lp358
g50
(g51
(S'b1'
p359
I0
I1
tp360
Rp361
(I3
S'|'
p362
NNNI-1
I-1
I0
tp363
bS'\x01'
p364
tp365
Rp366
ag366
ag50
(g361
S'\x00'
p367
tp368
Rp369
ag369
ag369
ag366
ag369
ag369
ag369
ag366
ag366
ag366
ag369
ag369
ag366
ag369
ag366
ag369
ag366
ag366
ag369
ag366
ag366
ag369
ag369
ag369
ag366
ag366
ag369
ag369
ag366
ag366
ag369
ag366
ag366
ag366
ag369
ag369
ag369
ag366
ag366
ag366
ag366
ag366
ag366
ag369
ag366
ag369
ag369
ag369
ag369
ag366
ag366
ag369
ag369
ag366
ag369
ag366
ag369
ag369
ag366
ag366
ag369
ag369
ag366
ag369
ag366
ag366
ag366
ag366
ag366
ag366
ag369
ag366
ag366
ag366
ag366
ag369
ag366
ag366
asaa(lp370
S'index'
p371
aI107065
aatp372
Rp373
.