ccollections
OrderedDict
p0
((lp1
(lp2
S'combination_dict'
p3
ag0
((lp4
(lp5
S'r_to_g_config'
p6
aS'tr'
p7
aa(lp8
S'num_turns'
p9
aI3
aa(lp10
S'start_direction'
p11
acutils_ms
StartDirection
p12
(I0
tp13
Rp14
aa(lp15
S'assistance_type'
p16
acutils_ms
AssistanceType
p17
(I2
tp18
Rp19
aa(lp20
S'start_mode'
p21
aS't'
p22
aa(lp23
S'ui_given_a_noise'
p24
aF0.7
aa(lp25
S'um_given_ui_noise'
p26
aF0.3
aa(lp27
S'entropy_threshold'
p28
aF0.5
aatp29
Rp30
aa(lp31
S'data'
p32
accollections
defaultdict
p33
(c__builtin__
list
p34
tp35
Rp36
S'a'
p37
(lp38
S'mode_r'
p39
ag39
aS'mode_l'
p40
aS'move_p'
p41
ag41
ag40
ag40
ag39
ag41
ag40
ag41
ag40
ag41
ag40
ag41
ag40
ag39
ag39
ag41
ag40
ag41
ag39
ag41
ag40
ag41
ag40
ag39
ag39
ag41
ag39
ag41
ag40
ag41
ag39
ag39
ag39
ag41
ag40
ag40
ag40
ag40
ag40
ag40
ag41
ag39
ag41
ag39
ag39
ag41
ag40
ag41
ag39
ag39
ag41
ag40
ag41
ag40
ag41
ag40
ag39
ag39
ag41
ag39
ag41
ag39
ag39
ag39
ag41
ag40
ag40
ag41
ag40
ag41
ag39
ag39
ag40
ag41
ag39
ag39
ag39
ag39
ag40
ag40
ag39
ag39
ag41
ag40
ag39
ag39
ag41
ag40
ag41
ag39
ag39
ag39
ag41
ag40
ag40
ag40
ag41
ag39
ag40
ag41
asS'assistance_match_with_ground_truth'
p42
(lp43
I00
aI00
aI01
aI00
aI01
aI00
aI00
aI01
aI00
aI01
aI01
aI01
aI00
aI01
aI00
aI00
aI00
aI01
aI00
aI00
aI00
aI01
aI01
aI01
aI00
aI00
aI00
aI01
aI01
aI01
aI01
aI01
aI00
aI00
aI00
aI01
aI01
aI00
aI00
aI00
aI00
aI00
aI01
aI00
aI01
aI00
aI00
aI01
aI00
aI01
aI00
aI00
aI01
aI00
aI00
aI01
aI01
aI00
aI00
aI00
aI01
aI00
aI01
aI00
aI00
aI00
aI01
aI00
aI00
aI01
aI00
aI01
aI00
aI00
aI00
aI01
aI01
aI00
aI00
aI00
aI00
aI00
aI00
aI00
aI01
aI00
aI00
aI00
aI01
aI01
aI01
aI01
aI00
aI00
aI01
aI00
aI00
aI00
aI01
aI01
aI00
aI01
aI01
asS'is_u_intended_equals_um'
p44
(lp45
I00
aI00
aI00
aI00
aI00
aI00
aI00
aI00
aI00
aI00
aI00
aI00
aI00
aI00
aI00
aI00
aI00
aI00
aI00
aI00
aI00
aI00
aI00
aI00
aI00
aI00
aI00
aI00
aI00
aI00
aI00
aI00
aI00
aI00
aI00
aI00
aI00
aI00
aI00
aI00
aI00
aI00
aI00
aI00
aI00
aI00
aI00
aI00
aI00
aI00
aI00
aI00
aI00
aI00
aI00
aI00
aI00
aI00
aI00
aI00
aI00
aI00
aI00
aI00
aI00
aI00
aI00
aI00
aI00
aI00
aI00
aI00
aI00
aI00
aI00
aI00
aI00
aI00
aI00
aI00
aI00
aI00
aI00
aI00
aI00
aI00
aI00
aI00
aI00
aI00
aI00
aI00
aI00
aI00
aI00
aI00
aI00
aI00
aI00
aI00
aI00
aI00
aI00
asS'total_steps'
p46
I103
sS'normalized_h_of_p_ui_given_um'
p47
(lp48
cnumpy.core.multiarray
scalar
p49
(cnumpy
dtype
p50
(S'f8'
p51
I0
I1
tp52
Rp53
(I3
S'<'
p54
NNNI-1
I-1
I0
tp55
bS'B\x8a\xfd\x06]\x97\xe3?'
p56
tp57
Rp58
ag58
ag58
ag58
ag58
ag58
ag58
ag58
ag58
ag58
ag58
ag58
ag58
ag58
ag58
ag58
ag58
ag58
ag58
ag58
ag58
ag58
ag58
ag58
ag58
ag58
ag58
ag58
ag58
ag58
ag58
ag58
ag58
ag58
ag58
ag58
ag58
ag58
ag58
ag58
ag58
ag58
ag58
ag58
ag58
ag58
ag58
ag58
ag58
ag58
ag58
ag58
ag58
ag58
ag58
ag58
ag58
ag58
ag58
ag58
ag58
ag58
ag58
ag58
ag58
ag58
ag58
ag58
ag58
ag58
ag58
ag58
ag58
ag58
ag58
ag58
ag58
ag58
ag58
ag58
ag58
ag58
ag58
ag58
ag58
ag58
ag58
ag58
ag58
ag58
ag58
ag58
ag58
ag58
ag58
ag58
ag58
ag58
ag58
ag58
ag58
ag58
ag58
asS'sp'
p59
(lp60
(S'p0'
p61
I0
S't'
p62
tp63
a(g61
I0
S'y'
p64
tp65
a(g61
I0
S'x'
p66
tp67
a(g61
I0
g66
tp68
a(S'p1'
p69
I0
g66
tp70
a(g69
I0
g66
tp71
a(g69
I0
g64
tp72
a(g69
I0
g62
tp73
a(g69
I0
g66
tp74
a(g69
I0
g62
tp75
a(g69
F1.5707963267948966
g62
tp76
a(g69
F1.5707963267948966
g64
tp77
a(g69
F1.5707963267948966
g62
tp78
ag77
ag78
a(g69
F1.5707963267948966
g66
tp79
a(g69
F1.5707963267948966
g66
tp80
a(g69
F1.5707963267948966
g64
tp81
ag78
a(g69
I0
g62
tp82
a(g69
I0
g64
tp83
ag73
ag76
ag77
a(g61
F1.5707963267948966
g64
tp84
a(g61
F1.5707963267948966
g62
tp85
a(g61
F1.5707963267948966
g62
tp86
a(g61
F1.5707963267948966
g66
tp87
a(g69
F1.5707963267948966
g66
tp88
ag81
a(S'p2'
p89
F1.5707963267948966
g64
tp90
a(g89
F1.5707963267948966
g66
tp91
a(g69
F1.5707963267948966
g66
tp92
ag80
ag80
ag81
ag90
a(g89
F1.5707963267948966
g64
tp93
ag93
a(g89
F1.5707963267948966
g64
tp94
ag93
ag93
ag91
ag92
ag81
a(g69
F1.5707963267948966
g66
tp95
ag80
ag81
ag78
ag77
ag95
ag80
ag81
ag78
ag82
ag76
ag77
ag84
ag85
a(g61
F1.5707963267948966
g62
tp96
ag87
a(g61
F1.5707963267948966
g62
tp97
ag87
ag97
ag96
ag86
ag87
a(g61
F1.5707963267948966
g64
tp98
a(g61
F1.5707963267948966
g64
tp99
a(g61
F1.5707963267948966
g66
tp100
ag98
ag100
ag97
ag86
a(g61
F1.5707963267948966
g64
tp101
ag100
ag88
a(g69
F1.5707963267948966
g66
tp102
ag102
ag80
a(g69
F1.5707963267948966
g62
tp103
a(g69
F1.5707963267948966
g62
tp104
ag79
ag80
ag81
ag78
ag79
ag80
ag81
ag90
ag91
a(S'p3'
p105
F1.5707963267948966
g66
tp106
a(g105
F1.5707963267948966
g66
tp107
a(g105
F1.5707963267948966
g66
tp108
a(g105
F1.5707963267948966
g64
tp109
a(g89
F1.5707963267948966
g64
tp110
ag93
ag93
ag91
ag106
a(g105
F1.5707963267948966
g62
tp111
a(g105
F1.5707963267948966
g64
tp112
a(S'p4'
p113
F1.5707963267948966
g64
tp114
asS's'
p115
(lp116
(g61
I0
g22
tp117
ag63
ag65
ag67
ag68
ag70
ag71
ag72
ag73
ag74
ag75
ag76
ag77
ag78
ag77
ag78
ag79
ag80
ag81
ag78
ag82
ag83
ag73
ag76
ag77
ag84
ag85
ag86
ag87
ag88
ag81
ag90
ag91
ag92
ag80
ag80
ag81
ag90
ag93
ag93
ag94
ag93
ag93
ag91
ag92
ag81
ag95
ag80
ag81
ag78
ag77
ag95
ag80
ag81
ag78
ag82
ag76
ag77
ag84
ag85
ag96
ag87
ag97
ag87
ag97
ag96
ag86
ag87
ag98
ag99
ag100
ag98
ag100
ag97
ag86
ag101
ag100
ag88
ag102
ag102
ag80
ag103
ag104
ag79
ag80
ag81
ag78
ag79
ag80
ag81
ag90
ag91
ag106
ag107
ag108
ag109
ag110
ag93
ag93
ag91
ag106
ag111
ag112
asS'ui'
p118
(lp119
S'hs'
p120
ag120
ag120
aS'ss'
p121
ag59
ag120
aS'hp'
p122
ag122
ag122
ag120
ag59
ag120
ag122
ag120
ag122
ag122
ag121
ag122
ag122
ag121
ag59
ag122
ag59
ag120
ag121
ag122
ag120
ag121
ag120
ag122
ag59
ag120
ag59
ag121
ag121
ag122
ag59
ag122
ag122
ag120
ag121
ag121
ag120
ag59
ag122
ag59
ag122
ag122
ag121
ag120
ag59
ag121
ag122
ag59
ag121
ag59
ag120
ag122
ag120
ag121
ag122
ag120
ag122
ag120
ag121
ag122
ag122
ag122
ag59
ag120
ag120
ag120
ag120
ag122
ag122
ag120
ag59
ag122
ag59
ag121
ag122
ag120
ag122
ag121
ag59
ag122
ag122
ag59
ag122
ag59
ag120
ag59
ag59
ag121
ag122
ag122
ag120
ag121
ag120
ag59
ag120
ag120
ag59
asS'um_before'
p123
(lp124
g59
ag120
ag120
ag121
ag59
ag59
ag122
ag122
ag122
ag120
ag59
ag120
ag122
ag120
ag122
ag122
ag121
ag122
ag122
ag121
ag120
ag122
ag59
ag120
ag121
ag122
ag59
ag122
ag59
ag122
ag59
ag120
ag121
ag121
ag121
ag122
ag59
ag121
ag121
ag59
ag121
ag121
ag120
ag121
ag122
ag120
ag121
ag122
ag122
ag120
ag120
ag121
ag122
ag122
ag121
ag59
ag120
ag121
ag122
ag121
ag122
ag120
ag122
ag120
ag121
ag59
ag122
ag122
ag59
ag120
ag122
ag120
ag120
ag59
ag120
ag120
ag59
ag59
ag59
ag121
ag120
ag59
ag122
ag121
ag122
ag122
ag122
ag121
ag122
ag59
ag120
ag59
ag59
ag121
ag122
ag121
ag121
ag121
ag120
ag59
ag120
ag120
ag59
asS'um_after'
p125
(lp126
g59
ag120
ag120
ag121
ag59
ag59
ag122
ag122
ag122
ag120
ag59
ag120
ag122
ag120
ag122
ag122
ag121
ag122
ag122
ag121
ag120
ag122
ag59
ag120
ag121
ag122
ag59
ag122
ag59
ag122
ag59
ag120
ag121
ag121
ag121
ag122
ag59
ag121
ag121
ag59
ag121
ag121
ag120
ag121
ag122
ag120
ag121
ag122
ag122
ag120
ag120
ag121
ag122
ag122
ag121
ag59
ag120
ag121
ag122
ag121
ag122
ag120
ag122
ag120
ag121
ag59
ag122
ag122
ag59
ag120
ag122
ag120
ag120
ag59
ag120
ag120
ag59
ag59
ag59
ag121
ag120
ag59
ag122
ag121
ag122
ag122
ag122
ag121
ag122
ag59
ag120
ag59
ag59
ag121
ag122
ag121
ag121
ag121
ag120
ag59
ag120
ag120
ag59
asS'is_normalized_entropy_less_than_threshold'
p127
(lp128
g49
(g50
(S'b1'
p129
I0
I1
tp130
Rp131
(I3
S'|'
p132
NNNI-1
I-1
I0
tp133
bS'\x01'
p134
tp135
Rp136
ag136
ag136
ag136
ag136
ag136
ag136
ag136
ag136
ag136
ag136
ag136
ag136
ag136
ag136
ag136
ag136
ag136
ag136
ag136
ag136
ag136
ag136
ag136
ag136
ag136
ag136
ag136
ag136
ag136
ag136
ag136
ag136
ag136
ag136
ag136
ag136
ag136
ag136
ag136
ag136
ag136
ag136
ag136
ag136
ag136
ag136
ag136
ag136
ag136
ag136
ag136
ag136
ag136
ag136
ag136
ag136
ag136
ag136
ag136
ag136
ag136
ag136
ag136
ag136
ag136
ag136
ag136
ag136
ag136
ag136
ag136
ag136
ag136
ag136
ag136
ag136
ag136
ag136
ag136
ag136
ag136
ag136
ag136
ag136
ag136
ag136
ag136
ag136
ag136
ag136
ag136
ag136
ag136
ag136
ag136
ag136
ag136
ag136
ag136
ag136
ag136
ag136
asaa(lp137
S'index'
p138
aI23056
aatp139
Rp140
.