ccollections
OrderedDict
p0
((lp1
(lp2
S'combination_dict'
p3
ag0
((lp4
(lp5
S'r_to_g_config'
p6
aS'bl'
p7
aa(lp8
S'num_turns'
p9
aI3
aa(lp10
S'start_direction'
p11
acutils_ms
StartDirection
p12
(I0
tp13
Rp14
aa(lp15
S'assistance_type'
p16
acutils_ms
AssistanceType
p17
(I0
tp18
Rp19
aa(lp20
S'start_mode'
p21
aS't'
p22
aa(lp23
S'ui_given_a_noise'
p24
aF0.7
aa(lp25
S'um_given_ui_noise'
p26
aF0.5
aa(lp27
S'entropy_threshold'
p28
aF0.9
aatp29
Rp30
aa(lp31
S'data'
p32
accollections
defaultdict
p33
(c__builtin__
list
p34
tp35
Rp36
S'a'
p37
(lp38
S'mode_r'
p39
ag39
aS'move_n'
p40
ag40
ag40
ag40
ag40
aS'mode_l'
p41
ag41
ag39
ag39
ag39
ag41
ag41
aS'move_p'
p42
ag42
ag41
ag41
ag41
ag41
ag39
ag40
ag41
ag40
ag40
ag39
ag40
ag40
ag41
ag40
ag40
ag40
ag39
ag39
ag40
ag41
ag39
ag40
ag39
ag39
ag41
ag40
ag41
ag39
ag39
ag40
ag40
ag40
ag40
ag40
ag39
ag40
ag41
ag39
ag41
ag41
ag39
ag40
ag39
ag39
ag41
ag39
ag39
ag39
ag39
ag39
ag40
ag41
ag41
ag40
ag39
ag39
ag40
ag41
ag41
ag41
ag41
ag40
ag39
ag39
ag40
ag41
ag41
ag40
ag40
ag39
ag41
ag40
ag41
ag40
ag40
ag39
ag39
ag39
ag39
ag41
ag40
asS'assistance_match_with_ground_truth'
p43
(lp44
I00
aI01
aI00
aI00
aI00
aI00
aI01
aI00
aI00
aI00
aI00
aI00
aI00
aI01
aI00
aI01
aI00
aI00
aI00
aI00
aI01
aI00
aI01
aI00
aI01
aI01
aI00
aI01
aI01
aI00
aI00
aI00
aI00
aI01
aI01
aI00
aI01
aI00
aI00
aI00
aI01
aI01
aI00
aI00
aI01
aI00
aI00
aI00
aI00
aI01
aI01
aI00
aI00
aI00
aI00
aI00
aI01
aI00
aI00
aI00
aI00
aI00
aI00
aI00
aI00
aI01
aI00
aI00
aI01
aI01
aI00
aI01
aI01
aI00
aI00
aI00
aI01
aI00
aI00
aI01
aI01
aI00
aI01
aI00
aI01
aI00
aI01
aI00
aI01
aI00
aI01
aI00
aI00
aI00
aI00
aI01
aI01
asS'is_u_intended_equals_um'
p45
(lp46
I00
aI01
aI00
aI00
aI00
aI01
aI01
aI01
aI01
aI00
aI00
aI01
aI01
aI01
aI00
aI01
aI00
aI00
aI00
aI01
aI01
aI01
aI01
aI01
aI01
aI01
aI00
aI01
aI01
aI00
aI00
aI01
aI00
aI01
aI01
aI01
aI01
aI01
aI00
aI01
aI01
aI01
aI01
aI00
aI01
aI00
aI00
aI00
aI00
aI01
aI01
aI01
aI01
aI01
aI01
aI01
aI01
aI01
aI00
aI01
aI01
aI00
aI00
aI00
aI00
aI01
aI01
aI01
aI01
aI01
aI00
aI01
aI01
aI00
aI01
aI01
aI01
aI01
aI00
aI01
aI01
aI00
aI01
aI00
aI01
aI01
aI01
aI01
aI01
aI00
aI01
aI00
aI00
aI00
aI01
aI01
aI01
asS'total_steps'
p47
I97
sS'normalized_h_of_p_ui_given_um'
p48
(lp49
cnumpy.core.multiarray
scalar
p50
(cnumpy
dtype
p51
(S'f8'
p52
I0
I1
tp53
Rp54
(I3
S'<'
p55
NNNI-1
I-1
I0
tp56
bS'\xb8=\xfe\x9e\xb8\x1d\xea?'
p57
tp58
Rp59
ag50
(g54
S'c\xd9\x1b5_\xe1\xd1?'
p60
tp61
Rp62
ag50
(g54
S'$N;\xb3^\xe0\xe6?'
p63
tp64
Rp65
ag50
(g54
S'\xc6\x9f\x14\xe7\xe2\xde\xe2?'
p66
tp67
Rp68
ag50
(g54
S'$N;\xb3^\xe0\xe6?'
p69
tp70
Rp71
ag50
(g54
S'\x0f\xf37$7\xa1\xe1?'
p72
tp73
Rp74
ag50
(g54
S'\xe7<\x95\x91>\xf5\xd3?'
p75
tp76
Rp77
ag50
(g54
S'\xa8\x086\x85(n\xe4?'
p78
tp79
Rp80
ag50
(g54
S'\xf6\xf3I\xa4me\xed?'
p81
tp82
Rp83
ag50
(g54
S'\xb8=\xfe\x9e\xb8\x1d\xea?'
p84
tp85
Rp86
ag50
(g54
S'\xb8=\xfe\x9e\xb8\x1d\xea?'
p87
tp88
Rp89
ag50
(g54
S'\xabxr\xeb\x19)\xe6?'
p90
tp91
Rp92
ag50
(g54
S'\xa8\x086\x85(n\xe4?'
p93
tp94
Rp95
ag50
(g54
S'\xdf\xae\x87\xc3@\xbb\xe3?'
p96
tp97
Rp98
ag50
(g54
S'\x97\xd96W\xa5\xc1\xe6?'
p99
tp100
Rp101
ag50
(g54
S'\xf2z\xb6\xb8\x07\xf9\xd7?'
p102
tp103
Rp104
ag50
(g54
S'\xee\xe4\x9c`A\xca\xeb?'
p105
tp106
Rp107
ag50
(g54
S'\xee\xe4\x9c`A\xca\xeb?'
p108
tp109
Rp110
ag50
(g54
S'\xee\xe4\x9c`A\xca\xeb?'
p111
tp112
Rp113
ag50
(g54
S'\xf6\xf3I\xa4me\xed?'
p114
tp115
Rp116
ag50
(g54
S'c\xd9\x1b5_\xe1\xd1?'
p117
tp118
Rp119
ag50
(g54
S'\x0f\xf37$7\xa1\xe1?'
p120
tp121
Rp122
ag50
(g54
S'\xdf\xae\x87\xc3@\xbb\xe3?'
p123
tp124
Rp125
ag50
(g54
S'\x0f\xf37$7\xa1\xe1?'
p126
tp127
Rp128
ag50
(g54
S'\xe7<\x95\x91>\xf5\xd3?'
p129
tp130
Rp131
ag50
(g54
S'c\xd9\x1b5_\xe1\xd1?'
p132
tp133
Rp134
ag50
(g54
S'\xc6\x9f\x14\xe7\xe2\xde\xe2?'
p135
tp136
Rp137
ag50
(g54
S'\xe7<\x95\x91>\xf5\xd3?'
p138
tp139
Rp140
ag50
(g54
S'\xdf\xae\x87\xc3@\xbb\xe3?'
p141
tp142
Rp143
ag50
(g54
S'$N;\xb3^\xe0\xe6?'
p144
tp145
Rp146
ag50
(g54
S'$N;\xb3^\xe0\xe6?'
p147
tp148
Rp149
ag50
(g54
S'\x0f\xf37$7\xa1\xe1?'
p150
tp151
Rp152
ag50
(g54
S'\xb8=\xfe\x9e\xb8\x1d\xea?'
p153
tp154
Rp155
ag50
(g54
S'c\xd9\x1b5_\xe1\xd1?'
p156
tp157
Rp158
ag50
(g54
S'\xe7<\x95\x91>\xf5\xd3?'
p159
tp160
Rp161
ag50
(g54
S'\xf6\xf3I\xa4me\xed?'
p162
tp163
Rp164
ag50
(g54
S'c\xd9\x1b5_\xe1\xd1?'
p165
tp166
Rp167
ag50
(g54
S'\x0f\xf37$7\xa1\xe1?'
p168
tp169
Rp170
ag50
(g54
S'\x00x\xf2\x93?\xb2\xe7?'
p171
tp172
Rp173
ag50
(g54
S'\xabxr\xeb\x19)\xe6?'
p174
tp175
Rp176
ag50
(g54
S'\xdf\xae\x87\xc3@\xbb\xe3?'
p177
tp178
Rp179
ag50
(g54
S'\xe7<\x95\x91>\xf5\xd3?'
p180
tp181
Rp182
ag50
(g54
S'\xf6\xf3I\xa4me\xed?'
p183
tp184
Rp185
ag50
(g54
S'\xb8=\xfe\x9e\xb8\x1d\xea?'
p186
tp187
Rp188
ag50
(g54
S'c\xd9\x1b5_\xe1\xd1?'
p189
tp190
Rp191
ag50
(g54
S'\xc6\x9f\x14\xe7\xe2\xde\xe2?'
p192
tp193
Rp194
ag50
(g54
S'\xc6\x9f\x14\xe7\xe2\xde\xe2?'
p195
tp196
Rp197
ag50
(g54
S'$N;\xb3^\xe0\xe6?'
p198
tp199
Rp200
ag50
(g54
S'$N;\xb3^\xe0\xe6?'
p201
tp202
Rp203
ag50
(g54
S'\xe7<\x95\x91>\xf5\xd3?'
p204
tp205
Rp206
ag50
(g54
S'c\xd9\x1b5_\xe1\xd1?'
p207
tp208
Rp209
ag50
(g54
S'\x0f\xf37$7\xa1\xe1?'
p210
tp211
Rp212
ag50
(g54
S'\xf6\xf3I\xa4me\xed?'
p213
tp214
Rp215
ag50
(g54
S'\xabxr\xeb\x19)\xe6?'
p216
tp217
Rp218
ag50
(g54
S'\xa8\x086\x85(n\xe4?'
p219
tp220
Rp221
ag50
(g54
S'\xf6\xf3I\xa4me\xed?'
p222
tp223
Rp224
ag50
(g54
S'c\xd9\x1b5_\xe1\xd1?'
p225
tp226
Rp227
ag50
(g54
S'\x0f\xf37$7\xa1\xe1?'
p228
tp229
Rp230
ag50
(g54
S'\x00x\xf2\x93?\xb2\xe7?'
p231
tp232
Rp233
ag50
(g54
S'\xabxr\xeb\x19)\xe6?'
p234
tp235
Rp236
ag50
(g54
S'\xf6\xf3I\xa4me\xed?'
p237
tp238
Rp239
ag50
(g54
S'\x00x\xf2\x93?\xb2\xe7?'
p240
tp241
Rp242
ag50
(g54
S'\xb8=\xfe\x9e\xb8\x1d\xea?'
p243
tp244
Rp245
ag50
(g54
S'\xb8=\xfe\x9e\xb8\x1d\xea?'
p246
tp247
Rp248
ag50
(g54
S'\xb8=\xfe\x9e\xb8\x1d\xea?'
p249
tp250
Rp251
ag50
(g54
S'c\xd9\x1b5_\xe1\xd1?'
p252
tp253
Rp254
ag50
(g54
S'\x0f\xf37$7\xa1\xe1?'
p255
tp256
Rp257
ag50
(g54
S'\xa8\x086\x85(n\xe4?'
p258
tp259
Rp260
ag50
(g54
S'\xdf\xae\x87\xc3@\xbb\xe3?'
p261
tp262
Rp263
ag50
(g54
S'\xe7<\x95\x91>\xf5\xd3?'
p264
tp265
Rp266
ag50
(g54
S'\xb8=\xfe\x9e\xb8\x1d\xea?'
p267
tp268
Rp269
ag50
(g54
S'c\xd9\x1b5_\xe1\xd1?'
p270
tp271
Rp272
ag50
(g54
S'\xe7<\x95\x91>\xf5\xd3?'
p273
tp274
Rp275
ag50
(g54
S'\xee\xe4\x9c`A\xca\xeb?'
p276
tp277
Rp278
ag50
(g54
S'\xa8\x086\x85(n\xe4?'
p279
tp280
Rp281
ag50
(g54
S'\xa8\x086\x85(n\xe4?'
p282
tp283
Rp284
ag50
(g54
S'\xdf\xae\x87\xc3@\xbb\xe3?'
p285
tp286
Rp287
ag50
(g54
S'\x0f\xf37$7\xa1\xe1?'
p288
tp289
Rp290
ag50
(g54
S'\xb8=\xfe\x9e\xb8\x1d\xea?'
p291
tp292
Rp293
ag50
(g54
S'c\xd9\x1b5_\xe1\xd1?'
p294
tp295
Rp296
ag50
(g54
S'\xe7<\x95\x91>\xf5\xd3?'
p297
tp298
Rp299
ag50
(g54
S'\xee\xe4\x9c`A\xca\xeb?'
p300
tp301
Rp302
ag50
(g54
S'\xdf\xae\x87\xc3@\xbb\xe3?'
p303
tp304
Rp305
ag50
(g54
S'\xc6\x9f\x14\xe7\xe2\xde\xe2?'
p306
tp307
Rp308
ag50
(g54
S'\xe7<\x95\x91>\xf5\xd3?'
p309
tp310
Rp311
ag50
(g54
S'\xabxr\xeb\x19)\xe6?'
p312
tp313
Rp314
ag50
(g54
S'\xdf\xae\x87\xc3@\xbb\xe3?'
p315
tp316
Rp317
ag50
(g54
S'\x0f\xf37$7\xa1\xe1?'
p318
tp319
Rp320
ag50
(g54
S'\xdf\xae\x87\xc3@\xbb\xe3?'
p321
tp322
Rp323
ag50
(g54
S'$N;\xb3^\xe0\xe6?'
p324
tp325
Rp326
ag50
(g54
S'\xe7<\x95\x91>\xf5\xd3?'
p327
tp328
Rp329
ag50
(g54
S'\x00x\xf2\x93?\xb2\xe7?'
p330
tp331
Rp332
ag50
(g54
S'\x00x\xf2\x93?\xb2\xe7?'
p333
tp334
Rp335
ag50
(g54
S'\x00x\xf2\x93?\xb2\xe7?'
p336
tp337
Rp338
ag50
(g54
S'\xabxr\xeb\x19)\xe6?'
p339
tp340
Rp341
ag50
(g54
S'\xdf\xae\x87\xc3@\xbb\xe3?'
p342
tp343
Rp344
ag50
(g54
S'\xe7<\x95\x91>\xf5\xd3?'
p345
tp346
Rp347
asS'sp'
p348
(lp349
(S'p0'
p350
I0
g22
tp351
a(g350
I0
S'x'
p352
tp353
ag353
ag353
ag353
a(g350
I0
g352
tp354
a(S'p1'
p355
I0
g352
tp356
a(g355
I0
g352
tp357
a(g355
I0
S'y'
p358
tp359
ag359
ag359
a(g355
I0
g352
tp360
ag357
a(g355
I0
S't'
p361
tp362
ag362
a(g355
F1.5707963267948966
g361
tp363
ag363
ag363
ag363
a(g355
F1.5707963267948966
g352
tp364
a(g355
F1.5707963267948966
g358
tp365
a(g350
F1.5707963267948966
g358
tp366
a(g350
F1.5707963267948966
g352
tp367
a(g350
F1.5707963267948966
g352
tp368
a(g355
F1.5707963267948966
g352
tp369
ag365
ag365
a(S'p2'
p370
F1.5707963267948966
g358
tp371
a(g370
F1.5707963267948966
g352
tp372
ag372
ag372
a(g355
F1.5707963267948966
g352
tp373
ag373
ag365
ag371
a(g370
F1.5707963267948966
g361
tp374
a(g370
F1.5707963267948966
g352
tp375
ag373
ag373
a(g355
F1.5707963267948966
g361
tp376
a(g355
F1.5707963267948966
g358
tp377
ag371
ag374
ag374
ag375
ag375
ag375
ag375
ag375
a(S'p3'
p378
F1.5707963267948966
g352
tp379
a(g378
F1.5707963267948966
g358
tp380
a(g370
F1.5707963267948966
g358
tp381
ag374
a(g370
F1.5707963267948966
g358
tp382
a(g370
F1.5707963267948966
g358
tp383
ag374
ag375
ag373
ag373
ag376
ag364
ag364
ag364
ag364
ag364
ag365
ag366
a(g350
F1.5707963267948966
g358
tp384
ag367
ag369
ag369
ag365
ag371
ag371
ag383
ag383
ag372
ag373
ag373
ag365
ag371
ag371
ag372
ag372
ag379
a(g378
F1.5707963267948966
g361
tp385
a(g378
F1.5707963267948966
g358
tp386
ag381
ag372
ag372
ag379
ag379
ag379
ag379
ag385
ag386
a(S'p4'
p387
F1.5707963267948966
g358
tp388
asS's'
p389
(lp390
g351
ag351
ag353
ag353
ag353
ag353
ag354
ag356
ag357
ag359
ag359
ag359
ag360
ag357
ag362
ag362
ag363
ag363
ag363
ag363
ag364
ag365
ag366
ag367
ag368
ag369
ag365
ag365
ag371
ag372
ag372
ag372
ag373
ag373
ag365
ag371
ag374
ag375
ag373
ag373
ag376
ag377
ag371
ag374
ag374
ag375
ag375
ag375
ag375
ag375
ag379
ag380
ag381
ag374
ag382
ag383
ag374
ag375
ag373
ag373
ag376
ag364
ag364
ag364
ag364
ag364
ag365
ag366
ag384
ag367
ag369
ag369
ag365
ag371
ag371
ag383
ag383
ag372
ag373
ag373
ag365
ag371
ag371
ag372
ag372
ag379
ag385
ag386
ag381
ag372
ag372
ag379
ag379
ag379
ag379
ag385
ag386
asS'ui'
p391
(lp392
S'hs'
p393
aS'hp'
p394
ag394
ag394
aS'ss'
p395
ag348
ag393
ag348
ag394
ag395
ag394
ag393
ag348
ag393
ag348
ag348
ag395
ag348
ag348
ag394
ag394
ag395
ag395
ag395
ag395
ag394
ag393
ag395
ag393
ag348
ag395
ag348
ag393
ag394
ag395
ag393
ag394
ag395
ag394
ag393
ag393
ag395
ag394
ag393
ag394
ag393
ag395
ag395
ag395
ag395
ag394
ag348
ag348
ag394
ag348
ag348
ag394
ag395
ag394
ag394
ag394
ag394
ag395
ag394
ag394
ag393
ag348
ag348
ag393
ag395
ag393
ag394
ag395
ag393
ag348
ag348
ag393
ag395
ag394
ag394
ag395
ag393
ag394
ag348
ag348
ag393
ag394
ag348
ag393
ag348
ag395
ag394
ag394
ag394
ag393
ag393
ag395
asS'um_before'
p396
(lp397
g395
ag394
ag394
ag393
ag394
ag348
ag395
ag348
ag394
ag395
ag395
ag393
ag348
ag393
ag393
ag348
ag395
ag395
ag395
ag394
ag394
ag348
ag393
ag348
ag395
ag394
ag393
ag395
ag393
ag394
ag394
ag348
ag395
ag394
ag395
ag394
ag394
ag348
ag348
ag393
ag393
ag395
ag394
ag395
ag394
ag393
ag393
ag394
ag394
ag395
ag394
ag348
ag394
ag393
ag348
ag394
ag394
ag348
ag348
ag393
ag394
ag348
ag395
ag395
ag395
ag394
ag348
ag348
ag393
ag395
ag395
ag394
ag395
ag395
ag348
ag348
ag393
ag348
ag395
ag394
ag395
ag395
ag393
ag393
ag395
ag393
ag393
ag348
ag393
ag394
ag395
ag348
ag348
ag348
ag393
ag393
ag395
asS'um_after'
p398
(lp399
Nag394
aNaNaNag348
ag395
ag348
ag394
aNaNag393
ag348
ag393
aNag348
aNaNaNag394
ag394
ag348
ag393
ag348
ag395
ag394
aNag395
ag393
aNaNag348
aNag394
ag395
ag394
ag394
ag348
aNag393
ag393
ag395
ag394
aNag394
aNaNaNaNag395
ag394
ag348
ag394
ag393
ag348
ag394
ag394
ag348
aNag393
ag394
aNaNaNaNag394
ag348
ag348
ag393
ag395
aNag394
ag395
aNag348
ag348
ag393
ag348
aNag394
ag395
aNag393
aNag395
ag393
ag393
ag348
ag393
aNag395
aNaNaNag393
ag393
ag395
asS'is_normalized_entropy_less_than_threshold'
p400
(lp401
g50
(g51
(S'b1'
p402
I0
I1
tp403
Rp404
(I3
S'|'
p405
NNNI-1
I-1
I0
tp406
bS'\x01'
p407
tp408
Rp409
ag409
ag409
ag409
ag409
ag409
ag409
ag409
ag50
(g404
S'\x00'
p410
tp411
Rp412
ag409
ag409
ag409
ag409
ag409
ag409
ag409
ag409
ag409
ag409
ag412
ag409
ag409
ag409
ag409
ag409
ag409
ag409
ag409
ag409
ag409
ag409
ag409
ag409
ag409
ag409
ag412
ag409
ag409
ag409
ag409
ag409
ag409
ag412
ag409
ag409
ag409
ag409
ag409
ag409
ag409
ag409
ag409
ag412
ag409
ag409
ag412
ag409
ag409
ag409
ag409
ag412
ag409
ag409
ag409
ag409
ag409
ag409
ag409
ag409
ag409
ag409
ag409
ag409
ag409
ag409
ag409
ag409
ag409
ag409
ag409
ag409
ag409
ag409
ag409
ag409
ag409
ag409
ag409
ag409
ag409
ag409
ag409
ag409
ag409
ag409
ag409
ag409
asaa(lp413
S'index'
p414
aI77543
aatp415
Rp416
.