ccollections
OrderedDict
p0
((lp1
(lp2
S'combination_dict'
p3
ag0
((lp4
(lp5
S'r_to_g_config'
p6
aS'br'
p7
aa(lp8
S'num_turns'
p9
aI3
aa(lp10
S'start_direction'
p11
acutils_ms
StartDirection
p12
(I1
tp13
Rp14
aa(lp15
S'assistance_type'
p16
acutils_ms
AssistanceType
p17
(I1
tp18
Rp19
aa(lp20
S'start_mode'
p21
aS'x'
p22
aa(lp23
S'ui_given_a_noise'
p24
aF0.3
aa(lp25
S'um_given_ui_noise'
p26
aF0.1
aa(lp27
S'entropy_threshold'
p28
aF0.8
aatp29
Rp30
aa(lp31
S'data'
p32
accollections
defaultdict
p33
(c__builtin__
list
p34
tp35
Rp36
S'a'
p37
(lp38
S'mode_r'
p39
aS'mode_l'
p40
aS'move_n'
p41
ag41
ag41
ag41
ag40
aS'move_p'
p42
ag39
ag41
ag41
ag40
ag42
ag40
ag42
ag39
ag41
ag40
ag42
ag39
ag41
ag40
ag41
ag40
ag41
ag39
ag39
ag42
ag39
ag40
ag42
asS'assistance_match_with_ground_truth'
p43
(lp44
I00
aI01
aI00
aI00
aI00
aI01
aI01
aI00
aI01
aI00
aI01
aI01
aI00
aI01
aI00
aI01
aI01
aI01
aI01
aI01
aI00
aI01
aI00
aI01
aI01
aI00
aI01
aI01
aI00
aI01
aI01
asS'is_u_intended_equals_um'
p45
(lp46
I01
aI01
aI01
aI01
aI01
aI01
aI01
aI01
aI01
aI01
aI01
aI00
aI01
aI01
aI01
aI01
aI01
aI00
aI01
aI01
aI01
aI01
aI01
aI00
aI01
aI01
aI01
aI01
aI01
aI01
aI01
asS'total_steps'
p47
I31
sS'normalized_h_of_p_ui_given_um'
p48
(lp49
cnumpy.core.multiarray
scalar
p50
(cnumpy
dtype
p51
(S'f8'
p52
I0
I1
tp53
Rp54
(I3
S'<'
p55
NNNI-1
I-1
I0
tp56
bS'>|\xd7j\x9e\xc7\xde?'
p57
tp58
Rp59
ag50
(g54
S'\xdf\x92\xea\xfch\x03\xaf?'
p60
tp61
Rp62
ag50
(g54
S'y9Gc\xdd:\xe3?'
p63
tp64
Rp65
ag50
(g54
S'y9Gc\xdd:\xe3?'
p66
tp67
Rp68
ag50
(g54
S'y9Gc\xdd:\xe3?'
p69
tp70
Rp71
ag50
(g54
S'OL\xfb\x8fz\xba\xc2?'
p72
tp73
Rp74
ag50
(g54
S'\xdf\x92\xea\xfch\x03\xaf?'
p75
tp76
Rp77
ag50
(g54
S'\x1c\\\\\x91\xb16\xdf?'
p78
tp79
Rp80
ag50
(g54
S'\xba\xe7\x1b\x02\x91\x12\xc0?'
p81
tp82
Rp83
ag50
(g54
S'y9Gc\xdd:\xe3?'
p84
tp85
Rp86
ag50
(g54
S'OL\xfb\x8fz\xba\xc2?'
p87
tp88
Rp89
ag50
(g54
S'\n\xb8\xbc\x08/\xb3\xe7?'
p90
tp91
Rp92
ag50
(g54
S'G\xebN\xf67\xa9\xe5?'
p93
tp94
Rp95
ag50
(g54
S'\xdf\x92\xea\xfch\x03\xaf?'
p96
tp97
Rp98
ag50
(g54
S'\x1c\\\\\x91\xb16\xdf?'
p99
tp100
Rp101
ag50
(g54
S'\xba\xe7\x1b\x02\x91\x12\xc0?'
p102
tp103
Rp104
ag50
(g54
S'OL\xfb\x8fz\xba\xc2?'
p105
tp106
Rp107
ag50
(g54
S'\n\xb8\xbc\x08/\xb3\xe7?'
p108
tp109
Rp110
ag50
(g54
S'\xd4\xc3\xf6yb!\xb6?'
p111
tp112
Rp113
ag50
(g54
S'\xba\xe7\x1b\x02\x91\x12\xc0?'
p114
tp115
Rp116
ag50
(g54
S'\x8d\x986F\x13f\xe1?'
p117
tp118
Rp119
ag50
(g54
S'\xdf\x92\xea\xfch\x03\xaf?'
p120
tp121
Rp122
ag50
(g54
S'\x8d\x986F\x13f\xe1?'
p123
tp124
Rp125
ag50
(g54
S'\n\xb8\xbc\x08/\xb3\xe7?'
p126
tp127
Rp128
ag50
(g54
S'OL\xfb\x8fz\xba\xc2?'
p129
tp130
Rp131
ag50
(g54
S'K\xd2\xf7\xc6\xc8G\xe1?'
p132
tp133
Rp134
ag50
(g54
S'\xba\xe7\x1b\x02\x91\x12\xc0?'
p135
tp136
Rp137
ag50
(g54
S'\xd4\xc3\xf6yb!\xb6?'
p138
tp139
Rp140
ag50
(g54
S'>|\xd7j\x9e\xc7\xde?'
p141
tp142
Rp143
ag50
(g54
S'\xdf\x92\xea\xfch\x03\xaf?'
p144
tp145
Rp146
ag50
(g54
S'\xd4\xc3\xf6yb!\xb6?'
p147
tp148
Rp149
asS'sp'
p150
(lp151
(S'p0'
p152
I0
S't'
p153
tp154
a(g152
I0
S'y'
p155
tp156
a(g152
I0
g155
tp157
ag157
ag157
a(S'p1'
p158
I0
g155
tp159
a(g158
I0
S'x'
p160
tp161
a(g152
I0
g160
tp162
a(g152
I0
g155
tp163
ag157
ag159
ag161
a(g158
I0
g155
tp164
ag161
ag162
ag163
ag159
ag161
a(S'p2'
p165
I0
g160
tp166
a(g165
I0
g155
tp167
a(g165
I0
g153
tp168
a(g165
I0
g155
tp169
ag168
ag169
a(S'p3'
p170
I0
g155
tp171
a(g170
I0
g155
tp172
a(g170
I0
g153
tp173
a(g170
F1.5707963267948966
g153
tp174
a(g170
F1.5707963267948966
g155
tp175
a(g170
F1.5707963267948966
g160
tp176
a(S'p4'
p177
F1.5707963267948966
g160
tp178
asS's'
p179
(lp180
(g152
I0
g22
tp181
ag154
ag156
ag157
ag157
ag157
ag159
ag161
ag162
ag163
ag157
ag159
ag161
ag164
ag161
ag162
ag163
ag159
ag161
ag166
ag167
ag168
ag169
ag168
ag169
ag171
ag172
ag173
ag174
ag175
ag176
asS'ui'
p182
(lp183
S'hs'
p184
ag184
ag150
ag150
ag150
aS'ss'
p185
ag184
ag185
aS'hp'
p186
ag150
ag185
ag184
ag186
ag184
ag185
ag186
ag185
ag150
ag150
ag186
ag186
ag184
ag186
ag184
ag185
ag185
ag186
ag185
ag185
ag184
ag150
asS'um_before'
p187
(lp188
g184
ag184
ag150
ag150
ag150
ag185
ag184
ag185
ag186
ag150
ag185
ag150
ag186
ag184
ag185
ag186
ag185
ag150
ag150
ag186
ag186
ag184
ag186
ag150
ag185
ag185
ag186
ag150
ag184
ag184
ag150
asS'um_after'
p189
(lp190
g184
ag184
ag150
ag150
ag150
ag185
ag184
ag185
ag186
ag150
ag185
ag184
ag186
ag184
ag185
ag186
ag185
ag184
ag150
ag186
ag186
ag184
ag186
ag184
ag185
ag185
ag186
ag150
ag184
ag184
ag150
asS'is_normalized_entropy_less_than_threshold'
p191
(lp192
g50
(g51
(S'b1'
p193
I0
I1
tp194
Rp195
(I3
S'|'
p196
NNNI-1
I-1
I0
tp197
bS'\x01'
p198
tp199
Rp200
ag200
ag200
ag200
ag200
ag200
ag200
ag200
ag200
ag200
ag200
ag200
ag200
ag200
ag200
ag200
ag200
ag200
ag200
ag200
ag200
ag200
ag200
ag200
ag200
ag200
ag200
ag200
ag200
ag200
ag200
asaa(lp201
S'index'
p202
aI112236
aatp203
Rp204
.