ccollections
OrderedDict
p0
((lp1
(lp2
S'combination_dict'
p3
ag0
((lp4
(lp5
S'r_to_g_config'
p6
aS'br'
p7
aa(lp8
S'num_turns'
p9
aI3
aa(lp10
S'start_direction'
p11
acutils_ms
StartDirection
p12
(I0
tp13
Rp14
aa(lp15
S'assistance_type'
p16
acutils_ms
AssistanceType
p17
(I2
tp18
Rp19
aa(lp20
S'start_mode'
p21
aS'y'
p22
aa(lp23
S'ui_given_a_noise'
p24
aF0.7
aa(lp25
S'um_given_ui_noise'
p26
aF0.7
aa(lp27
S'entropy_threshold'
p28
aF0.8
aatp29
Rp30
aa(lp31
S'data'
p32
accollections
defaultdict
p33
(c__builtin__
list
p34
tp35
Rp36
S'a'
p37
(lp38
S'mode_l'
p39
aS'move_p'
p40
ag39
ag39
ag39
aS'mode_r'
p41
ag41
ag41
ag41
ag40
ag39
ag39
ag40
ag40
ag39
ag41
ag41
ag41
ag41
ag41
ag39
ag41
ag41
ag41
ag41
ag41
ag41
ag41
ag39
ag41
ag41
ag39
ag41
ag39
ag39
ag39
ag40
ag39
ag40
ag39
ag41
ag39
ag39
ag39
ag39
ag41
ag39
ag41
ag40
ag41
ag41
ag41
ag39
aS'move_n'
p42
ag39
ag40
ag41
ag42
ag39
ag41
ag40
ag39
ag40
ag41
ag40
ag40
ag40
ag40
ag39
ag40
ag39
ag41
ag42
ag39
ag39
ag39
ag39
ag39
ag39
ag39
ag39
ag40
ag41
ag41
ag42
ag41
ag41
ag42
ag41
ag42
ag39
ag39
ag40
ag40
ag40
ag41
ag39
ag40
ag41
ag40
ag39
ag39
ag39
ag40
ag39
ag41
ag40
ag40
ag39
ag39
ag40
ag39
ag39
ag41
ag39
ag40
ag41
ag41
ag41
ag40
ag39
ag39
ag39
ag40
ag40
ag39
ag39
ag40
ag40
ag40
ag39
ag42
ag41
ag42
ag39
ag39
ag39
ag41
ag40
ag41
ag39
ag39
ag39
ag39
ag41
ag42
asS'assistance_match_with_ground_truth'
p43
(lp44
I01
aI00
aI00
aI00
aI00
aI00
aI00
aI00
aI01
aI00
aI00
aI01
aI00
aI00
aI00
aI00
aI00
aI00
aI00
aI00
aI00
aI00
aI00
aI00
aI00
aI00
aI00
aI00
aI00
aI00
aI00
aI00
aI00
aI00
aI00
aI01
aI01
aI01
aI00
aI00
aI00
aI00
aI00
aI00
aI00
aI00
aI00
aI01
aI01
aI00
aI00
aI00
aI01
aI00
aI01
aI01
aI01
aI00
aI00
aI01
aI00
aI01
aI00
aI01
aI00
aI00
aI00
aI00
aI01
aI01
aI00
aI01
aI00
aI00
aI00
aI00
aI00
aI00
aI00
aI00
aI01
aI01
aI00
aI01
aI00
aI00
aI01
aI00
aI01
aI00
aI00
aI00
aI00
aI00
aI00
aI00
aI01
aI00
aI01
aI01
aI00
aI00
aI01
aI00
aI00
aI01
aI00
aI01
aI00
aI00
aI00
aI00
aI00
aI00
aI01
aI00
aI00
aI00
aI01
aI00
aI00
aI00
aI01
aI00
aI00
aI00
aI01
aI00
aI00
aI01
aI01
aI00
aI01
aI01
aI00
aI00
aI00
aI01
aI01
aI00
aI00
aI00
aI00
aI00
aI01
aI01
asS'is_u_intended_equals_um'
p45
(lp46
I01
aI01
aI01
aI01
aI01
aI01
aI01
aI01
aI01
aI01
aI01
aI01
aI01
aI01
aI01
aI01
aI01
aI01
aI01
aI01
aI01
aI01
aI01
aI01
aI01
aI01
aI01
aI01
aI01
aI01
aI01
aI01
aI01
aI01
aI01
aI01
aI01
aI01
aI01
aI01
aI01
aI01
aI01
aI01
aI01
aI01
aI01
aI01
aI01
aI01
aI01
aI01
aI01
aI01
aI01
aI01
aI01
aI01
aI01
aI01
aI01
aI01
aI01
aI01
aI01
aI01
aI01
aI01
aI01
aI01
aI01
aI01
aI01
aI01
aI01
aI01
aI01
aI01
aI01
aI01
aI01
aI01
aI01
aI01
aI01
aI01
aI01
aI01
aI01
aI01
aI01
aI01
aI01
aI01
aI01
aI01
aI01
aI01
aI01
aI01
aI01
aI01
aI01
aI01
aI01
aI01
aI01
aI01
aI01
aI01
aI01
aI01
aI01
aI01
aI01
aI01
aI01
aI01
aI01
aI01
aI01
aI01
aI01
aI01
aI01
aI01
aI01
aI01
aI01
aI01
aI01
aI01
aI01
aI01
aI01
aI01
aI01
aI01
aI01
aI01
aI01
aI01
aI01
aI01
aI01
aI01
asS'total_steps'
p47
I146
sS'normalized_h_of_p_ui_given_um'
p48
(lp49
cnumpy.core.multiarray
scalar
p50
(cnumpy
dtype
p51
(S'f8'
p52
I0
I1
tp53
Rp54
(I3
S'<'
p55
NNNI-1
I-1
I0
tp56
bS'\xeb\x05\xa2\xec\xe0\x9e\xe5?'
p57
tp58
Rp59
ag59
ag59
ag59
ag59
ag59
ag59
ag59
ag59
ag59
ag59
ag59
ag59
ag59
ag59
ag59
ag59
ag59
ag59
ag59
ag59
ag59
ag59
ag59
ag59
ag59
ag59
ag59
ag59
ag59
ag59
ag59
ag59
ag59
ag59
ag59
ag59
ag59
ag59
ag59
ag59
ag59
ag59
ag59
ag59
ag59
ag59
ag59
ag59
ag59
ag59
ag59
ag59
ag59
ag59
ag59
ag59
ag59
ag59
ag59
ag59
ag59
ag59
ag59
ag59
ag59
ag59
ag59
ag59
ag59
ag59
ag59
ag59
ag59
ag59
ag59
ag59
ag59
ag59
ag59
ag59
ag59
ag59
ag59
ag59
ag59
ag59
ag59
ag59
ag59
ag59
ag59
ag59
ag59
ag59
ag59
ag59
ag59
ag59
ag59
ag59
ag59
ag59
ag59
ag59
ag59
ag59
ag59
ag59
ag59
ag59
ag59
ag59
ag59
ag59
ag59
ag59
ag59
ag59
ag59
ag59
ag59
ag59
ag59
ag59
ag59
ag59
ag59
ag59
ag59
ag59
ag59
ag59
ag59
ag59
ag59
ag59
ag59
ag59
ag59
ag59
ag59
ag59
ag59
ag59
ag59
asS'sp'
p60
(lp61
(S'p0'
p62
I0
S'x'
p63
tp64
a(g62
I0
S'y'
p65
tp66
a(g62
I0
g65
tp67
ag67
a(g62
I0
S't'
p68
tp69
a(g62
I0
g68
tp70
ag70
ag70
a(g62
I0
g63
tp71
ag66
a(g62
I0
g65
tp72
ag64
a(g62
I0
g63
tp73
ag66
ag69
a(g62
I0
g68
tp74
ag70
ag70
ag74
a(g62
I0
g65
tp75
ag69
ag70
ag70
ag70
ag70
ag70
ag70
ag75
ag69
ag70
ag75
ag69
ag75
ag67
ag67
ag64
a(S'p1'
p76
I0
g63
tp77
a(g76
I0
g68
tp78
a(g76
I0
g63
tp79
a(g76
I0
g65
tp80
a(g76
I0
g63
tp81
a(g76
I0
g63
tp82
a(g76
I0
g63
tp83
ag83
ag80
a(S'p2'
p84
I0
g65
tp85
a(g84
I0
g68
tp86
a(g84
I0
g63
tp87
a(S'p3'
p88
I0
g63
tp89
a(g88
I0
g63
tp90
a(g88
I0
g63
tp91
a(g88
I0
g68
tp92
a(g88
I0
g65
tp93
a(g84
I0
g65
tp94
a(g84
I0
g63
tp95
ag89
a(g88
I0
g65
tp96
ag94
ag86
ag87
a(g76
I0
g63
tp97
ag78
a(g76
I0
g65
tp98
a(g76
I0
g68
tp99
a(g76
I0
g68
tp100
ag100
ag100
ag79
ag78
a(g76
F1.5707963267948966
g68
tp101
a(g76
F1.5707963267948966
g63
tp102
a(g76
F1.5707963267948966
g65
tp103
a(g62
F1.5707963267948966
g65
tp104
a(g62
F1.5707963267948966
g65
tp105
ag105
a(g62
F1.5707963267948966
g65
tp106
ag105
ag106
ag105
ag106
a(g62
F1.5707963267948966
g63
tp107
a(g76
F1.5707963267948966
g63
tp108
a(g76
F1.5707963267948966
g63
tp109
ag103
a(g76
F1.5707963267948966
g63
tp110
ag109
ag103
ag110
ag103
a(g76
F1.5707963267948966
g68
tp111
a(g76
F1.5707963267948966
g68
tp112
a(g76
I0
g68
tp113
ag100
ag100
ag98
a(g62
I0
g65
tp114
ag64
a(g62
I0
g68
tp115
ag71
ag77
ag83
ag82
ag78
ag79
ag80
ag99
ag100
ag101
ag112
ag113
ag79
ag82
ag80
ag85
ag95
a(g84
I0
g68
tp116
a(g84
I0
g68
tp117
a(g84
I0
g68
tp118
ag87
ag97
ag82
ag83
ag78
ag100
ag79
ag82
ag78
ag100
ag100
ag101
a(g76
F1.5707963267948966
g65
tp119
ag110
ag103
a(g84
F1.5707963267948966
g65
tp120
a(g84
F1.5707963267948966
g65
tp121
a(g84
F1.5707963267948966
g65
tp122
a(g84
F1.5707963267948966
g68
tp123
a(g84
F1.5707963267948966
g63
tp124
a(g88
F1.5707963267948966
g63
tp125
a(g88
F1.5707963267948966
g68
tp126
a(g88
F1.5707963267948966
g68
tp127
a(g88
F1.5707963267948966
g68
tp128
ag127
a(g88
F1.5707963267948966
g63
tp129
a(g88
F1.5707963267948966
g65
tp130
a(S'p4'
p131
F1.5707963267948966
g65
tp132
asS's'
p133
(lp134
(g62
I0
g22
tp135
ag64
ag66
ag67
ag67
ag69
ag70
ag70
ag70
ag71
ag66
ag72
ag64
ag73
ag66
ag69
ag74
ag70
ag70
ag74
ag75
ag69
ag70
ag70
ag70
ag70
ag70
ag70
ag75
ag69
ag70
ag75
ag69
ag75
ag67
ag67
ag64
ag77
ag78
ag79
ag80
ag81
ag82
ag83
ag83
ag80
ag85
ag86
ag87
ag89
ag90
ag91
ag92
ag93
ag94
ag95
ag89
ag96
ag94
ag86
ag87
ag97
ag78
ag98
ag99
ag100
ag100
ag100
ag79
ag78
ag101
ag102
ag103
ag104
ag105
ag105
ag106
ag105
ag106
ag105
ag106
ag107
ag108
ag109
ag103
ag110
ag109
ag103
ag110
ag103
ag111
ag112
ag113
ag100
ag100
ag98
ag114
ag64
ag115
ag71
ag77
ag83
ag82
ag78
ag79
ag80
ag99
ag100
ag101
ag112
ag113
ag79
ag82
ag80
ag85
ag95
ag116
ag117
ag118
ag87
ag97
ag82
ag83
ag78
ag100
ag79
ag82
ag78
ag100
ag100
ag101
ag119
ag110
ag103
ag120
ag121
ag122
ag123
ag124
ag125
ag126
ag127
ag128
ag127
ag129
ag130
asS'ui'
p136
(lp137
S'hs'
p138
aS'hp'
p139
ag138
ag60
ag138
ag139
ag60
ag60
ag138
aS'ss'
p140
ag139
ag138
ag139
ag139
ag138
ag139
ag60
ag139
ag139
ag140
ag60
ag140
ag140
ag140
ag140
ag139
ag139
ag60
ag60
ag139
ag60
ag138
ag138
ag60
ag138
ag138
ag60
ag138
ag60
ag138
ag60
ag60
ag140
ag140
ag140
ag140
ag139
ag139
ag139
ag60
ag139
ag60
ag138
ag139
ag138
ag60
ag139
ag140
ag138
ag138
ag60
ag138
ag139
ag139
ag140
ag60
ag139
ag140
ag138
ag60
ag139
ag138
ag140
ag140
ag140
ag60
ag60
ag60
ag60
ag60
ag60
ag139
ag139
ag139
ag140
ag138
ag139
ag140
ag139
ag139
ag60
ag138
ag60
ag140
ag139
ag140
ag138
ag60
ag139
ag139
ag140
ag140
ag138
ag139
ag139
ag139
ag140
ag60
ag60
ag139
ag139
ag60
ag138
ag139
ag138
ag60
ag139
ag139
ag139
ag60
ag139
ag138
ag138
ag140
ag138
ag60
ag60
ag140
ag139
ag60
ag138
ag140
ag139
ag140
ag138
ag140
ag139
ag139
ag60
ag140
ag60
ag60
ag60
ag138
ag140
ag140
asS'um_before'
p141
(lp142
g138
ag139
ag140
ag140
ag139
ag140
ag140
ag140
ag139
ag139
ag60
ag138
ag140
ag139
ag139
ag60
ag140
ag140
ag60
ag138
ag139
ag140
ag140
ag140
ag140
ag140
ag140
ag138
ag139
ag140
ag138
ag139
ag138
ag140
ag140
ag138
ag60
ag138
ag139
ag139
ag138
ag60
ag140
ag140
ag139
ag140
ag139
ag139
ag60
ag60
ag140
ag138
ag138
ag60
ag138
ag60
ag139
ag60
ag139
ag139
ag140
ag138
ag138
ag139
ag140
ag140
ag140
ag139
ag138
ag60
ag139
ag139
ag60
ag140
ag140
ag60
ag140
ag60
ag140
ag60
ag138
ag60
ag140
ag139
ag138
ag140
ag139
ag138
ag139
ag139
ag60
ag140
ag140
ag140
ag138
ag60
ag138
ag138
ag139
ag60
ag140
ag60
ag138
ag139
ag139
ag139
ag140
ag60
ag60
ag140
ag139
ag60
ag139
ag140
ag138
ag138
ag140
ag60
ag139
ag140
ag60
ag140
ag138
ag140
ag139
ag60
ag138
ag140
ag140
ag60
ag138
ag138
ag139
ag140
ag140
ag60
ag139
ag139
ag60
ag138
ag140
ag60
ag140
ag139
ag139
ag140
asS'um_after'
p143
(lp144
g138
ag139
ag140
ag140
ag139
ag140
ag140
ag140
ag139
ag139
ag60
ag138
ag140
ag139
ag139
ag60
ag140
ag140
ag60
ag138
ag139
ag140
ag140
ag140
ag140
ag140
ag140
ag138
ag139
ag140
ag138
ag139
ag138
ag140
ag140
ag138
ag60
ag138
ag139
ag139
ag138
ag60
ag140
ag140
ag139
ag140
ag139
ag139
ag60
ag60
ag140
ag138
ag138
ag60
ag138
ag60
ag139
ag60
ag139
ag139
ag140
ag138
ag138
ag139
ag140
ag140
ag140
ag139
ag138
ag60
ag139
ag139
ag60
ag140
ag140
ag60
ag140
ag60
ag140
ag60
ag138
ag60
ag140
ag139
ag138
ag140
ag139
ag138
ag139
ag139
ag60
ag140
ag140
ag140
ag138
ag60
ag138
ag138
ag139
ag60
ag140
ag60
ag138
ag139
ag139
ag139
ag140
ag60
ag60
ag140
ag139
ag60
ag139
ag140
ag138
ag138
ag140
ag60
ag139
ag140
ag60
ag140
ag138
ag140
ag139
ag60
ag138
ag140
ag140
ag60
ag138
ag138
ag139
ag140
ag140
ag60
ag139
ag139
ag60
ag138
ag140
ag60
ag140
ag139
ag139
ag140
asS'is_normalized_entropy_less_than_threshold'
p145
(lp146
g50
(g51
(S'b1'
p147
I0
I1
tp148
Rp149
(I3
S'|'
p150
NNNI-1
I-1
I0
tp151
bS'\x01'
p152
tp153
Rp154
ag154
ag154
ag154
ag154
ag154
ag154
ag154
ag154
ag154
ag154
ag154
ag154
ag154
ag154
ag154
ag154
ag154
ag154
ag154
ag154
ag154
ag154
ag154
ag154
ag154
ag154
ag154
ag154
ag154
ag154
ag154
ag154
ag154
ag154
ag154
ag154
ag154
ag154
ag154
ag154
ag154
ag154
ag154
ag154
ag154
ag154
ag154
ag154
ag154
ag154
ag154
ag154
ag154
ag154
ag154
ag154
ag154
ag154
ag154
ag154
ag154
ag154
ag154
ag154
ag154
ag154
ag154
ag154
ag154
ag154
ag154
ag154
ag154
ag154
ag154
ag154
ag154
ag154
ag154
ag154
ag154
ag154
ag154
ag154
ag154
ag154
ag154
ag154
ag154
ag154
ag154
ag154
ag154
ag154
ag154
ag154
ag154
ag154
ag154
ag154
ag154
ag154
ag154
ag154
ag154
ag154
ag154
ag154
ag154
ag154
ag154
ag154
ag154
ag154
ag154
ag154
ag154
ag154
ag154
ag154
ag154
ag154
ag154
ag154
ag154
ag154
ag154
ag154
ag154
ag154
ag154
ag154
ag154
ag154
ag154
ag154
ag154
ag154
ag154
ag154
ag154
ag154
ag154
ag154
ag154
asaa(lp155
S'index'
p156
aI110380
aatp157
Rp158
.