ccollections
OrderedDict
p0
((lp1
(lp2
S'combination_dict'
p3
ag0
((lp4
(lp5
S'r_to_g_config'
p6
aS'tl'
p7
aa(lp8
S'num_turns'
p9
aI2
aa(lp10
S'start_direction'
p11
acutils_ms
StartDirection
p12
(I1
tp13
Rp14
aa(lp15
S'assistance_type'
p16
acutils_ms
AssistanceType
p17
(I1
tp18
Rp19
aa(lp20
S'start_mode'
p21
aS'x'
p22
aa(lp23
S'ui_given_a_noise'
p24
aF0.7
aa(lp25
S'um_given_ui_noise'
p26
aF0.7
aa(lp27
S'entropy_threshold'
p28
aF0.9
aatp29
Rp30
aa(lp31
S'data'
p32
accollections
defaultdict
p33
(c__builtin__
list
p34
tp35
Rp36
S'a'
p37
(lp38
S'mode_r'
p39
ag39
ag39
aS'move_p'
p40
ag39
ag40
ag39
ag40
ag39
ag39
ag39
ag39
ag40
ag39
aS'move_n'
p41
aS'mode_l'
p42
ag39
ag41
ag42
ag41
ag39
ag39
ag39
ag40
asS'assistance_match_with_ground_truth'
p43
(lp44
I00
aI00
aI01
aI01
aI01
aI00
aI01
aI00
aI00
aI00
aI00
aI01
aI01
aI01
aI00
aI00
aI01
aI00
aI01
aI01
aI00
aI00
aI01
aI01
asS'is_u_intended_equals_um'
p45
(lp46
I00
aI00
aI01
aI00
aI01
aI01
aI01
aI01
aI00
aI00
aI01
aI01
aI00
aI00
aI01
aI01
aI01
aI01
aI00
aI01
aI00
aI01
aI00
aI00
asS'total_steps'
p47
I24
sS'normalized_h_of_p_ui_given_um'
p48
(lp49
cnumpy.core.multiarray
scalar
p50
(cnumpy
dtype
p51
(S'f8'
p52
I0
I1
tp53
Rp54
(I3
S'<'
p55
NNNI-1
I-1
I0
tp56
bS'\xf2\x92b\xf1\x12\x87\xea?'
p57
tp58
Rp59
ag50
(g54
S'\xf2\x92b\xf1\x12\x87\xea?'
p60
tp61
Rp62
ag50
(g54
S'\xa3\xbet\x83\xdc\xba\xdf?'
p63
tp64
Rp65
ag50
(g54
S'\x841\x8e>7\x86\xec?'
p66
tp67
Rp68
ag50
(g54
S'\xa3\xbet\x83\xdc\xba\xdf?'
p69
tp70
Rp71
ag50
(g54
S'\x8b\xaf4R\xe1\x04\xec?'
p72
tp73
Rp74
ag50
(g54
S'\xa3\xbet\x83\xdc\xba\xdf?'
p75
tp76
Rp77
ag50
(g54
S'\x8b\xaf4R\xe1\x04\xec?'
p78
tp79
Rp80
ag50
(g54
S'\xf2\x92b\xf1\x12\x87\xea?'
p81
tp82
Rp83
ag50
(g54
S'\xf2\x92b\xf1\x12\x87\xea?'
p84
tp85
Rp86
ag50
(g54
S'\xc2~\xc3\xa1\xa2\x1e\xe0?'
p87
tp88
Rp89
ag50
(g54
S'\xa3\xbet\x83\xdc\xba\xdf?'
p90
tp91
Rp92
ag50
(g54
S'\x841\x8e>7\x86\xec?'
p93
tp94
Rp95
ag50
(g54
S'Gp\xd3~\xa05\xe8?'
p96
tp97
Rp98
ag50
(g54
S'\t\x0cZ\x10\xca\xb1\xe6?'
p99
tp100
Rp101
ag50
(g54
S'n\x13\xb5N&L\xe8?'
p102
tp103
Rp104
ag50
(g54
S'\xa3\xbet\x83\xdc\xba\xdf?'
p105
tp106
Rp107
ag50
(g54
S'\t\x0cZ\x10\xca\xb1\xe6?'
p108
tp109
Rp110
ag50
(g54
S'\xf6\x95\xb8ark\xe2?'
p111
tp112
Rp113
ag50
(g54
S'\x1f\x9f\xb6\xee\xf8>\xd9?'
p114
tp115
Rp116
ag50
(g54
S'\xf2\x92b\xf1\x12\x87\xea?'
p117
tp118
Rp119
ag50
(g54
S'\xc2~\xc3\xa1\xa2\x1e\xe0?'
p120
tp121
Rp122
ag50
(g54
S'Gp\xd3~\xa05\xe8?'
p123
tp124
Rp125
ag50
(g54
S'\x841\x8e>7\x86\xec?'
p126
tp127
Rp128
asS'sp'
p129
(lp130
(S'p0'
p131
I0
S'x'
p132
tp133
ag133
a(g131
I0
S'y'
p134
tp135
a(S'p1'
p136
I0
g134
tp137
a(g136
I0
S't'
p138
tp139
a(g136
I0
g134
tp140
ag139
ag140
a(g136
I0
g134
tp141
ag141
ag141
ag139
a(g136
F1.5707963267948966
g138
tp142
a(g136
F1.5707963267948966
g132
tp143
a(g136
F1.5707963267948966
g134
tp144
a(g136
F1.5707963267948966
g138
tp145
ag143
ag144
a(g136
F1.5707963267948966
g132
tp146
a(S'p2'
p147
F1.5707963267948966
g132
tp148
a(g147
F1.5707963267948966
g132
tp149
ag149
a(g147
F1.5707963267948966
g134
tp150
a(S'p3'
p151
F1.5707963267948966
g134
tp152
asS's'
p153
(lp154
(g131
I0
g22
tp155
ag133
ag133
ag135
ag137
ag139
ag140
ag139
ag140
ag141
ag141
ag141
ag139
ag142
ag143
ag144
ag145
ag143
ag144
ag146
ag148
ag149
ag149
ag150
asS'ui'
p156
(lp157
S'hp'
p158
ag129
ag158
aS'hs'
p159
ag158
ag158
ag158
ag159
aS'ss'
p160
ag158
ag129
ag159
ag129
ag158
ag129
ag158
ag158
ag160
ag159
ag129
ag160
ag129
ag158
ag129
asS'um_before'
p161
(lp162
g160
ag160
ag158
ag158
ag158
ag159
ag158
ag159
ag160
ag160
ag129
ag158
ag158
ag159
ag158
ag158
ag158
ag158
ag129
ag160
ag160
ag129
ag159
ag158
asS'um_after'
p163
(lp164
g129
ag129
ag158
ag129
ag158
ag159
ag158
ag159
ag129
ag129
ag129
ag158
ag129
ag158
ag158
ag158
ag158
ag158
ag159
ag160
ag129
ag129
ag158
ag129
asS'is_normalized_entropy_less_than_threshold'
p165
(lp166
g50
(g51
(S'b1'
p167
I0
I1
tp168
Rp169
(I3
S'|'
p170
NNNI-1
I-1
I0
tp171
bS'\x01'
p172
tp173
Rp174
ag174
ag174
ag174
ag174
ag174
ag174
ag174
ag174
ag174
ag174
ag174
ag174
ag174
ag174
ag174
ag174
ag174
ag174
ag174
ag174
ag174
ag174
ag174
asaa(lp175
S'index'
p176
aI45599
aatp177
Rp178
.