ccollections
OrderedDict
p0
((lp1
(lp2
S'combination_dict'
p3
ag0
((lp4
(lp5
S'r_to_g_config'
p6
aS'tr'
p7
aa(lp8
S'num_turns'
p9
aI2
aa(lp10
S'start_direction'
p11
acutils_ms
StartDirection
p12
(I0
tp13
Rp14
aa(lp15
S'assistance_type'
p16
acutils_ms
AssistanceType
p17
(I0
tp18
Rp19
aa(lp20
S'start_mode'
p21
aS't'
p22
aa(lp23
S'ui_given_a_noise'
p24
aF0.7
aa(lp25
S'um_given_ui_noise'
p26
aF0.3
aa(lp27
S'entropy_threshold'
p28
aF0.5
aatp29
Rp30
aa(lp31
S'data'
p32
accollections
defaultdict
p33
(c__builtin__
list
p34
tp35
Rp36
S'a'
p37
(lp38
S'mode_r'
p39
ag39
aS'move_p'
p40
ag40
ag39
aS'mode_l'
p41
ag41
ag39
ag39
ag39
ag41
ag41
ag41
ag40
ag39
ag39
ag41
ag40
ag39
ag40
ag39
ag40
ag39
ag39
ag40
ag39
ag40
ag41
ag39
ag40
ag39
ag41
ag41
ag40
ag39
ag40
ag40
ag41
ag40
ag40
ag39
ag39
ag41
ag40
ag39
ag41
ag41
ag39
ag40
ag41
ag40
ag39
ag41
ag40
ag41
ag41
ag40
ag41
ag39
ag41
ag41
ag41
ag40
ag39
ag39
ag40
ag39
ag40
asS'assistance_match_with_ground_truth'
p42
(lp43
I00
aI01
aI00
aI00
aI00
aI00
aI00
aI00
aI00
aI00
aI00
aI00
aI01
aI00
aI00
aI00
aI01
aI00
aI01
aI00
aI01
aI00
aI00
aI01
aI00
aI01
aI00
aI00
aI01
aI01
aI00
aI00
aI01
aI01
aI01
aI00
aI00
aI01
aI00
aI00
aI00
aI00
aI01
aI00
aI00
aI00
aI00
aI01
aI00
aI01
aI01
aI00
aI01
aI00
aI00
aI01
aI00
aI00
aI00
aI00
aI00
aI01
aI01
aI00
aI01
aI01
aI01
aI01
asS'is_u_intended_equals_um'
p44
(lp45
I01
aI01
aI01
aI00
aI01
aI01
aI00
aI01
aI01
aI01
aI00
aI01
aI01
aI00
aI01
aI01
aI01
aI00
aI01
aI00
aI01
aI00
aI01
aI01
aI00
aI01
aI01
aI00
aI01
aI01
aI01
aI01
aI01
aI01
aI01
aI01
aI01
aI01
aI01
aI00
aI01
aI01
aI01
aI00
aI01
aI00
aI01
aI01
aI01
aI01
aI01
aI01
aI01
aI01
aI00
aI01
aI01
aI00
aI01
aI01
aI01
aI01
aI01
aI01
aI01
aI01
aI01
aI01
asS'total_steps'
p46
I68
sS'normalized_h_of_p_ui_given_um'
p47
(lp48
cnumpy.core.multiarray
scalar
p49
(cnumpy
dtype
p50
(S'f8'
p51
I0
I1
tp52
Rp53
(I3
S'<'
p54
NNNI-1
I-1
I0
tp55
bS'\xd4\xd5\xff\x86\xdfV\xe5?'
p56
tp57
Rp58
ag49
(g53
S'\xce\\"g\x17\x1a\xdc?'
p59
tp60
Rp61
ag49
(g53
S'\xad\xa0%\x84\x1bA\xe4?'
p62
tp63
Rp64
ag49
(g53
S'\x7f\xf6\x89\xfe\xbf,\xea?'
p65
tp66
Rp67
ag49
(g53
S'7+\xd8#\xeb:\xe3?'
p68
tp69
Rp70
ag49
(g53
S'\xc3\x8eS\x8f)\x81\xe0?'
p71
tp72
Rp73
ag49
(g53
S'\x1a\xc0\xea\x0eJ[\xe3?'
p74
tp75
Rp76
ag49
(g53
S'8~\xed-n\xdc\xe7?'
p77
tp78
Rp79
ag49
(g53
S'8~\xed-n\xdc\xe7?'
p80
tp81
Rp82
ag49
(g53
S'7+\xd8#\xeb:\xe3?'
p83
tp84
Rp85
ag49
(g53
S'\xe2\x7fy\xa9u<\xdf?'
p86
tp87
Rp88
ag49
(g53
S'\xc3\x8eS\x8f)\x81\xe0?'
p89
tp90
Rp91
ag49
(g53
S'B\x01\xf4\x1a&b\xc2?'
p92
tp93
Rp94
ag49
(g53
S'\x7f\xf6\x89\xfe\xbf,\xea?'
p95
tp96
Rp97
ag49
(g53
S'\xd4\xd5\xff\x86\xdfV\xe5?'
p98
tp99
Rp100
ag49
(g53
S'7+\xd8#\xeb:\xe3?'
p101
tp102
Rp103
ag49
(g53
S'B\x01\xf4\x1a&b\xc2?'
p104
tp105
Rp106
ag49
(g53
S'\x7f\xf6\x89\xfe\xbf,\xea?'
p107
tp108
Rp109
ag49
(g53
S'\xce\\"g\x17\x1a\xdc?'
p110
tp111
Rp112
ag49
(g53
S'\x7f\xf6\x89\xfe\xbf,\xea?'
p113
tp114
Rp115
ag49
(g53
S'\xce\\"g\x17\x1a\xdc?'
p116
tp117
Rp118
ag49
(g53
S'\x7f\xf6\x89\xfe\xbf,\xea?'
p119
tp120
Rp121
ag49
(g53
S'8~\xed-n\xdc\xe7?'
p122
tp123
Rp124
ag49
(g53
S'\xce\\"g\x17\x1a\xdc?'
p125
tp126
Rp127
ag49
(g53
S'\x7f\xf6\x89\xfe\xbf,\xea?'
p128
tp129
Rp130
ag49
(g53
S'\xce\\"g\x17\x1a\xdc?'
p131
tp132
Rp133
ag49
(g53
S'n\xdb<\xbco\x06\xe8?'
p134
tp135
Rp136
ag49
(g53
S'\x1a\xc0\xea\x0eJ[\xe3?'
p137
tp138
Rp139
ag49
(g53
S'\xce\\"g\x17\x1a\xdc?'
p140
tp141
Rp142
ag49
(g53
S'\xae\xf7%\xb8\x1fJ\xc2?'
p143
tp144
Rp145
ag49
(g53
S'7+\xd8#\xeb:\xe3?'
p146
tp147
Rp148
ag49
(g53
S'\xc3\x8eS\x8f)\x81\xe0?'
p149
tp150
Rp151
ag49
(g53
S'B\x01\xf4\x1a&b\xc2?'
p152
tp153
Rp154
ag49
(g53
S'\xae\xf7%\xb8\x1fJ\xc2?'
p155
tp156
Rp157
ag49
(g53
S'\xce\\"g\x17\x1a\xdc?'
p158
tp159
Rp160
ag49
(g53
S'\xad\xa0%\x84\x1bA\xe4?'
p161
tp162
Rp163
ag49
(g53
S'n\xdb<\xbco\x06\xe8?'
p164
tp165
Rp166
ag49
(g53
S'B\x01\xf4\x1a&b\xc2?'
p167
tp168
Rp169
ag49
(g53
S'\xad\xa0%\x84\x1bA\xe4?'
p170
tp171
Rp172
ag49
(g53
S'\x7f\xf6\x89\xfe\xbf,\xea?'
p173
tp174
Rp175
ag49
(g53
S'8~\xed-n\xdc\xe7?'
p176
tp177
Rp178
ag49
(g53
S'7+\xd8#\xeb:\xe3?'
p179
tp180
Rp181
ag49
(g53
S'B\x01\xf4\x1a&b\xc2?'
p182
tp183
Rp184
ag49
(g53
S'\x7f\xf6\x89\xfe\xbf,\xea?'
p185
tp186
Rp187
ag49
(g53
S'7+\xd8#\xeb:\xe3?'
p188
tp189
Rp190
ag49
(g53
S'\xe2\x7fy\xa9u<\xdf?'
p191
tp192
Rp193
ag49
(g53
S'\xc3\x8eS\x8f)\x81\xe0?'
p194
tp195
Rp196
ag49
(g53
S'\xce\\"g\x17\x1a\xdc?'
p197
tp198
Rp199
ag49
(g53
S'\xad\xa0%\x84\x1bA\xe4?'
p200
tp201
Rp202
ag49
(g53
S'B\x01\xf4\x1a&b\xc2?'
p203
tp204
Rp205
ag49
(g53
S'\xae\xf7%\xb8\x1fJ\xc2?'
p206
tp207
Rp208
ag49
(g53
S'7+\xd8#\xeb:\xe3?'
p209
tp210
Rp211
ag49
(g53
S'B\x01\xf4\x1a&b\xc2?'
p212
tp213
Rp214
ag49
(g53
S'n\xdb<\xbco\x06\xe8?'
p215
tp216
Rp217
ag49
(g53
S'\xe2\x7fy\xa9u<\xdf?'
p218
tp219
Rp220
ag49
(g53
S'B\x01\xf4\x1a&b\xc2?'
p221
tp222
Rp223
ag49
(g53
S'n\xdb<\xbco\x06\xe8?'
p224
tp225
Rp226
ag49
(g53
S'\x1a\xc0\xea\x0eJ[\xe3?'
p227
tp228
Rp229
ag49
(g53
S'7+\xd8#\xeb:\xe3?'
p230
tp231
Rp232
ag49
(g53
S'\xc3\x8eS\x8f)\x81\xe0?'
p233
tp234
Rp235
ag49
(g53
S'\xc3\x8eS\x8f)\x81\xe0?'
p236
tp237
Rp238
ag49
(g53
S'B\x01\xf4\x1a&b\xc2?'
p239
tp240
Rp241
ag49
(g53
S'\xae\xf7%\xb8\x1fJ\xc2?'
p242
tp243
Rp244
ag49
(g53
S'8~\xed-n\xdc\xe7?'
p245
tp246
Rp247
ag49
(g53
S'\xce\\"g\x17\x1a\xdc?'
p248
tp249
Rp250
ag49
(g53
S'\xae\xf7%\xb8\x1fJ\xc2?'
p251
tp252
Rp253
ag49
(g53
S'\xce\\"g\x17\x1a\xdc?'
p254
tp255
Rp256
ag49
(g53
S'\xae\xf7%\xb8\x1fJ\xc2?'
p257
tp258
Rp259
asS'sp'
p260
(lp261
(S'p0'
p262
I0
S't'
p263
tp264
a(g262
I0
S'x'
p265
tp266
a(g262
I0
g265
tp267
a(g262
I0
g263
tp268
a(g262
I0
S'y'
p269
tp270
a(g262
I0
g269
tp271
a(g262
I0
g263
tp272
a(g262
I0
g263
tp273
ag273
ag270
ag270
ag271
a(g262
I0
g265
tp274
ag268
ag264
ag270
ag274
ag268
ag266
ag268
ag266
ag268
ag273
ag266
ag268
ag266
a(g262
I0
g269
tp275
ag272
ag266
a(S'p1'
p276
I0
g265
tp277
a(g276
I0
g263
tp278
a(g276
I0
g263
tp279
a(g276
I0
g269
tp280
a(S'p2'
p281
I0
g269
tp282
a(g281
I0
g263
tp283
a(g281
I0
g263
tp284
a(g281
I0
g265
tp285
a(g281
I0
g263
tp286
ag284
a(g281
I0
g269
tp287
a(g281
I0
g269
tp288
a(g281
I0
g265
tp289
ag286
ag287
ag289
ag289
a(g276
I0
g265
tp290
a(g276
I0
g269
tp291
a(g262
I0
g269
tp292
ag274
ag277
ag278
ag280
a(g276
I0
g263
tp293
ag293
ag280
ag293
a(g276
I0
g265
tp294
ag278
ag279
ag279
ag280
ag282
ag288
ag283
a(g281
F1.5707963267948966
g263
tp295
a(g281
F1.5707963267948966
g265
tp296
a(S'p3'
p297
F1.5707963267948966
g265
tp298
asS's'
p299
(lp300
(g262
I0
g22
tp301
ag264
ag266
ag267
ag268
ag270
ag271
ag272
ag273
ag273
ag270
ag270
ag271
ag274
ag268
ag264
ag270
ag274
ag268
ag266
ag268
ag266
ag268
ag273
ag266
ag268
ag266
ag275
ag272
ag266
ag277
ag278
ag279
ag280
ag282
ag283
ag284
ag285
ag286
ag284
ag287
ag288
ag289
ag286
ag287
ag289
ag289
ag290
ag291
ag292
ag274
ag277
ag278
ag280
ag293
ag293
ag280
ag293
ag294
ag278
ag279
ag279
ag280
ag282
ag288
ag283
ag295
ag296
asS'ui'
p302
(lp303
g260
aS'hp'
p304
aS'ss'
p305
ag304
aS'hs'
p306
ag305
ag306
ag304
ag305
ag304
ag306
ag305
ag306
ag260
ag305
ag306
ag306
ag304
ag304
ag306
ag304
ag260
ag306
ag304
ag306
ag304
ag305
ag306
ag304
ag260
ag305
ag305
ag306
ag260
ag304
ag260
ag304
ag306
ag305
ag306
ag305
ag306
ag306
ag260
ag305
ag306
ag306
ag304
ag305
ag306
ag260
ag306
ag306
ag304
ag306
ag306
ag305
ag304
ag306
ag305
ag305
ag306
ag260
ag305
ag304
ag260
ag304
ag260
asS'um_before'
p307
(lp308
g260
ag304
ag305
ag306
ag306
ag305
ag304
ag305
ag305
ag306
ag260
ag305
ag306
ag306
ag260
ag306
ag306
ag306
ag304
ag306
ag304
ag306
ag305
ag304
ag306
ag304
ag304
ag304
ag304
ag260
ag306
ag305
ag306
ag260
ag304
ag305
ag304
ag306
ag305
ag306
ag305
ag306
ag306
ag306
ag306
ag260
ag305
ag304
ag305
ag306
ag260
ag306
ag306
ag304
ag260
ag306
ag304
ag304
ag306
ag305
ag305
ag306
ag260
ag305
ag304
ag260
ag304
ag260
asS'um_after'
p309
(lp310
g260
ag304
ag305
ag306
ag306
ag305
ag304
ag305
ag305
ag306
aNag305
ag306
ag306
ag260
ag306
ag306
ag306
ag304
ag306
ag304
ag306
ag305
ag304
ag306
ag304
ag304
ag304
ag304
ag260
ag306
ag305
ag306
ag260
ag304
ag305
ag304
ag306
ag305
ag306
ag305
ag306
ag306
ag306
ag306
aNag305
ag304
ag305
ag306
ag260
ag306
ag306
ag304
aNag306
ag304
ag304
ag306
ag305
ag305
ag306
ag260
ag305
ag304
ag260
ag304
ag260
asS'is_normalized_entropy_less_than_threshold'
p311
(lp312
g49
(g50
(S'b1'
p313
I0
I1
tp314
Rp315
(I3
S'|'
p316
NNNI-1
I-1
I0
tp317
bS'\x00'
p318
tp319
Rp320
ag49
(g315
S'\x01'
p321
tp322
Rp323
ag320
ag320
ag320
ag320
ag320
ag320
ag320
ag320
ag323
ag320
ag323
ag320
ag320
ag320
ag323
ag320
ag323
ag320
ag323
ag320
ag320
ag323
ag320
ag323
ag320
ag320
ag323
ag323
ag320
ag320
ag323
ag323
ag323
ag320
ag320
ag323
ag320
ag320
ag320
ag320
ag323
ag320
ag320
ag323
ag320
ag323
ag320
ag323
ag323
ag320
ag323
ag320
ag323
ag323
ag320
ag320
ag320
ag320
ag320
ag323
ag323
ag320
ag323
ag323
ag323
ag323
asaa(lp324
S'index'
p325
aI10259
aatp326
Rp327
.