ccollections
OrderedDict
p0
((lp1
(lp2
S'combination_dict'
p3
ag0
((lp4
(lp5
S'r_to_g_config'
p6
aS'tl'
p7
aa(lp8
S'num_turns'
p9
aI3
aa(lp10
S'start_direction'
p11
acutils_ms
StartDirection
p12
(I1
tp13
Rp14
aa(lp15
S'assistance_type'
p16
acutils_ms
AssistanceType
p17
(I0
tp18
Rp19
aa(lp20
S'start_mode'
p21
aS'x'
p22
aa(lp23
S'ui_given_a_noise'
p24
aF0.7
aa(lp25
S'um_given_ui_noise'
p26
aF0.5
aa(lp27
S'entropy_threshold'
p28
aF0.6
aatp29
Rp30
aa(lp31
S'data'
p32
accollections
defaultdict
p33
(c__builtin__
list
p34
tp35
Rp36
S'a'
p37
(lp38
S'mode_r'
p39
aS'mode_l'
p40
aS'move_p'
p41
ag39
ag39
ag41
ag41
ag40
aS'move_n'
p42
ag40
ag40
ag42
ag39
ag40
ag41
ag39
ag39
ag40
ag41
ag40
ag39
ag39
ag39
ag39
ag41
ag39
ag40
ag41
ag40
ag41
ag39
ag40
ag39
ag40
ag41
ag39
ag41
ag39
ag40
ag40
ag40
ag40
asS'assistance_match_with_ground_truth'
p43
(lp44
I00
aI01
aI00
aI00
aI01
aI00
aI01
aI01
aI00
aI00
aI01
aI01
aI00
aI01
aI01
aI00
aI00
aI01
aI00
aI00
aI00
aI00
aI00
aI01
aI00
aI00
aI01
aI00
aI01
aI01
aI00
aI00
aI00
aI01
aI01
aI01
aI00
aI00
aI00
aI00
aI00
aI00
asS'is_u_intended_equals_um'
p45
(lp46
I01
aI01
aI00
aI01
aI01
aI00
aI01
aI01
aI01
aI01
aI01
aI01
aI01
aI01
aI01
aI01
aI01
aI01
aI00
aI01
aI01
aI01
aI01
aI01
aI00
aI01
aI01
aI00
aI01
aI01
aI01
aI01
aI01
aI01
aI01
aI01
aI00
aI01
aI00
aI00
aI00
aI00
asS'total_steps'
p47
I42
sS'normalized_h_of_p_ui_given_um'
p48
(lp49
cnumpy.core.multiarray
scalar
p50
(cnumpy
dtype
p51
(S'f8'
p52
I0
I1
tp53
Rp54
(I3
S'<'
p55
NNNI-1
I-1
I0
tp56
bS'\xfey\x19\xb5\x1e|\xec?'
p57
tp58
Rp59
ag50
(g54
S'\xbe\x94l^=2\xd3?'
p60
tp61
Rp62
ag50
(g54
S'\x8b\x81\x06/\xd0w\xe3?'
p63
tp64
Rp65
ag50
(g54
S'\xf4^\x07\x8a\n\xf6\xe7?'
p66
tp67
Rp68
ag50
(g54
S'\x91OUu^\x1d\xe9?'
p69
tp70
Rp71
ag50
(g54
S'Z\xa3!u\x84\xd1\xe8?'
p72
tp73
Rp74
ag50
(g54
S'\x95^\xd4\xa6\x19\x84\xd0?'
p75
tp76
Rp77
ag50
(g54
S'\xbe\x94l^=2\xd3?'
p78
tp79
Rp80
ag50
(g54
S'L^_4ov\xed?'
p81
tp82
Rp83
ag50
(g54
S'd\xc9\x95\xf9\xec\n\xd9?'
p84
tp85
Rp86
ag50
(g54
S'\xbe\x94l^=2\xd3?'
p87
tp88
Rp89
ag50
(g54
S'z\xe76X\xe8{\xe1?'
p90
tp91
Rp92
ag50
(g54
S'\xfey\x19\xb5\x1e|\xec?'
p93
tp94
Rp95
ag50
(g54
S'\xbe\x94l^=2\xd3?'
p96
tp97
Rp98
ag50
(g54
S'\x95^\xd4\xa6\x19\x84\xd0?'
p99
tp100
Rp101
ag50
(g54
S'\xf4^\x07\x8a\n\xf6\xe7?'
p102
tp103
Rp104
ag50
(g54
S'\xfey\x19\xb5\x1e|\xec?'
p105
tp106
Rp107
ag50
(g54
S'\xbe\x94l^=2\xd3?'
p108
tp109
Rp110
ag50
(g54
S'\xe5\xcb\xce[\x9av\xe7?'
p111
tp112
Rp113
ag50
(g54
S'd\xc9\x95\xf9\xec\n\xd9?'
p114
tp115
Rp116
ag50
(g54
S'\x8e^4\xa7w\xf3\xe6?'
p117
tp118
Rp119
ag50
(g54
S'\x8e^4\xa7w\xf3\xe6?'
p120
tp121
Rp122
ag50
(g54
S'\x8e^4\xa7w\xf3\xe6?'
p123
tp124
Rp125
ag50
(g54
S'\x91OUu^\x1d\xe9?'
p126
tp127
Rp128
ag50
(g54
S'\x8b\x81\x06/\xd0w\xe3?'
p129
tp130
Rp131
ag50
(g54
S'\xfey\x19\xb5\x1e|\xec?'
p132
tp133
Rp134
ag50
(g54
S'\xbe\x94l^=2\xd3?'
p135
tp136
Rp137
ag50
(g54
S'\xe5\xcb\xce[\x9av\xe7?'
p138
tp139
Rp140
ag50
(g54
S'\xbe\x94l^=2\xd3?'
p141
tp142
Rp143
ag50
(g54
S'\x95^\xd4\xa6\x19\x84\xd0?'
p144
tp145
Rp146
ag50
(g54
S'\xfey\x19\xb5\x1e|\xec?'
p147
tp148
Rp149
ag50
(g54
S'd\xc9\x95\xf9\xec\n\xd9?'
p150
tp151
Rp152
ag50
(g54
S'\xfey\x19\xb5\x1e|\xec?'
p153
tp154
Rp155
ag50
(g54
S'\xbe\x94l^=2\xd3?'
p156
tp157
Rp158
ag50
(g54
S'\x95^\xd4\xa6\x19\x84\xd0?'
p159
tp160
Rp161
ag50
(g54
S'\x91OUu^\x1d\xe9?'
p162
tp163
Rp164
ag50
(g54
S'\x8b\x81\x06/\xd0w\xe3?'
p165
tp166
Rp167
ag50
(g54
S'\xfey\x19\xb5\x1e|\xec?'
p168
tp169
Rp170
ag50
(g54
S'\xcc\xcb\x08\xddo\xfb\xe1?'
p171
tp172
Rp173
ag50
(g54
S'\xcc\xcb\x08\xddo\xfb\xe1?'
p174
tp175
Rp176
ag50
(g54
S'\xcc\xcb\x08\xddo\xfb\xe1?'
p177
tp178
Rp179
ag50
(g54
S'\x8c\x15\xf4\xac\x0e\xf9\xe9?'
p180
tp181
Rp182
asS'sp'
p183
(lp184
(S'p0'
p185
I0
S't'
p186
tp187
a(g185
I0
S'y'
p188
tp189
a(g185
I0
S'x'
p190
tp191
a(g185
I0
g190
tp192
a(g185
I0
g188
tp193
a(g185
I0
g188
tp194
a(S'p1'
p195
I0
g188
tp196
a(g195
I0
g190
tp197
a(g195
I0
g188
tp198
a(g195
I0
g188
tp199
ag197
a(S'p2'
p200
I0
g190
tp201
a(g200
I0
g186
tp202
a(g200
I0
g188
tp203
a(S'p3'
p204
I0
g188
tp205
a(g204
I0
g188
tp206
a(g204
I0
g190
tp207
a(g204
I0
g186
tp208
a(g204
I0
g190
tp209
a(g200
I0
g190
tp210
a(g200
I0
g190
tp211
ag211
ag211
a(g200
I0
g188
tp212
a(g200
I0
g190
tp213
ag202
ag203
a(g200
I0
g186
tp214
ag203
ag205
ag207
ag210
ag202
ag203
ag205
a(g204
I0
g186
tp215
a(g204
I0
g188
tp216
ag207
ag207
ag207
ag207
a(S'p4'
p217
I0
g190
tp218
asS's'
p219
(lp220
(g185
I0
g22
tp221
ag187
ag189
ag191
ag192
ag193
ag194
ag196
ag197
ag198
ag199
ag197
ag201
ag202
ag203
ag205
ag206
ag207
ag208
ag209
ag210
ag211
ag211
ag211
ag212
ag213
ag202
ag203
ag214
ag203
ag205
ag207
ag210
ag202
ag203
ag205
ag215
ag216
ag207
ag207
ag207
ag207
asS'ui'
p222
(lp223
g183
aS'hs'
p224
ag183
ag183
aS'hp'
p225
ag183
ag183
ag224
aS'ss'
p226
ag183
ag224
ag226
ag224
ag183
ag183
ag225
ag224
ag224
ag224
ag183
ag225
ag225
ag225
ag225
ag183
ag225
ag224
ag225
ag183
ag183
ag224
ag183
ag183
ag225
ag183
ag225
ag183
ag224
ag224
ag224
ag224
ag183
asS'um_before'
p227
(lp228
g224
ag224
ag224
ag226
ag225
ag226
ag183
ag224
ag225
ag183
ag224
ag226
ag224
ag224
ag183
ag226
ag224
ag224
ag225
ag183
ag183
ag183
ag183
ag225
ag224
ag224
ag224
ag225
ag224
ag183
ag224
ag183
ag224
ag224
ag183
ag225
ag224
ag224
ag225
ag225
ag225
ag226
asS'um_after'
p229
(lp230
g224
ag224
ag224
ag226
ag225
ag226
ag183
ag224
ag225
ag183
ag224
ag226
ag224
ag224
ag183
ag226
ag224
ag224
ag225
ag183
ag183
ag183
ag183
ag225
ag224
ag224
ag224
ag225
ag224
ag183
ag224
ag183
ag224
ag224
ag183
ag225
ag224
ag224
aNaNaNag226
asS'is_normalized_entropy_less_than_threshold'
p231
(lp232
g50
(g51
(S'b1'
p233
I0
I1
tp234
Rp235
(I3
S'|'
p236
NNNI-1
I-1
I0
tp237
bS'\x00'
p238
tp239
Rp240
ag50
(g235
S'\x01'
p241
tp242
Rp243
ag240
ag240
ag240
ag240
ag243
ag243
ag240
ag243
ag243
ag243
ag240
ag243
ag243
ag240
ag240
ag243
ag240
ag243
ag240
ag240
ag240
ag240
ag240
ag240
ag243
ag240
ag243
ag243
ag240
ag243
ag240
ag243
ag243
ag240
ag240
ag240
ag243
ag243
ag243
ag240
asaa(lp244
S'index'
p245
aI53518
aatp246
Rp247
.