ccollections
OrderedDict
p0
((lp1
(lp2
S'combination_dict'
p3
ag0
((lp4
(lp5
S'r_to_g_config'
p6
aS'tr'
p7
aa(lp8
S'num_turns'
p9
aI3
aa(lp10
S'start_direction'
p11
acutils_ms
StartDirection
p12
(I1
tp13
Rp14
aa(lp15
S'assistance_type'
p16
acutils_ms
AssistanceType
p17
(I2
tp18
Rp19
aa(lp20
S'start_mode'
p21
aS't'
p22
aa(lp23
S'ui_given_a_noise'
p24
aF0.3
aa(lp25
S'um_given_ui_noise'
p26
aF0.5
aa(lp27
S'entropy_threshold'
p28
aF0.9
aatp29
Rp30
aa(lp31
S'data'
p32
accollections
defaultdict
p33
(c__builtin__
list
p34
tp35
Rp36
S'a'
p37
(lp38
S'mode_l'
p39
aS'move_p'
p40
ag39
ag39
ag40
ag39
ag40
ag39
ag40
aS'mode_r'
p41
ag39
ag40
ag41
ag39
ag40
ag39
ag40
ag39
ag40
ag41
ag39
ag40
ag40
ag39
ag41
ag40
ag39
ag40
ag41
ag41
ag41
ag40
ag39
ag40
ag41
ag41
ag39
ag40
ag39
ag40
ag39
ag39
ag40
ag41
ag39
ag41
ag41
ag40
ag41
ag40
ag39
ag39
ag39
ag41
ag41
ag40
ag41
ag40
ag39
ag40
ag41
ag41
ag40
ag41
ag40
ag41
ag39
ag40
ag39
ag40
ag41
ag39
ag39
ag40
ag40
ag39
ag41
ag40
ag41
ag41
ag40
ag41
ag41
ag40
ag41
ag40
ag39
ag40
ag41
ag40
ag39
ag39
ag39
ag40
ag41
ag39
ag39
ag40
ag41
ag40
ag39
ag41
ag39
ag39
ag40
ag39
ag39
ag40
ag41
ag40
ag39
ag40
ag41
ag41
ag40
ag41
ag39
ag41
ag40
ag41
ag39
ag41
ag39
ag39
ag40
ag39
ag40
asS'assistance_match_with_ground_truth'
p42
(lp43
I01
aI01
aI00
aI01
aI01
aI01
aI00
aI01
aI00
aI00
aI01
aI00
aI00
aI01
aI00
aI01
aI00
aI01
aI00
aI00
aI01
aI00
aI01
aI00
aI01
aI00
aI01
aI01
aI00
aI00
aI01
aI00
aI01
aI01
aI00
aI00
aI00
aI01
aI01
aI00
aI00
aI01
aI00
aI00
aI00
aI00
aI01
aI01
aI01
aI01
aI00
aI00
aI00
aI00
aI01
aI00
aI01
aI00
aI01
aI00
aI00
aI01
aI01
aI01
aI00
aI00
aI01
aI00
aI01
aI00
aI00
aI00
aI01
aI00
aI01
aI00
aI01
aI00
aI00
aI01
aI00
aI00
aI01
aI01
aI01
aI00
aI01
aI01
aI01
aI00
aI00
aI00
aI01
aI00
aI00
aI00
aI01
aI01
aI01
aI01
aI00
aI00
aI00
aI01
aI00
aI00
aI01
aI00
aI01
aI00
aI01
aI00
aI00
aI01
aI00
aI00
aI00
aI01
aI00
aI00
aI00
aI00
aI00
aI01
aI00
aI01
aI01
asS'is_u_intended_equals_um'
p44
(lp45
I00
aI00
aI00
aI00
aI00
aI00
aI00
aI00
aI00
aI00
aI00
aI00
aI00
aI00
aI00
aI00
aI00
aI00
aI00
aI00
aI00
aI00
aI00
aI00
aI00
aI00
aI00
aI00
aI00
aI00
aI00
aI00
aI00
aI00
aI00
aI00
aI00
aI00
aI00
aI00
aI00
aI00
aI00
aI00
aI00
aI00
aI00
aI00
aI00
aI00
aI00
aI00
aI00
aI00
aI00
aI00
aI00
aI00
aI00
aI00
aI00
aI00
aI00
aI00
aI00
aI00
aI00
aI00
aI00
aI00
aI00
aI00
aI00
aI00
aI00
aI00
aI00
aI00
aI00
aI00
aI00
aI00
aI00
aI00
aI00
aI00
aI00
aI00
aI00
aI00
aI00
aI00
aI00
aI00
aI00
aI00
aI00
aI00
aI00
aI00
aI00
aI00
aI00
aI00
aI00
aI00
aI00
aI00
aI00
aI00
aI00
aI00
aI00
aI00
aI00
aI00
aI00
aI00
aI00
aI00
aI00
aI00
aI00
aI00
aI00
aI00
aI00
asS'total_steps'
p46
I127
sS'normalized_h_of_p_ui_given_um'
p47
(lp48
cnumpy.core.multiarray
scalar
p49
(cnumpy
dtype
p50
(S'f8'
p51
I0
I1
tp52
Rp53
(I3
S'<'
p54
NNNI-1
I-1
I0
tp55
bS'\rA\xc3\xd2\xcb\xa1\xe6?'
p56
tp57
Rp58
ag58
ag58
ag58
ag58
ag58
ag58
ag58
ag58
ag58
ag58
ag58
ag58
ag58
ag58
ag58
ag58
ag58
ag58
ag58
ag58
ag58
ag58
ag58
ag58
ag58
ag58
ag58
ag58
ag58
ag58
ag58
ag58
ag58
ag58
ag58
ag58
ag58
ag58
ag58
ag58
ag58
ag58
ag58
ag58
ag58
ag58
ag58
ag58
ag58
ag58
ag58
ag58
ag58
ag58
ag58
ag58
ag58
ag58
ag58
ag58
ag58
ag58
ag58
ag58
ag58
ag58
ag58
ag58
ag58
ag58
ag58
ag58
ag58
ag58
ag58
ag58
ag58
ag58
ag58
ag58
ag58
ag58
ag58
ag58
ag58
ag58
ag58
ag58
ag58
ag58
ag58
ag58
ag58
ag58
ag58
ag58
ag58
ag58
ag58
ag58
ag58
ag58
ag58
ag58
ag58
ag58
ag58
ag58
ag58
ag58
ag58
ag58
ag58
ag58
ag58
ag58
ag58
ag58
ag58
ag58
ag58
ag58
ag58
ag58
ag58
ag58
asS'sp'
p59
(lp60
(S'p0'
p61
I0
S'y'
p62
tp63
a(S'p1'
p64
I0
g62
tp65
a(g64
I0
g62
tp66
a(g64
I0
S'x'
p67
tp68
a(S'p2'
p69
I0
g67
tp70
a(g69
I0
S't'
p71
tp72
a(g69
I0
g67
tp73
ag72
a(g69
I0
g62
tp74
a(S'p3'
p75
I0
g62
tp76
a(g75
I0
g67
tp77
a(g75
I0
g71
tp78
a(g75
I0
g62
tp79
ag77
a(g75
I0
g62
tp80
ag77
a(g69
I0
g67
tp81
ag72
ag74
a(g69
I0
g67
tp82
ag72
a(g69
I0
g71
tp83
a(g69
F1.5707963267948966
g71
tp84
a(g69
F1.5707963267948966
g67
tp85
a(g69
F1.5707963267948966
g62
tp86
a(g64
F1.5707963267948966
g62
tp87
a(g64
F1.5707963267948966
g67
tp88
a(g69
F1.5707963267948966
g67
tp89
a(g69
F1.5707963267948966
g67
tp90
ag90
ag86
ag87
ag88
ag89
ag90
a(g69
F1.5707963267948966
g71
tp91
a(g69
I0
g71
tp92
ag84
a(g69
F1.5707963267948966
g62
tp93
ag87
a(g64
F1.5707963267948966
g62
tp94
ag88
a(g64
F1.5707963267948966
g71
tp95
a(g64
F1.5707963267948966
g62
tp96
a(g64
F1.5707963267948966
g71
tp97
a(g64
F1.5707963267948966
g71
tp98
a(g64
F1.5707963267948966
g67
tp99
ag89
ag86
a(g75
F1.5707963267948966
g62
tp100
a(g75
F1.5707963267948966
g62
tp101
ag101
a(g75
F1.5707963267948966
g71
tp102
a(g75
F1.5707963267948966
g71
tp103
a(g75
F1.5707963267948966
g67
tp104
a(g69
F1.5707963267948966
g67
tp105
ag86
ag87
ag88
ag95
ag98
ag99
ag89
ag86
a(g69
F1.5707963267948966
g67
tp106
ag91
ag93
ag87
ag88
a(g61
F1.5707963267948966
g67
tp107
a(g61
F1.5707963267948966
g71
tp108
a(g61
F1.5707963267948966
g71
tp109
a(g61
F1.5707963267948966
g62
tp110
a(g61
F1.5707963267948966
g62
tp111
a(g64
F1.5707963267948966
g62
tp112
ag97
ag99
ag95
a(g64
F1.5707963267948966
g71
tp113
ag99
ag95
ag113
ag99
ag89
ag86
ag87
ag88
ag89
ag86
ag87
a(g64
F1.5707963267948966
g62
tp114
ag114
ag88
ag95
ag96
ag114
ag88
ag89
ag86
ag100
ag102
a(g75
F1.5707963267948966
g62
tp115
ag101
a(g75
F1.5707963267948966
g67
tp116
a(g75
F1.5707963267948966
g62
tp117
ag101
ag116
a(g75
F1.5707963267948966
g71
tp118
ag104
ag117
ag116
ag118
ag103
ag104
ag118
ag115
ag102
ag104
ag118
ag115
ag102
ag115
ag101
ag116
ag117
ag116
a(S'p4'
p119
F1.5707963267948966
g67
tp120
asS's'
p121
(lp122
(g61
I0
g22
tp123
ag63
ag65
ag66
ag68
ag70
ag72
ag73
ag72
ag74
ag76
ag77
ag78
ag79
ag77
ag80
ag77
ag81
ag72
ag74
ag82
ag72
ag83
ag84
ag85
ag86
ag87
ag88
ag89
ag90
ag90
ag86
ag87
ag88
ag89
ag90
ag91
ag92
ag84
ag93
ag87
ag94
ag88
ag95
ag96
ag97
ag98
ag99
ag89
ag86
ag100
ag101
ag101
ag102
ag103
ag104
ag105
ag86
ag87
ag88
ag95
ag98
ag99
ag89
ag86
ag106
ag91
ag93
ag87
ag88
ag107
ag108
ag109
ag110
ag111
ag112
ag97
ag99
ag95
ag113
ag99
ag95
ag113
ag99
ag89
ag86
ag87
ag88
ag89
ag86
ag87
ag114
ag114
ag88
ag95
ag96
ag114
ag88
ag89
ag86
ag100
ag102
ag115
ag101
ag116
ag117
ag101
ag116
ag118
ag104
ag117
ag116
ag118
ag103
ag104
ag118
ag115
ag102
ag104
ag118
ag115
ag102
ag115
ag101
ag116
ag117
ag116
asS'ui'
p124
(lp125
S'hs'
p126
ag59
ag126
ag126
ag59
ag126
ag59
ag126
ag59
aS'hp'
p127
ag126
ag59
ag126
ag126
ag127
ag126
aS'ss'
p128
ag126
ag59
ag126
ag126
ag128
ag59
ag126
ag127
ag128
ag127
ag59
ag126
ag127
ag127
ag128
ag59
ag59
ag126
ag127
ag126
ag59
ag127
ag128
ag126
ag126
ag59
ag126
ag127
ag127
ag127
ag59
ag127
ag127
ag126
ag126
ag127
ag127
ag127
ag128
ag127
ag128
ag126
ag59
ag127
ag127
ag59
ag127
ag128
ag127
ag126
ag59
ag126
ag128
ag127
ag126
ag126
ag128
ag59
ag127
ag127
ag128
ag128
ag127
ag126
ag127
ag127
ag59
ag127
ag128
ag126
ag59
ag127
ag128
ag128
ag126
ag126
ag126
ag126
ag126
ag126
ag59
ag127
ag59
ag59
ag127
ag126
ag126
ag59
ag126
ag126
ag126
ag127
ag126
ag126
ag59
ag127
ag127
ag59
ag127
ag59
ag127
ag59
ag127
ag126
ag127
ag126
ag126
ag59
ag126
ag59
asS'um_before'
p129
(lp130
g126
ag59
ag128
ag126
ag59
ag126
ag127
ag126
ag126
ag59
ag126
ag126
ag126
ag126
ag127
ag126
ag128
ag126
ag126
ag126
ag126
ag128
ag59
ag127
ag127
ag128
ag126
ag59
ag128
ag128
ag127
ag128
ag126
ag59
ag128
ag126
ag128
ag59
ag126
ag128
ag59
ag126
ag126
ag126
ag127
ag59
ag127
ag59
ag127
ag59
ag128
ag128
ag127
ag59
ag127
ag128
ag127
ag128
ag126
ag126
ag59
ag127
ag59
ag127
ag126
ag126
ag126
ag128
ag126
ag128
ag126
ag128
ag126
ag128
ag59
ag127
ag127
ag126
ag128
ag127
ag126
ag128
ag127
ag59
ag127
ag128
ag126
ag59
ag127
ag128
ag128
ag128
ag126
ag126
ag126
ag128
ag126
ag59
ag127
ag59
ag127
ag126
ag128
ag126
ag127
ag128
ag126
ag126
ag127
ag127
ag126
ag126
ag59
ag127
ag126
ag126
ag127
ag127
ag126
ag126
ag127
ag126
ag128
ag126
ag127
ag126
ag59
asS'um_after'
p131
(lp132
g126
ag59
ag128
ag126
ag59
ag126
ag127
ag126
ag126
ag59
ag126
ag126
ag126
ag126
ag127
ag126
ag128
ag126
ag126
ag126
ag126
ag128
ag59
ag127
ag127
ag128
ag126
ag59
ag128
ag128
ag127
ag128
ag126
ag59
ag128
ag126
ag128
ag59
ag126
ag128
ag59
ag126
ag126
ag126
ag127
ag59
ag127
ag59
ag127
ag59
ag128
ag128
ag127
ag59
ag127
ag128
ag127
ag128
ag126
ag126
ag59
ag127
ag59
ag127
ag126
ag126
ag126
ag128
ag126
ag128
ag126
ag128
ag126
ag128
ag59
ag127
ag127
ag126
ag128
ag127
ag126
ag128
ag127
ag59
ag127
ag128
ag126
ag59
ag127
ag128
ag128
ag128
ag126
ag126
ag126
ag128
ag126
ag59
ag127
ag59
ag127
ag126
ag128
ag126
ag127
ag128
ag126
ag126
ag127
ag127
ag126
ag126
ag59
ag127
ag126
ag126
ag127
ag127
ag126
ag126
ag127
ag126
ag128
ag126
ag127
ag126
ag59
asS'is_normalized_entropy_less_than_threshold'
p133
(lp134
g49
(g50
(S'b1'
p135
I0
I1
tp136
Rp137
(I3
S'|'
p138
NNNI-1
I-1
I0
tp139
bS'\x01'
p140
tp141
Rp142
ag142
ag142
ag142
ag142
ag142
ag142
ag142
ag142
ag142
ag142
ag142
ag142
ag142
ag142
ag142
ag142
ag142
ag142
ag142
ag142
ag142
ag142
ag142
ag142
ag142
ag142
ag142
ag142
ag142
ag142
ag142
ag142
ag142
ag142
ag142
ag142
ag142
ag142
ag142
ag142
ag142
ag142
ag142
ag142
ag142
ag142
ag142
ag142
ag142
ag142
ag142
ag142
ag142
ag142
ag142
ag142
ag142
ag142
ag142
ag142
ag142
ag142
ag142
ag142
ag142
ag142
ag142
ag142
ag142
ag142
ag142
ag142
ag142
ag142
ag142
ag142
ag142
ag142
ag142
ag142
ag142
ag142
ag142
ag142
ag142
ag142
ag142
ag142
ag142
ag142
ag142
ag142
ag142
ag142
ag142
ag142
ag142
ag142
ag142
ag142
ag142
ag142
ag142
ag142
ag142
ag142
ag142
ag142
ag142
ag142
ag142
ag142
ag142
ag142
ag142
ag142
ag142
ag142
ag142
ag142
ag142
ag142
ag142
ag142
ag142
ag142
asaa(lp143
S'index'
p144
aI28343
aatp145
Rp146
.