ccollections
OrderedDict
p0
((lp1
(lp2
S'combination_dict'
p3
ag0
((lp4
(lp5
S'r_to_g_config'
p6
aS'tr'
p7
aa(lp8
S'num_turns'
p9
aI3
aa(lp10
S'start_direction'
p11
acutils_ms
StartDirection
p12
(I1
tp13
Rp14
aa(lp15
S'assistance_type'
p16
acutils_ms
AssistanceType
p17
(I2
tp18
Rp19
aa(lp20
S'start_mode'
p21
aS't'
p22
aa(lp23
S'ui_given_a_noise'
p24
aF0.5
aa(lp25
S'um_given_ui_noise'
p26
aF0.1
aa(lp27
S'entropy_threshold'
p28
aF0.8
aatp29
Rp30
aa(lp31
S'data'
p32
accollections
defaultdict
p33
(c__builtin__
list
p34
tp35
Rp36
S'a'
p37
(lp38
S'mode_l'
p39
aS'mode_r'
p40
aS'move_p'
p41
ag39
ag39
ag39
ag39
ag41
ag39
ag41
ag39
ag41
ag39
ag40
ag39
ag40
ag40
ag41
ag39
ag41
ag40
ag41
ag40
ag41
ag39
ag39
ag39
ag39
ag41
ag40
ag41
ag39
ag39
ag39
ag39
ag40
ag40
ag40
ag40
ag39
ag39
ag39
ag41
ag40
ag41
ag40
ag41
ag40
ag40
ag40
ag40
ag39
ag39
ag41
ag39
ag41
ag39
ag39
ag41
asS'assistance_match_with_ground_truth'
p42
(lp43
I00
aI01
aI01
aI00
aI00
aI00
aI01
aI01
aI01
aI01
aI00
aI01
aI00
aI00
aI00
aI00
aI01
aI00
aI01
aI00
aI01
aI01
aI01
aI00
aI00
aI00
aI00
aI01
aI00
aI01
aI01
aI00
aI00
aI00
aI00
aI00
aI00
aI00
aI00
aI00
aI00
aI01
aI00
aI01
aI00
aI01
aI01
aI00
aI00
aI00
aI00
aI00
aI00
aI01
aI01
aI01
aI00
aI01
aI01
asS'is_u_intended_equals_um'
p44
(lp45
I00
aI00
aI00
aI00
aI00
aI00
aI00
aI00
aI00
aI00
aI00
aI00
aI00
aI00
aI00
aI00
aI00
aI00
aI00
aI00
aI00
aI00
aI00
aI00
aI00
aI00
aI00
aI00
aI00
aI00
aI00
aI00
aI00
aI00
aI00
aI00
aI00
aI00
aI00
aI00
aI00
aI00
aI00
aI00
aI00
aI00
aI00
aI00
aI00
aI00
aI00
aI00
aI00
aI00
aI00
aI00
aI00
aI00
aI00
asS'total_steps'
p46
I59
sS'normalized_h_of_p_ui_given_um'
p47
(lp48
cnumpy.core.multiarray
scalar
p49
(cnumpy
dtype
p50
(S'f8'
p51
I0
I1
tp52
Rp53
(I3
S'<'
p54
NNNI-1
I-1
I0
tp55
bS'\rA\xc3\xd2\xcb\xa1\xe6?'
p56
tp57
Rp58
ag58
ag58
ag58
ag58
ag58
ag58
ag58
ag58
ag58
ag58
ag58
ag58
ag58
ag58
ag58
ag58
ag58
ag58
ag58
ag58
ag58
ag58
ag58
ag58
ag58
ag58
ag58
ag58
ag58
ag58
ag58
ag58
ag58
ag58
ag58
ag58
ag58
ag58
ag58
ag58
ag58
ag58
ag58
ag58
ag58
ag58
ag58
ag58
ag58
ag58
ag58
ag58
ag58
ag58
ag58
ag58
ag58
ag58
asS'sp'
p59
(lp60
(S'p0'
p61
I0
S'x'
p62
tp63
a(g61
I0
S'y'
p64
tp65
a(S'p1'
p66
I0
g64
tp67
a(g66
I0
g64
tp68
a(g66
I0
g64
tp69
ag68
a(g66
I0
g62
tp70
a(S'p2'
p71
I0
g62
tp72
a(g71
I0
S't'
p73
tp74
a(g71
F1.5707963267948966
g73
tp75
a(g71
I0
g73
tp76
ag75
a(g71
F1.5707963267948966
g62
tp77
a(g71
F1.5707963267948966
g73
tp78
ag77
a(g71
F1.5707963267948966
g62
tp79
a(g71
F1.5707963267948966
g64
tp80
a(g66
F1.5707963267948966
g64
tp81
a(g66
F1.5707963267948966
g62
tp82
a(g66
F1.5707963267948966
g73
tp83
a(g66
F1.5707963267948966
g62
tp84
a(g71
F1.5707963267948966
g62
tp85
ag80
ag81
a(g66
F1.5707963267948966
g64
tp86
a(g66
F1.5707963267948966
g64
tp87
ag86
ag82
a(g61
F1.5707963267948966
g62
tp88
a(g61
F1.5707963267948966
g64
tp89
a(g66
F1.5707963267948966
g64
tp90
ag86
ag86
ag86
a(g66
F1.5707963267948966
g73
tp91
a(g66
F1.5707963267948966
g73
tp92
ag92
ag92
a(g66
F1.5707963267948966
g64
tp93
ag86
ag86
ag82
ag83
ag84
ag83
ag84
ag85
ag79
ag79
a(g71
F1.5707963267948966
g62
tp94
ag78
a(g71
F1.5707963267948966
g73
tp95
ag76
ag75
a(g71
F1.5707963267948966
g64
tp96
a(S'p3'
p97
F1.5707963267948966
g64
tp98
a(g97
F1.5707963267948966
g64
tp99
a(g97
F1.5707963267948966
g62
tp100
a(S'p4'
p101
F1.5707963267948966
g62
tp102
asS's'
p103
(lp104
(g61
I0
g22
tp105
ag63
ag65
ag67
ag68
ag69
ag68
ag70
ag72
ag74
ag75
ag76
ag75
ag77
ag78
ag77
ag79
ag80
ag81
ag82
ag83
ag84
ag85
ag80
ag81
ag86
ag87
ag86
ag82
ag88
ag89
ag90
ag86
ag86
ag86
ag91
ag92
ag92
ag92
ag93
ag86
ag86
ag82
ag83
ag84
ag83
ag84
ag85
ag79
ag79
ag94
ag78
ag95
ag76
ag75
ag96
ag98
ag99
ag100
asS'ui'
p106
(lp107
g59
aS'hp'
p108
ag59
aS'ss'
p109
ag59
ag109
aS'hs'
p110
ag59
ag110
ag59
ag109
ag59
ag108
ag110
ag108
ag59
ag108
ag59
ag110
ag110
ag108
ag59
ag108
ag109
ag109
ag59
ag59
ag110
ag109
ag108
ag59
ag109
ag109
ag109
ag110
ag108
ag110
ag109
ag110
ag109
ag109
ag110
ag110
ag108
ag110
ag108
ag59
ag109
ag110
ag108
ag110
ag59
ag109
ag59
ag110
ag59
ag59
ag110
ag59
asS'um_before'
p111
(lp112
g108
ag108
ag59
ag109
ag59
ag109
ag110
ag59
ag110
ag59
ag109
ag59
ag108
ag110
ag108
ag59
ag108
ag109
ag110
ag110
ag108
ag59
ag108
ag109
ag109
ag59
ag109
ag110
ag109
ag108
ag59
ag109
ag109
ag109
ag108
ag109
ag109
ag109
ag110
ag109
ag109
ag110
ag110
ag108
ag110
ag108
ag59
ag59
ag59
ag109
ag110
ag59
ag109
ag59
ag110
ag59
ag59
ag110
ag59
asS'um_after'
p113
(lp114
g108
ag108
ag59
ag109
ag59
ag109
ag110
ag59
ag110
ag59
ag109
ag59
ag108
ag110
ag108
ag59
ag108
ag109
ag110
ag110
ag108
ag59
ag108
ag109
ag109
ag59
ag109
ag110
ag109
ag108
ag59
ag109
ag109
ag109
ag108
ag109
ag109
ag109
ag110
ag109
ag109
ag110
ag110
ag108
ag110
ag108
ag59
ag59
ag59
ag109
ag110
ag59
ag109
ag59
ag110
ag59
ag59
ag110
ag59
asS'is_normalized_entropy_less_than_threshold'
p115
(lp116
g49
(g50
(S'b1'
p117
I0
I1
tp118
Rp119
(I3
S'|'
p120
NNNI-1
I-1
I0
tp121
bS'\x01'
p122
tp123
Rp124
ag124
ag124
ag124
ag124
ag124
ag124
ag124
ag124
ag124
ag124
ag124
ag124
ag124
ag124
ag124
ag124
ag124
ag124
ag124
ag124
ag124
ag124
ag124
ag124
ag124
ag124
ag124
ag124
ag124
ag124
ag124
ag124
ag124
ag124
ag124
ag124
ag124
ag124
ag124
ag124
ag124
ag124
ag124
ag124
ag124
ag124
ag124
ag124
ag124
ag124
ag124
ag124
ag124
ag124
ag124
ag124
ag124
ag124
asaa(lp125
S'index'
p126
aI28439
aatp127
Rp128
.