ccollections
OrderedDict
p0
((lp1
(lp2
S'combination_dict'
p3
ag0
((lp4
(lp5
S'r_to_g_config'
p6
aS'tr'
p7
aa(lp8
S'num_turns'
p9
aI3
aa(lp10
S'start_direction'
p11
acutils_ms
StartDirection
p12
(I0
tp13
Rp14
aa(lp15
S'assistance_type'
p16
acutils_ms
AssistanceType
p17
(I1
tp18
Rp19
aa(lp20
S'start_mode'
p21
aS'y'
p22
aa(lp23
S'ui_given_a_noise'
p24
aF0.7
aa(lp25
S'um_given_ui_noise'
p26
aF0.7
aa(lp27
S'entropy_threshold'
p28
aF0.8
aatp29
Rp30
aa(lp31
S'data'
p32
accollections
defaultdict
p33
(c__builtin__
list
p34
tp35
Rp36
S'a'
p37
(lp38
S'mode_l'
p39
ag39
aS'move_p'
p40
ag39
ag39
ag39
ag39
ag40
ag39
ag40
ag39
ag39
ag40
aS'mode_r'
p41
ag40
asS'assistance_match_with_ground_truth'
p42
(lp43
I00
aI01
aI01
aI00
aI00
aI00
aI01
aI01
aI01
aI01
aI00
aI01
aI01
aI01
aI01
asS'is_u_intended_equals_um'
p44
(lp45
I01
aI00
aI00
aI01
aI00
aI00
aI00
aI01
aI01
aI01
aI00
aI01
aI01
aI00
aI00
asS'total_steps'
p46
I15
sS'normalized_h_of_p_ui_given_um'
p47
(lp48
cnumpy.core.multiarray
scalar
p49
(cnumpy
dtype
p50
(S'f8'
p51
I0
I1
tp52
Rp53
(I3
S'<'
p54
NNNI-1
I-1
I0
tp55
bS'\x9b\xed\x88\xdb\x7f=\xe2?'
p56
tp57
Rp58
ag49
(g53
S'\xea\x17\x15af\xc4\xe0?'
p59
tp60
Rp61
ag49
(g53
S'y\xae>\x16Z\x91\xe1?'
p62
tp63
Rp64
ag49
(g53
S'\x9b\xed\x88\xdb\x7f=\xe2?'
p65
tp66
Rp67
ag49
(g53
S'r\xf4\x02\x1f|!\xe8?'
p68
tp69
Rp70
ag49
(g53
S'r\xf4\x02\x1f|!\xe8?'
p71
tp72
Rp73
ag49
(g53
S'\xea\x17\x15af\xc4\xe0?'
p74
tp75
Rp76
ag49
(g53
S'\xa85\x1c!\xfd`\xe2?'
p77
tp78
Rp79
ag49
(g53
S'C\x9a\xed\x12gY\xda?'
p80
tp81
Rp82
ag49
(g53
S'\xa85\x1c!\xfd`\xe2?'
p83
tp84
Rp85
ag49
(g53
S'r\xf4\x02\x1f|!\xe8?'
p86
tp87
Rp88
ag49
(g53
S'C\x9a\xed\x12gY\xda?'
p89
tp90
Rp91
ag49
(g53
S'\xa85\x1c!\xfd`\xe2?'
p92
tp93
Rp94
ag49
(g53
S'|~H)1)\xe8?'
p95
tp96
Rp97
ag49
(g53
S'y\xae>\x16Z\x91\xe1?'
p98
tp99
Rp100
asS'sp'
p101
(lp102
(S'p0'
p103
I0
S'y'
p104
tp105
a(g103
I0
S'x'
p106
tp107
a(S'p1'
p108
I0
g106
tp109
a(g108
I0
g106
tp110
ag110
ag110
a(g108
I0
S't'
p111
tp112
a(g108
F1.5707963267948966
g111
tp113
a(g108
F1.5707963267948966
g104
tp114
a(S'p2'
p115
F1.5707963267948966
g104
tp116
a(g115
F1.5707963267948966
g104
tp117
a(g115
F1.5707963267948966
g106
tp118
a(S'p3'
p119
F1.5707963267948966
g106
tp120
a(g119
F1.5707963267948966
g104
tp121
a(S'p4'
p122
F1.5707963267948966
g104
tp123
asS's'
p124
(lp125
(g103
I0
g22
tp126
ag105
ag107
ag109
ag110
ag110
ag110
ag112
ag113
ag114
ag116
ag117
ag118
ag120
ag121
asS'ui'
p127
(lp128
S'ss'
p129
aS'hs'
p130
aS'hp'
p131
ag129
ag129
ag129
ag130
ag131
ag130
ag129
ag101
ag130
ag101
ag131
ag131
asS'um_before'
p132
(lp133
g129
ag131
ag130
ag129
ag101
ag101
ag131
ag101
ag130
ag101
ag101
ag130
ag101
ag130
ag130
asS'um_after'
p134
(lp135
g129
ag130
ag101
ag129
ag129
ag129
ag130
ag101
ag130
ag101
ag129
ag130
ag101
ag131
ag101
asS'is_normalized_entropy_less_than_threshold'
p136
(lp137
g49
(g50
(S'b1'
p138
I0
I1
tp139
Rp140
(I3
S'|'
p141
NNNI-1
I-1
I0
tp142
bS'\x01'
p143
tp144
Rp145
ag145
ag145
ag145
ag145
ag145
ag145
ag145
ag145
ag145
ag145
ag145
ag145
ag145
ag145
asaa(lp146
S'index'
p147
aI22386
aatp148
Rp149
.