ccollections
OrderedDict
p0
((lp1
(lp2
S'combination_dict'
p3
ag0
((lp4
(lp5
S'r_to_g_config'
p6
aS'tl'
p7
aa(lp8
S'num_turns'
p9
aI2
aa(lp10
S'start_direction'
p11
acutils_ms
StartDirection
p12
(I0
tp13
Rp14
aa(lp15
S'assistance_type'
p16
acutils_ms
AssistanceType
p17
(I0
tp18
Rp19
aa(lp20
S'start_mode'
p21
aS'y'
p22
aa(lp23
S'ui_given_a_noise'
p24
aF0.7
aa(lp25
S'um_given_ui_noise'
p26
aF0.1
aa(lp27
S'entropy_threshold'
p28
aF0.9
aatp29
Rp30
aa(lp31
S'data'
p32
accollections
defaultdict
p33
(c__builtin__
list
p34
tp35
Rp36
S'a'
p37
(lp38
S'mode_l'
p39
ag39
aS'move_n'
p40
ag39
ag40
aS'mode_r'
p41
ag41
ag39
ag40
ag41
ag39
ag40
ag39
ag41
aS'move_p'
p42
ag42
ag39
ag42
ag39
ag42
ag39
ag42
ag39
ag39
ag39
ag42
ag39
ag41
ag41
ag40
asS'assistance_match_with_ground_truth'
p43
(lp44
I00
aI01
aI00
aI01
aI00
aI00
aI00
aI01
aI00
aI00
aI01
aI01
aI00
aI01
aI00
aI00
aI01
aI00
aI01
aI01
aI01
aI00
aI00
aI00
aI01
aI01
aI00
aI00
aI01
aI01
asS'is_u_intended_equals_um'
p45
(lp46
I01
aI01
aI01
aI01
aI01
aI01
aI01
aI01
aI01
aI01
aI01
aI01
aI01
aI01
aI01
aI01
aI01
aI01
aI01
aI01
aI01
aI01
aI01
aI01
aI01
aI01
aI01
aI00
aI01
aI01
asS'total_steps'
p47
I30
sS'normalized_h_of_p_ui_given_um'
p48
(lp49
cnumpy.core.multiarray
scalar
p50
(cnumpy
dtype
p51
(S'f8'
p52
I0
I1
tp53
Rp54
(I3
S'<'
p55
NNNI-1
I-1
I0
tp56
bS'\xe6J5g\xa4G\xe2?'
p57
tp58
Rp59
ag50
(g54
S'\x82{\xad\x04\x06\xef\xc6?'
p60
tp61
Rp62
ag50
(g54
S'>x=F\xbd\xe9\xe7?'
p63
tp64
Rp65
ag50
(g54
S'\x82{\xad\x04\x06\xef\xc6?'
p66
tp67
Rp68
ag50
(g54
S'35\x0e\n\xd4.\xdd?'
p69
tp70
Rp71
ag50
(g54
S'\xc1\x1e\xc3\xfb\x1fz\xde?'
p72
tp73
Rp74
ag50
(g54
S'\x94-0\x01\x13\xe7\xd4?'
p75
tp76
Rp77
ag50
(g54
S'\x82{\xad\x04\x06\xef\xc6?'
p78
tp79
Rp80
ag50
(g54
S'35\x0e\n\xd4.\xdd?'
p81
tp82
Rp83
ag50
(g54
S'\x94-0\x01\x13\xe7\xd4?'
p84
tp85
Rp86
ag50
(g54
S'\x82{\xad\x04\x06\xef\xc6?'
p87
tp88
Rp89
ag50
(g54
S'x\xa7\x98O\xf3\xb1\xca?'
p90
tp91
Rp92
ag50
(g54
S'\xa6I\xc3X\x9ao\xe0?'
p93
tp94
Rp95
ag50
(g54
S'\x13\xe2\x9f\x01;\x9e\xc2?'
p96
tp97
Rp98
ag50
(g54
S'\xd4\xcc\xe18bI\xdc?'
p99
tp100
Rp101
ag50
(g54
S'n \x91\x82\x14\xe6\xd8?'
p102
tp103
Rp104
ag50
(g54
S'\x82{\xad\x04\x06\xef\xc6?'
p105
tp106
Rp107
ag50
(g54
S'n \x91\x82\x14\xe6\xd8?'
p108
tp109
Rp110
ag50
(g54
S'\x82{\xad\x04\x06\xef\xc6?'
p111
tp112
Rp113
ag50
(g54
S'\xd9\xa0\x1e\x92\xe9\xdd\xc5?'
p114
tp115
Rp116
ag50
(g54
S'\x82{\xad\x04\x06\xef\xc6?'
p117
tp118
Rp119
ag50
(g54
S'n \x91\x82\x14\xe6\xd8?'
p120
tp121
Rp122
ag50
(g54
S'\xe6J5g\xa4G\xe2?'
p123
tp124
Rp125
ag50
(g54
S'\xe6J5g\xa4G\xe2?'
p126
tp127
Rp128
ag50
(g54
S'\x82{\xad\x04\x06\xef\xc6?'
p129
tp130
Rp131
ag50
(g54
S'\xd9\xa0\x1e\x92\xe9\xdd\xc5?'
p132
tp133
Rp134
ag50
(g54
S'\xa6I\xc3X\x9ao\xe0?'
p135
tp136
Rp137
ag50
(g54
S'J@X-\x90\x8b\xec?'
p138
tp139
Rp140
ag50
(g54
S'\x13\xe2\x9f\x01;\x9e\xc2?'
p141
tp142
Rp143
ag50
(g54
S'x\xa7\x98O\xf3\xb1\xca?'
p144
tp145
Rp146
asS'sp'
p147
(lp148
(S'p0'
p149
I0
S'y'
p150
tp151
a(g149
I0
S'x'
p152
tp153
a(g149
I0
g150
tp154
ag153
a(g149
I0
S't'
p155
tp156
a(g149
I0
g155
tp157
a(g149
I0
g150
tp158
ag153
ag156
ag158
ag153
a(S'p1'
p159
I0
g152
tp160
a(g159
I0
g150
tp161
a(g159
I0
g155
tp162
a(g159
I0
g155
tp163
a(g159
I0
g152
tp164
a(g159
I0
g155
tp165
ag164
ag165
a(g159
F1.5707963267948966
g155
tp166
a(g159
F1.5707963267948966
g150
tp167
a(g159
F1.5707963267948966
g155
tp168
a(g159
F1.5707963267948966
g155
tp169
ag169
ag167
a(S'p2'
p170
F1.5707963267948966
g150
tp171
a(g170
F1.5707963267948966
g155
tp172
ag172
a(g170
F1.5707963267948966
g152
tp173
a(S'p3'
p174
F1.5707963267948966
g152
tp175
asS's'
p176
(lp177
(g149
I0
g22
tp178
ag151
ag153
ag154
ag153
ag156
ag157
ag158
ag153
ag156
ag158
ag153
ag160
ag161
ag162
ag163
ag164
ag165
ag164
ag165
ag166
ag167
ag168
ag169
ag169
ag167
ag171
ag172
ag172
ag173
asS'ui'
p179
(lp180
g147
aS'hs'
p181
aS'hp'
p182
ag181
ag147
aS'ss'
p183
ag181
ag147
ag181
ag181
ag181
ag183
ag182
ag182
ag183
ag182
ag181
ag182
ag181
ag182
ag181
ag182
ag181
ag147
ag181
ag147
ag147
ag182
ag182
ag183
asS'um_before'
p184
(lp185
g147
ag181
ag182
ag181
ag181
ag183
ag181
ag181
ag181
ag181
ag181
ag183
ag182
ag182
ag183
ag182
ag181
ag182
ag181
ag147
ag181
ag182
ag147
ag147
ag181
ag147
ag182
ag147
ag182
ag183
asS'um_after'
p186
(lp187
g147
ag181
ag182
ag181
ag181
ag183
ag181
ag181
ag181
ag181
ag181
ag183
ag182
ag182
ag183
ag182
ag181
ag182
ag181
ag147
ag181
ag182
ag147
ag147
ag181
ag147
ag182
aNag182
ag183
asS'is_normalized_entropy_less_than_threshold'
p188
(lp189
g50
(g51
(S'b1'
p190
I0
I1
tp191
Rp192
(I3
S'|'
p193
NNNI-1
I-1
I0
tp194
bS'\x01'
p195
tp196
Rp197
ag197
ag197
ag197
ag197
ag197
ag197
ag197
ag197
ag197
ag197
ag197
ag197
ag197
ag197
ag197
ag197
ag197
ag197
ag197
ag197
ag197
ag197
ag197
ag197
ag197
ag197
ag197
ag197
ag197
asaa(lp198
S'index'
p199
aI39842
aatp200
Rp201
.