ccollections
OrderedDict
p0
((lp1
(lp2
S'combination_dict'
p3
ag0
((lp4
(lp5
S'r_to_g_config'
p6
aS'tr'
p7
aa(lp8
S'num_turns'
p9
aI2
aa(lp10
S'start_direction'
p11
acutils_ms
StartDirection
p12
(I1
tp13
Rp14
aa(lp15
S'assistance_type'
p16
acutils_ms
AssistanceType
p17
(I1
tp18
Rp19
aa(lp20
S'start_mode'
p21
aS'x'
p22
aa(lp23
S'ui_given_a_noise'
p24
aF0.5
aa(lp25
S'um_given_ui_noise'
p26
aF0.5
aa(lp27
S'entropy_threshold'
p28
aF0.5
aatp29
Rp30
aa(lp31
S'data'
p32
accollections
defaultdict
p33
(c__builtin__
list
p34
tp35
Rp36
S'a'
p37
(lp38
S'mode_r'
p39
aS'mode_l'
p40
ag40
ag40
ag40
ag39
ag40
ag39
ag39
aS'move_p'
p41
ag40
ag40
ag41
ag40
ag41
ag40
ag41
ag40
ag41
ag40
ag40
ag41
ag40
ag40
ag40
ag40
ag41
ag40
ag39
asS'assistance_match_with_ground_truth'
p42
(lp43
I00
aI00
aI00
aI00
aI00
aI00
aI00
aI00
aI01
aI00
aI00
aI01
aI00
aI01
aI00
aI01
aI01
aI01
aI01
aI00
aI01
aI01
aI00
aI00
aI00
aI00
aI00
aI00
aI00
asS'is_u_intended_equals_um'
p44
(lp45
I01
aI00
aI00
aI01
aI01
aI01
aI01
aI00
aI01
aI01
aI01
aI01
aI01
aI01
aI01
aI01
aI01
aI01
aI01
aI01
aI01
aI01
aI00
aI00
aI00
aI01
aI01
aI01
aI00
asS'total_steps'
p46
I29
sS'normalized_h_of_p_ui_given_um'
p47
(lp48
cnumpy.core.multiarray
scalar
p49
(cnumpy
dtype
p50
(S'f8'
p51
I0
I1
tp52
Rp53
(I3
S'<'
p54
NNNI-1
I-1
I0
tp55
bS'J\x97; \xe8\xaf\xe4?'
p56
tp57
Rp58
ag49
(g53
S'\xb5\xfa\xf93\xbd(\xe7?'
p59
tp60
Rp61
ag49
(g53
S'\xb5\xfa\xf93\xbd(\xe7?'
p62
tp63
Rp64
ag49
(g53
S'\x94\xe2\x1ep?\xf5\xee?'
p65
tp66
Rp67
ag49
(g53
S'4\xe6\xdfo\xa0\xef\xe9?'
p68
tp69
Rp70
ag49
(g53
S'J\x97; \xe8\xaf\xe4?'
p71
tp72
Rp73
ag49
(g53
S'4\xe6\xdfo\xa0\xef\xe9?'
p74
tp75
Rp76
ag49
(g53
S'\xfek[\n.\xe3\xeb?'
p77
tp78
Rp79
ag49
(g53
S'$v\x06PE*\xdf?'
p80
tp81
Rp82
ag49
(g53
S'{\x1d\xce^\x19z\xe3?'
p83
tp84
Rp85
ag49
(g53
S'\x94\xe2\x1ep?\xf5\xee?'
p86
tp87
Rp88
ag49
(g53
S'\xa6]\x1fIf1\xd9?'
p89
tp90
Rp91
ag49
(g53
S'{\x1d\xce^\x19z\xe3?'
p92
tp93
Rp94
ag49
(g53
S'\xa6]\x1fIf1\xd9?'
p95
tp96
Rp97
ag49
(g53
S'{\x1d\xce^\x19z\xe3?'
p98
tp99
Rp100
ag49
(g53
S'\xa6]\x1fIf1\xd9?'
p101
tp102
Rp103
ag49
(g53
S'0F\xe2~\xc2\xb8\xd4?'
p104
tp105
Rp106
ag49
(g53
S'\xa6]\x1fIf1\xd9?'
p107
tp108
Rp109
ag49
(g53
S'0F\xe2~\xc2\xb8\xd4?'
p110
tp111
Rp112
ag49
(g53
S'\x94\xe2\x1ep?\xf5\xee?'
p113
tp114
Rp115
ag49
(g53
S'\xa6]\x1fIf1\xd9?'
p116
tp117
Rp118
ag49
(g53
S'0F\xe2~\xc2\xb8\xd4?'
p119
tp120
Rp121
ag49
(g53
S'\xb5\xfa\xf93\xbd(\xe7?'
p122
tp123
Rp124
ag49
(g53
S'\xb5\xfa\xf93\xbd(\xe7?'
p125
tp126
Rp127
ag49
(g53
S'\xb5\xfa\xf93\xbd(\xe7?'
p128
tp129
Rp130
ag49
(g53
S'\x94\xe2\x1ep?\xf5\xee?'
p131
tp132
Rp133
ag49
(g53
S'{\x1d\xce^\x19z\xe3?'
p134
tp135
Rp136
ag49
(g53
S'4\xe6\xdfo\xa0\xef\xe9?'
p137
tp138
Rp139
ag49
(g53
S'\xfek[\n.\xe3\xeb?'
p140
tp141
Rp142
asS'sp'
p143
(lp144
(S'p0'
p145
I0
S't'
p146
tp147
a(g145
I0
g146
tp148
ag148
a(g145
I0
g146
tp149
a(g145
I0
S'x'
p150
tp151
ag147
ag151
a(g145
I0
g150
tp152
a(g145
I0
S'y'
p153
tp154
a(g145
I0
g146
tp155
ag149
a(g145
I0
g153
tp156
ag155
ag156
ag155
ag156
a(S'p1'
p157
I0
g153
tp158
a(g157
I0
g150
tp159
a(S'p2'
p160
I0
g150
tp161
a(g160
I0
g150
tp162
a(g160
I0
g146
tp163
a(g160
F1.5707963267948966
g146
tp164
a(g160
F1.5707963267948966
g146
tp165
ag165
ag165
a(g160
I0
g146
tp166
a(g160
I0
g150
tp167
a(g160
I0
g153
tp168
a(S'p3'
p169
I0
g153
tp170
asS's'
p171
(lp172
(g145
I0
g22
tp173
ag147
ag148
ag148
ag149
ag151
ag147
ag151
ag152
ag154
ag155
ag149
ag156
ag155
ag156
ag155
ag156
ag158
ag159
ag161
ag162
ag163
ag164
ag165
ag165
ag165
ag166
ag167
ag168
asS'ui'
p174
(lp175
g143
aS'hs'
p176
ag176
aS'hp'
p177
ag177
ag176
ag176
ag176
ag177
ag177
aS'ss'
p178
ag176
ag177
ag143
ag178
ag143
ag143
ag143
ag143
ag178
ag176
ag143
ag176
ag143
ag176
ag178
ag143
ag177
ag176
asS'um_before'
p179
(lp180
g176
ag143
ag143
ag178
ag177
ag176
ag177
ag143
ag177
ag177
ag178
ag176
ag177
ag176
ag177
ag176
ag143
ag176
ag143
ag178
ag176
ag143
ag143
ag143
ag143
ag178
ag177
ag177
ag143
asS'um_after'
p181
(lp182
g176
ag143
ag143
ag178
ag177
ag176
ag177
ag143
ag177
ag177
ag178
ag176
ag177
ag176
ag177
ag176
ag143
ag176
ag143
ag178
ag176
ag143
ag143
ag143
ag143
ag178
ag177
ag177
ag143
asS'is_normalized_entropy_less_than_threshold'
p183
(lp184
g49
(g50
(S'b1'
p185
I0
I1
tp186
Rp187
(I3
S'|'
p188
NNNI-1
I-1
I0
tp189
bS'\x00'
p190
tp191
Rp192
ag192
ag192
ag192
ag192
ag192
ag192
ag192
ag49
(g187
S'\x01'
p193
tp194
Rp195
ag192
ag192
ag195
ag192
ag195
ag192
ag195
ag195
ag195
ag195
ag192
ag195
ag195
ag192
ag192
ag192
ag192
ag192
ag192
ag192
asaa(lp196
S'index'
p197
aI16507
aatp198
Rp199
.