ccollections
OrderedDict
p0
((lp1
(lp2
S'combination_dict'
p3
ag0
((lp4
(lp5
S'r_to_g_config'
p6
aS'tl'
p7
aa(lp8
S'num_turns'
p9
aI3
aa(lp10
S'start_direction'
p11
acutils_ms
StartDirection
p12
(I0
tp13
Rp14
aa(lp15
S'assistance_type'
p16
acutils_ms
AssistanceType
p17
(I1
tp18
Rp19
aa(lp20
S'start_mode'
p21
aS'y'
p22
aa(lp23
S'ui_given_a_noise'
p24
aF0.7
aa(lp25
S'um_given_ui_noise'
p26
aF0.3
aa(lp27
S'entropy_threshold'
p28
aF0.8
aatp29
Rp30
aa(lp31
S'data'
p32
accollections
defaultdict
p33
(c__builtin__
list
p34
tp35
Rp36
S'a'
p37
(lp38
S'mode_l'
p39
ag39
ag39
aS'move_n'
p40
aS'mode_r'
p41
ag40
ag39
ag39
aS'move_p'
p42
ag41
ag42
ag39
ag41
ag39
ag39
ag41
ag42
ag39
ag39
ag40
ag41
ag41
ag42
ag41
ag42
ag39
ag40
ag41
ag42
ag39
ag41
ag41
ag42
ag39
ag41
ag41
ag41
ag42
ag41
ag42
asS'assistance_match_with_ground_truth'
p43
(lp44
I00
aI00
aI01
aI00
aI01
aI01
aI00
aI01
aI00
aI01
aI01
aI00
aI00
aI00
aI00
aI01
aI01
aI00
aI01
aI00
aI00
aI01
aI00
aI01
aI01
aI01
aI01
aI01
aI00
aI00
aI00
aI01
aI00
aI00
aI00
aI00
aI01
aI00
aI01
aI01
asS'is_u_intended_equals_um'
p45
(lp46
I01
aI01
aI01
aI01
aI01
aI01
aI01
aI01
aI01
aI01
aI01
aI01
aI01
aI00
aI01
aI01
aI01
aI01
aI01
aI00
aI01
aI00
aI01
aI00
aI01
aI01
aI01
aI01
aI01
aI01
aI01
aI01
aI01
aI01
aI01
aI01
aI01
aI01
aI01
aI01
asS'total_steps'
p47
I40
sS'normalized_h_of_p_ui_given_um'
p48
(lp49
cnumpy.core.multiarray
scalar
p50
(cnumpy
dtype
p51
(S'f8'
p52
I0
I1
tp53
Rp54
(I3
S'<'
p55
NNNI-1
I-1
I0
tp56
bS'\xd4\x97{xTR\xe8?'
p57
tp58
Rp59
ag50
(g54
S'\xd4\x97{xTR\xe8?'
p60
tp61
Rp62
ag50
(g54
S'[\xdfL\xdfqb\xcf?'
p63
tp64
Rp65
ag50
(g54
S'\xcfl\x1c\xf4\xb5"\xdb?'
p66
tp67
Rp68
ag50
(g54
S',\xa3\xee\xae<\xe5\xd1?'
p69
tp70
Rp71
ag50
(g54
S'\xd6\xe1\xc5\xfd\xd1\xfb\xd3?'
p72
tp73
Rp74
ag50
(g54
S'\xd4\x97{xTR\xe8?'
p75
tp76
Rp77
ag50
(g54
S'[\xdfL\xdfqb\xcf?'
p78
tp79
Rp80
ag50
(g54
S'\xc9\xb5\x8f\x16\xba\xcc\xe0?'
p81
tp82
Rp83
ag50
(g54
S',\xa3\xee\xae<\xe5\xd1?'
p84
tp85
Rp86
ag50
(g54
S'\xe9\x90\xab\x8a\xa5\xf0\xe0?'
p87
tp88
Rp89
ag50
(g54
S'r\x03\xdca\xdf\xad\xe1?'
p90
tp91
Rp92
ag50
(g54
S'\xe6\x9eBP\xbb-\xe6?'
p93
tp94
Rp95
ag50
(g54
S'\x9a\x95\xac\xec\x97\xff\xed?'
p96
tp97
Rp98
ag50
(g54
S'r\x03\xdca\xdf\xad\xe1?'
p99
tp100
Rp101
ag50
(g54
S',\xa3\xee\xae<\xe5\xd1?'
p102
tp103
Rp104
ag50
(g54
S'\xe9\x90\xab\x8a\xa5\xf0\xe0?'
p105
tp106
Rp107
ag50
(g54
S'\xd4\x97{xTR\xe8?'
p108
tp109
Rp110
ag50
(g54
S'[\xdfL\xdfqb\xcf?'
p111
tp112
Rp113
ag50
(g54
S'\xd31\x05N-\x11\xea?'
p114
tp115
Rp116
ag50
(g54
S'\xcax>_\x7f\x9b\xe6?'
p117
tp118
Rp119
ag50
(g54
S'8-\xbb-\xfec\xe6?'
p120
tp121
Rp122
ag50
(g54
S'\xc9\xb5\x8f\x16\xba\xcc\xe0?'
p123
tp124
Rp125
ag50
(g54
S'8-\xbb-\xfec\xe6?'
p126
tp127
Rp128
ag50
(g54
S'\xe9\x90\xab\x8a\xa5\xf0\xe0?'
p129
tp130
Rp131
ag50
(g54
S'[\xdfL\xdfqb\xcf?'
p132
tp133
Rp134
ag50
(g54
S'\xd6\xe1\xc5\xfd\xd1\xfb\xd3?'
p135
tp136
Rp137
ag50
(g54
S',\xa3\xee\xae<\xe5\xd1?'
p138
tp139
Rp140
ag50
(g54
S'e\xa9\x989\xf6\x16\xe5?'
p141
tp142
Rp143
ag50
(g54
S'r\x03\xdca\xdf\xad\xe1?'
p144
tp145
Rp146
ag50
(g54
S'\xcax>_\x7f\x9b\xe6?'
p147
tp148
Rp149
ag50
(g54
S',\xa3\xee\xae<\xe5\xd1?'
p150
tp151
Rp152
ag50
(g54
S'e\xa9\x989\xf6\x16\xe5?'
p153
tp154
Rp155
ag50
(g54
S'r\x03\xdca\xdf\xad\xe1?'
p156
tp157
Rp158
ag50
(g54
S'\xcax>_\x7f\x9b\xe6?'
p159
tp160
Rp161
ag50
(g54
S'\xcax>_\x7f\x9b\xe6?'
p162
tp163
Rp164
ag50
(g54
S',\xa3\xee\xae<\xe5\xd1?'
p165
tp166
Rp167
ag50
(g54
S'\xc9\xb5\x8f\x16\xba\xcc\xe0?'
p168
tp169
Rp170
ag50
(g54
S',\xa3\xee\xae<\xe5\xd1?'
p171
tp172
Rp173
ag50
(g54
S'\xe9\x90\xab\x8a\xa5\xf0\xe0?'
p174
tp175
Rp176
asS'sp'
p177
(lp178
(S'p0'
p179
I0
S'y'
p180
tp181
ag181
a(g179
I0
S'x'
p182
tp183
a(g179
I0
S't'
p184
tp185
a(g179
I0
g182
tp186
a(S'p1'
p187
I0
g182
tp188
a(g187
I0
g182
tp189
a(g187
I0
g184
tp190
a(g187
I0
g180
tp191
a(g187
I0
g184
tp192
a(g187
F1.5707963267948966
g184
tp193
a(g187
F1.5707963267948966
g182
tp194
a(g187
F1.5707963267948966
g184
tp195
a(g187
F1.5707963267948966
g184
tp196
ag194
a(g187
F1.5707963267948966
g180
tp197
a(S'p2'
p198
F1.5707963267948966
g180
tp199
a(g198
F1.5707963267948966
g180
tp200
a(g198
F1.5707963267948966
g182
tp201
a(g187
F1.5707963267948966
g182
tp202
a(g187
F1.5707963267948966
g182
tp203
ag197
a(g187
F1.5707963267948966
g182
tp204
ag197
ag199
ag201
a(S'p3'
p205
F1.5707963267948966
g182
tp206
a(g205
F1.5707963267948966
g180
tp207
a(g205
F1.5707963267948966
g184
tp208
a(g205
F1.5707963267948966
g182
tp209
a(g205
F1.5707963267948966
g182
tp210
ag207
ag208
ag209
ag210
ag210
ag207
a(g205
F1.5707963267948966
g182
tp211
ag207
a(S'p4'
p212
F1.5707963267948966
g180
tp213
asS's'
p214
(lp215
(g179
I0
g22
tp216
ag181
ag181
ag183
ag185
ag186
ag188
ag189
ag190
ag191
ag192
ag193
ag194
ag195
ag196
ag194
ag197
ag199
ag200
ag201
ag202
ag203
ag197
ag204
ag197
ag199
ag201
ag206
ag207
ag208
ag209
ag210
ag207
ag208
ag209
ag210
ag210
ag207
ag211
ag207
asS'ui'
p217
(lp218
S'ss'
p219
aS'hs'
p220
ag220
ag220
aS'hp'
p221
ag219
ag221
ag220
ag220
ag177
ag177
ag221
ag220
ag221
ag221
ag221
ag177
ag221
ag220
ag219
ag177
ag219
ag220
ag219
ag221
ag220
ag219
ag221
ag177
ag221
ag177
ag221
ag221
ag221
ag221
ag177
ag221
ag220
ag221
ag177
asS'um_before'
p222
(lp223
g219
ag219
ag220
ag220
ag221
ag219
ag219
ag220
ag220
ag221
ag177
ag221
ag220
ag177
ag221
ag221
ag177
ag219
ag220
ag177
ag177
ag219
ag220
ag219
ag177
ag220
ag219
ag221
ag221
ag221
ag177
ag221
ag221
ag221
ag177
ag177
ag221
ag220
ag221
ag177
asS'um_after'
p224
(lp225
g219
ag219
ag220
ag220
ag221
ag219
ag219
ag220
ag220
ag221
ag177
ag221
ag220
ag177
ag221
ag221
ag177
ag219
ag220
ag177
ag177
ag221
ag220
ag221
ag177
ag220
ag219
ag221
ag221
ag221
ag177
ag221
ag221
ag221
ag177
ag177
ag221
ag220
ag221
ag177
asS'is_normalized_entropy_less_than_threshold'
p226
(lp227
g50
(g51
(S'b1'
p228
I0
I1
tp229
Rp230
(I3
S'|'
p231
NNNI-1
I-1
I0
tp232
bS'\x01'
p233
tp234
Rp235
ag235
ag235
ag235
ag235
ag235
ag235
ag235
ag235
ag235
ag235
ag235
ag235
ag50
(g230
S'\x00'
p236
tp237
Rp238
ag235
ag235
ag235
ag235
ag235
ag238
ag235
ag235
ag235
ag235
ag235
ag235
ag235
ag235
ag235
ag235
ag235
ag235
ag235
ag235
ag235
ag235
ag235
ag235
ag235
ag235
asaa(lp239
S'index'
p240
aI51083
aatp241
Rp242
.