ccollections
OrderedDict
p0
((lp1
(lp2
S'combination_dict'
p3
ag0
((lp4
(lp5
S'r_to_g_config'
p6
aS'tl'
p7
aa(lp8
S'num_turns'
p9
aI3
aa(lp10
S'start_direction'
p11
acutils_ms
StartDirection
p12
(I0
tp13
Rp14
aa(lp15
S'assistance_type'
p16
acutils_ms
AssistanceType
p17
(I0
tp18
Rp19
aa(lp20
S'start_mode'
p21
aS't'
p22
aa(lp23
S'ui_given_a_noise'
p24
aF0.3
aa(lp25
S'um_given_ui_noise'
p26
aF0.5
aa(lp27
S'entropy_threshold'
p28
aF0.9
aatp29
Rp30
aa(lp31
S'data'
p32
accollections
defaultdict
p33
(c__builtin__
list
p34
tp35
Rp36
S'a'
p37
(lp38
S'mode_r'
p39
ag39
aS'move_n'
p40
ag40
ag40
ag39
ag39
ag39
aS'move_p'
p41
ag41
ag41
ag39
ag39
ag41
ag39
ag39
ag41
ag41
ag41
ag39
ag39
ag39
ag40
ag40
ag40
ag40
ag39
ag39
ag39
ag41
asS'assistance_match_with_ground_truth'
p42
(lp43
I00
aI01
aI00
aI00
aI01
aI00
aI00
aI01
aI00
aI00
aI01
aI00
aI01
aI00
aI00
aI01
aI00
aI00
aI01
aI00
aI00
aI01
aI00
aI00
aI00
aI01
aI00
aI00
aI01
aI01
asS'is_u_intended_equals_um'
p44
(lp45
I01
aI01
aI00
aI00
aI01
aI00
aI00
aI01
aI00
aI00
aI01
aI00
aI01
aI01
aI01
aI01
aI00
aI00
aI01
aI00
aI00
aI01
aI00
aI00
aI00
aI01
aI00
aI00
aI01
aI01
asS'total_steps'
p46
I30
sS'normalized_h_of_p_ui_given_um'
p47
(lp48
cnumpy.core.multiarray
scalar
p49
(cnumpy
dtype
p50
(S'f8'
p51
I0
I1
tp52
Rp53
(I3
S'<'
p54
NNNI-1
I-1
I0
tp55
bS'$\x0e\xdb/\xcc\xa7\xee?'
p56
tp57
Rp58
ag49
(g53
S'J\xb5\x83/\x91\x9b\xd6?'
p59
tp60
Rp61
ag49
(g53
S'Kg\xe6\xb8\xa5\x80\xe6?'
p62
tp63
Rp64
ag49
(g53
S'\x1c\xf8\xea\xfc`\xd7\xe7?'
p65
tp66
Rp67
ag49
(g53
S'6\x98\x98t\xfd_\xdc?'
p68
tp69
Rp70
ag49
(g53
S'0\xfc\xa1\\t\xb5\xe3?'
p71
tp72
Rp73
ag49
(g53
S'^\xc2c\x0c\xe9\xc9\xe8?'
p74
tp75
Rp76
ag49
(g53
S'J\xb5\x83/\x91\x9b\xd6?'
p77
tp78
Rp79
ag49
(g53
S'Z\xf1\x9e\xe4\x11=\xe8?'
p80
tp81
Rp82
ag49
(g53
S'Z\xf1\x9e\xe4\x11=\xe8?'
p83
tp84
Rp85
ag49
(g53
S'\xf9\xb0\x06{S\xcc\xd0?'
p86
tp87
Rp88
ag49
(g53
S'^\xc2c\x0c\xe9\xc9\xe8?'
p89
tp90
Rp91
ag49
(g53
S'J\xb5\x83/\x91\x9b\xd6?'
p92
tp93
Rp94
ag49
(g53
S'$\xe2\xe3\xe0]G\xea?'
p95
tp96
Rp97
ag49
(g53
S'$\x0e\xdb/\xcc\xa7\xee?'
p98
tp99
Rp100
ag49
(g53
S'J\xb5\x83/\x91\x9b\xd6?'
p101
tp102
Rp103
ag49
(g53
S'\xd7\xe6\xa2\x06\xec\x96\xe0?'
p104
tp105
Rp106
ag49
(g53
S'\xd7\xe6\xa2\x06\xec\x96\xe0?'
p107
tp108
Rp109
ag49
(g53
S'\xf9\xb0\x06{S\xcc\xd0?'
p110
tp111
Rp112
ag49
(g53
S'0\xfc\xa1\\t\xb5\xe3?'
p113
tp114
Rp115
ag49
(g53
S'0\xfc\xa1\\t\xb5\xe3?'
p116
tp117
Rp118
ag49
(g53
S'J\xb5\x83/\x91\x9b\xd6?'
p119
tp120
Rp121
ag49
(g53
S'd\xbb\xb8H\xa8n\xe9?'
p122
tp123
Rp124
ag49
(g53
S'Kg\xe6\xb8\xa5\x80\xe6?'
p125
tp126
Rp127
ag49
(g53
S'Kg\xe6\xb8\xa5\x80\xe6?'
p128
tp129
Rp130
ag49
(g53
S'6\x98\x98t\xfd_\xdc?'
p131
tp132
Rp133
ag49
(g53
S'^\xc2c\x0c\xe9\xc9\xe8?'
p134
tp135
Rp136
ag49
(g53
S'0\xfc\xa1\\t\xb5\xe3?'
p137
tp138
Rp139
ag49
(g53
S'J\xb5\x83/\x91\x9b\xd6?'
p140
tp141
Rp142
ag49
(g53
S'\xf9\xb0\x06{S\xcc\xd0?'
p143
tp144
Rp145
asS'sp'
p146
(lp147
(S'p0'
p148
I0
S't'
p149
tp150
a(g148
I0
S'x'
p151
tp152
ag152
ag152
a(S'p1'
p153
I0
g151
tp154
ag154
ag154
a(g153
I0
S'y'
p155
tp156
ag156
ag156
a(S'p2'
p157
I0
g155
tp158
ag158
a(g157
I0
g149
tp159
a(g157
I0
g155
tp160
a(g157
I0
g155
tp161
ag159
ag159
ag159
a(g157
F1.5707963267948966
g149
tp162
ag162
ag162
a(g157
F1.5707963267948966
g151
tp163
ag163
ag163
ag163
a(S'p3'
p164
F1.5707963267948966
g151
tp165
ag165
ag165
a(g164
F1.5707963267948966
g155
tp166
a(S'p4'
p167
F1.5707963267948966
g155
tp168
asS's'
p169
(lp170
(g148
I0
g22
tp171
ag150
ag152
ag152
ag152
ag154
ag154
ag154
ag156
ag156
ag156
ag158
ag158
ag159
ag160
ag161
ag159
ag159
ag159
ag162
ag162
ag162
ag163
ag163
ag163
ag163
ag165
ag165
ag165
ag166
asS'ui'
p172
(lp173
S'hp'
p174
ag174
ag174
aS'ss'
p175
ag175
aS'hs'
p176
ag146
ag174
ag146
ag175
ag146
ag174
ag174
ag175
ag175
ag174
ag146
ag146
ag146
ag174
ag174
ag174
ag174
ag175
ag175
ag175
ag174
ag176
ag174
ag146
asS'um_before'
p177
(lp178
g175
ag174
ag146
ag176
ag175
ag176
ag146
ag174
ag174
ag174
ag146
ag146
ag174
ag176
ag175
ag174
ag175
ag175
ag146
ag176
ag176
ag174
ag174
ag146
ag146
ag175
ag146
ag176
ag174
ag146
asS'um_after'
p179
(lp180
g175
ag174
aNaNag175
aNaNag174
aNaNag146
aNag174
ag176
ag175
ag174
aNaNag146
aNaNag174
aNaNaNag175
aNaNag174
ag146
asS'is_normalized_entropy_less_than_threshold'
p181
(lp182
g49
(g50
(S'b1'
p183
I0
I1
tp184
Rp185
(I3
S'|'
p186
NNNI-1
I-1
I0
tp187
bS'\x00'
p188
tp189
Rp190
ag49
(g185
S'\x01'
p191
tp192
Rp193
ag193
ag193
ag193
ag193
ag193
ag193
ag193
ag193
ag193
ag193
ag193
ag193
ag190
ag193
ag193
ag193
ag193
ag193
ag193
ag193
ag193
ag193
ag193
ag193
ag193
ag193
ag193
ag193
asaa(lp194
S'index'
p195
aI48344
aatp196
Rp197
.