ccollections
OrderedDict
p0
((lp1
(lp2
S'combination_dict'
p3
ag0
((lp4
(lp5
S'r_to_g_config'
p6
aS'br'
p7
aa(lp8
S'num_turns'
p9
aI1
aa(lp10
S'start_direction'
p11
acutils_ms
StartDirection
p12
(I0
tp13
Rp14
aa(lp15
S'assistance_type'
p16
acutils_ms
AssistanceType
p17
(I1
tp18
Rp19
aa(lp20
S'start_mode'
p21
aS'y'
p22
aa(lp23
S'ui_given_a_noise'
p24
aF0.3
aa(lp25
S'um_given_ui_noise'
p26
aF0.1
aa(lp27
S'entropy_threshold'
p28
aF0.8
aatp29
Rp30
aa(lp31
S'data'
p32
accollections
defaultdict
p33
(c__builtin__
list
p34
tp35
Rp36
S'a'
p37
(lp38
S'mode_l'
p39
aS'move_p'
p40
ag40
aS'mode_r'
p41
ag39
ag40
ag39
ag40
ag39
ag39
ag39
ag41
ag40
ag39
ag39
aS'move_n'
p42
asS'assistance_match_with_ground_truth'
p43
(lp44
I01
aI00
aI00
aI00
aI01
aI01
aI01
aI00
aI00
aI00
aI00
aI01
aI01
aI00
aI01
aI01
asS'is_u_intended_equals_um'
p45
(lp46
I01
aI01
aI01
aI01
aI01
aI01
aI01
aI01
aI01
aI01
aI01
aI01
aI01
aI01
aI01
aI01
asS'total_steps'
p47
I16
sS'normalized_h_of_p_ui_given_um'
p48
(lp49
cnumpy.core.multiarray
scalar
p50
(cnumpy
dtype
p51
(S'f8'
p52
I0
I1
tp53
Rp54
(I3
S'<'
p55
NNNI-1
I-1
I0
tp56
bS'@7@Ba\x9b\xbd?'
p57
tp58
Rp59
ag50
(g54
S'{&3\x91\xb2\t\xe3?'
p60
tp61
Rp62
ag50
(g54
S'\xfb1g\xad\x00\xe1\xe0?'
p63
tp64
Rp65
ag50
(g54
S'\xf1\xb1B\xe2\xc1\xda\xe4?'
p66
tp67
Rp68
ag50
(g54
S'@7@Ba\x9b\xbd?'
p69
tp70
Rp71
ag50
(g54
S'\x07W\xd9\x145\xd0\xbc?'
p72
tp73
Rp74
ag50
(g54
S'@7@Ba\x9b\xbd?'
p75
tp76
Rp77
ag50
(g54
S',$\xb8}\xdc\xd7\xd0?'
p78
tp79
Rp80
ag50
(g54
S'(\xccq\xfc\xc4\x07\xd9?'
p81
tp82
Rp83
ag50
(g54
S'(\xccq\xfc\xc4\x07\xd9?'
p84
tp85
Rp86
ag50
(g54
S'\xfc=\x19\x9f,W\xdc?'
p87
tp88
Rp89
ag50
(g54
S'T\x8cG\x9d\x98\x1d\xb1?'
p90
tp91
Rp92
ag50
(g54
S'\x07W\xd9\x145\xd0\xbc?'
p93
tp94
Rp95
ag50
(g54
S'\x13r:9\x99\xe3\xe6?'
p96
tp97
Rp98
ag50
(g54
S'@7@Ba\x9b\xbd?'
p99
tp100
Rp101
ag50
(g54
S';g\x06\xadi\xa5\xa1?'
p102
tp103
Rp104
asS'sp'
p105
(lp106
(S'p0'
p107
I0
S'x'
p108
tp109
a(g107
I0
g108
tp110
a(g107
I0
S't'
p111
tp112
a(g107
I0
S'y'
p113
tp114
ag109
a(S'p1'
p115
I0
g108
tp116
a(g115
I0
g111
tp117
a(g115
I0
g108
tp118
a(g115
I0
g108
tp119
ag119
a(g115
I0
g113
tp120
a(g115
I0
g111
tp121
a(g115
F1.5707963267948966
g111
tp122
a(g115
F1.5707963267948966
g111
tp123
a(g115
F1.5707963267948966
g113
tp124
a(S'p2'
p125
F1.5707963267948966
g113
tp126
asS's'
p127
(lp128
(g107
I0
g22
tp129
ag109
ag110
ag112
ag114
ag109
ag116
ag117
ag118
ag119
ag119
ag120
ag121
ag122
ag123
ag124
asS'ui'
p130
(lp131
S'hs'
p132
ag105
ag132
ag132
ag132
ag105
ag132
aS'hp'
p133
aS'ss'
p134
ag134
ag133
ag133
ag105
ag105
ag132
ag134
asS'um_before'
p135
(lp136
g132
ag134
ag132
ag132
ag132
ag105
ag132
ag133
ag134
ag134
ag133
ag133
ag105
ag105
ag132
ag134
asS'um_after'
p137
(lp138
g132
ag134
ag132
ag132
ag132
ag105
ag132
ag133
ag134
ag134
ag133
ag133
ag105
ag105
ag132
ag134
asS'is_normalized_entropy_less_than_threshold'
p139
(lp140
g50
(g51
(S'b1'
p141
I0
I1
tp142
Rp143
(I3
S'|'
p144
NNNI-1
I-1
I0
tp145
bS'\x01'
p146
tp147
Rp148
ag148
ag148
ag148
ag148
ag148
ag148
ag148
ag148
ag148
ag148
ag148
ag148
ag148
ag148
ag148
asaa(lp149
S'index'
p150
aI89035
aatp151
Rp152
.