ccollections
OrderedDict
p0
((lp1
(lp2
S'combination_dict'
p3
ag0
((lp4
(lp5
S'r_to_g_config'
p6
aS'bl'
p7
aa(lp8
S'num_turns'
p9
aI3
aa(lp10
S'start_direction'
p11
acutils_ms
StartDirection
p12
(I1
tp13
Rp14
aa(lp15
S'assistance_type'
p16
acutils_ms
AssistanceType
p17
(I1
tp18
Rp19
aa(lp20
S'start_mode'
p21
aS't'
p22
aa(lp23
S'ui_given_a_noise'
p24
aF0.1
aa(lp25
S'um_given_ui_noise'
p26
aF0.1
aa(lp27
S'entropy_threshold'
p28
aF0.9
aatp29
Rp30
aa(lp31
S'data'
p32
accollections
defaultdict
p33
(c__builtin__
list
p34
tp35
Rp36
S'a'
p37
(lp38
S'mode_l'
p39
aS'move_n'
p40
ag39
ag40
ag39
ag40
ag39
aS'move_p'
p41
ag39
ag40
ag39
ag40
asS'assistance_match_with_ground_truth'
p42
(lp43
I01
aI01
aI01
aI00
aI01
aI01
aI01
aI01
aI01
aI01
aI01
aI01
asS'is_u_intended_equals_um'
p44
(lp45
I01
aI01
aI01
aI01
aI01
aI01
aI01
aI01
aI01
aI01
aI01
aI01
asS'total_steps'
p46
I12
sS'normalized_h_of_p_ui_given_um'
p47
(lp48
cnumpy.core.multiarray
scalar
p49
(cnumpy
dtype
p50
(S'f8'
p51
I0
I1
tp52
Rp53
(I3
S'<'
p54
NNNI-1
I-1
I0
tp55
bS'\xf6>\x9b\xbd\xc2\xcc\x9f?'
p56
tp57
Rp58
ag49
(g53
S'\x0e\x06\xd7\xd5QZ\xa2?'
p59
tp60
Rp61
ag49
(g53
S'\xf6>\x9b\xbd\xc2\xcc\x9f?'
p62
tp63
Rp64
ag49
(g53
S'\xd2%\xa2\x15/[\xe5?'
p65
tp66
Rp67
ag49
(g53
S'\xf6>\x9b\xbd\xc2\xcc\x9f?'
p68
tp69
Rp70
ag49
(g53
S'\x0e\x06\xd7\xd5QZ\xa2?'
p71
tp72
Rp73
ag49
(g53
S'\xf6>\x9b\xbd\xc2\xcc\x9f?'
p74
tp75
Rp76
ag49
(g53
S'\xa9)\xec\x01\x93[\xa5?'
p77
tp78
Rp79
ag49
(g53
S'\xf6>\x9b\xbd\xc2\xcc\x9f?'
p80
tp81
Rp82
ag49
(g53
S'\x0e\x06\xd7\xd5QZ\xa2?'
p83
tp84
Rp85
ag49
(g53
S'\xf6>\x9b\xbd\xc2\xcc\x9f?'
p86
tp87
Rp88
ag49
(g53
S'\x0e\x06\xd7\xd5QZ\xa2?'
p89
tp90
Rp91
asS'sp'
p92
(lp93
(S'p0'
p94
I0
S'y'
p95
tp96
a(S'p1'
p97
I0
g95
tp98
a(g97
I0
S'x'
p99
tp100
a(g97
I0
g95
tp101
ag100
a(S'p2'
p102
I0
g99
tp103
a(g102
I0
S't'
p104
tp105
a(g102
F1.5707963267948966
g104
tp106
a(g102
F1.5707963267948966
g95
tp107
a(S'p3'
p108
F1.5707963267948966
g95
tp109
a(g108
F1.5707963267948966
g99
tp110
a(S'p4'
p111
F1.5707963267948966
g99
tp112
asS's'
p113
(lp114
(g94
I0
g22
tp115
ag96
ag98
ag100
ag101
ag100
ag103
ag105
ag106
ag107
ag109
ag110
asS'ui'
p116
(lp117
S'hs'
p118
aS'ss'
p119
ag118
aS'hp'
p120
ag118
ag119
ag118
ag92
ag118
ag119
ag118
ag119
asS'um_before'
p121
(lp122
g118
ag119
ag118
ag120
ag118
ag119
ag118
ag92
ag118
ag119
ag118
ag119
asS'um_after'
p123
(lp124
g118
ag119
ag118
ag120
ag118
ag119
ag118
ag92
ag118
ag119
ag118
ag119
asS'is_normalized_entropy_less_than_threshold'
p125
(lp126
g49
(g50
(S'b1'
p127
I0
I1
tp128
Rp129
(I3
S'|'
p130
NNNI-1
I-1
I0
tp131
bS'\x01'
p132
tp133
Rp134
ag134
ag134
ag134
ag134
ag134
ag134
ag134
ag134
ag134
ag134
ag134
asaa(lp135
S'index'
p136
aI84048
aatp137
Rp138
.