ccollections
OrderedDict
p0
((lp1
(lp2
S'combination_dict'
p3
ag0
((lp4
(lp5
S'r_to_g_config'
p6
aS'bl'
p7
aa(lp8
S'num_turns'
p9
aI3
aa(lp10
S'start_direction'
p11
acutils_ms
StartDirection
p12
(I1
tp13
Rp14
aa(lp15
S'assistance_type'
p16
acutils_ms
AssistanceType
p17
(I1
tp18
Rp19
aa(lp20
S'start_mode'
p21
aS't'
p22
aa(lp23
S'ui_given_a_noise'
p24
aF0.7
aa(lp25
S'um_given_ui_noise'
p26
aF0.5
aa(lp27
S'entropy_threshold'
p28
aF0.5
aatp29
Rp30
aa(lp31
S'data'
p32
accollections
defaultdict
p33
(c__builtin__
list
p34
tp35
Rp36
S'a'
p37
(lp38
S'mode_l'
p39
ag39
aS'mode_r'
p40
aS'move_n'
p41
ag39
ag40
ag40
ag41
ag40
ag39
ag39
ag40
ag41
ag39
ag40
ag41
ag40
ag40
ag40
ag40
ag39
ag39
ag40
ag41
ag39
ag39
ag41
ag39
ag39
ag39
ag41
ag40
ag41
ag40
ag41
ag40
ag39
aS'move_p'
p42
ag40
ag39
ag39
ag39
ag40
ag40
ag39
ag39
ag39
ag40
ag40
ag42
ag40
ag41
ag39
ag39
ag41
ag39
ag41
ag40
ag40
ag41
ag39
ag39
ag39
ag41
ag40
ag41
ag39
ag41
ag39
ag39
ag40
ag41
ag40
ag40
ag41
ag39
ag40
ag41
ag39
ag40
ag40
ag41
ag40
ag41
ag40
ag39
ag40
ag40
ag41
ag39
ag39
ag40
ag40
ag41
ag39
ag39
ag40
ag40
ag40
ag40
ag40
ag40
ag41
ag40
ag41
ag39
ag41
ag39
ag41
ag40
ag40
ag41
ag39
ag41
ag39
ag41
ag40
ag40
ag41
ag39
ag41
ag40
ag40
ag40
ag41
ag40
ag41
ag39
ag40
ag40
ag41
ag40
ag41
ag40
ag40
ag39
ag39
ag40
ag41
ag39
ag39
ag41
ag39
ag39
ag41
asS'assistance_match_with_ground_truth'
p43
(lp44
I00
aI00
aI01
aI01
aI00
aI00
aI01
aI00
aI00
aI00
aI00
aI01
aI01
aI00
aI01
aI00
aI00
aI00
aI00
aI00
aI00
aI00
aI01
aI01
aI00
aI01
aI00
aI00
aI00
aI01
aI00
aI01
aI01
aI01
aI01
aI00
aI01
aI01
aI00
aI00
aI00
aI00
aI00
aI00
aI00
aI00
aI00
aI00
aI00
aI01
aI01
aI00
aI00
aI01
aI00
aI01
aI00
aI00
aI01
aI00
aI00
aI00
aI01
aI01
aI01
aI01
aI01
aI00
aI00
aI00
aI01
aI00
aI00
aI01
aI00
aI00
aI01
aI00
aI00
aI00
aI01
aI01
aI01
aI00
aI00
aI00
aI00
aI01
aI00
aI00
aI00
aI00
aI01
aI00
aI00
aI00
aI00
aI00
aI00
aI00
aI00
aI01
aI01
aI01
aI01
aI01
aI00
aI01
aI00
aI00
aI01
aI00
aI01
aI00
aI01
aI00
aI00
aI01
aI01
aI01
aI00
aI00
aI00
aI01
aI00
aI01
aI00
aI00
aI00
aI01
aI00
aI01
aI01
aI00
aI00
aI00
aI00
aI01
aI00
aI00
aI01
aI01
aI00
aI01
aI01
asS'is_u_intended_equals_um'
p45
(lp46
I01
aI01
aI01
aI01
aI01
aI01
aI01
aI01
aI00
aI01
aI01
aI01
aI01
aI01
aI01
aI01
aI01
aI01
aI01
aI00
aI01
aI01
aI01
aI01
aI01
aI01
aI01
aI01
aI01
aI01
aI01
aI01
aI01
aI01
aI01
aI00
aI01
aI01
aI00
aI01
aI01
aI01
aI01
aI00
aI01
aI01
aI01
aI01
aI00
aI01
aI01
aI01
aI01
aI01
aI01
aI01
aI01
aI01
aI01
aI01
aI01
aI01
aI01
aI01
aI01
aI01
aI01
aI01
aI01
aI01
aI01
aI01
aI01
aI01
aI01
aI01
aI01
aI01
aI01
aI01
aI01
aI01
aI01
aI01
aI00
aI01
aI01
aI01
aI01
aI01
aI01
aI01
aI01
aI01
aI01
aI01
aI01
aI00
aI01
aI01
aI01
aI01
aI01
aI01
aI01
aI01
aI01
aI01
aI01
aI01
aI01
aI01
aI01
aI01
aI01
aI01
aI01
aI01
aI01
aI01
aI01
aI00
aI01
aI01
aI01
aI01
aI01
aI01
aI01
aI01
aI01
aI01
aI01
aI01
aI00
aI01
aI01
aI01
aI01
aI01
aI01
aI01
aI01
aI01
aI01
asS'total_steps'
p47
I145
sS'normalized_h_of_p_ui_given_um'
p48
(lp49
cnumpy.core.multiarray
scalar
p50
(cnumpy
dtype
p51
(S'f8'
p52
I0
I1
tp53
Rp54
(I3
S'<'
p55
NNNI-1
I-1
I0
tp56
bS'\x01"\xc2}\xffx\xe6?'
p57
tp58
Rp59
ag50
(g54
S'\xdc\xdf\x8e\x14i\xc7\xe9?'
p60
tp61
Rp62
ag50
(g54
S'xm\x8a\x96\xaf\x8e\xd5?'
p63
tp64
Rp65
ag50
(g54
S'\xcc\x14\x01\xae\xe6\x96\xe1?'
p66
tp67
Rp68
ag50
(g54
S'\xdc\xdf\x8e\x14i\xc7\xe9?'
p69
tp70
Rp71
ag50
(g54
S'\xb5M.\xf7\xfd\xbb\xde?'
p72
tp73
Rp74
ag50
(g54
S'xm\x8a\x96\xaf\x8e\xd5?'
p75
tp76
Rp77
ag50
(g54
S'\x9aP\xde\x05O%\xe7?'
p78
tp79
Rp80
ag50
(g54
S'F\xd2\xfe\x91\x00\x06\xe6?'
p81
tp82
Rp83
ag50
(g54
S'\x01"\xc2}\xffx\xe6?'
p84
tp85
Rp86
ag50
(g54
S'\xdc\xdf\x8e\x14i\xc7\xe9?'
p87
tp88
Rp89
ag50
(g54
S'xm\x8a\x96\xaf\x8e\xd5?'
p90
tp91
Rp92
ag50
(g54
S'\xcc\x14\x01\xae\xe6\x96\xe1?'
p93
tp94
Rp95
ag50
(g54
S'\xdc\xdf\x8e\x14i\xc7\xe9?'
p96
tp97
Rp98
ag50
(g54
S'xm\x8a\x96\xaf\x8e\xd5?'
p99
tp100
Rp101
ag50
(g54
S'\x9aP\xde\x05O%\xe7?'
p102
tp103
Rp104
ag50
(g54
S'\xb5M.\xf7\xfd\xbb\xde?'
p105
tp106
Rp107
ag50
(g54
S'\xb5M.\xf7\xfd\xbb\xde?'
p108
tp109
Rp110
ag50
(g54
S'\xb5M.\xf7\xfd\xbb\xde?'
p111
tp112
Rp113
ag50
(g54
S'F\xd2\xfe\x91\x00\x06\xe6?'
p114
tp115
Rp116
ag50
(g54
S'\x01"\xc2}\xffx\xe6?'
p117
tp118
Rp119
ag50
(g54
S'\xdc\xdf\x8e\x14i\xc7\xe9?'
p120
tp121
Rp122
ag50
(g54
S'xm\x8a\x96\xaf\x8e\xd5?'
p123
tp124
Rp125
ag50
(g54
S'\xcc\x14\x01\xae\xe6\x96\xe1?'
p126
tp127
Rp128
ag50
(g54
S'\xe3\x9d\xb9\xe1\x14\xeb\xeb?'
p129
tp130
Rp131
ag50
(g54
S'\xdc\x00u?\x88o\xe0?'
p132
tp133
Rp134
ag50
(g54
S'\xac\xc1\x04Op\xdb\xe9?'
p135
tp136
Rp137
ag50
(g54
S'\x01"\xc2}\xffx\xe6?'
p138
tp139
Rp140
ag50
(g54
S'\x01"\xc2}\xffx\xe6?'
p141
tp142
Rp143
ag50
(g54
S'\xdc\x00u?\x88o\xe0?'
p144
tp145
Rp146
ag50
(g54
S'2x8w\xe3d\xe8?'
p147
tp148
Rp149
ag50
(g54
S'xm\x8a\x96\xaf\x8e\xd5?'
p150
tp151
Rp152
ag50
(g54
S'\xcc\x14\x01\xae\xe6\x96\xe1?'
p153
tp154
Rp155
ag50
(g54
S'xm\x8a\x96\xaf\x8e\xd5?'
p156
tp157
Rp158
ag50
(g54
S'\xcc\x14\x01\xae\xe6\x96\xe1?'
p159
tp160
Rp161
ag50
(g54
S'F\xd2\xfe\x91\x00\x06\xe6?'
p162
tp163
Rp164
ag50
(g54
S'\xdc\x00u?\x88o\xe0?'
p165
tp166
Rp167
ag50
(g54
S'\x93\x1c\xa8\x13\x16\xb1\xd7?'
p168
tp169
Rp170
ag50
(g54
S'F\xd2\xfe\x91\x00\x06\xe6?'
p171
tp172
Rp173
ag50
(g54
S'\xe3\x9d\xb9\xe1\x14\xeb\xeb?'
p174
tp175
Rp176
ag50
(g54
S'\x01"\xc2}\xffx\xe6?'
p177
tp178
Rp179
ag50
(g54
S'\xdc\xdf\x8e\x14i\xc7\xe9?'
p180
tp181
Rp182
ag50
(g54
S'\xb5M.\xf7\xfd\xbb\xde?'
p183
tp184
Rp185
ag50
(g54
S'F\xd2\xfe\x91\x00\x06\xe6?'
p186
tp187
Rp188
ag50
(g54
S'\x01"\xc2}\xffx\xe6?'
p189
tp190
Rp191
ag50
(g54
S'\x01"\xc2}\xffx\xe6?'
p192
tp193
Rp194
ag50
(g54
S'\xdc\xdf\x8e\x14i\xc7\xe9?'
p195
tp196
Rp197
ag50
(g54
S'\xb5M.\xf7\xfd\xbb\xde?'
p198
tp199
Rp200
ag50
(g54
S'\x8bV\x16\x9at\x91\xe9?'
p201
tp202
Rp203
ag50
(g54
S'\x93\x1c\xa8\x13\x16\xb1\xd7?'
p204
tp205
Rp206
ag50
(g54
S'xm\x8a\x96\xaf\x8e\xd5?'
p207
tp208
Rp209
ag50
(g54
S'\xac\xc1\x04Op\xdb\xe9?'
p210
tp211
Rp212
ag50
(g54
S'\xe3\x9d\xb9\xe1\x14\xeb\xeb?'
p213
tp214
Rp215
ag50
(g54
S'\xdc\x00u?\x88o\xe0?'
p216
tp217
Rp218
ag50
(g54
S'\xac\xc1\x04Op\xdb\xe9?'
p219
tp220
Rp221
ag50
(g54
S'\xdc\x00u?\x88o\xe0?'
p222
tp223
Rp224
ag50
(g54
S'\x9aP\xde\x05O%\xe7?'
p225
tp226
Rp227
ag50
(g54
S'\xb5M.\xf7\xfd\xbb\xde?'
p228
tp229
Rp230
ag50
(g54
S'xm\x8a\x96\xaf\x8e\xd5?'
p231
tp232
Rp233
ag50
(g54
S'\x9aP\xde\x05O%\xe7?'
p234
tp235
Rp236
ag50
(g54
S'\x01"\xc2}\xffx\xe6?'
p237
tp238
Rp239
ag50
(g54
S'\xe3\x9d\xb9\xe1\x14\xeb\xeb?'
p240
tp241
Rp242
ag50
(g54
S'\xdc\x00u?\x88o\xe0?'
p243
tp244
Rp245
ag50
(g54
S'\xcc\x14\x01\xae\xe6\x96\xe1?'
p246
tp247
Rp248
ag50
(g54
S'xm\x8a\x96\xaf\x8e\xd5?'
p249
tp250
Rp251
ag50
(g54
S'\xcc\x14\x01\xae\xe6\x96\xe1?'
p252
tp253
Rp254
ag50
(g54
S'\xdc\x00u?\x88o\xe0?'
p255
tp256
Rp257
ag50
(g54
S'\xac\xc1\x04Op\xdb\xe9?'
p258
tp259
Rp260
ag50
(g54
S'\x01"\xc2}\xffx\xe6?'
p261
tp262
Rp263
ag50
(g54
S'\xdc\xdf\x8e\x14i\xc7\xe9?'
p264
tp265
Rp266
ag50
(g54
S'xm\x8a\x96\xaf\x8e\xd5?'
p267
tp268
Rp269
ag50
(g54
S'\x9aP\xde\x05O%\xe7?'
p270
tp271
Rp272
ag50
(g54
S'\xb5M.\xf7\xfd\xbb\xde?'
p273
tp274
Rp275
ag50
(g54
S'xm\x8a\x96\xaf\x8e\xd5?'
p276
tp277
Rp278
ag50
(g54
S'\xac\xc1\x04Op\xdb\xe9?'
p279
tp280
Rp281
ag50
(g54
S'\xdc\xdf\x8e\x14i\xc7\xe9?'
p282
tp283
Rp284
ag50
(g54
S'xm\x8a\x96\xaf\x8e\xd5?'
p285
tp286
Rp287
ag50
(g54
S'\x9aP\xde\x05O%\xe7?'
p288
tp289
Rp290
ag50
(g54
S'\xdc\xdf\x8e\x14i\xc7\xe9?'
p291
tp292
Rp293
ag50
(g54
S'\xb5M.\xf7\xfd\xbb\xde?'
p294
tp295
Rp296
ag50
(g54
S'xm\x8a\x96\xaf\x8e\xd5?'
p297
tp298
Rp299
ag50
(g54
S'\xcc\x14\x01\xae\xe6\x96\xe1?'
p300
tp301
Rp302
ag50
(g54
S'xm\x8a\x96\xaf\x8e\xd5?'
p303
tp304
Rp305
ag50
(g54
S'2x8w\xe3d\xe8?'
p306
tp307
Rp308
ag50
(g54
S'F\xd2\xfe\x91\x00\x06\xe6?'
p309
tp310
Rp311
ag50
(g54
S'\xdc\xdf\x8e\x14i\xc7\xe9?'
p312
tp313
Rp314
ag50
(g54
S'\xb5M.\xf7\xfd\xbb\xde?'
p315
tp316
Rp317
ag50
(g54
S'xm\x8a\x96\xaf\x8e\xd5?'
p318
tp319
Rp320
ag50
(g54
S'\xac\xc1\x04Op\xdb\xe9?'
p321
tp322
Rp323
ag50
(g54
S'\xe3\x9d\xb9\xe1\x14\xeb\xeb?'
p324
tp325
Rp326
ag50
(g54
S'\xdc\xdf\x8e\x14i\xc7\xe9?'
p327
tp328
Rp329
ag50
(g54
S'\xb5M.\xf7\xfd\xbb\xde?'
p330
tp331
Rp332
ag50
(g54
S'xm\x8a\x96\xaf\x8e\xd5?'
p333
tp334
Rp335
ag50
(g54
S'\x9aP\xde\x05O%\xe7?'
p336
tp337
Rp338
ag50
(g54
S'\x01"\xc2}\xffx\xe6?'
p339
tp340
Rp341
ag50
(g54
S'\xdc\xdf\x8e\x14i\xc7\xe9?'
p342
tp343
Rp344
ag50
(g54
S'\xb5M.\xf7\xfd\xbb\xde?'
p345
tp346
Rp347
ag50
(g54
S'\x8bV\x16\x9at\x91\xe9?'
p348
tp349
Rp350
ag50
(g54
S'\xb5M.\xf7\xfd\xbb\xde?'
p351
tp352
Rp353
ag50
(g54
S'\xb5M.\xf7\xfd\xbb\xde?'
p354
tp355
Rp356
ag50
(g54
S'\xb5M.\xf7\xfd\xbb\xde?'
p357
tp358
Rp359
ag50
(g54
S'xm\x8a\x96\xaf\x8e\xd5?'
p360
tp361
Rp362
ag50
(g54
S'\xcc\x14\x01\xae\xe6\x96\xe1?'
p363
tp364
Rp365
ag50
(g54
S'xm\x8a\x96\xaf\x8e\xd5?'
p366
tp367
Rp368
ag50
(g54
S'\xcc\x14\x01\xae\xe6\x96\xe1?'
p369
tp370
Rp371
ag50
(g54
S'\xdc\x00u?\x88o\xe0?'
p372
tp373
Rp374
ag50
(g54
S'\xac\xc1\x04Op\xdb\xe9?'
p375
tp376
Rp377
ag50
(g54
S'\xdc\x00u?\x88o\xe0?'
p378
tp379
Rp380
ag50
(g54
S'\x9aP\xde\x05O%\xe7?'
p381
tp382
Rp383
ag50
(g54
S'\xb5M.\xf7\xfd\xbb\xde?'
p384
tp385
Rp386
ag50
(g54
S'xm\x8a\x96\xaf\x8e\xd5?'
p387
tp388
Rp389
ag50
(g54
S'\xac\xc1\x04Op\xdb\xe9?'
p390
tp391
Rp392
ag50
(g54
S'\xdc\x00u?\x88o\xe0?'
p393
tp394
Rp395
ag50
(g54
S'\xac\xc1\x04Op\xdb\xe9?'
p396
tp397
Rp398
ag50
(g54
S'\xdc\x00u?\x88o\xe0?'
p399
tp400
Rp401
ag50
(g54
S'2x8w\xe3d\xe8?'
p402
tp403
Rp404
ag50
(g54
S'\xb5M.\xf7\xfd\xbb\xde?'
p405
tp406
Rp407
ag50
(g54
S'xm\x8a\x96\xaf\x8e\xd5?'
p408
tp409
Rp410
ag50
(g54
S'\xcc\x14\x01\xae\xe6\x96\xe1?'
p411
tp412
Rp413
ag50
(g54
S'\xdc\x00u?\x88o\xe0?'
p414
tp415
Rp416
ag50
(g54
S'\x9aP\xde\x05O%\xe7?'
p417
tp418
Rp419
ag50
(g54
S'\x8bV\x16\x9at\x91\xe9?'
p420
tp421
Rp422
ag50
(g54
S'\xb5M.\xf7\xfd\xbb\xde?'
p423
tp424
Rp425
ag50
(g54
S'xm\x8a\x96\xaf\x8e\xd5?'
p426
tp427
Rp428
ag50
(g54
S'2x8w\xe3d\xe8?'
p429
tp430
Rp431
ag50
(g54
S'xm\x8a\x96\xaf\x8e\xd5?'
p432
tp433
Rp434
ag50
(g54
S'\x9aP\xde\x05O%\xe7?'
p435
tp436
Rp437
ag50
(g54
S'\xdc\xdf\x8e\x14i\xc7\xe9?'
p438
tp439
Rp440
ag50
(g54
S'\xb5M.\xf7\xfd\xbb\xde?'
p441
tp442
Rp443
ag50
(g54
S'xm\x8a\x96\xaf\x8e\xd5?'
p444
tp445
Rp446
ag50
(g54
S'2x8w\xe3d\xe8?'
p447
tp448
Rp449
ag50
(g54
S'xm\x8a\x96\xaf\x8e\xd5?'
p450
tp451
Rp452
ag50
(g54
S'\xcc\x14\x01\xae\xe6\x96\xe1?'
p453
tp454
Rp455
ag50
(g54
S'\xb5M.\xf7\xfd\xbb\xde?'
p456
tp457
Rp458
ag50
(g54
S'F\xd2\xfe\x91\x00\x06\xe6?'
p459
tp460
Rp461
ag50
(g54
S'\xe3\x9d\xb9\xe1\x14\xeb\xeb?'
p462
tp463
Rp464
ag50
(g54
S'\xdc\xdf\x8e\x14i\xc7\xe9?'
p465
tp466
Rp467
ag50
(g54
S'xm\x8a\x96\xaf\x8e\xd5?'
p468
tp469
Rp470
ag50
(g54
S'\xac\xc1\x04Op\xdb\xe9?'
p471
tp472
Rp473
ag50
(g54
S'\x01"\xc2}\xffx\xe6?'
p474
tp475
Rp476
ag50
(g54
S'\xdc\x00u?\x88o\xe0?'
p477
tp478
Rp479
ag50
(g54
S'\xcc\x14\x01\xae\xe6\x96\xe1?'
p480
tp481
Rp482
ag50
(g54
S'\xe3\x9d\xb9\xe1\x14\xeb\xeb?'
p483
tp484
Rp485
ag50
(g54
S'\xdc\x00u?\x88o\xe0?'
p486
tp487
Rp488
ag50
(g54
S'\xcc\x14\x01\xae\xe6\x96\xe1?'
p489
tp490
Rp491
asS'sp'
p492
(lp493
(S'p0'
p494
I0
S't'
p495
tp496
a(g494
I0
S'x'
p497
tp498
a(g494
I0
S'y'
p499
tp500
a(S'p1'
p501
I0
g499
tp502
a(g501
I0
g495
tp503
a(g501
I0
g495
tp504
a(g501
I0
g497
tp505
a(g494
I0
g497
tp506
a(g494
I0
g495
tp507
ag496
ag498
ag500
ag502
ag503
ag505
ag506
a(g494
I0
g497
tp508
ag508
ag508
ag507
ag496
ag498
ag500
ag502
a(g501
I0
g499
tp509
a(g501
I0
g497
tp510
a(g501
I0
g499
tp511
a(g501
I0
g499
tp512
ag512
ag510
a(g501
I0
g495
tp513
ag505
a(S'p2'
p514
I0
g497
tp515
a(g514
I0
g499
tp516
a(S'p3'
p517
I0
g499
tp518
a(g517
I0
g497
tp519
a(g517
I0
g495
tp520
a(g517
F1.5707963267948966
g495
tp521
a(g517
F1.5707963267948966
g499
tp522
a(g517
F1.5707963267948966
g499
tp523
a(g517
F1.5707963267948966
g499
tp524
a(g517
F1.5707963267948966
g495
tp525
a(g517
F1.5707963267948966
g495
tp526
ag522
ag524
ag524
ag525
ag526
a(g517
I0
g495
tp527
ag521
a(g517
F1.5707963267948966
g497
tp528
a(g517
F1.5707963267948966
g499
tp529
ag523
a(g517
F1.5707963267948966
g497
tp530
ag529
ag530
a(g514
F1.5707963267948966
g497
tp531
a(g514
F1.5707963267948966
g497
tp532
a(g514
F1.5707963267948966
g499
tp533
a(g501
F1.5707963267948966
g499
tp534
a(g501
F1.5707963267948966
g499
tp535
a(g501
F1.5707963267948966
g499
tp536
a(g501
F1.5707963267948966
g497
tp537
a(g514
F1.5707963267948966
g497
tp538
ag533
a(g517
F1.5707963267948966
g499
tp539
ag530
ag529
ag524
ag525
ag528
ag531
ag532
ag533
a(g514
F1.5707963267948966
g495
tp540
a(g514
F1.5707963267948966
g497
tp541
ag533
ag534
a(g501
F1.5707963267948966
g495
tp542
a(g501
F1.5707963267948966
g495
tp543
a(g501
F1.5707963267948966
g497
tp544
ag538
ag533
a(g514
F1.5707963267948966
g497
tp545
a(g514
F1.5707963267948966
g495
tp546
ag541
ag532
ag533
ag540
a(g514
F1.5707963267948966
g495
tp547
ag541
ag532
ag533
ag534
ag535
ag542
ag543
a(g501
F1.5707963267948966
g495
tp548
ag543
ag543
ag543
ag544
ag538
ag533
ag539
ag530
ag529
ag530
ag531
ag532
ag533
ag540
a(g514
F1.5707963267948966
g499
tp549
ag540
ag549
ag545
ag532
ag533
ag539
ag530
ag531
a(g514
F1.5707963267948966
g497
tp550
ag532
ag533
ag545
ag533
ag534
ag542
ag543
ag544
a(g501
F1.5707963267948966
g495
tp551
ag544
ag538
ag532
ag546
ag547
ag541
ag533
ag540
a(g514
F1.5707963267948966
g495
tp552
ag549
ag539
ag523
ag530
a(S'p4'
p553
F1.5707963267948966
g497
tp554
asS's'
p555
(lp556
(g494
I0
g22
tp557
ag496
ag498
ag500
ag502
ag503
ag504
ag505
ag506
ag507
ag496
ag498
ag500
ag502
ag503
ag505
ag506
ag508
ag508
ag508
ag507
ag496
ag498
ag500
ag502
ag509
ag510
ag511
ag512
ag512
ag510
ag513
ag505
ag515
ag516
ag518
ag519
ag520
ag521
ag522
ag523
ag524
ag525
ag526
ag522
ag524
ag524
ag525
ag526
ag527
ag521
ag528
ag529
ag523
ag530
ag529
ag530
ag531
ag532
ag533
ag534
ag535
ag536
ag537
ag538
ag533
ag539
ag530
ag529
ag524
ag525
ag528
ag531
ag532
ag533
ag540
ag541
ag533
ag534
ag542
ag543
ag544
ag538
ag533
ag545
ag546
ag541
ag532
ag533
ag540
ag547
ag541
ag532
ag533
ag534
ag535
ag542
ag543
ag548
ag543
ag543
ag543
ag544
ag538
ag533
ag539
ag530
ag529
ag530
ag531
ag532
ag533
ag540
ag549
ag540
ag549
ag545
ag532
ag533
ag539
ag530
ag531
ag550
ag532
ag533
ag545
ag533
ag534
ag542
ag543
ag544
ag551
ag544
ag538
ag532
ag546
ag547
ag541
ag533
ag540
ag552
ag549
ag539
ag523
ag530
asS'ui'
p558
(lp559
S'hs'
p560
aS'ss'
p561
aS'hp'
p562
ag561
ag562
ag492
ag562
ag560
ag562
ag562
ag562
ag562
ag561
ag562
ag562
ag562
ag492
ag492
ag492
ag562
ag492
ag561
ag562
ag561
ag560
ag562
ag561
ag492
ag492
ag560
ag561
ag562
ag561
ag562
ag561
ag492
ag560
ag562
ag562
ag560
ag492
ag562
ag492
ag562
ag560
ag492
ag561
ag492
ag562
ag492
ag562
ag562
ag561
ag560
ag562
ag560
ag492
ag492
ag562
ag492
ag492
ag562
ag560
ag561
ag492
ag561
ag560
ag562
ag562
ag561
ag562
ag492
ag492
ag562
ag562
ag561
ag562
ag562
ag562
ag492
ag562
ag561
ag562
ag561
ag492
ag492
ag562
ag561
ag562
ag562
ag562
ag562
ag562
ag492
ag561
ag560
ag492
ag561
ag492
ag562
ag492
ag562
ag561
ag562
ag561
ag562
ag561
ag560
ag492
ag492
ag562
ag561
ag562
ag562
ag560
ag560
ag492
ag562
ag561
ag560
ag560
ag492
ag562
ag562
ag560
ag562
ag492
ag562
ag492
ag562
ag561
ag492
ag561
ag492
ag562
ag560
ag562
ag562
ag560
ag560
ag562
ag492
ag561
ag561
ag561
asS'um_before'
p563
(lp564
g492
ag562
ag562
ag561
ag562
ag492
ag562
ag492
ag560
ag492
ag562
ag562
ag561
ag562
ag562
ag492
ag492
ag492
ag492
ag560
ag492
ag562
ag562
ag561
ag561
ag560
ag562
ag492
ag492
ag560
ag560
ag562
ag561
ag562
ag561
ag560
ag560
ag492
ag560
ag561
ag492
ag562
ag492
ag560
ag492
ag492
ag562
ag492
ag561
ag492
ag562
ag562
ag561
ag560
ag562
ag560
ag492
ag492
ag562
ag492
ag492
ag561
ag560
ag561
ag562
ag561
ag560
ag562
ag492
ag562
ag562
ag492
ag492
ag562
ag562
ag562
ag562
ag492
ag562
ag492
ag562
ag561
ag562
ag560
ag560
ag562
ag492
ag562
ag562
ag561
ag562
ag492
ag562
ag492
ag492
ag562
ag492
ag561
ag492
ag492
ag492
ag562
ag561
ag562
ag561
ag560
ag562
ag560
ag492
ag492
ag562
ag562
ag560
ag562
ag560
ag560
ag492
ag562
ag561
ag560
ag492
ag561
ag492
ag562
ag560
ag562
ag492
ag562
ag492
ag562
ag560
ag562
ag561
ag492
ag560
ag561
ag562
ag562
ag562
ag492
ag560
ag561
ag561
ag560
ag561
asS'um_after'
p565
(lp566
g492
ag562
ag562
ag561
ag562
ag492
ag562
ag492
ag560
ag492
ag562
ag562
ag561
ag562
ag562
ag492
ag492
ag492
ag492
ag560
ag492
ag562
ag562
ag561
ag561
ag560
ag562
ag492
ag492
ag560
ag560
ag562
ag561
ag562
ag561
ag560
ag560
ag492
ag560
ag561
ag492
ag562
ag492
ag560
ag492
ag492
ag562
ag492
ag561
ag492
ag562
ag562
ag561
ag560
ag562
ag560
ag492
ag492
ag562
ag492
ag492
ag561
ag560
ag561
ag562
ag561
ag560
ag562
ag492
ag562
ag562
ag492
ag492
ag562
ag562
ag562
ag562
ag492
ag562
ag492
ag562
ag561
ag562
ag560
ag560
ag562
ag492
ag562
ag562
ag561
ag562
ag492
ag562
ag492
ag492
ag562
ag492
ag561
ag492
ag492
ag492
ag562
ag561
ag562
ag561
ag560
ag562
ag560
ag492
ag492
ag562
ag562
ag560
ag562
ag560
ag560
ag492
ag562
ag561
ag560
ag492
ag561
ag492
ag562
ag560
ag562
ag492
ag562
ag492
ag562
ag560
ag562
ag561
ag492
ag560
ag561
ag562
ag562
ag562
ag492
ag560
ag561
ag561
ag560
ag561
asS'is_normalized_entropy_less_than_threshold'
p567
(lp568
g50
(g51
(S'b1'
p569
I0
I1
tp570
Rp571
(I3
S'|'
p572
NNNI-1
I-1
I0
tp573
bS'\x00'
p574
tp575
Rp576
ag576
ag50
(g571
S'\x01'
p577
tp578
Rp579
ag576
ag576
ag579
ag579
ag576
ag576
ag576
ag576
ag579
ag576
ag576
ag579
ag576
ag579
ag579
ag579
ag576
ag576
ag576
ag579
ag576
ag576
ag576
ag576
ag576
ag576
ag576
ag576
ag579
ag576
ag579
ag576
ag576
ag576
ag579
ag576
ag576
ag576
ag576
ag579
ag576
ag576
ag576
ag576
ag579
ag576
ag579
ag579
ag576
ag576
ag576
ag576
ag576
ag576
ag579
ag579
ag576
ag576
ag576
ag576
ag576
ag579
ag576
ag576
ag576
ag576
ag576
ag579
ag576
ag579
ag579
ag576
ag576
ag579
ag576
ag576
ag579
ag579
ag576
ag579
ag576
ag576
ag576
ag579
ag579
ag576
ag576
ag576
ag579
ag579
ag576
ag576
ag576
ag579
ag576
ag579
ag579
ag579
ag579
ag576
ag579
ag576
ag576
ag576
ag576
ag576
ag579
ag579
ag576
ag576
ag576
ag576
ag576
ag579
ag579
ag576
ag576
ag576
ag576
ag579
ag579
ag576
ag579
ag576
ag576
ag579
ag579
ag576
ag579
ag576
ag579
ag576
ag576
ag576
ag579
ag576
ag576
ag576
ag576
ag576
ag576
ag576
asaa(lp580
S'index'
p581
aI84703
aatp582
Rp583
.