ccollections
OrderedDict
p0
((lp1
(lp2
S'combination_dict'
p3
ag0
((lp4
(lp5
S'r_to_g_config'
p6
aS'tr'
p7
aa(lp8
S'num_turns'
p9
aI3
aa(lp10
S'start_direction'
p11
acutils_ms
StartDirection
p12
(I0
tp13
Rp14
aa(lp15
S'assistance_type'
p16
acutils_ms
AssistanceType
p17
(I1
tp18
Rp19
aa(lp20
S'start_mode'
p21
aS't'
p22
aa(lp23
S'ui_given_a_noise'
p24
aF0.7
aa(lp25
S'um_given_ui_noise'
p26
aF0.3
aa(lp27
S'entropy_threshold'
p28
aF0.7
aatp29
Rp30
aa(lp31
S'data'
p32
accollections
defaultdict
p33
(c__builtin__
list
p34
tp35
Rp36
S'a'
p37
(lp38
S'mode_r'
p39
aS'move_p'
p40
ag39
ag39
ag40
ag39
ag40
ag39
aS'mode_l'
p41
ag40
ag39
ag40
ag41
ag40
ag39
ag39
ag40
ag40
ag39
ag41
ag41
ag41
ag41
ag41
ag40
ag39
ag40
ag39
ag40
asS'assistance_match_with_ground_truth'
p42
(lp43
I01
aI01
aI00
aI01
aI01
aI01
aI01
aI00
aI01
aI00
aI01
aI01
aI01
aI00
aI00
aI00
aI00
aI01
aI00
aI00
aI00
aI00
aI00
aI01
aI00
aI01
aI01
aI01
aI01
asS'is_u_intended_equals_um'
p44
(lp45
I01
aI01
aI01
aI01
aI00
aI01
aI01
aI01
aI01
aI01
aI01
aI01
aI01
aI00
aI01
aI01
aI01
aI00
aI01
aI01
aI01
aI01
aI01
aI01
aI00
aI01
aI01
aI01
aI00
asS'total_steps'
p46
I29
sS'normalized_h_of_p_ui_given_um'
p47
(lp48
cnumpy.core.multiarray
scalar
p49
(cnumpy
dtype
p50
(S'f8'
p51
I0
I1
tp52
Rp53
(I3
S'<'
p54
NNNI-1
I-1
I0
tp55
bS'\xc7\x0c\x12\xc9vG\xe0?'
p56
tp57
Rp58
ag49
(g53
S'\xb2\xc3\xedue\xa2\xc9?'
p59
tp60
Rp61
ag49
(g53
S'\xe9\xb1\x11\xe6\x8a\xe2\xe3?'
p62
tp63
Rp64
ag49
(g53
S'\xc7\x0c\x12\xc9vG\xe0?'
p65
tp66
Rp67
ag49
(g53
S':\xea\xa5\\H\xd2\xe3?'
p68
tp69
Rp70
ag49
(g53
S'\xc7\x0c\x12\xc9vG\xe0?'
p71
tp72
Rp73
ag49
(g53
S'\xb2\xc3\xedue\xa2\xc9?'
p74
tp75
Rp76
ag49
(g53
S'Lv|\x88\xa1\xe8\xea?'
p77
tp78
Rp79
ag49
(g53
S'R\x85\xda\x9fj.\xd1?'
p80
tp81
Rp82
ag49
(g53
S'`\xaa20\xdb\xee\xea?'
p83
tp84
Rp85
ag49
(g53
S'\xc7\x0c\x12\xc9vG\xe0?'
p86
tp87
Rp88
ag49
(g53
S'\xb2\xc3\xedue\xa2\xc9?'
p89
tp90
Rp91
ag49
(g53
S'R\x85\xda\x9fj.\xd1?'
p92
tp93
Rp94
ag49
(g53
S'\xc5\x0bL7\xcdl\xeb?'
p95
tp96
Rp97
ag49
(g53
S'\xe9\xb1\x11\xe6\x8a\xe2\xe3?'
p98
tp99
Rp100
ag49
(g53
S'1#\x89\xe1\xad\\\xe2?'
p101
tp102
Rp103
ag49
(g53
S'`\xaa20\xdb\xee\xea?'
p104
tp105
Rp106
ag49
(g53
S':\xea\xa5\\H\xd2\xe3?'
p107
tp108
Rp109
ag49
(g53
S'Lv|\x88\xa1\xe8\xea?'
p110
tp111
Rp112
ag49
(g53
S'E\x81\x04\x13\xf2c\xdf?'
p113
tp114
Rp115
ag49
(g53
S'e\xd3\x8c\x0cz\x8c\xe7?'
p116
tp117
Rp118
ag49
(g53
S'E\x81\x04\x13\xf2c\xdf?'
p119
tp120
Rp121
ag49
(g53
S'E\x81\x04\x13\xf2c\xdf?'
p122
tp123
Rp124
ag49
(g53
S'R\x85\xda\x9fj.\xd1?'
p125
tp126
Rp127
ag49
(g53
S'\xc5\x0bL7\xcdl\xeb?'
p128
tp129
Rp130
ag49
(g53
S'\xc7\x0c\x12\xc9vG\xe0?'
p131
tp132
Rp133
ag49
(g53
S'\xb2\xc3\xedue\xa2\xc9?'
p134
tp135
Rp136
ag49
(g53
S'\xc7\x0c\x12\xc9vG\xe0?'
p137
tp138
Rp139
ag49
(g53
S':\xea\xa5\\H\xd2\xe3?'
p140
tp141
Rp142
asS'sp'
p143
(lp144
(S'p0'
p145
I0
S'x'
p146
tp147
a(S'p1'
p148
I0
g146
tp149
a(g148
I0
g146
tp150
a(g148
I0
S'y'
p151
tp152
a(S'p2'
p153
I0
g151
tp154
a(g153
I0
S't'
p155
tp156
a(g153
F1.5707963267948966
g155
tp157
a(g153
F1.5707963267948966
g151
tp158
a(g153
F1.5707963267948966
g146
tp159
a(g148
F1.5707963267948966
g146
tp160
a(g148
F1.5707963267948966
g151
tp161
a(g153
F1.5707963267948966
g151
tp162
ag159
a(g153
F1.5707963267948966
g155
tp163
a(g153
F1.5707963267948966
g155
tp164
a(g153
I0
g155
tp165
a(g153
I0
g155
tp166
ag157
ag158
a(g153
F1.5707963267948966
g151
tp167
a(g153
F1.5707963267948966
g151
tp168
ag167
ag167
ag159
ag163
a(g153
F1.5707963267948966
g146
tp169
a(S'p3'
p170
F1.5707963267948966
g146
tp171
a(g170
F1.5707963267948966
g151
tp172
a(S'p4'
p173
F1.5707963267948966
g151
tp174
asS's'
p175
(lp176
(g145
I0
g22
tp177
ag147
ag149
ag150
ag152
ag154
ag156
ag157
ag158
ag159
ag160
ag161
ag162
ag159
ag163
ag164
ag165
ag166
ag157
ag158
ag167
ag168
ag167
ag167
ag159
ag163
ag169
ag171
ag172
asS'ui'
p178
(lp179
g143
ag143
ag143
aS'ss'
p180
ag143
ag180
ag143
aS'hs'
p181
ag181
ag143
aS'hp'
p182
ag143
ag181
ag143
ag182
ag182
ag180
ag182
ag143
ag143
ag180
ag143
ag143
ag181
ag143
ag182
ag143
ag182
ag180
asS'um_before'
p183
(lp184
g182
ag143
ag143
ag182
ag182
ag182
ag143
ag181
ag181
ag180
ag182
ag143
ag181
ag181
ag143
ag180
ag180
ag182
ag181
ag143
ag180
ag143
ag143
ag181
ag181
ag182
ag143
ag182
ag182
asS'um_after'
p185
(lp186
g182
ag143
ag143
ag182
ag143
ag182
ag143
ag181
ag181
ag180
ag182
ag143
ag181
ag181
ag143
ag180
ag180
ag143
ag181
ag143
ag180
ag143
ag143
ag181
ag181
ag182
ag143
ag182
ag143
asS'is_normalized_entropy_less_than_threshold'
p187
(lp188
g49
(g50
(S'b1'
p189
I0
I1
tp190
Rp191
(I3
S'|'
p192
NNNI-1
I-1
I0
tp193
bS'\x01'
p194
tp195
Rp196
ag196
ag196
ag196
ag196
ag196
ag196
ag49
(g191
S'\x00'
p197
tp198
Rp199
ag196
ag199
ag196
ag196
ag196
ag199
ag196
ag196
ag199
ag196
ag199
ag196
ag199
ag196
ag196
ag196
ag199
ag196
ag196
ag196
ag196
asaa(lp200
S'index'
p201
aI21471
aatp202
Rp203
.