ccollections
OrderedDict
p0
((lp1
(lp2
S'combination_dict'
p3
ag0
((lp4
(lp5
S'r_to_g_config'
p6
aS'tr'
p7
aa(lp8
S'num_turns'
p9
aI3
aa(lp10
S'start_direction'
p11
acutils_ms
StartDirection
p12
(I0
tp13
Rp14
aa(lp15
S'assistance_type'
p16
acutils_ms
AssistanceType
p17
(I0
tp18
Rp19
aa(lp20
S'start_mode'
p21
aS'y'
p22
aa(lp23
S'ui_given_a_noise'
p24
aF0.3
aa(lp25
S'um_given_ui_noise'
p26
aF0.7
aa(lp27
S'entropy_threshold'
p28
aF0.5
aatp29
Rp30
aa(lp31
S'data'
p32
accollections
defaultdict
p33
(c__builtin__
list
p34
tp35
Rp36
S'a'
p37
(lp38
S'mode_l'
p39
ag39
aS'mode_r'
p40
aS'move_p'
p41
ag40
ag41
ag39
ag41
ag41
ag39
ag41
ag40
ag40
ag40
ag41
ag39
ag39
ag39
ag40
ag41
ag40
ag41
ag40
ag41
ag39
ag39
ag41
ag39
ag40
ag41
ag39
ag41
ag39
ag41
ag39
ag41
ag41
ag39
ag41
ag39
ag41
ag39
ag39
ag39
ag39
ag40
ag41
ag39
ag41
ag40
ag41
asS'assistance_match_with_ground_truth'
p42
(lp43
I00
aI00
aI01
aI00
aI01
aI00
aI01
aI00
aI00
aI01
aI01
aI00
aI00
aI01
aI01
aI00
aI00
aI00
aI01
aI00
aI01
aI00
aI01
aI01
aI00
aI01
aI01
aI00
aI01
aI00
aI01
aI00
aI01
aI01
aI00
aI00
aI01
aI01
aI00
aI01
aI00
aI00
aI00
aI00
aI00
aI01
aI00
aI01
aI01
aI01
aI01
asS'is_u_intended_equals_um'
p44
(lp45
I01
aI01
aI01
aI00
aI01
aI00
aI01
aI00
aI00
aI01
aI01
aI01
aI01
aI01
aI01
aI00
aI01
aI01
aI01
aI00
aI01
aI00
aI01
aI01
aI00
aI01
aI01
aI01
aI01
aI00
aI01
aI00
aI01
aI01
aI00
aI00
aI01
aI01
aI00
aI01
aI00
aI01
aI00
aI00
aI01
aI01
aI00
aI01
aI01
aI01
aI01
asS'total_steps'
p46
I51
sS'normalized_h_of_p_ui_given_um'
p47
(lp48
cnumpy.core.multiarray
scalar
p49
(cnumpy
dtype
p50
(S'f8'
p51
I0
I1
tp52
Rp53
(I3
S'<'
p54
NNNI-1
I-1
I0
tp55
bS'd\x12Zv\t\xc0\xe9?'
p56
tp57
Rp58
ag49
(g53
S'\xde\xfc\xd2\x8f\xbb\x15\xea?'
p59
tp60
Rp61
ag49
(g53
S'\xfe\xdag\xd2\\\xec\xd0?'
p62
tp63
Rp64
ag49
(g53
S'\x10\x8c\x19\xd8\xbc\xdb\xe1?'
p65
tp66
Rp67
ag49
(g53
S'\xfe\xdag\xd2\\\xec\xd0?'
p68
tp69
Rp70
ag49
(g53
S'\xd3`Z\xaf1\xe9\xe9?'
p71
tp72
Rp73
ag49
(g53
S'*q\xafBs\xc7\xd5?'
p74
tp75
Rp76
ag49
(g53
S'\xa6\xa70+ay\xe5?'
p77
tp78
Rp79
ag49
(g53
S'\xd3`Z\xaf1\xe9\xe9?'
p80
tp81
Rp82
ag49
(g53
S'*q\xafBs\xc7\xd5?'
p83
tp84
Rp85
ag49
(g53
S'a\xff\x17{\x9c\xd5\xd0?'
p86
tp87
Rp88
ag49
(g53
S'\x1awbsC\x89\xea?'
p89
tp90
Rp91
ag49
(g53
S'\x1awbsC\x89\xea?'
p92
tp93
Rp94
ag49
(g53
S'\xfe\xdag\xd2\\\xec\xd0?'
p95
tp96
Rp97
ag49
(g53
S'a\xff\x17{\x9c\xd5\xd0?'
p98
tp99
Rp100
ag49
(g53
S'L\xdd\xd4%N\xee\xe6?'
p101
tp102
Rp103
ag49
(g53
S'd\x12Zv\t\xc0\xe9?'
p104
tp105
Rp106
ag49
(g53
S'\xde\xfc\xd2\x8f\xbb\x15\xea?'
p107
tp108
Rp109
ag49
(g53
S'\xfe\xdag\xd2\\\xec\xd0?'
p110
tp111
Rp112
ag49
(g53
S'\xa6\xa70+ay\xe5?'
p113
tp114
Rp115
ag49
(g53
S'\xfe\xdag\xd2\\\xec\xd0?'
p116
tp117
Rp118
ag49
(g53
S'\x10\x8c\x19\xd8\xbc\xdb\xe1?'
p119
tp120
Rp121
ag49
(g53
S'\xfe\xdag\xd2\\\xec\xd0?'
p122
tp123
Rp124
ag49
(g53
S'a\xff\x17{\x9c\xd5\xd0?'
p125
tp126
Rp127
ag49
(g53
S'L\xdd\xd4%N\xee\xe6?'
p128
tp129
Rp130
ag49
(g53
S'*q\xafBs\xc7\xd5?'
p131
tp132
Rp133
ag49
(g53
S'a\xff\x17{\x9c\xd5\xd0?'
p134
tp135
Rp136
ag49
(g53
S'\xde\xfc\xd2\x8f\xbb\x15\xea?'
p137
tp138
Rp139
ag49
(g53
S'\xfe\xdag\xd2\\\xec\xd0?'
p140
tp141
Rp142
ag49
(g53
S'\xd3`Z\xaf1\xe9\xe9?'
p143
tp144
Rp145
ag49
(g53
S'*q\xafBs\xc7\xd5?'
p146
tp147
Rp148
ag49
(g53
S'\xd3`Z\xaf1\xe9\xe9?'
p149
tp150
Rp151
ag49
(g53
S'*q\xafBs\xc7\xd5?'
p152
tp153
Rp154
ag49
(g53
S'a\xff\x17{\x9c\xd5\xd0?'
p155
tp156
Rp157
ag49
(g53
S'L\xdd\xd4%N\xee\xe6?'
p158
tp159
Rp160
ag49
(g53
S'\xa6\xa70+ay\xe5?'
p161
tp162
Rp163
ag49
(g53
S'a\xff\x17{\x9c\xd5\xd0?'
p164
tp165
Rp166
ag49
(g53
S'*q\xafBs\xc7\xd5?'
p167
tp168
Rp169
ag49
(g53
S'\xd3`Z\xaf1\xe9\xe9?'
p170
tp171
Rp172
ag49
(g53
S'*q\xafBs\xc7\xd5?'
p173
tp174
Rp175
ag49
(g53
S'\xa6\xa70+ay\xe5?'
p176
tp177
Rp178
ag49
(g53
S'd\x12Zv\t\xc0\xe9?'
p179
tp180
Rp181
ag49
(g53
S'L\xdd\xd4%N\xee\xe6?'
p182
tp183
Rp184
ag49
(g53
S'L\xdd\xd4%N\xee\xe6?'
p185
tp186
Rp187
ag49
(g53
S'\xde\xfc\xd2\x8f\xbb\x15\xea?'
p188
tp189
Rp190
ag49
(g53
S'\xfe\xdag\xd2\\\xec\xd0?'
p191
tp192
Rp193
ag49
(g53
S'\xd3`Z\xaf1\xe9\xe9?'
p194
tp195
Rp196
ag49
(g53
S'*q\xafBs\xc7\xd5?'
p197
tp198
Rp199
ag49
(g53
S'a\xff\x17{\x9c\xd5\xd0?'
p200
tp201
Rp202
ag49
(g53
S'\xfe\xdag\xd2\\\xec\xd0?'
p203
tp204
Rp205
ag49
(g53
S'a\xff\x17{\x9c\xd5\xd0?'
p206
tp207
Rp208
asS'sp'
p209
(lp210
(S'p0'
p211
I0
S'y'
p212
tp213
a(g211
I0
S't'
p214
tp215
a(g211
I0
S'x'
p216
tp217
a(g211
I0
g214
tp218
ag217
a(g211
I0
g212
tp219
a(g211
I0
g216
tp220
a(g211
I0
g216
tp221
ag219
ag220
a(S'p1'
p222
I0
g216
tp223
a(g222
I0
g216
tp224
ag224
a(g222
I0
g212
tp225
a(S'p2'
p226
I0
g212
tp227
a(g226
I0
g212
tp228
a(g226
I0
g212
tp229
a(g226
I0
g214
tp230
a(g226
I0
g216
tp231
a(g222
I0
g216
tp232
ag225
a(g222
I0
g216
tp233
ag225
ag227
ag228
a(g226
I0
g216
tp234
a(S'p3'
p235
I0
g216
tp236
a(g235
I0
g212
tp237
a(g235
I0
g214
tp238
a(g235
I0
g216
tp239
a(g235
I0
g214
tp240
ag239
ag240
a(g235
F1.5707963267948966
g214
tp241
a(g235
I0
g214
tp242
a(g235
I0
g214
tp243
ag241
a(g235
F1.5707963267948966
g212
tp244
a(g235
F1.5707963267948966
g214
tp245
ag244
a(g226
F1.5707963267948966
g212
tp246
a(g226
F1.5707963267948966
g212
tp247
a(g226
F1.5707963267948966
g212
tp248
ag248
a(g226
F1.5707963267948966
g214
tp249
a(g226
F1.5707963267948966
g216
tp250
a(g226
F1.5707963267948966
g212
tp251
a(g226
F1.5707963267948966
g216
tp252
a(g235
F1.5707963267948966
g216
tp253
a(g235
F1.5707963267948966
g212
tp254
a(S'p4'
p255
F1.5707963267948966
g212
tp256
asS's'
p257
(lp258
(g211
I0
g22
tp259
ag213
ag215
ag217
ag218
ag217
ag219
ag220
ag221
ag219
ag220
ag223
ag224
ag224
ag225
ag227
ag228
ag229
ag230
ag231
ag232
ag225
ag233
ag225
ag227
ag228
ag234
ag236
ag237
ag238
ag239
ag240
ag239
ag240
ag241
ag242
ag243
ag241
ag244
ag245
ag244
ag246
ag247
ag248
ag248
ag249
ag250
ag251
ag252
ag253
ag254
asS'ui'
p260
(lp261
g209
aS'hs'
p262
aS'hp'
p263
ag209
ag263
ag209
ag262
ag209
aS'ss'
p264
ag262
ag209
ag263
ag263
ag263
ag209
ag262
ag264
ag209
ag263
ag209
ag263
ag209
ag263
ag209
ag262
ag262
ag209
ag263
ag263
ag209
ag262
ag263
ag262
ag209
ag262
ag209
ag209
ag262
ag263
ag264
ag209
ag209
ag262
ag262
ag262
ag263
ag262
ag262
ag209
ag263
ag264
asS'um_before'
p265
(lp266
g209
ag263
ag263
ag262
ag263
ag263
ag262
ag264
ag263
ag262
ag209
ag264
ag264
ag263
ag209
ag264
ag209
ag263
ag263
ag264
ag263
ag262
ag263
ag209
ag264
ag262
ag209
ag263
ag263
ag263
ag262
ag263
ag262
ag209
ag264
ag264
ag209
ag262
ag263
ag262
ag264
ag209
ag264
ag264
ag263
ag263
ag263
ag262
ag209
ag263
ag209
asS'um_after'
p267
(lp268
g209
ag263
ag263
ag262
ag263
ag263
ag262
ag264
ag263
ag262
ag209
ag264
ag264
ag263
ag209
ag264
ag209
ag263
ag263
ag264
ag263
ag262
ag263
ag209
ag264
ag262
ag209
ag263
ag263
ag263
ag262
ag263
ag262
ag209
ag264
ag264
ag209
ag262
ag263
ag262
ag264
ag209
ag264
ag264
ag263
ag263
ag263
ag262
ag209
ag263
ag209
asS'is_normalized_entropy_less_than_threshold'
p269
(lp270
g49
(g50
(S'b1'
p271
I0
I1
tp272
Rp273
(I3
S'|'
p274
NNNI-1
I-1
I0
tp275
bS'\x00'
p276
tp277
Rp278
ag278
ag49
(g273
S'\x01'
p279
tp280
Rp281
ag278
ag281
ag278
ag281
ag278
ag278
ag281
ag281
ag278
ag278
ag281
ag281
ag278
ag278
ag278
ag281
ag278
ag281
ag278
ag281
ag281
ag278
ag281
ag281
ag278
ag281
ag278
ag281
ag278
ag281
ag281
ag278
ag278
ag281
ag281
ag278
ag281
ag278
ag278
ag278
ag278
ag278
ag281
ag278
ag281
ag281
ag281
ag281
asaa(lp282
S'index'
p283
aI20355
aatp284
Rp285
.