ccollections
OrderedDict
p0
((lp1
(lp2
S'combination_dict'
p3
ag0
((lp4
(lp5
S'r_to_g_config'
p6
aS'br'
p7
aa(lp8
S'num_turns'
p9
aI2
aa(lp10
S'start_direction'
p11
acutils_ms
StartDirection
p12
(I1
tp13
Rp14
aa(lp15
S'assistance_type'
p16
acutils_ms
AssistanceType
p17
(I1
tp18
Rp19
aa(lp20
S'start_mode'
p21
aS'x'
p22
aa(lp23
S'ui_given_a_noise'
p24
aF0.1
aa(lp25
S'um_given_ui_noise'
p26
aF0.3
aa(lp27
S'entropy_threshold'
p28
aF0.7
aatp29
Rp30
aa(lp31
S'data'
p32
accollections
defaultdict
p33
(c__builtin__
list
p34
tp35
Rp36
S'a'
p37
(lp38
S'mode_r'
p39
aS'move_n'
p40
aS'mode_l'
p41
aS'move_p'
p42
ag41
ag42
ag41
ag41
ag40
asS'assistance_match_with_ground_truth'
p43
(lp44
I01
aI01
aI01
aI01
aI01
aI01
aI00
aI01
aI01
asS'is_u_intended_equals_um'
p45
(lp46
I01
aI00
aI01
aI01
aI01
aI01
aI01
aI01
aI01
asS'total_steps'
p47
I9
sS'normalized_h_of_p_ui_given_um'
p48
(lp49
cnumpy.core.multiarray
scalar
p50
(cnumpy
dtype
p51
(S'f8'
p52
I0
I1
tp53
Rp54
(I3
S'<'
p55
NNNI-1
I-1
I0
tp56
bS'$N,a4\xb7\xb0?'
p57
tp58
Rp59
ag50
(g54
S'\xf0\xba\xd9\xd3\xf8a\xe6?'
p60
tp61
Rp62
ag50
(g54
S'0\xe1\xb0[\xe3\x86\xbf?'
p63
tp64
Rp65
ag50
(g54
S"\x82\xd4\xb1'i\x95\xbb?"
p66
tp67
Rp68
ag50
(g54
S'0\xe1\xb0[\xe3\x86\xbf?'
p69
tp70
Rp71
ag50
(g54
S"\x82\xd4\xb1'i\x95\xbb?"
p72
tp73
Rp74
ag50
(g54
S'\xbc\xf0}\xa0\xdfJ\xe3?'
p75
tp76
Rp77
ag50
(g54
S'0\xe1\xb0[\xe3\x86\xbf?'
p78
tp79
Rp80
ag50
(g54
S'\xf6X\xf40\xc2\x00\xa2?'
p81
tp82
Rp83
asS'sp'
p84
(lp85
(S'p0'
p86
I0
S'y'
p87
tp88
a(S'p1'
p89
I0
g87
tp90
a(g89
I0
S'x'
p91
tp92
a(S'p2'
p93
I0
g91
tp94
a(g93
I0
S't'
p95
tp96
a(g93
F1.5707963267948966
g95
tp97
a(g93
F1.5707963267948966
g95
tp98
a(g93
F1.5707963267948966
g87
tp99
a(S'p3'
p100
F1.5707963267948966
g87
tp101
asS's'
p102
(lp103
(g86
I0
g22
tp104
ag88
ag90
ag92
ag94
ag96
ag97
ag98
ag99
asS'ui'
p105
(lp106
S'hp'
p107
aS'hs'
p108
ag108
ag84
ag108
ag84
ag84
ag108
aS'ss'
p109
asS'um_before'
p110
(lp111
g107
ag107
ag108
ag84
ag108
ag84
ag84
ag108
ag109
asS'um_after'
p112
(lp113
g107
ag109
ag108
ag84
ag108
ag84
ag84
ag108
ag109
asS'is_normalized_entropy_less_than_threshold'
p114
(lp115
g50
(g51
(S'b1'
p116
I0
I1
tp117
Rp118
(I3
S'|'
p119
NNNI-1
I-1
I0
tp120
bS'\x01'
p121
tp122
Rp123
ag123
ag123
ag123
ag123
ag123
ag123
ag123
ag123
asaa(lp124
S'index'
p125
aI102471
aatp126
Rp127
.