ccollections
OrderedDict
p0
((lp1
(lp2
S'combination_dict'
p3
ag0
((lp4
(lp5
S'r_to_g_config'
p6
aS'br'
p7
aa(lp8
S'num_turns'
p9
aI2
aa(lp10
S'start_direction'
p11
acutils_ms
StartDirection
p12
(I0
tp13
Rp14
aa(lp15
S'assistance_type'
p16
acutils_ms
AssistanceType
p17
(I0
tp18
Rp19
aa(lp20
S'start_mode'
p21
aS'y'
p22
aa(lp23
S'ui_given_a_noise'
p24
aF0.7
aa(lp25
S'um_given_ui_noise'
p26
aF0.7
aa(lp27
S'entropy_threshold'
p28
aF0.7
aatp29
Rp30
aa(lp31
S'data'
p32
accollections
defaultdict
p33
(c__builtin__
list
p34
tp35
Rp36
S'a'
p37
(lp38
S'mode_l'
p39
ag39
ag39
aS'move_p'
p40
aS'mode_r'
p41
aS'move_n'
p42
ag41
ag41
ag41
ag41
ag41
ag41
ag41
ag42
ag41
ag41
ag41
ag41
ag41
ag40
ag41
ag41
ag41
ag41
ag40
asS'assistance_match_with_ground_truth'
p43
(lp44
I00
aI00
aI01
aI01
aI01
aI00
aI00
aI00
aI00
aI00
aI00
aI00
aI01
aI01
aI00
aI00
aI00
aI00
aI01
aI01
aI00
aI00
aI00
aI01
aI01
asS'is_u_intended_equals_um'
p45
(lp46
I01
aI00
aI01
aI01
aI01
aI00
aI00
aI00
aI00
aI00
aI01
aI00
aI01
aI01
aI00
aI01
aI01
aI01
aI01
aI01
aI00
aI00
aI00
aI01
aI01
asS'total_steps'
p47
I25
sS'normalized_h_of_p_ui_given_um'
p48
(lp49
cnumpy.core.multiarray
scalar
p50
(cnumpy
dtype
p51
(S'f8'
p52
I0
I1
tp53
Rp54
(I3
S'<'
p55
NNNI-1
I-1
I0
tp56
bS'o\xb8\x8f3\xfc~\xe8?'
p57
tp58
Rp59
ag50
(g54
S'0\xc9\x0b?\xc3-\xee?'
p60
tp61
Rp62
ag50
(g54
S'\x0c\t\xd6\xe8\xcd\xea\xe3?'
p63
tp64
Rp65
ag50
(g54
S'C\x0b+\xff\x0e\x8e\xe8?'
p66
tp67
Rp68
ag50
(g54
S'G\x07\xca0\x125\xdc?'
p69
tp70
Rp71
ag50
(g54
S'\xcd\x0e\xf7?\x97.\xe9?'
p72
tp73
Rp74
ag50
(g54
S'\x00,*-C\xa5\xe8?'
p75
tp76
Rp77
ag50
(g54
S'\x00,*-C\xa5\xe8?'
p78
tp79
Rp80
ag50
(g54
S'\xde\x9e\xbe\x95t1\xe5?'
p81
tp82
Rp83
ag50
(g54
S'\xde\x9e\xbe\x95t1\xe5?'
p84
tp85
Rp86
ag50
(g54
S'\x1b\xd8\xea\x1d\x9f\n\xe5?'
p87
tp88
Rp89
ag50
(g54
S'\xde\x9e\xbe\x95t1\xe5?'
p90
tp91
Rp92
ag50
(g54
S'G\x07\xca0\x125\xdc?'
p93
tp94
Rp95
ag50
(g54
S'\x169\t6\xb0S\xe5?'
p96
tp97
Rp98
ag50
(g54
S'\x00,*-C\xa5\xe8?'
p99
tp100
Rp101
ag50
(g54
S'\x1b\xd8\xea\x1d\x9f\n\xe5?'
p102
tp103
Rp104
ag50
(g54
S'\x1b\xd8\xea\x1d\x9f\n\xe5?'
p105
tp106
Rp107
ag50
(g54
S'\x1b\xd8\xea\x1d\x9f\n\xe5?'
p108
tp109
Rp110
ag50
(g54
S'G\x07\xca0\x125\xdc?'
p111
tp112
Rp113
ag50
(g54
S'C\x0b+\xff\x0e\x8e\xe8?'
p114
tp115
Rp116
ag50
(g54
S'\x00,*-C\xa5\xe8?'
p117
tp118
Rp119
ag50
(g54
S'\xde\x9e\xbe\x95t1\xe5?'
p120
tp121
Rp122
ag50
(g54
S'\x00,*-C\xa5\xe8?'
p123
tp124
Rp125
ag50
(g54
S'G\x07\xca0\x125\xdc?'
p126
tp127
Rp128
ag50
(g54
S'C\x0b+\xff\x0e\x8e\xe8?'
p129
tp130
Rp131
asS'sp'
p132
(lp133
(S'p0'
p134
I0
S'y'
p135
tp136
a(g134
I0
g135
tp137
a(g134
I0
S'x'
p138
tp139
a(S'p1'
p140
I0
g138
tp141
a(g140
I0
g135
tp142
a(g140
I0
g138
tp143
a(g140
I0
g138
tp144
ag144
ag144
ag144
a(g140
I0
g138
tp145
ag145
ag142
a(S'p2'
p146
I0
g135
tp147
a(g146
I0
g135
tp148
a(g146
I0
g135
tp149
ag149
ag149
a(g146
I0
S't'
p150
tp151
a(g146
F1.5707963267948966
g150
tp152
a(g146
F1.5707963267948966
g150
tp153
ag153
ag153
a(g146
F1.5707963267948966
g138
tp154
a(S'p3'
p155
F1.5707963267948966
g138
tp156
asS's'
p157
(lp158
(g134
I0
g22
tp159
ag136
ag137
ag139
ag141
ag142
ag143
ag144
ag144
ag144
ag144
ag145
ag145
ag142
ag147
ag148
ag149
ag149
ag149
ag151
ag152
ag153
ag153
ag153
ag154
asS'ui'
p160
(lp161
g132
aS'hp'
p162
ag162
ag132
ag162
aS'ss'
p163
ag162
ag132
ag163
ag162
ag162
ag162
ag162
ag132
ag162
ag163
ag163
ag162
ag162
aS'hs'
p164
ag162
ag164
ag162
ag162
ag163
asS'um_before'
p165
(lp166
g163
ag132
ag164
ag132
ag162
ag164
ag132
ag132
ag164
ag164
ag163
ag164
ag162
ag163
ag132
ag163
ag163
ag163
ag162
ag132
ag132
ag164
ag132
ag162
ag132
asS'um_after'
p167
(lp168
g163
ag132
ag164
ag132
ag162
ag164
ag132
ag132
aNaNag163
aNag162
ag163
ag132
ag163
ag163
ag163
ag162
ag132
ag132
aNag132
ag162
ag132
asS'is_normalized_entropy_less_than_threshold'
p169
(lp170
g50
(g51
(S'b1'
p171
I0
I1
tp172
Rp173
(I3
S'|'
p174
NNNI-1
I-1
I0
tp175
bS'\x00'
p176
tp177
Rp178
ag178
ag50
(g173
S'\x01'
p179
tp180
Rp181
ag178
ag181
ag178
ag178
ag178
ag181
ag181
ag181
ag181
ag181
ag181
ag178
ag181
ag181
ag181
ag181
ag178
ag178
ag181
ag178
ag181
ag178
asaa(lp182
S'index'
p183
aI97574
aatp184
Rp185
.