ccollections
OrderedDict
p0
((lp1
(lp2
S'combination_dict'
p3
ag0
((lp4
(lp5
S'r_to_g_config'
p6
aS'bl'
p7
aa(lp8
S'num_turns'
p9
aI3
aa(lp10
S'start_direction'
p11
acutils_ms
StartDirection
p12
(I0
tp13
Rp14
aa(lp15
S'assistance_type'
p16
acutils_ms
AssistanceType
p17
(I0
tp18
Rp19
aa(lp20
S'start_mode'
p21
aS't'
p22
aa(lp23
S'ui_given_a_noise'
p24
aF0.1
aa(lp25
S'um_given_ui_noise'
p26
aF0.3
aa(lp27
S'entropy_threshold'
p28
aF0.6
aatp29
Rp30
aa(lp31
S'data'
p32
accollections
defaultdict
p33
(c__builtin__
list
p34
tp35
Rp36
S'a'
p37
(lp38
S'mode_r'
p39
aS'move_n'
p40
ag39
ag39
ag39
ag40
ag39
ag39
ag39
ag40
aS'mode_l'
p41
ag40
ag39
ag39
ag40
ag41
ag41
ag41
ag41
ag40
ag39
ag39
ag40
ag41
ag41
ag41
aS'move_p'
p42
ag42
ag42
ag41
ag41
ag42
ag42
ag41
ag41
ag40
ag39
ag39
ag40
ag41
ag40
ag41
ag40
ag39
ag40
asS'assistance_match_with_ground_truth'
p43
(lp44
I01
aI00
aI00
aI00
aI01
aI01
aI00
aI00
aI01
aI01
aI01
aI00
aI00
aI01
aI01
aI00
aI00
aI00
aI01
aI00
aI00
aI01
aI01
aI00
aI00
aI01
aI00
aI00
aI00
aI00
aI01
aI00
aI01
aI00
aI01
aI00
aI00
aI01
aI00
aI01
aI00
aI01
aI01
aI01
aI01
asS'is_u_intended_equals_um'
p45
(lp46
I01
aI00
aI00
aI00
aI01
aI01
aI00
aI00
aI01
aI01
aI01
aI00
aI00
aI01
aI01
aI00
aI00
aI00
aI01
aI00
aI00
aI01
aI01
aI00
aI00
aI01
aI00
aI00
aI00
aI00
aI01
aI00
aI01
aI00
aI01
aI00
aI00
aI01
aI00
aI01
aI00
aI01
aI01
aI01
aI01
asS'total_steps'
p47
I45
sS'normalized_h_of_p_ui_given_um'
p48
(lp49
cnumpy.core.multiarray
scalar
p50
(cnumpy
dtype
p51
(S'f8'
p52
I0
I1
tp53
Rp54
(I3
S'<'
p55
NNNI-1
I-1
I0
tp56
bS'\x88\xc6?\xc4\xc8\xc5\xb5?'
p57
tp58
Rp59
ag50
(g54
S't@`4\xf9\x85\xeb?'
p60
tp61
Rp62
ag50
(g54
S'\xc80\x81\xd9\xba\xe5\xe1?'
p63
tp64
Rp65
ag50
(g54
S'\xc80\x81\xd9\xba\xe5\xe1?'
p66
tp67
Rp68
ag50
(g54
S'\x88\xc6?\xc4\xc8\xc5\xb5?'
p69
tp70
Rp71
ag50
(g54
S'\xa0\xa7\x10\xca\xb2\x16\xb9?'
p72
tp73
Rp74
ag50
(g54
S'\xbe\x88\xef\xa7\xce|\xe7?'
p75
tp76
Rp77
ag50
(g54
S'\xc0j\xf0\xd8\x16\x84\xe5?'
p78
tp79
Rp80
ag50
(g54
S'\x88\xc6?\xc4\xc8\xc5\xb5?'
p81
tp82
Rp83
ag50
(g54
S'\xa0\xa7\x10\xca\xb2\x16\xb9?'
p84
tp85
Rp86
ag50
(g54
S'R\x90N\xc6\xe9\x92\xbe?'
p87
tp88
Rp89
ag50
(g54
S'v\xf7\xde\xfc\x14L\xe6?'
p90
tp91
Rp92
ag50
(g54
S'\xc80\x81\xd9\xba\xe5\xe1?'
p93
tp94
Rp95
ag50
(g54
S'\x88\xc6?\xc4\xc8\xc5\xb5?'
p96
tp97
Rp98
ag50
(g54
S'\xa0\xa7\x10\xca\xb2\x16\xb9?'
p99
tp100
Rp101
ag50
(g54
S'\x9a\xb2\x9a\xee\xa3=\xe4?'
p102
tp103
Rp104
ag50
(g54
S'NQq)4x\xde?'
p105
tp106
Rp107
ag50
(g54
S'NQq)4x\xde?'
p108
tp109
Rp110
ag50
(g54
S'R\x90N\xc6\xe9\x92\xbe?'
p111
tp112
Rp113
ag50
(g54
S't@`4\xf9\x85\xeb?'
p114
tp115
Rp116
ag50
(g54
S'\xc0j\xf0\xd8\x16\x84\xe5?'
p117
tp118
Rp119
ag50
(g54
S'\x88\xc6?\xc4\xc8\xc5\xb5?'
p120
tp121
Rp122
ag50
(g54
S'\xa0\xa7\x10\xca\xb2\x16\xb9?'
p123
tp124
Rp125
ag50
(g54
S'\x0c\xb8i7g\xab\xe2?'
p126
tp127
Rp128
ag50
(g54
S'\x0c\xb8i7g\xab\xe2?'
p129
tp130
Rp131
ag50
(g54
S'R\x90N\xc6\xe9\x92\xbe?'
p132
tp133
Rp134
ag50
(g54
S'R\xe4\x17,\x0b}\xe0?'
p135
tp136
Rp137
ag50
(g54
S'\xe88\xdb;\xd4\xcc\xe4?'
p138
tp139
Rp140
ag50
(g54
S'\xf2a/\xfe\x17\x14\xeb?'
p141
tp142
Rp143
ag50
(g54
S'\x0c\xb8i7g\xab\xe2?'
p144
tp145
Rp146
ag50
(g54
S'R\x90N\xc6\xe9\x92\xbe?'
p147
tp148
Rp149
ag50
(g54
S'R\xe4\x17,\x0b}\xe0?'
p150
tp151
Rp152
ag50
(g54
S'\x19<{\x13\xfcE\xbf?'
p153
tp154
Rp155
ag50
(g54
S'NQq)4x\xde?'
p156
tp157
Rp158
ag50
(g54
S'R\x90N\xc6\xe9\x92\xbe?'
p159
tp160
Rp161
ag50
(g54
S't@`4\xf9\x85\xeb?'
p162
tp163
Rp164
ag50
(g54
S'\xc80\x81\xd9\xba\xe5\xe1?'
p165
tp166
Rp167
ag50
(g54
S'\x88\xc6?\xc4\xc8\xc5\xb5?'
p168
tp169
Rp170
ag50
(g54
S'v\xf7\xde\xfc\x14L\xe6?'
p171
tp172
Rp173
ag50
(g54
S'R\x90N\xc6\xe9\x92\xbe?'
p174
tp175
Rp176
ag50
(g54
S'\x9d7.\xad\xd6\x8f\xe4?'
p177
tp178
Rp179
ag50
(g54
S'R\x90N\xc6\xe9\x92\xbe?'
p180
tp181
Rp182
ag50
(g54
S'\xa0\xa7\x10\xca\xb2\x16\xb9?'
p183
tp184
Rp185
ag50
(g54
S'\x88\xc6?\xc4\xc8\xc5\xb5?'
p186
tp187
Rp188
ag50
(g54
S'\xa0\xa7\x10\xca\xb2\x16\xb9?'
p189
tp190
Rp191
asS'sp'
p192
(lp193
(S'p0'
p194
I0
S'x'
p195
tp196
a(g194
I0
S't'
p197
tp198
ag198
ag198
ag196
a(S'p1'
p199
I0
g195
tp200
a(g199
I0
g195
tp201
a(g199
I0
g195
tp202
a(g199
I0
S'y'
p203
tp204
a(S'p2'
p205
I0
g203
tp206
a(g205
I0
g195
tp207
a(g199
I0
g195
tp208
ag208
ag204
ag206
a(g205
I0
g203
tp209
ag209
ag209
ag207
a(g205
I0
g197
tp210
a(g205
I0
g197
tp211
a(g205
I0
g195
tp212
a(S'p3'
p213
I0
g195
tp214
ag214
ag214
a(g213
I0
g197
tp215
ag215
a(g213
I0
g197
tp216
a(g213
I0
g195
tp217
ag217
ag215
ag215
a(g213
F1.5707963267948966
g197
tp218
ag218
a(g213
F1.5707963267948966
g203
tp219
a(g213
F1.5707963267948966
g195
tp220
ag220
a(g213
F1.5707963267948966
g203
tp221
a(g205
F1.5707963267948966
g203
tp222
a(g205
F1.5707963267948966
g195
tp223
a(g205
F1.5707963267948966
g203
tp224
ag223
a(g213
F1.5707963267948966
g195
tp225
ag221
a(S'p4'
p226
F1.5707963267948966
g203
tp227
asS's'
p228
(lp229
(g194
I0
g22
tp230
ag196
ag198
ag198
ag198
ag196
ag200
ag201
ag202
ag204
ag206
ag207
ag208
ag208
ag204
ag206
ag209
ag209
ag209
ag207
ag210
ag211
ag212
ag214
ag214
ag214
ag215
ag215
ag216
ag217
ag217
ag215
ag215
ag218
ag218
ag219
ag220
ag220
ag221
ag222
ag223
ag224
ag223
ag225
ag221
asS'ui'
p231
(lp232
S'hp'
p233
ag192
ag233
ag233
ag233
aS'ss'
p234
ag233
ag234
ag233
ag234
aS'hs'
p235
ag192
ag233
ag233
ag234
ag235
ag235
ag235
ag235
ag235
ag234
ag233
ag234
ag233
ag235
ag235
ag192
ag234
ag233
ag235
ag235
ag192
ag192
ag235
ag233
ag192
ag235
ag233
ag192
ag235
ag234
ag233
ag234
ag233
ag234
asS'um_before'
p236
(lp237
g233
ag235
ag235
ag235
ag233
ag234
ag192
ag234
ag233
ag234
ag235
ag192
ag235
ag233
ag234
ag234
ag192
ag192
ag235
ag235
ag234
ag233
ag234
ag233
ag233
ag235
ag235
ag234
ag233
ag233
ag235
ag235
ag192
ag192
ag235
ag235
ag235
ag233
ag192
ag235
ag233
ag235
ag234
ag233
ag234
asS'um_after'
p238
(lp239
g233
ag235
aNaNag233
ag234
ag192
ag234
ag233
ag234
ag235
ag192
aNag233
ag234
ag234
aNaNag235
ag235
ag234
ag233
ag234
aNaNag235
aNag234
ag233
aNag235
aNag192
aNag235
ag235
aNag233
ag192
ag235
ag233
ag235
ag234
ag233
ag234
asS'is_normalized_entropy_less_than_threshold'
p240
(lp241
g50
(g51
(S'b1'
p242
I0
I1
tp243
Rp244
(I3
S'|'
p245
NNNI-1
I-1
I0
tp246
bS'\x01'
p247
tp248
Rp249
ag50
(g244
S'\x00'
p250
tp251
Rp252
ag249
ag249
ag249
ag249
ag252
ag252
ag249
ag249
ag249
ag252
ag249
ag249
ag249
ag252
ag249
ag249
ag249
ag252
ag252
ag249
ag249
ag249
ag249
ag249
ag249
ag252
ag252
ag249
ag249
ag249
ag249
ag249
ag249
ag252
ag249
ag249
ag252
ag249
ag252
ag249
ag249
ag249
ag249
asaa(lp253
S'index'
p254
aI76865
aatp255
Rp256
.