ccollections
OrderedDict
p0
((lp1
(lp2
S'combination_dict'
p3
ag0
((lp4
(lp5
S'r_to_g_config'
p6
aS'bl'
p7
aa(lp8
S'num_turns'
p9
aI2
aa(lp10
S'start_direction'
p11
acutils_ms
StartDirection
p12
(I1
tp13
Rp14
aa(lp15
S'assistance_type'
p16
acutils_ms
AssistanceType
p17
(I1
tp18
Rp19
aa(lp20
S'start_mode'
p21
aS'x'
p22
aa(lp23
S'ui_given_a_noise'
p24
aF0.1
aa(lp25
S'um_given_ui_noise'
p26
aF0.3
aa(lp27
S'entropy_threshold'
p28
aF0.5
aatp29
Rp30
aa(lp31
S'data'
p32
accollections
defaultdict
p33
(c__builtin__
list
p34
tp35
Rp36
S'a'
p37
(lp38
S'mode_r'
p39
aS'move_n'
p40
ag40
ag39
aS'move_p'
p41
ag39
aS'mode_l'
p42
ag41
ag39
ag40
ag39
ag40
asS'assistance_match_with_ground_truth'
p43
(lp44
I01
aI00
aI01
aI01
aI00
aI00
aI01
aI01
aI01
aI01
aI01
aI01
asS'is_u_intended_equals_um'
p45
(lp46
I00
aI01
aI01
aI01
aI00
aI00
aI01
aI01
aI00
aI01
aI01
aI01
asS'total_steps'
p47
I12
sS'normalized_h_of_p_ui_given_um'
p48
(lp49
cnumpy.core.multiarray
scalar
p50
(cnumpy
dtype
p51
(S'f8'
p52
I0
I1
tp53
Rp54
(I3
S'<'
p55
NNNI-1
I-1
I0
tp56
bS'\x90d,(0?\xda?'
p57
tp58
Rp59
ag50
(g54
S'U\xb0\xad@\xf0\xea\xe2?'
p60
tp61
Rp62
ag50
(g54
S'\x1b.4\xb5\x04\xb0\x93?'
p63
tp64
Rp65
ag50
(g54
S'4\x8d\xfa\xb0j\x19\xb0?'
p66
tp67
Rp68
ag50
(g54
S'\xfc^\xcf4\x168\xe0?'
p69
tp70
Rp71
ag50
(g54
S'\xbe\x0c\x80\xc8D\xc4\xe1?'
p72
tp73
Rp74
ag50
(g54
S'\xad\xf3\xea\xa2\xb60\xba?'
p75
tp76
Rp77
ag50
(g54
S'C\xc2\xcf?w\x05\xc0?'
p78
tp79
Rp80
ag50
(g54
S'\x90d,(0?\xda?'
p81
tp82
Rp83
ag50
(g54
S'\x1b.4\xb5\x04\xb0\x93?'
p84
tp85
Rp86
ag50
(g54
S'4\x8d\xfa\xb0j\x19\xb0?'
p87
tp88
Rp89
ag50
(g54
S'\x1b.4\xb5\x04\xb0\x93?'
p90
tp91
Rp92
asS'sp'
p93
(lp94
(S'p0'
p95
I0
S'y'
p96
tp97
a(g95
I0
g96
tp98
a(S'p1'
p99
I0
g96
tp100
a(g99
I0
S't'
p101
tp102
a(g99
I0
g96
tp103
a(g99
I0
S'x'
p104
tp105
a(g99
I0
g101
tp106
a(g99
F1.5707963267948966
g101
tp107
a(g99
F1.5707963267948966
g104
tp108
a(S'p2'
p109
F1.5707963267948966
g104
tp110
a(g109
F1.5707963267948966
g96
tp111
a(S'p3'
p112
F1.5707963267948966
g96
tp113
asS's'
p114
(lp115
(g95
I0
g22
tp116
ag97
ag98
ag100
ag102
ag103
ag105
ag106
ag107
ag108
ag110
ag111
asS'ui'
p117
(lp118
S'hp'
p119
ag93
aS'ss'
p120
ag119
ag93
aS'hs'
p121
ag121
ag93
ag119
ag120
ag119
ag120
asS'um_before'
p122
(lp123
g93
ag93
ag120
ag119
ag121
ag121
ag121
ag93
ag93
ag120
ag119
ag120
asS'um_after'
p124
(lp125
g119
ag93
ag120
ag119
ag121
ag121
ag121
ag93
ag119
ag120
ag119
ag120
asS'is_normalized_entropy_less_than_threshold'
p126
(lp127
g50
(g51
(S'b1'
p128
I0
I1
tp129
Rp130
(I3
S'|'
p131
NNNI-1
I-1
I0
tp132
bS'\x01'
p133
tp134
Rp135
ag50
(g130
S'\x00'
p136
tp137
Rp138
ag135
ag135
ag138
ag138
ag135
ag135
ag135
ag135
ag135
ag135
asaa(lp139
S'index'
p140
aI73652
aatp141
Rp142
.