ccollections
OrderedDict
p0
((lp1
(lp2
S'combination_dict'
p3
ag0
((lp4
(lp5
S'r_to_g_config'
p6
aS'bl'
p7
aa(lp8
S'num_turns'
p9
aI3
aa(lp10
S'start_direction'
p11
acutils_ms
StartDirection
p12
(I1
tp13
Rp14
aa(lp15
S'assistance_type'
p16
acutils_ms
AssistanceType
p17
(I0
tp18
Rp19
aa(lp20
S'start_mode'
p21
aS't'
p22
aa(lp23
S'ui_given_a_noise'
p24
aF0.3
aa(lp25
S'um_given_ui_noise'
p26
aF0.3
aa(lp27
S'entropy_threshold'
p28
aF0.9
aatp29
Rp30
aa(lp31
S'data'
p32
accollections
defaultdict
p33
(c__builtin__
list
p34
tp35
Rp36
S'a'
p37
(lp38
S'mode_l'
p39
aS'move_n'
p40
ag39
ag40
aS'mode_r'
p41
ag40
ag41
ag39
ag41
ag41
ag40
ag39
ag40
ag41
ag41
ag39
ag39
ag39
ag40
ag41
ag39
ag40
ag39
ag40
ag39
ag40
ag41
ag41
ag41
ag40
ag41
aS'move_p'
p42
ag41
ag41
ag41
ag40
asS'assistance_match_with_ground_truth'
p43
(lp44
I01
aI01
aI01
aI00
aI01
aI01
aI00
aI00
aI00
aI01
aI00
aI01
aI00
aI00
aI00
aI00
aI00
aI01
aI00
aI00
aI01
aI01
aI01
aI00
aI01
aI01
aI00
aI00
aI01
aI01
aI01
aI01
aI00
aI00
aI01
aI01
asS'is_u_intended_equals_um'
p45
(lp46
I01
aI01
aI01
aI01
aI01
aI01
aI01
aI01
aI00
aI01
aI01
aI01
aI01
aI00
aI01
aI00
aI00
aI01
aI01
aI01
aI01
aI01
aI01
aI01
aI01
aI01
aI00
aI01
aI01
aI01
aI01
aI01
aI00
aI01
aI01
aI01
asS'total_steps'
p47
I36
sS'normalized_h_of_p_ui_given_um'
p48
(lp49
cnumpy.core.multiarray
scalar
p50
(cnumpy
dtype
p51
(S'f8'
p52
I0
I1
tp53
Rp54
(I3
S'<'
p55
NNNI-1
I-1
I0
tp56
bS'\x8d=\xd6\xd40i\xc3?'
p57
tp58
Rp59
ag50
(g54
S"\xa7\x02'\xa9\x0ef\xd5?"
p60
tp61
Rp62
ag50
(g54
S'\x8d=\xd6\xd40i\xc3?'
p63
tp64
Rp65
ag50
(g54
S'$\x95\xb8\xe3S\x9b\xe7?'
p66
tp67
Rp68
ag50
(g54
S'\xab\xab\x87\xf2I\xbf\xbd?'
p69
tp70
Rp71
ag50
(g54
S"\xa7\x02'\xa9\x0ef\xd5?"
p72
tp73
Rp74
ag50
(g54
S'D\xa7\xb2\x82\xc9\xa1\xe4?'
p75
tp76
Rp77
ag50
(g54
S'\xbe\xd6\xef\xceb\xbc\xe1?'
p78
tp79
Rp80
ag50
(g54
S"J'\xda\xc7+\x03\xea?"
p81
tp82
Rp83
ag50
(g54
S'\xab\xab\x87\xf2I\xbf\xbd?'
p84
tp85
Rp86
ag50
(g54
S'\xda ^[\xba\xa0\xe5?'
p87
tp88
Rp89
ag50
(g54
S'\x8d=\xd6\xd40i\xc3?'
p90
tp91
Rp92
ag50
(g54
S'$\x95\xb8\xe3S\x9b\xe7?'
p93
tp94
Rp95
ag50
(g54
S"J'\xda\xc7+\x03\xea?"
p96
tp97
Rp98
ag50
(g54
S'D\xa7\xb2\x82\xc9\xa1\xe4?'
p99
tp100
Rp101
ag50
(g54
S"\x14\x08,I\\'\xe1?"
p102
tp103
Rp104
ag50
(g54
S"\x14\x08,I\\'\xe1?"
p105
tp106
Rp107
ag50
(g54
S'\x8d=\xd6\xd40i\xc3?'
p108
tp109
Rp110
ag50
(g54
S'\xda ^[\xba\xa0\xe5?'
p111
tp112
Rp113
ag50
(g54
S'D\xa7\xb2\x82\xc9\xa1\xe4?'
p114
tp115
Rp116
ag50
(g54
S'\x8d=\xd6\xd40i\xc3?'
p117
tp118
Rp119
ag50
(g54
S"\xa7\x02'\xa9\x0ef\xd5?"
p120
tp121
Rp122
ag50
(g54
S'\x8d=\xd6\xd40i\xc3?'
p123
tp124
Rp125
ag50
(g54
S'X:}\xf6,l\xe1?'
p126
tp127
Rp128
ag50
(g54
S'\x8d=\xd6\xd40i\xc3?'
p129
tp130
Rp131
ag50
(g54
S"\xa7\x02'\xa9\x0ef\xd5?"
p132
tp133
Rp134
ag50
(g54
S"J'\xda\xc7+\x03\xea?"
p135
tp136
Rp137
ag50
(g54
S'\x17\xc6\x89.$\xd7\xe2?'
p138
tp139
Rp140
ag50
(g54
S'\xab\xab\x87\xf2I\xbf\xbd?'
p141
tp142
Rp143
ag50
(g54
S"\xa7\x02'\xa9\x0ef\xd5?"
p144
tp145
Rp146
ag50
(g54
S'\xab\xab\x87\xf2I\xbf\xbd?'
p147
tp148
Rp149
ag50
(g54
S'\x9e jB\xbe\xd8\xc5?'
p150
tp151
Rp152
ag50
(g54
S"J'\xda\xc7+\x03\xea?"
p153
tp154
Rp155
ag50
(g54
S'\x17\xc6\x89.$\xd7\xe2?'
p156
tp157
Rp158
ag50
(g54
S'\xab\xab\x87\xf2I\xbf\xbd?'
p159
tp160
Rp161
ag50
(g54
S"\xa7\x02'\xa9\x0ef\xd5?"
p162
tp163
Rp164
asS'sp'
p165
(lp166
(S'p0'
p167
I0
S'y'
p168
tp169
a(S'p1'
p170
I0
g168
tp171
a(g170
I0
S'x'
p172
tp173
a(g170
I0
S't'
p174
tp175
a(g170
I0
g172
tp176
a(S'p2'
p177
I0
g172
tp178
a(g177
I0
g174
tp179
a(g177
I0
g172
tp180
ag180
a(g177
I0
g168
tp181
a(g170
I0
g168
tp182
ag173
ag175
ag175
a(g170
I0
g168
tp183
ag183
ag183
ag173
a(g167
I0
g172
tp184
a(g167
I0
g174
tp185
ag169
ag171
ag173
a(g170
I0
g168
tp186
ag173
ag178
ag178
a(g177
I0
g172
tp187
ag181
a(S'p3'
p188
I0
g168
tp189
a(g188
I0
g174
tp190
a(g188
F1.5707963267948966
g174
tp191
ag191
a(g188
F1.5707963267948966
g174
tp192
a(g188
F1.5707963267948966
g172
tp193
a(S'p4'
p194
F1.5707963267948966
g172
tp195
asS's'
p196
(lp197
(g167
I0
g22
tp198
ag169
ag171
ag173
ag175
ag176
ag178
ag179
ag180
ag180
ag181
ag182
ag173
ag175
ag175
ag183
ag183
ag183
ag173
ag184
ag185
ag169
ag171
ag173
ag186
ag173
ag178
ag178
ag187
ag181
ag189
ag190
ag191
ag191
ag192
ag193
asS'ui'
p199
(lp200
S'hs'
p201
aS'ss'
p202
ag201
ag201
aS'hp'
p203
ag202
ag201
ag203
ag201
ag203
ag165
ag201
ag202
ag203
ag201
ag201
ag201
ag201
ag165
ag203
ag201
ag202
ag201
ag165
ag201
ag165
ag203
ag203
ag203
ag202
ag201
ag165
ag203
ag203
ag203
ag202
asS'um_before'
p204
(lp205
g201
ag202
ag201
ag201
ag203
ag202
ag201
ag203
ag202
ag203
ag165
ag201
ag201
ag202
ag201
ag202
ag202
ag201
ag165
ag201
ag201
ag202
ag201
ag203
ag201
ag202
ag202
ag165
ag203
ag202
ag203
ag165
ag202
ag165
ag203
ag202
asS'um_after'
p206
(lp207
g201
ag202
ag201
ag201
ag203
ag202
ag201
ag203
aNag203
ag165
ag201
ag201
aNag201
aNaNag201
ag165
ag201
ag201
ag202
ag201
ag203
ag201
ag202
aNag165
ag203
ag202
ag203
ag165
aNag165
ag203
ag202
asS'is_normalized_entropy_less_than_threshold'
p208
(lp209
g50
(g51
(S'b1'
p210
I0
I1
tp211
Rp212
(I3
S'|'
p213
NNNI-1
I-1
I0
tp214
bS'\x01'
p215
tp216
Rp217
ag217
ag217
ag217
ag217
ag217
ag217
ag217
ag217
ag217
ag217
ag217
ag217
ag217
ag217
ag217
ag217
ag217
ag217
ag217
ag217
ag217
ag217
ag217
ag217
ag217
ag217
ag217
ag217
ag217
ag217
ag217
ag217
ag217
ag217
ag217
asaa(lp218
S'index'
p219
aI82691
aatp220
Rp221
.