ccollections
OrderedDict
p0
((lp1
(lp2
S'combination_dict'
p3
ag0
((lp4
(lp5
S'r_to_g_config'
p6
aS'tr'
p7
aa(lp8
S'num_turns'
p9
aI2
aa(lp10
S'start_direction'
p11
acutils_ms
StartDirection
p12
(I0
tp13
Rp14
aa(lp15
S'assistance_type'
p16
acutils_ms
AssistanceType
p17
(I0
tp18
Rp19
aa(lp20
S'start_mode'
p21
aS'y'
p22
aa(lp23
S'ui_given_a_noise'
p24
aF0.7
aa(lp25
S'um_given_ui_noise'
p26
aF0.5
aa(lp27
S'entropy_threshold'
p28
aF0.5
aatp29
Rp30
aa(lp31
S'data'
p32
accollections
defaultdict
p33
(c__builtin__
list
p34
tp35
Rp36
S'a'
p37
(lp38
S'mode_l'
p39
aS'mode_r'
p40
aS'move_p'
p41
ag39
ag40
ag41
ag40
ag41
ag39
ag39
ag39
ag41
ag40
ag40
ag40
ag41
ag40
ag39
ag39
ag41
ag40
ag41
ag39
ag40
ag41
ag39
ag39
ag41
ag40
ag39
ag40
ag39
ag40
ag40
ag40
ag41
ag39
ag39
ag41
ag40
ag40
ag41
ag40
ag40
ag40
ag41
ag40
ag40
ag40
ag40
ag41
ag40
ag40
ag39
ag40
ag39
ag40
ag41
ag40
ag41
ag39
ag40
ag39
ag41
ag40
ag40
ag40
ag41
ag40
ag40
ag39
ag41
ag40
ag40
ag39
ag41
ag39
ag41
ag39
ag41
ag39
ag41
ag39
ag41
ag39
ag41
asS'assistance_match_with_ground_truth'
p42
(lp43
I00
aI01
aI00
aI00
aI01
aI00
aI01
aI00
aI00
aI00
aI01
aI00
aI00
aI00
aI01
aI01
aI00
aI00
aI01
aI00
aI01
aI00
aI00
aI01
aI00
aI00
aI01
aI01
aI00
aI00
aI00
aI00
aI00
aI00
aI01
aI00
aI00
aI01
aI01
aI00
aI01
aI00
aI00
aI00
aI01
aI00
aI00
aI00
aI00
aI01
aI01
aI00
aI00
aI00
aI00
aI00
aI01
aI01
aI01
aI00
aI00
aI00
aI01
aI00
aI00
aI00
aI01
aI00
aI00
aI00
aI01
aI00
aI00
aI00
aI01
aI00
aI01
aI00
aI01
aI01
aI01
aI00
aI01
aI00
aI01
aI01
asS'is_u_intended_equals_um'
p44
(lp45
I00
aI01
aI01
aI00
aI01
aI01
aI01
aI01
aI01
aI00
aI01
aI01
aI00
aI00
aI01
aI01
aI01
aI01
aI01
aI01
aI01
aI01
aI00
aI01
aI00
aI01
aI01
aI01
aI01
aI00
aI01
aI00
aI00
aI00
aI01
aI00
aI00
aI01
aI01
aI00
aI01
aI01
aI00
aI00
aI01
aI01
aI00
aI00
aI00
aI01
aI01
aI00
aI01
aI00
aI01
aI00
aI01
aI01
aI01
aI01
aI00
aI01
aI01
aI00
aI00
aI00
aI01
aI01
aI00
aI01
aI01
aI01
aI00
aI01
aI01
aI01
aI01
aI01
aI01
aI01
aI01
aI01
aI01
aI01
aI01
aI01
asS'total_steps'
p46
I86
sS'normalized_h_of_p_ui_given_um'
p47
(lp48
cnumpy.core.multiarray
scalar
p49
(cnumpy
dtype
p50
(S'f8'
p51
I0
I1
tp52
Rp53
(I3
S'<'
p54
NNNI-1
I-1
I0
tp55
bS'\xf6\x81Gu\xa8\xbf\xeb?'
p56
tp57
Rp58
ag49
(g53
S'\xc9\xff\xfe\x94\xf2\xc1\xdb?'
p59
tp60
Rp61
ag49
(g53
S'\x9cq\xcb\x15\x10\xce\xe9?'
p62
tp63
Rp64
ag49
(g53
S'\xf6\x81Gu\xa8\xbf\xeb?'
p65
tp66
Rp67
ag49
(g53
S'\xc9\xff\xfe\x94\xf2\xc1\xdb?'
p68
tp69
Rp70
ag49
(g53
S'\x85\xe9\xa4.|?\xeb?'
p71
tp72
Rp73
ag49
(g53
S'\xc9\xff\xfe\x94\xf2\xc1\xdb?'
p74
tp75
Rp76
ag49
(g53
S'\x9cq\xcb\x15\x10\xce\xe9?'
p77
tp78
Rp79
ag49
(g53
S'\xde\xe1\xf0\xfdE3\xe4?'
p80
tp81
Rp82
ag49
(g53
S'".\xfa\xb8\xae\xd5\xea?'
p83
tp84
Rp85
ag49
(g53
S'\x88[\xdehs\xc6\xe1?'
p86
tp87
Rp88
ag49
(g53
S'\x85\xe9\xa4.|?\xeb?'
p89
tp90
Rp91
ag49
(g53
S'\xa4\xb1\xd9\x1a\x1fE\xea?'
p92
tp93
Rp94
ag49
(g53
S'\xa4\xb1\xd9\x1a\x1fE\xea?'
p95
tp96
Rp97
ag49
(g53
S'\xc9\xff\xfe\x94\xf2\xc1\xdb?'
p98
tp99
Rp100
ag49
(g53
S'\xddb\x99\x08G/\xd9?'
p101
tp102
Rp103
ag49
(g53
S'7Qg\xe9<\x06\xe7?'
p104
tp105
Rp106
ag49
(g53
S'\xde\xe1\xf0\xfdE3\xe4?'
p107
tp108
Rp109
ag49
(g53
S'\x88[\xdehs\xc6\xe1?'
p110
tp111
Rp112
ag49
(g53
S'\x85\xe9\xa4.|?\xeb?'
p113
tp114
Rp115
ag49
(g53
S'\xc9\xff\xfe\x94\xf2\xc1\xdb?'
p116
tp117
Rp118
ag49
(g53
S'\x9cq\xcb\x15\x10\xce\xe9?'
p119
tp120
Rp121
ag49
(g53
S'\xf6\x81Gu\xa8\xbf\xeb?'
p122
tp123
Rp124
ag49
(g53
S'\xc9\xff\xfe\x94\xf2\xc1\xdb?'
p125
tp126
Rp127
ag49
(g53
S'\x9bz\xee\xfcW\x91\xee?'
p128
tp129
Rp130
ag49
(g53
S'\xde\xe1\xf0\xfdE3\xe4?'
p131
tp132
Rp133
ag49
(g53
S'\x88[\xdehs\xc6\xe1?'
p134
tp135
Rp136
ag49
(g53
S'\xddb\x99\x08G/\xd9?'
p137
tp138
Rp139
ag49
(g53
S'7Qg\xe9<\x06\xe7?'
p140
tp141
Rp142
ag49
(g53
S'\xf6\x81Gu\xa8\xbf\xeb?'
p143
tp144
Rp145
ag49
(g53
S'7Qg\xe9<\x06\xe7?'
p146
tp147
Rp148
ag49
(g53
S'\xf6\x81Gu\xa8\xbf\xeb?'
p149
tp150
Rp151
ag49
(g53
S'\x00\xdb\xf3\xac\x08\x05\xed?'
p152
tp153
Rp154
ag49
(g53
S'\xa4\xb1\xd9\x1a\x1fE\xea?'
p155
tp156
Rp157
ag49
(g53
S'\xc9\xff\xfe\x94\xf2\xc1\xdb?'
p158
tp159
Rp160
ag49
(g53
S'\x9bz\xee\xfcW\x91\xee?'
p161
tp162
Rp163
ag49
(g53
S'".\xfa\xb8\xae\xd5\xea?'
p164
tp165
Rp166
ag49
(g53
S'\x88[\xdehs\xc6\xe1?'
p167
tp168
Rp169
ag49
(g53
S'\xddb\x99\x08G/\xd9?'
p170
tp171
Rp172
ag49
(g53
S'\x00\xdb\xf3\xac\x08\x05\xed?'
p173
tp174
Rp175
ag49
(g53
S'\xc9\xff\xfe\x94\xf2\xc1\xdb?'
p176
tp177
Rp178
ag49
(g53
S'\x85\xe9\xa4.|?\xeb?'
p179
tp180
Rp181
ag49
(g53
S'\x00\xdb\xf3\xac\x08\x05\xed?'
p182
tp183
Rp184
ag49
(g53
S'\xa4\xb1\xd9\x1a\x1fE\xea?'
p185
tp186
Rp187
ag49
(g53
S'\xc9\xff\xfe\x94\xf2\xc1\xdb?'
p188
tp189
Rp190
ag49
(g53
S'\x85\xe9\xa4.|?\xeb?'
p191
tp192
Rp193
ag49
(g53
S'\xa4\xb1\xd9\x1a\x1fE\xea?'
p194
tp195
Rp196
ag49
(g53
S'\xa4\xb1\xd9\x1a\x1fE\xea?'
p197
tp198
Rp199
ag49
(g53
S'\x00\xdb\xf3\xac\x08\x05\xed?'
p200
tp201
Rp202
ag49
(g53
S'\xc9\xff\xfe\x94\xf2\xc1\xdb?'
p203
tp204
Rp205
ag49
(g53
S'\xddb\x99\x08G/\xd9?'
p206
tp207
Rp208
ag49
(g53
S'\xa4\xb1\xd9\x1a\x1fE\xea?'
p209
tp210
Rp211
ag49
(g53
S'7Qg\xe9<\x06\xe7?'
p212
tp213
Rp214
ag49
(g53
S'\xf6\x81Gu\xa8\xbf\xeb?'
p215
tp216
Rp217
ag49
(g53
S'7Qg\xe9<\x06\xe7?'
p218
tp219
Rp220
ag49
(g53
S'\xf6\x81Gu\xa8\xbf\xeb?'
p221
tp222
Rp223
ag49
(g53
S'\xc9\xff\xfe\x94\xf2\xc1\xdb?'
p224
tp225
Rp226
ag49
(g53
S'\xddb\x99\x08G/\xd9?'
p227
tp228
Rp229
ag49
(g53
S'\xc9\xff\xfe\x94\xf2\xc1\xdb?'
p230
tp231
Rp232
ag49
(g53
S'\x9cq\xcb\x15\x10\xce\xe9?'
p233
tp234
Rp235
ag49
(g53
S'\xf6\x81Gu\xa8\xbf\xeb?'
p236
tp237
Rp238
ag49
(g53
S'7Qg\xe9<\x06\xe7?'
p239
tp240
Rp241
ag49
(g53
S'\x88[\xdehs\xc6\xe1?'
p242
tp243
Rp244
ag49
(g53
S'\x9bz\xee\xfcW\x91\xee?'
p245
tp246
Rp247
ag49
(g53
S'\x00\xdb\xf3\xac\x08\x05\xed?'
p248
tp249
Rp250
ag49
(g53
S'\x00\xdb\xf3\xac\x08\x05\xed?'
p251
tp252
Rp253
ag49
(g53
S'\xc9\xff\xfe\x94\xf2\xc1\xdb?'
p254
tp255
Rp256
ag49
(g53
S'\x85\xe9\xa4.|?\xeb?'
p257
tp258
Rp259
ag49
(g53
S'\xa4\xb1\xd9\x1a\x1fE\xea?'
p260
tp261
Rp262
ag49
(g53
S'7Qg\xe9<\x06\xe7?'
p263
tp264
Rp265
ag49
(g53
S'\x88[\xdehs\xc6\xe1?'
p266
tp267
Rp268
ag49
(g53
S'\x85\xe9\xa4.|?\xeb?'
p269
tp270
Rp271
ag49
(g53
S'\xa4\xb1\xd9\x1a\x1fE\xea?'
p272
tp273
Rp274
ag49
(g53
S'7Qg\xe9<\x06\xe7?'
p275
tp276
Rp277
ag49
(g53
S'\x88[\xdehs\xc6\xe1?'
p278
tp279
Rp280
ag49
(g53
S'\x9cq\xcb\x15\x10\xce\xe9?'
p281
tp282
Rp283
ag49
(g53
S'\x88[\xdehs\xc6\xe1?'
p284
tp285
Rp286
ag49
(g53
S'\x9cq\xcb\x15\x10\xce\xe9?'
p287
tp288
Rp289
ag49
(g53
S'\x88[\xdehs\xc6\xe1?'
p290
tp291
Rp292
ag49
(g53
S'\xddb\x99\x08G/\xd9?'
p293
tp294
Rp295
ag49
(g53
S'\x88[\xdehs\xc6\xe1?'
p296
tp297
Rp298
ag49
(g53
S'\x9cq\xcb\x15\x10\xce\xe9?'
p299
tp300
Rp301
ag49
(g53
S'\x88[\xdehs\xc6\xe1?'
p302
tp303
Rp304
ag49
(g53
S'\x9cq\xcb\x15\x10\xce\xe9?'
p305
tp306
Rp307
ag49
(g53
S'\x88[\xdehs\xc6\xe1?'
p308
tp309
Rp310
ag49
(g53
S'\xddb\x99\x08G/\xd9?'
p311
tp312
Rp313
asS'sp'
p314
(lp315
(S'p0'
p316
I0
S't'
p317
tp318
a(g316
I0
S'x'
p319
tp320
a(g316
I0
S'y'
p321
tp322
ag318
ag320
a(g316
I0
g317
tp323
ag320
ag322
a(g316
I0
g321
tp324
a(g316
I0
g321
tp325
a(g316
I0
g319
tp326
ag323
a(g316
I0
g317
tp327
ag327
ag320
a(S'p1'
p328
I0
g319
tp329
a(g328
I0
g317
tp330
a(g328
I0
g317
tp331
a(g328
I0
g321
tp332
a(g328
I0
g319
tp333
a(g328
I0
g321
tp334
a(g328
I0
g317
tp335
a(g328
I0
g319
tp336
ag334
a(g316
I0
g321
tp337
ag324
ag326
ag329
ag330
ag336
ag330
ag336
a(g328
I0
g319
tp338
a(g328
I0
g319
tp339
ag334
ag337
ag325
ag326
ag329
ag338
ag334
ag333
ag338
ag339
ag334
ag333
ag339
ag339
ag338
ag334
a(S'p2'
p340
I0
g321
tp341
a(g340
I0
g321
tp342
a(g340
I0
g319
tp343
a(g340
I0
g321
tp344
ag343
ag344
a(g340
I0
g317
tp345
a(g340
F1.5707963267948966
g317
tp346
a(g340
F1.5707963267948966
g319
tp347
a(g340
F1.5707963267948966
g321
tp348
a(g340
F1.5707963267948966
g317
tp349
a(g340
F1.5707963267948966
g321
tp350
a(g340
F1.5707963267948966
g319
tp351
a(g328
F1.5707963267948966
g319
tp352
a(g328
F1.5707963267948966
g319
tp353
ag353
a(g328
F1.5707963267948966
g321
tp354
a(g328
F1.5707963267948966
g319
tp355
a(g328
F1.5707963267948966
g319
tp356
a(g328
F1.5707963267948966
g317
tp357
a(g328
F1.5707963267948966
g321
tp358
ag355
ag356
ag357
ag358
a(g328
F1.5707963267948966
g317
tp359
ag358
ag359
ag358
a(g340
F1.5707963267948966
g321
tp360
ag351
ag348
ag351
ag348
ag351
a(S'p3'
p361
F1.5707963267948966
g319
tp362
asS's'
p363
(lp364
(g316
I0
g22
tp365
ag318
ag320
ag322
ag318
ag320
ag323
ag320
ag322
ag324
ag325
ag326
ag323
ag327
ag327
ag320
ag329
ag330
ag331
ag332
ag333
ag334
ag335
ag336
ag334
ag337
ag324
ag326
ag329
ag330
ag336
ag330
ag336
ag338
ag339
ag334
ag337
ag325
ag326
ag329
ag338
ag334
ag333
ag338
ag339
ag334
ag333
ag339
ag339
ag338
ag334
ag341
ag342
ag343
ag344
ag343
ag344
ag345
ag346
ag347
ag348
ag349
ag350
ag351
ag352
ag353
ag353
ag354
ag355
ag356
ag357
ag358
ag355
ag356
ag357
ag358
ag359
ag358
ag359
ag358
ag360
ag351
ag348
ag351
ag348
ag351
asS'ui'
p366
(lp367
S'ss'
p368
ag368
aS'hp'
p369
aS'hs'
p370
ag368
ag314
ag369
ag314
ag368
ag314
ag370
ag314
ag368
ag370
ag369
ag314
ag369
ag368
ag368
ag368
ag369
ag314
ag370
ag369
ag370
ag368
ag370
ag314
ag370
ag368
ag370
ag369
ag370
ag370
ag369
ag370
ag314
ag370
ag314
ag314
ag369
ag314
ag370
ag370
ag369
ag370
ag368
ag368
ag369
ag369
ag314
ag370
ag369
ag370
ag369
ag368
ag369
ag314
ag369
ag314
ag370
ag370
ag370
ag370
ag369
ag314
ag369
ag370
ag370
ag370
ag370
ag370
ag370
ag370
ag370
ag314
ag370
ag314
ag368
ag314
ag370
ag369
ag370
ag370
ag370
ag314
asS'um_before'
p371
(lp372
g369
ag369
ag369
ag369
ag369
ag370
ag369
ag369
ag368
ag314
ag370
ag370
ag368
ag368
ag369
ag314
ag370
ag368
ag370
ag370
ag369
ag369
ag369
ag369
ag368
ag368
ag370
ag314
ag370
ag369
ag370
ag369
ag314
ag368
ag369
ag368
ag314
ag370
ag314
ag314
ag369
ag370
ag314
ag368
ag369
ag370
ag368
ag368
ag314
ag369
ag314
ag368
ag370
ag369
ag370
ag369
ag369
ag314
ag369
ag369
ag369
ag370
ag370
ag368
ag314
ag314
ag369
ag370
ag368
ag370
ag370
ag370
ag368
ag370
ag370
ag369
ag370
ag369
ag370
ag314
ag370
ag369
ag370
ag369
ag370
ag314
asS'um_after'
p373
(lp374
g369
ag369
ag369
ag369
ag369
ag370
ag369
ag369
ag368
ag314
ag370
ag370
ag368
ag368
ag369
ag314
ag370
ag368
ag370
ag370
ag369
ag369
ag369
ag369
ag368
ag368
ag370
ag314
ag370
ag369
ag370
ag369
ag314
ag368
ag369
ag368
ag314
ag370
ag314
ag314
ag369
ag370
ag314
ag368
ag369
ag370
ag368
ag368
ag314
ag369
ag314
ag368
ag370
ag369
ag370
ag369
ag369
ag314
ag369
ag369
ag369
ag370
ag370
ag368
ag314
ag314
ag369
ag370
ag368
ag370
ag370
ag370
ag368
ag370
ag370
ag369
ag370
ag369
ag370
ag314
ag370
ag369
ag370
ag369
ag370
ag314
asS'is_normalized_entropy_less_than_threshold'
p375
(lp376
g49
(g50
(S'b1'
p377
I0
I1
tp378
Rp379
(I3
S'|'
p380
NNNI-1
I-1
I0
tp381
bS'\x00'
p382
tp383
Rp384
ag49
(g379
S'\x01'
p385
tp386
Rp387
ag384
ag384
ag387
ag384
ag387
ag384
ag384
ag384
ag384
ag384
ag384
ag384
ag387
ag387
ag384
ag384
ag384
ag384
ag387
ag384
ag384
ag387
ag384
ag384
ag384
ag387
ag384
ag384
ag384
ag384
ag384
ag384
ag387
ag384
ag384
ag384
ag387
ag384
ag387
ag384
ag384
ag384
ag387
ag384
ag384
ag384
ag384
ag387
ag387
ag384
ag384
ag384
ag384
ag384
ag387
ag387
ag387
ag384
ag384
ag384
ag384
ag384
ag384
ag384
ag387
ag384
ag384
ag384
ag384
ag384
ag384
ag384
ag384
ag384
ag384
ag384
ag384
ag387
ag384
ag384
ag384
ag384
ag384
ag387
asaa(lp388
S'index'
p389
aI11104
aatp390
Rp391
.