ccollections
OrderedDict
p0
((lp1
(lp2
S'combination_dict'
p3
ag0
((lp4
(lp5
S'r_to_g_config'
p6
aS'br'
p7
aa(lp8
S'num_turns'
p9
aI2
aa(lp10
S'start_direction'
p11
acutils_ms
StartDirection
p12
(I0
tp13
Rp14
aa(lp15
S'assistance_type'
p16
acutils_ms
AssistanceType
p17
(I0
tp18
Rp19
aa(lp20
S'start_mode'
p21
aS'y'
p22
aa(lp23
S'ui_given_a_noise'
p24
aF0.3
aa(lp25
S'um_given_ui_noise'
p26
aF0.5
aa(lp27
S'entropy_threshold'
p28
aF0.6
aatp29
Rp30
aa(lp31
S'data'
p32
accollections
defaultdict
p33
(c__builtin__
list
p34
tp35
Rp36
S'a'
p37
(lp38
S'mode_l'
p39
aS'move_p'
p40
ag39
ag40
aS'mode_r'
p41
ag40
ag39
ag40
ag41
ag40
ag41
ag39
ag39
ag39
ag40
ag39
ag40
ag39
ag40
ag39
ag40
ag39
ag39
ag40
ag41
ag39
ag39
ag40
ag40
ag39
aS'move_n'
p42
ag39
ag39
ag40
ag39
ag39
ag39
ag39
ag40
ag41
ag41
ag41
ag41
ag40
ag41
ag41
ag42
ag39
ag42
ag41
ag42
ag39
ag39
ag39
ag39
ag40
ag41
ag39
ag39
ag39
ag39
ag40
ag39
ag39
ag40
ag40
asS'assistance_match_with_ground_truth'
p43
(lp44
I01
aI00
aI01
aI00
aI01
aI01
aI01
aI00
aI01
aI00
aI00
aI00
aI00
aI01
aI01
aI01
aI00
aI01
aI00
aI01
aI01
aI00
aI00
aI00
aI00
aI00
aI01
aI00
aI01
aI01
aI00
aI00
aI01
aI00
aI00
aI00
aI00
aI01
aI00
aI00
aI00
aI00
aI01
aI01
aI00
aI01
aI00
aI01
aI00
aI01
aI01
aI00
aI00
aI00
aI01
aI00
aI00
aI00
aI00
aI00
aI01
aI00
aI00
aI01
aI00
aI01
asS'is_u_intended_equals_um'
p45
(lp46
I01
aI01
aI01
aI00
aI01
aI01
aI01
aI00
aI01
aI00
aI00
aI01
aI01
aI01
aI01
aI01
aI01
aI01
aI01
aI01
aI01
aI01
aI01
aI00
aI00
aI01
aI01
aI00
aI01
aI01
aI00
aI01
aI01
aI01
aI01
aI01
aI01
aI01
aI00
aI01
aI01
aI00
aI01
aI01
aI00
aI01
aI00
aI01
aI01
aI01
aI01
aI01
aI01
aI00
aI01
aI00
aI00
aI00
aI00
aI01
aI01
aI01
aI00
aI01
aI00
aI01
asS'total_steps'
p47
I66
sS'normalized_h_of_p_ui_given_um'
p48
(lp49
cnumpy.core.multiarray
scalar
p50
(cnumpy
dtype
p51
(S'f8'
p52
I0
I1
tp53
Rp54
(I3
S'<'
p55
NNNI-1
I-1
I0
tp56
bS'\xd8\xc8\x18\x0e\xe9\x9f\xd9?'
p57
tp58
Rp59
ag50
(g54
S'\xba\xa4\x80]\r\xba\xe4?'
p60
tp61
Rp62
ag50
(g54
S'\xd8\xc8\x18\x0e\xe9\x9f\xd9?'
p63
tp64
Rp65
ag50
(g54
S"\xcc\xde/\xbf\xda'\xe6?"
p66
tp67
Rp68
ag50
(g54
S'\x9a\xa8A\xc4:\xf5\xce?'
p69
tp70
Rp71
ag50
(g54
S'y\x0c\xfd\x89\x08\xf9\xd9?'
p72
tp73
Rp74
ag50
(g54
S'\xd8\xc8\x18\x0e\xe9\x9f\xd9?'
p75
tp76
Rp77
ag50
(g54
S"\xcc\xde/\xbf\xda'\xe6?"
p78
tp79
Rp80
ag50
(g54
S'\x9a\xa8A\xc4:\xf5\xce?'
p81
tp82
Rp83
ag50
(g54
S"\xcc\xde/\xbf\xda'\xe6?"
p84
tp85
Rp86
ag50
(g54
S'K]\xc8HF9\xe7?'
p87
tp88
Rp89
ag50
(g54
S'Y\xcc\x8f\xe1Oa\xe1?'
p90
tp91
Rp92
ag50
(g54
S'\xc2l\x99\xc0/\xab\xea?'
p93
tp94
Rp95
ag50
(g54
S'\xd8\xc8\x18\x0e\xe9\x9f\xd9?'
p96
tp97
Rp98
ag50
(g54
S'y\x0c\xfd\x89\x08\xf9\xd9?'
p99
tp100
Rp101
ag50
(g54
S'\xd8\xc8\x18\x0e\xe9\x9f\xd9?'
p102
tp103
Rp104
ag50
(g54
S'\xba\xa4\x80]\r\xba\xe4?'
p105
tp106
Rp107
ag50
(g54
S'\xd8\xc8\x18\x0e\xe9\x9f\xd9?'
p108
tp109
Rp110
ag50
(g54
S'\xba\xa4\x80]\r\xba\xe4?'
p111
tp112
Rp113
ag50
(g54
S'\xd8\xc8\x18\x0e\xe9\x9f\xd9?'
p114
tp115
Rp116
ag50
(g54
S'y\x0c\xfd\x89\x08\xf9\xd9?'
p117
tp118
Rp119
ag50
(g54
S'\xc2l\x99\xc0/\xab\xea?'
p120
tp121
Rp122
ag50
(g54
S'Y\xcc\x8f\xe1Oa\xe1?'
p123
tp124
Rp125
ag50
(g54
S"\xcc\xde/\xbf\xda'\xe6?"
p126
tp127
Rp128
ag50
(g54
S'\x12\x00\x12\xbb|Q\xe4?'
p129
tp130
Rp131
ag50
(g54
S'\xc2l\x99\xc0/\xab\xea?'
p132
tp133
Rp134
ag50
(g54
S'\xd8\xc8\x18\x0e\xe9\x9f\xd9?'
p135
tp136
Rp137
ag50
(g54
S's\xc3/\xc1\x17\x1a\xe1?'
p138
tp139
Rp140
ag50
(g54
S'y\x0c\xfd\x89\x08\xf9\xd9?'
p141
tp142
Rp143
ag50
(g54
S'\xd8\xc8\x18\x0e\xe9\x9f\xd9?'
p144
tp145
Rp146
ag50
(g54
S'pgy\xc9|\x1d\xe9?'
p147
tp148
Rp149
ag50
(g54
S'\xc2l\x99\xc0/\xab\xea?'
p150
tp151
Rp152
ag50
(g54
S'\xd8\xc8\x18\x0e\xe9\x9f\xd9?'
p153
tp154
Rp155
ag50
(g54
S'\xba\xa4\x80]\r\xba\xe4?'
p156
tp157
Rp158
ag50
(g54
S'Y\xcc\x8f\xe1Oa\xe1?'
p159
tp160
Rp161
ag50
(g54
S'\xc2l\x99\xc0/\xab\xea?'
p162
tp163
Rp164
ag50
(g54
S'Y\xcc\x8f\xe1Oa\xe1?'
p165
tp166
Rp167
ag50
(g54
S'\xd8\xc8\x18\x0e\xe9\x9f\xd9?'
p168
tp169
Rp170
ag50
(g54
S"\xcc\xde/\xbf\xda'\xe6?"
p171
tp172
Rp173
ag50
(g54
S'\xbdL\xb0$fw\xe4?'
p174
tp175
Rp176
ag50
(g54
S'\xbdL\xb0$fw\xe4?'
p177
tp178
Rp179
ag50
(g54
S'K]\xc8HF9\xe7?'
p180
tp181
Rp182
ag50
(g54
S'\x9a\xa8A\xc4:\xf5\xce?'
p183
tp184
Rp185
ag50
(g54
S'y\x0c\xfd\x89\x08\xf9\xd9?'
p186
tp187
Rp188
ag50
(g54
S'K]\xc8HF9\xe7?'
p189
tp190
Rp191
ag50
(g54
S'\x9a\xa8A\xc4:\xf5\xce?'
p192
tp193
Rp194
ag50
(g54
S'\xcf\x9b\x9e\xbc!\xec\xe8?'
p195
tp196
Rp197
ag50
(g54
S'\xd8\xc8\x18\x0e\xe9\x9f\xd9?'
p198
tp199
Rp200
ag50
(g54
S'p\xfc\xce\xd2\xce\xa8\xec?'
p201
tp202
Rp203
ag50
(g54
S'\x9a\xa8A\xc4:\xf5\xce?'
p204
tp205
Rp206
ag50
(g54
S'\x11\xf1\xbc\xb2.\x0c\xcd?'
p207
tp208
Rp209
ag50
(g54
S'\xc2l\x99\xc0/\xab\xea?'
p210
tp211
Rp212
ag50
(g54
S'Y\xcc\x8f\xe1Oa\xe1?'
p213
tp214
Rp215
ag50
(g54
S'd\xc9!\xd6\xa3t\xe2?'
p216
tp217
Rp218
ag50
(g54
S'\xd8\xc8\x18\x0e\xe9\x9f\xd9?'
p219
tp220
Rp221
ag50
(g54
S"\xcc\xde/\xbf\xda'\xe6?"
p222
tp223
Rp224
ag50
(g54
S'\x12\x00\x12\xbb|Q\xe4?'
p225
tp226
Rp227
ag50
(g54
S'd\xc9!\xd6\xa3t\xe2?'
p228
tp229
Rp230
ag50
(g54
S'd\xc9!\xd6\xa3t\xe2?'
p231
tp232
Rp233
ag50
(g54
S'Y\xcc\x8f\xe1Oa\xe1?'
p234
tp235
Rp236
ag50
(g54
S'\xd8\xc8\x18\x0e\xe9\x9f\xd9?'
p237
tp238
Rp239
ag50
(g54
S'\xba\xa4\x80]\r\xba\xe4?'
p240
tp241
Rp242
ag50
(g54
S'd\xc9!\xd6\xa3t\xe2?'
p243
tp244
Rp245
ag50
(g54
S'\xd8\xc8\x18\x0e\xe9\x9f\xd9?'
p246
tp247
Rp248
ag50
(g54
S's\xc3/\xc1\x17\x1a\xe1?'
p249
tp250
Rp251
ag50
(g54
S'y\x0c\xfd\x89\x08\xf9\xd9?'
p252
tp253
Rp254
asS'sp'
p255
(lp256
(S'p0'
p257
I0
S'x'
p258
tp259
a(g257
I0
S'y'
p260
tp261
ag259
a(g257
I0
S't'
p262
tp263
a(g257
I0
g258
tp264
a(S'p1'
p265
I0
g258
tp266
a(g265
I0
g262
tp267
a(g265
I0
g260
tp268
a(g265
I0
g262
tp269
ag268
a(g257
I0
g260
tp270
a(g257
I0
g260
tp271
a(g257
I0
g260
tp272
ag259
ag266
ag267
a(g265
I0
g258
tp273
ag267
ag273
ag267
a(g265
F1.5707963267948966
g262
tp274
a(g265
F1.5707963267948966
g262
tp275
a(g265
I0
g262
tp276
ag268
a(g265
I0
g258
tp277
a(g265
I0
g258
tp278
ag267
ag267
ag274
a(g265
F1.5707963267948966
g260
tp279
a(g257
F1.5707963267948966
g260
tp280
a(g257
F1.5707963267948966
g260
tp281
a(g257
F1.5707963267948966
g258
tp282
a(g257
F1.5707963267948966
g260
tp283
a(g257
F1.5707963267948966
g260
tp284
ag281
ag284
ag282
a(g257
F1.5707963267948966
g262
tp285
a(g257
F1.5707963267948966
g262
tp286
ag286
a(g257
F1.5707963267948966
g262
tp287
a(g257
F1.5707963267948966
g258
tp288
a(g265
F1.5707963267948966
g258
tp289
a(g265
F1.5707963267948966
g258
tp290
a(g265
F1.5707963267948966
g260
tp291
a(g265
F1.5707963267948966
g262
tp292
ag279
a(g265
F1.5707963267948966
g258
tp293
ag291
a(S'p2'
p294
F1.5707963267948966
g260
tp295
a(g294
F1.5707963267948966
g260
tp296
a(g294
F1.5707963267948966
g260
tp297
ag297
a(g294
F1.5707963267948966
g258
tp298
a(g294
F1.5707963267948966
g262
tp299
a(g294
F1.5707963267948966
g260
tp300
ag300
ag300
ag297
ag298
a(g294
F1.5707963267948966
g260
tp301
ag301
ag298
ag298
a(S'p3'
p302
F1.5707963267948966
g258
tp303
asS's'
p304
(lp305
(g257
I0
g22
tp306
ag259
ag261
ag259
ag263
ag264
ag266
ag267
ag268
ag269
ag268
ag270
ag271
ag272
ag259
ag266
ag267
ag273
ag267
ag273
ag267
ag274
ag275
ag276
ag268
ag277
ag278
ag267
ag267
ag274
ag279
ag280
ag281
ag282
ag283
ag284
ag281
ag284
ag282
ag285
ag286
ag286
ag287
ag288
ag289
ag290
ag291
ag292
ag279
ag293
ag291
ag295
ag296
ag297
ag297
ag298
ag299
ag300
ag300
ag300
ag297
ag298
ag301
ag301
ag298
ag298
asS'ui'
p307
(lp308
S'hs'
p309
aS'ss'
p310
ag309
aS'hp'
p311
ag311
ag255
ag309
ag255
ag310
ag309
ag311
ag255
ag255
ag309
ag255
ag309
ag311
ag309
ag309
ag309
ag255
ag309
ag255
ag309
ag311
ag255
ag309
ag255
ag255
ag255
ag310
ag309
ag309
ag309
ag310
ag310
ag310
ag309
ag309
ag310
ag310
ag311
ag311
ag255
ag311
ag311
ag310
ag309
ag309
ag311
ag310
ag309
ag310
ag311
ag311
ag255
ag311
ag309
ag311
ag310
ag309
ag309
ag309
ag309
ag255
ag255
asS'um_before'
p312
(lp313
g309
ag311
ag309
ag309
ag311
ag255
ag309
ag309
ag311
ag309
ag255
ag310
ag255
ag309
ag255
ag309
ag311
ag309
ag311
ag309
ag255
ag255
ag310
ag309
ag309
ag255
ag309
ag310
ag255
ag309
ag255
ag255
ag309
ag311
ag310
ag255
ag310
ag309
ag309
ag310
ag310
ag255
ag311
ag255
ag255
ag311
ag311
ag309
ag309
ag311
ag310
ag255
ag310
ag311
ag309
ag309
ag309
ag311
ag311
ag310
ag309
ag311
ag311
ag309
ag310
ag255
asS'um_after'
p314
(lp315
g309
ag311
ag309
ag309
ag311
ag255
ag309
ag309
ag311
ag309
ag255
ag310
ag255
ag309
ag255
ag309
ag311
ag309
ag311
ag309
ag255
ag255
ag310
ag309
ag309
ag255
ag309
aNag255
ag309
ag255
ag255
ag309
ag311
ag310
ag255
ag310
ag309
ag309
ag310
ag310
ag255
ag311
ag255
ag255
ag311
ag311
ag309
ag309
ag311
ag310
ag255
ag310
aNag309
ag309
ag309
aNaNag310
ag309
ag311
aNag309
aNag255
asS'is_normalized_entropy_less_than_threshold'
p316
(lp317
g50
(g51
(S'b1'
p318
I0
I1
tp319
Rp320
(I3
S'|'
p321
NNNI-1
I-1
I0
tp322
bS'\x01'
p323
tp324
Rp325
ag50
(g320
S'\x00'
p326
tp327
Rp328
ag325
ag328
ag325
ag325
ag325
ag328
ag325
ag328
ag328
ag325
ag328
ag325
ag325
ag325
ag328
ag325
ag328
ag325
ag325
ag328
ag325
ag328
ag328
ag328
ag325
ag325
ag325
ag325
ag328
ag328
ag325
ag328
ag325
ag328
ag325
ag325
ag328
ag328
ag328
ag328
ag325
ag325
ag328
ag325
ag328
ag325
ag328
ag325
ag325
ag328
ag325
ag325
ag325
ag328
ag328
ag325
ag325
ag325
ag325
ag328
ag325
ag325
ag325
ag325
asaa(lp329
S'index'
p330
aI97112
aatp331
Rp332
.