ccollections
OrderedDict
p0
((lp1
(lp2
S'combination_dict'
p3
ag0
((lp4
(lp5
S'r_to_g_config'
p6
aS'bl'
p7
aa(lp8
S'num_turns'
p9
aI3
aa(lp10
S'start_direction'
p11
acutils_ms
StartDirection
p12
(I0
tp13
Rp14
aa(lp15
S'assistance_type'
p16
acutils_ms
AssistanceType
p17
(I0
tp18
Rp19
aa(lp20
S'start_mode'
p21
aS'y'
p22
aa(lp23
S'ui_given_a_noise'
p24
aF0.3
aa(lp25
S'um_given_ui_noise'
p26
aF0.7
aa(lp27
S'entropy_threshold'
p28
aF0.8
aatp29
Rp30
aa(lp31
S'data'
p32
accollections
defaultdict
p33
(c__builtin__
list
p34
tp35
Rp36
S'a'
p37
(lp38
S'mode_l'
p39
aS'move_n'
p40
ag40
aS'mode_r'
p41
ag40
ag40
ag40
ag40
ag40
ag41
aS'move_p'
p42
ag41
ag41
ag40
ag41
ag40
ag40
ag40
ag40
ag40
asS'assistance_match_with_ground_truth'
p43
(lp44
I01
aI00
aI01
aI01
aI00
aI00
aI00
aI00
aI01
aI01
aI01
aI00
aI01
aI01
aI01
aI00
aI00
aI00
aI00
aI01
asS'is_u_intended_equals_um'
p45
(lp46
I01
aI00
aI01
aI01
aI00
aI00
aI00
aI00
aI01
aI01
aI01
aI00
aI01
aI01
aI01
aI00
aI00
aI00
aI00
aI01
asS'total_steps'
p47
I20
sS'normalized_h_of_p_ui_given_um'
p48
(lp49
cnumpy.core.multiarray
scalar
p50
(cnumpy
dtype
p51
(S'f8'
p52
I0
I1
tp53
Rp54
(I3
S'<'
p55
NNNI-1
I-1
I0
tp56
bS'\xeb\xa9 })H\xda?'
p57
tp58
Rp59
ag50
(g54
S'P\xac\xcb\xf7\xa9w\xe6?'
p60
tp61
Rp62
ag50
(g54
S'I\xf2?\xfd\xcd\xfa\xdf?'
p63
tp64
Rp65
ag50
(g54
S'4\xb2\x05w\x13\x10\xda?'
p66
tp67
Rp68
ag50
(g54
S'P\xac\xcb\xf7\xa9w\xe6?'
p69
tp70
Rp71
ag50
(g54
S't\xd3\xfcbo\x84\xe7?'
p72
tp73
Rp74
ag50
(g54
S'P\xac\xcb\xf7\xa9w\xe6?'
p75
tp76
Rp77
ag50
(g54
S'P\xac\xcb\xf7\xa9w\xe6?'
p78
tp79
Rp80
ag50
(g54
S'I\xf2?\xfd\xcd\xfa\xdf?'
p81
tp82
Rp83
ag50
(g54
S'4\xb2\x05w\x13\x10\xda?'
p84
tp85
Rp86
ag50
(g54
S'z\x80}\x87|\x12\xca?'
p87
tp88
Rp89
ag50
(g54
S'@\xc7\x1f.)\x80\xdf?'
p90
tp91
Rp92
ag50
(g54
S'4\xb2\x05w\x13\x10\xda?'
p93
tp94
Rp95
ag50
(g54
S'I\xf2?\xfd\xcd\xfa\xdf?'
p96
tp97
Rp98
ag50
(g54
S'4\xb2\x05w\x13\x10\xda?'
p99
tp100
Rp101
ag50
(g54
S'P\xac\xcb\xf7\xa9w\xe6?'
p102
tp103
Rp104
ag50
(g54
S'P\xac\xcb\xf7\xa9w\xe6?'
p105
tp106
Rp107
ag50
(g54
S'P\xac\xcb\xf7\xa9w\xe6?'
p108
tp109
Rp110
ag50
(g54
S't\xd3\xfcbo\x84\xe7?'
p111
tp112
Rp113
ag50
(g54
S'I\xf2?\xfd\xcd\xfa\xdf?'
p114
tp115
Rp116
asS'sp'
p117
(lp118
(S'p0'
p119
I0
S'x'
p120
tp121
ag121
a(S'p1'
p122
I0
g120
tp123
a(g122
I0
S'y'
p124
tp125
ag125
ag125
ag125
ag125
a(S'p2'
p126
I0
g124
tp127
a(g126
I0
S't'
p128
tp129
a(g126
F1.5707963267948966
g128
tp130
ag130
a(g126
F1.5707963267948966
g120
tp131
a(S'p3'
p132
F1.5707963267948966
g120
tp133
a(g132
F1.5707963267948966
g124
tp134
ag134
ag134
ag134
ag134
a(S'p4'
p135
F1.5707963267948966
g124
tp136
asS's'
p137
(lp138
(g119
I0
g22
tp139
ag121
ag121
ag123
ag125
ag125
ag125
ag125
ag125
ag127
ag129
ag130
ag130
ag131
ag133
ag134
ag134
ag134
ag134
ag134
asS'ui'
p140
(lp141
S'hs'
p142
ag117
aS'ss'
p143
aS'hp'
p144
ag143
ag143
ag117
ag117
ag144
ag144
ag117
ag144
ag144
ag143
ag144
ag143
ag143
ag117
ag144
ag144
asS'um_before'
p145
(lp146
g142
ag117
ag143
ag144
ag117
ag144
ag117
ag117
ag143
ag144
ag117
ag143
ag144
ag143
ag144
ag117
ag117
ag117
ag144
ag143
asS'um_after'
p147
(lp148
g142
aNag143
ag144
aNaNaNaNag143
ag144
ag117
aNag144
ag143
ag144
aNaNaNaNag143
asS'is_normalized_entropy_less_than_threshold'
p149
(lp150
g50
(g51
(S'b1'
p151
I0
I1
tp152
Rp153
(I3
S'|'
p154
NNNI-1
I-1
I0
tp155
bS'\x01'
p156
tp157
Rp158
ag158
ag158
ag158
ag158
ag158
ag158
ag158
ag158
ag158
ag158
ag158
ag158
ag158
ag158
ag158
ag158
ag158
ag158
ag158
asaa(lp159
S'index'
p160
aI77980
aatp161
Rp162
.