ccollections
OrderedDict
p0
((lp1
(lp2
S'combination_dict'
p3
ag0
((lp4
(lp5
S'r_to_g_config'
p6
aS'tr'
p7
aa(lp8
S'num_turns'
p9
aI3
aa(lp10
S'start_direction'
p11
acutils_ms
StartDirection
p12
(I1
tp13
Rp14
aa(lp15
S'assistance_type'
p16
acutils_ms
AssistanceType
p17
(I1
tp18
Rp19
aa(lp20
S'start_mode'
p21
aS'x'
p22
aa(lp23
S'ui_given_a_noise'
p24
aF0.1
aa(lp25
S'um_given_ui_noise'
p26
aF0.1
aa(lp27
S'entropy_threshold'
p28
aF0.9
aatp29
Rp30
aa(lp31
S'data'
p32
accollections
defaultdict
p33
(c__builtin__
list
p34
tp35
Rp36
S'a'
p37
(lp38
S'mode_r'
p39
aS'move_p'
p40
aS'mode_l'
p41
ag39
ag39
ag40
ag41
ag41
ag40
ag41
ag39
ag40
ag41
ag40
ag41
ag40
asS'assistance_match_with_ground_truth'
p42
(lp43
I01
aI01
aI00
aI00
aI01
aI01
aI00
aI01
aI00
aI00
aI01
aI01
aI01
aI01
aI01
aI01
asS'is_u_intended_equals_um'
p44
(lp45
I00
aI01
aI01
aI01
aI01
aI00
aI01
aI01
aI01
aI01
aI01
aI01
aI01
aI00
aI01
aI01
asS'total_steps'
p46
I16
sS'normalized_h_of_p_ui_given_um'
p47
(lp48
cnumpy.core.multiarray
scalar
p49
(cnumpy
dtype
p50
(S'f8'
p51
I0
I1
tp52
Rp53
(I3
S'<'
p54
NNNI-1
I-1
I0
tp55
bS">\x17'\xd2\xd9H\xdf?"
p56
tp57
Rp58
ag49
(g53
S'\x9d\xcaN\xfe\x11\xf5\xa6?'
p59
tp60
Rp61
ag49
(g53
S'\xac\xace\xd3\xcc\x8e\xe1?'
p62
tp63
Rp64
ag49
(g53
S'\xbe\xb4A\x8a\xfa\xfe\xe1?'
p65
tp66
Rp67
ag49
(g53
S'x\xfe\xb1\xc6v\xcf\x92?'
p68
tp69
Rp70
ag49
(g53
S'\x08\xee\x87I\xbc\x94\xdf?'
p71
tp72
Rp73
ag49
(g53
S'\x83N\x17\xd2\xd5\xd7\xeb?'
p74
tp75
Rp76
ag49
(g53
S'\x1f\x9b\xe5Z\x0b\xeb\x96?'
p77
tp78
Rp79
ag49
(g53
S'\xa3\x89S\xe4\xd7!\xe3?'
p80
tp81
Rp82
ag49
(g53
S'\xac\xace\xd3\xcc\x8e\xe1?'
p83
tp84
Rp85
ag49
(g53
S'x\xfe\xb1\xc6v\xcf\x92?'
p86
tp87
Rp88
ag49
(g53
S'\x9d\xcaN\xfe\x11\xf5\xa6?'
p89
tp90
Rp91
ag49
(g53
S'\x1f\x9b\xe5Z\x0b\xeb\x96?'
p92
tp93
Rp94
ag49
(g53
S'\x08\xee\x87I\xbc\x94\xdf?'
p95
tp96
Rp97
ag49
(g53
S'\x1f\x9b\xe5Z\x0b\xeb\x96?'
p98
tp99
Rp100
ag49
(g53
S'\x9d\xcaN\xfe\x11\xf5\xa6?'
p101
tp102
Rp103
asS'sp'
p104
(lp105
(S'p0'
p106
I0
S'y'
p107
tp108
a(S'p1'
p109
I0
g107
tp110
a(g109
I0
S't'
p111
tp112
a(g109
I0
g111
tp113
a(g109
I0
S'x'
p114
tp115
a(S'p2'
p116
I0
g114
tp117
a(g116
I0
g114
tp118
a(g116
I0
g111
tp119
a(g116
I0
g114
tp120
a(g116
I0
g107
tp121
a(g116
I0
g111
tp122
a(g116
F1.5707963267948966
g111
tp123
a(g116
F1.5707963267948966
g107
tp124
a(S'p3'
p125
F1.5707963267948966
g107
tp126
a(g125
F1.5707963267948966
g114
tp127
a(S'p4'
p128
F1.5707963267948966
g114
tp129
asS's'
p130
(lp131
(g106
I0
g22
tp132
ag108
ag110
ag112
ag113
ag115
ag117
ag118
ag119
ag120
ag121
ag122
ag123
ag124
ag126
ag127
asS'ui'
p133
(lp134
S'ss'
p135
ag104
aS'hp'
p136
ag104
ag136
ag104
aS'hs'
p137
ag137
ag135
ag137
ag136
ag104
ag137
ag104
ag137
ag104
asS'um_before'
p138
(lp139
g135
ag104
ag136
ag104
ag136
ag135
ag135
ag137
ag136
ag136
ag136
ag104
ag137
ag135
ag137
ag104
asS'um_after'
p140
(lp141
g136
ag104
ag136
ag104
ag136
ag104
ag135
ag137
ag136
ag136
ag136
ag104
ag137
ag104
ag137
ag104
asS'is_normalized_entropy_less_than_threshold'
p142
(lp143
g49
(g50
(S'b1'
p144
I0
I1
tp145
Rp146
(I3
S'|'
p147
NNNI-1
I-1
I0
tp148
bS'\x01'
p149
tp150
Rp151
ag151
ag151
ag151
ag151
ag151
ag151
ag151
ag151
ag151
ag151
ag151
ag151
ag151
ag151
ag151
asaa(lp152
S'index'
p153
aI25643
aatp154
Rp155
.