ccollections
OrderedDict
p0
((lp1
(lp2
S'combination_dict'
p3
ag0
((lp4
(lp5
S'r_to_g_config'
p6
aS'bl'
p7
aa(lp8
S'num_turns'
p9
aI1
aa(lp10
S'start_direction'
p11
acutils_ms
StartDirection
p12
(I1
tp13
Rp14
aa(lp15
S'assistance_type'
p16
acutils_ms
AssistanceType
p17
(I0
tp18
Rp19
aa(lp20
S'start_mode'
p21
aS'x'
p22
aa(lp23
S'ui_given_a_noise'
p24
aF0.7
aa(lp25
S'um_given_ui_noise'
p26
aF0.7
aa(lp27
S'entropy_threshold'
p28
aF0.9
aatp29
Rp30
aa(lp31
S'data'
p32
accollections
defaultdict
p33
(c__builtin__
list
p34
tp35
Rp36
S'a'
p37
(lp38
S'mode_r'
p39
ag39
aS'move_n'
p40
ag39
aS'move_p'
p41
ag39
ag39
ag39
ag40
aS'mode_l'
p42
ag42
ag42
ag42
ag42
ag42
ag42
ag40
ag39
ag39
ag39
ag40
asS'assistance_match_with_ground_truth'
p43
(lp44
I00
aI01
aI01
aI01
aI01
aI00
aI00
aI01
aI00
aI00
aI00
aI00
aI00
aI00
aI00
aI01
aI00
aI00
aI00
aI01
aI01
asS'is_u_intended_equals_um'
p45
(lp46
I00
aI01
aI01
aI01
aI01
aI00
aI00
aI01
aI01
aI01
aI00
aI00
aI01
aI00
aI00
aI01
aI01
aI00
aI00
aI01
aI01
asS'total_steps'
p47
I21
sS'normalized_h_of_p_ui_given_um'
p48
(lp49
cnumpy.core.multiarray
scalar
p50
(cnumpy
dtype
p51
(S'f8'
p52
I0
I1
tp53
Rp54
(I3
S'<'
p55
NNNI-1
I-1
I0
tp56
bS'0\xb8\xc2k\x97x\xe4?'
p57
tp58
Rp59
ag50
(g54
S'LA\xbcP(%\xc9?'
p60
tp61
Rp62
ag50
(g54
S'\xd9i\x1c\xebK\x8e\xe2?'
p63
tp64
Rp65
ag50
(g54
S'LA\xbcP(%\xc9?'
p66
tp67
Rp68
ag50
(g54
S'\xf0Ou\xc5\x0c\xb5\xd6?'
p69
tp70
Rp71
ag50
(g54
S'h@\xdf\xac\xd3u\xe6?'
p72
tp73
Rp74
ag50
(g54
S'0\xb8\xc2k\x97x\xe4?'
p75
tp76
Rp77
ag50
(g54
S'LA\xbcP(%\xc9?'
p78
tp79
Rp80
ag50
(g54
S'\x87\x9a\xdc\x8e\xba\x06\xe8?'
p81
tp82
Rp83
ag50
(g54
S'\xc5\xac};\x07\x0c\xe8?'
p84
tp85
Rp86
ag50
(g54
S'>\xd5\x01\xf4\x81\xc3\xe8?'
p87
tp88
Rp89
ag50
(g54
S'>\xd5\x01\xf4\x81\xc3\xe8?'
p90
tp91
Rp92
ag50
(g54
S'\xc5\xac};\x07\x0c\xe8?'
p93
tp94
Rp95
ag50
(g54
S'8\x9f\x19\x84N\xec\xe3?'
p96
tp97
Rp98
ag50
(g54
S'>\xd5\x01\xf4\x81\xc3\xe8?'
p99
tp100
Rp101
ag50
(g54
S'w.\x00$."\xe7?'
p102
tp103
Rp104
ag50
(g54
S'\xaa\x11\x03\x82\xef\x8c\xef?'
p105
tp106
Rp107
ag50
(g54
S'0\xb8\xc2k\x97x\xe4?'
p108
tp109
Rp110
ag50
(g54
S'\x1c/nsB\n\xe2?'
p111
tp112
Rp113
ag50
(g54
S'LA\xbcP(%\xc9?'
p114
tp115
Rp116
ag50
(g54
S'\xd9i\x1c\xebK\x8e\xe2?'
p117
tp118
Rp119
asS'sp'
p120
(lp121
(S'p0'
p122
I0
g22
tp123
a(g122
I0
S'y'
p124
tp125
a(S'p1'
p126
I0
g124
tp127
a(g126
I0
S't'
p128
tp129
a(g126
F1.5707963267948966
g128
tp130
ag130
ag130
a(g126
F1.5707963267948966
S'x'
p131
tp132
a(g126
F1.5707963267948966
g124
tp133
a(g126
F1.5707963267948966
g124
tp134
ag134
ag134
ag134
ag134
ag134
a(g126
F1.5707963267948966
g131
tp135
a(g126
F1.5707963267948966
g128
tp136
ag136
ag136
ag132
a(S'p2'
p137
F1.5707963267948966
g131
tp138
asS's'
p139
(lp140
g123
ag123
ag125
ag127
ag129
ag130
ag130
ag130
ag132
ag133
ag134
ag134
ag134
ag134
ag134
ag134
ag135
ag136
ag136
ag136
ag132
asS'ui'
p141
(lp142
S'hp'
p143
ag143
aS'ss'
p144
ag143
ag120
ag120
ag143
ag143
aS'hs'
p145
ag144
ag145
ag145
ag144
ag143
ag145
ag120
ag145
ag143
ag143
ag143
ag144
asS'um_before'
p146
(lp147
g145
ag143
ag144
ag143
ag120
ag120
ag145
ag143
ag143
ag144
ag120
ag120
ag144
ag143
ag120
ag145
ag145
ag145
ag144
ag143
ag144
asS'um_after'
p148
(lp149
Nag143
ag144
ag143
ag120
aNaNag143
ag143
ag144
aNaNag144
aNaNag145
ag145
aNaNag143
ag144
asS'is_normalized_entropy_less_than_threshold'
p150
(lp151
g50
(g51
(S'b1'
p152
I0
I1
tp153
Rp154
(I3
S'|'
p155
NNNI-1
I-1
I0
tp156
bS'\x01'
p157
tp158
Rp159
ag159
ag159
ag159
ag159
ag159
ag159
ag159
ag159
ag159
ag159
ag159
ag159
ag159
ag159
ag159
ag50
(g154
S'\x00'
p160
tp161
Rp162
ag159
ag159
ag159
ag159
asaa(lp163
S'index'
p164
aI63198
aatp165
Rp166
.