ccollections
OrderedDict
p0
((lp1
(lp2
S'combination_dict'
p3
ag0
((lp4
(lp5
S'r_to_g_config'
p6
aS'bl'
p7
aa(lp8
S'num_turns'
p9
aI1
aa(lp10
S'start_direction'
p11
acutils_ms
StartDirection
p12
(I0
tp13
Rp14
aa(lp15
S'assistance_type'
p16
acutils_ms
AssistanceType
p17
(I0
tp18
Rp19
aa(lp20
S'start_mode'
p21
aS'y'
p22
aa(lp23
S'ui_given_a_noise'
p24
aF0.7
aa(lp25
S'um_given_ui_noise'
p26
aF0.5
aa(lp27
S'entropy_threshold'
p28
aF0.9
aatp29
Rp30
aa(lp31
S'data'
p32
accollections
defaultdict
p33
(c__builtin__
list
p34
tp35
Rp36
S'a'
p37
(lp38
S'mode_l'
p39
aS'move_n'
p40
ag39
ag39
ag39
ag39
ag40
ag39
ag40
aS'mode_r'
p41
ag39
ag39
ag39
ag39
ag40
ag41
ag41
ag40
ag39
ag39
aS'move_p'
p42
ag42
ag39
ag39
ag40
ag39
ag39
ag39
ag39
ag39
ag39
ag39
ag39
ag39
ag39
ag40
ag39
ag39
ag40
ag41
ag41
ag39
ag40
ag39
ag39
ag40
ag40
ag39
ag40
ag41
ag40
ag41
ag40
ag41
ag40
ag39
ag40
ag39
ag40
ag41
ag41
ag40
asS'assistance_match_with_ground_truth'
p43
(lp44
I01
aI00
aI00
aI00
aI00
aI01
aI00
aI01
aI00
aI00
aI00
aI00
aI00
aI01
aI00
aI00
aI01
aI01
aI00
aI01
aI00
aI01
aI00
aI01
aI00
aI00
aI00
aI00
aI00
aI00
aI00
aI00
aI00
aI00
aI01
aI00
aI00
aI01
aI00
aI00
aI00
aI01
aI00
aI00
aI01
aI00
aI00
aI01
aI01
aI01
aI00
aI01
aI00
aI01
aI00
aI01
aI00
aI01
aI01
aI00
aI01
aI01
asS'is_u_intended_equals_um'
p45
(lp46
I01
aI01
aI00
aI00
aI00
aI01
aI01
aI01
aI01
aI01
aI00
aI00
aI00
aI01
aI01
aI00
aI01
aI01
aI00
aI01
aI00
aI01
aI00
aI01
aI01
aI01
aI00
aI00
aI00
aI01
aI01
aI00
aI00
aI01
aI01
aI01
aI00
aI01
aI01
aI00
aI01
aI01
aI01
aI00
aI01
aI01
aI01
aI01
aI01
aI01
aI01
aI01
aI01
aI01
aI01
aI01
aI01
aI01
aI01
aI00
aI01
aI01
asS'total_steps'
p47
I62
sS'normalized_h_of_p_ui_given_um'
p48
(lp49
cnumpy.core.multiarray
scalar
p50
(cnumpy
dtype
p51
(S'f8'
p52
I0
I1
tp53
Rp54
(I3
S'<'
p55
NNNI-1
I-1
I0
tp56
bS'\xc6\xc5o5\xc5\xf2\xda?'
p57
tp58
Rp59
ag50
(g54
S'<UGD\xb7y\xee?'
p60
tp61
Rp62
ag50
(g54
S'\xfd\x99\xfc\xe5h5\xec?'
p63
tp64
Rp65
ag50
(g54
S'\x01\xe5r\xea\xba\xa9\xe7?'
p66
tp67
Rp68
ag50
(g54
S'\xfd\x99\xfc\xe5h5\xec?'
p69
tp70
Rp71
ag50
(g54
S'\xc6\xc5o5\xc5\xf2\xda?'
p72
tp73
Rp74
ag50
(g54
S'<UGD\xb7y\xee?'
p75
tp76
Rp77
ag50
(g54
S'\xc6\xc5o5\xc5\xf2\xda?'
p78
tp79
Rp80
ag50
(g54
S'\x18Z$\x13[\xab\xe8?'
p81
tp82
Rp83
ag50
(g54
S'\xa5n\x00\xc5CR\xe3?'
p84
tp85
Rp86
ag50
(g54
S'\xfd\x99\xfc\xe5h5\xec?'
p87
tp88
Rp89
ag50
(g54
S'\xfd\x99\xfc\xe5h5\xec?'
p90
tp91
Rp92
ag50
(g54
S'\xfd\x99\xfc\xe5h5\xec?'
p93
tp94
Rp95
ag50
(g54
S'\xc6\xc5o5\xc5\xf2\xda?'
p96
tp97
Rp98
ag50
(g54
S'\x18Z$\x13[\xab\xe8?'
p99
tp100
Rp101
ag50
(g54
S'\x01`\xe4*\xaai\xe1?'
p102
tp103
Rp104
ag50
(g54
S'<EQ\x06\xffb\xd6?'
p105
tp106
Rp107
ag50
(g54
S'i\xee\xb6j\x18\t\xe4?'
p108
tp109
Rp110
ag50
(g54
S'\x01\xe5r\xea\xba\xa9\xe7?'
p111
tp112
Rp113
ag50
(g54
S'\xc6\xc5o5\xc5\xf2\xda?'
p114
tp115
Rp116
ag50
(g54
S'\xf3\x8cXN\x8b\x1c\xeb?'
p117
tp118
Rp119
ag50
(g54
S'\x82\x97g\x13\xba\xfd\xde?'
p120
tp121
Rp122
ag50
(g54
S'\xfd\x99\xfc\xe5h5\xec?'
p123
tp124
Rp125
ag50
(g54
S'\xc6\xc5o5\xc5\xf2\xda?'
p126
tp127
Rp128
ag50
(g54
S'\xf9s\xa0\x14v\x93\xe8?'
p129
tp130
Rp131
ag50
(g54
S'\xfcO\xc4\x00_\x18\xeb?'
p132
tp133
Rp134
ag50
(g54
S'\xfd\x99\xfc\xe5h5\xec?'
p135
tp136
Rp137
ag50
(g54
S'\xfd\x99\xfc\xe5h5\xec?'
p138
tp139
Rp140
ag50
(g54
S'\x01\xe5r\xea\xba\xa9\xe7?'
p141
tp142
Rp143
ag50
(g54
S'\xfcO\xc4\x00_\x18\xeb?'
p144
tp145
Rp146
ag50
(g54
S'\xfcO\xc4\x00_\x18\xeb?'
p147
tp148
Rp149
ag50
(g54
S'\xfd\x99\xfc\xe5h5\xec?'
p150
tp151
Rp152
ag50
(g54
S'\x01\xe5r\xea\xba\xa9\xe7?'
p153
tp154
Rp155
ag50
(g54
S'\xfcO\xc4\x00_\x18\xeb?'
p156
tp157
Rp158
ag50
(g54
S'\xc6\xc5o5\xc5\xf2\xda?'
p159
tp160
Rp161
ag50
(g54
S'<UGD\xb7y\xee?'
p162
tp163
Rp164
ag50
(g54
S'\xfd\x99\xfc\xe5h5\xec?'
p165
tp166
Rp167
ag50
(g54
S'\xc6\xc5o5\xc5\xf2\xda?'
p168
tp169
Rp170
ag50
(g54
S'\x18Z$\x13[\xab\xe8?'
p171
tp172
Rp173
ag50
(g54
S'\x01`\xe4*\xaai\xe1?'
p174
tp175
Rp176
ag50
(g54
S'\xa5n\x00\xc5CR\xe3?'
p177
tp178
Rp179
ag50
(g54
S'\xc6\xc5o5\xc5\xf2\xda?'
p180
tp181
Rp182
ag50
(g54
S'<UGD\xb7y\xee?'
p183
tp184
Rp185
ag50
(g54
S'\xfd\x99\xfc\xe5h5\xec?'
p186
tp187
Rp188
ag50
(g54
S'\xc6\xc5o5\xc5\xf2\xda?'
p189
tp190
Rp191
ag50
(g54
S'\xf9s\xa0\x14v\x93\xe8?'
p192
tp193
Rp194
ag50
(g54
S'<UGD\xb7y\xee?'
p195
tp196
Rp197
ag50
(g54
S'\xc6\xc5o5\xc5\xf2\xda?'
p198
tp199
Rp200
ag50
(g54
S'i\xee\xb6j\x18\t\xe4?'
p201
tp202
Rp203
ag50
(g54
S'<EQ\x06\xffb\xd6?'
p204
tp205
Rp206
ag50
(g54
S'\x18Z$\x13[\xab\xe8?'
p207
tp208
Rp209
ag50
(g54
S'<EQ\x06\xffb\xd6?'
p210
tp211
Rp212
ag50
(g54
S'\x18Z$\x13[\xab\xe8?'
p213
tp214
Rp215
ag50
(g54
S'<EQ\x06\xffb\xd6?'
p216
tp217
Rp218
ag50
(g54
S'<UGD\xb7y\xee?'
p219
tp220
Rp221
ag50
(g54
S'\xc6\xc5o5\xc5\xf2\xda?'
p222
tp223
Rp224
ag50
(g54
S'\xf9s\xa0\x14v\x93\xe8?'
p225
tp226
Rp227
ag50
(g54
S'\xc6\xc5o5\xc5\xf2\xda?'
p228
tp229
Rp230
ag50
(g54
S'i\xee\xb6j\x18\t\xe4?'
p231
tp232
Rp233
ag50
(g54
S'\xc4)qN\x0f7\xeb?'
p234
tp235
Rp236
ag50
(g54
S'<EQ\x06\xffb\xd6?'
p237
tp238
Rp239
ag50
(g54
S'i\xee\xb6j\x18\t\xe4?'
p240
tp241
Rp242
asS'sp'
p243
(lp244
(S'p0'
p245
I0
S'x'
p246
tp247
a(g245
I0
S'y'
p248
tp249
ag249
ag249
ag249
ag247
ag249
ag247
a(g245
I0
S't'
p250
tp251
a(g245
I0
g248
tp252
ag252
ag252
ag252
ag247
ag251
ag251
a(g245
I0
g246
tp253
a(S'p1'
p254
I0
g246
tp255
ag255
a(g254
I0
g250
tp256
ag256
a(g254
F1.5707963267948966
g250
tp257
ag257
a(g254
F1.5707963267948966
g248
tp258
a(g245
F1.5707963267948966
g248
tp259
a(g245
F1.5707963267948966
g248
tp260
ag260
ag260
ag260
ag260
ag260
ag260
ag260
ag260
a(g245
F1.5707963267948966
g246
tp261
a(g245
F1.5707963267948966
g248
tp262
ag262
ag261
a(g245
F1.5707963267948966
g250
tp263
ag263
a(g245
F1.5707963267948966
g248
tp264
ag261
ag262
ag262
ag261
a(g245
F1.5707963267948966
g246
tp265
ag262
ag261
a(g254
F1.5707963267948966
g246
tp266
a(g254
F1.5707963267948966
g248
tp267
a(g254
F1.5707963267948966
g246
tp268
ag267
ag268
ag267
a(g254
F1.5707963267948966
g250
tp269
ag258
ag259
ag261
ag266
ag266
ag267
a(S'p2'
p270
F1.5707963267948966
g248
tp271
asS's'
p272
(lp273
(g245
I0
g22
tp274
ag247
ag249
ag249
ag249
ag249
ag247
ag249
ag247
ag251
ag252
ag252
ag252
ag252
ag247
ag251
ag251
ag253
ag255
ag255
ag256
ag256
ag257
ag257
ag258
ag259
ag260
ag260
ag260
ag260
ag260
ag260
ag260
ag260
ag260
ag261
ag262
ag262
ag261
ag263
ag263
ag264
ag261
ag262
ag262
ag261
ag265
ag262
ag261
ag266
ag267
ag268
ag267
ag268
ag267
ag269
ag258
ag259
ag261
ag266
ag266
ag267
asS'ui'
p275
(lp276
S'hs'
p277
ag277
ag243
aS'hp'
p278
ag277
ag277
ag277
ag277
ag243
ag277
ag277
ag243
ag277
ag277
ag243
ag278
ag278
ag243
ag277
ag277
ag277
ag243
ag277
ag277
aS'ss'
p279
ag277
ag243
ag278
ag278
ag277
ag277
ag278
ag278
ag277
ag277
ag277
ag277
ag277
ag277
ag278
ag277
ag278
ag243
ag243
ag277
ag278
ag277
ag277
ag279
ag278
ag279
ag277
ag277
ag278
ag278
ag277
ag243
ag243
ag279
ag278
ag278
ag279
asS'um_before'
p280
(lp281
g277
ag278
ag243
ag278
ag243
ag277
ag278
ag277
ag277
ag277
ag243
ag243
ag243
ag277
ag277
ag243
ag278
ag279
ag278
ag277
ag277
ag243
ag243
ag277
ag243
ag279
ag243
ag243
ag278
ag279
ag279
ag243
ag278
ag279
ag277
ag278
ag243
ag277
ag277
ag243
ag277
ag277
ag278
ag243
ag277
ag243
ag278
ag277
ag279
ag278
ag277
ag278
ag277
ag278
ag278
ag277
ag243
ag277
ag279
ag279
ag278
ag279
asS'um_after'
p282
(lp283
g277
ag278
aNaNaNag277
ag278
ag277
ag277
ag277
aNaNaNag277
ag277
aNag278
ag279
aNag277
aNag243
aNag277
ag243
ag279
aNaNaNag279
ag279
aNaNag279
ag277
ag278
aNag277
ag277
aNag277
ag277
ag278
aNag277
ag243
ag278
ag277
ag279
ag278
ag277
ag278
ag277
ag278
ag278
ag277
ag243
ag277
ag279
aNag278
ag279
asS'is_normalized_entropy_less_than_threshold'
p284
(lp285
g50
(g51
(S'b1'
p286
I0
I1
tp287
Rp288
(I3
S'|'
p289
NNNI-1
I-1
I0
tp290
bS'\x01'
p291
tp292
Rp293
ag50
(g288
S'\x00'
p294
tp295
Rp296
ag293
ag293
ag293
ag293
ag296
ag293
ag293
ag293
ag293
ag293
ag293
ag293
ag293
ag293
ag293
ag293
ag293
ag293
ag293
ag293
ag293
ag293
ag293
ag293
ag293
ag293
ag293
ag293
ag293
ag293
ag293
ag293
ag293
ag296
ag293
ag293
ag293
ag293
ag293
ag293
ag296
ag293
ag293
ag293
ag296
ag293
ag293
ag293
ag293
ag293
ag293
ag293
ag296
ag293
ag293
ag293
ag293
ag293
ag293
ag293
asaa(lp297
S'index'
p298
aI59146
aatp299
Rp300
.