ccollections
OrderedDict
p0
((lp1
(lp2
S'combination_dict'
p3
ag0
((lp4
(lp5
S'r_to_g_config'
p6
aS'tr'
p7
aa(lp8
S'num_turns'
p9
aI3
aa(lp10
S'start_direction'
p11
acutils_ms
StartDirection
p12
(I1
tp13
Rp14
aa(lp15
S'assistance_type'
p16
acutils_ms
AssistanceType
p17
(I1
tp18
Rp19
aa(lp20
S'start_mode'
p21
aS'x'
p22
aa(lp23
S'ui_given_a_noise'
p24
aF0.7
aa(lp25
S'um_given_ui_noise'
p26
aF0.3
aa(lp27
S'entropy_threshold'
p28
aF0.8
aatp29
Rp30
aa(lp31
S'data'
p32
accollections
defaultdict
p33
(c__builtin__
list
p34
tp35
Rp36
S'a'
p37
(lp38
S'mode_r'
p39
aS'move_p'
p40
aS'mode_l'
p41
ag39
ag39
ag41
ag41
ag41
ag39
ag39
ag39
ag39
ag40
ag41
ag39
ag40
ag39
ag40
ag39
ag39
ag39
ag40
ag41
ag40
ag41
ag40
ag41
ag40
ag39
ag39
ag40
ag39
ag40
ag41
ag40
ag39
ag41
ag39
ag40
ag39
ag40
ag41
ag40
ag39
ag39
ag39
ag39
ag40
ag39
ag39
ag39
ag40
asS'assistance_match_with_ground_truth'
p42
(lp43
I01
aI00
aI00
aI00
aI00
aI00
aI00
aI00
aI00
aI00
aI00
aI01
aI01
aI00
aI01
aI00
aI01
aI00
aI00
aI00
aI01
aI01
aI01
aI00
aI01
aI00
aI01
aI01
aI00
aI01
aI01
aI01
aI00
aI01
aI01
aI00
aI00
aI01
aI00
aI00
aI00
aI01
aI01
aI00
aI00
aI00
aI00
aI01
aI00
aI00
aI01
aI01
asS'is_u_intended_equals_um'
p44
(lp45
I01
aI01
aI01
aI01
aI01
aI01
aI01
aI01
aI01
aI01
aI01
aI01
aI01
aI01
aI01
aI00
aI01
aI01
aI01
aI01
aI01
aI01
aI01
aI01
aI01
aI01
aI01
aI01
aI01
aI01
aI01
aI01
aI01
aI01
aI01
aI01
aI01
aI01
aI01
aI01
aI01
aI01
aI01
aI01
aI01
aI01
aI01
aI01
aI01
aI01
aI01
aI01
asS'total_steps'
p46
I52
sS'normalized_h_of_p_ui_given_um'
p47
(lp48
cnumpy.core.multiarray
scalar
p49
(cnumpy
dtype
p50
(S'f8'
p51
I0
I1
tp52
Rp53
(I3
S'<'
p54
NNNI-1
I-1
I0
tp55
bS'\x97\xaf\xb0T\xbe\xf3\xd3?'
p56
tp57
Rp58
ag49
(g53
S'+\x14\xdb\xa6/\xf7\xe4?'
p59
tp60
Rp61
ag49
(g53
S'W\x0f\x07i\xc1/\xeb?'
p62
tp63
Rp64
ag49
(g53
S'jEE\xa6\x96X\xe3?'
p65
tp66
Rp67
ag49
(g53
S'\xa2\x10\xacG"\x16\xe4?'
p68
tp69
Rp70
ag49
(g53
S'\xa4\x99\xd9~a\x95\xe2?'
p71
tp72
Rp73
ag49
(g53
S'\xa4\x99\xd9~a\x95\xe2?'
p74
tp75
Rp76
ag49
(g53
S'W\x0f\x07i\xc1/\xeb?'
p77
tp78
Rp79
ag49
(g53
S'jEE\xa6\x96X\xe3?'
p80
tp81
Rp82
ag49
(g53
S'jEE\xa6\x96X\xe3?'
p83
tp84
Rp85
ag49
(g53
S'\x05 4\xff-\xea\xe4?'
p86
tp87
Rp88
ag49
(g53
S'\x97\xaf\xb0T\xbe\xf3\xd3?'
p89
tp90
Rp91
ag49
(g53
S':f\xaa5\xee\x0e\xd6?'
p92
tp93
Rp94
ag49
(g53
S'W\x0f\x07i\xc1/\xeb?'
p95
tp96
Rp97
ag49
(g53
S'\x97\xaf\xb0T\xbe\xf3\xd3?'
p98
tp99
Rp100
ag49
(g53
S'(\x86\xf8"\x1f\xfa\xeb?'
p101
tp102
Rp103
ag49
(g53
S'\x97\xaf\xb0T\xbe\xf3\xd3?'
p104
tp105
Rp106
ag49
(g53
S'X\x19\xfak}u\xd2?'
p107
tp108
Rp109
ag49
(g53
S'jEE\xa6\x96X\xe3?'
p110
tp111
Rp112
ag49
(g53
S'jEE\xa6\x96X\xe3?'
p113
tp114
Rp115
ag49
(g53
S'\x97\xaf\xb0T\xbe\xf3\xd3?'
p116
tp117
Rp118
ag49
(g53
S':f\xaa5\xee\x0e\xd6?'
p119
tp120
Rp121
ag49
(g53
S'\x8a\x9fh\xac\xde\xdb\xbe?'
p122
tp123
Rp124
ag49
(g53
S'+\x14\xdb\xa6/\xf7\xe4?'
p125
tp126
Rp127
ag49
(g53
S'\x8a\x9fh\xac\xde\xdb\xbe?'
p128
tp129
Rp130
ag49
(g53
S'+\x14\xdb\xa6/\xf7\xe4?'
p131
tp132
Rp133
ag49
(g53
S'\x8a\x9fh\xac\xde\xdb\xbe?'
p134
tp135
Rp136
ag49
(g53
S':f\xaa5\xee\x0e\xd6?'
p137
tp138
Rp139
ag49
(g53
S'jEE\xa6\x96X\xe3?'
p140
tp141
Rp142
ag49
(g53
S'\x97\xaf\xb0T\xbe\xf3\xd3?'
p143
tp144
Rp145
ag49
(g53
S':f\xaa5\xee\x0e\xd6?'
p146
tp147
Rp148
ag49
(g53
S'\x97\xaf\xb0T\xbe\xf3\xd3?'
p149
tp150
Rp151
ag49
(g53
S'+\x14\xdb\xa6/\xf7\xe4?'
p152
tp153
Rp154
ag49
(g53
S'\x8a\x9fh\xac\xde\xdb\xbe?'
p155
tp156
Rp157
ag49
(g53
S':f\xaa5\xee\x0e\xd6?'
p158
tp159
Rp160
ag49
(g53
S'\xa2\x10\xacG"\x16\xe4?'
p161
tp162
Rp163
ag49
(g53
S'W\x0f\x07i\xc1/\xeb?'
p164
tp165
Rp166
ag49
(g53
S'\x97\xaf\xb0T\xbe\xf3\xd3?'
p167
tp168
Rp169
ag49
(g53
S'X\x19\xfak}u\xd2?'
p170
tp171
Rp172
ag49
(g53
S'jEE\xa6\x96X\xe3?'
p173
tp174
Rp175
ag49
(g53
S'+\x14\xdb\xa6/\xf7\xe4?'
p176
tp177
Rp178
ag49
(g53
S'\x8a\x9fh\xac\xde\xdb\xbe?'
p179
tp180
Rp181
ag49
(g53
S':f\xaa5\xee\x0e\xd6?'
p182
tp183
Rp184
ag49
(g53
S'\x05 4\xff-\xea\xe4?'
p185
tp186
Rp187
ag49
(g53
S'\x05 4\xff-\xea\xe4?'
p188
tp189
Rp190
ag49
(g53
S'\x05 4\xff-\xea\xe4?'
p191
tp192
Rp193
ag49
(g53
S'jEE\xa6\x96X\xe3?'
p194
tp195
Rp196
ag49
(g53
S':f\xaa5\xee\x0e\xd6?'
p197
tp198
Rp199
ag49
(g53
S'\x05 4\xff-\xea\xe4?'
p200
tp201
Rp202
ag49
(g53
S'\x05 4\xff-\xea\xe4?'
p203
tp204
Rp205
ag49
(g53
S'\x97\xaf\xb0T\xbe\xf3\xd3?'
p206
tp207
Rp208
ag49
(g53
S':f\xaa5\xee\x0e\xd6?'
p209
tp210
Rp211
asS'sp'
p212
(lp213
(S'p0'
p214
I0
S'y'
p215
tp216
a(g214
I0
S't'
p217
tp218
a(g214
I0
S'x'
p219
tp220
a(g214
I0
g219
tp221
a(g214
I0
g217
tp222
a(g214
I0
g217
tp223
ag223
ag220
ag221
ag221
a(g214
I0
g219
tp224
ag216
a(S'p1'
p225
I0
g215
tp226
a(g225
I0
g217
tp227
a(g225
I0
g219
tp228
a(g214
I0
g219
tp229
ag216
a(g214
I0
g219
tp230
ag221
ag221
ag216
ag226
a(g225
I0
g219
tp231
a(g225
I0
g215
tp232
ag231
ag232
ag231
a(S'p2'
p233
I0
g219
tp234
a(g233
I0
g219
tp235
a(g233
I0
g215
tp236
a(S'p3'
p237
I0
g215
tp238
a(g237
I0
g217
tp239
a(g237
I0
g219
tp240
a(g237
I0
g217
tp241
a(g237
F1.5707963267948966
g217
tp242
a(g237
F1.5707963267948966
g215
tp243
a(g237
F1.5707963267948966
g217
tp244
a(g237
F1.5707963267948966
g219
tp245
a(g237
F1.5707963267948966
g217
tp246
a(g237
I0
g217
tp247
ag240
ag241
ag242
a(g237
F1.5707963267948966
g217
tp248
ag248
ag248
ag247
ag242
ag248
ag248
ag245
a(S'p4'
p249
F1.5707963267948966
g219
tp250
asS's'
p251
(lp252
(g214
I0
g22
tp253
ag216
ag218
ag220
ag221
ag222
ag223
ag223
ag220
ag221
ag221
ag224
ag216
ag226
ag227
ag228
ag229
ag216
ag230
ag221
ag221
ag216
ag226
ag231
ag232
ag231
ag232
ag231
ag234
ag235
ag236
ag238
ag239
ag240
ag241
ag242
ag243
ag244
ag245
ag246
ag247
ag240
ag241
ag242
ag248
ag248
ag248
ag247
ag242
ag248
ag248
ag245
asS'ui'
p254
(lp255
S'hp'
p256
ag256
aS'hs'
p257
aS'ss'
p258
ag257
ag212
ag212
ag212
ag258
ag258
ag256
ag256
ag212
ag258
ag256
ag212
ag256
ag257
ag258
ag256
ag256
ag212
ag257
ag256
ag257
ag256
ag257
ag212
ag258
ag256
ag212
ag256
ag212
ag257
ag212
ag257
ag256
ag212
ag257
ag256
ag256
ag257
ag257
ag212
ag212
ag212
ag258
ag212
ag256
ag212
ag212
ag212
asS'um_before'
p259
(lp260
g256
ag256
ag256
ag258
ag257
ag212
ag212
ag256
ag258
ag258
ag212
ag256
ag212
ag256
ag256
ag258
ag256
ag257
ag258
ag258
ag256
ag212
ag257
ag256
ag257
ag256
ag257
ag212
ag258
ag256
ag212
ag256
ag256
ag257
ag212
ag257
ag256
ag256
ag257
ag258
ag256
ag257
ag212
ag212
ag212
ag212
ag258
ag212
ag212
ag212
ag256
ag212
asS'um_after'
p261
(lp262
g256
ag256
ag256
ag258
ag257
ag212
ag212
ag256
ag258
ag258
ag212
ag256
ag212
ag256
ag256
ag258
ag256
ag257
ag258
ag258
ag256
ag212
ag257
ag256
ag257
ag256
ag257
ag212
ag258
ag256
ag212
ag256
ag256
ag257
ag212
ag257
ag256
ag256
ag257
ag258
ag256
ag257
ag212
ag212
ag212
ag212
ag258
ag212
ag212
ag212
ag256
ag212
asS'is_normalized_entropy_less_than_threshold'
p263
(lp264
g49
(g50
(S'b1'
p265
I0
I1
tp266
Rp267
(I3
S'|'
p268
NNNI-1
I-1
I0
tp269
bS'\x01'
p270
tp271
Rp272
ag272
ag49
(g267
S'\x00'
p273
tp274
Rp275
ag272
ag272
ag272
ag272
ag275
ag272
ag272
ag272
ag272
ag272
ag275
ag272
ag275
ag272
ag272
ag272
ag272
ag272
ag272
ag272
ag272
ag272
ag272
ag272
ag272
ag272
ag272
ag272
ag272
ag272
ag272
ag272
ag272
ag275
ag272
ag272
ag272
ag272
ag272
ag272
ag272
ag272
ag272
ag272
ag272
ag272
ag272
ag272
ag272
asaa(lp276
S'index'
p277
aI26287
aatp278
Rp279
.