ccollections
OrderedDict
p0
((lp1
(lp2
S'combination_dict'
p3
ag0
((lp4
(lp5
S'r_to_g_config'
p6
aS'bl'
p7
aa(lp8
S'num_turns'
p9
aI2
aa(lp10
S'start_direction'
p11
acutils_ms
StartDirection
p12
(I1
tp13
Rp14
aa(lp15
S'assistance_type'
p16
acutils_ms
AssistanceType
p17
(I0
tp18
Rp19
aa(lp20
S'start_mode'
p21
aS't'
p22
aa(lp23
S'ui_given_a_noise'
p24
aF0.1
aa(lp25
S'um_given_ui_noise'
p26
aF0.7
aa(lp27
S'entropy_threshold'
p28
aF0.8
aatp29
Rp30
aa(lp31
S'data'
p32
accollections
defaultdict
p33
(c__builtin__
list
p34
tp35
Rp36
S'a'
p37
(lp38
S'mode_l'
p39
ag39
aS'move_n'
p40
ag40
aS'mode_r'
p41
aS'move_p'
p42
ag42
ag42
ag42
ag42
ag42
ag41
ag40
ag41
ag41
ag40
asS'assistance_match_with_ground_truth'
p43
(lp44
I00
aI01
aI00
aI01
aI01
aI00
aI00
aI00
aI00
aI00
aI01
aI01
aI01
aI00
aI01
aI01
asS'is_u_intended_equals_um'
p45
(lp46
I00
aI01
aI00
aI01
aI01
aI00
aI00
aI00
aI00
aI00
aI01
aI01
aI01
aI00
aI01
aI01
asS'total_steps'
p47
I16
sS'normalized_h_of_p_ui_given_um'
p48
(lp49
cnumpy.core.multiarray
scalar
p50
(cnumpy
dtype
p51
(S'f8'
p52
I0
I1
tp53
Rp54
(I3
S'<'
p55
NNNI-1
I-1
I0
tp56
bS'\x99^\x8a+\xd9\x05\xdd?'
p57
tp58
Rp59
ag50
(g54
S'G\x15\xc7\x964k\xc6?'
p60
tp61
Rp62
ag50
(g54
S'\xd1B\xd0Q\x96\x83\xd1?'
p63
tp64
Rp65
ag50
(g54
S'n\xcd-U\xbc\x16\xc1?'
p66
tp67
Rp68
ag50
(g54
S'\xdf\x15\xae\xb5P\xf0\xb3?'
p69
tp70
Rp71
ag50
(g54
S'\xd7S\xae\xc6\x15\x9f\xe0?'
p72
tp73
Rp74
ag50
(g54
S'\xd7S\xae\xc6\x15\x9f\xe0?'
p75
tp76
Rp77
ag50
(g54
S'\xd7S\xae\xc6\x15\x9f\xe0?'
p78
tp79
Rp80
ag50
(g54
S'\xacK\x88F\xd1\xe3\xc8?'
p81
tp82
Rp83
ag50
(g54
S'\xacK\x88F\xd1\xe3\xc8?'
p84
tp85
Rp86
ag50
(g54
S"D\x82J'\xc8\xa5\xc9?"
p87
tp88
Rp89
ag50
(g54
S'\xdf\x15\xae\xb5P\xf0\xb3?'
p90
tp91
Rp92
ag50
(g54
S'n\xcd-U\xbc\x16\xc1?'
p93
tp94
Rp95
ag50
(g54
S"\xaa\\\xc17t'\xd0?"
p96
tp97
Rp98
ag50
(g54
S'\xdf\x15\xae\xb5P\xf0\xb3?'
p99
tp100
Rp101
ag50
(g54
S'n\xcd-U\xbc\x16\xc1?'
p102
tp103
Rp104
asS'sp'
p105
(lp106
(S'p0'
p107
I0
g22
tp108
a(g107
I0
S'y'
p109
tp110
ag110
a(S'p1'
p111
I0
g109
tp112
a(g111
I0
S't'
p113
tp114
ag114
ag114
ag114
ag114
ag114
a(g111
F1.5707963267948966
g113
tp115
a(g111
F1.5707963267948966
S'x'
p116
tp117
a(S'p2'
p118
F1.5707963267948966
g116
tp119
ag119
a(g118
F1.5707963267948966
g109
tp120
a(S'p3'
p121
F1.5707963267948966
g109
tp122
asS's'
p123
(lp124
g108
ag108
ag110
ag110
ag112
ag114
ag114
ag114
ag114
ag114
ag114
ag115
ag117
ag119
ag119
ag120
asS'ui'
p125
(lp126
S'hs'
p127
ag127
ag127
aS'ss'
p128
aS'hp'
p129
ag128
ag105
ag105
ag105
ag105
ag105
ag129
ag128
ag129
ag129
ag129
asS'um_before'
p130
(lp131
g105
ag127
ag105
ag128
ag129
ag129
ag129
ag129
ag127
ag127
ag105
ag129
ag128
ag128
ag129
ag128
asS'um_after'
p132
(lp133
Nag127
aNag128
ag129
aNaNaNaNaNag105
ag129
ag128
aNag129
ag128
asS'is_normalized_entropy_less_than_threshold'
p134
(lp135
g50
(g51
(S'b1'
p136
I0
I1
tp137
Rp138
(I3
S'|'
p139
NNNI-1
I-1
I0
tp140
bS'\x01'
p141
tp142
Rp143
ag143
ag143
ag143
ag143
ag143
ag143
ag143
ag143
ag143
ag143
ag143
ag143
ag143
ag143
ag143
asaa(lp144
S'index'
p145
aI72989
aatp146
Rp147
.