ccollections
OrderedDict
p0
((lp1
(lp2
S'combination_dict'
p3
ag0
((lp4
(lp5
S'r_to_g_config'
p6
aS'tl'
p7
aa(lp8
S'num_turns'
p9
aI1
aa(lp10
S'start_direction'
p11
acutils_ms
StartDirection
p12
(I0
tp13
Rp14
aa(lp15
S'assistance_type'
p16
acutils_ms
AssistanceType
p17
(I1
tp18
Rp19
aa(lp20
S'start_mode'
p21
aS't'
p22
aa(lp23
S'ui_given_a_noise'
p24
aF0.5
aa(lp25
S'um_given_ui_noise'
p26
aF0.7
aa(lp27
S'entropy_threshold'
p28
aF0.5
aatp29
Rp30
aa(lp31
S'data'
p32
accollections
defaultdict
p33
(c__builtin__
list
p34
tp35
Rp36
S'a'
p37
(lp38
S'mode_r'
p39
ag39
ag39
aS'move_n'
p40
ag39
ag40
aS'mode_l'
p41
ag40
ag41
ag41
ag39
ag39
ag41
ag39
ag39
ag40
ag41
ag41
ag41
ag41
ag41
ag41
ag41
ag41
ag39
ag41
ag40
ag41
ag41
ag41
aS'move_p'
p42
ag41
ag39
ag42
asS'assistance_match_with_ground_truth'
p43
(lp44
I00
aI00
aI01
aI00
aI01
aI00
aI01
aI00
aI00
aI00
aI00
aI00
aI00
aI00
aI01
aI01
aI00
aI00
aI00
aI00
aI00
aI00
aI00
aI00
aI00
aI01
aI01
aI00
aI00
aI01
aI01
aI00
aI01
aI01
asS'is_u_intended_equals_um'
p45
(lp46
I00
aI00
aI01
aI01
aI01
aI00
aI01
aI00
aI00
aI00
aI00
aI00
aI00
aI00
aI01
aI01
aI01
aI00
aI01
aI00
aI00
aI00
aI00
aI00
aI00
aI01
aI01
aI00
aI00
aI01
aI00
aI00
aI01
aI01
asS'total_steps'
p47
I34
sS'normalized_h_of_p_ui_given_um'
p48
(lp49
cnumpy.core.multiarray
scalar
p50
(cnumpy
dtype
p51
(S'f8'
p52
I0
I1
tp53
Rp54
(I3
S'<'
p55
NNNI-1
I-1
I0
tp56
bS'\xd2=\xdae\xaa\x85\xe5?'
p57
tp58
Rp59
ag50
(g54
S'\xd2=\xdae\xaa\x85\xe5?'
p60
tp61
Rp62
ag50
(g54
S'\xc2\xbd\x8b\\\xfe\x13\xe1?'
p63
tp64
Rp65
ag50
(g54
S'\x1c\x0b\x00\xf0~\xb6\xe7?'
p66
tp67
Rp68
ag50
(g54
S'\xc2\xbd\x8b\\\xfe\x13\xe1?'
p69
tp70
Rp71
ag50
(g54
S'\xe6\xef\xec\x10\x80\xc1\xe9?'
p72
tp73
Rp74
ag50
(g54
S'\x95\x02\x88K\xf8\xbb\xdf?'
p75
tp76
Rp77
ag50
(g54
S'\xe6\xef\xec\x10\x80\xc1\xe9?'
p78
tp79
Rp80
ag50
(g54
S'\xae\x85\x8d\x99*E\xee?'
p81
tp82
Rp83
ag50
(g54
S'$q\x93\xa6\xfa\xba\xe7?'
p84
tp85
Rp86
ag50
(g54
S'\x84\x82}\x14\xc3$\xe1?'
p87
tp88
Rp89
ag50
(g54
S'\xfd\x03\x19@"\x92\xe6?'
p90
tp91
Rp92
ag50
(g54
S'$q\x93\xa6\xfa\xba\xe7?'
p93
tp94
Rp95
ag50
(g54
S'\xd2=\xdae\xaa\x85\xe5?'
p96
tp97
Rp98
ag50
(g54
S'\xc2\xbd\x8b\\\xfe\x13\xe1?'
p99
tp100
Rp101
ag50
(g54
S'\xe8\x17\x16s\x82\xf6\xd8?'
p102
tp103
Rp104
ag50
(g54
S'@\x92\xf0\xee\x8b)\xec?'
p105
tp106
Rp107
ag50
(g54
S'\xae\x85\x8d\x99*E\xee?'
p108
tp109
Rp110
ag50
(g54
S'@\x92\xf0\xee\x8b)\xec?'
p111
tp112
Rp113
ag50
(g54
S'\xae\x85\x8d\x99*E\xee?'
p114
tp115
Rp116
ag50
(g54
S'\xae\x85\x8d\x99*E\xee?'
p117
tp118
Rp119
ag50
(g54
S'\xae\x85\x8d\x99*E\xee?'
p120
tp121
Rp122
ag50
(g54
S'\xae\x85\x8d\x99*E\xee?'
p123
tp124
Rp125
ag50
(g54
S'$q\x93\xa6\xfa\xba\xe7?'
p126
tp127
Rp128
ag50
(g54
S'\xd2=\xdae\xaa\x85\xe5?'
p129
tp130
Rp131
ag50
(g54
S'\x95\x02\x88K\xf8\xbb\xdf?'
p132
tp133
Rp134
ag50
(g54
S'\xe8\x17\x16s\x82\xf6\xd8?'
p135
tp136
Rp137
ag50
(g54
S'\xae\x85\x8d\x99*E\xee?'
p138
tp139
Rp140
ag50
(g54
S'\xae\x85\x8d\x99*E\xee?'
p141
tp142
Rp143
ag50
(g54
S'\x95\x02\x88K\xf8\xbb\xdf?'
p144
tp145
Rp146
ag50
(g54
S'8brV\xf8\x90\xdc?'
p147
tp148
Rp149
ag50
(g54
S'$q\x93\xa6\xfa\xba\xe7?'
p150
tp151
Rp152
ag50
(g54
S'\xc2\xbd\x8b\\\xfe\x13\xe1?'
p153
tp154
Rp155
ag50
(g54
S'&\xc7\x05Zh\xfa\xd9?'
p156
tp157
Rp158
asS'sp'
p159
(lp160
(S'p0'
p161
I0
S't'
p162
tp163
ag163
a(g161
I0
S'x'
p164
tp165
a(g161
I0
g162
tp166
ag165
a(g161
I0
S'y'
p167
tp168
a(g161
I0
g164
tp169
ag168
a(g161
I0
g167
tp170
a(g161
I0
g162
tp171
a(g161
I0
g162
tp172
a(g161
I0
g167
tp173
ag171
ag163
ag165
a(S'p1'
p174
I0
g164
tp175
a(g174
I0
g164
tp176
a(g174
I0
g164
tp177
ag176
ag177
ag177
ag177
ag177
a(g174
I0
g167
tp178
a(g161
I0
g167
tp179
ag169
ag175
ag177
ag177
a(g174
I0
g162
tp180
a(g174
F1.5707963267948966
g162
tp181
a(g174
F1.5707963267948966
g164
tp182
a(g174
F1.5707963267948966
g167
tp183
a(S'p2'
p184
F1.5707963267948966
g167
tp185
asS's'
p186
(lp187
(g161
I0
g22
tp188
ag163
ag163
ag165
ag166
ag165
ag168
ag169
ag168
ag170
ag171
ag172
ag173
ag171
ag163
ag165
ag175
ag176
ag177
ag176
ag177
ag177
ag177
ag177
ag178
ag179
ag169
ag175
ag177
ag177
ag180
ag181
ag182
ag183
asS'ui'
p189
(lp190
S'ss'
p191
ag191
ag191
aS'hs'
p192
aS'hp'
p193
ag192
ag192
ag193
ag191
ag192
ag193
ag192
ag159
ag193
ag193
ag191
ag159
ag192
ag192
ag192
ag193
ag192
ag192
ag159
ag159
ag192
ag191
ag192
ag192
ag159
ag159
ag192
ag193
ag159
asS'um_before'
p194
(lp195
g191
ag191
ag193
ag192
ag193
ag193
ag192
ag193
ag191
ag193
ag159
ag192
ag193
ag191
ag193
ag191
ag159
ag191
ag159
ag191
ag191
ag191
ag191
ag193
ag191
ag192
ag191
ag191
ag191
ag192
ag192
ag193
ag193
ag159
asS'um_after'
p196
(lp197
g191
ag191
ag193
ag192
ag193
ag193
ag192
ag193
ag191
ag193
ag159
ag192
ag193
ag191
ag193
ag191
ag159
ag191
ag159
ag191
ag191
ag191
ag191
ag193
ag191
ag192
ag191
ag191
ag191
ag192
ag159
ag193
ag193
ag159
asS'is_normalized_entropy_less_than_threshold'
p198
(lp199
g50
(g51
(S'b1'
p200
I0
I1
tp201
Rp202
(I3
S'|'
p203
NNNI-1
I-1
I0
tp204
bS'\x00'
p205
tp206
Rp207
ag207
ag207
ag207
ag207
ag207
ag50
(g202
S'\x01'
p208
tp209
Rp210
ag207
ag207
ag207
ag207
ag207
ag207
ag207
ag207
ag210
ag207
ag207
ag207
ag207
ag207
ag207
ag207
ag207
ag207
ag210
ag210
ag207
ag207
ag210
ag210
ag207
ag207
ag210
asaa(lp211
S'index'
p212
aI30957
aatp213
Rp214
.