ccollections
OrderedDict
p0
((lp1
(lp2
S'combination_dict'
p3
ag0
((lp4
(lp5
S'r_to_g_config'
p6
aS'br'
p7
aa(lp8
S'num_turns'
p9
aI3
aa(lp10
S'start_direction'
p11
acutils_ms
StartDirection
p12
(I1
tp13
Rp14
aa(lp15
S'assistance_type'
p16
acutils_ms
AssistanceType
p17
(I1
tp18
Rp19
aa(lp20
S'start_mode'
p21
aS'x'
p22
aa(lp23
S'ui_given_a_noise'
p24
aF0.7
aa(lp25
S'um_given_ui_noise'
p26
aF0.7
aa(lp27
S'entropy_threshold'
p28
aF0.5
aatp29
Rp30
aa(lp31
S'data'
p32
accollections
defaultdict
p33
(c__builtin__
list
p34
tp35
Rp36
S'a'
p37
(lp38
S'mode_r'
p39
aS'mode_l'
p40
ag39
ag40
ag39
ag39
ag39
ag40
ag40
ag39
aS'move_n'
p41
ag39
ag39
ag40
ag39
ag39
ag39
ag41
ag39
ag41
ag39
ag40
ag40
ag40
ag39
ag40
ag41
ag41
ag39
ag40
ag39
ag41
ag40
ag39
ag40
aS'move_p'
p42
ag40
ag42
ag39
ag39
ag42
ag39
ag41
ag40
ag42
ag39
ag40
ag40
ag41
ag39
ag41
ag40
ag41
ag39
ag40
ag39
ag40
ag40
ag41
ag40
ag42
ag40
ag39
ag39
ag40
ag42
ag39
ag40
ag42
ag39
ag40
ag39
ag40
ag40
ag41
ag41
ag39
ag40
ag41
ag40
ag39
ag39
ag41
ag39
ag39
ag40
ag39
ag41
ag39
ag41
ag40
ag42
ag39
ag42
ag40
ag40
ag40
ag39
ag42
ag40
ag39
ag39
ag42
ag39
ag40
ag41
ag39
ag40
ag41
ag40
ag40
ag42
ag39
ag39
ag40
ag40
ag41
ag39
ag39
ag41
ag39
ag39
ag40
ag39
ag39
ag39
ag40
ag41
ag39
ag40
ag39
ag40
ag42
ag39
ag40
ag39
ag40
ag39
ag42
ag40
ag39
ag42
ag42
ag39
ag40
ag40
ag40
ag42
asS'assistance_match_with_ground_truth'
p43
(lp44
I00
aI00
aI00
aI00
aI00
aI00
aI00
aI00
aI00
aI01
aI00
aI00
aI00
aI00
aI00
aI00
aI01
aI00
aI01
aI00
aI00
aI00
aI00
aI00
aI00
aI01
aI00
aI00
aI00
aI00
aI01
aI01
aI00
aI00
aI01
aI00
aI01
aI00
aI00
aI01
aI01
aI01
aI00
aI01
aI00
aI00
aI00
aI01
aI00
aI01
aI00
aI01
aI00
aI00
aI00
aI00
aI00
aI01
aI01
aI01
aI00
aI00
aI00
aI00
aI01
aI00
aI00
aI01
aI00
aI00
aI00
aI00
aI00
aI01
aI00
aI00
aI00
aI01
aI00
aI00
aI00
aI01
aI00
aI00
aI00
aI00
aI01
aI00
aI01
aI01
aI01
aI00
aI01
aI00
aI00
aI00
aI00
aI01
aI00
aI00
aI00
aI01
aI00
aI00
aI01
aI00
aI00
aI01
aI01
aI00
aI01
aI01
aI00
aI00
aI00
aI01
aI00
aI00
aI01
aI01
aI00
aI00
aI00
aI00
aI00
aI00
aI01
aI01
aI00
aI00
aI00
aI01
aI01
aI00
aI00
aI00
aI00
aI01
aI00
aI00
aI00
aI00
aI01
aI00
aI00
aI00
aI01
aI01
asS'is_u_intended_equals_um'
p45
(lp46
I00
aI00
aI00
aI00
aI01
aI01
aI00
aI01
aI00
aI01
aI01
aI00
aI00
aI00
aI00
aI01
aI01
aI01
aI01
aI01
aI00
aI01
aI01
aI00
aI00
aI01
aI00
aI01
aI00
aI00
aI01
aI01
aI00
aI00
aI01
aI01
aI01
aI01
aI01
aI01
aI01
aI01
aI00
aI01
aI01
aI00
aI01
aI01
aI01
aI01
aI00
aI01
aI01
aI00
aI00
aI00
aI01
aI01
aI01
aI01
aI01
aI00
aI00
aI00
aI01
aI01
aI00
aI01
aI01
aI00
aI00
aI00
aI01
aI01
aI00
aI01
aI00
aI01
aI00
aI00
aI01
aI01
aI01
aI00
aI00
aI00
aI01
aI01
aI01
aI01
aI01
aI01
aI01
aI01
aI01
aI01
aI00
aI01
aI01
aI00
aI01
aI01
aI01
aI00
aI01
aI01
aI00
aI01
aI01
aI01
aI01
aI01
aI01
aI00
aI01
aI01
aI01
aI00
aI01
aI01
aI00
aI00
aI01
aI00
aI00
aI00
aI01
aI01
aI00
aI00
aI00
aI01
aI01
aI00
aI00
aI00
aI00
aI01
aI01
aI00
aI00
aI01
aI01
aI00
aI01
aI01
aI01
aI01
asS'total_steps'
p47
I148
sS'normalized_h_of_p_ui_given_um'
p48
(lp49
cnumpy.core.multiarray
scalar
p50
(cnumpy
dtype
p51
(S'f8'
p52
I0
I1
tp53
Rp54
(I3
S'<'
p55
NNNI-1
I-1
I0
tp56
bS'\x96\xa9}k<6\xe7?'
p57
tp58
Rp59
ag50
(g54
S'\xe8\x14\x8f\xf9\xbe\x8c\xef?'
p60
tp61
Rp62
ag50
(g54
S'\x96\xa9}k<6\xe7?'
p63
tp64
Rp65
ag50
(g54
S'\xe8\x14\x8f\xf9\xbe\x8c\xef?'
p66
tp67
Rp68
ag50
(g54
S"lL\xc5\xd4\xc6'\xe6?"
p69
tp70
Rp71
ag50
(g54
S"lL\xc5\xd4\xc6'\xe6?"
p72
tp73
Rp74
ag50
(g54
S'\x96\xa9}k<6\xe7?'
p75
tp76
Rp77
ag50
(g54
S'\xf4\xa2\xc60\xa4\xaa\xe5?'
p78
tp79
Rp80
ag50
(g54
S'\xe8\x14\x8f\xf9\xbe\x8c\xef?'
p81
tp82
Rp83
ag50
(g54
S'l\xb5\xa4\xb8C\xb6\xd8?'
p84
tp85
Rp86
ag50
(g54
S'\xc0\xde\x079\xd1\x19\xe6?'
p87
tp88
Rp89
ag50
(g54
S'\xa0\xbb\x08\xcb\xaf\x0f\xe8?'
p90
tp91
Rp92
ag50
(g54
S'\x96\xa9}k<6\xe7?'
p93
tp94
Rp95
ag50
(g54
S'\xe8\x14\x8f\xf9\xbe\x8c\xef?'
p96
tp97
Rp98
ag50
(g54
S'\xa0\xbb\x08\xcb\xaf\x0f\xe8?'
p99
tp100
Rp101
ag50
(g54
S"lL\xc5\xd4\xc6'\xe6?"
p102
tp103
Rp104
ag50
(g54
S'l\xb5\xa4\xb8C\xb6\xd8?'
p105
tp106
Rp107
ag50
(g54
S'\xc0\xde\x079\xd1\x19\xe6?'
p108
tp109
Rp110
ag50
(g54
S'l\xb5\xa4\xb8C\xb6\xd8?'
p111
tp112
Rp113
ag50
(g54
S'\xc0\xde\x079\xd1\x19\xe6?'
p114
tp115
Rp116
ag50
(g54
S'\x96\xa9}k<6\xe7?'
p117
tp118
Rp119
ag50
(g54
S'\xf4\xa2\xc60\xa4\xaa\xe5?'
p120
tp121
Rp122
ag50
(g54
S'p\xcb\x91\x04\xe0~\xeb?'
p123
tp124
Rp125
ag50
(g54
S'\xe8\x14\x8f\xf9\xbe\x8c\xef?'
p126
tp127
Rp128
ag50
(g54
S'\x96\xa9}k<6\xe7?'
p129
tp130
Rp131
ag50
(g54
S'K\xc3.\x0b\xe4\x06\xe4?'
p132
tp133
Rp134
ag50
(g54
S'\x04_\xe7\xf5\x1b\xb3\xe3?'
p135
tp136
Rp137
ag50
(g54
S'\xc0\xde\x079\xd1\x19\xe6?'
p138
tp139
Rp140
ag50
(g54
S'\x96\xa9}k<6\xe7?'
p141
tp142
Rp143
ag50
(g54
S'\xe8\x14\x8f\xf9\xbe\x8c\xef?'
p144
tp145
Rp146
ag50
(g54
S'l\xb5\xa4\xb8C\xb6\xd8?'
p147
tp148
Rp149
ag50
(g54
S'qCyov\x1a\xdc?'
p150
tp151
Rp152
ag50
(g54
S'\xe8\x14\x8f\xf9\xbe\x8c\xef?'
p153
tp154
Rp155
ag50
(g54
S'\x96\xa9}k<6\xe7?'
p156
tp157
Rp158
ag50
(g54
S'K\xc3.\x0b\xe4\x06\xe4?'
p159
tp160
Rp161
ag50
(g54
S'\x95\xf5\x1eg\x85\xbe\xeb?'
p162
tp163
Rp164
ag50
(g54
S'K\xc3.\x0b\xe4\x06\xe4?'
p165
tp166
Rp167
ag50
(g54
S'\x91\x9f,\xf1\x08\x04\xee?'
p168
tp169
Rp170
ag50
(g54
S"lL\xc5\xd4\xc6'\xe6?"
p171
tp172
Rp173
ag50
(g54
S'l\xb5\xa4\xb8C\xb6\xd8?'
p174
tp175
Rp176
ag50
(g54
S' \x04\xf4e\xc9\xc9\xe3?'
p177
tp178
Rp179
ag50
(g54
S'l\xb5\xa4\xb8C\xb6\xd8?'
p180
tp181
Rp182
ag50
(g54
S'\x04_\xe7\xf5\x1b\xb3\xe3?'
p183
tp184
Rp185
ag50
(g54
S'K\xc3.\x0b\xe4\x06\xe4?'
p186
tp187
Rp188
ag50
(g54
S'\n\x869\x83@\x18\xeb?'
p189
tp190
Rp191
ag50
(g54
S'\x96\xa9}k<6\xe7?'
p192
tp193
Rp194
ag50
(g54
S'p\xcb\x91\x04\xe0~\xeb?'
p195
tp196
Rp197
ag50
(g54
S'K\xc3.\x0b\xe4\x06\xe4?'
p198
tp199
Rp200
ag50
(g54
S'\xc0\xde\x079\xd1\x19\xe6?'
p201
tp202
Rp203
ag50
(g54
S'l\xb5\xa4\xb8C\xb6\xd8?'
p204
tp205
Rp206
ag50
(g54
S'.ei\xc8\xd2]\xe8?'
p207
tp208
Rp209
ag50
(g54
S'K\xc3.\x0b\xe4\x06\xe4?'
p210
tp211
Rp212
ag50
(g54
S'\xc0\xde\x079\xd1\x19\xe6?'
p213
tp214
Rp215
ag50
(g54
S'\x96\xa9}k<6\xe7?'
p216
tp217
Rp218
ag50
(g54
S'\xe8\x14\x8f\xf9\xbe\x8c\xef?'
p219
tp220
Rp221
ag50
(g54
S'\x96\xa9}k<6\xe7?'
p222
tp223
Rp224
ag50
(g54
S'\xf4\xa2\xc60\xa4\xaa\xe5?'
p225
tp226
Rp227
ag50
(g54
S'K\xc3.\x0b\xe4\x06\xe4?'
p228
tp229
Rp230
ag50
(g54
S'qCyov\x1a\xdc?'
p231
tp232
Rp233
ag50
(g54
S'K\xc3.\x0b\xe4\x06\xe4?'
p234
tp235
Rp236
ag50
(g54
S'\x95\xf5\x1eg\x85\xbe\xeb?'
p237
tp238
Rp239
ag50
(g54
S'\xe8\x14\x8f\xf9\xbe\x8c\xef?'
p240
tp241
Rp242
ag50
(g54
S'\xa0\xbb\x08\xcb\xaf\x0f\xe8?'
p243
tp244
Rp245
ag50
(g54
S'\x96\xa9}k<6\xe7?'
p246
tp247
Rp248
ag50
(g54
S'K\xc3.\x0b\xe4\x06\xe4?'
p249
tp250
Rp251
ag50
(g54
S'\x91\x9f,\xf1\x08\x04\xee?'
p252
tp253
Rp254
ag50
(g54
S'\x96\xa9}k<6\xe7?'
p255
tp256
Rp257
ag50
(g54
S'K\xc3.\x0b\xe4\x06\xe4?'
p258
tp259
Rp260
ag50
(g54
S'\n\x869\x83@\x18\xeb?'
p261
tp262
Rp263
ag50
(g54
S'\x96\xa9}k<6\xe7?'
p264
tp265
Rp266
ag50
(g54
S'\xe8\x14\x8f\xf9\xbe\x8c\xef?'
p267
tp268
Rp269
ag50
(g54
S'\x96\xa9}k<6\xe7?'
p270
tp271
Rp272
ag50
(g54
S'p\xcb\x91\x04\xe0~\xeb?'
p273
tp274
Rp275
ag50
(g54
S'K\xc3.\x0b\xe4\x06\xe4?'
p276
tp277
Rp278
ag50
(g54
S'\x04_\xe7\xf5\x1b\xb3\xe3?'
p279
tp280
Rp281
ag50
(g54
S'\xc0\xde\x079\xd1\x19\xe6?'
p282
tp283
Rp284
ag50
(g54
S'\x96\xa9}k<6\xe7?'
p285
tp286
Rp287
ag50
(g54
S'K\xc3.\x0b\xe4\x06\xe4?'
p288
tp289
Rp290
ag50
(g54
S'.ei\xc8\xd2]\xe8?'
p291
tp292
Rp293
ag50
(g54
S'\xe8\x14\x8f\xf9\xbe\x8c\xef?'
p294
tp295
Rp296
ag50
(g54
S"lL\xc5\xd4\xc6'\xe6?"
p297
tp298
Rp299
ag50
(g54
S'l\xb5\xa4\xb8C\xb6\xd8?'
p300
tp301
Rp302
ag50
(g54
S'\xc0\xde\x079\xd1\x19\xe6?'
p303
tp304
Rp305
ag50
(g54
S'\xa0\xbb\x08\xcb\xaf\x0f\xe8?'
p306
tp307
Rp308
ag50
(g54
S'\x96\xa9}k<6\xe7?'
p309
tp310
Rp311
ag50
(g54
S'\xe8\x14\x8f\xf9\xbe\x8c\xef?'
p312
tp313
Rp314
ag50
(g54
S'l\xb5\xa4\xb8C\xb6\xd8?'
p315
tp316
Rp317
ag50
(g54
S'\xc0\xde\x079\xd1\x19\xe6?'
p318
tp319
Rp320
ag50
(g54
S'l\xb5\xa4\xb8C\xb6\xd8?'
p321
tp322
Rp323
ag50
(g54
S'qCyov\x1a\xdc?'
p324
tp325
Rp326
ag50
(g54
S'K\xc3.\x0b\xe4\x06\xe4?'
p327
tp328
Rp329
ag50
(g54
S'\x91\x9f,\xf1\x08\x04\xee?'
p330
tp331
Rp332
ag50
(g54
S'l\xb5\xa4\xb8C\xb6\xd8?'
p333
tp334
Rp335
ag50
(g54
S'\x95\xf5\x1eg\x85\xbe\xeb?'
p336
tp337
Rp338
ag50
(g54
S'p\xcb\x91\x04\xe0~\xeb?'
p339
tp340
Rp341
ag50
(g54
S'p\xcb\x91\x04\xe0~\xeb?'
p342
tp343
Rp344
ag50
(g54
S'\xe8\x14\x8f\xf9\xbe\x8c\xef?'
p345
tp346
Rp347
ag50
(g54
S'l\xb5\xa4\xb8C\xb6\xd8?'
p348
tp349
Rp350
ag50
(g54
S'\x95\xf5\x1eg\x85\xbe\xeb?'
p351
tp352
Rp353
ag50
(g54
S'\xe8\x14\x8f\xf9\xbe\x8c\xef?'
p354
tp355
Rp356
ag50
(g54
S"lL\xc5\xd4\xc6'\xe6?"
p357
tp358
Rp359
ag50
(g54
S'l\xb5\xa4\xb8C\xb6\xd8?'
p360
tp361
Rp362
ag50
(g54
S'\n\x869\x83@\x18\xeb?'
p363
tp364
Rp365
ag50
(g54
S'\x96\xa9}k<6\xe7?'
p366
tp367
Rp368
ag50
(g54
S'K\xc3.\x0b\xe4\x06\xe4?'
p369
tp370
Rp371
ag50
(g54
S'\xc0\xde\x079\xd1\x19\xe6?'
p372
tp373
Rp374
ag50
(g54
S'\x96\xa9}k<6\xe7?'
p375
tp376
Rp377
ag50
(g54
S'K\xc3.\x0b\xe4\x06\xe4?'
p378
tp379
Rp380
ag50
(g54
S'qCyov\x1a\xdc?'
p381
tp382
Rp383
ag50
(g54
S'p\xcb\x91\x04\xe0~\xeb?'
p384
tp385
Rp386
ag50
(g54
S'K\xc3.\x0b\xe4\x06\xe4?'
p387
tp388
Rp389
ag50
(g54
S' \x04\xf4e\xc9\xc9\xe3?'
p390
tp391
Rp392
ag50
(g54
S"lL\xc5\xd4\xc6'\xe6?"
p393
tp394
Rp395
ag50
(g54
S'\x96\xa9}k<6\xe7?'
p396
tp397
Rp398
ag50
(g54
S'p\xcb\x91\x04\xe0~\xeb?'
p399
tp400
Rp401
ag50
(g54
S'K\xc3.\x0b\xe4\x06\xe4?'
p402
tp403
Rp404
ag50
(g54
S'\xc0\xde\x079\xd1\x19\xe6?'
p405
tp406
Rp407
ag50
(g54
S'\xa0\xbb\x08\xcb\xaf\x0f\xe8?'
p408
tp409
Rp410
ag50
(g54
S'l\xb5\xa4\xb8C\xb6\xd8?'
p411
tp412
Rp413
ag50
(g54
S'qCyov\x1a\xdc?'
p414
tp415
Rp416
ag50
(g54
S'\xa0\xbb\x08\xcb\xaf\x0f\xe8?'
p417
tp418
Rp419
ag50
(g54
S'\x96\xa9}k<6\xe7?'
p420
tp421
Rp422
ag50
(g54
S'p\xcb\x91\x04\xe0~\xeb?'
p423
tp424
Rp425
ag50
(g54
S'\xa0\xbb\x08\xcb\xaf\x0f\xe8?'
p426
tp427
Rp428
ag50
(g54
S'\xa0\xbb\x08\xcb\xaf\x0f\xe8?'
p429
tp430
Rp431
ag50
(g54
S'\x96\xa9}k<6\xe7?'
p432
tp433
Rp434
ag50
(g54
S'K\xc3.\x0b\xe4\x06\xe4?'
p435
tp436
Rp437
ag50
(g54
S'qCyov\x1a\xdc?'
p438
tp439
Rp440
ag50
(g54
S'\x96\xa9}k<6\xe7?'
p441
tp442
Rp443
ag50
(g54
S'\xe8\x14\x8f\xf9\xbe\x8c\xef?'
p444
tp445
Rp446
ag50
(g54
S'\x96\xa9}k<6\xe7?'
p447
tp448
Rp449
ag50
(g54
S'K\xc3.\x0b\xe4\x06\xe4?'
p450
tp451
Rp452
ag50
(g54
S' \x04\xf4e\xc9\xc9\xe3?'
p453
tp454
Rp455
ag50
(g54
S'\x96\xa9}k<6\xe7?'
p456
tp457
Rp458
ag50
(g54
S'\xe8\x14\x8f\xf9\xbe\x8c\xef?'
p459
tp460
Rp461
ag50
(g54
S'\x96\xa9}k<6\xe7?'
p462
tp463
Rp464
ag50
(g54
S'\xe8\x14\x8f\xf9\xbe\x8c\xef?'
p465
tp466
Rp467
ag50
(g54
S'l\xb5\xa4\xb8C\xb6\xd8?'
p468
tp469
Rp470
ag50
(g54
S'\x95\xf5\x1eg\x85\xbe\xeb?'
p471
tp472
Rp473
ag50
(g54
S'\xe8\x14\x8f\xf9\xbe\x8c\xef?'
p474
tp475
Rp476
ag50
(g54
S'\xa0\xbb\x08\xcb\xaf\x0f\xe8?'
p477
tp478
Rp479
ag50
(g54
S'\n\x869\x83@\x18\xeb?'
p480
tp481
Rp482
ag50
(g54
S' \x04\xf4e\xc9\xc9\xe3?'
p483
tp484
Rp485
ag50
(g54
S'\x96\xa9}k<6\xe7?'
p486
tp487
Rp488
ag50
(g54
S'p\xcb\x91\x04\xe0~\xeb?'
p489
tp490
Rp491
ag50
(g54
S'p\xcb\x91\x04\xe0~\xeb?'
p492
tp493
Rp494
ag50
(g54
S'K\xc3.\x0b\xe4\x06\xe4?'
p495
tp496
Rp497
ag50
(g54
S' \x04\xf4e\xc9\xc9\xe3?'
p498
tp499
Rp500
asS'sp'
p501
(lp502
(S'p0'
p503
I0
S't'
p504
tp505
a(g503
I0
S'x'
p506
tp507
ag505
ag507
a(g503
I0
g506
tp508
ag508
ag505
a(g503
I0
g504
tp509
ag507
a(g503
I0
S'y'
p510
tp511
a(g503
I0
g506
tp512
a(g503
I0
g506
tp513
ag505
ag507
ag513
ag508
ag511
ag512
ag511
ag512
ag505
ag509
a(g503
I0
g504
tp514
ag507
ag505
a(g503
I0
g510
tp515
a(g503
I0
g510
tp516
ag512
ag505
ag507
ag511
a(S'p1'
p517
I0
g510
tp518
a(g517
I0
g504
tp519
a(g517
I0
g510
tp520
a(g517
I0
g506
tp521
a(g517
I0
g510
tp522
ag521
a(g517
I0
g504
tp523
a(g517
I0
g504
tp524
a(g517
I0
g506
tp525
a(S'p2'
p526
I0
g506
tp527
a(g526
I0
g510
tp528
a(g517
I0
g510
tp529
ag521
a(g503
I0
g506
tp530
ag505
ag514
ag515
ag512
ag511
a(g503
I0
g504
tp531
ag515
ag512
ag505
ag507
ag505
ag509
ag515
ag518
ag521
ag522
ag519
a(g517
I0
g504
tp532
ag520
ag521
ag523
ag520
ag521
ag530
ag505
ag507
ag505
ag514
ag515
ag516
ag512
ag505
ag515
ag531
ag507
ag508
ag511
ag512
ag513
ag505
ag507
ag511
ag512
ag511
ag518
ag521
ag523
ag525
ag522
a(g517
I0
g510
tp533
ag533
ag519
ag525
ag522
ag519
ag524
ag525
ag530
ag505
ag515
ag512
ag505
ag515
ag518
ag533
ag521
ag527
a(g526
I0
g506
tp534
a(g526
I0
g504
tp535
a(g526
I0
g504
tp536
a(g526
I0
g510
tp537
a(g526
I0
g506
tp538
a(g526
I0
g506
tp539
ag528
a(S'p3'
p540
I0
g510
tp541
a(g540
I0
g510
tp542
a(g540
I0
g506
tp543
a(g526
I0
g506
tp544
ag539
ag539
ag535
ag537
ag541
ag543
a(g540
I0
g510
tp545
ag543
a(g540
I0
g504
tp546
a(g540
F1.5707963267948966
g504
tp547
a(g540
F1.5707963267948966
g510
tp548
a(g540
F1.5707963267948966
g504
tp549
ag548
ag549
a(g540
F1.5707963267948966
g506
tp550
a(g540
F1.5707963267948966
g510
tp551
ag549
a(g540
I0
g504
tp552
a(g540
I0
g504
tp553
ag547
ag548
a(g540
F1.5707963267948966
g510
tp554
ag554
a(g540
F1.5707963267948966
g506
tp555
a(S'p4'
p556
F1.5707963267948966
g506
tp557
asS's'
p558
(lp559
(g503
I0
g22
tp560
ag505
ag507
ag505
ag507
ag508
ag508
ag505
ag509
ag507
ag511
ag512
ag513
ag505
ag507
ag513
ag508
ag511
ag512
ag511
ag512
ag505
ag509
ag514
ag507
ag505
ag515
ag516
ag512
ag505
ag507
ag511
ag518
ag519
ag520
ag521
ag522
ag521
ag523
ag524
ag525
ag527
ag528
ag529
ag521
ag530
ag505
ag514
ag515
ag512
ag511
ag531
ag515
ag512
ag505
ag507
ag505
ag509
ag515
ag518
ag521
ag522
ag519
ag532
ag520
ag521
ag523
ag520
ag521
ag530
ag505
ag507
ag505
ag514
ag515
ag516
ag512
ag505
ag515
ag531
ag507
ag508
ag511
ag512
ag513
ag505
ag507
ag511
ag512
ag511
ag518
ag521
ag523
ag525
ag522
ag533
ag533
ag519
ag525
ag522
ag519
ag524
ag525
ag530
ag505
ag515
ag512
ag505
ag515
ag518
ag533
ag521
ag527
ag534
ag535
ag536
ag537
ag538
ag539
ag528
ag541
ag542
ag543
ag544
ag539
ag539
ag535
ag537
ag541
ag543
ag545
ag543
ag546
ag547
ag548
ag549
ag548
ag549
ag550
ag551
ag549
ag552
ag553
ag547
ag548
ag554
ag554
ag555
asS'ui'
p561
(lp562
S'hp'
p563
ag563
aS'hs'
p564
ag563
ag563
ag563
ag501
ag501
ag501
ag563
aS'ss'
p565
ag563
ag501
ag564
ag563
ag501
ag565
ag501
ag565
ag564
ag563
ag501
ag564
ag563
ag563
ag564
ag564
ag564
ag564
ag564
ag563
ag564
ag563
ag563
ag564
ag563
ag564
ag565
ag565
ag563
ag565
ag563
ag565
ag565
ag565
ag563
ag563
ag564
ag564
ag563
ag565
ag565
ag564
ag501
ag563
ag563
ag563
ag564
ag565
ag564
ag563
ag564
ag565
ag563
ag564
ag565
ag564
ag501
ag565
ag564
ag564
ag563
ag501
ag564
ag565
ag565
ag564
ag565
ag563
ag563
ag501
ag563
ag564
ag563
ag563
ag563
ag563
ag565
ag563
ag565
ag564
ag563
ag563
ag565
ag565
ag563
ag563
ag563
ag563
ag565
ag501
ag563
ag501
ag564
ag563
ag564
ag564
ag563
ag565
ag565
ag565
ag501
ag563
ag563
ag563
ag564
ag564
ag501
ag563
ag565
ag563
ag563
ag564
ag563
ag563
ag563
ag564
ag565
ag564
ag565
ag501
ag564
ag501
ag501
ag501
ag564
ag564
ag563
ag565
ag565
ag563
ag565
ag563
ag563
ag564
ag563
ag564
ag565
asS'um_before'
p566
(lp567
g564
ag563
ag564
ag563
ag501
ag501
ag564
ag501
ag563
ag563
ag564
ag565
ag564
ag563
ag565
ag501
ag563
ag564
ag563
ag564
ag564
ag501
ag565
ag563
ag564
ag564
ag501
ag564
ag564
ag563
ag563
ag565
ag563
ag564
ag564
ag563
ag564
ag564
ag501
ag563
ag501
ag563
ag501
ag564
ag565
ag564
ag565
ag564
ag564
ag563
ag563
ag564
ag564
ag564
ag563
ag564
ag501
ag564
ag565
ag564
ag563
ag563
ag565
ag564
ag564
ag564
ag564
ag564
ag565
ag564
ag563
ag564
ag565
ag564
ag501
ag564
ag564
ag564
ag563
ag563
ag501
ag563
ag564
ag565
ag564
ag563
ag563
ag564
ag563
ag565
ag564
ag564
ag563
ag563
ag565
ag565
ag563
ag563
ag563
ag563
ag501
ag563
ag565
ag564
ag564
ag564
ag564
ag564
ag565
ag565
ag564
ag501
ag501
ag564
ag565
ag564
ag564
ag565
ag563
ag565
ag565
ag564
ag565
ag565
ag565
ag564
ag564
ag565
ag564
ag563
ag564
ag564
ag501
ag564
ag563
ag564
ag563
ag563
ag563
ag563
ag565
ag565
ag501
ag564
ag565
ag565
ag564
ag501
asS'um_after'
p568
(lp569
g564
ag563
ag564
ag563
ag501
ag501
ag564
ag501
ag563
ag563
ag564
ag565
ag564
ag563
ag565
ag501
ag563
ag564
ag563
ag564
ag564
ag501
ag565
ag563
ag564
ag564
ag501
ag564
ag564
ag563
ag563
ag565
ag563
ag564
ag564
ag563
ag564
ag564
ag501
ag563
ag501
ag563
ag501
ag564
ag565
ag564
ag565
ag564
ag564
ag563
ag563
ag564
ag564
ag564
ag563
ag564
ag501
ag564
ag565
ag564
ag563
ag563
ag565
ag564
ag564
ag564
ag564
ag564
ag565
ag564
ag563
ag564
ag565
ag564
ag501
ag564
ag564
ag564
ag563
ag563
ag501
ag563
ag564
ag565
ag564
ag563
ag563
ag564
ag563
ag565
ag564
ag564
ag563
ag563
ag565
ag565
ag563
ag563
ag563
ag563
ag501
ag563
ag565
ag564
ag564
ag564
ag564
ag564
ag565
ag565
ag564
ag501
ag501
ag564
ag565
ag564
ag564
ag565
ag563
ag565
ag565
ag564
ag565
ag565
ag565
ag564
ag564
ag565
ag564
ag563
ag564
ag564
ag501
ag564
ag563
ag564
ag563
ag563
ag563
ag563
ag565
ag565
ag501
ag564
ag565
ag565
ag564
ag501
asS'is_normalized_entropy_less_than_threshold'
p570
(lp571
g50
(g51
(S'b1'
p572
I0
I1
tp573
Rp574
(I3
S'|'
p575
NNNI-1
I-1
I0
tp576
bS'\x00'
p577
tp578
Rp579
ag579
ag579
ag579
ag579
ag579
ag579
ag579
ag579
ag50
(g574
S'\x01'
p580
tp581
Rp582
ag579
ag579
ag579
ag579
ag579
ag579
ag582
ag579
ag582
ag579
ag579
ag579
ag579
ag579
ag579
ag579
ag579
ag579
ag579
ag579
ag582
ag582
ag579
ag579
ag579
ag579
ag579
ag579
ag579
ag582
ag579
ag582
ag579
ag579
ag579
ag579
ag579
ag579
ag579
ag582
ag579
ag579
ag579
ag579
ag579
ag579
ag579
ag579
ag582
ag579
ag579
ag579
ag579
ag579
ag579
ag579
ag579
ag579
ag579
ag579
ag579
ag579
ag579
ag579
ag579
ag579
ag579
ag579
ag579
ag579
ag579
ag582
ag579
ag579
ag579
ag579
ag582
ag579
ag582
ag582
ag579
ag579
ag582
ag579
ag579
ag579
ag579
ag582
ag579
ag579
ag579
ag582
ag579
ag579
ag579
ag579
ag579
ag579
ag582
ag579
ag579
ag579
ag579
ag579
ag579
ag579
ag579
ag579
ag582
ag582
ag579
ag579
ag579
ag579
ag579
ag579
ag579
ag582
ag579
ag579
ag579
ag579
ag579
ag579
ag579
ag579
ag579
ag582
ag579
ag579
ag579
ag579
ag579
ag579
ag579
ag579
ag579
ag579
asaa(lp583
S'index'
p584
aI112754
aatp585
Rp586
.