ccollections
OrderedDict
p0
((lp1
(lp2
S'combination_dict'
p3
ag0
((lp4
(lp5
S'r_to_g_config'
p6
aS'tl'
p7
aa(lp8
S'num_turns'
p9
aI2
aa(lp10
S'start_direction'
p11
acutils_ms
StartDirection
p12
(I1
tp13
Rp14
aa(lp15
S'assistance_type'
p16
acutils_ms
AssistanceType
p17
(I1
tp18
Rp19
aa(lp20
S'start_mode'
p21
aS'x'
p22
aa(lp23
S'ui_given_a_noise'
p24
aF0.3
aa(lp25
S'um_given_ui_noise'
p26
aF0.1
aa(lp27
S'entropy_threshold'
p28
aF0.6
aatp29
Rp30
aa(lp31
S'data'
p32
accollections
defaultdict
p33
(c__builtin__
list
p34
tp35
Rp36
S'a'
p37
(lp38
S'mode_r'
p39
ag39
ag39
ag39
ag39
aS'move_p'
p40
ag39
ag40
aS'mode_l'
p41
ag39
ag40
ag39
aS'move_n'
p42
ag39
ag40
asS'assistance_match_with_ground_truth'
p43
(lp44
I00
aI00
aI00
aI00
aI01
aI01
aI01
aI00
aI00
aI01
aI01
aI01
aI01
aI01
aI01
asS'is_u_intended_equals_um'
p45
(lp46
I01
aI01
aI01
aI01
aI01
aI01
aI01
aI01
aI01
aI01
aI01
aI01
aI01
aI01
aI01
asS'total_steps'
p47
I15
sS'normalized_h_of_p_ui_given_um'
p48
(lp49
cnumpy.core.multiarray
scalar
p50
(cnumpy
dtype
p51
(S'f8'
p52
I0
I1
tp53
Rp54
(I3
S'<'
p55
NNNI-1
I-1
I0
tp56
bS'+\xec7\x89T\xb5\xdb?'
p57
tp58
Rp59
ag50
(g54
S'\x13\x12\xe82x\xa6\xde?'
p60
tp61
Rp62
ag50
(g54
S'+\xec7\x89T\xb5\xdb?'
p63
tp64
Rp65
ag50
(g54
S'\x13\x12\xe82x\xa6\xde?'
p66
tp67
Rp68
ag50
(g54
S'\xf5I\x00R0\xb1\xc3?'
p69
tp70
Rp71
ag50
(g54
S'F\xbb\x89@\x08\xae\xb2?'
p72
tp73
Rp74
ag50
(g54
S'\xf5I\x00R0\xb1\xc3?'
p75
tp76
Rp77
ag50
(g54
S'3\x18\t$z\xea\xe2?'
p78
tp79
Rp80
ag50
(g54
S'\x8f\xa8\xadM\x97?\xe7?'
p81
tp82
Rp83
ag50
(g54
S'\xf5I\x00R0\xb1\xc3?'
p84
tp85
Rp86
ag50
(g54
S'F\xbb\x89@\x08\xae\xb2?'
p87
tp88
Rp89
ag50
(g54
S'\xf5I\x00R0\xb1\xc3?'
p90
tp91
Rp92
ag50
(g54
S'\xd4z\xfe[\xccu\xb2?'
p93
tp94
Rp95
ag50
(g54
S'\xf5I\x00R0\xb1\xc3?'
p96
tp97
Rp98
ag50
(g54
S'F\xbb\x89@\x08\xae\xb2?'
p99
tp100
Rp101
asS'sp'
p102
(lp103
(S'p0'
p104
I0
S'x'
p105
tp106
a(g104
I0
g105
tp107
ag106
ag107
a(g104
I0
S'y'
p108
tp109
a(S'p1'
p110
I0
g108
tp111
a(g110
I0
S't'
p112
tp113
a(g110
I0
g105
tp114
a(g110
I0
g108
tp115
ag113
a(g110
F1.5707963267948966
g112
tp116
a(g110
F1.5707963267948966
g105
tp117
a(S'p2'
p118
F1.5707963267948966
g105
tp119
a(g118
F1.5707963267948966
g108
tp120
a(S'p3'
p121
F1.5707963267948966
g108
tp122
asS's'
p123
(lp124
(g104
I0
g22
tp125
ag106
ag107
ag106
ag107
ag109
ag111
ag113
ag114
ag115
ag113
ag116
ag117
ag119
ag120
asS'ui'
p126
(lp127
S'ss'
p128
ag102
ag128
ag102
aS'hp'
p129
ag102
ag129
ag129
ag129
ag129
ag102
ag129
ag128
ag129
ag102
asS'um_before'
p130
(lp131
g128
ag102
ag128
ag102
ag129
ag102
ag129
ag129
ag129
ag129
ag102
ag129
ag128
ag129
ag102
asS'um_after'
p132
(lp133
g128
ag102
ag128
ag102
ag129
ag102
ag129
ag129
ag129
ag129
ag102
ag129
ag128
ag129
ag102
asS'is_normalized_entropy_less_than_threshold'
p134
(lp135
g50
(g51
(S'b1'
p136
I0
I1
tp137
Rp138
(I3
S'|'
p139
NNNI-1
I-1
I0
tp140
bS'\x01'
p141
tp142
Rp143
ag143
ag143
ag143
ag143
ag143
ag143
ag143
ag50
(g138
S'\x00'
p144
tp145
Rp146
ag143
ag143
ag143
ag143
ag143
ag143
asaa(lp147
S'index'
p148
aI45019
aatp149
Rp150
.