ccollections
OrderedDict
p0
((lp1
(lp2
S'combination_dict'
p3
ag0
((lp4
(lp5
S'r_to_g_config'
p6
aS'bl'
p7
aa(lp8
S'num_turns'
p9
aI3
aa(lp10
S'start_direction'
p11
acutils_ms
StartDirection
p12
(I0
tp13
Rp14
aa(lp15
S'assistance_type'
p16
acutils_ms
AssistanceType
p17
(I0
tp18
Rp19
aa(lp20
S'start_mode'
p21
aS'y'
p22
aa(lp23
S'ui_given_a_noise'
p24
aF0.7
aa(lp25
S'um_given_ui_noise'
p26
aF0.5
aa(lp27
S'entropy_threshold'
p28
aF0.5
aatp29
Rp30
aa(lp31
S'data'
p32
accollections
defaultdict
p33
(c__builtin__
list
p34
tp35
Rp36
S'a'
p37
(lp38
S'mode_l'
p39
aS'mode_r'
p40
ag40
aS'move_n'
p41
ag40
ag40
ag40
ag40
ag40
ag40
ag41
ag41
ag41
ag39
ag39
ag39
ag39
ag39
ag41
ag40
ag40
ag40
ag41
ag40
ag40
ag41
ag39
ag40
ag41
ag39
aS'move_p'
p42
ag39
ag41
asS'assistance_match_with_ground_truth'
p43
(lp44
I00
aI00
aI01
aI00
aI00
aI00
aI00
aI00
aI00
aI01
aI00
aI00
aI00
aI00
aI00
aI00
aI00
aI01
aI00
aI00
aI00
aI01
aI01
aI00
aI01
aI01
aI00
aI01
aI01
aI01
aI01
aI01
aI01
asS'is_u_intended_equals_um'
p45
(lp46
I01
aI01
aI01
aI00
aI01
aI01
aI01
aI01
aI01
aI01
aI01
aI01
aI00
aI01
aI01
aI01
aI01
aI01
aI00
aI01
aI01
aI01
aI01
aI01
aI01
aI01
aI01
aI01
aI01
aI01
aI01
aI01
aI01
asS'total_steps'
p47
I33
sS'normalized_h_of_p_ui_given_um'
p48
(lp49
cnumpy.core.multiarray
scalar
p50
(cnumpy
dtype
p51
(S'f8'
p52
I0
I1
tp53
Rp54
(I3
S'<'
p55
NNNI-1
I-1
I0
tp56
bS'\x8c<\x99eM\xf1\xe9?'
p57
tp58
Rp59
ag50
(g54
S'\xc8\xbf\x83\xbf\x84\xd2\xe8?'
p60
tp61
Rp62
ag50
(g54
S'\xa0\x0c!\x95$_\xe3?'
p63
tp64
Rp65
ag50
(g54
S'De\xba\xd2o\xbb\xe0?'
p66
tp67
Rp68
ag50
(g54
S'\xd3\xb7\xa2L\xc2\xd6\xea?'
p69
tp70
Rp71
ag50
(g54
S'\xc8\xbf\x83\xbf\x84\xd2\xe8?'
p72
tp73
Rp74
ag50
(g54
S'\xc8\xbf\x83\xbf\x84\xd2\xe8?'
p75
tp76
Rp77
ag50
(g54
S'\xc8\xbf\x83\xbf\x84\xd2\xe8?'
p78
tp79
Rp80
ag50
(g54
S'\xd3\xb7\xa2L\xc2\xd6\xea?'
p81
tp82
Rp83
ag50
(g54
S'\xa0\x0c!\x95$_\xe3?'
p84
tp85
Rp86
ag50
(g54
S'\x18/\xc6\t$\xda\xe2?'
p87
tp88
Rp89
ag50
(g54
S'\x18/\xc6\t$\xda\xe2?'
p90
tp91
Rp92
ag50
(g54
S'\xfb\x94\xa2\x02\t\x00\xe7?'
p93
tp94
Rp95
ag50
(g54
S'v]\x12AM\xa7\xeb?'
p96
tp97
Rp98
ag50
(g54
S'v]\x12AM\xa7\xeb?'
p99
tp100
Rp101
ag50
(g54
S'T\xc6?N\x11b\xef?'
p102
tp103
Rp104
ag50
(g54
S'v]\x12AM\xa7\xeb?'
p105
tp106
Rp107
ag50
(g54
S'\x8c\x0743\x9b\xc5\xe1?'
p108
tp109
Rp110
ag50
(g54
S'De\xba\xd2o\xbb\xe0?'
p111
tp112
Rp113
ag50
(g54
S'\xc8\xbf\x83\xbf\x84\xd2\xe8?'
p114
tp115
Rp116
ag50
(g54
S'\xc8\xbf\x83\xbf\x84\xd2\xe8?'
p117
tp118
Rp119
ag50
(g54
S'\xa0\x0c!\x95$_\xe3?'
p120
tp121
Rp122
ag50
(g54
S'REW\x1a\xd0?\xd8?'
p123
tp124
Rp125
ag50
(g54
S'\xd3\xb7\xa2L\xc2\xd6\xea?'
p126
tp127
Rp128
ag50
(g54
S'\xa0\x0c!\x95$_\xe3?'
p129
tp130
Rp131
ag50
(g54
S'REW\x1a\xd0?\xd8?'
p132
tp133
Rp134
ag50
(g54
S'\x8c<\x99eM\xf1\xe9?'
p135
tp136
Rp137
ag50
(g54
S'\xa0\x0c!\x95$_\xe3?'
p138
tp139
Rp140
ag50
(g54
S'REW\x1a\xd0?\xd8?'
p141
tp142
Rp143
ag50
(g54
S'\x8c\x0743\x9b\xc5\xe1?'
p144
tp145
Rp146
ag50
(g54
S'K8C\xeb\xbb\x8b\xe6?'
p147
tp148
Rp149
ag50
(g54
S'\x8c\x0743\x9b\xc5\xe1?'
p150
tp151
Rp152
ag50
(g54
S'REW\x1a\xd0?\xd8?'
p153
tp154
Rp155
asS'sp'
p156
(lp157
(S'p0'
p158
I0
S't'
p159
tp160
a(g158
I0
g159
tp161
a(g158
I0
S'x'
p162
tp163
a(g158
I0
g159
tp164
a(g158
I0
g159
tp165
ag161
ag161
ag161
ag165
ag163
a(g158
I0
g162
tp166
ag166
a(g158
I0
S'y'
p167
tp168
a(g158
I0
g167
tp169
ag169
a(g158
I0
g167
tp170
ag169
a(g158
I0
g162
tp171
ag164
ag161
ag161
ag163
a(S'p1'
p172
I0
g162
tp173
a(g172
I0
g162
tp174
a(g172
I0
g167
tp175
a(S'p2'
p176
I0
g167
tp177
a(g176
I0
g159
tp178
a(g176
I0
g162
tp179
a(S'p3'
p180
I0
g162
tp181
a(g180
I0
g159
tp182
a(g180
F1.5707963267948966
g159
tp183
a(g180
F1.5707963267948966
g167
tp184
a(S'p4'
p185
F1.5707963267948966
g167
tp186
asS's'
p187
(lp188
(g158
I0
g22
tp189
ag160
ag161
ag163
ag164
ag165
ag161
ag161
ag161
ag165
ag163
ag166
ag166
ag168
ag169
ag169
ag170
ag169
ag171
ag164
ag161
ag161
ag163
ag173
ag174
ag175
ag177
ag178
ag179
ag181
ag182
ag183
ag184
asS'ui'
p190
(lp191
S'ss'
p192
aS'hp'
p193
ag193
ag156
ag193
ag193
ag192
ag193
aS'hs'
p194
ag156
ag192
ag156
ag192
ag156
ag156
ag192
ag156
ag194
ag192
ag193
ag156
ag193
ag192
ag156
ag193
ag192
ag193
ag192
ag192
ag156
ag156
ag194
ag156
asS'um_before'
p195
(lp196
g193
ag192
ag193
ag194
ag156
ag192
ag192
ag192
ag156
ag193
ag156
ag156
ag193
ag156
ag156
ag192
ag156
ag194
ag194
ag192
ag192
ag193
ag192
ag156
ag193
ag192
ag193
ag193
ag192
ag194
ag156
ag194
ag192
asS'um_after'
p197
(lp198
g193
ag192
ag193
ag194
ag156
ag192
ag192
ag192
ag156
ag193
ag156
ag156
ag193
ag156
ag156
ag192
ag156
ag194
ag194
ag192
ag192
ag193
ag192
ag156
ag193
ag192
ag193
ag193
ag192
ag194
ag156
ag194
ag192
asS'is_normalized_entropy_less_than_threshold'
p199
(lp200
g50
(g51
(S'b1'
p201
I0
I1
tp202
Rp203
(I3
S'|'
p204
NNNI-1
I-1
I0
tp205
bS'\x00'
p206
tp207
Rp208
ag208
ag208
ag208
ag208
ag208
ag208
ag208
ag208
ag208
ag208
ag208
ag208
ag208
ag208
ag208
ag208
ag208
ag208
ag208
ag208
ag208
ag50
(g203
S'\x01'
p209
tp210
Rp211
ag208
ag208
ag211
ag208
ag208
ag211
ag208
ag208
ag208
ag211
asaa(lp212
S'index'
p213
aI78302
aatp214
Rp215
.