ccollections
OrderedDict
p0
((lp1
(lp2
S'combination_dict'
p3
ag0
((lp4
(lp5
S'r_to_g_config'
p6
aS'tr'
p7
aa(lp8
S'num_turns'
p9
aI3
aa(lp10
S'start_direction'
p11
acutils_ms
StartDirection
p12
(I0
tp13
Rp14
aa(lp15
S'assistance_type'
p16
acutils_ms
AssistanceType
p17
(I1
tp18
Rp19
aa(lp20
S'start_mode'
p21
aS't'
p22
aa(lp23
S'ui_given_a_noise'
p24
aF0.5
aa(lp25
S'um_given_ui_noise'
p26
aF0.3
aa(lp27
S'entropy_threshold'
p28
aF0.6
aatp29
Rp30
aa(lp31
S'data'
p32
accollections
defaultdict
p33
(c__builtin__
list
p34
tp35
Rp36
S'a'
p37
(lp38
S'mode_r'
p39
aS'move_p'
p40
aS'mode_l'
p41
ag41
ag40
ag41
ag41
ag41
ag40
ag41
ag40
ag40
ag41
ag40
ag41
ag40
ag39
ag39
ag39
ag41
ag40
ag41
ag41
ag41
ag40
ag39
ag40
ag41
ag41
ag39
ag41
ag40
ag39
ag41
ag40
asS'assistance_match_with_ground_truth'
p42
(lp43
I01
aI01
aI00
aI01
aI01
aI00
aI00
aI01
aI00
aI01
aI00
aI00
aI01
aI00
aI01
aI01
aI00
aI00
aI00
aI01
aI01
aI00
aI00
aI01
aI00
aI01
aI01
aI00
aI00
aI00
aI01
aI01
aI00
aI01
aI01
asS'is_u_intended_equals_um'
p44
(lp45
I01
aI01
aI01
aI01
aI01
aI01
aI01
aI01
aI01
aI01
aI01
aI00
aI01
aI00
aI01
aI01
aI01
aI01
aI01
aI01
aI01
aI01
aI01
aI01
aI01
aI01
aI01
aI01
aI00
aI01
aI01
aI01
aI01
aI01
aI01
asS'total_steps'
p46
I35
sS'normalized_h_of_p_ui_given_um'
p47
(lp48
cnumpy.core.multiarray
scalar
p49
(cnumpy
dtype
p50
(S'f8'
p51
I0
I1
tp52
Rp53
(I3
S'<'
p54
NNNI-1
I-1
I0
tp55
bS'E* \xde\x84*\xd7?'
p56
tp57
Rp58
ag49
(g53
S'\x1d\x82\xff\x7fn\xb7\xd7?'
p59
tp60
Rp61
ag49
(g53
S'j?\xb9\x14\xae\xfd\xea?'
p62
tp63
Rp64
ag49
(g53
S'\xd7\x9aX*\x8d>\xd2?'
p65
tp66
Rp67
ag49
(g53
S'\x1d\x82\xff\x7fn\xb7\xd7?'
p68
tp69
Rp70
ag49
(g53
S'\xd2c6{O\xcf\xe4?'
p71
tp72
Rp73
ag49
(g53
S'\xd2c6{O\xcf\xe4?'
p74
tp75
Rp76
ag49
(g53
S'\xd7\x9aX*\x8d>\xd2?'
p77
tp78
Rp79
ag49
(g53
S'\xac\xd3\x19\xc5\x92\x84\xe4?'
p80
tp81
Rp82
ag49
(g53
S'\xd7\x9aX*\x8d>\xd2?'
p83
tp84
Rp85
ag49
(g53
S'\xac\xd3\x19\xc5\x92\x84\xe4?'
p86
tp87
Rp88
ag49
(g53
S'77\xc8\\5\xaf\xe8?'
p89
tp90
Rp91
ag49
(g53
S'\xd7\x9aX*\x8d>\xd2?'
p92
tp93
Rp94
ag49
(g53
S'77\xc8\\5\xaf\xe8?'
p95
tp96
Rp97
ag49
(g53
S'\xd7\x9aX*\x8d>\xd2?'
p98
tp99
Rp100
ag49
(g53
S'\x1d\x82\xff\x7fn\xb7\xd7?'
p101
tp102
Rp103
ag49
(g53
S'\xbe\xc0P\x9d\x85\xb8\xe9?'
p104
tp105
Rp106
ag49
(g53
S'\xbe\xc0P\x9d\x85\xb8\xe9?'
p107
tp108
Rp109
ag49
(g53
S'D\x05a\xf9\xde\xf5\xe7?'
p110
tp111
Rp112
ag49
(g53
S'\xd7\x9aX*\x8d>\xd2?'
p113
tp114
Rp115
ag49
(g53
S'\x1d\x82\xff\x7fn\xb7\xd7?'
p116
tp117
Rp118
ag49
(g53
S'j?\xb9\x14\xae\xfd\xea?'
p119
tp120
Rp121
ag49
(g53
S'\xd2c6{O\xcf\xe4?'
p122
tp123
Rp124
ag49
(g53
S'\xd7\x9aX*\x8d>\xd2?'
p125
tp126
Rp127
ag49
(g53
S'\xac\xd3\x19\xc5\x92\x84\xe4?'
p128
tp129
Rp130
ag49
(g53
S'E* \xde\x84*\xd7?'
p131
tp132
Rp133
ag49
(g53
S'\x1d\x82\xff\x7fn\xb7\xd7?'
p134
tp135
Rp136
ag49
(g53
S'\xd2c6{O\xcf\xe4?'
p137
tp138
Rp139
ag49
(g53
S'\xcc\xf1\xa5CG\x9a\xe6?'
p140
tp141
Rp142
ag49
(g53
S'D\x05a\xf9\xde\xf5\xe7?'
p143
tp144
Rp145
ag49
(g53
S'\xd7\x9aX*\x8d>\xd2?'
p146
tp147
Rp148
ag49
(g53
S'\x1d\x82\xff\x7fn\xb7\xd7?'
p149
tp150
Rp151
ag49
(g53
S'D\x05a\xf9\xde\xf5\xe7?'
p152
tp153
Rp154
ag49
(g53
S'\xd7\x9aX*\x8d>\xd2?'
p155
tp156
Rp157
ag49
(g53
S'\x1d\x82\xff\x7fn\xb7\xd7?'
p158
tp159
Rp160
asS'sp'
p161
(lp162
(S'p0'
p163
I0
S'x'
p164
tp165
a(S'p1'
p166
I0
g164
tp167
a(g166
I0
g164
tp168
a(g166
I0
S't'
p169
tp170
a(g166
F1.5707963267948966
g169
tp171
a(g166
F1.5707963267948966
g169
tp172
ag172
a(g166
F1.5707963267948966
S'y'
p173
tp174
a(g163
F1.5707963267948966
g173
tp175
a(g163
F1.5707963267948966
g164
tp176
a(g163
F1.5707963267948966
g164
tp177
a(g163
F1.5707963267948966
g173
tp178
ag176
ag178
ag176
a(g166
F1.5707963267948966
g164
tp179
a(g166
F1.5707963267948966
g164
tp180
ag180
a(g166
F1.5707963267948966
g169
tp181
ag174
a(S'p2'
p182
F1.5707963267948966
g173
tp183
a(g182
F1.5707963267948966
g173
tp184
a(g182
F1.5707963267948966
g173
tp185
a(g182
F1.5707963267948966
g164
tp186
a(g166
F1.5707963267948966
g164
tp187
a(g166
F1.5707963267948966
g173
tp188
ag183
ag185
a(g182
F1.5707963267948966
g169
tp189
a(g182
F1.5707963267948966
g173
tp190
ag186
a(S'p3'
p191
F1.5707963267948966
g164
tp192
a(g191
F1.5707963267948966
g169
tp193
a(g191
F1.5707963267948966
g173
tp194
a(S'p4'
p195
F1.5707963267948966
g173
tp196
asS's'
p197
(lp198
(g163
I0
g22
tp199
ag165
ag167
ag168
ag170
ag171
ag172
ag172
ag174
ag175
ag176
ag177
ag178
ag176
ag178
ag176
ag179
ag180
ag180
ag181
ag174
ag183
ag184
ag185
ag186
ag187
ag188
ag183
ag185
ag189
ag190
ag186
ag192
ag193
ag194
asS'ui'
p200
(lp201
S'hp'
p202
ag161
ag202
ag202
ag161
aS'ss'
p203
ag203
aS'hs'
p204
ag204
ag204
ag204
ag202
ag204
ag161
ag204
ag161
ag202
ag203
ag204
ag204
ag161
ag203
ag161
ag161
ag161
ag202
ag161
ag204
ag204
ag204
ag204
ag203
ag202
ag204
ag161
asS'um_before'
p205
(lp206
g202
ag161
ag203
ag204
ag161
ag161
ag161
ag204
ag203
ag204
ag203
ag202
ag204
ag202
ag204
ag161
ag203
ag203
ag204
ag204
ag161
ag203
ag161
ag204
ag203
ag202
ag161
ag161
ag202
ag204
ag204
ag161
ag204
ag204
ag161
asS'um_after'
p207
(lp208
g202
ag161
ag203
ag204
ag161
ag161
ag161
ag204
ag203
ag204
ag203
ag202
ag204
ag202
ag204
ag161
ag203
ag203
ag204
ag204
ag161
ag203
ag161
ag204
ag203
ag202
ag161
ag161
ag202
ag204
ag204
ag161
ag204
ag204
ag161
asS'is_normalized_entropy_less_than_threshold'
p209
(lp210
g49
(g50
(S'b1'
p211
I0
I1
tp212
Rp213
(I3
S'|'
p214
NNNI-1
I-1
I0
tp215
bS'\x01'
p216
tp217
Rp218
ag218
ag49
(g213
S'\x00'
p219
tp220
Rp221
ag218
ag218
ag221
ag221
ag218
ag221
ag218
ag221
ag221
ag218
ag221
ag218
ag218
ag221
ag221
ag221
ag218
ag218
ag221
ag221
ag218
ag221
ag218
ag218
ag221
ag221
ag221
ag218
ag218
ag221
ag218
ag218
asaa(lp222
S'index'
p223
aI21268
aatp224
Rp225
.