ccollections
OrderedDict
p0
((lp1
(lp2
S'combination_dict'
p3
ag0
((lp4
(lp5
S'r_to_g_config'
p6
aS'tl'
p7
aa(lp8
S'num_turns'
p9
aI3
aa(lp10
S'start_direction'
p11
acutils_ms
StartDirection
p12
(I0
tp13
Rp14
aa(lp15
S'assistance_type'
p16
acutils_ms
AssistanceType
p17
(I1
tp18
Rp19
aa(lp20
S'start_mode'
p21
aS'y'
p22
aa(lp23
S'ui_given_a_noise'
p24
aF0.7
aa(lp25
S'um_given_ui_noise'
p26
aF0.7
aa(lp27
S'entropy_threshold'
p28
aF0.6
aatp29
Rp30
aa(lp31
S'data'
p32
accollections
defaultdict
p33
(c__builtin__
list
p34
tp35
Rp36
S'a'
p37
(lp38
S'mode_l'
p39
aS'move_n'
p40
ag39
ag39
aS'mode_r'
p41
ag40
ag41
ag41
ag40
ag41
ag41
ag41
ag40
ag39
ag41
ag39
ag41
ag41
ag40
ag39
aS'move_p'
p42
ag42
ag42
ag42
ag39
ag42
ag39
ag42
ag41
ag41
ag41
ag42
ag39
ag41
ag39
ag41
ag41
ag42
ag39
ag40
ag41
ag41
ag42
ag39
ag40
ag40
ag39
ag40
ag41
ag39
ag40
ag41
ag41
ag41
ag41
ag40
ag39
ag40
ag41
ag41
ag41
ag42
ag39
ag40
ag41
ag41
ag41
ag41
ag42
asS'assistance_match_with_ground_truth'
p43
(lp44
I01
aI00
aI00
aI00
aI01
aI00
aI00
aI01
aI00
aI00
aI00
aI01
aI01
aI00
aI00
aI00
aI00
aI01
aI01
aI01
aI00
aI00
aI00
aI00
aI01
aI01
aI01
aI00
aI00
aI00
aI01
aI00
aI00
aI00
aI00
aI00
aI01
aI00
aI01
aI01
aI00
aI01
aI00
aI01
aI00
aI00
aI01
aI00
aI00
aI01
aI00
aI00
aI00
aI00
aI01
aI00
aI01
aI01
aI00
aI00
aI01
aI01
aI01
aI01
aI00
aI00
aI00
aI01
aI01
asS'is_u_intended_equals_um'
p45
(lp46
I01
aI01
aI00
aI01
aI01
aI01
aI00
aI01
aI01
aI01
aI00
aI01
aI01
aI01
aI00
aI01
aI01
aI01
aI01
aI01
aI01
aI01
aI01
aI01
aI01
aI01
aI01
aI01
aI01
aI00
aI01
aI01
aI01
aI00
aI01
aI01
aI01
aI01
aI01
aI01
aI00
aI01
aI01
aI01
aI01
aI01
aI01
aI01
aI00
aI01
aI01
aI00
aI00
aI00
aI01
aI01
aI01
aI01
aI00
aI00
aI01
aI01
aI01
aI01
aI01
aI00
aI00
aI01
aI01
asS'total_steps'
p47
I69
sS'normalized_h_of_p_ui_given_um'
p48
(lp49
cnumpy.core.multiarray
scalar
p50
(cnumpy
dtype
p51
(S'f8'
p52
I0
I1
tp53
Rp54
(I3
S'<'
p55
NNNI-1
I-1
I0
tp56
bS'\xd35!\xe1\x1e\n\xe7?'
p57
tp58
Rp59
ag50
(g54
S'\xae<\x868\xe8\x89\xed?'
p60
tp61
Rp62
ag50
(g54
S'\xc0\x0f\x83\xca\x7f\xd6\xe5?'
p63
tp64
Rp65
ag50
(g54
S'0,1\x03\xa4\xbb\xed?'
p66
tp67
Rp68
ag50
(g54
S'R\xe8\xeaX\xe4\xd2\xe4?'
p69
tp70
Rp71
ag50
(g54
S'xu\xef\t1T\xef?'
p72
tp73
Rp74
ag50
(g54
S'\xa4[\xe8#\xf9\xbf\xe7?'
p75
tp76
Rp77
ag50
(g54
S'R\xe8\xeaX\xe4\xd2\xe4?'
p78
tp79
Rp80
ag50
(g54
S'xu\xef\t1T\xef?'
p81
tp82
Rp83
ag50
(g54
S'%A\xadj\xa9\xae\xe9?'
p84
tp85
Rp86
ag50
(g54
S'\xa4[\xe8#\xf9\xbf\xe7?'
p87
tp88
Rp89
ag50
(g54
S'R\xe8\xeaX\xe4\xd2\xe4?'
p90
tp91
Rp92
ag50
(g54
S'\xdc\xf9H\xb0\xcd\xea\xe6?'
p93
tp94
Rp95
ag50
(g54
S'0,1\x03\xa4\xbb\xed?'
p96
tp97
Rp98
ag50
(g54
S'\xa4[\xe8#\xf9\xbf\xe7?'
p99
tp100
Rp101
ag50
(g54
S'0,1\x03\xa4\xbb\xed?'
p102
tp103
Rp104
ag50
(g54
S'%A\xadj\xa9\xae\xe9?'
p105
tp106
Rp107
ag50
(g54
S'R\xe8\xeaX\xe4\xd2\xe4?'
p108
tp109
Rp110
ag50
(g54
S'\xdc\xf9H\xb0\xcd\xea\xe6?'
p111
tp112
Rp113
ag50
(g54
S'\xd35!\xe1\x1e\n\xe7?'
p114
tp115
Rp116
ag50
(g54
S'@\xa4\x8e\x84#\x08\xed?'
p117
tp118
Rp119
ag50
(g54
S'@\xa4\x8e\x84#\x08\xed?'
p120
tp121
Rp122
ag50
(g54
S'@\xa4\x8e\x84#\x08\xed?'
p123
tp124
Rp125
ag50
(g54
S'v\xe3V\xd5\xfe4\xed?'
p126
tp127
Rp128
ag50
(g54
S'\xd35!\xe1\x1e\n\xe7?'
p129
tp130
Rp131
ag50
(g54
S'\xdeF\xd4T\x15\xd1\xe4?'
p132
tp133
Rp134
ag50
(g54
S'\xd35!\xe1\x1e\n\xe7?'
p135
tp136
Rp137
ag50
(g54
S'\xc82\xd7\xe7\x92m\xed?'
p138
tp139
Rp140
ag50
(g54
S'%A\xadj\xa9\xae\xe9?'
p141
tp142
Rp143
ag50
(g54
S'\xa4[\xe8#\xf9\xbf\xe7?'
p144
tp145
Rp146
ag50
(g54
S'R\xe8\xeaX\xe4\xd2\xe4?'
p147
tp148
Rp149
ag50
(g54
S'v\xe3V\xd5\xfe4\xed?'
p150
tp151
Rp152
ag50
(g54
S'0,1\x03\xa4\xbb\xed?'
p153
tp154
Rp155
ag50
(g54
S'\xfb\x96A\xd0\x00\xa9\xec?'
p156
tp157
Rp158
ag50
(g54
S'0,1\x03\xa4\xbb\xed?'
p159
tp160
Rp161
ag50
(g54
S'%A\xadj\xa9\xae\xe9?'
p162
tp163
Rp164
ag50
(g54
S'R\xe8\xeaX\xe4\xd2\xe4?'
p165
tp166
Rp167
ag50
(g54
S'@\xa4\x8e\x84#\x08\xed?'
p168
tp169
Rp170
ag50
(g54
S'\xd35!\xe1\x1e\n\xe7?'
p171
tp172
Rp173
ag50
(g54
S'\xdc\xf9H\xb0\xcd\xea\xe6?'
p174
tp175
Rp176
ag50
(g54
S'\xa4[\xe8#\xf9\xbf\xe7?'
p177
tp178
Rp179
ag50
(g54
S'R\xe8\xeaX\xe4\xd2\xe4?'
p180
tp181
Rp182
ag50
(g54
S'@\xa4\x8e\x84#\x08\xed?'
p183
tp184
Rp185
ag50
(g54
S'\xd35!\xe1\x1e\n\xe7?'
p186
tp187
Rp188
ag50
(g54
S'\x12es\xf3\xce\xd9\xea?'
p189
tp190
Rp191
ag50
(g54
S'\xae<\x868\xe8\x89\xed?'
p192
tp193
Rp194
ag50
(g54
S'\xd35!\xe1\x1e\n\xe7?'
p195
tp196
Rp197
ag50
(g54
S'xu\xef\t1T\xef?'
p198
tp199
Rp200
ag50
(g54
S'\xfb\x96A\xd0\x00\xa9\xec?'
p201
tp202
Rp203
ag50
(g54
S'\xd35!\xe1\x1e\n\xe7?'
p204
tp205
Rp206
ag50
(g54
S'xu\xef\t1T\xef?'
p207
tp208
Rp209
ag50
(g54
S'\xa4[\xe8#\xf9\xbf\xe7?'
p210
tp211
Rp212
ag50
(g54
S'\xa4[\xe8#\xf9\xbf\xe7?'
p213
tp214
Rp215
ag50
(g54
S'\xa4[\xe8#\xf9\xbf\xe7?'
p216
tp217
Rp218
ag50
(g54
S'R\xe8\xeaX\xe4\xd2\xe4?'
p219
tp220
Rp221
ag50
(g54
S'\xae<\x868\xe8\x89\xed?'
p222
tp223
Rp224
ag50
(g54
S'\xd35!\xe1\x1e\n\xe7?'
p225
tp226
Rp227
ag50
(g54
S'\xdc\xf9H\xb0\xcd\xea\xe6?'
p228
tp229
Rp230
ag50
(g54
S'\xa4[\xe8#\xf9\xbf\xe7?'
p231
tp232
Rp233
ag50
(g54
S'\xa4[\xe8#\xf9\xbf\xe7?'
p234
tp235
Rp236
ag50
(g54
S'R\xe8\xeaX\xe4\xd2\xe4?'
p237
tp238
Rp239
ag50
(g54
S'\xdeF\xd4T\x15\xd1\xe4?'
p240
tp241
Rp242
ag50
(g54
S'\xd35!\xe1\x1e\n\xe7?'
p243
tp244
Rp245
ag50
(g54
S'\xdc\xf9H\xb0\xcd\xea\xe6?'
p246
tp247
Rp248
ag50
(g54
S'%A\xadj\xa9\xae\xe9?'
p249
tp250
Rp251
ag50
(g54
S'\xa4[\xe8#\xf9\xbf\xe7?'
p252
tp253
Rp254
ag50
(g54
S'\xa4[\xe8#\xf9\xbf\xe7?'
p255
tp256
Rp257
ag50
(g54
S'R\xe8\xeaX\xe4\xd2\xe4?'
p258
tp259
Rp260
ag50
(g54
S'\xdeF\xd4T\x15\xd1\xe4?'
p261
tp262
Rp263
asS'sp'
p264
(lp265
(S'p0'
p266
I0
S'x'
p267
tp268
a(g266
I0
S'y'
p269
tp270
a(g266
I0
g269
tp271
a(g266
I0
S't'
p272
tp273
a(g266
I0
g267
tp274
a(g266
I0
g272
tp275
a(g266
I0
g272
tp276
ag274
ag275
a(g266
I0
g272
tp277
ag276
ag274
a(S'p1'
p278
I0
g267
tp279
a(g278
I0
g269
tp280
a(g266
I0
g269
tp281
ag273
ag277
ag274
ag279
a(g278
I0
g272
tp282
a(g278
I0
g272
tp283
ag283
ag283
a(g278
I0
g267
tp284
ag282
a(g278
F1.5707963267948966
g272
tp285
a(g278
F1.5707963267948966
g269
tp286
a(g278
F1.5707963267948966
g267
tp287
a(g278
F1.5707963267948966
g267
tp288
a(g278
F1.5707963267948966
g267
tp289
a(g278
F1.5707963267948966
g269
tp290
a(g278
F1.5707963267948966
g272
tp291
a(g278
F1.5707963267948966
g267
tp292
a(g278
F1.5707963267948966
g272
tp293
ag292
ag288
ag290
a(g266
F1.5707963267948966
g269
tp294
a(g266
F1.5707963267948966
g267
tp295
a(g278
F1.5707963267948966
g267
tp296
ag289
ag290
ag294
ag295
a(g266
F1.5707963267948966
g267
tp297
a(g266
F1.5707963267948966
g269
tp298
ag295
a(g266
F1.5707963267948966
g272
tp299
a(g266
F1.5707963267948966
g269
tp300
ag295
ag299
a(g266
F1.5707963267948966
g272
tp301
ag301
ag301
a(g266
F1.5707963267948966
g267
tp302
ag298
ag295
ag296
ag289
ag289
ag290
a(S'p2'
p303
F1.5707963267948966
g269
tp304
a(g303
F1.5707963267948966
g267
tp305
a(S'p3'
p306
F1.5707963267948966
g267
tp307
a(g306
F1.5707963267948966
g267
tp308
a(g306
F1.5707963267948966
g267
tp309
ag309
a(g306
F1.5707963267948966
g269
tp310
a(S'p4'
p311
F1.5707963267948966
g269
tp312
asS's'
p313
(lp314
(g266
I0
g22
tp315
ag268
ag270
ag271
ag273
ag274
ag275
ag276
ag274
ag275
ag277
ag276
ag274
ag279
ag280
ag281
ag273
ag277
ag274
ag279
ag282
ag283
ag283
ag283
ag284
ag282
ag285
ag286
ag287
ag288
ag289
ag290
ag291
ag292
ag293
ag292
ag288
ag290
ag294
ag295
ag296
ag289
ag290
ag294
ag295
ag297
ag298
ag295
ag299
ag300
ag295
ag299
ag301
ag301
ag301
ag302
ag298
ag295
ag296
ag289
ag289
ag290
ag304
ag305
ag307
ag308
ag309
ag309
ag310
asS'ui'
p316
(lp317
S'hs'
p318
ag264
ag318
aS'hp'
p319
ag318
ag318
ag319
ag319
ag264
ag264
ag319
ag319
aS'ss'
p320
ag319
ag319
ag319
ag319
ag319
ag320
ag318
ag319
ag320
ag319
ag264
ag319
ag264
ag264
ag319
ag264
ag320
ag319
ag319
ag318
ag264
ag319
ag318
ag264
ag320
ag320
ag320
ag264
ag319
ag264
ag318
ag320
ag320
ag318
ag264
ag319
ag318
ag318
ag319
ag319
ag319
ag319
ag264
ag318
ag319
ag319
ag264
ag319
ag264
ag318
ag320
ag264
ag319
ag320
ag319
ag264
asS'um_before'
p321
(lp322
g318
ag319
ag264
ag319
ag319
ag318
ag320
ag319
ag318
ag264
ag320
ag319
ag320
ag319
ag320
ag319
ag264
ag319
ag320
ag318
ag320
ag320
ag320
ag319
ag318
ag264
ag318
ag318
ag264
ag320
ag319
ag319
ag319
ag318
ag319
ag264
ag319
ag320
ag318
ag320
ag320
ag319
ag320
ag318
ag264
ag319
ag318
ag318
ag318
ag318
ag318
ag320
ag320
ag320
ag319
ag319
ag318
ag320
ag320
ag320
ag319
ag264
ag318
ag320
ag264
ag320
ag320
ag319
ag264
asS'um_after'
p323
(lp324
g318
ag319
ag264
ag319
ag319
ag318
ag320
ag319
ag318
ag264
ag320
ag319
ag320
ag319
ag320
ag319
ag264
ag319
ag320
ag318
ag320
ag320
ag320
ag319
ag318
ag264
ag318
ag318
ag264
ag320
ag319
ag319
ag319
ag318
ag319
ag264
ag319
ag320
ag318
ag320
ag320
ag319
ag320
ag318
ag264
ag319
ag318
ag318
ag318
ag318
ag318
ag320
ag320
ag320
ag319
ag319
ag318
ag320
ag320
ag320
ag319
ag264
ag318
ag320
ag264
ag320
ag320
ag319
ag264
asS'is_normalized_entropy_less_than_threshold'
p325
(lp326
g50
(g51
(S'b1'
p327
I0
I1
tp328
Rp329
(I3
S'|'
p330
NNNI-1
I-1
I0
tp331
bS'\x00'
p332
tp333
Rp334
ag334
ag334
ag334
ag334
ag334
ag334
ag334
ag334
ag334
ag334
ag334
ag334
ag334
ag334
ag334
ag334
ag334
ag334
ag334
ag334
ag334
ag334
ag334
ag334
ag334
ag334
ag334
ag334
ag334
ag334
ag334
ag334
ag334
ag334
ag334
ag334
ag334
ag334
ag334
ag334
ag334
ag334
ag334
ag334
ag334
ag334
ag334
ag334
ag334
ag334
ag334
ag334
ag334
ag334
ag334
ag334
ag334
ag334
ag334
ag334
ag334
ag334
ag334
ag334
ag334
ag334
ag334
ag334
asaa(lp335
S'index'
p336
aI51162
aatp337
Rp338
.