ccollections
OrderedDict
p0
((lp1
(lp2
S'combination_dict'
p3
ag0
((lp4
(lp5
S'r_to_g_config'
p6
aS'tl'
p7
aa(lp8
S'num_turns'
p9
aI2
aa(lp10
S'start_direction'
p11
acutils_ms
StartDirection
p12
(I1
tp13
Rp14
aa(lp15
S'assistance_type'
p16
acutils_ms
AssistanceType
p17
(I1
tp18
Rp19
aa(lp20
S'start_mode'
p21
aS't'
p22
aa(lp23
S'ui_given_a_noise'
p24
aF0.7
aa(lp25
S'um_given_ui_noise'
p26
aF0.7
aa(lp27
S'entropy_threshold'
p28
aF0.8
aatp29
Rp30
aa(lp31
S'data'
p32
accollections
defaultdict
p33
(c__builtin__
list
p34
tp35
Rp36
S'a'
p37
(lp38
S'mode_l'
p39
aS'move_p'
p40
ag40
ag40
aS'mode_r'
p41
ag41
ag41
ag41
ag39
ag41
ag41
ag39
ag41
ag41
ag39
ag39
ag39
ag39
ag40
asS'assistance_match_with_ground_truth'
p42
(lp43
I01
aI00
aI00
aI01
aI00
aI00
aI00
aI00
aI00
aI00
aI00
aI00
aI00
aI00
aI00
aI00
aI00
aI01
aI01
asS'is_u_intended_equals_um'
p44
(lp45
I01
aI01
aI01
aI01
aI01
aI01
aI01
aI00
aI00
aI01
aI00
aI01
aI01
aI00
aI00
aI00
aI01
aI01
aI01
asS'total_steps'
p46
I19
sS'normalized_h_of_p_ui_given_um'
p47
(lp48
cnumpy.core.multiarray
scalar
p49
(cnumpy
dtype
p50
(S'f8'
p51
I0
I1
tp52
Rp53
(I3
S'<'
p54
NNNI-1
I-1
I0
tp55
bS'k\xdc\xa3-~\xfa\xe2?'
p56
tp57
Rp58
ag49
(g53
S'\x99\xa3\x087^Q\xe8?'
p59
tp60
Rp61
ag49
(g53
S'\x99\xa3\x087^Q\xe8?'
p62
tp63
Rp64
ag49
(g53
S'\xbc\x90\x920\t\xed\xe3?'
p65
tp66
Rp67
ag49
(g53
S'\xe2\x90\xf1\xcc?\x9c\xeb?'
p68
tp69
Rp70
ag49
(g53
S'\xe2\x90\xf1\xcc?\x9c\xeb?'
p71
tp72
Rp73
ag49
(g53
S'\xe2\x90\xf1\xcc?\x9c\xeb?'
p74
tp75
Rp76
ag49
(g53
S'\xf4\xbc\xa4\xfc\xa3\x84\xeb?'
p77
tp78
Rp79
ag49
(g53
S'\xc9\xa7\xa0A\xbb\x13\xea?'
p80
tp81
Rp82
ag49
(g53
S'vQ\xaeC!]\xec?'
p83
tp84
Rp85
ag49
(g53
S'\xf4\xbc\xa4\xfc\xa3\x84\xeb?'
p86
tp87
Rp88
ag49
(g53
S'>\xd1\xca\rA\x05\xec?'
p89
tp90
Rp91
ag49
(g53
S'\xe2\x90\xf1\xcc?\x9c\xeb?'
p92
tp93
Rp94
ag49
(g53
S'\xf4\xbc\xa4\xfc\xa3\x84\xeb?'
p95
tp96
Rp97
ag49
(g53
S'\xbe%\xf3\xc0B\xe7\xed?'
p98
tp99
Rp100
ag49
(g53
S'\xbe%\xf3\xc0B\xe7\xed?'
p101
tp102
Rp103
ag49
(g53
S'>\xd1\xca\rA\x05\xec?'
p104
tp105
Rp106
ag49
(g53
S'k\xdc\xa3-~\xfa\xe2?'
p107
tp108
Rp109
ag49
(g53
S'\xbc\x90\x920\t\xed\xe3?'
p110
tp111
Rp112
asS'sp'
p113
(lp114
(S'p0'
p115
I0
S'y'
p116
tp117
a(g115
I0
g116
tp118
ag118
a(S'p1'
p119
I0
g116
tp120
a(g119
I0
g116
tp121
ag121
ag121
a(g119
I0
S'x'
p122
tp123
a(g119
I0
g116
tp124
a(g119
I0
g116
tp125
ag123
a(S'p2'
p126
I0
g122
tp127
a(g126
I0
g122
tp128
a(g126
I0
S't'
p129
tp130
a(g126
I0
g129
tp131
ag131
a(g126
I0
g129
tp132
a(g126
I0
g116
tp133
a(S'p3'
p134
I0
g116
tp135
asS's'
p136
(lp137
(g115
I0
g22
tp138
ag117
ag118
ag118
ag120
ag121
ag121
ag121
ag123
ag124
ag125
ag123
ag127
ag128
ag130
ag131
ag131
ag132
ag133
asS'ui'
p139
(lp140
S'hs'
p141
aS'hp'
p142
ag113
ag113
aS'ss'
p143
ag113
ag142
ag142
ag142
ag141
ag141
ag143
ag143
ag143
ag113
ag141
ag141
ag141
ag143
asS'um_before'
p144
(lp145
g141
ag143
ag143
ag113
ag143
ag143
ag143
ag141
ag142
ag113
ag141
ag143
ag143
ag141
ag113
ag113
ag143
ag141
ag113
asS'um_after'
p146
(lp147
g141
ag143
ag143
ag113
ag143
ag143
ag143
ag141
ag142
ag113
ag141
ag143
ag143
ag141
ag113
ag113
ag143
ag141
ag113
asS'is_normalized_entropy_less_than_threshold'
p148
(lp149
g49
(g50
(S'b1'
p150
I0
I1
tp151
Rp152
(I3
S'|'
p153
NNNI-1
I-1
I0
tp154
bS'\x01'
p155
tp156
Rp157
ag157
ag157
ag157
ag49
(g152
S'\x00'
p158
tp159
Rp160
ag160
ag160
ag160
ag160
ag160
ag160
ag160
ag160
ag160
ag160
ag160
ag160
ag157
ag157
asaa(lp161
S'index'
p162
aI46387
aatp163
Rp164
.