ccollections
OrderedDict
p0
((lp1
(lp2
S'combination_dict'
p3
ag0
((lp4
(lp5
S'r_to_g_config'
p6
aS'br'
p7
aa(lp8
S'num_turns'
p9
aI1
aa(lp10
S'start_direction'
p11
acutils_ms
StartDirection
p12
(I0
tp13
Rp14
aa(lp15
S'assistance_type'
p16
acutils_ms
AssistanceType
p17
(I0
tp18
Rp19
aa(lp20
S'start_mode'
p21
aS't'
p22
aa(lp23
S'ui_given_a_noise'
p24
aF0.5
aa(lp25
S'um_given_ui_noise'
p26
aF0.7
aa(lp27
S'entropy_threshold'
p28
aF0.9
aatp29
Rp30
aa(lp31
S'data'
p32
accollections
defaultdict
p33
(c__builtin__
list
p34
tp35
Rp36
S'a'
p37
(lp38
S'mode_r'
p39
ag39
aS'move_p'
p40
ag40
aS'mode_l'
p41
ag40
ag41
ag41
ag39
ag40
ag41
ag39
ag39
ag40
ag40
ag41
aS'move_n'
p42
asS'assistance_match_with_ground_truth'
p43
(lp44
I00
aI01
aI00
aI00
aI01
aI00
aI00
aI00
aI01
aI01
aI00
aI00
aI01
aI00
aI01
aI01
aI01
asS'is_u_intended_equals_um'
p45
(lp46
I00
aI01
aI00
aI01
aI01
aI01
aI00
aI01
aI01
aI01
aI01
aI00
aI01
aI00
aI01
aI01
aI01
asS'total_steps'
p47
I17
sS'normalized_h_of_p_ui_given_um'
p48
(lp49
cnumpy.core.multiarray
scalar
p50
(cnumpy
dtype
p51
(S'f8'
p52
I0
I1
tp53
Rp54
(I3
S'<'
p55
NNNI-1
I-1
I0
tp56
bS'\xfc]`\xa9\x83L\xeb?'
p57
tp58
Rp59
ag50
(g54
S'\xefus\xe3\x8fN\xe1?'
p60
tp61
Rp62
ag50
(g54
S'>\xdd\x11\xfe\xcf{\xe3?'
p63
tp64
Rp65
ag50
(g54
S'\xf4\xd1B\xba\xe5\xe3\xdc?'
p66
tp67
Rp68
ag50
(g54
S'\x18i\xbb&2|\xdd?'
p69
tp70
Rp71
ag50
(g54
S'\xf4\xd1B\xba\xe5\xe3\xdc?'
p72
tp73
Rp74
ag50
(g54
S'\xc6\xd0\xca\xc5\xcd\xdb\xee?'
p75
tp76
Rp77
ag50
(g54
S'M\x8cy\xa7\xaa\xdc\xe8?'
p78
tp79
Rp80
ag50
(g54
S'\xefus\xe3\x8fN\xe1?'
p81
tp82
Rp83
ag50
(g54
S'\xf9\xde\x86#\x17\x1b\xcf?'
p84
tp85
Rp86
ag50
(g54
S'M\x8cy\xa7\xaa\xdc\xe8?'
p87
tp88
Rp89
ag50
(g54
S'<\x9a\xcc\xbcg2\xeb?'
p90
tp91
Rp92
ag50
(g54
S'\xefus\xe3\x8fN\xe1?'
p93
tp94
Rp95
ag50
(g54
S'>\xdd\x11\xfe\xcf{\xe3?'
p96
tp97
Rp98
ag50
(g54
S'\xf9\xde\x86#\x17\x1b\xcf?'
p99
tp100
Rp101
ag50
(g54
S'\x18i\xbb&2|\xdd?'
p102
tp103
Rp104
ag50
(g54
S'\n\xca=\x8c\x82\x12\xe6?'
p105
tp106
Rp107
asS'sp'
p108
(lp109
(S'p0'
p110
I0
g22
tp111
a(g110
I0
S'x'
p112
tp113
ag113
a(g110
I0
S'y'
p114
tp115
a(g110
I0
g112
tp116
ag115
a(g110
I0
g114
tp117
a(g110
I0
S't'
p118
tp119
ag113
a(S'p1'
p120
I0
g112
tp121
a(g120
I0
g114
tp122
ag122
a(g120
I0
g118
tp123
ag123
a(g120
F1.5707963267948966
g118
tp124
a(g120
F1.5707963267948966
g114
tp125
a(S'p2'
p126
F1.5707963267948966
g114
tp127
asS's'
p128
(lp129
g111
ag111
ag113
ag113
ag115
ag116
ag115
ag117
ag119
ag113
ag121
ag122
ag122
ag123
ag123
ag124
ag125
asS'ui'
p130
(lp131
S'hp'
p132
ag132
ag108
ag132
aS'hs'
p133
ag132
ag132
ag132
ag132
ag108
aS'ss'
p134
ag108
ag132
ag108
ag108
ag133
ag132
asS'um_before'
p135
(lp136
g134
ag132
ag134
ag132
ag133
ag132
ag108
ag132
ag132
ag108
ag132
ag108
ag132
ag134
ag108
ag133
ag134
asS'um_after'
p137
(lp138
Nag132
aNag132
ag133
ag132
ag108
ag132
ag132
ag108
ag132
aNag132
aNag108
ag133
ag134
asS'is_normalized_entropy_less_than_threshold'
p139
(lp140
g50
(g51
(S'b1'
p141
I0
I1
tp142
Rp143
(I3
S'|'
p144
NNNI-1
I-1
I0
tp145
bS'\x01'
p146
tp147
Rp148
ag148
ag148
ag148
ag148
ag148
ag50
(g143
S'\x00'
p149
tp150
Rp151
ag148
ag148
ag148
ag148
ag148
ag148
ag148
ag148
ag148
ag148
asaa(lp152
S'index'
p153
aI86995
aatp154
Rp155
.