ccollections
OrderedDict
p0
((lp1
(lp2
S'combination_dict'
p3
ag0
((lp4
(lp5
S'r_to_g_config'
p6
aS'tl'
p7
aa(lp8
S'num_turns'
p9
aI1
aa(lp10
S'start_direction'
p11
acutils_ms
StartDirection
p12
(I1
tp13
Rp14
aa(lp15
S'assistance_type'
p16
acutils_ms
AssistanceType
p17
(I1
tp18
Rp19
aa(lp20
S'start_mode'
p21
aS't'
p22
aa(lp23
S'ui_given_a_noise'
p24
aF0.3
aa(lp25
S'um_given_ui_noise'
p26
aF0.1
aa(lp27
S'entropy_threshold'
p28
aF0.7
aatp29
Rp30
aa(lp31
S'data'
p32
accollections
defaultdict
p33
(c__builtin__
list
p34
tp35
Rp36
S'a'
p37
(lp38
S'mode_l'
p39
aS'mode_r'
p40
aS'move_p'
p41
ag40
ag41
ag40
ag40
ag41
ag40
ag39
aS'move_n'
p42
ag40
ag40
ag41
ag39
ag42
ag40
ag41
ag40
ag39
ag42
ag40
ag40
ag41
ag40
ag40
ag40
ag41
ag40
ag41
ag39
ag39
ag42
ag40
ag40
ag42
ag40
ag40
ag40
ag39
ag41
ag39
ag42
ag40
ag42
asS'assistance_match_with_ground_truth'
p43
(lp44
I00
aI01
aI00
aI01
aI01
aI00
aI01
aI01
aI00
aI01
aI00
aI00
aI01
aI01
aI01
aI00
aI00
aI01
aI00
aI01
aI00
aI00
aI01
aI00
aI00
aI00
aI01
aI00
aI01
aI01
aI00
aI01
aI00
aI00
aI01
aI00
aI00
aI00
aI00
aI01
aI01
aI01
aI00
aI01
aI01
asS'is_u_intended_equals_um'
p45
(lp46
I01
aI01
aI01
aI01
aI01
aI01
aI01
aI01
aI01
aI01
aI01
aI01
aI01
aI01
aI01
aI00
aI01
aI01
aI01
aI01
aI01
aI01
aI01
aI01
aI01
aI01
aI01
aI01
aI01
aI01
aI01
aI01
aI00
aI01
aI01
aI01
aI01
aI01
aI01
aI01
aI01
aI01
aI00
aI01
aI01
asS'total_steps'
p47
I45
sS'normalized_h_of_p_ui_given_um'
p48
(lp49
cnumpy.core.multiarray
scalar
p50
(cnumpy
dtype
p51
(S'f8'
p52
I0
I1
tp53
Rp54
(I3
S'<'
p55
NNNI-1
I-1
I0
tp56
bS'\xe8\xb7\xe1h\xc7C\xdf?'
p57
tp58
Rp59
ag50
(g54
S'P\xff\xbb\xfd{+\xb9?'
p60
tp61
Rp62
ag50
(g54
S'\rI\x14\xae\xe7\xff\xe2?'
p63
tp64
Rp65
ag50
(g54
S'P\xff\xbb\xfd{+\xb9?'
p66
tp67
Rp68
ag50
(g54
S'x\x99\x045.T\xb3?'
p69
tp70
Rp71
ag50
(g54
S'\xed)\xf3\x1d\xdb\xea\xe6?'
p72
tp73
Rp74
ag50
(g54
S'P\xff\xbb\xfd{+\xb9?'
p75
tp76
Rp77
ag50
(g54
S'x\x99\x045.T\xb3?'
p78
tp79
Rp80
ag50
(g54
S'\xda\xeaC>_G\xe2?'
p81
tp82
Rp83
ag50
(g54
S'\x88\x1ds^s\xaf\xc0?'
p84
tp85
Rp86
ag50
(g54
S'7b\x94\xd9\x9d\xdb\xe0?'
p87
tp88
Rp89
ag50
(g54
S'\xb5\xfd\x1f\x06!\x88\xe2?'
p90
tp91
Rp92
ag50
(g54
S'P\xff\xbb\xfd{+\xb9?'
p93
tp94
Rp95
ag50
(g54
S'x\x99\x045.T\xb3?'
p96
tp97
Rp98
ag50
(g54
S'\x88\x1ds^s\xaf\xc0?'
p99
tp100
Rp101
ag50
(g54
S"\xdc\xbb\xbe'?S\xea?"
p102
tp103
Rp104
ag50
(g54
S'\xed)\xf3\x1d\xdb\xea\xe6?'
p105
tp106
Rp107
ag50
(g54
S'x\x99\x045.T\xb3?'
p108
tp109
Rp110
ag50
(g54
S'\xda\xeaC>_G\xe2?'
p111
tp112
Rp113
ag50
(g54
S'\x88\x1ds^s\xaf\xc0?'
p114
tp115
Rp116
ag50
(g54
S'7b\x94\xd9\x9d\xdb\xe0?'
p117
tp118
Rp119
ag50
(g54
S'\xed)\xf3\x1d\xdb\xea\xe6?'
p120
tp121
Rp122
ag50
(g54
S'P\xff\xbb\xfd{+\xb9?'
p123
tp124
Rp125
ag50
(g54
S'\rI\x14\xae\xe7\xff\xe2?'
p126
tp127
Rp128
ag50
(g54
S'\xb5\xfd\x1f\x06!\x88\xe2?'
p129
tp130
Rp131
ag50
(g54
S'\xb5\xfd\x1f\x06!\x88\xe2?'
p132
tp133
Rp134
ag50
(g54
S'P\xff\xbb\xfd{+\xb9?'
p135
tp136
Rp137
ag50
(g54
S'\rI\x14\xae\xe7\xff\xe2?'
p138
tp139
Rp140
ag50
(g54
S'P\xff\xbb\xfd{+\xb9?'
p141
tp142
Rp143
ag50
(g54
S'x\x99\x045.T\xb3?'
p144
tp145
Rp146
ag50
(g54
S'\xd3\x82;)\xc3.\xe5?'
p147
tp148
Rp149
ag50
(g54
S'\x88\x1ds^s\xaf\xc0?'
p150
tp151
Rp152
ag50
(g54
S"\xdc\xbb\xbe'?S\xea?"
p153
tp154
Rp155
ag50
(g54
S'\xb5\xfd\x1f\x06!\x88\xe2?'
p156
tp157
Rp158
ag50
(g54
S'P\xff\xbb\xfd{+\xb9?'
p159
tp160
Rp161
ag50
(g54
S'7b\x94\xd9\x9d\xdb\xe0?'
p162
tp163
Rp164
ag50
(g54
S'\xb5\xfd\x1f\x06!\x88\xe2?'
p165
tp166
Rp167
ag50
(g54
S'\xed)\xf3\x1d\xdb\xea\xe6?'
p168
tp169
Rp170
ag50
(g54
S'\xda\xeaC>_G\xe2?'
p171
tp172
Rp173
ag50
(g54
S'\x88\x1ds^s\xaf\xc0?'
p174
tp175
Rp176
ag50
(g54
S'x\x99\x045.T\xb3?'
p177
tp178
Rp179
ag50
(g54
S'\x88\x1ds^s\xaf\xc0?'
p180
tp181
Rp182
ag50
(g54
S"\xdc\xbb\xbe'?S\xea?"
p183
tp184
Rp185
ag50
(g54
S'P\xff\xbb\xfd{+\xb9?'
p186
tp187
Rp188
ag50
(g54
S'C\x93\xf7\xd467\xb5?'
p189
tp190
Rp191
asS'sp'
p192
(lp193
(S'p0'
p194
I0
S'x'
p195
tp196
a(g194
I0
S'y'
p197
tp198
a(g194
I0
g195
tp199
ag198
a(S'p1'
p200
I0
g197
tp201
a(g200
I0
g197
tp202
a(g200
I0
S't'
p203
tp204
a(g200
F1.5707963267948966
g203
tp205
a(g200
F1.5707963267948966
g197
tp206
a(g200
F1.5707963267948966
g195
tp207
a(g194
F1.5707963267948966
g195
tp208
a(g194
F1.5707963267948966
g195
tp209
a(g194
F1.5707963267948966
g197
tp210
a(g200
F1.5707963267948966
g197
tp211
ag207
a(g200
F1.5707963267948966
g203
tp212
a(g200
I0
g203
tp213
ag205
ag206
ag207
ag208
a(g194
F1.5707963267948966
g195
tp214
ag210
a(g194
F1.5707963267948966
g195
tp215
ag209
ag209
ag210
ag215
ag210
ag211
a(g200
F1.5707963267948966
g197
tp216
ag207
ag212
a(g200
F1.5707963267948966
g203
tp217
a(g200
F1.5707963267948966
g195
tp218
ag208
ag209
ag214
a(g194
F1.5707963267948966
g203
tp219
a(g194
F1.5707963267948966
g197
tp220
ag211
ag207
ag212
ag218
a(S'p2'
p221
F1.5707963267948966
g195
tp222
asS's'
p223
(lp224
(g194
I0
g22
tp225
ag196
ag198
ag199
ag198
ag201
ag202
ag204
ag205
ag206
ag207
ag208
ag209
ag210
ag211
ag207
ag212
ag213
ag205
ag206
ag207
ag208
ag214
ag210
ag215
ag209
ag209
ag210
ag215
ag210
ag211
ag216
ag207
ag212
ag217
ag218
ag208
ag209
ag214
ag219
ag220
ag211
ag207
ag212
ag218
asS'ui'
p226
(lp227
S'hp'
p228
ag228
ag192
ag228
ag192
aS'ss'
p229
ag228
ag192
aS'hs'
p230
ag230
ag192
ag192
ag228
ag192
ag230
ag230
ag229
ag192
ag230
ag230
ag192
ag228
ag228
ag230
ag192
ag192
ag228
ag230
ag228
ag192
ag230
ag230
ag230
ag192
ag228
ag192
ag192
ag192
ag192
ag230
ag192
ag230
ag192
ag228
ag229
asS'um_before'
p231
(lp232
g228
ag228
ag230
ag228
ag192
ag229
ag228
ag192
ag230
ag230
ag192
ag192
ag228
ag192
ag230
ag230
ag229
ag192
ag230
ag230
ag192
ag229
ag228
ag230
ag192
ag192
ag228
ag230
ag228
ag192
ag192
ag230
ag230
ag192
ag228
ag192
ag192
ag229
ag230
ag230
ag192
ag230
ag230
ag228
ag229
asS'um_after'
p233
(lp234
g228
ag228
ag230
ag228
ag192
ag229
ag228
ag192
ag230
ag230
ag192
ag192
ag228
ag192
ag230
ag230
ag229
ag192
ag230
ag230
ag192
ag229
ag228
ag230
ag192
ag192
ag228
ag230
ag228
ag192
ag192
ag230
ag230
ag192
ag228
ag192
ag192
ag229
ag230
ag230
ag192
ag230
ag230
ag228
ag229
asS'is_normalized_entropy_less_than_threshold'
p235
(lp236
g50
(g51
(S'b1'
p237
I0
I1
tp238
Rp239
(I3
S'|'
p240
NNNI-1
I-1
I0
tp241
bS'\x01'
p242
tp243
Rp244
ag244
ag244
ag244
ag244
ag50
(g239
S'\x00'
p245
tp246
Rp247
ag244
ag244
ag244
ag244
ag244
ag244
ag244
ag244
ag244
ag247
ag247
ag244
ag244
ag244
ag244
ag247
ag244
ag244
ag244
ag244
ag244
ag244
ag244
ag244
ag244
ag244
ag247
ag244
ag244
ag244
ag244
ag247
ag244
ag244
ag244
ag244
ag247
ag244
ag244
asaa(lp248
S'index'
p249
aI36222
aatp250
Rp251
.