ccollections
OrderedDict
p0
((lp1
(lp2
S'combination_dict'
p3
ag0
((lp4
(lp5
S'r_to_g_config'
p6
aS'br'
p7
aa(lp8
S'num_turns'
p9
aI1
aa(lp10
S'start_direction'
p11
acutils_ms
StartDirection
p12
(I1
tp13
Rp14
aa(lp15
S'assistance_type'
p16
acutils_ms
AssistanceType
p17
(I0
tp18
Rp19
aa(lp20
S'start_mode'
p21
aS'x'
p22
aa(lp23
S'ui_given_a_noise'
p24
aF0.5
aa(lp25
S'um_given_ui_noise'
p26
aF0.3
aa(lp27
S'entropy_threshold'
p28
aF0.5
aatp29
Rp30
aa(lp31
S'data'
p32
accollections
defaultdict
p33
(c__builtin__
list
p34
tp35
Rp36
S'a'
p37
(lp38
S'mode_r'
p39
aS'move_n'
p40
ag39
aS'move_p'
p41
ag39
ag39
ag41
aS'mode_l'
p42
ag41
ag42
asS'assistance_match_with_ground_truth'
p43
(lp44
I01
aI01
aI01
aI00
aI00
aI01
aI00
aI01
aI00
aI00
asS'is_u_intended_equals_um'
p45
(lp46
I01
aI01
aI01
aI01
aI00
aI01
aI01
aI01
aI01
aI00
asS'total_steps'
p47
I10
sS'normalized_h_of_p_ui_given_um'
p48
(lp49
cnumpy.core.multiarray
scalar
p50
(cnumpy
dtype
p51
(S'f8'
p52
I0
I1
tp53
Rp54
(I3
S'<'
p55
NNNI-1
I-1
I0
tp56
bS'\xd0\xfa\xf0I\xb7\x1f\xbd?'
p57
tp58
Rp59
ag50
(g54
S'w)\xa2\x17F\x99\xd9?'
p60
tp61
Rp62
ag50
(g54
S'\xd0\xfa\xf0I\xb7\x1f\xbd?'
p63
tp64
Rp65
ag50
(g54
S'H\x07\xd6\xc85-\xe9?'
p66
tp67
Rp68
ag50
(g54
S'}\xc0\xc2DK\xa7\xe6?'
p69
tp70
Rp71
ag50
(g54
S'\xd0\xfa\xf0I\xb7\x1f\xbd?'
p72
tp73
Rp74
ag50
(g54
S'\x11\xa2\xd8\xfa\xd3\x18\xe1?'
p75
tp76
Rp77
ag50
(g54
S'\x1d\xbe=\xe8*"\xb9?'
p78
tp79
Rp80
ag50
(g54
S'\x11\xa2\xd8\xfa\xd3\x18\xe1?'
p81
tp82
Rp83
ag50
(g54
S'\xd2~Z\xc7a\xd6\xe7?'
p84
tp85
Rp86
asS'sp'
p87
(lp88
(S'p0'
p89
I0
S'y'
p90
tp91
a(S'p1'
p92
I0
g90
tp93
a(g92
I0
S't'
p94
tp95
a(g92
I0
g90
tp96
a(g92
I0
g90
tp97
ag95
a(g92
I0
S'x'
p98
tp99
a(g92
I0
g94
tp100
ag99
a(S'p2'
p101
I0
g98
tp102
asS's'
p103
(lp104
(g89
I0
g22
tp105
ag91
ag93
ag95
ag96
ag97
ag95
ag99
ag100
ag99
asS'ui'
p106
(lp107
S'hp'
p108
aS'ss'
p109
ag108
aS'hs'
p110
ag87
ag108
ag109
ag110
ag108
ag110
asS'um_before'
p111
(lp112
g108
ag109
ag108
ag110
ag109
ag108
ag108
ag110
ag108
ag87
asS'um_after'
p113
(lp114
g108
ag109
ag108
ag110
ag109
ag108
ag108
ag110
ag108
ag87
asS'is_normalized_entropy_less_than_threshold'
p115
(lp116
g50
(g51
(S'b1'
p117
I0
I1
tp118
Rp119
(I3
S'|'
p120
NNNI-1
I-1
I0
tp121
bS'\x01'
p122
tp123
Rp124
ag124
ag124
ag50
(g119
S'\x00'
p125
tp126
Rp127
ag127
ag124
ag127
ag124
ag127
ag127
asaa(lp128
S'index'
p129
aI91658
aatp130
Rp131
.