ccollections
OrderedDict
p0
((lp1
(lp2
S'combination_dict'
p3
ag0
((lp4
(lp5
S'r_to_g_config'
p6
aS'tr'
p7
aa(lp8
S'num_turns'
p9
aI2
aa(lp10
S'start_direction'
p11
acutils_ms
StartDirection
p12
(I0
tp13
Rp14
aa(lp15
S'assistance_type'
p16
acutils_ms
AssistanceType
p17
(I0
tp18
Rp19
aa(lp20
S'start_mode'
p21
aS'y'
p22
aa(lp23
S'ui_given_a_noise'
p24
aF0.7
aa(lp25
S'um_given_ui_noise'
p26
aF0.3
aa(lp27
S'entropy_threshold'
p28
aF0.8
aatp29
Rp30
aa(lp31
S'data'
p32
accollections
defaultdict
p33
(c__builtin__
list
p34
tp35
Rp36
S'a'
p37
(lp38
S'mode_l'
p39
ag39
aS'move_p'
p40
ag40
ag39
ag40
aS'mode_r'
p41
ag40
ag41
ag41
ag39
ag40
ag39
ag39
ag40
ag40
ag41
ag41
ag40
ag39
ag40
ag39
ag40
ag41
ag40
ag40
ag40
ag41
ag41
ag41
ag41
ag40
ag39
ag39
ag39
ag41
ag41
ag40
ag41
ag41
ag41
ag41
ag41
ag41
ag39
ag39
ag40
ag41
ag40
ag40
ag41
ag40
ag41
ag40
ag41
ag40
ag41
ag41
ag39
ag41
ag39
ag41
ag39
ag41
ag40
ag41
ag40
ag41
ag40
ag41
ag39
ag39
ag40
ag41
ag40
asS'assistance_match_with_ground_truth'
p42
(lp43
I00
aI01
aI00
aI00
aI01
aI00
aI01
aI01
aI00
aI00
aI01
aI00
aI00
aI01
aI00
aI01
aI00
aI01
aI00
aI01
aI00
aI01
aI00
aI01
aI00
aI00
aI01
aI00
aI00
aI00
aI01
aI00
aI00
aI00
aI00
aI00
aI01
aI00
aI00
aI00
aI00
aI00
aI00
aI00
aI00
aI01
aI00
aI01
aI00
aI01
aI01
aI01
aI01
aI01
aI00
aI00
aI00
aI00
aI00
aI00
aI00
aI00
aI00
aI01
aI01
aI01
aI01
aI00
aI01
aI00
aI00
aI01
aI00
aI01
aI01
asS'is_u_intended_equals_um'
p44
(lp45
I01
aI01
aI00
aI00
aI01
aI01
aI01
aI01
aI01
aI01
aI01
aI00
aI01
aI01
aI00
aI01
aI01
aI01
aI00
aI01
aI00
aI01
aI01
aI01
aI00
aI00
aI01
aI01
aI01
aI01
aI01
aI00
aI01
aI01
aI01
aI01
aI01
aI01
aI01
aI01
aI01
aI01
aI01
aI01
aI01
aI01
aI01
aI01
aI00
aI01
aI01
aI01
aI01
aI01
aI01
aI01
aI01
aI01
aI01
aI01
aI01
aI01
aI01
aI01
aI01
aI01
aI01
aI01
aI01
aI01
aI01
aI01
aI01
aI01
aI01
asS'total_steps'
p46
I75
sS'normalized_h_of_p_ui_given_um'
p47
(lp48
cnumpy.core.multiarray
scalar
p49
(cnumpy
dtype
p50
(S'f8'
p51
I0
I1
tp52
Rp53
(I3
S'<'
p54
NNNI-1
I-1
I0
tp55
bS'\xca\xe0\xfd\xc9\x9c^\xeb?'
p56
tp57
Rp58
ag49
(g53
S'\xa4T\x06\xb0\x86r\xde?'
p59
tp60
Rp61
ag49
(g53
S'\xb7\x98\xa2\x13\x02\x8f\xeb?'
p62
tp63
Rp64
ag49
(g53
S'\x04w\x99\x8b\xaf#\xee?'
p65
tp66
Rp67
ag49
(g53
S'\xa4T\x06\xb0\x86r\xde?'
p68
tp69
Rp70
ag49
(g53
S'\x02\x06DX\xd3\xfe\xdd?'
p71
tp72
Rp73
ag49
(g53
S'x\xa6\xf3J\xc8\x0f\xdd?'
p74
tp75
Rp76
ag49
(g53
S'\xfc[\x99_\x13\xeb\xd3?'
p77
tp78
Rp79
ag49
(g53
S'\x1f\xaa\xcb~\x91b\xe8?'
p80
tp81
Rp82
ag49
(g53
S'\xee\x19\xde\x07}\x9d\xe6?'
p83
tp84
Rp85
ag49
(g53
S'\xa4T\x06\xb0\x86r\xde?'
p86
tp87
Rp88
ag49
(g53
S'\xb7\x98\xa2\x13\x02\x8f\xeb?'
p89
tp90
Rp91
ag49
(g53
S'\xca\xe0\xfd\xc9\x9c^\xeb?'
p92
tp93
Rp94
ag49
(g53
S'\xa4T\x06\xb0\x86r\xde?'
p95
tp96
Rp97
ag49
(g53
S'\xb7\x98\xa2\x13\x02\x8f\xeb?'
p98
tp99
Rp100
ag49
(g53
S'\xfc[\x99_\x13\xeb\xd3?'
p101
tp102
Rp103
ag49
(g53
S'\x1f\xaa\xcb~\x91b\xe8?'
p104
tp105
Rp106
ag49
(g53
S'x\xa6\xf3J\xc8\x0f\xdd?'
p107
tp108
Rp109
ag49
(g53
S'\x04w\x99\x8b\xaf#\xee?'
p110
tp111
Rp112
ag49
(g53
S'\xa4T\x06\xb0\x86r\xde?'
p113
tp114
Rp115
ag49
(g53
S'\xb7\x98\xa2\x13\x02\x8f\xeb?'
p116
tp117
Rp118
ag49
(g53
S'\xa4T\x06\xb0\x86r\xde?'
p119
tp120
Rp121
ag49
(g53
S'\x02\x06DX\xd3\xfe\xdd?'
p122
tp123
Rp124
ag49
(g53
S'x\xa6\xf3J\xc8\x0f\xdd?'
p125
tp126
Rp127
ag49
(g53
S'\xb7\x98\xa2\x13\x02\x8f\xeb?'
p128
tp129
Rp130
ag49
(g53
S'\xb7\x98\xa2\x13\x02\x8f\xeb?'
p131
tp132
Rp133
ag49
(g53
S'\xfc[\x99_\x13\xeb\xd3?'
p134
tp135
Rp136
ag49
(g53
S'\xb2\xce\xa2\x8b\x80(\xed?'
p137
tp138
Rp139
ag49
(g53
S'\xb2\xce\xa2\x8b\x80(\xed?'
p140
tp141
Rp142
ag49
(g53
S'\xb2\xce\xa2\x8b\x80(\xed?'
p143
tp144
Rp145
ag49
(g53
S'x\xa6\xf3J\xc8\x0f\xdd?'
p146
tp147
Rp148
ag49
(g53
S'\xb7\x98\xa2\x13\x02\x8f\xeb?'
p149
tp150
Rp151
ag49
(g53
S'\xca\xe0\xfd\xc9\x9c^\xeb?'
p152
tp153
Rp154
ag49
(g53
S'\xca\xe0\xfd\xc9\x9c^\xeb?'
p155
tp156
Rp157
ag49
(g53
S'&\xf7\x91\x07\x08\x04\xe7?'
p158
tp159
Rp160
ag49
(g53
S'\x1f\xaa\xcb~\x91b\xe8?'
p161
tp162
Rp163
ag49
(g53
S'x\xa6\xf3J\xc8\x0f\xdd?'
p164
tp165
Rp166
ag49
(g53
S'\x02\x06DX\xd3\xfe\xdd?'
p167
tp168
Rp169
ag49
(g53
S'\x1f\xaa\xcb~\x91b\xe8?'
p170
tp171
Rp172
ag49
(g53
S'\x1f\xaa\xcb~\x91b\xe8?'
p173
tp174
Rp175
ag49
(g53
S'\xb2\xce\xa2\x8b\x80(\xed?'
p176
tp177
Rp178
ag49
(g53
S'\xb2\xce\xa2\x8b\x80(\xed?'
p179
tp180
Rp181
ag49
(g53
S'\xb2\xce\xa2\x8b\x80(\xed?'
p182
tp183
Rp184
ag49
(g53
S'\xee\x19\xde\x07}\x9d\xe6?'
p185
tp186
Rp187
ag49
(g53
S'\xca\xe0\xfd\xc9\x9c^\xeb?'
p188
tp189
Rp190
ag49
(g53
S'\xa4T\x06\xb0\x86r\xde?'
p191
tp192
Rp193
ag49
(g53
S'\x02\x06DX\xd3\xfe\xdd?'
p194
tp195
Rp196
ag49
(g53
S'x\xa6\xf3J\xc8\x0f\xdd?'
p197
tp198
Rp199
ag49
(g53
S'\xb7\x98\xa2\x13\x02\x8f\xeb?'
p200
tp201
Rp202
ag49
(g53
S'\xfc[\x99_\x13\xeb\xd3?'
p203
tp204
Rp205
ag49
(g53
S'x\xa6\xf3J\xc8\x0f\xdd?'
p206
tp207
Rp208
ag49
(g53
S'\xfc[\x99_\x13\xeb\xd3?'
p209
tp210
Rp211
ag49
(g53
S'x\xa6\xf3J\xc8\x0f\xdd?'
p212
tp213
Rp214
ag49
(g53
S'\xfc[\x99_\x13\xeb\xd3?'
p215
tp216
Rp217
ag49
(g53
S'\xb2\xce\xa2\x8b\x80(\xed?'
p218
tp219
Rp220
ag49
(g53
S'\x02\x06DX\xd3\xfe\xdd?'
p221
tp222
Rp223
ag49
(g53
S'\xb2\xce\xa2\x8b\x80(\xed?'
p224
tp225
Rp226
ag49
(g53
S'\xee\x19\xde\x07}\x9d\xe6?'
p227
tp228
Rp229
ag49
(g53
S'\xca\xe0\xfd\xc9\x9c^\xeb?'
p230
tp231
Rp232
ag49
(g53
S'\xee\x19\xde\x07}\x9d\xe6?'
p233
tp234
Rp235
ag49
(g53
S'&\xf7\x91\x07\x08\x04\xe7?'
p236
tp237
Rp238
ag49
(g53
S'\xee\x19\xde\x07}\x9d\xe6?'
p239
tp240
Rp241
ag49
(g53
S'&\xf7\x91\x07\x08\x04\xe7?'
p242
tp243
Rp244
ag49
(g53
S'x\xa6\xf3J\xc8\x0f\xdd?'
p245
tp246
Rp247
ag49
(g53
S'\xfc[\x99_\x13\xeb\xd3?'
p248
tp249
Rp250
ag49
(g53
S'x\xa6\xf3J\xc8\x0f\xdd?'
p251
tp252
Rp253
ag49
(g53
S'\xfc[\x99_\x13\xeb\xd3?'
p254
tp255
Rp256
ag49
(g53
S'\xb2\xce\xa2\x8b\x80(\xed?'
p257
tp258
Rp259
ag49
(g53
S'\xfc[\x99_\x13\xeb\xd3?'
p260
tp261
Rp262
ag49
(g53
S'\xee\x19\xde\x07}\x9d\xe6?'
p263
tp264
Rp265
ag49
(g53
S'\xca\xe0\xfd\xc9\x9c^\xeb?'
p266
tp267
Rp268
ag49
(g53
S'\xa4T\x06\xb0\x86r\xde?'
p269
tp270
Rp271
ag49
(g53
S'\x02\x06DX\xd3\xfe\xdd?'
p272
tp273
Rp274
ag49
(g53
S'x\xa6\xf3J\xc8\x0f\xdd?'
p275
tp276
Rp277
ag49
(g53
S'\xfc[\x99_\x13\xeb\xd3?'
p278
tp279
Rp280
asS'sp'
p281
(lp282
(S'p0'
p283
I0
S'y'
p284
tp285
a(g283
I0
S'x'
p286
tp287
a(g283
I0
g286
tp288
a(g283
I0
g284
tp289
ag287
a(g283
I0
S't'
p290
tp291
a(g283
I0
g286
tp292
a(S'p1'
p293
I0
g286
tp294
a(g293
I0
g286
tp295
a(g293
I0
g290
tp296
a(g293
I0
g284
tp297
a(g283
I0
g284
tp298
ag285
ag287
ag288
ag294
ag295
a(g293
I0
g284
tp299
a(g293
I0
g290
tp300
ag297
ag298
ag287
ag291
ag292
ag288
ag288
ag294
a(g293
I0
g286
tp301
ag301
ag301
ag299
ag298
ag285
ag285
a(g283
I0
g290
tp302
a(g283
I0
g290
tp303
ag292
ag291
ag303
ag303
a(g283
I0
g290
tp304
ag304
ag304
a(g283
I0
g284
tp305
ag285
ag287
ag291
ag292
ag288
ag294
ag299
a(S'p2'
p306
I0
g284
tp307
a(g306
I0
g290
tp308
a(g306
F1.5707963267948966
g290
tp309
a(g306
I0
g290
tp310
a(g306
I0
g284
tp311
a(g306
I0
g284
tp312
a(g306
I0
g286
tp313
a(g293
I0
g286
tp314
ag296
a(g293
I0
g286
tp315
ag296
ag315
ag299
ag307
ag308
ag309
ag310
ag309
a(g306
F1.5707963267948966
g284
tp316
a(g306
F1.5707963267948966
g284
tp317
a(g306
F1.5707963267948966
g286
tp318
a(g306
F1.5707963267948966
g290
tp319
a(g306
F1.5707963267948966
g286
tp320
a(S'p3'
p321
F1.5707963267948966
g286
tp322
asS's'
p323
(lp324
(g283
I0
g22
tp325
ag285
ag287
ag288
ag289
ag287
ag291
ag292
ag294
ag295
ag296
ag297
ag298
ag285
ag287
ag288
ag294
ag295
ag299
ag300
ag297
ag298
ag287
ag291
ag292
ag288
ag288
ag294
ag301
ag301
ag301
ag299
ag298
ag285
ag285
ag302
ag303
ag292
ag291
ag303
ag303
ag304
ag304
ag304
ag305
ag285
ag287
ag291
ag292
ag288
ag294
ag299
ag307
ag308
ag309
ag310
ag311
ag312
ag313
ag314
ag296
ag315
ag296
ag315
ag299
ag307
ag308
ag309
ag310
ag309
ag316
ag317
ag318
ag319
ag320
asS'ui'
p326
(lp327
S'ss'
p328
aS'hs'
p329
ag281
aS'hp'
p330
ag329
ag329
ag330
ag281
ag281
ag281
ag329
ag328
ag328
ag329
ag329
ag281
ag281
ag330
ag328
ag329
ag328
ag330
ag329
ag330
ag281
ag281
ag281
ag330
ag281
ag329
ag330
ag328
ag328
ag328
ag330
ag281
ag330
ag329
ag281
ag281
ag328
ag329
ag330
ag329
ag328
ag328
ag329
ag330
ag328
ag329
ag330
ag281
ag330
ag281
ag330
ag329
ag330
ag329
ag329
ag329
ag330
ag329
ag330
ag329
ag281
ag330
ag281
ag330
ag281
ag329
ag328
ag329
ag329
ag330
ag281
asS'um_before'
p331
(lp332
g328
ag329
ag328
ag330
ag329
ag329
ag330
ag281
ag281
ag329
ag329
ag328
ag328
ag329
ag328
ag281
ag281
ag330
ag330
ag329
ag328
ag329
ag329
ag330
ag328
ag328
ag281
ag328
ag328
ag328
ag330
ag328
ag328
ag328
ag330
ag281
ag330
ag329
ag281
ag281
ag328
ag328
ag328
ag329
ag328
ag329
ag329
ag330
ag328
ag281
ag330
ag281
ag330
ag281
ag328
ag329
ag328
ag329
ag328
ag329
ag330
ag329
ag330
ag330
ag281
ag330
ag281
ag328
ag281
ag329
ag328
ag329
ag329
ag330
ag281
asS'um_after'
p333
(lp334
g328
ag329
ag328
ag330
ag329
ag329
ag330
ag281
ag281
ag329
ag329
ag328
ag328
ag329
ag328
ag281
ag281
ag330
ag330
ag329
ag328
ag329
ag329
ag330
ag328
ag328
ag281
ag328
ag328
ag328
ag330
ag328
ag328
ag328
ag330
ag281
ag330
ag329
ag281
ag281
ag328
ag328
ag328
ag329
ag328
ag329
ag329
ag330
ag328
ag281
ag330
ag281
ag330
ag281
ag328
ag329
ag328
ag329
ag328
ag329
ag330
ag329
ag330
ag330
ag281
ag330
ag281
ag328
ag281
ag329
ag328
ag329
ag329
ag330
ag281
asS'is_normalized_entropy_less_than_threshold'
p335
(lp336
g49
(g50
(S'b1'
p337
I0
I1
tp338
Rp339
(I3
S'|'
p340
NNNI-1
I-1
I0
tp341
bS'\x00'
p342
tp343
Rp344
ag49
(g339
S'\x01'
p345
tp346
Rp347
ag344
ag344
ag347
ag347
ag347
ag347
ag347
ag347
ag347
ag344
ag344
ag347
ag344
ag347
ag347
ag347
ag344
ag347
ag344
ag347
ag347
ag347
ag344
ag344
ag347
ag344
ag344
ag344
ag347
ag344
ag344
ag344
ag347
ag347
ag347
ag347
ag347
ag347
ag344
ag344
ag344
ag347
ag344
ag347
ag347
ag347
ag344
ag347
ag347
ag347
ag347
ag347
ag344
ag347
ag344
ag347
ag344
ag347
ag347
ag347
ag347
ag347
ag347
ag347
ag347
ag344
ag347
ag347
ag344
ag347
ag347
ag347
ag347
asaa(lp348
S'index'
p349
aI11088
aatp350
Rp351
.