ccollections
OrderedDict
p0
((lp1
(lp2
S'combination_dict'
p3
ag0
((lp4
(lp5
S'r_to_g_config'
p6
aS'bl'
p7
aa(lp8
S'num_turns'
p9
aI1
aa(lp10
S'start_direction'
p11
acutils_ms
StartDirection
p12
(I0
tp13
Rp14
aa(lp15
S'assistance_type'
p16
acutils_ms
AssistanceType
p17
(I1
tp18
Rp19
aa(lp20
S'start_mode'
p21
aS'y'
p22
aa(lp23
S'ui_given_a_noise'
p24
aF0.5
aa(lp25
S'um_given_ui_noise'
p26
aF0.5
aa(lp27
S'entropy_threshold'
p28
aF0.5
aatp29
Rp30
aa(lp31
S'data'
p32
accollections
defaultdict
p33
(c__builtin__
list
p34
tp35
Rp36
S'a'
p37
(lp38
S'mode_l'
p39
aS'mode_r'
p40
ag40
ag40
ag40
aS'move_n'
p41
ag41
ag40
ag40
ag40
ag40
ag39
ag41
ag39
ag41
ag39
ag39
ag40
ag40
ag39
ag40
ag40
ag40
ag41
ag39
ag39
ag39
ag39
aS'move_p'
p42
ag39
ag39
ag42
ag40
ag39
ag39
ag39
ag40
ag39
ag42
ag42
ag40
ag42
ag39
ag40
ag41
asS'assistance_match_with_ground_truth'
p43
(lp44
I00
aI00
aI00
aI00
aI01
aI00
aI00
aI00
aI00
aI00
aI00
aI01
aI00
aI01
aI00
aI00
aI00
aI00
aI00
aI00
aI00
aI00
aI01
aI01
aI00
aI00
aI00
aI01
aI00
aI00
aI01
aI00
aI00
aI00
aI00
aI00
aI00
aI01
aI00
aI00
aI01
aI01
aI00
aI01
aI01
asS'is_u_intended_equals_um'
p45
(lp46
I00
aI00
aI00
aI01
aI01
aI01
aI01
aI01
aI00
aI00
aI01
aI01
aI01
aI01
aI01
aI00
aI00
aI00
aI01
aI00
aI01
aI01
aI01
aI01
aI00
aI00
aI00
aI01
aI01
aI00
aI01
aI00
aI01
aI00
aI01
aI00
aI01
aI01
aI00
aI00
aI01
aI01
aI00
aI01
aI01
asS'total_steps'
p47
I45
sS'normalized_h_of_p_ui_given_um'
p48
(lp49
cnumpy.core.multiarray
scalar
p50
(cnumpy
dtype
p51
(S'f8'
p52
I0
I1
tp53
Rp54
(I3
S'<'
p55
NNNI-1
I-1
I0
tp56
bS"d\x1a\x84'T\x0e\xe9?"
p57
tp58
Rp59
ag50
(g54
S'\xea\xa8\x029\xf8\xd0\xe8?'
p60
tp61
Rp62
ag50
(g54
S'\xea\xa8\x029\xf8\xd0\xe8?'
p63
tp64
Rp65
ag50
(g54
S"\x16'R@b\x8a\xea?"
p66
tp67
Rp68
ag50
(g54
S'\xde\x9f\x8er\xc3R\xe1?'
p69
tp70
Rp71
ag50
(g54
S'}/\xe1\xcc\xa1s\xec?'
p72
tp73
Rp74
ag50
(g54
S'6\x11\r\x83xa\xec?'
p75
tp76
Rp77
ag50
(g54
S"\x16'R@b\x8a\xea?"
p78
tp79
Rp80
ag50
(g54
S'\xea\xa8\x029\xf8\xd0\xe8?'
p81
tp82
Rp83
ag50
(g54
S'\xea\xa8\x029\xf8\xd0\xe8?'
p84
tp85
Rp86
ag50
(g54
S'2|%\xdb\xa0\xab\xe9?'
p87
tp88
Rp89
ag50
(g54
S'w\xf1\x92\x16\xe8\x11\xe0?'
p90
tp91
Rp92
ag50
(g54
S'\xe3\n\xbdI\xcd\x7f\xe7?'
p93
tp94
Rp95
ag50
(g54
S'w\xf1\x92\x16\xe8\x11\xe0?'
p96
tp97
Rp98
ag50
(g54
S'\xe3\n\xbdI\xcd\x7f\xe7?'
p99
tp100
Rp101
ag50
(g54
S"\xcc'\x1cg~\x99\xe9?"
p102
tp103
Rp104
ag50
(g54
S"d\x1a\x84'T\x0e\xe9?"
p105
tp106
Rp107
ag50
(g54
S'\xea\xa8\x029\xf8\xd0\xe8?'
p108
tp109
Rp110
ag50
(g54
S'2|%\xdb\xa0\xab\xe9?'
p111
tp112
Rp113
ag50
(g54
S"d\x1a\x84'T\x0e\xe9?"
p114
tp115
Rp116
ag50
(g54
S"\x16'R@b\x8a\xea?"
p117
tp118
Rp119
ag50
(g54
S"\x16'R@b\x8a\xea?"
p120
tp121
Rp122
ag50
(g54
S'\xde\x9f\x8er\xc3R\xe1?'
p123
tp124
Rp125
ag50
(g54
S'8\x8e\x9a\xb5\xa4\xea\xe4?'
p126
tp127
Rp128
ag50
(g54
S"\xcc'\x1cg~\x99\xe9?"
p129
tp130
Rp131
ag50
(g54
S"\xcc'\x1cg~\x99\xe9?"
p132
tp133
Rp134
ag50
(g54
S"\xcc'\x1cg~\x99\xe9?"
p135
tp136
Rp137
ag50
(g54
S'w\xf1\x92\x16\xe8\x11\xe0?'
p138
tp139
Rp140
ag50
(g54
S'\xc1mZ~\xc4\xa5\xdb?'
p141
tp142
Rp143
ag50
(g54
S"\xcc'\x1cg~\x99\xe9?"
p144
tp145
Rp146
ag50
(g54
S'w\xf1\x92\x16\xe8\x11\xe0?'
p147
tp148
Rp149
ag50
(g54
S'\xa8\xca\xabOG1\xe7?'
p150
tp151
Rp152
ag50
(g54
S'2|%\xdb\xa0\xab\xe9?'
p153
tp154
Rp155
ag50
(g54
S"\xcc'\x1cg~\x99\xe9?"
p156
tp157
Rp158
ag50
(g54
S'\xc6\xd2\xaf\x00 \x87\xed?'
p159
tp160
Rp161
ag50
(g54
S"d\x1a\x84'T\x0e\xe9?"
p162
tp163
Rp164
ag50
(g54
S'2|%\xdb\xa0\xab\xe9?'
p165
tp166
Rp167
ag50
(g54
S'w\xf1\x92\x16\xe8\x11\xe0?'
p168
tp169
Rp170
ag50
(g54
S'\xe9F\x14\xa0\xa4\x1f\xe3?'
p171
tp172
Rp173
ag50
(g54
S'\xa8\xca\xabOG1\xe7?'
p174
tp175
Rp176
ag50
(g54
S'\xde\x9f\x8er\xc3R\xe1?'
p177
tp178
Rp179
ag50
(g54
S'\x9b\x9cnK\xc2\x88\xd6?'
p180
tp181
Rp182
ag50
(g54
S"d\x1a\x84'T\x0e\xe9?"
p183
tp184
Rp185
ag50
(g54
S'\xde\x9f\x8er\xc3R\xe1?'
p186
tp187
Rp188
ag50
(g54
S'8\x8e\x9a\xb5\xa4\xea\xe4?'
p189
tp190
Rp191
asS'sp'
p192
(lp193
(S'p0'
p194
I0
S't'
p195
tp196
a(g194
I0
g195
tp197
ag197
a(g194
I0
g195
tp198
a(g194
I0
S'x'
p199
tp200
a(g194
I0
g199
tp201
a(g194
I0
g195
tp202
ag198
ag197
ag197
a(g194
I0
S'y'
p203
tp204
a(g194
I0
g199
tp205
a(g194
I0
g203
tp206
ag205
ag206
a(g194
I0
g203
tp207
ag196
ag197
ag204
ag196
ag198
ag198
ag200
a(S'p1'
p208
I0
g199
tp209
a(g208
I0
g199
tp210
ag210
ag210
a(g208
I0
g195
tp211
a(g208
I0
g199
tp212
ag210
ag211
a(g208
I0
g203
tp213
a(g208
I0
g199
tp214
ag210
a(g208
I0
g199
tp215
a(g208
I0
g203
tp216
ag214
ag211
a(g208
I0
g195
tp217
ag213
a(g208
I0
g195
tp218
a(g208
F1.5707963267948966
g195
tp219
a(g208
F1.5707963267948966
g199
tp220
a(g208
F1.5707963267948966
g203
tp221
a(S'p2'
p222
F1.5707963267948966
g203
tp223
asS's'
p224
(lp225
(g194
I0
g22
tp226
ag196
ag197
ag197
ag198
ag200
ag201
ag202
ag198
ag197
ag197
ag204
ag205
ag206
ag205
ag206
ag207
ag196
ag197
ag204
ag196
ag198
ag198
ag200
ag209
ag210
ag210
ag210
ag211
ag212
ag210
ag211
ag213
ag214
ag210
ag215
ag216
ag214
ag211
ag217
ag213
ag218
ag219
ag220
ag221
asS'ui'
p227
(lp228
S'hp'
p229
aS'ss'
p230
ag229
aS'hs'
p231
ag229
ag231
ag231
ag229
ag192
ag229
ag229
ag231
ag230
ag231
ag229
ag231
ag231
ag192
ag231
ag231
ag230
ag192
ag231
ag230
ag192
ag231
ag230
ag229
ag229
ag230
ag231
ag192
ag229
ag230
ag229
ag231
ag231
ag231
ag192
ag192
ag229
ag192
ag229
ag230
ag231
asS'um_before'
p232
(lp233
g229
ag192
ag192
ag230
ag229
ag192
ag231
ag230
ag192
ag192
ag231
ag231
ag229
ag231
ag229
ag230
ag229
ag192
ag231
ag229
ag230
ag230
ag229
ag230
ag230
ag230
ag230
ag231
ag229
ag230
ag231
ag231
ag231
ag230
ag192
ag229
ag231
ag231
ag230
ag231
ag229
ag192
ag229
ag229
ag230
asS'um_after'
p234
(lp235
g229
ag192
ag192
ag230
ag229
ag192
ag231
ag230
ag192
ag192
ag231
ag231
ag229
ag231
ag229
ag230
ag229
ag192
ag231
ag229
ag230
ag230
ag229
ag230
ag230
ag230
ag230
ag231
ag229
ag230
ag231
ag231
ag231
ag230
ag192
ag229
ag231
ag231
ag230
ag231
ag229
ag192
ag229
ag229
ag230
asS'is_normalized_entropy_less_than_threshold'
p236
(lp237
g50
(g51
(S'b1'
p238
I0
I1
tp239
Rp240
(I3
S'|'
p241
NNNI-1
I-1
I0
tp242
bS'\x00'
p243
tp244
Rp245
ag245
ag245
ag245
ag245
ag245
ag245
ag245
ag245
ag245
ag245
ag245
ag245
ag245
ag245
ag245
ag245
ag245
ag245
ag245
ag245
ag245
ag245
ag245
ag245
ag245
ag245
ag245
ag50
(g240
S'\x01'
p246
tp247
Rp248
ag245
ag245
ag245
ag245
ag245
ag245
ag245
ag245
ag245
ag245
ag245
ag245
ag248
ag245
ag245
ag245
asaa(lp249
S'index'
p250
aI60501
aatp251
Rp252
.