ccollections
OrderedDict
p0
((lp1
(lp2
S'combination_dict'
p3
ag0
((lp4
(lp5
S'r_to_g_config'
p6
aS'tl'
p7
aa(lp8
S'num_turns'
p9
aI1
aa(lp10
S'start_direction'
p11
acutils_ms
StartDirection
p12
(I1
tp13
Rp14
aa(lp15
S'assistance_type'
p16
acutils_ms
AssistanceType
p17
(I0
tp18
Rp19
aa(lp20
S'start_mode'
p21
aS'x'
p22
aa(lp23
S'ui_given_a_noise'
p24
aF0.3
aa(lp25
S'um_given_ui_noise'
p26
aF0.1
aa(lp27
S'entropy_threshold'
p28
aF0.6
aatp29
Rp30
aa(lp31
S'data'
p32
accollections
defaultdict
p33
(c__builtin__
list
p34
tp35
Rp36
S'a'
p37
(lp38
S'mode_r'
p39
ag39
aS'mode_l'
p40
ag40
ag40
ag40
aS'move_p'
p41
ag39
ag40
ag41
ag39
ag40
ag41
ag41
ag40
ag41
ag39
aS'move_n'
p42
ag39
ag41
ag40
ag40
ag42
asS'assistance_match_with_ground_truth'
p43
(lp44
I00
aI00
aI00
aI00
aI00
aI01
aI00
aI00
aI01
aI01
aI00
aI01
aI00
aI00
aI01
aI01
aI01
aI00
aI01
aI01
aI00
aI01
aI01
asS'is_u_intended_equals_um'
p45
(lp46
I01
aI00
aI01
aI01
aI01
aI01
aI01
aI00
aI01
aI01
aI00
aI01
aI01
aI01
aI01
aI01
aI01
aI00
aI01
aI01
aI01
aI01
aI01
asS'total_steps'
p47
I23
sS'normalized_h_of_p_ui_given_um'
p48
(lp49
cnumpy.core.multiarray
scalar
p50
(cnumpy
dtype
p51
(S'f8'
p52
I0
I1
tp53
Rp54
(I3
S'<'
p55
NNNI-1
I-1
I0
tp56
bS'\xeb\xaf\xbc\x8c\xaf\x08\xdb?'
p57
tp58
Rp59
ag50
(g54
S'o\x9e\xb9\x18\xcbM\xe9?'
p60
tp61
Rp62
ag50
(g54
S'\x8cM\x84qY0\xd9?'
p63
tp64
Rp65
ag50
(g54
S';\x08\x9bD\x05\x07\xc6?'
p66
tp67
Rp68
ag50
(g54
S'\x8cM\x84qY0\xd9?'
p69
tp70
Rp71
ag50
(g54
S'\xbd\xc8f3\xe6\xb2\xc4?'
p72
tp73
Rp74
ag50
(g54
S'\xb4\x0f4\x8d\xb5\x05\xed?'
p75
tp76
Rp77
ag50
(g54
S'o\x9e\xb9\x18\xcbM\xe9?'
p78
tp79
Rp80
ag50
(g54
S'\xbd\xc8f3\xe6\xb2\xc4?'
p81
tp82
Rp83
ag50
(g54
S'`I\x08\xf2\xec\xcc\xb8?'
p84
tp85
Rp86
ag50
(g54
S'o\x9e\xb9\x18\xcbM\xe9?'
p87
tp88
Rp89
ag50
(g54
S'\xbd\xc8f3\xe6\xb2\xc4?'
p90
tp91
Rp92
ag50
(g54
S't\xe4A6\x8b\xd7\xc8?'
p93
tp94
Rp95
ag50
(g54
S'\xa4\xbe^\\\xacD\xdc?'
p96
tp97
Rp98
ag50
(g54
S'\xbd\xc8f3\xe6\xb2\xc4?'
p99
tp100
Rp101
ag50
(g54
S'`I\x08\xf2\xec\xcc\xb8?'
p102
tp103
Rp104
ag50
(g54
S'\xc6\xd8\xe1e\r\x9a\xb3?'
p105
tp106
Rp107
ag50
(g54
S'/H\xcb-\x90X\xe9?'
p108
tp109
Rp110
ag50
(g54
S'\xc6\xd8\xe1e\r\x9a\xb3?'
p111
tp112
Rp113
ag50
(g54
S'`I\x08\xf2\xec\xcc\xb8?'
p114
tp115
Rp116
ag50
(g54
S';\x08\x9bD\x05\x07\xc6?'
p117
tp118
Rp119
ag50
(g54
S'\xbd\xc8f3\xe6\xb2\xc4?'
p120
tp121
Rp122
ag50
(g54
S'\x16\xd3\xcf\xe9\xb0\xf3\x91?'
p123
tp124
Rp125
asS'sp'
p126
(lp127
(S'p0'
p128
I0
S'x'
p129
tp130
a(g128
I0
S't'
p131
tp132
a(g128
I0
g131
tp133
a(g128
I0
g131
tp134
ag133
a(g128
I0
S'y'
p135
tp136
a(g128
I0
g129
tp137
ag132
ag136
a(S'p1'
p138
I0
g135
tp139
a(g138
I0
g129
tp140
a(g138
I0
g131
tp141
a(g138
I0
g131
tp142
a(g138
I0
g129
tp143
ag141
a(g138
F1.5707963267948966
g131
tp144
a(g138
F1.5707963267948966
g129
tp145
a(g128
F1.5707963267948966
g129
tp146
a(g128
F1.5707963267948966
g135
tp147
a(g138
F1.5707963267948966
g135
tp148
a(g138
F1.5707963267948966
g135
tp149
a(g138
F1.5707963267948966
g129
tp150
a(S'p2'
p151
F1.5707963267948966
g129
tp152
asS's'
p153
(lp154
(g128
I0
g22
tp155
ag130
ag132
ag133
ag134
ag133
ag136
ag137
ag132
ag136
ag139
ag140
ag141
ag142
ag143
ag141
ag144
ag145
ag146
ag147
ag148
ag149
ag150
asS'ui'
p156
(lp157
g126
aS'hp'
p158
ag126
aS'hs'
p159
ag126
ag159
ag126
ag158
ag159
ag126
ag159
ag159
aS'ss'
p160
ag158
ag159
ag126
ag158
ag160
ag158
ag126
ag160
ag159
ag160
asS'um_before'
p161
(lp162
g126
ag159
ag126
ag160
ag126
ag159
ag159
ag159
ag159
ag126
ag159
ag159
ag160
ag158
ag159
ag126
ag158
ag126
ag158
ag126
ag160
ag159
ag160
asS'um_after'
p163
(lp164
g126
ag159
ag126
ag160
ag126
ag159
ag159
ag159
ag159
ag126
ag159
ag159
ag160
ag158
ag159
ag126
ag158
ag126
ag158
ag126
ag160
ag159
ag160
asS'is_normalized_entropy_less_than_threshold'
p165
(lp166
g50
(g51
(S'b1'
p167
I0
I1
tp168
Rp169
(I3
S'|'
p170
NNNI-1
I-1
I0
tp171
bS'\x01'
p172
tp173
Rp174
ag50
(g169
S'\x00'
p175
tp176
Rp177
ag174
ag174
ag174
ag174
ag177
ag177
ag174
ag174
ag177
ag174
ag174
ag174
ag174
ag174
ag174
ag177
ag174
ag174
ag174
ag174
ag174
asaa(lp178
S'index'
p179
aI33818
aatp180
Rp181
.