ccollections
OrderedDict
p0
((lp1
(lp2
S'combination_dict'
p3
ag0
((lp4
(lp5
S'r_to_g_config'
p6
aS'bl'
p7
aa(lp8
S'num_turns'
p9
aI1
aa(lp10
S'start_direction'
p11
acutils_ms
StartDirection
p12
(I0
tp13
Rp14
aa(lp15
S'assistance_type'
p16
acutils_ms
AssistanceType
p17
(I2
tp18
Rp19
aa(lp20
S'start_mode'
p21
aS'y'
p22
aa(lp23
S'ui_given_a_noise'
p24
aF0.5
aa(lp25
S'um_given_ui_noise'
p26
aF0.3
aa(lp27
S'entropy_threshold'
p28
aF0.5
aatp29
Rp30
aa(lp31
S'data'
p32
accollections
defaultdict
p33
(c__builtin__
list
p34
tp35
Rp36
S'a'
p37
(lp38
S'mode_l'
p39
ag39
aS'move_n'
p40
ag39
ag39
ag40
ag40
ag39
aS'mode_r'
p41
ag39
ag41
ag39
ag41
ag40
ag39
ag41
aS'move_p'
p42
ag41
ag39
ag39
ag40
ag39
ag40
ag39
ag39
ag42
ag39
ag40
ag39
ag39
ag40
ag41
ag40
ag39
ag39
ag39
ag39
ag39
ag40
ag39
ag40
ag40
ag39
ag39
ag41
ag39
ag40
ag39
ag39
ag41
ag40
ag40
ag41
ag41
ag41
ag40
ag39
ag39
ag40
ag41
ag39
ag40
ag39
ag41
ag41
ag40
ag39
ag39
ag39
ag40
ag39
ag40
ag39
ag39
ag40
ag39
ag39
ag39
ag41
ag41
ag40
ag41
ag41
ag39
ag41
ag40
ag39
ag41
ag40
ag39
ag40
ag41
ag41
ag41
ag40
ag39
ag40
ag41
ag40
ag39
ag41
ag40
asS'assistance_match_with_ground_truth'
p43
(lp44
I00
aI01
aI00
aI00
aI01
aI00
aI01
aI00
aI00
aI00
aI00
aI00
aI01
aI01
aI00
aI01
aI00
aI00
aI00
aI01
aI00
aI01
aI01
aI00
aI01
aI01
aI01
aI00
aI00
aI01
aI01
aI01
aI00
aI00
aI00
aI00
aI00
aI01
aI00
aI01
aI00
aI00
aI00
aI00
aI00
aI01
aI00
aI00
aI00
aI01
aI00
aI00
aI00
aI00
aI01
aI00
aI00
aI01
aI01
aI00
aI01
aI00
aI00
aI00
aI01
aI00
aI00
aI00
aI01
aI00
aI01
aI00
aI00
aI01
aI00
aI00
aI00
aI00
aI00
aI01
aI01
aI00
aI00
aI00
aI01
aI00
aI00
aI01
aI00
aI01
aI01
aI00
aI00
aI01
aI00
aI01
aI01
aI01
aI00
aI00
aI01
aI01
asS'is_u_intended_equals_um'
p45
(lp46
I01
aI01
aI01
aI01
aI01
aI01
aI01
aI01
aI01
aI01
aI01
aI01
aI01
aI01
aI01
aI01
aI01
aI01
aI01
aI01
aI01
aI01
aI01
aI01
aI01
aI01
aI01
aI01
aI01
aI01
aI01
aI01
aI01
aI01
aI01
aI01
aI01
aI01
aI01
aI01
aI01
aI01
aI01
aI01
aI01
aI01
aI01
aI01
aI01
aI01
aI01
aI01
aI01
aI01
aI01
aI01
aI01
aI01
aI01
aI01
aI01
aI01
aI01
aI01
aI01
aI01
aI01
aI01
aI01
aI01
aI01
aI01
aI01
aI01
aI01
aI01
aI01
aI01
aI01
aI01
aI01
aI01
aI01
aI01
aI01
aI01
aI01
aI01
aI01
aI01
aI01
aI01
aI01
aI01
aI01
aI01
aI01
aI01
aI01
aI01
aI01
aI01
asS'total_steps'
p47
I102
sS'normalized_h_of_p_ui_given_um'
p48
(lp49
cnumpy.core.multiarray
scalar
p50
(cnumpy
dtype
p51
(S'f8'
p52
I0
I1
tp53
Rp54
(I3
S'<'
p55
NNNI-1
I-1
I0
tp56
bS'!\xdd\x8f\xb6\xb8w\xd5?'
p57
tp58
Rp59
ag59
ag59
ag59
ag59
ag59
ag59
ag59
ag59
ag59
ag59
ag59
ag59
ag59
ag59
ag59
ag59
ag59
ag59
ag59
ag59
ag59
ag59
ag59
ag59
ag59
ag59
ag59
ag59
ag59
ag59
ag59
ag59
ag59
ag59
ag59
ag59
ag59
ag59
ag59
ag59
ag59
ag59
ag59
ag59
ag59
ag59
ag59
ag59
ag59
ag59
ag59
ag59
ag59
ag59
ag59
ag59
ag59
ag59
ag59
ag59
ag59
ag59
ag59
ag59
ag59
ag59
ag59
ag59
ag59
ag59
ag59
ag59
ag59
ag59
ag59
ag59
ag59
ag59
ag59
ag59
ag59
ag59
ag59
ag59
ag59
ag59
ag59
ag59
ag59
ag59
ag59
ag59
ag59
ag59
ag59
ag59
ag59
ag59
ag59
ag59
ag59
asS'sp'
p60
(lp61
(S'p0'
p62
I0
S'y'
p63
tp64
a(g62
I0
S'x'
p65
tp66
a(g62
I0
g63
tp67
a(g62
I0
g63
tp68
ag66
a(g62
I0
g65
tp69
a(S'p1'
p70
I0
g65
tp71
a(g70
I0
g63
tp72
a(g70
I0
g65
tp73
ag72
a(g62
I0
g63
tp74
a(g62
I0
S't'
p75
tp76
a(g62
I0
g65
tp77
ag71
ag72
a(g70
I0
g75
tp78
a(g70
I0
g63
tp79
ag74
ag68
ag66
ag67
ag66
ag71
a(g70
I0
g65
tp80
a(g70
I0
g75
tp81
a(g70
F1.5707963267948966
g75
tp82
a(g70
F1.5707963267948966
g63
tp83
a(g62
F1.5707963267948966
g63
tp84
a(g62
F1.5707963267948966
g63
tp85
a(g62
F1.5707963267948966
g65
tp86
a(g70
F1.5707963267948966
g65
tp87
a(g70
F1.5707963267948966
g63
tp88
ag84
ag85
a(g62
F1.5707963267948966
g63
tp89
ag85
ag89
ag86
a(g62
F1.5707963267948966
g63
tp90
ag86
a(g62
F1.5707963267948966
g65
tp91
ag90
ag89
a(g62
F1.5707963267948966
g75
tp92
a(g62
F1.5707963267948966
g63
tp93
ag86
ag90
ag89
ag92
a(g62
F1.5707963267948966
g65
tp94
ag91
a(g62
F1.5707963267948966
g75
tp95
a(g62
F1.5707963267948966
g75
tp96
a(g62
F1.5707963267948966
g75
tp97
ag94
ag90
ag85
ag86
ag87
a(g70
F1.5707963267948966
g75
tp98
ag83
ag84
ag92
ag97
ag94
ag90
ag85
ag89
ag86
ag90
ag86
ag90
ag85
ag86
ag90
ag85
ag85
ag92
ag97
ag94
ag87
a(g70
F1.5707963267948966
g65
tp99
ag98
a(g70
F1.5707963267948966
g65
tp100
ag88
a(g70
F1.5707963267948966
g75
tp101
ag100
ag88
ag84
ag86
ag87
ag99
a(g70
F1.5707963267948966
g65
tp102
ag88
ag84
ag86
ag87
ag88
ag101
ag100
ag88
a(S'p2'
p103
F1.5707963267948966
g63
tp104
asS's'
p105
(lp106
(g62
I0
g22
tp107
ag64
ag66
ag67
ag68
ag66
ag69
ag71
ag72
ag73
ag72
ag74
ag76
ag77
ag71
ag72
ag78
ag79
ag74
ag68
ag66
ag67
ag66
ag71
ag80
ag81
ag82
ag83
ag84
ag85
ag86
ag87
ag88
ag84
ag85
ag89
ag85
ag89
ag86
ag90
ag86
ag91
ag90
ag89
ag92
ag93
ag86
ag90
ag89
ag92
ag94
ag91
ag95
ag96
ag97
ag94
ag90
ag85
ag86
ag87
ag98
ag83
ag84
ag92
ag97
ag94
ag90
ag85
ag89
ag86
ag90
ag86
ag90
ag85
ag86
ag90
ag85
ag85
ag92
ag97
ag94
ag87
ag99
ag98
ag100
ag88
ag101
ag100
ag88
ag84
ag86
ag87
ag99
ag102
ag88
ag84
ag86
ag87
ag88
ag101
ag100
ag88
asS'ui'
p108
(lp109
g60
aS'ss'
p110
aS'hp'
p111
ag110
aS'hs'
p112
ag110
ag110
ag110
ag112
ag112
ag60
ag111
ag111
ag110
ag111
ag111
ag112
ag60
ag112
ag112
ag111
ag112
ag110
ag60
ag112
ag60
ag112
ag60
ag112
ag112
ag110
ag111
ag110
ag110
ag110
ag110
ag60
ag110
ag111
ag112
ag60
ag111
ag60
ag111
ag112
ag112
ag60
ag111
ag110
ag111
ag110
ag112
ag110
ag60
ag111
ag110
ag110
ag112
ag110
ag112
ag112
ag60
ag111
ag111
ag110
ag111
ag110
ag60
ag112
ag111
ag112
ag110
ag110
ag110
ag111
ag112
ag112
ag111
ag60
ag111
ag110
ag111
ag60
ag112
ag111
ag111
ag111
ag111
ag110
ag112
ag110
ag60
ag112
ag111
ag60
ag112
ag110
ag111
ag110
ag111
ag111
ag110
asS'um_before'
p113
(lp114
g60
ag112
ag111
ag110
ag112
ag60
ag110
ag111
ag112
ag111
ag60
ag111
ag111
ag110
ag111
ag111
ag112
ag60
ag110
ag112
ag111
ag112
ag110
ag60
ag112
ag60
ag112
ag60
ag110
ag112
ag110
ag111
ag60
ag110
ag60
ag110
ag60
ag112
ag111
ag112
ag60
ag111
ag60
ag111
ag112
ag112
ag111
ag60
ag111
ag111
ag60
ag112
ag110
ag60
ag111
ag111
ag110
ag112
ag110
ag112
ag112
ag60
ag111
ag60
ag111
ag111
ag110
ag60
ag112
ag111
ag112
ag111
ag110
ag112
ag111
ag110
ag110
ag111
ag60
ag111
ag110
ag60
ag112
ag111
ag111
ag111
ag111
ag111
ag60
ag112
ag110
ag60
ag110
ag111
ag60
ag112
ag110
ag111
ag111
ag111
ag111
ag110
asS'um_after'
p115
(lp116
g60
ag112
ag111
ag110
ag112
ag60
ag110
ag111
ag112
ag111
ag60
ag111
ag111
ag110
ag111
ag111
ag112
ag60
ag110
ag112
ag111
ag112
ag110
ag60
ag112
ag60
ag112
ag60
ag110
ag112
ag110
ag111
ag60
ag110
ag60
ag110
ag60
ag112
ag111
ag112
ag60
ag111
ag60
ag111
ag112
ag112
ag111
ag60
ag111
ag111
ag60
ag112
ag110
ag60
ag111
ag111
ag110
ag112
ag110
ag112
ag112
ag60
ag111
ag60
ag111
ag111
ag110
ag60
ag112
ag111
ag112
ag111
ag110
ag112
ag111
ag110
ag110
ag111
ag60
ag111
ag110
ag60
ag112
ag111
ag111
ag111
ag111
ag111
ag60
ag112
ag110
ag60
ag110
ag111
ag60
ag112
ag110
ag111
ag111
ag111
ag111
ag110
asS'is_normalized_entropy_less_than_threshold'
p117
(lp118
g50
(g51
(S'b1'
p119
I0
I1
tp120
Rp121
(I3
S'|'
p122
NNNI-1
I-1
I0
tp123
bS'\x01'
p124
tp125
Rp126
ag126
ag126
ag126
ag126
ag126
ag126
ag126
ag126
ag126
ag126
ag126
ag126
ag126
ag126
ag126
ag126
ag126
ag126
ag126
ag126
ag126
ag126
ag126
ag126
ag126
ag126
ag126
ag126
ag126
ag126
ag126
ag126
ag126
ag126
ag126
ag126
ag126
ag126
ag126
ag126
ag126
ag126
ag126
ag126
ag126
ag126
ag126
ag126
ag126
ag126
ag126
ag126
ag126
ag126
ag126
ag126
ag126
ag126
ag126
ag126
ag126
ag126
ag126
ag126
ag126
ag126
ag126
ag126
ag126
ag126
ag126
ag126
ag126
ag126
ag126
ag126
ag126
ag126
ag126
ag126
ag126
ag126
ag126
ag126
ag126
ag126
ag126
ag126
ag126
ag126
ag126
ag126
ag126
ag126
ag126
ag126
ag126
ag126
ag126
ag126
ag126
asaa(lp127
S'index'
p128
aI62052
aatp129
Rp130
.