ccollections
OrderedDict
p0
((lp1
(lp2
S'combination_dict'
p3
ag0
((lp4
(lp5
S'r_to_g_config'
p6
aS'tr'
p7
aa(lp8
S'num_turns'
p9
aI1
aa(lp10
S'start_direction'
p11
acutils_ms
StartDirection
p12
(I1
tp13
Rp14
aa(lp15
S'assistance_type'
p16
acutils_ms
AssistanceType
p17
(I0
tp18
Rp19
aa(lp20
S'start_mode'
p21
aS't'
p22
aa(lp23
S'ui_given_a_noise'
p24
aF0.5
aa(lp25
S'um_given_ui_noise'
p26
aF0.1
aa(lp27
S'entropy_threshold'
p28
aF0.8
aatp29
Rp30
aa(lp31
S'data'
p32
accollections
defaultdict
p33
(c__builtin__
list
p34
tp35
Rp36
S'a'
p37
(lp38
S'mode_l'
p39
ag39
aS'mode_r'
p40
ag40
aS'move_p'
p41
ag40
ag40
ag40
ag41
ag39
ag39
ag39
ag41
ag39
ag39
ag41
ag40
ag40
ag41
ag40
ag40
ag40
ag41
ag40
ag41
ag40
ag41
ag39
ag40
ag41
ag40
ag40
ag40
ag41
ag41
ag40
ag41
ag39
ag41
ag40
ag41
ag39
ag41
ag39
ag40
ag41
ag40
ag40
ag41
ag40
ag40
ag40
ag40
ag41
ag40
ag41
asS'assistance_match_with_ground_truth'
p42
(lp43
I00
aI00
aI00
aI01
aI00
aI00
aI00
aI01
aI00
aI00
aI00
aI01
aI00
aI00
aI01
aI00
aI00
aI01
aI01
aI00
aI00
aI01
aI01
aI01
aI00
aI01
aI01
aI00
aI00
aI00
aI00
aI00
aI01
aI00
aI01
aI00
aI00
aI01
aI00
aI01
aI00
aI01
aI00
aI00
aI01
aI00
aI00
aI01
aI00
aI00
aI00
aI00
aI01
aI01
aI01
aI01
asS'is_u_intended_equals_um'
p44
(lp45
I01
aI01
aI01
aI01
aI01
aI00
aI01
aI01
aI01
aI01
aI01
aI01
aI01
aI01
aI01
aI01
aI01
aI01
aI01
aI01
aI01
aI01
aI01
aI01
aI01
aI01
aI01
aI01
aI01
aI01
aI01
aI00
aI01
aI01
aI01
aI01
aI01
aI01
aI01
aI01
aI01
aI01
aI01
aI01
aI01
aI01
aI01
aI01
aI01
aI01
aI00
aI01
aI01
aI01
aI01
aI01
asS'total_steps'
p46
I56
sS'normalized_h_of_p_ui_given_um'
p47
(lp48
cnumpy.core.multiarray
scalar
p49
(cnumpy
dtype
p50
(S'f8'
p51
I0
I1
tp52
Rp53
(I3
S'<'
p54
NNNI-1
I-1
I0
tp55
bS'} \x82k\xf7\x8c\xd9?'
p56
tp57
Rp58
ag49
(g53
S'\x82;\x08\x1e\xfb\xd6\xd3?'
p59
tp60
Rp61
ag49
(g53
S'3\xa4BW\x18\xe2\xdd?'
p62
tp63
Rp64
ag49
(g53
S'\x92rB\x0b~\xd6\xc3?'
p65
tp66
Rp67
ag49
(g53
S'6\x9f\x95\x07m@\xd3?'
p68
tp69
Rp70
ag49
(g53
S'\xec\xc1g\x9f\\E\xdb?'
p71
tp72
Rp73
ag49
(g53
S'3\xa4BW\x18\xe2\xdd?'
p74
tp75
Rp76
ag49
(g53
S'\x92rB\x0b~\xd6\xc3?'
p77
tp78
Rp79
ag49
(g53
S'Rn\xc3\xd9FK\xdc?'
p80
tp81
Rp82
ag49
(g53
S'} \x82k\xf7\x8c\xd9?'
p83
tp84
Rp85
ag49
(g53
S"\x8c'f\xd0\xa9\x83\xe4?"
p86
tp87
Rp88
ag49
(g53
S'\xcef\x88\x02\x18}\xbc?'
p89
tp90
Rp91
ag49
(g53
S'Rn\xc3\xd9FK\xdc?'
p92
tp93
Rp94
ag49
(g53
S'} \x82k\xf7\x8c\xd9?'
p95
tp96
Rp97
ag49
(g53
S'\xcef\x88\x02\x18}\xbc?'
p98
tp99
Rp100
ag49
(g53
S'6\x9f\x95\x07m@\xd3?'
p101
tp102
Rp103
ag49
(g53
S'3\xa4BW\x18\xe2\xdd?'
p104
tp105
Rp106
ag49
(g53
S'\x92rB\x0b~\xd6\xc3?'
p107
tp108
Rp109
ag49
(g53
S'\x7fO\xa5\xce\xbf\xdd\xc2?'
p110
tp111
Rp112
ag49
(g53
S'\x94\xa7\x1c\x04 \xe4\xd2?'
p113
tp114
Rp115
ag49
(g53
S'3\xa4BW\x18\xe2\xdd?'
p116
tp117
Rp118
ag49
(g53
S'\x92rB\x0b~\xd6\xc3?'
p119
tp120
Rp121
ag49
(g53
S'\x7fO\xa5\xce\xbf\xdd\xc2?'
p122
tp123
Rp124
ag49
(g53
S'\x92rB\x0b~\xd6\xc3?'
p125
tp126
Rp127
ag49
(g53
S'Zg\xf2\x01\x00\xef\xe1?'
p128
tp129
Rp130
ag49
(g53
S'\x92rB\x0b~\xd6\xc3?'
p131
tp132
Rp133
ag49
(g53
S'\x7fO\xa5\xce\xbf\xdd\xc2?'
p134
tp135
Rp136
ag49
(g53
S'\x82;\x08\x1e\xfb\xd6\xd3?'
p137
tp138
Rp139
ag49
(g53
S'3\xa4BW\x18\xe2\xdd?'
p140
tp141
Rp142
ag49
(g53
S'6\x9f\x95\x07m@\xd3?'
p143
tp144
Rp145
ag49
(g53
S'3\xa4BW\x18\xe2\xdd?'
p146
tp147
Rp148
ag49
(g53
S'\xec\xc1g\x9f\\E\xdb?'
p149
tp150
Rp151
ag49
(g53
S'\x92rB\x0b~\xd6\xc3?'
p152
tp153
Rp154
ag49
(g53
S'Zg\xf2\x01\x00\xef\xe1?'
p155
tp156
Rp157
ag49
(g53
S'\x7fO\xa5\xce\xbf\xdd\xc2?'
p158
tp159
Rp160
ag49
(g53
S'3\xa4BW\x18\xe2\xdd?'
p161
tp162
Rp163
ag49
(g53
S'Rn\xc3\xd9FK\xdc?'
p164
tp165
Rp166
ag49
(g53
S'\xcef\x88\x02\x18}\xbc?'
p167
tp168
Rp169
ag49
(g53
S'6\x9f\x95\x07m@\xd3?'
p170
tp171
Rp172
ag49
(g53
S'\x92rB\x0b~\xd6\xc3?'
p173
tp174
Rp175
ag49
(g53
S'Rn\xc3\xd9FK\xdc?'
p176
tp177
Rp178
ag49
(g53
S'\xcef\x88\x02\x18}\xbc?'
p179
tp180
Rp181
ag49
(g53
S'Rn\xc3\xd9FK\xdc?'
p182
tp183
Rp184
ag49
(g53
S'\x82;\x08\x1e\xfb\xd6\xd3?'
p185
tp186
Rp187
ag49
(g53
S'\x92rB\x0b~\xd6\xc3?'
p188
tp189
Rp190
ag49
(g53
S'6\x9f\x95\x07m@\xd3?'
p191
tp192
Rp193
ag49
(g53
S'\x94\xa7\x1c\x04 \xe4\xd2?'
p194
tp195
Rp196
ag49
(g53
S'\x92rB\x0b~\xd6\xc3?'
p197
tp198
Rp199
ag49
(g53
S'6\x9f\x95\x07m@\xd3?'
p200
tp201
Rp202
ag49
(g53
S'\x94\xa7\x1c\x04 \xe4\xd2?'
p203
tp204
Rp205
ag49
(g53
S'\xec\xc1g\x9f\\E\xdb?'
p206
tp207
Rp208
ag49
(g53
S'3\xa4BW\x18\xe2\xdd?'
p209
tp210
Rp211
ag49
(g53
S'\x92rB\x0b~\xd6\xc3?'
p212
tp213
Rp214
ag49
(g53
S'\x7fO\xa5\xce\xbf\xdd\xc2?'
p215
tp216
Rp217
ag49
(g53
S'\x92rB\x0b~\xd6\xc3?'
p218
tp219
Rp220
ag49
(g53
S'\x7fO\xa5\xce\xbf\xdd\xc2?'
p221
tp222
Rp223
asS'sp'
p224
(lp225
(S'p0'
p226
I0
S't'
p227
tp228
a(g226
I0
S'x'
p229
tp230
a(g226
I0
g229
tp231
a(g226
I0
S'y'
p232
tp233
a(g226
I0
g229
tp234
ag234
ag231
ag233
a(g226
I0
g227
tp235
ag228
a(g226
I0
g227
tp236
a(g226
I0
g232
tp237
ag235
ag228
ag237
ag234
ag231
ag233
a(S'p1'
p238
I0
g232
tp239
a(g238
I0
g232
tp240
a(g238
I0
g232
tp241
a(g238
I0
g227
tp242
a(g238
F1.5707963267948966
g227
tp243
a(g238
F1.5707963267948966
g229
tp244
a(g226
F1.5707963267948966
g229
tp245
a(g226
F1.5707963267948966
g232
tp246
a(g238
F1.5707963267948966
g232
tp247
a(g238
F1.5707963267948966
g227
tp248
a(g238
I0
g227
tp249
a(g238
I0
g232
tp250
ag241
ag241
ag242
a(g238
I0
g227
tp251
ag243
ag249
a(g238
I0
g229
tp252
a(g238
I0
g227
tp253
ag250
ag242
ag252
ag253
ag252
a(g238
I0
g232
tp254
ag242
ag250
ag240
ag242
ag250
ag240
ag240
ag241
ag242
ag243
ag244
a(S'p2'
p255
F1.5707963267948966
g229
tp256
asS's'
p257
(lp258
(g226
I0
g22
tp259
ag228
ag230
ag231
ag233
ag234
ag234
ag231
ag233
ag235
ag228
ag236
ag237
ag235
ag228
ag237
ag234
ag231
ag233
ag239
ag240
ag241
ag242
ag243
ag244
ag245
ag246
ag247
ag248
ag249
ag250
ag241
ag241
ag242
ag251
ag243
ag249
ag252
ag253
ag250
ag242
ag252
ag253
ag252
ag254
ag242
ag250
ag240
ag242
ag250
ag240
ag240
ag241
ag242
ag243
ag244
asS'ui'
p260
(lp261
g224
ag224
aS'ss'
p262
aS'hp'
p263
aS'hs'
p264
ag263
ag262
ag262
ag263
ag224
ag262
ag264
ag263
ag224
ag264
ag264
ag262
ag263
ag224
ag224
ag263
ag263
ag224
ag263
ag262
ag263
ag224
ag263
ag262
ag264
ag262
ag263
ag263
ag262
ag224
ag262
ag224
ag264
ag264
ag263
ag224
ag264
ag263
ag263
ag263
ag263
ag224
ag263
ag264
ag263
ag263
ag262
ag263
ag224
ag263
ag224
asS'um_before'
p265
(lp266
g224
ag263
ag262
ag263
ag264
ag264
ag262
ag263
ag263
ag224
ag262
ag264
ag263
ag224
ag264
ag264
ag262
ag263
ag224
ag224
ag262
ag263
ag224
ag263
ag262
ag263
ag224
ag263
ag262
ag264
ag262
ag264
ag263
ag262
ag224
ag262
ag263
ag264
ag264
ag263
ag263
ag264
ag263
ag263
ag263
ag264
ag224
ag263
ag264
ag224
ag264
ag262
ag263
ag224
ag263
ag224
asS'um_after'
p267
(lp268
g224
ag263
ag262
ag263
ag264
aNag262
ag263
ag263
ag224
ag262
ag264
ag263
ag224
ag264
ag264
ag262
ag263
ag224
ag224
ag262
ag263
ag224
ag263
ag262
ag263
ag224
ag263
ag262
ag264
ag262
aNag263
ag262
ag224
ag262
ag263
ag264
ag264
ag263
ag263
ag264
ag263
ag263
ag263
ag264
ag224
ag263
ag264
ag224
aNag262
ag263
ag224
ag263
ag224
asS'is_normalized_entropy_less_than_threshold'
p269
(lp270
g49
(g50
(S'b1'
p271
I0
I1
tp272
Rp273
(I3
S'|'
p274
NNNI-1
I-1
I0
tp275
bS'\x01'
p276
tp277
Rp278
ag278
ag278
ag278
ag278
ag278
ag278
ag278
ag278
ag278
ag278
ag278
ag278
ag278
ag278
ag278
ag278
ag278
ag278
ag278
ag278
ag278
ag278
ag278
ag278
ag278
ag278
ag278
ag278
ag278
ag278
ag278
ag278
ag278
ag278
ag278
ag278
ag278
ag278
ag278
ag278
ag278
ag278
ag278
ag278
ag278
ag278
ag278
ag278
ag278
ag278
ag278
ag278
ag278
ag278
ag278
asaa(lp279
S'index'
p280
aI6034
aatp281
Rp282
.