ccollections
OrderedDict
p0
((lp1
(lp2
S'combination_dict'
p3
ag0
((lp4
(lp5
S'r_to_g_config'
p6
aS'tl'
p7
aa(lp8
S'num_turns'
p9
aI3
aa(lp10
S'start_direction'
p11
acutils_ms
StartDirection
p12
(I0
tp13
Rp14
aa(lp15
S'assistance_type'
p16
acutils_ms
AssistanceType
p17
(I0
tp18
Rp19
aa(lp20
S'start_mode'
p21
aS't'
p22
aa(lp23
S'ui_given_a_noise'
p24
aF0.3
aa(lp25
S'um_given_ui_noise'
p26
aF0.7
aa(lp27
S'entropy_threshold'
p28
aF0.9
aatp29
Rp30
aa(lp31
S'data'
p32
accollections
defaultdict
p33
(c__builtin__
list
p34
tp35
Rp36
S'a'
p37
(lp38
S'mode_r'
p39
ag39
aS'move_n'
p40
ag39
ag39
ag39
ag39
aS'move_p'
p41
ag41
ag39
ag39
ag39
ag41
ag39
ag41
ag41
ag41
ag41
ag41
ag41
ag39
ag40
ag39
ag41
ag41
ag41
ag41
asS'assistance_match_with_ground_truth'
p42
(lp43
I00
aI01
aI01
aI00
aI00
aI00
aI01
aI00
aI00
aI00
aI00
aI01
aI01
aI01
aI00
aI00
aI00
aI00
aI00
aI01
aI01
aI01
aI01
aI00
aI00
aI00
aI01
asS'is_u_intended_equals_um'
p44
(lp45
I00
aI01
aI01
aI00
aI00
aI00
aI01
aI00
aI01
aI00
aI00
aI01
aI01
aI01
aI00
aI01
aI00
aI00
aI00
aI01
aI01
aI01
aI01
aI00
aI00
aI00
aI01
asS'total_steps'
p46
I27
sS'normalized_h_of_p_ui_given_um'
p47
(lp48
cnumpy.core.multiarray
scalar
p49
(cnumpy
dtype
p50
(S'f8'
p51
I0
I1
tp52
Rp53
(I3
S'<'
p54
NNNI-1
I-1
I0
tp55
bS'\x12 \x048\x8et\xd8?'
p56
tp57
Rp58
ag49
(g53
S'\xcc\xbe\xdd\xad\xb4U\xde?'
p59
tp60
Rp61
ag49
(g53
S'5\x16\x8d\xc4\x910\xdb?'
p62
tp63
Rp64
ag49
(g53
S'\x05\x03C\xe5kZ\xdf?'
p65
tp66
Rp67
ag49
(g53
S'\x05\x03C\xe5kZ\xdf?'
p68
tp69
Rp70
ag49
(g53
S'\x05\x03C\xe5kZ\xdf?'
p71
tp72
Rp73
ag49
(g53
S'\xcc\xbe\xdd\xad\xb4U\xde?'
p74
tp75
Rp76
ag49
(g53
S'\x86\x7f\x92\x08\x06\x8f\xe9?'
p77
tp78
Rp79
ag49
(g53
S'\x91\xd3\x98\x88?\xc3\xec?'
p80
tp81
Rp82
ag49
(g53
S'\x12 \x048\x8et\xd8?'
p83
tp84
Rp85
ag49
(g53
S'\x17\xddc4\xab\x11\xe1?'
p86
tp87
Rp88
ag49
(g53
S'\xcc\xbe\xdd\xad\xb4U\xde?'
p89
tp90
Rp91
ag49
(g53
S'S&\xc4\xa2\xac\xfc\xdc?'
p92
tp93
Rp94
ag49
(g53
S'\xcc\xbe\xdd\xad\xb4U\xde?'
p95
tp96
Rp97
ag49
(g53
S'\x86\x7f\x92\x08\x06\x8f\xe9?'
p98
tp99
Rp100
ag49
(g53
S'\x1c\xcc\xee@\xa97\xef?'
p101
tp102
Rp103
ag49
(g53
S'\x86\x7f\x92\x08\x06\x8f\xe9?'
p104
tp105
Rp106
ag49
(g53
S'\x86\x7f\x92\x08\x06\x8f\xe9?'
p107
tp108
Rp109
ag49
(g53
S'\x86\x7f\x92\x08\x06\x8f\xe9?'
p110
tp111
Rp112
ag49
(g53
S'S&\xc4\xa2\xac\xfc\xdc?'
p113
tp114
Rp115
ag49
(g53
S'\xcc\xbe\xdd\xad\xb4U\xde?'
p116
tp117
Rp118
ag49
(g53
S'5\x16\x8d\xc4\x910\xdb?'
p119
tp120
Rp121
ag49
(g53
S'\xcc\xbe\xdd\xad\xb4U\xde?'
p122
tp123
Rp124
ag49
(g53
S'\x86\x7f\x92\x08\x06\x8f\xe9?'
p125
tp126
Rp127
ag49
(g53
S'\x86\x7f\x92\x08\x06\x8f\xe9?'
p128
tp129
Rp130
ag49
(g53
S'\x86\x7f\x92\x08\x06\x8f\xe9?'
p131
tp132
Rp133
ag49
(g53
S'S&\xc4\xa2\xac\xfc\xdc?'
p134
tp135
Rp136
asS'sp'
p137
(lp138
(S'p0'
p139
I0
g22
tp140
a(g139
I0
S'x'
p141
tp142
a(S'p1'
p143
I0
g141
tp144
ag144
ag144
ag144
a(g143
I0
S'y'
p145
tp146
ag146
a(g143
I0
g141
tp147
ag147
ag147
ag146
a(S'p2'
p148
I0
g145
tp149
a(g148
I0
S't'
p150
tp151
ag151
a(g148
I0
g150
tp152
ag152
ag152
ag152
a(g148
F1.5707963267948966
g150
tp153
a(g148
F1.5707963267948966
g141
tp154
a(S'p3'
p155
F1.5707963267948966
g141
tp156
a(g155
F1.5707963267948966
g145
tp157
ag157
ag157
ag157
a(S'p4'
p158
F1.5707963267948966
g145
tp159
asS's'
p160
(lp161
g140
ag140
ag142
ag144
ag144
ag144
ag144
ag146
ag146
ag147
ag147
ag147
ag146
ag149
ag151
ag151
ag152
ag152
ag152
ag152
ag153
ag154
ag156
ag157
ag157
ag157
ag157
asS'ui'
p162
(lp163
S'hp'
p164
ag164
aS'ss'
p165
ag164
ag137
ag137
ag137
ag137
aS'hs'
p166
ag164
ag164
ag164
ag137
ag164
ag164
ag165
ag164
ag137
ag165
ag137
ag164
ag165
ag164
ag164
ag137
ag137
ag137
asS'um_before'
p167
(lp168
g165
ag164
ag165
ag137
ag137
ag137
ag164
ag164
ag166
ag165
ag166
ag164
ag137
ag164
ag164
ag165
ag164
ag164
ag164
ag137
ag164
ag165
ag164
ag164
ag164
ag164
ag137
asS'um_after'
p169
(lp170
Nag164
ag165
aNaNaNag164
aNag166
aNaNag164
ag137
ag164
aNag165
aNaNaNag137
ag164
ag165
ag164
aNaNaNag137
asS'is_normalized_entropy_less_than_threshold'
p171
(lp172
g49
(g50
(S'b1'
p173
I0
I1
tp174
Rp175
(I3
S'|'
p176
NNNI-1
I-1
I0
tp177
bS'\x01'
p178
tp179
Rp180
ag180
ag180
ag180
ag180
ag180
ag180
ag180
ag180
ag180
ag180
ag180
ag180
ag180
ag180
ag49
(g175
S'\x00'
p181
tp182
Rp183
ag180
ag180
ag180
ag180
ag180
ag180
ag180
ag180
ag180
ag180
ag180
asaa(lp184
S'index'
p185
aI48397
aatp186
Rp187
.