ccollections
OrderedDict
p0
((lp1
(lp2
S'combination_dict'
p3
ag0
((lp4
(lp5
S'r_to_g_config'
p6
aS'br'
p7
aa(lp8
S'num_turns'
p9
aI2
aa(lp10
S'start_direction'
p11
acutils_ms
StartDirection
p12
(I1
tp13
Rp14
aa(lp15
S'assistance_type'
p16
acutils_ms
AssistanceType
p17
(I0
tp18
Rp19
aa(lp20
S'start_mode'
p21
aS't'
p22
aa(lp23
S'ui_given_a_noise'
p24
aF0.5
aa(lp25
S'um_given_ui_noise'
p26
aF0.3
aa(lp27
S'entropy_threshold'
p28
aF0.6
aatp29
Rp30
aa(lp31
S'data'
p32
accollections
defaultdict
p33
(c__builtin__
list
p34
tp35
Rp36
S'a'
p37
(lp38
S'mode_l'
p39
ag39
aS'move_n'
p40
ag39
ag40
ag39
ag39
aS'mode_r'
p41
ag39
ag39
ag41
aS'move_p'
p42
ag39
ag39
ag39
ag39
ag42
ag42
ag42
ag41
ag42
ag39
ag40
ag39
ag42
ag41
ag39
ag40
ag39
ag42
ag41
ag39
ag40
ag39
ag40
ag39
ag42
ag41
ag41
ag41
ag39
ag40
asS'assistance_match_with_ground_truth'
p43
(lp44
I00
aI01
aI00
aI01
aI01
aI00
aI00
aI00
aI00
aI00
aI01
aI01
aI00
aI00
aI00
aI01
aI00
aI00
aI00
aI01
aI01
aI01
aI00
aI01
aI00
aI00
aI01
aI01
aI01
aI01
aI00
aI01
aI00
aI01
aI00
aI01
aI01
aI00
aI00
aI00
aI01
aI01
asS'is_u_intended_equals_um'
p45
(lp46
I01
aI01
aI01
aI01
aI01
aI01
aI01
aI01
aI01
aI01
aI01
aI01
aI01
aI01
aI01
aI01
aI00
aI00
aI00
aI01
aI01
aI01
aI01
aI01
aI01
aI01
aI01
aI01
aI01
aI01
aI01
aI01
aI01
aI01
aI01
aI01
aI01
aI01
aI01
aI01
aI01
aI01
asS'total_steps'
p47
I42
sS'normalized_h_of_p_ui_given_um'
p48
(lp49
cnumpy.core.multiarray
scalar
p50
(cnumpy
dtype
p51
(S'f8'
p52
I0
I1
tp53
Rp54
(I3
S'<'
p55
NNNI-1
I-1
I0
tp56
bS'\xbef\xbbRF\t\xe6?'
p57
tp58
Rp59
ag50
(g54
S'p\x19\xddNs8\xc6?'
p60
tp61
Rp62
ag50
(g54
S'& SXZ\xb1\xe5?'
p63
tp64
Rp65
ag50
(g54
S'p\x19\xddNs8\xc6?'
p66
tp67
Rp68
ag50
(g54
S'\x00\x07|\xb5\x89)\xb3?'
p69
tp70
Rp71
ag50
(g54
S'\xbef\xbbRF\t\xe6?'
p72
tp73
Rp74
ag50
(g54
S'\xb7cT\xcf0\xe3\xe6?'
p75
tp76
Rp77
ag50
(g54
S'`N\xf4@\xa3\x0b\xe7?'
p78
tp79
Rp80
ag50
(g54
S'\xbef\xbbRF\t\xe6?'
p81
tp82
Rp83
ag50
(g54
S'\xb7cT\xcf0\xe3\xe6?'
p84
tp85
Rp86
ag50
(g54
S'\xa6*\x1d\xbaQV\xd3?'
p87
tp88
Rp89
ag50
(g54
S'\xa1P\xf2\xef9\xd6\xc4?'
p90
tp91
Rp92
ag50
(g54
S'Q\xd0\x03\xb5\x9e\xa5\xe1?'
p93
tp94
Rp95
ag50
(g54
S'Q\xd0\x03\xb5\x9e\xa5\xe1?'
p96
tp97
Rp98
ag50
(g54
S'\xbef\xbbRF\t\xe6?'
p99
tp100
Rp101
ag50
(g54
S'p\x19\xddNs8\xc6?'
p102
tp103
Rp104
ag50
(g54
S'\\\xb5\xf8\xc0\x917\xe2?'
p105
tp106
Rp107
ag50
(g54
S'\\\xb5\xf8\xc0\x917\xe2?'
p108
tp109
Rp110
ag50
(g54
S'0J\x83\xf44t\xe7?'
p111
tp112
Rp113
ag50
(g54
S'\xa6*\x1d\xbaQV\xd3?'
p114
tp115
Rp116
ag50
(g54
S'\xa1P\xf2\xef9\xd6\xc4?'
p117
tp118
Rp119
ag50
(g54
S'p\x19\xddNs8\xc6?'
p120
tp121
Rp122
ag50
(g54
S'\xbc\x9dd\x94\xc4.\xe7?'
p123
tp124
Rp125
ag50
(g54
S'p\x19\xddNs8\xc6?'
p126
tp127
Rp128
ag50
(g54
S'\xe5\x9dj\x0f\x8e\xe1\xcc?'
p129
tp130
Rp131
ag50
(g54
S'`N\xf4@\xa3\x0b\xe7?'
p132
tp133
Rp134
ag50
(g54
S'p\x19\xddNs8\xc6?'
p135
tp136
Rp137
ag50
(g54
S'\x00\x07|\xb5\x89)\xb3?'
p138
tp139
Rp140
ag50
(g54
S'p\x19\xddNs8\xc6?'
p141
tp142
Rp143
ag50
(g54
S'\xa1P\xf2\xef9\xd6\xc4?'
p144
tp145
Rp146
ag50
(g54
S'`N\xf4@\xa3\x0b\xe7?'
p147
tp148
Rp149
ag50
(g54
S'p\x19\xddNs8\xc6?'
p150
tp151
Rp152
ag50
(g54
S'& SXZ\xb1\xe5?'
p153
tp154
Rp155
ag50
(g54
S'p\x19\xddNs8\xc6?'
p156
tp157
Rp158
ag50
(g54
S'\xbc\x9dd\x94\xc4.\xe7?'
p159
tp160
Rp161
ag50
(g54
S'p\x19\xddNs8\xc6?'
p162
tp163
Rp164
ag50
(g54
S'\xa1P\xf2\xef9\xd6\xc4?'
p165
tp166
Rp167
ag50
(g54
S'\xc4\x0c\x97\x1c\x90.\xe8?'
p168
tp169
Rp170
ag50
(g54
S'\x9c9\x8c\xe9\x8a\x89\xbc?'
p171
tp172
Rp173
ag50
(g54
S'`N\xf4@\xa3\x0b\xe7?'
p174
tp175
Rp176
ag50
(g54
S'p\x19\xddNs8\xc6?'
p177
tp178
Rp179
ag50
(g54
S'\x00\x07|\xb5\x89)\xb3?'
p180
tp181
Rp182
asS'sp'
p183
(lp184
(S'p0'
p185
I0
S't'
p186
tp187
a(g185
I0
S'y'
p188
tp189
a(g185
I0
g186
tp190
ag189
a(S'p1'
p191
I0
g188
tp192
a(g191
I0
g188
tp193
a(g191
I0
g186
tp194
a(g191
I0
g188
tp195
ag193
ag194
a(g191
I0
S'x'
p196
tp197
a(S'p2'
p198
I0
g196
tp199
a(g198
I0
g196
tp200
ag200
a(g198
I0
g196
tp201
a(g198
I0
g186
tp202
ag202
ag202
a(g198
I0
g188
tp203
a(g198
I0
g186
tp204
a(g198
F1.5707963267948966
g186
tp205
a(g198
F1.5707963267948966
g188
tp206
a(g191
F1.5707963267948966
g188
tp207
a(g191
F1.5707963267948966
g196
tp208
a(g185
F1.5707963267948966
g196
tp209
a(g185
F1.5707963267948966
g186
tp210
a(g185
F1.5707963267948966
g188
tp211
a(g191
F1.5707963267948966
g188
tp212
ag208
a(g198
F1.5707963267948966
g196
tp213
a(g198
F1.5707963267948966
g186
tp214
ag206
a(g198
F1.5707963267948966
g186
tp215
ag206
ag207
ag208
ag213
a(g198
F1.5707963267948966
g196
tp216
a(g198
F1.5707963267948966
g196
tp217
ag214
ag206
a(S'p3'
p218
F1.5707963267948966
g188
tp219
asS's'
p220
(lp221
(g185
I0
g22
tp222
ag187
ag189
ag190
ag189
ag192
ag193
ag194
ag195
ag193
ag194
ag197
ag199
ag200
ag200
ag201
ag202
ag202
ag202
ag203
ag204
ag205
ag206
ag207
ag208
ag209
ag210
ag211
ag212
ag208
ag213
ag214
ag206
ag215
ag206
ag207
ag208
ag213
ag216
ag217
ag214
ag206
asS'ui'
p223
(lp224
S'hs'
p225
ag225
aS'hp'
p226
ag225
aS'ss'
p227
ag183
ag226
ag225
ag225
ag226
ag226
ag183
ag227
ag227
ag225
ag225
ag183
ag226
ag226
ag226
ag183
ag225
ag225
ag225
ag183
ag225
ag225
ag227
ag225
ag183
ag225
ag225
ag226
ag225
ag183
ag225
ag183
ag226
ag227
ag226
ag225
ag227
asS'um_before'
p228
(lp229
g183
ag225
ag226
ag225
ag227
ag183
ag226
ag225
ag183
ag226
ag226
ag183
ag227
ag227
ag183
ag225
ag226
ag226
ag225
ag226
ag183
ag225
ag183
ag225
ag227
ag225
ag225
ag227
ag225
ag183
ag225
ag225
ag226
ag225
ag183
ag225
ag183
ag183
ag227
ag225
ag225
ag227
asS'um_after'
p230
(lp231
g183
ag225
ag226
ag225
ag227
ag183
ag226
ag225
ag183
ag226
ag226
ag183
ag227
ag227
ag183
ag225
aNaNag225
ag226
ag183
ag225
ag183
ag225
ag227
ag225
ag225
ag227
ag225
ag183
ag225
ag225
ag226
ag225
ag183
ag225
ag183
ag183
ag227
ag225
ag225
ag227
asS'is_normalized_entropy_less_than_threshold'
p232
(lp233
g50
(g51
(S'b1'
p234
I0
I1
tp235
Rp236
(I3
S'|'
p237
NNNI-1
I-1
I0
tp238
bS'\x00'
p239
tp240
Rp241
ag50
(g236
S'\x01'
p242
tp243
Rp244
ag241
ag244
ag244
ag241
ag241
ag241
ag241
ag241
ag244
ag244
ag244
ag244
ag241
ag244
ag244
ag244
ag241
ag244
ag244
ag244
ag241
ag244
ag244
ag241
ag244
ag244
ag244
ag244
ag241
ag244
ag241
ag244
ag241
ag244
ag244
ag241
ag244
ag241
ag244
ag244
asaa(lp245
S'index'
p246
aI102062
aatp247
Rp248
.