ccollections
OrderedDict
p0
((lp1
(lp2
S'combination_dict'
p3
ag0
((lp4
(lp5
S'r_to_g_config'
p6
aS'tl'
p7
aa(lp8
S'num_turns'
p9
aI3
aa(lp10
S'start_direction'
p11
acutils_ms
StartDirection
p12
(I1
tp13
Rp14
aa(lp15
S'assistance_type'
p16
acutils_ms
AssistanceType
p17
(I0
tp18
Rp19
aa(lp20
S'start_mode'
p21
aS'x'
p22
aa(lp23
S'ui_given_a_noise'
p24
aF0.7
aa(lp25
S'um_given_ui_noise'
p26
aF0.3
aa(lp27
S'entropy_threshold'
p28
aF0.6
aatp29
Rp30
aa(lp31
S'data'
p32
accollections
defaultdict
p33
(c__builtin__
list
p34
tp35
Rp36
S'a'
p37
(lp38
S'mode_r'
p39
ag39
aS'move_p'
p40
ag40
ag39
aS'mode_l'
p41
ag39
ag39
ag41
ag41
ag40
ag41
ag41
ag41
aS'move_n'
p42
asS'assistance_match_with_ground_truth'
p43
(lp44
I00
aI01
aI00
aI01
aI00
aI00
aI00
aI00
aI00
aI01
aI01
aI00
aI00
aI01
aI01
asS'is_u_intended_equals_um'
p45
(lp46
I01
aI01
aI01
aI01
aI01
aI01
aI01
aI01
aI01
aI01
aI01
aI01
aI01
aI01
aI01
asS'total_steps'
p47
I15
sS'normalized_h_of_p_ui_given_um'
p48
(lp49
cnumpy.core.multiarray
scalar
p50
(cnumpy
dtype
p51
(S'f8'
p52
I0
I1
tp53
Rp54
(I3
S'<'
p55
NNNI-1
I-1
I0
tp56
bS'4\xd8\xf3\xa1\x89.\xe5?'
p57
tp58
Rp59
ag50
(g54
S'\x1eOw\x00\xe7\x91\xd0?'
p60
tp61
Rp62
ag50
(g54
S'\x93\x1f@\xb8)\xb0\xe2?'
p63
tp64
Rp65
ag50
(g54
S'\xa3\x0c\xa0\xe9;q\xc0?'
p66
tp67
Rp68
ag50
(g54
S'\xe5\tB\xce\xb7\x80\xe7?'
p69
tp70
Rp71
ag50
(g54
S'\x9b\x9aW\xfa9`\xe8?'
p72
tp73
Rp74
ag50
(g54
S'\xf3~P &E\xe5?'
p75
tp76
Rp77
ag50
(g54
S'\xe5\tB\xce\xb7\x80\xe7?'
p78
tp79
Rp80
ag50
(g54
S'\x80\xb4c\xf0\xc9k\xde?'
p81
tp82
Rp83
ag50
(g54
S'\xd2\x9a(\xb2P\x9a\xd3?'
p84
tp85
Rp86
ag50
(g54
S'\xa3\x0c\xa0\xe9;q\xc0?'
p87
tp88
Rp89
ag50
(g54
S'\x80\xb4c\xf0\xc9k\xde?'
p90
tp91
Rp92
ag50
(g54
S'\x9b\x9aW\xfa9`\xe8?'
p93
tp94
Rp95
ag50
(g54
S'\xd2\x9a(\xb2P\x9a\xd3?'
p96
tp97
Rp98
ag50
(g54
S'\xaa\xe2\xa5\xaa\xb8\xfe\xd1?'
p99
tp100
Rp101
asS'sp'
p102
(lp103
(S'p0'
p104
I0
S'x'
p105
tp106
a(g104
I0
S'y'
p107
tp108
a(g104
I0
g107
tp109
a(S'p1'
p110
I0
g107
tp111
a(g110
I0
g105
tp112
a(S'p2'
p113
I0
g105
tp114
a(g113
I0
g105
tp115
a(g113
I0
S't'
p116
tp117
a(g113
I0
g116
tp118
a(g113
I0
g107
tp119
a(S'p3'
p120
I0
g107
tp121
a(g120
I0
g107
tp122
a(g120
I0
g107
tp123
a(g120
I0
g105
tp124
a(S'p4'
p125
I0
g105
tp126
asS's'
p127
(lp128
(g104
I0
g22
tp129
ag106
ag108
ag109
ag111
ag112
ag114
ag115
ag117
ag118
ag119
ag121
ag122
ag123
ag124
asS'ui'
p130
(lp131
g102
aS'hp'
p132
ag102
ag102
aS'hs'
p133
ag102
aS'ss'
p134
ag133
ag102
ag133
ag102
ag102
ag133
ag133
ag102
asS'um_before'
p135
(lp136
g102
ag132
ag134
ag102
ag133
ag134
ag134
ag133
ag102
ag133
ag102
ag102
ag134
ag133
ag134
asS'um_after'
p137
(lp138
g102
ag132
ag134
ag102
ag133
ag134
ag134
ag133
ag102
ag133
ag102
ag102
ag134
ag133
ag134
asS'is_normalized_entropy_less_than_threshold'
p139
(lp140
g50
(g51
(S'b1'
p141
I0
I1
tp142
Rp143
(I3
S'|'
p144
NNNI-1
I-1
I0
tp145
bS'\x00'
p146
tp147
Rp148
ag50
(g143
S'\x01'
p149
tp150
Rp151
ag151
ag151
ag148
ag148
ag148
ag148
ag151
ag151
ag151
ag151
ag148
ag151
ag151
asaa(lp152
S'index'
p153
aI53467
aatp154
Rp155
.