ccollections
OrderedDict
p0
((lp1
(lp2
S'combination_dict'
p3
ag0
((lp4
(lp5
S'r_to_g_config'
p6
aS'tr'
p7
aa(lp8
S'num_turns'
p9
aI3
aa(lp10
S'start_direction'
p11
acutils_ms
StartDirection
p12
(I1
tp13
Rp14
aa(lp15
S'assistance_type'
p16
acutils_ms
AssistanceType
p17
(I0
tp18
Rp19
aa(lp20
S'start_mode'
p21
aS't'
p22
aa(lp23
S'ui_given_a_noise'
p24
aF0.5
aa(lp25
S'um_given_ui_noise'
p26
aF0.5
aa(lp27
S'entropy_threshold'
p28
aF0.7
aatp29
Rp30
aa(lp31
S'data'
p32
accollections
defaultdict
p33
(c__builtin__
list
p34
tp35
Rp36
S'a'
p37
(lp38
S'mode_l'
p39
ag39
ag39
aS'move_p'
p40
ag40
ag39
ag39
ag39
aS'mode_r'
p41
ag41
ag39
ag41
ag40
ag39
ag39
ag39
ag39
ag39
ag40
ag39
ag41
ag41
ag39
ag39
ag39
ag39
ag39
ag41
ag39
ag39
ag40
asS'assistance_match_with_ground_truth'
p42
(lp43
I00
aI00
aI01
aI00
aI01
aI00
aI00
aI00
aI00
aI00
aI00
aI01
aI00
aI00
aI00
aI00
aI00
aI01
aI01
aI00
aI00
aI00
aI00
aI00
aI00
aI00
aI00
aI00
aI00
aI01
aI01
asS'is_u_intended_equals_um'
p44
(lp45
I01
aI01
aI01
aI00
aI01
aI01
aI01
aI01
aI00
aI01
aI01
aI01
aI01
aI01
aI01
aI01
aI01
aI01
aI01
aI01
aI00
aI01
aI01
aI01
aI01
aI01
aI01
aI01
aI01
aI01
aI01
asS'total_steps'
p46
I31
sS'normalized_h_of_p_ui_given_um'
p47
(lp48
cnumpy.core.multiarray
scalar
p49
(cnumpy
dtype
p50
(S'f8'
p51
I0
I1
tp52
Rp53
(I3
S'<'
p54
NNNI-1
I-1
I0
tp55
bS'\xe0(\x08\x18X\x99\xed?'
p56
tp57
Rp58
ag49
(g53
S'\xd0\xa5\xbeHO@\xeb?'
p59
tp60
Rp61
ag49
(g53
S'>V,C\xa2\x89\xd7?'
p62
tp63
Rp64
ag49
(g53
S'i\x0eHk5\xe5\xe9?'
p65
tp66
Rp67
ag49
(g53
S'\x07\x8f\x8a\xa8\x8bo\xd2?'
p68
tp69
Rp70
ag49
(g53
S'\xe0(\x08\x18X\x99\xed?'
p71
tp72
Rp73
ag49
(g53
S'\xe0(\x08\x18X\x99\xed?'
p74
tp75
Rp76
ag49
(g53
S'V:\x98\x00l;\xed?'
p77
tp78
Rp79
ag49
(g53
S'\xc0\xa8\x12\xdd\xf9\xb7\xe4?'
p80
tp81
Rp82
ag49
(g53
S'^X\xc7P\xc3u\xe3?'
p83
tp84
Rp85
ag49
(g53
S'V:\x98\x00l;\xed?'
p86
tp87
Rp88
ag49
(g53
S'\xe6\xb7\xd8\x13\x99\xd1\xd8?'
p89
tp90
Rp91
ag49
(g53
S'\x84\xc3\x10\xd3\xdc\xf0\xe5?'
p92
tp93
Rp94
ag49
(g53
S'\xe0(\x08\x18X\x99\xed?'
p95
tp96
Rp97
ag49
(g53
S'\xd0\xa5\xbeHO@\xeb?'
p98
tp99
Rp100
ag49
(g53
S'\xe0(\x08\x18X\x99\xed?'
p101
tp102
Rp103
ag49
(g53
S'\xe0(\x08\x18X\x99\xed?'
p104
tp105
Rp106
ag49
(g53
S'>V,C\xa2\x89\xd7?'
p107
tp108
Rp109
ag49
(g53
S'\x07\x8f\x8a\xa8\x8bo\xd2?'
p110
tp111
Rp112
ag49
(g53
S'V:\x98\x00l;\xed?'
p113
tp114
Rp115
ag49
(g53
S'\xc0\xa8\x12\xdd\xf9\xb7\xe4?'
p116
tp117
Rp118
ag49
(g53
S'\xd42\xe5\xa9\xe8"\xea?'
p119
tp120
Rp121
ag49
(g53
S'\xe0(\x08\x18X\x99\xed?'
p122
tp123
Rp124
ag49
(g53
S'\xe0(\x08\x18X\x99\xed?'
p125
tp126
Rp127
ag49
(g53
S'\xe0(\x08\x18X\x99\xed?'
p128
tp129
Rp130
ag49
(g53
S'\xe0(\x08\x18X\x99\xed?'
p131
tp132
Rp133
ag49
(g53
S'V:\x98\x00l;\xed?'
p134
tp135
Rp136
ag49
(g53
S'^X\xc7P\xc3u\xe3?'
p137
tp138
Rp139
ag49
(g53
S'\xd0\xa5\xbeHO@\xeb?'
p140
tp141
Rp142
ag49
(g53
S'>V,C\xa2\x89\xd7?'
p143
tp144
Rp145
ag49
(g53
S'\x07\x8f\x8a\xa8\x8bo\xd2?'
p146
tp147
Rp148
asS'sp'
p149
(lp150
(S'p0'
p151
I0
S't'
p152
tp153
a(g151
I0
g152
tp154
a(g151
I0
S'y'
p155
tp156
a(g151
I0
g155
tp157
a(S'p1'
p158
I0
g155
tp159
a(g158
I0
g155
tp160
ag160
a(g158
I0
g152
tp161
ag161
a(g158
I0
g155
tp162
ag161
a(g158
I0
S'x'
p163
tp164
a(g158
I0
g155
tp165
ag160
a(g158
I0
g155
tp166
ag160
ag160
a(g158
I0
g163
tp167
a(S'p2'
p168
I0
g163
tp169
a(g168
I0
g155
tp170
ag170
a(S'p3'
p171
I0
g155
tp172
a(g171
I0
g155
tp173
ag173
ag173
ag173
a(g171
I0
g152
tp174
a(g171
I0
g155
tp175
a(g171
I0
g155
tp176
a(g171
I0
g163
tp177
a(S'p4'
p178
I0
g163
tp179
asS's'
p180
(lp181
(g151
I0
g22
tp182
ag153
ag154
ag156
ag157
ag159
ag160
ag160
ag161
ag161
ag162
ag161
ag164
ag165
ag160
ag166
ag160
ag160
ag167
ag169
ag170
ag170
ag172
ag173
ag173
ag173
ag173
ag174
ag175
ag176
ag177
asS'ui'
p183
(lp184
g149
aS'hp'
p185
aS'hs'
p186
aS'ss'
p187
ag149
ag186
ag187
ag185
ag185
ag149
ag186
ag185
ag149
ag185
ag187
ag186
ag186
ag186
ag149
ag185
ag185
ag149
ag187
ag187
ag186
ag187
ag185
ag186
ag186
ag186
ag149
asS'um_before'
p188
(lp189
g187
ag149
ag186
ag187
ag149
ag187
ag187
ag185
ag187
ag186
ag185
ag185
ag185
ag187
ag149
ag187
ag187
ag186
ag149
ag185
ag187
ag149
ag187
ag187
ag187
ag187
ag185
ag186
ag149
ag186
ag149
asS'um_after'
p190
(lp191
g187
ag149
ag186
ag187
ag149
ag187
ag187
ag185
aNag186
ag185
ag185
ag185
ag187
ag149
ag187
ag187
ag186
ag149
ag185
aNag149
ag187
ag187
ag187
ag187
ag185
ag186
ag149
ag186
ag149
asS'is_normalized_entropy_less_than_threshold'
p192
(lp193
g49
(g50
(S'b1'
p194
I0
I1
tp195
Rp196
(I3
S'|'
p197
NNNI-1
I-1
I0
tp198
bS'\x00'
p199
tp200
Rp201
ag201
ag49
(g196
S'\x01'
p202
tp203
Rp204
ag201
ag204
ag201
ag201
ag201
ag204
ag204
ag201
ag204
ag204
ag201
ag201
ag201
ag201
ag204
ag204
ag201
ag204
ag201
ag201
ag201
ag201
ag201
ag201
ag204
ag201
ag204
ag204
asaa(lp205
S'index'
p206
aI25320
aatp207
Rp208
.