ccollections
OrderedDict
p0
((lp1
(lp2
S'combination_dict'
p3
ag0
((lp4
(lp5
S'r_to_g_config'
p6
aS'tl'
p7
aa(lp8
S'num_turns'
p9
aI1
aa(lp10
S'start_direction'
p11
acutils_ms
StartDirection
p12
(I0
tp13
Rp14
aa(lp15
S'assistance_type'
p16
acutils_ms
AssistanceType
p17
(I1
tp18
Rp19
aa(lp20
S'start_mode'
p21
aS'y'
p22
aa(lp23
S'ui_given_a_noise'
p24
aF0.7
aa(lp25
S'um_given_ui_noise'
p26
aF0.1
aa(lp27
S'entropy_threshold'
p28
aF0.6
aatp29
Rp30
aa(lp31
S'data'
p32
accollections
defaultdict
p33
(c__builtin__
list
p34
tp35
Rp36
S'a'
p37
(lp38
S'mode_l'
p39
ag39
aS'move_n'
p40
ag39
ag39
aS'mode_r'
p41
aS'move_p'
p42
ag39
ag39
ag41
ag42
ag42
ag39
ag39
ag39
ag42
ag39
ag42
asS'assistance_match_with_ground_truth'
p43
(lp44
I00
aI01
aI01
aI00
aI00
aI01
aI00
aI00
aI00
aI01
aI00
aI00
aI00
aI00
aI01
aI01
aI01
aI01
asS'is_u_intended_equals_um'
p45
(lp46
I01
aI01
aI01
aI01
aI01
aI01
aI01
aI01
aI01
aI01
aI01
aI01
aI01
aI01
aI01
aI01
aI01
aI01
asS'total_steps'
p47
I18
sS'normalized_h_of_p_ui_given_um'
p48
(lp49
cnumpy.core.multiarray
scalar
p50
(cnumpy
dtype
p51
(S'f8'
p52
I0
I1
tp53
Rp54
(I3
S'<'
p55
NNNI-1
I-1
I0
tp56
bS'\xecUr\x14\x16g\xd3?'
p57
tp58
Rp59
ag50
(g54
S'\x04\x11\x0b\xf2\x165\xc6?'
p60
tp61
Rp62
ag50
(g54
S'~\xb5\x8f\x02\xbcp\xc4?'
p63
tp64
Rp65
ag50
(g54
S'\xecUr\x14\x16g\xd3?'
p66
tp67
Rp68
ag50
(g54
S'\xc9\xf4\xe7\xd7\xf2+\xc9?'
p69
tp70
Rp71
ag50
(g54
S'\xa8\x16i\x08\xb1|\x9b?'
p72
tp73
Rp74
ag50
(g54
S'\x11o\x84G\xc5\xa8\xd2?'
p75
tp76
Rp77
ag50
(g54
S'\xecUr\x14\x16g\xd3?'
p78
tp79
Rp80
ag50
(g54
S'\xc9\xf4\xe7\xd7\xf2+\xc9?'
p81
tp82
Rp83
ag50
(g54
S'\xa8\x16i\x08\xb1|\x9b?'
p84
tp85
Rp86
ag50
(g54
S'l&\xcc\xed\x92X\xe2?'
p87
tp88
Rp89
ag50
(g54
S'\x11o\x84G\xc5\xa8\xd2?'
p90
tp91
Rp92
ag50
(g54
S'f\xef\xf6\xae\xa8\x84\xe8?'
p93
tp94
Rp95
ag50
(g54
S'f\xef\xf6\xae\xa8\x84\xe8?'
p96
tp97
Rp98
ag50
(g54
S'\x04\x11\x0b\xf2\x165\xc6?'
p99
tp100
Rp101
ag50
(g54
S'\xb0n\x86\xb6\xe5\xb3\xc8?'
p102
tp103
Rp104
ag50
(g54
S'\x04\x11\x0b\xf2\x165\xc6?'
p105
tp106
Rp107
ag50
(g54
S'\xb0n\x86\xb6\xe5\xb3\xc8?'
p108
tp109
Rp110
asS'sp'
p111
(lp112
(S'p0'
p113
I0
S'y'
p114
tp115
a(g113
I0
S'x'
p116
tp117
a(S'p1'
p118
I0
g116
tp119
a(g118
I0
g116
tp120
a(g118
I0
g114
tp121
a(g118
I0
S't'
p122
tp123
a(g118
I0
g116
tp124
ag120
ag121
ag123
a(g118
I0
g122
tp125
ag124
a(g118
I0
g116
tp126
ag126
a(g118
I0
g122
tp127
a(g118
F1.5707963267948966
g122
tp128
a(g118
F1.5707963267948966
g114
tp129
a(S'p2'
p130
F1.5707963267948966
g114
tp131
asS's'
p132
(lp133
(g113
I0
g22
tp134
ag115
ag117
ag119
ag120
ag121
ag123
ag124
ag120
ag121
ag123
ag125
ag124
ag126
ag126
ag127
ag128
ag129
asS'ui'
p135
(lp136
g111
aS'hs'
p137
aS'ss'
p138
ag111
aS'hp'
p139
ag139
ag139
ag111
ag139
ag139
ag138
ag139
ag139
ag137
ag137
ag111
ag137
ag137
asS'um_before'
p140
(lp141
g111
ag137
ag138
ag111
ag139
ag139
ag139
ag111
ag139
ag139
ag138
ag139
ag138
ag138
ag137
ag111
ag137
ag111
asS'um_after'
p142
(lp143
g111
ag137
ag138
ag111
ag139
ag139
ag139
ag111
ag139
ag139
ag138
ag139
ag138
ag138
ag137
ag111
ag137
ag111
asS'is_normalized_entropy_less_than_threshold'
p144
(lp145
g50
(g51
(S'b1'
p146
I0
I1
tp147
Rp148
(I3
S'|'
p149
NNNI-1
I-1
I0
tp150
bS'\x01'
p151
tp152
Rp153
ag153
ag153
ag153
ag153
ag153
ag153
ag153
ag153
ag153
ag153
ag153
ag50
(g148
S'\x00'
p154
tp155
Rp156
ag156
ag153
ag153
ag153
ag153
asaa(lp157
S'index'
p158
aI31810
aatp159
Rp160
.