ccollections
OrderedDict
p0
((lp1
(lp2
S'combination_dict'
p3
ag0
((lp4
(lp5
S'r_to_g_config'
p6
aS'tr'
p7
aa(lp8
S'num_turns'
p9
aI2
aa(lp10
S'start_direction'
p11
acutils_ms
StartDirection
p12
(I1
tp13
Rp14
aa(lp15
S'assistance_type'
p16
acutils_ms
AssistanceType
p17
(I1
tp18
Rp19
aa(lp20
S'start_mode'
p21
aS't'
p22
aa(lp23
S'ui_given_a_noise'
p24
aF0.5
aa(lp25
S'um_given_ui_noise'
p26
aF0.5
aa(lp27
S'entropy_threshold'
p28
aF0.6
aatp29
Rp30
aa(lp31
S'data'
p32
accollections
defaultdict
p33
(c__builtin__
list
p34
tp35
Rp36
S'a'
p37
(lp38
S'mode_l'
p39
aS'mode_r'
p40
aS'move_p'
p41
ag41
ag39
ag41
ag39
ag39
ag39
ag41
ag40
ag40
ag40
ag40
ag40
ag41
ag40
ag41
ag40
ag41
ag41
ag39
ag40
ag40
ag39
ag39
ag39
ag40
ag41
ag39
ag41
ag40
ag39
ag40
ag40
ag39
ag41
ag39
ag41
ag39
ag39
ag41
ag40
ag41
asS'assistance_match_with_ground_truth'
p42
(lp43
I00
aI01
aI00
aI00
aI01
aI00
aI00
aI00
aI01
aI01
aI00
aI00
aI00
aI00
aI01
aI01
aI01
aI00
aI01
aI00
aI00
aI00
aI00
aI00
aI00
aI00
aI00
aI01
aI01
aI01
aI01
aI00
aI00
aI00
aI00
aI01
aI00
aI01
aI00
aI00
aI01
aI01
aI01
aI01
asS'is_u_intended_equals_um'
p44
(lp45
I00
aI01
aI00
aI01
aI01
aI01
aI00
aI00
aI01
aI01
aI01
aI00
aI00
aI00
aI01
aI01
aI01
aI00
aI01
aI00
aI01
aI00
aI00
aI01
aI00
aI01
aI00
aI01
aI01
aI01
aI01
aI01
aI00
aI00
aI01
aI01
aI00
aI01
aI01
aI00
aI01
aI01
aI01
aI01
asS'total_steps'
p46
I44
sS'normalized_h_of_p_ui_given_um'
p47
(lp48
cnumpy.core.multiarray
scalar
p49
(cnumpy
dtype
p50
(S'f8'
p51
I0
I1
tp52
Rp53
(I3
S'<'
p54
NNNI-1
I-1
I0
tp55
bS'\x06\xb8o\x8bX\x9c\xe7?'
p56
tp57
Rp58
ag49
(g53
S'\xdc^1\x13\x0c\xd7\xdf?'
p59
tp60
Rp61
ag49
(g53
S'j\xbf\xd6\x10,k\xeb?'
p62
tp63
Rp64
ag49
(g53
S'\xdbl\x9d\xb7\xf4M\xea?'
p65
tp66
Rp67
ag49
(g53
S'\xa1\x91c\x14/\x0e\xd6?'
p68
tp69
Rp70
ag49
(g53
S'\xdbl\x9d\xb7\xf4M\xea?'
p71
tp72
Rp73
ag49
(g53
S'M\xf0\xb3\xe1\xc4\xd2\xe7?'
p74
tp75
Rp76
ag49
(g53
S'M\xf0\xb3\xe1\xc4\xd2\xe7?'
p77
tp78
Rp79
ag49
(g53
S'\xa1\x91c\x14/\x0e\xd6?'
p80
tp81
Rp82
ag49
(g53
S'\xda\xd0\x9e\xf2!\xc2\xe0?'
p83
tp84
Rp85
ag49
(g53
S'\xcb\xd1\x16o\x83\xc4\xeb?'
p86
tp87
Rp88
ag49
(g53
S'i\x98L\x05\xe9\xe4\xe7?'
p89
tp90
Rp91
ag49
(g53
S'i\x98L\x05\xe9\xe4\xe7?'
p92
tp93
Rp94
ag49
(g53
S'i\x98L\x05\xe9\xe4\xe7?'
p95
tp96
Rp97
ag49
(g53
S'\xdc^1\x13\x0c\xd7\xdf?'
p98
tp99
Rp100
ag49
(g53
S'\xda\xd0\x9e\xf2!\xc2\xe0?'
p101
tp102
Rp103
ag49
(g53
S'\xdc^1\x13\x0c\xd7\xdf?'
p104
tp105
Rp106
ag49
(g53
S'j\xbf\xd6\x10,k\xeb?'
p107
tp108
Rp109
ag49
(g53
S'\xdc^1\x13\x0c\xd7\xdf?'
p110
tp111
Rp112
ag49
(g53
S'j\xbf\xd6\x10,k\xeb?'
p113
tp114
Rp115
ag49
(g53
S'\xdbl\x9d\xb7\xf4M\xea?'
p116
tp117
Rp118
ag49
(g53
S'\x06\xb8o\x8bX\x9c\xe7?'
p119
tp120
Rp121
ag49
(g53
S'i\x98L\x05\xe9\xe4\xe7?'
p122
tp123
Rp124
ag49
(g53
S'\x929\xce\xf1O\x9c\xeb?'
p125
tp126
Rp127
ag49
(g53
S'M\xf0\xb3\xe1\xc4\xd2\xe7?'
p128
tp129
Rp130
ag49
(g53
S'\x9b\xdc\xd9M<U\xea?'
p131
tp132
Rp133
ag49
(g53
S'\x06\xb8o\x8bX\x9c\xe7?'
p134
tp135
Rp136
ag49
(g53
S'\xdc^1\x13\x0c\xd7\xdf?'
p137
tp138
Rp139
ag49
(g53
S'\xda\xd0\x9e\xf2!\xc2\xe0?'
p140
tp141
Rp142
ag49
(g53
S'\xa1\x91c\x14/\x0e\xd6?'
p143
tp144
Rp145
ag49
(g53
S'\xda\xd0\x9e\xf2!\xc2\xe0?'
p146
tp147
Rp148
ag49
(g53
S'\x929\xce\xf1O\x9c\xeb?'
p149
tp150
Rp151
ag49
(g53
S'\x06\xb8o\x8bX\x9c\xe7?'
p152
tp153
Rp154
ag49
(g53
S'i\x98L\x05\xe9\xe4\xe7?'
p155
tp156
Rp157
ag49
(g53
S'\x929\xce\xf1O\x9c\xeb?'
p158
tp159
Rp160
ag49
(g53
S'\xa1\x91c\x14/\x0e\xd6?'
p161
tp162
Rp163
ag49
(g53
S'j\xbf\xd6\x10,k\xeb?'
p164
tp165
Rp166
ag49
(g53
S'\xa1\x91c\x14/\x0e\xd6?'
p167
tp168
Rp169
ag49
(g53
S'\xdbl\x9d\xb7\xf4M\xea?'
p170
tp171
Rp172
ag49
(g53
S'M\xf0\xb3\xe1\xc4\xd2\xe7?'
p173
tp174
Rp175
ag49
(g53
S'\xa1\x91c\x14/\x0e\xd6?'
p176
tp177
Rp178
ag49
(g53
S'\xda\xd0\x9e\xf2!\xc2\xe0?'
p179
tp180
Rp181
ag49
(g53
S'\xdc^1\x13\x0c\xd7\xdf?'
p182
tp183
Rp184
ag49
(g53
S'\xda\xd0\x9e\xf2!\xc2\xe0?'
p185
tp186
Rp187
asS'sp'
p188
(lp189
(S'p0'
p190
I0
S'x'
p191
tp192
a(g190
I0
S'y'
p193
tp194
a(g190
I0
g193
tp195
a(g190
I0
S't'
p196
tp197
a(g190
I0
g193
tp198
ag197
a(g190
I0
g196
tp199
ag199
ag198
a(S'p1'
p200
I0
g193
tp201
a(g200
I0
g193
tp202
a(g200
I0
g193
tp203
ag203
ag203
a(g200
I0
g196
tp204
a(g200
F1.5707963267948966
g196
tp205
a(g200
F1.5707963267948966
g191
tp206
a(g190
F1.5707963267948966
g191
tp207
a(g190
F1.5707963267948966
g193
tp208
a(g190
F1.5707963267948966
g193
tp209
a(g190
F1.5707963267948966
g196
tp210
a(g190
F1.5707963267948966
g191
tp211
a(g190
F1.5707963267948966
g191
tp212
a(g190
F1.5707963267948966
g196
tp213
a(g190
F1.5707963267948966
g196
tp214
a(g190
F1.5707963267948966
g196
tp215
ag211
ag208
a(g200
F1.5707963267948966
g193
tp216
a(g200
F1.5707963267948966
g191
tp217
a(S'p2'
p218
F1.5707963267948966
g191
tp219
a(g218
F1.5707963267948966
g196
tp220
a(g218
F1.5707963267948966
g191
tp221
a(g218
F1.5707963267948966
g191
tp222
ag220
a(g218
F1.5707963267948966
g193
tp223
a(g200
F1.5707963267948966
g193
tp224
ag217
a(g200
F1.5707963267948966
g193
tp225
a(g200
F1.5707963267948966
g193
tp226
ag217
ag219
a(g218
F1.5707963267948966
g193
tp227
a(S'p3'
p228
F1.5707963267948966
g193
tp229
asS's'
p230
(lp231
(g190
I0
g22
tp232
ag192
ag194
ag195
ag197
ag198
ag197
ag199
ag199
ag198
ag201
ag202
ag203
ag203
ag203
ag204
ag205
ag206
ag207
ag208
ag209
ag210
ag211
ag212
ag213
ag214
ag215
ag211
ag208
ag216
ag217
ag219
ag220
ag221
ag222
ag220
ag223
ag224
ag217
ag225
ag226
ag217
ag219
ag227
asS'ui'
p233
(lp234
S'hs'
p235
aS'hp'
p236
ag188
ag188
ag235
aS'ss'
p237
ag237
ag188
ag235
ag188
ag236
ag236
ag236
ag237
ag236
ag237
ag236
ag237
ag236
ag236
ag236
ag235
ag237
ag235
ag188
ag237
ag235
ag236
ag188
ag235
ag237
ag235
ag237
ag236
ag235
ag235
ag236
ag235
ag236
ag188
ag235
ag188
ag236
ag235
asS'um_before'
p238
(lp239
g236
ag236
ag237
ag236
ag235
ag236
ag188
ag188
ag235
ag188
ag188
ag237
ag237
ag237
ag236
ag188
ag236
ag237
ag236
ag237
ag236
ag236
ag237
ag235
ag188
ag237
ag236
ag236
ag188
ag235
ag188
ag235
ag236
ag237
ag235
ag235
ag237
ag235
ag236
ag188
ag235
ag188
ag236
ag188
asS'um_after'
p240
(lp241
g236
ag236
ag237
ag236
ag235
ag236
ag188
ag188
ag235
ag188
ag188
ag237
ag237
ag237
ag236
ag188
ag236
ag237
ag236
ag237
ag236
ag236
ag237
ag235
ag188
ag237
ag236
ag236
ag188
ag235
ag188
ag235
ag236
ag237
ag235
ag235
ag237
ag235
ag236
ag188
ag235
ag188
ag236
ag188
asS'is_normalized_entropy_less_than_threshold'
p242
(lp243
g49
(g50
(S'b1'
p244
I0
I1
tp245
Rp246
(I3
S'|'
p247
NNNI-1
I-1
I0
tp248
bS'\x00'
p249
tp250
Rp251
ag49
(g246
S'\x01'
p252
tp253
Rp254
ag251
ag251
ag254
ag251
ag251
ag251
ag254
ag254
ag251
ag251
ag251
ag251
ag254
ag254
ag254
ag251
ag254
ag251
ag251
ag251
ag251
ag251
ag251
ag251
ag251
ag254
ag254
ag254
ag254
ag251
ag251
ag251
ag251
ag254
ag251
ag254
ag251
ag251
ag254
ag254
ag254
ag254
asaa(lp255
S'index'
p256
aI17314
aatp257
Rp258
.