ccollections
OrderedDict
p0
((lp1
(lp2
S'combination_dict'
p3
ag0
((lp4
(lp5
S'r_to_g_config'
p6
aS'br'
p7
aa(lp8
S'num_turns'
p9
aI3
aa(lp10
S'start_direction'
p11
acutils_ms
StartDirection
p12
(I1
tp13
Rp14
aa(lp15
S'assistance_type'
p16
acutils_ms
AssistanceType
p17
(I0
tp18
Rp19
aa(lp20
S'start_mode'
p21
aS'x'
p22
aa(lp23
S'ui_given_a_noise'
p24
aF0.1
aa(lp25
S'um_given_ui_noise'
p26
aF0.3
aa(lp27
S'entropy_threshold'
p28
aF0.9
aatp29
Rp30
aa(lp31
S'data'
p32
accollections
defaultdict
p33
(c__builtin__
list
p34
tp35
Rp36
S'a'
p37
(lp38
S'mode_r'
p39
ag39
ag39
ag39
ag39
ag39
aS'move_n'
p40
aS'mode_l'
p41
ag41
aS'move_p'
p42
ag41
ag42
ag42
ag41
ag41
ag41
ag40
ag41
ag41
ag42
asS'assistance_match_with_ground_truth'
p43
(lp44
I00
aI00
aI00
aI00
aI00
aI01
aI01
aI00
aI01
aI01
aI01
aI00
aI01
aI00
aI00
aI01
aI01
aI00
aI01
aI01
asS'is_u_intended_equals_um'
p45
(lp46
I00
aI00
aI00
aI00
aI00
aI01
aI01
aI00
aI01
aI01
aI01
aI00
aI01
aI00
aI00
aI01
aI01
aI00
aI01
aI01
asS'total_steps'
p47
I20
sS'normalized_h_of_p_ui_given_um'
p48
(lp49
cnumpy.core.multiarray
scalar
p50
(cnumpy
dtype
p51
(S'f8'
p52
I0
I1
tp53
Rp54
(I3
S'<'
p55
NNNI-1
I-1
I0
tp56
bS'\xbf\xaa(\xa1@,\xdc?'
p57
tp58
Rp59
ag50
(g54
S'\xbf\xaa(\xa1@,\xdc?'
p60
tp61
Rp62
ag50
(g54
S'\xbf\xaa(\xa1@,\xdc?'
p63
tp64
Rp65
ag50
(g54
S'\xa3\x07\x99V\x9b>\xe0?'
p66
tp67
Rp68
ag50
(g54
S'H(\xd8\xb6T\xe6\xde?'
p69
tp70
Rp71
ag50
(g54
S'\x8c\xe5%\x96\xd2T\xc0?'
p72
tp73
Rp74
ag50
(g54
S'\x13:\xe2F\x18t\xb2?'
p75
tp76
Rp77
ag50
(g54
S'\x1f\xe1q2g\x1b\xdf?'
p78
tp79
Rp80
ag50
(g54
S'\xa1.\x13\xba\x1c4\xb4?'
p81
tp82
Rp83
ag50
(g54
S'u.\x10\xe2\xbc\xc4\xb0?'
p84
tp85
Rp86
ag50
(g54
S'\xa1.\x13\xba\x1c4\xb4?'
p87
tp88
Rp89
ag50
(g54
S'Z7\x0e\x01^\xa2\xe8?'
p90
tp91
Rp92
ag50
(g54
S'u.\x10\xe2\xbc\xc4\xb0?'
p93
tp94
Rp95
ag50
(g54
S'0_\x93\xcbH\x84\xdb?'
p96
tp97
Rp98
ag50
(g54
S'\xe8\xc1\xf0x~\x1f\xcb?'
p99
tp100
Rp101
ag50
(g54
S'\xa1.\x13\xba\x1c4\xb4?'
p102
tp103
Rp104
ag50
(g54
S'\x13:\xe2F\x18t\xb2?'
p105
tp106
Rp107
ag50
(g54
S'\xe8\xc1\xf0x~\x1f\xcb?'
p108
tp109
Rp110
ag50
(g54
S'\xa1.\x13\xba\x1c4\xb4?'
p111
tp112
Rp113
ag50
(g54
S'u.\x10\xe2\xbc\xc4\xb0?'
p114
tp115
Rp116
asS'sp'
p117
(lp118
(S'p0'
p119
I0
g22
tp120
ag120
ag120
ag120
ag120
a(g119
I0
S'y'
p121
tp122
a(S'p1'
p123
I0
g121
tp124
ag124
a(g123
I0
S'x'
p125
tp126
a(S'p2'
p127
I0
g125
tp128
a(g127
I0
S't'
p129
tp130
ag130
a(g127
F1.5707963267948966
g129
tp131
ag131
ag131
a(g127
F1.5707963267948966
g121
tp132
a(S'p3'
p133
F1.5707963267948966
g121
tp134
ag134
a(g133
F1.5707963267948966
g125
tp135
a(S'p4'
p136
F1.5707963267948966
g125
tp137
asS's'
p138
(lp139
g120
ag120
ag120
ag120
ag120
ag120
ag122
ag124
ag124
ag126
ag128
ag130
ag130
ag131
ag131
ag131
ag132
ag134
ag134
ag135
asS'ui'
p140
(lp141
S'hp'
p142
ag142
ag142
ag142
ag142
ag142
aS'ss'
p143
aS'hs'
p144
ag144
ag117
ag144
ag117
ag117
ag144
ag144
ag144
ag143
ag144
ag144
ag117
asS'um_before'
p145
(lp146
g144
ag144
ag144
ag117
ag143
ag142
ag143
ag142
ag144
ag117
ag144
ag143
ag117
ag143
ag117
ag144
ag143
ag117
ag144
ag117
asS'um_after'
p147
(lp148
NaNaNaNaNag142
ag143
aNag144
ag117
ag144
aNag117
aNaNag144
ag143
aNag144
ag117
asS'is_normalized_entropy_less_than_threshold'
p149
(lp150
g50
(g51
(S'b1'
p151
I0
I1
tp152
Rp153
(I3
S'|'
p154
NNNI-1
I-1
I0
tp155
bS'\x01'
p156
tp157
Rp158
ag158
ag158
ag158
ag158
ag158
ag158
ag158
ag158
ag158
ag158
ag158
ag158
ag158
ag158
ag158
ag158
ag158
ag158
ag158
asaa(lp159
S'index'
p160
aI110492
aatp161
Rp162
.