ccollections
OrderedDict
p0
((lp1
(lp2
S'combination_dict'
p3
ag0
((lp4
(lp5
S'r_to_g_config'
p6
aS'tr'
p7
aa(lp8
S'num_turns'
p9
aI1
aa(lp10
S'start_direction'
p11
acutils_ms
StartDirection
p12
(I1
tp13
Rp14
aa(lp15
S'assistance_type'
p16
acutils_ms
AssistanceType
p17
(I0
tp18
Rp19
aa(lp20
S'start_mode'
p21
aS'x'
p22
aa(lp23
S'ui_given_a_noise'
p24
aF0.1
aa(lp25
S'um_given_ui_noise'
p26
aF0.1
aa(lp27
S'entropy_threshold'
p28
aF0.8
aatp29
Rp30
aa(lp31
S'data'
p32
accollections
defaultdict
p33
(c__builtin__
list
p34
tp35
Rp36
S'a'
p37
(lp38
S'mode_r'
p39
aS'move_p'
p40
ag39
ag40
ag40
aS'mode_l'
p41
ag41
ag40
ag41
ag40
ag39
ag39
ag39
ag40
ag39
ag40
asS'assistance_match_with_ground_truth'
p42
(lp43
I01
aI01
aI01
aI00
aI00
aI00
aI01
aI00
aI01
aI01
aI00
aI00
aI00
aI01
aI01
aI01
asS'is_u_intended_equals_um'
p44
(lp45
I01
aI01
aI01
aI00
aI01
aI00
aI01
aI01
aI01
aI01
aI00
aI00
aI01
aI01
aI01
aI01
asS'total_steps'
p46
I16
sS'normalized_h_of_p_ui_given_um'
p47
(lp48
cnumpy.core.multiarray
scalar
p49
(cnumpy
dtype
p50
(S'f8'
p51
I0
I1
tp52
Rp53
(I3
S'<'
p54
NNNI-1
I-1
I0
tp55
bS'\xfb\x1b\xaam)h\xa1?'
p56
tp57
Rp58
ag49
(g53
S'\xe8\xb5"\xfb\xaf\xa4\xad?'
p59
tp60
Rp61
ag49
(g53
S'\xfb\x1b\xaam)h\xa1?'
p62
tp63
Rp64
ag49
(g53
S'\xe7\x8f%%u\x16\xe6?'
p65
tp66
Rp67
ag49
(g53
S'}\xad\xdc\xbe>\x8e\xe0?'
p68
tp69
Rp70
ag49
(g53
S'\r\x11\x1e\xdc\xe6\x82\xe4?'
p71
tp72
Rp73
ag49
(g53
S'{\xc1\x12\xd6\xcb\x8d\x9a?'
p74
tp75
Rp76
ag49
(g53
S'}\xad\xdc\xbe>\x8e\xe0?'
p77
tp78
Rp79
ag49
(g53
S'{\xc1\x12\xd6\xcb\x8d\x9a?'
p80
tp81
Rp82
ag49
(g53
S'\xe8\xb5"\xfb\xaf\xa4\xad?'
p83
tp84
Rp85
ag49
(g53
S'\x02\x80[\xe6;\x05\xe2?'
p86
tp87
Rp88
ag49
(g53
S'\x11+\xdb{mu\xe6?'
p89
tp90
Rp91
ag49
(g53
S':\xe5\x1e\x0c\x07\xe0\xc4?'
p92
tp93
Rp94
ag49
(g53
S'\xe8\xb5"\xfb\xaf\xa4\xad?'
p95
tp96
Rp97
ag49
(g53
S'\xfb\x1b\xaam)h\xa1?'
p98
tp99
Rp100
ag49
(g53
S'\xe8\xb5"\xfb\xaf\xa4\xad?'
p101
tp102
Rp103
asS'sp'
p104
(lp105
(S'p0'
p106
I0
S'y'
p107
tp108
a(S'p1'
p109
I0
g107
tp110
a(g109
I0
S't'
p111
tp112
ag112
a(g109
I0
S'x'
p113
tp114
ag114
a(g109
I0
g111
tp115
ag114
ag115
a(g109
F1.5707963267948966
g111
tp116
ag116
ag116
a(g109
I0
g111
tp117
ag116
a(g109
F1.5707963267948966
g113
tp118
a(S'p2'
p119
F1.5707963267948966
g113
tp120
asS's'
p121
(lp122
(g106
I0
g22
tp123
ag108
ag110
ag112
ag112
ag114
ag114
ag115
ag114
ag115
ag116
ag116
ag116
ag117
ag116
ag118
asS'ui'
p124
(lp125
S'hp'
p126
ag104
ag126
aS'hs'
p127
ag126
ag104
ag127
ag126
ag127
ag104
ag126
ag127
aS'ss'
p128
ag104
ag126
ag104
asS'um_before'
p129
(lp130
g126
ag104
ag126
ag127
ag126
ag104
ag127
ag126
ag127
ag104
ag104
ag127
ag128
ag104
ag126
ag104
asS'um_after'
p131
(lp132
g126
ag104
ag126
aNag126
aNag127
ag126
ag127
ag104
aNaNag128
ag104
ag126
ag104
asS'is_normalized_entropy_less_than_threshold'
p133
(lp134
g49
(g50
(S'b1'
p135
I0
I1
tp136
Rp137
(I3
S'|'
p138
NNNI-1
I-1
I0
tp139
bS'\x01'
p140
tp141
Rp142
ag142
ag142
ag142
ag142
ag142
ag142
ag142
ag142
ag142
ag142
ag142
ag142
ag142
ag142
ag142
asaa(lp143
S'index'
p144
aI4831
aatp145
Rp146
.