ccollections
OrderedDict
p0
((lp1
(lp2
S'combination_dict'
p3
ag0
((lp4
(lp5
S'r_to_g_config'
p6
aS'br'
p7
aa(lp8
S'num_turns'
p9
aI1
aa(lp10
S'start_direction'
p11
acutils_ms
StartDirection
p12
(I1
tp13
Rp14
aa(lp15
S'assistance_type'
p16
acutils_ms
AssistanceType
p17
(I1
tp18
Rp19
aa(lp20
S'start_mode'
p21
aS'x'
p22
aa(lp23
S'ui_given_a_noise'
p24
aF0.5
aa(lp25
S'um_given_ui_noise'
p26
aF0.7
aa(lp27
S'entropy_threshold'
p28
aF0.7
aatp29
Rp30
aa(lp31
S'data'
p32
accollections
defaultdict
p33
(c__builtin__
list
p34
tp35
Rp36
S'a'
p37
(lp38
S'mode_r'
p39
ag39
aS'move_n'
p40
ag40
ag40
ag39
aS'mode_l'
p41
ag40
ag40
ag41
ag41
ag39
ag40
ag39
ag41
ag39
ag41
ag39
ag39
ag39
ag39
ag41
ag41
ag41
ag41
ag41
ag40
ag39
ag41
ag41
ag40
ag39
ag39
ag39
ag39
ag39
ag39
ag41
aS'move_p'
p42
ag42
ag39
ag39
ag41
ag42
ag39
ag42
ag41
ag39
ag42
ag39
ag42
ag41
ag42
ag42
ag39
ag41
ag39
ag39
ag42
ag39
ag41
ag42
asS'assistance_match_with_ground_truth'
p43
(lp44
I00
aI01
aI00
aI00
aI00
aI00
aI01
aI00
aI00
aI00
aI00
aI01
aI00
aI00
aI00
aI00
aI00
aI00
aI00
aI00
aI00
aI00
aI00
aI00
aI00
aI01
aI00
aI00
aI00
aI01
aI01
aI00
aI00
aI00
aI00
aI00
aI00
aI01
aI00
aI00
aI00
aI00
aI01
aI00
aI01
aI00
aI00
aI01
aI01
aI00
aI00
aI01
aI00
aI00
aI00
aI00
aI00
aI01
aI01
aI00
aI01
aI01
asS'is_u_intended_equals_um'
p45
(lp46
I01
aI01
aI00
aI00
aI00
aI01
aI01
aI00
aI00
aI01
aI00
aI01
aI00
aI01
aI00
aI01
aI00
aI00
aI00
aI01
aI01
aI01
aI01
aI00
aI00
aI01
aI00
aI01
aI01
aI01
aI01
aI00
aI01
aI01
aI01
aI00
aI01
aI01
aI01
aI01
aI01
aI01
aI01
aI01
aI01
aI00
aI00
aI01
aI01
aI01
aI00
aI01
aI01
aI01
aI01
aI00
aI00
aI01
aI01
aI01
aI01
aI01
asS'total_steps'
p47
I62
sS'normalized_h_of_p_ui_given_um'
p48
(lp49
cnumpy.core.multiarray
scalar
p50
(cnumpy
dtype
p51
(S'f8'
p52
I0
I1
tp53
Rp54
(I3
S'<'
p55
NNNI-1
I-1
I0
tp56
bS'\xdd\x91\xcd+n\t\xec?'
p57
tp58
Rp59
ag50
(g54
S'n\x9c\xac=B_\xe4?'
p60
tp61
Rp62
ag50
(g54
S'P\xfe\x07\x0b$s\xe8?'
p63
tp64
Rp65
ag50
(g54
S'P\xfe\x07\x0b$s\xe8?'
p66
tp67
Rp68
ag50
(g54
S'\xf8\x7f\xf4\x94\x14\x1f\xef?'
p69
tp70
Rp71
ag50
(g54
S'z\x9e\x99\xe3V\xf3\xe6?'
p72
tp73
Rp74
ag50
(g54
S'E\xe6#q\xf2\x13\xd8?'
p75
tp76
Rp77
ag50
(g54
S'P\xfe\x07\x0b$s\xe8?'
p78
tp79
Rp80
ag50
(g54
S'\xd4\x0c2O1\x9e\xe9?'
p81
tp82
Rp83
ag50
(g54
S'$\xaf\xb4\xba\xa7\xb8\xe9?'
p84
tp85
Rp86
ag50
(g54
S'g<9\x05\xb3\x1e\xec?'
p87
tp88
Rp89
ag50
(g54
S'n\x9c\xac=B_\xe4?'
p90
tp91
Rp92
ag50
(g54
S'\xf8\x7f\xf4\x94\x14\x1f\xef?'
p93
tp94
Rp95
ag50
(g54
S'z\x9e\x99\xe3V\xf3\xe6?'
p96
tp97
Rp98
ag50
(g54
S'g<9\x05\xb3\x1e\xec?'
p99
tp100
Rp101
ag50
(g54
S'z\x9e\x99\xe3V\xf3\xe6?'
p102
tp103
Rp104
ag50
(g54
S'g<9\x05\xb3\x1e\xec?'
p105
tp106
Rp107
ag50
(g54
S'z\x02}_\xbf\xb3\xed?'
p108
tp109
Rp110
ag50
(g54
S'z\x02}_\xbf\xb3\xed?'
p111
tp112
Rp113
ag50
(g54
S'\xdd\x91\xcd+n\t\xec?'
p114
tp115
Rp116
ag50
(g54
S'z\x9e\x99\xe3V\xf3\xe6?'
p117
tp118
Rp119
ag50
(g54
S'$\xaf\xb4\xba\xa7\xb8\xe9?'
p120
tp121
Rp122
ag50
(g54
S'$\xaf\xb4\xba\xa7\xb8\xe9?'
p123
tp124
Rp125
ag50
(g54
S'\t\x02\xb7\xe0\x19\x80\xe8?'
p126
tp127
Rp128
ag50
(g54
S'\t\x02\xb7\xe0\x19\x80\xe8?'
p129
tp130
Rp131
ag50
(g54
S'E\xe6#q\xf2\x13\xd8?'
p132
tp133
Rp134
ag50
(g54
S'\xf8\x7f\xf4\x94\x14\x1f\xef?'
p135
tp136
Rp137
ag50
(g54
S'z\x9e\x99\xe3V\xf3\xe6?'
p138
tp139
Rp140
ag50
(g54
S'$\xaf\xb4\xba\xa7\xb8\xe9?'
p141
tp142
Rp143
ag50
(g54
S'E\xe6#q\xf2\x13\xd8?'
p144
tp145
Rp146
ag50
(g54
S'\xad`\x91\xe8\xaf\xc5\xe1?'
p147
tp148
Rp149
ag50
(g54
S'z\x02}_\xbf\xb3\xed?'
p150
tp151
Rp152
ag50
(g54
S'\xdd\x91\xcd+n\t\xec?'
p153
tp154
Rp155
ag50
(g54
S'\xdd\x91\xcd+n\t\xec?'
p156
tp157
Rp158
ag50
(g54
S'\xdd\x91\xcd+n\t\xec?'
p159
tp160
Rp161
ag50
(g54
S'z\x02}_\xbf\xb3\xed?'
p162
tp163
Rp164
ag50
(g54
S'z\x9e\x99\xe3V\xf3\xe6?'
p165
tp166
Rp167
ag50
(g54
S'E\xe6#q\xf2\x13\xd8?'
p168
tp169
Rp170
ag50
(g54
S'x\xf7\xfb\xac*\xf5\xec?'
p171
tp172
Rp173
ag50
(g54
S'a\xe9\xc2Z\xc5\x93\xe8?'
p174
tp175
Rp176
ag50
(g54
S'\xdd\x91\xcd+n\t\xec?'
p177
tp178
Rp179
ag50
(g54
S'z\x9e\x99\xe3V\xf3\xe6?'
p180
tp181
Rp182
ag50
(g54
S'E\xe6#q\xf2\x13\xd8?'
p183
tp184
Rp185
ag50
(g54
S'a\xe9\xc2Z\xc5\x93\xe8?'
p186
tp187
Rp188
ag50
(g54
S'n\x9c\xac=B_\xe4?'
p189
tp190
Rp191
ag50
(g54
S'\xc2P1\x95\n\x98\xed?'
p192
tp193
Rp194
ag50
(g54
S'g<9\x05\xb3\x1e\xec?'
p195
tp196
Rp197
ag50
(g54
S'n\x9c\xac=B_\xe4?'
p198
tp199
Rp200
ag50
(g54
S'MH\xf9m"\xe7\xe3?'
p201
tp202
Rp203
ag50
(g54
S'\xdd\x91\xcd+n\t\xec?'
p204
tp205
Rp206
ag50
(g54
S'\xc2P1\x95\n\x98\xed?'
p207
tp208
Rp209
ag50
(g54
S'E\xe6#q\xf2\x13\xd8?'
p210
tp211
Rp212
ag50
(g54
S'x\xf7\xfb\xac*\xf5\xec?'
p213
tp214
Rp215
ag50
(g54
S'a\xe9\xc2Z\xc5\x93\xe8?'
p216
tp217
Rp218
ag50
(g54
S'z\x9e\x99\xe3V\xf3\xe6?'
p219
tp220
Rp221
ag50
(g54
S'g<9\x05\xb3\x1e\xec?'
p222
tp223
Rp224
ag50
(g54
S'z\x02}_\xbf\xb3\xed?'
p225
tp226
Rp227
ag50
(g54
S'n\x9c\xac=B_\xe4?'
p228
tp229
Rp230
ag50
(g54
S'MH\xf9m"\xe7\xe3?'
p231
tp232
Rp233
ag50
(g54
S'z\x9e\x99\xe3V\xf3\xe6?'
p234
tp235
Rp236
ag50
(g54
S'E\xe6#q\xf2\x13\xd8?'
p237
tp238
Rp239
ag50
(g54
S'MH\xf9m"\xe7\xe3?'
p240
tp241
Rp242
asS'sp'
p243
(lp244
(S'p0'
p245
I0
S'x'
p246
tp247
a(g245
I0
S'y'
p248
tp249
a(g245
I0
g248
tp250
ag250
a(g245
I0
g246
tp251
a(g245
I0
S't'
p252
tp253
a(g245
I0
g248
tp254
ag250
a(g245
I0
g252
tp255
a(g245
I0
g252
tp256
a(g245
I0
g246
tp257
ag249
ag251
ag253
ag257
ag253
ag257
a(g245
I0
g246
tp258
ag258
ag247
ag253
ag256
ag256
a(g245
I0
g252
tp259
ag259
ag254
ag251
ag253
ag256
ag254
a(S'p1'
p260
I0
g248
tp261
a(g260
I0
g248
tp262
a(g260
I0
g248
tp263
ag263
ag263
ag262
a(g260
I0
g246
tp264
a(g260
I0
g252
tp265
a(g260
I0
g252
tp266
a(g260
I0
g248
tp267
ag263
ag264
ag265
ag267
a(g260
I0
g252
tp268
a(g260
I0
g246
tp269
a(g260
I0
g248
tp270
ag268
a(g260
F1.5707963267948966
g252
tp271
a(g260
I0
g252
tp272
ag269
ag265
ag266
ag267
ag264
ag270
ag262
ag268
ag271
a(g260
F1.5707963267948966
g248
tp273
a(g260
F1.5707963267948966
g246
tp274
a(S'p2'
p275
F1.5707963267948966
g246
tp276
asS's'
p277
(lp278
(g245
I0
g22
tp279
ag247
ag249
ag250
ag250
ag251
ag253
ag254
ag250
ag255
ag256
ag257
ag249
ag251
ag253
ag257
ag253
ag257
ag258
ag258
ag247
ag253
ag256
ag256
ag259
ag259
ag254
ag251
ag253
ag256
ag254
ag261
ag262
ag263
ag263
ag263
ag262
ag264
ag265
ag266
ag267
ag263
ag264
ag265
ag267
ag268
ag269
ag270
ag268
ag271
ag272
ag269
ag265
ag266
ag267
ag264
ag270
ag262
ag268
ag271
ag273
ag274
asS'ui'
p280
(lp281
S'hp'
p282
aS'ss'
p283
ag282
ag282
aS'hs'
p284
ag284
ag284
ag282
ag283
ag283
ag284
ag282
ag284
ag284
ag243
ag282
ag283
ag283
ag283
ag284
ag284
ag243
ag283
ag283
ag284
ag284
ag282
ag282
ag283
ag243
ag283
ag283
ag283
ag284
ag282
ag282
ag243
ag284
ag283
ag284
ag283
ag284
ag284
ag284
ag282
ag243
ag284
ag283
ag282
ag243
ag282
ag284
ag283
ag243
ag284
ag284
ag283
ag283
ag243
ag284
ag284
ag243
asS'um_before'
p285
(lp286
g283
ag282
ag243
ag243
ag284
ag284
ag284
ag243
ag282
ag243
ag282
ag282
ag284
ag284
ag282
ag284
ag282
ag243
ag243
ag283
ag284
ag243
ag243
ag283
ag283
ag284
ag284
ag284
ag243
ag284
ag283
ag243
ag283
ag283
ag283
ag243
ag284
ag284
ag283
ag284
ag283
ag284
ag284
ag284
ag282
ag282
ag282
ag282
ag243
ag283
ag282
ag284
ag283
ag284
ag284
ag282
ag243
ag282
ag243
ag284
ag284
ag243
asS'um_after'
p287
(lp288
g283
ag282
ag243
ag243
ag284
ag284
ag284
ag243
ag282
ag243
ag282
ag282
ag284
ag284
ag282
ag284
ag282
ag243
ag243
ag283
ag284
ag243
ag243
ag283
ag283
ag284
ag284
ag284
ag243
ag284
ag283
ag243
ag283
ag283
ag283
ag243
ag284
ag284
ag283
ag284
ag283
ag284
ag284
ag284
ag282
ag282
ag282
ag282
ag243
ag283
ag282
ag284
ag283
ag284
ag284
ag282
ag243
ag282
ag243
ag284
ag284
ag243
asS'is_normalized_entropy_less_than_threshold'
p289
(lp290
g50
(g51
(S'b1'
p291
I0
I1
tp292
Rp293
(I3
S'|'
p294
NNNI-1
I-1
I0
tp295
bS'\x00'
p296
tp297
Rp298
ag50
(g293
S'\x01'
p299
tp300
Rp301
ag298
ag298
ag298
ag298
ag301
ag298
ag298
ag298
ag298
ag301
ag298
ag298
ag298
ag298
ag298
ag298
ag298
ag298
ag298
ag298
ag298
ag298
ag298
ag301
ag298
ag298
ag298
ag301
ag301
ag298
ag298
ag298
ag298
ag298
ag298
ag301
ag298
ag298
ag298
ag298
ag301
ag298
ag301
ag298
ag298
ag301
ag301
ag298
ag298
ag301
ag298
ag298
ag298
ag298
ag298
ag301
ag301
ag298
ag301
ag301
asaa(lp302
S'index'
p303
aI93377
aatp304
Rp305
.