ccollections
OrderedDict
p0
((lp1
(lp2
S'combination_dict'
p3
ag0
((lp4
(lp5
S'r_to_g_config'
p6
aS'tr'
p7
aa(lp8
S'num_turns'
p9
aI3
aa(lp10
S'start_direction'
p11
acutils_ms
StartDirection
p12
(I0
tp13
Rp14
aa(lp15
S'assistance_type'
p16
acutils_ms
AssistanceType
p17
(I2
tp18
Rp19
aa(lp20
S'start_mode'
p21
aS'y'
p22
aa(lp23
S'ui_given_a_noise'
p24
aF0.3
aa(lp25
S'um_given_ui_noise'
p26
aF0.1
aa(lp27
S'entropy_threshold'
p28
aF0.5
aatp29
Rp30
aa(lp31
S'data'
p32
accollections
defaultdict
p33
(c__builtin__
list
p34
tp35
Rp36
S'a'
p37
(lp38
S'mode_l'
p39
aS'move_p'
p40
ag40
ag39
aS'mode_r'
p41
ag40
ag41
ag41
ag40
ag39
ag40
ag39
ag39
ag40
ag40
ag41
ag40
ag39
ag40
ag40
ag40
ag41
ag39
ag39
ag40
ag39
ag39
ag40
ag41
ag40
ag40
ag41
ag40
ag39
ag41
ag40
ag41
ag41
ag40
ag41
ag40
ag41
ag40
ag41
ag41
ag40
asS'assistance_match_with_ground_truth'
p42
(lp43
I01
aI00
aI00
aI00
aI01
aI01
aI00
aI01
aI00
aI01
aI00
aI00
aI01
aI00
aI00
aI01
aI00
aI01
aI00
aI00
aI01
aI00
aI00
aI01
aI00
aI00
aI01
aI01
aI01
aI00
aI00
aI01
aI00
aI00
aI01
aI01
aI00
aI01
aI00
aI01
aI01
aI01
aI01
aI00
aI01
aI01
asS'is_u_intended_equals_um'
p44
(lp45
I00
aI00
aI00
aI00
aI00
aI00
aI00
aI00
aI00
aI00
aI00
aI00
aI00
aI00
aI00
aI00
aI00
aI00
aI00
aI00
aI00
aI00
aI00
aI00
aI00
aI00
aI00
aI00
aI00
aI00
aI00
aI00
aI00
aI00
aI00
aI00
aI00
aI00
aI00
aI00
aI00
aI00
aI00
aI00
aI00
aI00
asS'total_steps'
p46
I46
sS'normalized_h_of_p_ui_given_um'
p47
(lp48
cnumpy.core.multiarray
scalar
p49
(cnumpy
dtype
p50
(S'f8'
p51
I0
I1
tp52
Rp53
(I3
S'<'
p54
NNNI-1
I-1
I0
tp55
bS'B\x8a\xfd\x06]\x97\xe3?'
p56
tp57
Rp58
ag58
ag58
ag58
ag58
ag58
ag58
ag58
ag58
ag58
ag58
ag58
ag58
ag58
ag58
ag58
ag58
ag58
ag58
ag58
ag58
ag58
ag58
ag58
ag58
ag58
ag58
ag58
ag58
ag58
ag58
ag58
ag58
ag58
ag58
ag58
ag58
ag58
ag58
ag58
ag58
ag58
ag58
ag58
ag58
ag58
asS'sp'
p59
(lp60
(S'p0'
p61
I0
S'x'
p62
tp63
a(g61
I0
g62
tp64
a(g61
I0
S'y'
p65
tp66
a(g61
I0
S't'
p67
tp68
a(g61
I0
g62
tp69
a(S'p1'
p70
I0
g62
tp71
a(g70
I0
g62
tp72
a(g70
I0
g65
tp73
a(g70
I0
g67
tp74
a(g70
I0
g65
tp75
a(g61
I0
g65
tp76
a(g61
I0
g65
tp77
ag63
ag64
a(g61
I0
g67
tp78
ag69
ag66
ag63
ag64
ag64
ag71
a(g70
I0
g67
tp79
a(g70
I0
g67
tp80
ag75
ag74
ag80
ag75
a(S'p2'
p81
I0
g65
tp82
a(g81
I0
g67
tp83
a(g81
I0
g67
tp84
a(g81
I0
g65
tp85
ag83
a(g81
I0
g62
tp86
a(g70
I0
g62
tp87
ag73
ag82
a(g81
I0
g65
tp88
ag83
ag85
ag83
a(g81
F1.5707963267948966
g67
tp89
a(g81
F1.5707963267948966
g62
tp90
a(S'p3'
p91
F1.5707963267948966
g62
tp92
a(g91
F1.5707963267948966
g62
tp93
a(g91
F1.5707963267948966
g65
tp94
a(S'p4'
p95
F1.5707963267948966
g65
tp96
asS's'
p97
(lp98
(g61
I0
g22
tp99
ag63
ag64
ag66
ag68
ag69
ag71
ag72
ag73
ag74
ag75
ag76
ag77
ag63
ag64
ag78
ag69
ag66
ag63
ag64
ag64
ag71
ag79
ag80
ag75
ag74
ag80
ag75
ag82
ag83
ag84
ag85
ag83
ag86
ag87
ag73
ag82
ag88
ag83
ag85
ag83
ag89
ag90
ag92
ag93
ag94
asS'ui'
p100
(lp101
S'hs'
p102
aS'ss'
p103
aS'hp'
p104
ag102
ag104
ag59
ag103
ag104
ag59
ag102
ag103
ag59
ag102
ag103
ag102
ag104
ag104
ag102
ag103
ag103
ag59
ag102
ag102
ag102
ag59
ag102
ag102
ag59
ag104
ag103
ag102
ag104
ag104
ag103
ag104
ag59
ag59
ag104
ag102
ag104
ag59
ag104
ag59
ag104
ag104
ag59
asS'um_before'
p105
(lp106
g102
ag103
ag104
ag104
ag104
ag59
ag103
ag104
ag104
ag102
ag103
ag59
ag102
ag103
ag102
ag104
ag104
ag102
ag103
ag103
ag59
ag102
ag103
ag102
ag104
ag103
ag102
ag59
ag104
ag103
ag102
ag104
ag104
ag103
ag104
ag59
ag59
ag104
ag102
ag104
ag59
ag104
ag59
ag103
ag104
ag59
asS'um_after'
p107
(lp108
g102
ag103
ag104
ag104
ag104
ag59
ag103
ag104
ag104
ag102
ag103
ag59
ag102
ag103
ag102
ag104
ag104
ag102
ag103
ag103
ag59
ag102
ag103
ag102
ag104
ag103
ag102
ag59
ag104
ag103
ag102
ag104
ag104
ag103
ag104
ag59
ag59
ag104
ag102
ag104
ag59
ag104
ag59
ag103
ag104
ag59
asS'is_normalized_entropy_less_than_threshold'
p109
(lp110
g49
(g50
(S'b1'
p111
I0
I1
tp112
Rp113
(I3
S'|'
p114
NNNI-1
I-1
I0
tp115
bS'\x01'
p116
tp117
Rp118
ag118
ag118
ag118
ag118
ag118
ag118
ag118
ag118
ag118
ag118
ag118
ag118
ag118
ag118
ag118
ag118
ag118
ag118
ag118
ag118
ag118
ag118
ag118
ag118
ag118
ag118
ag118
ag118
ag118
ag118
ag118
ag118
ag118
ag118
ag118
ag118
ag118
ag118
ag118
ag118
ag118
ag118
ag118
ag118
ag118
asaa(lp119
S'index'
p120
aI23402
aatp121
Rp122
.