ccollections
OrderedDict
p0
((lp1
(lp2
S'combination_dict'
p3
ag0
((lp4
(lp5
S'r_to_g_config'
p6
aS'tr'
p7
aa(lp8
S'num_turns'
p9
aI1
aa(lp10
S'start_direction'
p11
acutils_ms
StartDirection
p12
(I0
tp13
Rp14
aa(lp15
S'assistance_type'
p16
acutils_ms
AssistanceType
p17
(I0
tp18
Rp19
aa(lp20
S'start_mode'
p21
aS't'
p22
aa(lp23
S'ui_given_a_noise'
p24
aF0.7
aa(lp25
S'um_given_ui_noise'
p26
aF0.7
aa(lp27
S'entropy_threshold'
p28
aF0.9
aatp29
Rp30
aa(lp31
S'data'
p32
accollections
defaultdict
p33
(c__builtin__
list
p34
tp35
Rp36
S'a'
p37
(lp38
S'mode_r'
p39
ag39
ag39
aS'move_p'
p40
aS'mode_l'
p41
ag41
ag40
ag41
ag41
ag40
ag41
ag39
ag40
asS'assistance_match_with_ground_truth'
p42
(lp43
I00
aI00
aI01
aI01
aI00
aI01
aI00
aI00
aI01
aI01
aI00
aI01
aI01
asS'is_u_intended_equals_um'
p44
(lp45
I00
aI01
aI01
aI01
aI01
aI01
aI01
aI00
aI01
aI01
aI01
aI01
aI01
asS'total_steps'
p46
I13
sS'normalized_h_of_p_ui_given_um'
p47
(lp48
cnumpy.core.multiarray
scalar
p49
(cnumpy
dtype
p50
(S'f8'
p51
I0
I1
tp52
Rp53
(I3
S'<'
p54
NNNI-1
I-1
I0
tp55
bS'\xe6,\xd63*{\xed?'
p56
tp57
Rp58
ag49
(g53
S'\n\xe4\x01\x83I\x05\xe1?'
p59
tp60
Rp61
ag49
(g53
S'\x90\xc3\x7f`\xce\x8b\xe8?'
p62
tp63
Rp64
ag49
(g53
S'\x9f\x96\xbf$$\xea\xe6?'
p65
tp66
Rp67
ag49
(g53
S'\xdbT\xc7\xb4j\xa9\xe5?'
p68
tp69
Rp70
ag49
(g53
S'o\x06K|\xe7\x17\xe0?'
p71
tp72
Rp73
ag49
(g53
S'\xf9\xef5\x9b\n\xc1\xea?'
p74
tp75
Rp76
ag49
(g53
S';\xbb\x16\xd4\xcc\xa3\xed?'
p77
tp78
Rp79
ag49
(g53
S'o\x06K|\xe7\x17\xe0?'
p80
tp81
Rp82
ag49
(g53
S'\x9f\x96\xbf$$\xea\xe6?'
p83
tp84
Rp85
ag49
(g53
S'>\xb3`\n\xba<\xeb?'
p86
tp87
Rp88
ag49
(g53
S'\x90\xc3\x7f`\xce\x8b\xe8?'
p89
tp90
Rp91
ag49
(g53
S'\x9f\x96\xbf$$\xea\xe6?'
p92
tp93
Rp94
asS'sp'
p95
(lp96
(S'p0'
p97
I0
S't'
p98
tp99
a(g97
I0
g98
tp100
a(g97
I0
S'x'
p101
tp102
a(S'p1'
p103
I0
g101
tp104
a(g103
I0
g101
tp105
a(g103
I0
g98
tp106
a(g103
I0
g101
tp107
a(g103
I0
g101
tp108
ag106
a(g103
F1.5707963267948966
g98
tp109
a(g103
F1.5707963267948966
g101
tp110
a(g103
F1.5707963267948966
S'y'
p111
tp112
a(S'p2'
p113
F1.5707963267948966
g111
tp114
asS's'
p115
(lp116
(g97
I0
g22
tp117
ag99
ag100
ag102
ag104
ag105
ag106
ag107
ag108
ag106
ag109
ag110
ag112
asS'ui'
p118
(lp119
S'ss'
p120
ag120
aS'hp'
p121
ag95
aS'hs'
p122
ag122
ag122
ag122
ag122
ag95
ag120
ag95
ag95
asS'um_before'
p123
(lp124
g95
ag120
ag121
ag95
ag120
ag122
ag121
ag95
ag122
ag95
ag121
ag121
ag95
asS'um_after'
p125
(lp126
g95
ag120
ag121
ag95
ag120
ag122
ag121
ag95
ag122
ag95
ag121
ag121
ag95
asS'is_normalized_entropy_less_than_threshold'
p127
(lp128
g49
(g50
(S'b1'
p129
I0
I1
tp130
Rp131
(I3
S'|'
p132
NNNI-1
I-1
I0
tp133
bS'\x00'
p134
tp135
Rp136
ag49
(g131
S'\x01'
p137
tp138
Rp139
ag139
ag139
ag139
ag139
ag139
ag136
ag139
ag139
ag139
ag139
ag139
asaa(lp140
S'index'
p141
aI797
aatp142
Rp143
.