ccollections
OrderedDict
p0
((lp1
(lp2
S'combination_dict'
p3
ag0
((lp4
(lp5
S'r_to_g_config'
p6
aS'br'
p7
aa(lp8
S'num_turns'
p9
aI2
aa(lp10
S'start_direction'
p11
acutils_ms
StartDirection
p12
(I1
tp13
Rp14
aa(lp15
S'assistance_type'
p16
acutils_ms
AssistanceType
p17
(I0
tp18
Rp19
aa(lp20
S'start_mode'
p21
aS't'
p22
aa(lp23
S'ui_given_a_noise'
p24
aF0.5
aa(lp25
S'um_given_ui_noise'
p26
aF0.7
aa(lp27
S'entropy_threshold'
p28
aF0.5
aatp29
Rp30
aa(lp31
S'data'
p32
accollections
defaultdict
p33
(c__builtin__
list
p34
tp35
Rp36
S'a'
p37
(lp38
S'mode_l'
p39
ag39
aS'move_n'
p40
ag39
ag39
ag39
aS'mode_r'
p41
ag39
ag41
ag39
ag39
ag39
ag41
ag41
ag41
ag40
ag39
ag40
ag39
ag39
ag41
aS'move_p'
p42
ag41
ag39
ag41
ag42
ag39
ag39
ag41
ag41
ag41
ag39
ag41
ag41
ag42
ag39
ag39
ag42
ag41
ag40
ag41
ag41
ag40
ag39
ag40
ag41
ag39
ag40
ag39
ag42
ag39
ag42
ag39
ag39
ag42
ag41
ag42
ag39
ag42
ag42
ag39
ag42
ag39
ag41
ag41
ag40
asS'assistance_match_with_ground_truth'
p43
(lp44
I00
aI01
aI00
aI00
aI00
aI00
aI00
aI00
aI00
aI00
aI00
aI00
aI00
aI00
aI01
aI00
aI01
aI01
aI00
aI00
aI01
aI00
aI00
aI00
aI01
aI00
aI00
aI00
aI00
aI00
aI00
aI00
aI00
aI01
aI00
aI00
aI01
aI00
aI01
aI00
aI00
aI01
aI00
aI01
aI00
aI00
aI01
aI01
aI01
aI00
aI01
aI01
aI00
aI01
aI00
aI01
aI00
aI01
aI00
aI00
aI01
aI01
aI00
aI00
aI01
aI01
asS'is_u_intended_equals_um'
p45
(lp46
I00
aI01
aI00
aI00
aI00
aI00
aI00
aI00
aI00
aI00
aI01
aI00
aI00
aI00
aI01
aI00
aI01
aI01
aI00
aI00
aI01
aI00
aI00
aI00
aI01
aI00
aI00
aI00
aI00
aI00
aI00
aI00
aI00
aI01
aI00
aI00
aI01
aI01
aI01
aI00
aI01
aI01
aI00
aI01
aI00
aI00
aI01
aI01
aI01
aI00
aI01
aI01
aI00
aI01
aI00
aI01
aI00
aI01
aI01
aI00
aI01
aI01
aI00
aI01
aI01
aI01
asS'total_steps'
p47
I66
sS'normalized_h_of_p_ui_given_um'
p48
(lp49
cnumpy.core.multiarray
scalar
p50
(cnumpy
dtype
p51
(S'f8'
p52
I0
I1
tp53
Rp54
(I3
S'<'
p55
NNNI-1
I-1
I0
tp56
bS'M\xf5\xb0\x11\xfb\xe1\xe5?'
p57
tp58
Rp59
ag50
(g54
S'\xdcU\xa2\xbbqR\xe0?'
p60
tp61
Rp62
ag50
(g54
S'$\x91lhJF\xe2?'
p63
tp64
Rp65
ag50
(g54
S'M\xf5\xb0\x11\xfb\xe1\xe5?'
p66
tp67
Rp68
ag50
(g54
S'M\xf5\xb0\x11\xfb\xe1\xe5?'
p69
tp70
Rp71
ag50
(g54
S'2\xa8\x88\xbc\xc7\x99\xe8?'
p72
tp73
Rp74
ag50
(g54
S'm]\xe3\xb2\xb3\xc5\xea?'
p75
tp76
Rp77
ag50
(g54
S'2\xa8\x88\xbc\xc7\x99\xe8?'
p78
tp79
Rp80
ag50
(g54
S'm]\xe3\xb2\xb3\xc5\xea?'
p81
tp82
Rp83
ag50
(g54
S'M\xf5\xb0\x11\xfb\xe1\xe5?'
p84
tp85
Rp86
ag50
(g54
S';V\xcc\x7f:\x8e\xeb?'
p87
tp88
Rp89
ag50
(g54
S'2\xa8\x88\xbc\xc7\x99\xe8?'
p90
tp91
Rp92
ag50
(g54
S'\xe9\xad\x9c\xe5\xabp\xe9?'
p93
tp94
Rp95
ag50
(g54
S'\xe9\xad\x9c\xe5\xabp\xe9?'
p96
tp97
Rp98
ag50
(g54
S'\xe0;\xdeQ\xe7M\xe6?'
p99
tp100
Rp101
ag50
(g54
S'$\x91lhJF\xe2?'
p102
tp103
Rp104
ag50
(g54
S'\xdcU\xa2\xbbqR\xe0?'
p105
tp106
Rp107
ag50
(g54
S'\x8ens[\x93 \xce?'
p108
tp109
Rp110
ag50
(g54
S'M\xf5\xb0\x11\xfb\xe1\xe5?'
p111
tp112
Rp113
ag50
(g54
S'2\xa8\x88\xbc\xc7\x99\xe8?'
p114
tp115
Rp116
ag50
(g54
S'\xe0;\xdeQ\xe7M\xe6?'
p117
tp118
Rp119
ag50
(g54
S'[-\xfe\x88\xb1R\xed?'
p120
tp121
Rp122
ag50
(g54
S'm]\xe3\xb2\xb3\xc5\xea?'
p123
tp124
Rp125
ag50
(g54
S'2\xa8\x88\xbc\xc7\x99\xe8?'
p126
tp127
Rp128
ag50
(g54
S'\xe0;\xdeQ\xe7M\xe6?'
p129
tp130
Rp131
ag50
(g54
S'\xdf"\xa6\xa1\xd2\x0b\xe9?'
p132
tp133
Rp134
ag50
(g54
S'M\xf5\xb0\x11\xfb\xe1\xe5?'
p135
tp136
Rp137
ag50
(g54
S'2\xa8\x88\xbc\xc7\x99\xe8?'
p138
tp139
Rp140
ag50
(g54
S'\xe9\xad\x9c\xe5\xabp\xe9?'
p141
tp142
Rp143
ag50
(g54
S'\xe9\xad\x9c\xe5\xabp\xe9?'
p144
tp145
Rp146
ag50
(g54
S'm]\xe3\xb2\xb3\xc5\xea?'
p147
tp148
Rp149
ag50
(g54
S'2\xa8\x88\xbc\xc7\x99\xe8?'
p150
tp151
Rp152
ag50
(g54
S'\xe9\xad\x9c\xe5\xabp\xe9?'
p153
tp154
Rp155
ag50
(g54
S'\xe0;\xdeQ\xe7M\xe6?'
p156
tp157
Rp158
ag50
(g54
S'\xdf"\xa6\xa1\xd2\x0b\xe9?'
p159
tp160
Rp161
ag50
(g54
S'M\xf5\xb0\x11\xfb\xe1\xe5?'
p162
tp163
Rp164
ag50
(g54
S'\xdcU\xa2\xbbqR\xe0?'
p165
tp166
Rp167
ag50
(g54
S'n0vS\x88\xf3\xea?'
p168
tp169
Rp170
ag50
(g54
S'\xe0;\xdeQ\xe7M\xe6?'
p171
tp172
Rp173
ag50
(g54
S'.\x9b\x9a\xe6wI\xe1?'
p174
tp175
Rp176
ag50
(g54
S'Z\xcbf\xf8\x13A\xe9?'
p177
tp178
Rp179
ag50
(g54
S'\xe0;\xdeQ\xe7M\xe6?'
p180
tp181
Rp182
ag50
(g54
S'$\x91lhJF\xe2?'
p183
tp184
Rp185
ag50
(g54
S'\xdcU\xa2\xbbqR\xe0?'
p186
tp187
Rp188
ag50
(g54
S'.\x9b\x9a\xe6wI\xe1?'
p189
tp190
Rp191
ag50
(g54
S'm]\xe3\xb2\xb3\xc5\xea?'
p192
tp193
Rp194
ag50
(g54
S'\xdcU\xa2\xbbqR\xe0?'
p195
tp196
Rp197
ag50
(g54
S'\x8ens[\x93 \xce?'
p198
tp199
Rp200
ag50
(g54
S'\xdcU\xa2\xbbqR\xe0?'
p201
tp202
Rp203
ag50
(g54
S'\xdf"\xa6\xa1\xd2\x0b\xe9?'
p204
tp205
Rp206
ag50
(g54
S'\xdcU\xa2\xbbqR\xe0?'
p207
tp208
Rp209
ag50
(g54
S'\xc0\x08\xb6\x9bmq\xdf?'
p210
tp211
Rp212
ag50
(g54
S'M\xf5\xb0\x11\xfb\xe1\xe5?'
p213
tp214
Rp215
ag50
(g54
S'\xdcU\xa2\xbbqR\xe0?'
p216
tp217
Rp218
ag50
(g54
S'[-\xfe\x88\xb1R\xed?'
p219
tp220
Rp221
ag50
(g54
S'\xe0;\xdeQ\xe7M\xe6?'
p222
tp223
Rp224
ag50
(g54
S'\xdf"\xa6\xa1\xd2\x0b\xe9?'
p225
tp226
Rp227
ag50
(g54
S'\xdcU\xa2\xbbqR\xe0?'
p228
tp229
Rp230
ag50
(g54
S'n0vS\x88\xf3\xea?'
p231
tp232
Rp233
ag50
(g54
S'\xdf"\xa6\xa1\xd2\x0b\xe9?'
p234
tp235
Rp236
ag50
(g54
S'\xdcU\xa2\xbbqR\xe0?'
p237
tp238
Rp239
ag50
(g54
S'\xc0\x08\xb6\x9bmq\xdf?'
p240
tp241
Rp242
ag50
(g54
S'2\xa8\x88\xbc\xc7\x99\xe8?'
p243
tp244
Rp245
ag50
(g54
S'Z\xcbf\xf8\x13A\xe9?'
p246
tp247
Rp248
ag50
(g54
S'\xe0;\xdeQ\xe7M\xe6?'
p249
tp250
Rp251
ag50
(g54
S'\x8ens[\x93 \xce?'
p252
tp253
Rp254
asS'sp'
p255
(lp256
(S'p0'
p257
I0
S't'
p258
tp259
a(g257
I0
S'y'
p260
tp261
a(g257
I0
g258
tp262
ag259
ag259
a(g257
I0
S'x'
p263
tp264
a(g257
I0
g258
tp265
ag264
ag265
ag259
a(g257
I0
g258
tp266
ag264
a(g257
I0
g263
tp267
ag267
a(g257
I0
g260
tp268
ag262
ag261
a(S'p1'
p269
I0
g260
tp270
a(g269
I0
g260
tp271
a(g269
I0
g258
tp272
a(g269
I0
g263
tp273
a(g269
I0
g258
tp274
a(g269
I0
g260
tp275
ag272
ag273
a(g269
I0
g260
tp276
ag271
ag272
a(g269
I0
g258
tp277
ag277
ag275
ag272
ag277
ag273
ag276
ag271
a(g269
I0
g263
tp278
a(g257
I0
g263
tp279
ag268
a(g257
I0
g263
tp280
a(g257
I0
g263
tp281
ag268
ag262
ag261
ag280
ag265
ag261
ag270
ag278
ag276
ag278
a(S'p2'
p282
I0
g263
tp283
a(g282
I0
g263
tp284
a(g282
I0
g258
tp285
a(g282
I0
g260
tp286
a(g282
I0
g258
tp287
a(g282
I0
g263
tp288
ag285
a(g282
I0
g258
tp289
ag288
ag285
a(g282
F1.5707963267948966
g258
tp290
a(g282
F1.5707963267948966
g263
tp291
a(g282
F1.5707963267948966
g263
tp292
a(g282
F1.5707963267948966
g260
tp293
a(S'p3'
p294
F1.5707963267948966
g260
tp295
asS's'
p296
(lp297
(g257
I0
g22
tp298
ag259
ag261
ag262
ag259
ag259
ag264
ag265
ag264
ag265
ag259
ag266
ag264
ag267
ag267
ag268
ag262
ag261
ag270
ag271
ag272
ag273
ag274
ag275
ag272
ag273
ag276
ag271
ag272
ag277
ag277
ag275
ag272
ag277
ag273
ag276
ag271
ag278
ag279
ag268
ag280
ag281
ag268
ag262
ag261
ag280
ag265
ag261
ag270
ag278
ag276
ag278
ag283
ag284
ag285
ag286
ag287
ag288
ag285
ag289
ag288
ag285
ag290
ag291
ag292
ag293
asS'ui'
p299
(lp300
S'hp'
p301
aS'hs'
p302
aS'ss'
p303
ag302
ag301
ag301
ag302
ag302
ag255
ag302
ag255
ag302
ag303
ag301
ag302
ag303
ag302
ag303
ag302
ag255
ag302
ag255
ag302
ag255
ag301
ag303
ag302
ag302
ag301
ag301
ag302
ag301
ag302
ag301
ag255
ag302
ag303
ag302
ag301
ag303
ag255
ag302
ag303
ag303
ag303
ag302
ag302
ag303
ag302
ag255
ag302
ag255
ag302
ag302
ag301
ag301
ag303
ag302
ag301
ag301
ag255
ag255
ag302
ag255
ag301
ag303
asS'um_before'
p304
(lp305
g303
ag302
ag301
ag303
ag303
ag301
ag302
ag301
ag302
ag303
ag255
ag301
ag303
ag303
ag301
ag301
ag302
ag303
ag303
ag301
ag301
ag302
ag302
ag301
ag301
ag301
ag303
ag301
ag303
ag303
ag302
ag301
ag303
ag301
ag301
ag303
ag302
ag303
ag301
ag302
ag255
ag301
ag301
ag302
ag302
ag302
ag302
ag303
ag302
ag301
ag302
ag255
ag303
ag302
ag302
ag301
ag301
ag302
ag303
ag301
ag302
ag255
ag301
ag255
ag301
ag303
asS'um_after'
p306
(lp307
g303
ag302
ag301
ag303
ag303
ag301
ag302
ag301
ag302
ag303
ag255
ag301
ag303
ag303
ag301
ag301
ag302
ag303
ag303
ag301
ag301
ag302
ag302
ag301
ag301
ag301
ag303
ag301
ag303
ag303
ag302
ag301
ag303
ag301
ag301
ag303
ag302
ag303
ag301
ag302
ag255
ag301
ag301
ag302
ag302
ag302
ag302
ag303
ag302
ag301
ag302
ag255
ag303
ag302
ag302
ag301
ag301
ag302
ag303
ag301
ag302
ag255
ag301
ag255
ag301
ag303
asS'is_normalized_entropy_less_than_threshold'
p308
(lp309
g50
(g51
(S'b1'
p310
I0
I1
tp311
Rp312
(I3
S'|'
p313
NNNI-1
I-1
I0
tp314
bS'\x00'
p315
tp316
Rp317
ag317
ag317
ag317
ag317
ag317
ag317
ag317
ag317
ag317
ag317
ag317
ag317
ag317
ag317
ag317
ag317
ag50
(g312
S'\x01'
p318
tp319
Rp320
ag317
ag317
ag317
ag317
ag317
ag317
ag317
ag317
ag317
ag317
ag317
ag317
ag317
ag317
ag317
ag317
ag317
ag317
ag317
ag317
ag317
ag317
ag317
ag317
ag317
ag317
ag317
ag317
ag317
ag320
ag317
ag317
ag317
ag320
ag317
ag317
ag317
ag317
ag317
ag317
ag317
ag317
ag317
ag320
ag317
ag317
ag317
ag320
asaa(lp321
S'index'
p322
aI102159
aatp323
Rp324
.