ccollections
OrderedDict
p0
((lp1
(lp2
S'combination_dict'
p3
ag0
((lp4
(lp5
S'r_to_g_config'
p6
aS'tr'
p7
aa(lp8
S'num_turns'
p9
aI3
aa(lp10
S'start_direction'
p11
acutils_ms
StartDirection
p12
(I0
tp13
Rp14
aa(lp15
S'assistance_type'
p16
acutils_ms
AssistanceType
p17
(I0
tp18
Rp19
aa(lp20
S'start_mode'
p21
aS't'
p22
aa(lp23
S'ui_given_a_noise'
p24
aF0.7
aa(lp25
S'um_given_ui_noise'
p26
aF0.5
aa(lp27
S'entropy_threshold'
p28
aF0.9
aatp29
Rp30
aa(lp31
S'data'
p32
accollections
defaultdict
p33
(c__builtin__
list
p34
tp35
Rp36
S'a'
p37
(lp38
S'mode_r'
p39
aS'mode_l'
p40
ag40
ag39
aS'move_p'
p41
ag39
ag41
ag39
ag39
ag41
ag40
ag40
ag41
ag41
ag39
ag41
ag41
ag39
ag39
ag39
ag41
ag41
ag39
ag41
ag39
ag41
ag41
ag41
ag39
ag40
ag40
ag41
ag40
ag39
ag40
ag40
ag41
ag40
ag39
ag40
ag40
ag40
ag39
ag39
ag41
ag39
ag40
ag41
ag41
ag40
ag39
ag41
ag41
ag40
ag40
ag40
ag39
ag41
ag41
asS'assistance_match_with_ground_truth'
p42
(lp43
I00
aI00
aI00
aI01
aI01
aI01
aI00
aI00
aI01
aI00
aI00
aI01
aI00
aI00
aI01
aI00
aI00
aI00
aI00
aI01
aI00
aI00
aI01
aI01
aI01
aI00
aI00
aI00
aI00
aI00
aI01
aI01
aI00
aI00
aI00
aI01
aI01
aI00
aI00
aI00
aI00
aI00
aI00
aI01
aI00
aI00
aI01
aI00
aI01
aI00
aI01
aI00
aI01
aI00
aI00
aI00
aI01
aI00
aI01
asS'is_u_intended_equals_um'
p44
(lp45
I01
aI01
aI01
aI01
aI01
aI01
aI01
aI01
aI01
aI01
aI01
aI01
aI01
aI01
aI01
aI00
aI01
aI01
aI01
aI01
aI01
aI01
aI01
aI01
aI01
aI00
aI00
aI01
aI01
aI01
aI01
aI01
aI01
aI01
aI01
aI01
aI01
aI01
aI01
aI01
aI01
aI01
aI01
aI01
aI01
aI01
aI01
aI00
aI01
aI01
aI01
aI01
aI01
aI01
aI01
aI01
aI01
aI00
aI01
asS'total_steps'
p46
I59
sS'normalized_h_of_p_ui_given_um'
p47
(lp48
cnumpy.core.multiarray
scalar
p49
(cnumpy
dtype
p50
(S'f8'
p51
I0
I1
tp52
Rp53
(I3
S'<'
p54
NNNI-1
I-1
I0
tp55
bS'V\xae"\x8c\xef\x15\xe9?'
p56
tp57
Rp58
ag49
(g53
S'l\xeeD\xf8/\xb7\xea?'
p59
tp60
Rp61
ag49
(g53
S'\x81\xd9\xb8\x8e\xa7$\xea?'
p62
tp63
Rp64
ag49
(g53
S'^\xfc\xf4\xfa\xffh\xe0?'
p65
tp66
Rp67
ag49
(g53
S'\xc4i>D\xaa\xd6\xe3?'
p68
tp69
Rp70
ag49
(g53
S'^\xfc\xf4\xfa\xffh\xe0?'
p71
tp72
Rp73
ag49
(g53
S'\xd0\xb3\x90h\xb3 \xe7?'
p74
tp75
Rp76
ag49
(g53
S' \xce\x84\xc4+\x1b\xed?'
p77
tp78
Rp79
ag49
(g53
S'^\xfc\xf4\xfa\xffh\xe0?'
p80
tp81
Rp82
ag49
(g53
S't\xbdX\x89E<\xe9?'
p83
tp84
Rp85
ag49
(g53
S'l\xeeD\xf8/\xb7\xea?'
p86
tp87
Rp88
ag49
(g53
S'4\x06\r\x17IW\xe5?'
p89
tp90
Rp91
ag49
(g53
S't\xbdX\x89E<\xe9?'
p92
tp93
Rp94
ag49
(g53
S'\xd0\xb3\x90h\xb3 \xe7?'
p95
tp96
Rp97
ag49
(g53
S'^\xfc\xf4\xfa\xffh\xe0?'
p98
tp99
Rp100
ag49
(g53
S'\xc2H\xd9\x89\xabw\xeb?'
p101
tp102
Rp103
ag49
(g53
S'\xd0\xb3\x90h\xb3 \xe7?'
p104
tp105
Rp106
ag49
(g53
S'\xec\x0e8\x85 \x16\xee?'
p107
tp108
Rp109
ag49
(g53
S' \xce\x84\xc4+\x1b\xed?'
p110
tp111
Rp112
ag49
(g53
S'^\xfc\xf4\xfa\xffh\xe0?'
p113
tp114
Rp115
ag49
(g53
S't\xbdX\x89E<\xe9?'
p116
tp117
Rp118
ag49
(g53
S'\xd0\xb3\x90h\xb3 \xe7?'
p119
tp120
Rp121
ag49
(g53
S'^\xfc\xf4\xfa\xffh\xe0?'
p122
tp123
Rp124
ag49
(g53
S'\xc4i>D\xaa\xd6\xe3?'
p125
tp126
Rp127
ag49
(g53
S'^\xfc\xf4\xfa\xffh\xe0?'
p128
tp129
Rp130
ag49
(g53
S'\xc2H\xd9\x89\xabw\xeb?'
p131
tp132
Rp133
ag49
(g53
S'\xc2H\xd9\x89\xabw\xeb?'
p134
tp135
Rp136
ag49
(g53
S'\xd0\xb3\x90h\xb3 \xe7?'
p137
tp138
Rp139
ag49
(g53
S'V\xae"\x8c\xef\x15\xe9?'
p140
tp141
Rp142
ag49
(g53
S'l\xeeD\xf8/\xb7\xea?'
p143
tp144
Rp145
ag49
(g53
S'4\x06\r\x17IW\xe5?'
p146
tp147
Rp148
ag49
(g53
S'\xc4i>D\xaa\xd6\xe3?'
p149
tp150
Rp151
ag49
(g53
S'\x81\xd9\xb8\x8e\xa7$\xea?'
p152
tp153
Rp154
ag49
(g53
S'V\xae"\x8c\xef\x15\xe9?'
p155
tp156
Rp157
ag49
(g53
S'\xea\xf2O"\x9b\xbc\xeb?'
p158
tp159
Rp160
ag49
(g53
S'4\x06\r\x17IW\xe5?'
p161
tp162
Rp163
ag49
(g53
S'\xc4i>D\xaa\xd6\xe3?'
p164
tp165
Rp166
ag49
(g53
S'\x81\xd9\xb8\x8e\xa7$\xea?'
p167
tp168
Rp169
ag49
(g53
S' \xce\x84\xc4+\x1b\xed?'
p170
tp171
Rp172
ag49
(g53
S'l\xeeD\xf8/\xb7\xea?'
p173
tp174
Rp175
ag49
(g53
S'l\xeeD\xf8/\xb7\xea?'
p176
tp177
Rp178
ag49
(g53
S'\x81\xd9\xb8\x8e\xa7$\xea?'
p179
tp180
Rp181
ag49
(g53
S' \xce\x84\xc4+\x1b\xed?'
p182
tp183
Rp184
ag49
(g53
S'^\xfc\xf4\xfa\xffh\xe0?'
p185
tp186
Rp187
ag49
(g53
S'\xd0\xb3\x90h\xb3 \xe7?'
p188
tp189
Rp190
ag49
(g53
S'V\xae"\x8c\xef\x15\xe9?'
p191
tp192
Rp193
ag49
(g53
S'4\x06\r\x17IW\xe5?'
p194
tp195
Rp196
ag49
(g53
S'\xc2H\xd9\x89\xabw\xeb?'
p197
tp198
Rp199
ag49
(g53
S'\xc4i>D\xaa\xd6\xe3?'
p200
tp201
Rp202
ag49
(g53
S'\x81\xd9\xb8\x8e\xa7$\xea?'
p203
tp204
Rp205
ag49
(g53
S'^\xfc\xf4\xfa\xffh\xe0?'
p206
tp207
Rp208
ag49
(g53
S't\xbdX\x89E<\xe9?'
p209
tp210
Rp211
ag49
(g53
S'\xc4i>D\xaa\xd6\xe3?'
p212
tp213
Rp214
ag49
(g53
S'l\xeeD\xf8/\xb7\xea?'
p215
tp216
Rp217
ag49
(g53
S'l\xeeD\xf8/\xb7\xea?'
p218
tp219
Rp220
ag49
(g53
S'\x81\xd9\xb8\x8e\xa7$\xea?'
p221
tp222
Rp223
ag49
(g53
S'^\xfc\xf4\xfa\xffh\xe0?'
p224
tp225
Rp226
ag49
(g53
S'\xc2H\xd9\x89\xabw\xeb?'
p227
tp228
Rp229
ag49
(g53
S'\xc4i>D\xaa\xd6\xe3?'
p230
tp231
Rp232
asS'sp'
p233
(lp234
(S'p0'
p235
I0
S'y'
p236
tp237
a(g235
I0
g236
tp238
a(g235
I0
S't'
p239
tp240
a(g235
I0
S'x'
p241
tp242
a(S'p1'
p243
I0
g241
tp244
a(g243
I0
g236
tp245
a(g243
I0
g241
tp246
a(g243
I0
g241
tp247
ag245
a(g235
I0
g236
tp248
ag238
a(g235
I0
g241
tp249
a(g235
I0
g241
tp250
a(g235
I0
g239
tp251
ag242
ag242
ag251
a(g235
I0
g239
tp252
a(g235
I0
g239
tp253
ag242
ag250
ag251
ag242
ag244
ag245
ag245
ag245
ag246
a(g243
I0
g239
tp254
a(g243
I0
g239
tp255
a(g243
I0
g236
tp256
a(S'p2'
p257
I0
g236
tp258
a(g257
I0
g239
tp259
a(g257
I0
g236
tp260
a(g257
I0
g236
tp261
a(g257
I0
g241
tp262
a(S'p3'
p263
I0
g241
tp264
a(g263
I0
g236
tp265
a(g257
I0
g236
tp266
a(g257
I0
g236
tp267
ag267
ag259
a(g257
I0
g239
tp268
a(g257
I0
g241
tp269
a(g257
I0
g239
tp270
ag260
ag262
ag262
ag264
ag265
a(g263
I0
g239
tp271
a(g263
I0
g239
tp272
a(g263
F1.5707963267948966
g239
tp273
a(g263
F1.5707963267948966
g239
tp274
ag274
a(g263
F1.5707963267948966
g241
tp275
a(g263
F1.5707963267948966
g236
tp276
ag276
a(S'p4'
p277
F1.5707963267948966
g236
tp278
asS's'
p279
(lp280
(g235
I0
g22
tp281
ag237
ag238
ag240
ag242
ag244
ag245
ag246
ag247
ag245
ag248
ag238
ag249
ag250
ag251
ag242
ag242
ag251
ag252
ag253
ag242
ag250
ag251
ag242
ag244
ag245
ag245
ag245
ag246
ag254
ag255
ag256
ag258
ag259
ag260
ag261
ag262
ag264
ag265
ag266
ag267
ag267
ag259
ag268
ag269
ag270
ag260
ag262
ag262
ag264
ag265
ag271
ag272
ag273
ag274
ag274
ag275
ag276
ag276
asS'ui'
p282
(lp283
S'hs'
p284
ag233
ag233
ag284
ag233
aS'hp'
p285
ag233
aS'ss'
p286
ag285
ag286
ag233
ag286
ag284
ag284
ag285
ag233
ag286
ag233
ag284
ag285
ag233
ag233
ag285
ag233
ag284
ag286
ag284
ag233
ag286
ag233
ag284
ag233
ag285
ag284
ag286
ag285
ag233
ag284
ag286
ag285
ag233
ag285
ag284
ag285
ag233
ag284
ag284
ag284
ag233
ag233
ag285
ag233
ag233
ag233
ag284
ag284
ag285
ag233
ag233
asS'um_before'
p287
(lp288
g284
ag233
ag285
ag285
ag233
ag285
ag284
ag286
ag285
ag286
ag233
ag284
ag286
ag284
ag285
ag285
ag284
ag233
ag286
ag285
ag286
ag284
ag285
ag233
ag285
ag285
ag285
ag284
ag284
ag233
ag284
ag233
ag285
ag284
ag286
ag284
ag233
ag285
ag286
ag233
ag233
ag285
ag286
ag285
ag284
ag284
ag284
ag285
ag233
ag285
ag285
ag286
ag233
ag233
ag233
ag285
ag285
ag285
ag233
asS'um_after'
p289
(lp290
g284
ag233
ag285
ag285
ag233
ag285
ag284
ag286
ag285
ag286
ag233
ag284
ag286
ag284
ag285
aNag284
ag233
ag286
ag285
ag286
ag284
ag285
ag233
ag285
aNaNag284
ag284
ag233
ag284
ag233
ag285
ag284
ag286
ag284
ag233
ag285
ag286
ag233
ag233
ag285
ag286
ag285
ag284
ag284
ag284
aNag233
ag285
ag285
ag286
ag233
ag233
ag233
ag285
ag285
aNag233
asS'is_normalized_entropy_less_than_threshold'
p291
(lp292
g49
(g50
(S'b1'
p293
I0
I1
tp294
Rp295
(I3
S'|'
p296
NNNI-1
I-1
I0
tp297
bS'\x01'
p298
tp299
Rp300
ag300
ag300
ag300
ag300
ag300
ag300
ag49
(g295
S'\x00'
p301
tp302
Rp303
ag300
ag300
ag300
ag300
ag300
ag300
ag300
ag300
ag300
ag303
ag303
ag300
ag300
ag300
ag300
ag300
ag300
ag300
ag300
ag300
ag300
ag300
ag300
ag300
ag300
ag300
ag300
ag300
ag300
ag300
ag303
ag300
ag300
ag300
ag303
ag300
ag300
ag300
ag300
ag300
ag300
ag300
ag300
ag300
ag300
ag300
ag300
ag300
ag300
ag300
ag300
asaa(lp304
S'index'
p305
aI19946
aatp306
Rp307
.