ccollections
OrderedDict
p0
((lp1
(lp2
S'combination_dict'
p3
ag0
((lp4
(lp5
S'r_to_g_config'
p6
aS'bl'
p7
aa(lp8
S'num_turns'
p9
aI2
aa(lp10
S'start_direction'
p11
acutils_ms
StartDirection
p12
(I0
tp13
Rp14
aa(lp15
S'assistance_type'
p16
acutils_ms
AssistanceType
p17
(I0
tp18
Rp19
aa(lp20
S'start_mode'
p21
aS'y'
p22
aa(lp23
S'ui_given_a_noise'
p24
aF0.7
aa(lp25
S'um_given_ui_noise'
p26
aF0.5
aa(lp27
S'entropy_threshold'
p28
aF0.6
aatp29
Rp30
aa(lp31
S'data'
p32
accollections
defaultdict
p33
(c__builtin__
list
p34
tp35
Rp36
S'a'
p37
(lp38
S'mode_l'
p39
ag39
ag39
aS'mode_r'
p40
ag40
aS'move_n'
p41
ag40
ag40
ag40
ag40
ag40
ag39
ag39
ag41
ag40
ag40
ag41
ag40
ag40
ag40
ag40
ag39
ag40
ag39
ag41
ag39
ag39
ag40
ag41
ag40
aS'move_p'
p42
ag40
ag39
ag40
ag39
ag40
ag42
ag40
ag42
ag39
ag42
ag42
ag40
ag40
ag42
ag40
ag41
ag40
ag42
ag40
ag42
ag42
ag40
ag41
asS'assistance_match_with_ground_truth'
p43
(lp44
I00
aI00
aI00
aI00
aI01
aI01
aI00
aI00
aI00
aI00
aI00
aI00
aI01
aI00
aI00
aI01
aI01
aI00
aI00
aI00
aI00
aI00
aI00
aI01
aI00
aI00
aI00
aI01
aI01
aI01
aI00
aI00
aI00
aI00
aI00
aI01
aI00
aI01
aI00
aI01
aI00
aI00
aI00
aI01
aI01
aI01
aI00
aI00
aI00
aI01
aI00
aI01
aI01
aI01
asS'is_u_intended_equals_um'
p45
(lp46
I01
aI01
aI01
aI01
aI01
aI01
aI01
aI01
aI01
aI01
aI01
aI01
aI01
aI01
aI01
aI01
aI01
aI01
aI01
aI01
aI01
aI01
aI01
aI01
aI01
aI01
aI01
aI01
aI01
aI01
aI00
aI01
aI01
aI01
aI01
aI01
aI00
aI01
aI01
aI01
aI00
aI00
aI01
aI01
aI01
aI01
aI01
aI01
aI00
aI01
aI00
aI01
aI01
aI01
asS'total_steps'
p47
I54
sS'normalized_h_of_p_ui_given_um'
p48
(lp49
cnumpy.core.multiarray
scalar
p50
(cnumpy
dtype
p51
(S'f8'
p52
I0
I1
tp53
Rp54
(I3
S'<'
p55
NNNI-1
I-1
I0
tp56
bS'\xe7`\xa3zR\xf8\xee?'
p57
tp58
Rp59
ag50
(g54
S'"\xd8\xefa\x8e\r\xe2?'
p60
tp61
Rp62
ag50
(g54
S'\xd7=\xdb\xa9\x13\xb7\xe5?'
p63
tp64
Rp65
ag50
(g54
S'\x9e\xd3{K\x8e\xb6\xe8?'
p66
tp67
Rp68
ag50
(g54
S'LE\xe7,\x96|\xdc?'
p69
tp70
Rp71
ag50
(g54
S'W\x06;Umd\xe0?'
p72
tp73
Rp74
ag50
(g54
S'J\xbeY\x0e7\xce\xe7?'
p75
tp76
Rp77
ag50
(g54
S'J\xbeY\x0e7\xce\xe7?'
p78
tp79
Rp80
ag50
(g54
S'J\xbeY\x0e7\xce\xe7?'
p81
tp82
Rp83
ag50
(g54
S'J\xbeY\x0e7\xce\xe7?'
p84
tp85
Rp86
ag50
(g54
S"\xf9\xdb\xf4\x81'\xe3\xeb?"
p87
tp88
Rp89
ag50
(g54
S'"\xd8\xefa\x8e\r\xe2?'
p90
tp91
Rp92
ag50
(g54
S'\xfa\xd1"\xe5\x0by\xe4?'
p93
tp94
Rp95
ag50
(g54
S'\xaa\xb9\xfd^\x98\xf6\xe8?'
p96
tp97
Rp98
ag50
(g54
S'\x9e\xd3{K\x8e\xb6\xe8?'
p99
tp100
Rp101
ag50
(g54
S'LE\xe7,\x96|\xdc?'
p102
tp103
Rp104
ag50
(g54
S'W\x06;Umd\xe0?'
p105
tp106
Rp107
ag50
(g54
S'J\xbeY\x0e7\xce\xe7?'
p108
tp109
Rp110
ag50
(g54
S'J\xbeY\x0e7\xce\xe7?'
p111
tp112
Rp113
ag50
(g54
S'\x9e\xd3{K\x8e\xb6\xe8?'
p114
tp115
Rp116
ag50
(g54
S"\xf9\xdb\xf4\x81'\xe3\xeb?"
p117
tp118
Rp119
ag50
(g54
S'"\xd8\xefa\x8e\r\xe2?'
p120
tp121
Rp122
ag50
(g54
S"\xf9\xdb\xf4\x81'\xe3\xeb?"
p123
tp124
Rp125
ag50
(g54
S'\xfa\xd1"\xe5\x0by\xe4?'
p126
tp127
Rp128
ag50
(g54
S';\xc8/\xcc\xec]\xe9?'
p129
tp130
Rp131
ag50
(g54
S'"\xd8\xefa\x8e\r\xe2?'
p132
tp133
Rp134
ag50
(g54
S'\xd7=\xdb\xa9\x13\xb7\xe5?'
p135
tp136
Rp137
ag50
(g54
S'LE\xe7,\x96|\xdc?'
p138
tp139
Rp140
ag50
(g54
S'W\x06;Umd\xe0?'
p141
tp142
Rp143
ag50
(g54
S'LE\xe7,\x96|\xdc?'
p144
tp145
Rp146
ag50
(g54
S'\xca].\xfc0\x93\xe7?'
p147
tp148
Rp149
ag50
(g54
S"\xf9\xdb\xf4\x81'\xe3\xeb?"
p150
tp151
Rp152
ag50
(g54
S'\xd7=\xdb\xa9\x13\xb7\xe5?'
p153
tp154
Rp155
ag50
(g54
S"\xf9\xdb\xf4\x81'\xe3\xeb?"
p156
tp157
Rp158
ag50
(g54
S'\xd7=\xdb\xa9\x13\xb7\xe5?'
p159
tp160
Rp161
ag50
(g54
S'LE\xe7,\x96|\xdc?'
p162
tp163
Rp164
ag50
(g54
S'\xca].\xfc0\x93\xe7?'
p165
tp166
Rp167
ag50
(g54
S'LE\xe7,\x96|\xdc?'
p168
tp169
Rp170
ag50
(g54
S'8r\xb5\xc7\xd1\xa1\xe4?'
p171
tp172
Rp173
ag50
(g54
S'\xfa\xd1"\xe5\x0by\xe4?'
p174
tp175
Rp176
ag50
(g54
S'\x9e\x9b\xa1RK\x95\xe5?'
p177
tp178
Rp179
ag50
(g54
S'\xca].\xfc0\x93\xe7?'
p180
tp181
Rp182
ag50
(g54
S'\x9e\xd3{K\x8e\xb6\xe8?'
p183
tp184
Rp185
ag50
(g54
S'LE\xe7,\x96|\xdc?'
p186
tp187
Rp188
ag50
(g54
S'\xeb\xe9\xd5\xe0\x81\x19\xb6?'
p189
tp190
Rp191
ag50
(g54
S'LE\xe7,\x96|\xdc?'
p192
tp193
Rp194
ag50
(g54
S'\xaa\xb9\xfd^\x98\xf6\xe8?'
p195
tp196
Rp197
ag50
(g54
S'J\xbeY\x0e7\xce\xe7?'
p198
tp199
Rp200
ag50
(g54
S'\xca].\xfc0\x93\xe7?'
p201
tp202
Rp203
ag50
(g54
S'LE\xe7,\x96|\xdc?'
p204
tp205
Rp206
ag50
(g54
S'\x9e\x9b\xa1RK\x95\xe5?'
p207
tp208
Rp209
ag50
(g54
S'\xeb\xe9\xd5\xe0\x81\x19\xb6?'
p210
tp211
Rp212
ag50
(g54
S'LE\xe7,\x96|\xdc?'
p213
tp214
Rp215
ag50
(g54
S'W\x06;Umd\xe0?'
p216
tp217
Rp218
asS'sp'
p219
(lp220
(S'p0'
p221
I0
S'y'
p222
tp223
a(g221
I0
g222
tp224
a(g221
I0
S't'
p225
tp226
a(g221
I0
g225
tp227
a(g221
I0
S'x'
p228
tp229
a(S'p1'
p230
I0
g228
tp231
a(g230
I0
g228
tp232
ag232
ag232
ag232
a(g230
I0
g225
tp233
a(g230
I0
g225
tp234
a(g230
I0
g222
tp235
a(g230
I0
g228
tp236
a(g230
I0
g228
tp237
a(g230
I0
g222
tp238
a(S'p2'
p239
I0
g222
tp240
a(g239
I0
g222
tp241
ag241
a(g239
I0
g222
tp242
a(g239
I0
g228
tp243
a(g230
I0
g228
tp244
ag233
ag235
a(g230
I0
g225
tp245
ag234
a(g230
I0
g228
tp246
ag238
ag240
a(g239
I0
g225
tp247
a(g239
I0
g222
tp248
ag243
a(g239
I0
g222
tp249
ag243
ag249
ag247
ag248
ag247
a(g239
I0
g228
tp250
a(g239
I0
g225
tp251
a(g239
I0
g225
tp252
ag248
ag242
ag247
a(g239
F1.5707963267948966
g225
tp253
a(g239
F1.5707963267948966
g228
tp254
a(g239
F1.5707963267948966
g225
tp255
a(g239
I0
g225
tp256
ag248
ag247
ag252
ag253
ag254
a(S'p3'
p257
F1.5707963267948966
g228
tp258
asS's'
p259
(lp260
(g221
I0
g22
tp261
ag223
ag224
ag226
ag227
ag229
ag231
ag232
ag232
ag232
ag232
ag233
ag234
ag235
ag236
ag237
ag238
ag240
ag241
ag241
ag242
ag243
ag244
ag233
ag235
ag245
ag234
ag246
ag238
ag240
ag247
ag248
ag243
ag249
ag243
ag249
ag247
ag248
ag247
ag250
ag251
ag252
ag248
ag242
ag247
ag253
ag254
ag255
ag256
ag248
ag247
ag252
ag253
ag254
asS'ui'
p262
(lp263
g219
ag219
aS'hp'
p264
ag219
ag264
aS'ss'
p265
ag265
ag265
ag264
ag265
aS'hs'
p266
ag266
ag266
ag265
ag219
ag264
ag265
ag264
ag264
ag266
ag266
ag219
ag264
ag266
ag265
ag219
ag264
ag264
ag265
ag264
ag219
ag266
ag264
ag264
ag264
ag264
ag219
ag264
ag265
ag264
ag219
ag264
ag219
ag264
ag219
ag264
ag265
ag265
ag265
ag264
ag219
ag219
ag264
ag264
asS'um_before'
p267
(lp268
g265
ag219
ag264
ag219
ag264
ag265
ag265
ag265
ag265
ag265
ag266
ag219
ag266
ag266
ag219
ag264
ag265
ag265
ag265
ag219
ag266
ag219
ag266
ag266
ag264
ag219
ag264
ag264
ag265
ag264
ag266
ag266
ag264
ag266
ag264
ag264
ag266
ag264
ag264
ag266
ag265
ag266
ag219
ag264
ag219
ag264
ag266
ag265
ag266
ag264
ag265
ag219
ag264
ag265
asS'um_after'
p269
(lp270
g265
ag219
ag264
ag219
ag264
ag265
ag265
ag265
ag265
ag265
ag266
ag219
ag266
ag266
ag219
ag264
ag265
ag265
ag265
ag219
ag266
ag219
ag266
ag266
ag264
ag219
ag264
ag264
ag265
ag264
ag266
ag266
ag264
ag266
ag264
ag264
ag266
ag264
ag264
ag266
ag265
ag266
ag219
ag264
ag219
ag264
ag266
ag265
ag266
ag264
ag265
ag219
ag264
ag265
asS'is_normalized_entropy_less_than_threshold'
p271
(lp272
g50
(g51
(S'b1'
p273
I0
I1
tp274
Rp275
(I3
S'|'
p276
NNNI-1
I-1
I0
tp277
bS'\x00'
p278
tp279
Rp280
ag50
(g275
S'\x01'
p281
tp282
Rp283
ag280
ag280
ag283
ag283
ag280
ag280
ag280
ag280
ag280
ag283
ag280
ag280
ag280
ag283
ag283
ag280
ag280
ag280
ag280
ag283
ag280
ag280
ag280
ag283
ag280
ag283
ag283
ag283
ag280
ag280
ag280
ag280
ag280
ag283
ag280
ag283
ag280
ag280
ag280
ag280
ag280
ag283
ag283
ag283
ag280
ag280
ag280
ag283
ag280
ag283
ag283
ag283
asaa(lp284
S'index'
p285
aI68717
aatp286
Rp287
.