ccollections
OrderedDict
p0
((lp1
(lp2
S'combination_dict'
p3
ag0
((lp4
(lp5
S'r_to_g_config'
p6
aS'tl'
p7
aa(lp8
S'num_turns'
p9
aI1
aa(lp10
S'start_direction'
p11
acutils_ms
StartDirection
p12
(I1
tp13
Rp14
aa(lp15
S'assistance_type'
p16
acutils_ms
AssistanceType
p17
(I2
tp18
Rp19
aa(lp20
S'start_mode'
p21
aS't'
p22
aa(lp23
S'ui_given_a_noise'
p24
aF0.5
aa(lp25
S'um_given_ui_noise'
p26
aF0.1
aa(lp27
S'entropy_threshold'
p28
aF0.7
aatp29
Rp30
aa(lp31
S'data'
p32
accollections
defaultdict
p33
(c__builtin__
list
p34
tp35
Rp36
S'a'
p37
(lp38
S'mode_l'
p39
aS'mode_r'
p40
aS'move_p'
p41
ag39
ag40
ag41
ag40
ag40
ag40
ag41
ag39
ag40
ag41
ag40
ag41
ag39
ag41
ag40
ag40
ag41
ag41
ag40
ag41
ag40
ag41
ag39
asS'assistance_match_with_ground_truth'
p42
(lp43
I00
aI01
aI00
aI00
aI01
aI01
aI00
aI00
aI01
aI00
aI00
aI01
aI00
aI01
aI00
aI01
aI01
aI00
aI01
aI00
aI01
aI00
aI01
aI00
aI00
aI00
asS'is_u_intended_equals_um'
p44
(lp45
I01
aI01
aI01
aI01
aI01
aI01
aI01
aI01
aI01
aI01
aI01
aI01
aI01
aI01
aI01
aI01
aI01
aI01
aI01
aI01
aI01
aI01
aI01
aI01
aI01
aI01
asS'total_steps'
p46
I26
sS'normalized_h_of_p_ui_given_um'
p47
(lp48
cnumpy.core.multiarray
scalar
p49
(cnumpy
dtype
p50
(S'f8'
p51
I0
I1
tp52
Rp53
(I3
S'<'
p54
NNNI-1
I-1
I0
tp55
bS'\xf2\xa9?\x10\x14\n\xe6?'
p56
tp57
Rp58
ag58
ag58
ag58
ag58
ag58
ag58
ag58
ag58
ag58
ag58
ag58
ag58
ag58
ag58
ag58
ag58
ag58
ag58
ag58
ag58
ag58
ag58
ag58
ag58
ag58
asS'sp'
p59
(lp60
(S'p0'
p61
I0
S'x'
p62
tp63
a(g61
I0
S'y'
p64
tp65
a(g61
I0
S't'
p66
tp67
ag63
ag65
a(S'p1'
p68
I0
g64
tp69
a(g68
I0
g64
tp70
ag70
a(g68
I0
g66
tp71
a(g68
I0
g62
tp72
a(g61
I0
g62
tp73
ag65
a(g61
I0
g62
tp74
ag65
ag67
a(g61
I0
g64
tp75
ag69
a(g68
I0
g64
tp76
ag71
a(g68
I0
g66
tp77
a(g68
F1.5707963267948966
g66
tp78
a(g68
I0
g66
tp79
ag78
ag79
ag72
a(S'p2'
p80
I0
g62
tp81
asS's'
p82
(lp83
(g61
I0
g22
tp84
ag63
ag65
ag67
ag63
ag65
ag69
ag70
ag70
ag71
ag72
ag73
ag65
ag74
ag65
ag67
ag75
ag69
ag76
ag71
ag77
ag78
ag79
ag78
ag79
ag72
asS'ui'
p85
(lp86
S'hp'
p87
ag87
ag87
ag87
ag87
ag59
aS'ss'
p88
ag87
ag87
aS'hs'
p89
ag59
ag87
ag87
ag87
ag87
ag89
ag59
ag59
ag87
ag89
ag59
ag88
ag59
ag88
ag87
ag88
asS'um_before'
p90
(lp91
g87
ag87
ag87
ag87
ag87
ag59
ag88
ag88
ag87
ag87
ag59
ag87
ag89
ag87
ag87
ag89
ag59
ag59
ag87
ag88
ag59
ag88
ag59
ag88
ag87
ag88
asS'um_after'
p92
(lp93
g87
ag87
ag87
ag87
ag87
ag59
ag88
ag88
ag87
ag87
ag59
ag87
ag89
ag87
ag87
ag89
ag59
ag59
ag87
ag88
ag59
ag88
ag59
ag88
ag87
ag88
asS'is_normalized_entropy_less_than_threshold'
p94
(lp95
g49
(g50
(S'b1'
p96
I0
I1
tp97
Rp98
(I3
S'|'
p99
NNNI-1
I-1
I0
tp100
bS'\x01'
p101
tp102
Rp103
ag103
ag103
ag103
ag103
ag103
ag103
ag103
ag103
ag103
ag103
ag103
ag103
ag103
ag103
ag103
ag103
ag103
ag103
ag103
ag103
ag103
ag103
ag103
ag103
ag103
asaa(lp104
S'index'
p105
aI38023
aatp106
Rp107
.