ccollections
OrderedDict
p0
((lp1
(lp2
S'combination_dict'
p3
ag0
((lp4
(lp5
S'r_to_g_config'
p6
aS'tl'
p7
aa(lp8
S'num_turns'
p9
aI3
aa(lp10
S'start_direction'
p11
acutils_ms
StartDirection
p12
(I0
tp13
Rp14
aa(lp15
S'assistance_type'
p16
acutils_ms
AssistanceType
p17
(I2
tp18
Rp19
aa(lp20
S'start_mode'
p21
aS'y'
p22
aa(lp23
S'ui_given_a_noise'
p24
aF0.1
aa(lp25
S'um_given_ui_noise'
p26
aF0.7
aa(lp27
S'entropy_threshold'
p28
aF0.9
aatp29
Rp30
aa(lp31
S'data'
p32
accollections
defaultdict
p33
(c__builtin__
list
p34
tp35
Rp36
S'a'
p37
(lp38
S'mode_l'
p39
aS'move_n'
p40
ag39
ag39
ag39
ag39
aS'move_p'
p41
ag39
ag39
ag39
ag41
aS'mode_r'
p42
ag41
ag42
ag42
ag42
ag41
ag39
ag42
ag40
ag42
ag41
ag39
ag39
ag39
ag42
ag40
ag42
ag41
ag42
ag41
ag39
ag41
ag41
ag42
ag41
ag39
ag41
ag39
ag39
ag40
ag39
ag42
ag40
ag42
ag42
ag39
ag40
ag42
ag42
ag41
ag42
ag41
ag39
ag40
ag42
ag42
ag42
ag41
ag42
ag42
ag42
ag41
asS'assistance_match_with_ground_truth'
p43
(lp44
I01
aI01
aI00
aI00
aI00
aI01
aI01
aI00
aI00
aI01
aI00
aI01
aI00
aI00
aI00
aI01
aI01
aI00
aI01
aI01
aI01
aI00
aI00
aI00
aI00
aI01
aI00
aI01
aI00
aI01
aI00
aI00
aI00
aI00
aI01
aI01
aI01
aI01
aI00
aI01
aI00
aI00
aI01
aI00
aI00
aI00
aI01
aI01
aI00
aI01
aI00
aI01
aI00
aI01
aI01
aI00
aI00
aI01
aI00
aI00
aI00
aI01
aI01
asS'is_u_intended_equals_um'
p45
(lp46
I00
aI00
aI00
aI00
aI00
aI00
aI00
aI00
aI00
aI00
aI00
aI00
aI00
aI00
aI00
aI00
aI00
aI00
aI00
aI00
aI00
aI00
aI00
aI00
aI00
aI00
aI00
aI00
aI00
aI00
aI00
aI00
aI00
aI00
aI00
aI00
aI00
aI00
aI00
aI00
aI00
aI00
aI00
aI00
aI00
aI00
aI00
aI00
aI00
aI00
aI00
aI00
aI00
aI00
aI00
aI00
aI00
aI00
aI00
aI00
aI00
aI00
aI00
asS'total_steps'
p47
I63
sS'normalized_h_of_p_ui_given_um'
p48
(lp49
cnumpy.core.multiarray
scalar
p50
(cnumpy
dtype
p51
(S'f8'
p52
I0
I1
tp53
Rp54
(I3
S'<'
p55
NNNI-1
I-1
I0
tp56
bS'a\xa3\x8e\xb0\xda\xdb\xe9?'
p57
tp58
Rp59
ag59
ag59
ag59
ag59
ag59
ag59
ag59
ag59
ag59
ag59
ag59
ag59
ag59
ag59
ag59
ag59
ag59
ag59
ag59
ag59
ag59
ag59
ag59
ag59
ag59
ag59
ag59
ag59
ag59
ag59
ag59
ag59
ag59
ag59
ag59
ag59
ag59
ag59
ag59
ag59
ag59
ag59
ag59
ag59
ag59
ag59
ag59
ag59
ag59
ag59
ag59
ag59
ag59
ag59
ag59
ag59
ag59
ag59
ag59
ag59
ag59
ag59
asS'sp'
p60
(lp61
(S'p0'
p62
I0
S'x'
p63
tp64
a(S'p1'
p65
I0
g63
tp66
a(g65
I0
g63
tp67
a(g65
I0
g63
tp68
ag67
a(g65
I0
S't'
p69
tp70
a(g65
F1.5707963267948966
g69
tp71
a(g65
F1.5707963267948966
g69
tp72
ag72
a(g65
F1.5707963267948966
S'y'
p73
tp74
a(g65
F1.5707963267948966
g63
tp75
a(g65
F1.5707963267948966
g73
tp76
ag75
a(g65
F1.5707963267948966
g63
tp77
a(g65
F1.5707963267948966
g63
tp78
ag76
a(S'p2'
p79
F1.5707963267948966
g73
tp80
a(g79
F1.5707963267948966
g69
tp81
a(g79
F1.5707963267948966
g63
tp82
a(S'p3'
p83
F1.5707963267948966
g63
tp84
a(g83
F1.5707963267948966
g73
tp85
a(g79
F1.5707963267948966
g73
tp86
a(g79
F1.5707963267948966
g73
tp87
ag87
ag81
ag82
a(g65
F1.5707963267948966
g63
tp88
ag76
ag75
ag76
a(g65
F1.5707963267948966
g69
tp89
a(g65
I0
g69
tp90
a(g65
I0
g69
tp91
a(g65
I0
g73
tp92
a(g65
I0
g69
tp93
ag71
ag74
ag80
a(g79
F1.5707963267948966
g73
tp94
a(g79
F1.5707963267948966
g63
tp95
a(g79
F1.5707963267948966
g73
tp96
ag81
ag82
a(g79
F1.5707963267948966
g69
tp97
a(g79
F1.5707963267948966
g69
tp98
a(g79
F1.5707963267948966
g73
tp99
ag95
ag84
a(g83
F1.5707963267948966
g63
tp100
ag85
a(g83
F1.5707963267948966
g63
tp101
ag85
ag86
ag95
ag84
a(g83
F1.5707963267948966
g63
tp102
ag102
ag85
ag101
ag100
ag100
ag85
a(S'p4'
p103
F1.5707963267948966
g73
tp104
asS's'
p105
(lp106
(g62
I0
g22
tp107
ag64
ag66
ag67
ag68
ag67
ag70
ag71
ag72
ag72
ag74
ag75
ag76
ag75
ag77
ag78
ag76
ag80
ag81
ag82
ag84
ag85
ag86
ag87
ag87
ag81
ag82
ag88
ag76
ag75
ag76
ag89
ag90
ag91
ag92
ag93
ag71
ag74
ag80
ag94
ag95
ag96
ag81
ag82
ag97
ag98
ag99
ag95
ag84
ag100
ag85
ag101
ag85
ag86
ag95
ag84
ag102
ag102
ag85
ag101
ag100
ag100
ag85
asS'ui'
p108
(lp109
S'hs'
p110
aS'ss'
p111
ag110
ag110
ag60
ag110
ag60
ag110
ag110
ag110
ag60
aS'hp'
p112
ag60
ag112
ag112
ag112
ag60
ag110
ag112
ag111
ag112
ag112
ag111
ag110
ag110
ag112
ag111
ag112
ag60
ag112
ag60
ag110
ag60
ag110
ag112
ag60
ag110
ag60
ag110
ag110
ag110
ag110
ag112
ag110
ag60
ag112
ag110
ag111
ag111
ag112
ag60
ag112
ag60
ag110
ag111
ag112
ag112
ag112
ag60
ag111
ag112
ag112
ag60
asS'um_before'
p113
(lp114
g110
ag111
ag60
ag111
ag60
ag110
ag60
ag60
ag60
ag110
ag110
ag112
ag110
ag60
ag111
ag112
ag60
ag112
ag112
ag111
ag112
ag111
ag111
ag111
ag112
ag112
ag60
ag112
ag110
ag112
ag112
ag111
ag111
ag110
ag112
ag60
ag110
ag60
ag60
ag110
ag112
ag112
ag112
ag110
ag60
ag110
ag110
ag111
ag111
ag112
ag110
ag112
ag111
ag110
ag111
ag60
ag60
ag112
ag110
ag111
ag111
ag112
ag60
asS'um_after'
p115
(lp116
g110
ag111
ag60
ag111
ag60
ag110
ag60
ag60
ag60
ag110
ag110
ag112
ag110
ag60
ag111
ag112
ag60
ag112
ag112
ag111
ag112
ag111
ag111
ag111
ag112
ag112
ag60
ag112
ag110
ag112
ag112
ag111
ag111
ag110
ag112
ag60
ag110
ag60
ag60
ag110
ag112
ag112
ag112
ag110
ag60
ag110
ag110
ag111
ag111
ag112
ag110
ag112
ag111
ag110
ag111
ag60
ag60
ag112
ag110
ag111
ag111
ag112
ag60
asS'is_normalized_entropy_less_than_threshold'
p117
(lp118
g50
(g51
(S'b1'
p119
I0
I1
tp120
Rp121
(I3
S'|'
p122
NNNI-1
I-1
I0
tp123
bS'\x01'
p124
tp125
Rp126
ag126
ag126
ag126
ag126
ag126
ag126
ag126
ag126
ag126
ag126
ag126
ag126
ag126
ag126
ag126
ag126
ag126
ag126
ag126
ag126
ag126
ag126
ag126
ag126
ag126
ag126
ag126
ag126
ag126
ag126
ag126
ag126
ag126
ag126
ag126
ag126
ag126
ag126
ag126
ag126
ag126
ag126
ag126
ag126
ag126
ag126
ag126
ag126
ag126
ag126
ag126
ag126
ag126
ag126
ag126
ag126
ag126
ag126
ag126
ag126
ag126
ag126
asaa(lp127
S'index'
p128
aI52195
aatp129
Rp130
.