ccollections
OrderedDict
p0
((lp1
(lp2
S'combination_dict'
p3
ag0
((lp4
(lp5
S'r_to_g_config'
p6
aS'tl'
p7
aa(lp8
S'num_turns'
p9
aI2
aa(lp10
S'start_direction'
p11
acutils_ms
StartDirection
p12
(I1
tp13
Rp14
aa(lp15
S'assistance_type'
p16
acutils_ms
AssistanceType
p17
(I0
tp18
Rp19
aa(lp20
S'start_mode'
p21
aS'x'
p22
aa(lp23
S'ui_given_a_noise'
p24
aF0.3
aa(lp25
S'um_given_ui_noise'
p26
aF0.5
aa(lp27
S'entropy_threshold'
p28
aF0.7
aatp29
Rp30
aa(lp31
S'data'
p32
accollections
defaultdict
p33
(c__builtin__
list
p34
tp35
Rp36
S'a'
p37
(lp38
S'mode_r'
p39
aS'move_p'
p40
ag39
ag40
ag39
ag39
aS'move_n'
p41
ag41
ag39
ag40
aS'mode_l'
p42
ag42
ag42
ag41
ag39
ag40
asS'assistance_match_with_ground_truth'
p43
(lp44
I01
aI01
aI01
aI01
aI00
aI01
aI00
aI01
aI01
aI00
aI00
aI00
aI01
aI01
aI01
aI01
asS'is_u_intended_equals_um'
p45
(lp46
I01
aI01
aI01
aI01
aI00
aI01
aI00
aI01
aI01
aI00
aI00
aI00
aI01
aI01
aI01
aI01
asS'total_steps'
p47
I16
sS'normalized_h_of_p_ui_given_um'
p48
(lp49
cnumpy.core.multiarray
scalar
p50
(cnumpy
dtype
p51
(S'f8'
p52
I0
I1
tp53
Rp54
(I3
S'<'
p55
NNNI-1
I-1
I0
tp56
bS'\xec7\x97\x82\xe8\x8e\xd1?'
p57
tp58
Rp59
ag50
(g54
S'\xfa\x8c\x84V\x88c\xd2?'
p60
tp61
Rp62
ag50
(g54
S'\xec7\x97\x82\xe8\x8e\xd1?'
p63
tp64
Rp65
ag50
(g54
S'\xfa\x8c\x84V\x88c\xd2?'
p66
tp67
Rp68
ag50
(g54
S'\xc8\xb9\xc2\x11\xb9\x9a\xdd?'
p69
tp70
Rp71
ag50
(g54
S'\xec7\x97\x82\xe8\x8e\xd1?'
p72
tp73
Rp74
ag50
(g54
S"e@'\xe6\xddQ\xe3?"
p75
tp76
Rp77
ag50
(g54
S'D\x0cY\xc1{P\xc4?'
p78
tp79
Rp80
ag50
(g54
S'\xec7\x97\x82\xe8\x8e\xd1?'
p81
tp82
Rp83
ag50
(g54
S'rZ\xff.\xc3(\xe9?'
p84
tp85
Rp86
ag50
(g54
S'\x87\x9b\xa2&\xa3M\xe4?'
p87
tp88
Rp89
ag50
(g54
S'\x87\x9b\xa2&\xa3M\xe4?'
p90
tp91
Rp92
ag50
(g54
S'!\xbf\xfa\xfd\xb9\x88\xcc?'
p93
tp94
Rp95
ag50
(g54
S'D\x0cY\xc1{P\xc4?'
p96
tp97
Rp98
ag50
(g54
S'\xec7\x97\x82\xe8\x8e\xd1?'
p99
tp100
Rp101
ag50
(g54
S'\xfa\x8c\x84V\x88c\xd2?'
p102
tp103
Rp104
asS'sp'
p105
(lp106
(S'p0'
p107
I0
S'y'
p108
tp109
a(S'p1'
p110
I0
g108
tp111
a(g110
I0
S't'
p112
tp113
a(g110
F1.5707963267948966
g112
tp114
ag114
a(g110
F1.5707963267948966
S'x'
p115
tp116
ag116
a(S'p2'
p117
F1.5707963267948966
g115
tp118
a(g117
F1.5707963267948966
g108
tp119
a(g110
F1.5707963267948966
g108
tp120
ag120
ag120
a(g110
F1.5707963267948966
g115
tp121
ag118
ag119
a(S'p3'
p122
F1.5707963267948966
g108
tp123
asS's'
p124
(lp125
(g107
I0
g22
tp126
ag109
ag111
ag113
ag114
ag114
ag116
ag116
ag118
ag119
ag120
ag120
ag120
ag121
ag118
ag119
asS'ui'
p127
(lp128
S'hp'
p129
ag105
ag129
ag105
ag129
ag129
ag105
aS'ss'
p130
ag129
ag130
ag105
ag130
aS'hs'
p131
ag130
ag129
ag105
asS'um_before'
p132
(lp133
g129
ag105
ag129
ag105
ag130
ag129
ag105
ag130
ag129
ag130
ag129
ag129
ag131
ag130
ag129
ag105
asS'um_after'
p134
(lp135
g129
ag105
ag129
ag105
aNag129
aNag130
ag129
ag130
aNaNag131
ag130
ag129
ag105
asS'is_normalized_entropy_less_than_threshold'
p136
(lp137
g50
(g51
(S'b1'
p138
I0
I1
tp139
Rp140
(I3
S'|'
p141
NNNI-1
I-1
I0
tp142
bS'\x01'
p143
tp144
Rp145
ag145
ag145
ag145
ag145
ag145
ag145
ag145
ag145
ag50
(g140
S'\x00'
p146
tp147
Rp148
ag145
ag145
ag145
ag145
ag145
ag145
asaa(lp149
S'index'
p150
aI43527
aatp151
Rp152
.