ccollections
OrderedDict
p0
((lp1
(lp2
S'combination_dict'
p3
ag0
((lp4
(lp5
S'r_to_g_config'
p6
aS'br'
p7
aa(lp8
S'num_turns'
p9
aI1
aa(lp10
S'start_direction'
p11
acutils_ms
StartDirection
p12
(I1
tp13
Rp14
aa(lp15
S'assistance_type'
p16
acutils_ms
AssistanceType
p17
(I0
tp18
Rp19
aa(lp20
S'start_mode'
p21
aS'x'
p22
aa(lp23
S'ui_given_a_noise'
p24
aF0.5
aa(lp25
S'um_given_ui_noise'
p26
aF0.7
aa(lp27
S'entropy_threshold'
p28
aF0.9
aatp29
Rp30
aa(lp31
S'data'
p32
accollections
defaultdict
p33
(c__builtin__
list
p34
tp35
Rp36
S'a'
p37
(lp38
S'mode_r'
p39
aS'mode_l'
p40
ag40
ag40
aS'move_n'
p41
ag41
ag41
ag41
ag41
ag41
ag39
aS'move_p'
p42
ag39
ag40
ag40
ag40
ag42
ag39
ag41
ag41
ag41
ag39
ag41
ag40
ag42
asS'assistance_match_with_ground_truth'
p43
(lp44
I00
aI00
aI00
aI01
aI00
aI00
aI00
aI00
aI00
aI01
aI01
aI01
aI00
aI00
aI00
aI01
aI00
aI01
aI00
aI00
aI00
aI01
aI01
aI01
aI01
asS'is_u_intended_equals_um'
p45
(lp46
I01
aI00
aI00
aI01
aI01
aI00
aI00
aI01
aI00
aI01
aI01
aI01
aI01
aI01
aI00
aI01
aI00
aI01
aI01
aI01
aI01
aI01
aI01
aI01
aI01
asS'total_steps'
p47
I25
sS'normalized_h_of_p_ui_given_um'
p48
(lp49
cnumpy.core.multiarray
scalar
p50
(cnumpy
dtype
p51
(S'f8'
p52
I0
I1
tp53
Rp54
(I3
S'<'
p55
NNNI-1
I-1
I0
tp56
bS'\xc0\xcd\x07v\x9fG\xee?'
p57
tp58
Rp59
ag50
(g54
S'\x8c,\x10\x03\x12\x8b\xe7?'
p60
tp61
Rp62
ag50
(g54
S'\x8c,\x10\x03\x12\x8b\xe7?'
p63
tp64
Rp65
ag50
(g54
S'\xde\xc4K\x04\xef\xa1\xde?'
p66
tp67
Rp68
ag50
(g54
S'\xa5\xc4oh\xe0\xcf\xe6?'
p69
tp70
Rp71
ag50
(g54
S'\xce+\x0fu\x8b\xd0\xea?'
p72
tp73
Rp74
ag50
(g54
S'\xce+\x0fu\x8b\xd0\xea?'
p75
tp76
Rp77
ag50
(g54
S'\xa5\xc4oh\xe0\xcf\xe6?'
p78
tp79
Rp80
ag50
(g54
S'\xce+\x0fu\x8b\xd0\xea?'
p81
tp82
Rp83
ag50
(g54
S'\xf2\x8d\x0e\xcaP\x18\xe2?'
p84
tp85
Rp86
ag50
(g54
S'\r\x026\xc8\xddn\xe5?'
p87
tp88
Rp89
ag50
(g54
S'\xdc\xb42E\x0c\x11\xd6?'
p90
tp91
Rp92
ag50
(g54
S'\xc0\xcd\x07v\x9fG\xee?'
p93
tp94
Rp95
ag50
(g54
S"\xab\xce\xcd'7]\xe5?"
p96
tp97
Rp98
ag50
(g54
S'\x8c,\x10\x03\x12\x8b\xe7?'
p99
tp100
Rp101
ag50
(g54
S'\xde\xc4K\x04\xef\xa1\xde?'
p102
tp103
Rp104
ag50
(g54
S'B\x84`y\xf1\x93\xed?'
p105
tp106
Rp107
ag50
(g54
S'\r\x026\xc8\xddn\xe5?'
p108
tp109
Rp110
ag50
(g54
S'\xa5\xc4oh\xe0\xcf\xe6?'
p111
tp112
Rp113
ag50
(g54
S'\xa5\xc4oh\xe0\xcf\xe6?'
p114
tp115
Rp116
ag50
(g54
S'\xf6\x01\x04\xa5\xe0\x81\xed?'
p117
tp118
Rp119
ag50
(g54
S'\r\x026\xc8\xddn\xe5?'
p120
tp121
Rp122
ag50
(g54
S'\xf2\x8d\x0e\xcaP\x18\xe2?'
p123
tp124
Rp125
ag50
(g54
S'\xde\xc4K\x04\xef\xa1\xde?'
p126
tp127
Rp128
ag50
(g54
S'\xdc\xb42E\x0c\x11\xd6?'
p129
tp130
Rp131
asS'sp'
p132
(lp133
(S'p0'
p134
I0
S't'
p135
tp136
ag136
ag136
a(g134
I0
S'y'
p137
tp138
a(g134
I0
g137
tp139
ag139
ag139
ag139
ag139
a(S'p1'
p140
I0
g137
tp141
a(g140
I0
g135
tp142
a(g140
F1.5707963267948966
g135
tp143
a(g140
F1.5707963267948966
g137
tp144
a(g140
F1.5707963267948966
g137
tp145
ag145
a(g140
F1.5707963267948966
S'x'
p146
tp147
a(g134
F1.5707963267948966
g146
tp148
a(g134
F1.5707963267948966
g137
tp149
a(g134
F1.5707963267948966
g137
tp150
ag150
a(g134
F1.5707963267948966
g146
tp151
ag149
a(g140
F1.5707963267948966
g137
tp152
ag147
a(S'p2'
p153
F1.5707963267948966
g146
tp154
asS's'
p155
(lp156
(g134
I0
g22
tp157
ag136
ag136
ag136
ag138
ag139
ag139
ag139
ag139
ag139
ag141
ag142
ag143
ag144
ag145
ag145
ag147
ag148
ag149
ag150
ag150
ag151
ag149
ag152
ag147
asS'ui'
p158
(lp159
S'ss'
p160
aS'hs'
p161
aS'hp'
p162
ag162
ag160
ag161
ag160
ag160
ag162
ag160
ag162
ag132
ag162
ag132
ag161
ag161
ag161
ag161
ag132
ag132
ag161
ag162
ag161
ag161
ag132
asS'um_before'
p163
(lp164
g161
ag162
ag162
ag161
ag132
ag162
ag162
ag132
ag162
ag160
ag162
ag132
ag161
ag160
ag162
ag161
ag160
ag162
ag132
ag132
ag161
ag162
ag160
ag161
ag132
asS'um_after'
p165
(lp166
g161
aNaNag161
ag132
aNaNag132
aNag160
ag162
ag132
ag161
ag160
aNag161
ag160
ag162
ag132
ag132
ag161
ag162
ag160
ag161
ag132
asS'is_normalized_entropy_less_than_threshold'
p167
(lp168
g50
(g51
(S'b1'
p169
I0
I1
tp170
Rp171
(I3
S'|'
p172
NNNI-1
I-1
I0
tp173
bS'\x00'
p174
tp175
Rp176
ag50
(g171
S'\x01'
p177
tp178
Rp179
ag179
ag179
ag179
ag179
ag179
ag179
ag179
ag179
ag179
ag179
ag176
ag179
ag179
ag179
ag176
ag179
ag179
ag179
ag176
ag179
ag179
ag179
ag179
asaa(lp180
S'index'
p181
aI91794
aatp182
Rp183
.