ccollections
OrderedDict
p0
((lp1
(lp2
S'combination_dict'
p3
ag0
((lp4
(lp5
S'r_to_g_config'
p6
aS'bl'
p7
aa(lp8
S'num_turns'
p9
aI3
aa(lp10
S'start_direction'
p11
acutils_ms
StartDirection
p12
(I1
tp13
Rp14
aa(lp15
S'assistance_type'
p16
acutils_ms
AssistanceType
p17
(I0
tp18
Rp19
aa(lp20
S'start_mode'
p21
aS't'
p22
aa(lp23
S'ui_given_a_noise'
p24
aF0.7
aa(lp25
S'um_given_ui_noise'
p26
aF0.1
aa(lp27
S'entropy_threshold'
p28
aF0.7
aatp29
Rp30
aa(lp31
S'data'
p32
accollections
defaultdict
p33
(c__builtin__
list
p34
tp35
Rp36
S'a'
p37
(lp38
S'mode_l'
p39
ag39
aS'move_n'
p40
aS'mode_r'
p41
ag40
ag40
ag39
ag41
ag41
ag39
ag40
ag41
ag40
ag41
ag40
ag40
ag40
ag39
ag39
ag41
ag41
ag41
ag40
ag41
aS'move_p'
p42
ag42
ag42
ag42
ag41
ag42
ag41
ag42
ag42
ag39
ag42
ag41
ag41
ag40
ag41
ag40
ag39
ag40
ag39
ag39
ag39
ag39
ag39
ag40
ag39
ag41
ag40
ag39
ag40
ag41
ag40
ag39
ag41
ag40
ag41
ag41
ag41
ag41
ag40
ag39
ag40
ag41
ag41
ag42
ag42
ag42
ag41
ag42
ag42
ag41
ag41
ag41
ag41
ag42
ag42
ag41
ag41
ag42
ag39
ag42
ag41
ag42
ag41
ag41
ag42
ag41
ag42
ag39
ag41
ag39
ag39
ag39
ag39
ag40
ag39
ag39
ag40
ag39
ag39
ag39
ag41
ag39
ag40
ag41
ag42
ag41
ag42
ag42
ag39
ag42
ag41
ag40
ag41
ag40
ag41
ag41
ag41
ag40
ag39
ag39
ag39
ag39
ag39
ag41
ag40
ag39
ag40
ag39
ag39
ag40
ag41
ag39
ag40
ag41
ag39
ag39
ag40
ag39
ag39
ag40
ag39
ag40
ag41
ag41
ag41
ag39
ag41
ag40
ag41
ag39
ag40
ag39
ag39
ag40
ag39
ag40
ag41
ag40
ag39
ag41
ag39
ag40
ag39
ag40
ag39
ag41
ag39
ag39
ag41
ag41
ag40
ag41
ag41
ag40
asS'assistance_match_with_ground_truth'
p43
(lp44
I00
aI01
aI00
aI01
aI00
aI00
aI00
aI00
aI00
aI01
aI00
aI01
aI00
aI01
aI00
aI00
aI00
aI00
aI00
aI00
aI00
aI01
aI01
aI01
aI00
aI00
aI00
aI00
aI01
aI00
aI01
aI00
aI00
aI01
aI01
aI00
aI01
aI00
aI01
aI00
aI01
aI01
aI00
aI00
aI00
aI00
aI01
aI00
aI00
aI01
aI00
aI01
aI00
aI01
aI00
aI00
aI01
aI00
aI00
aI00
aI00
aI01
aI01
aI01
aI00
aI00
aI00
aI00
aI00
aI00
aI01
aI00
aI00
aI00
aI00
aI00
aI01
aI00
aI00
aI00
aI01
aI00
aI01
aI01
aI00
aI00
aI00
aI01
aI00
aI01
aI00
aI00
aI00
aI00
aI00
aI00
aI01
aI00
aI00
aI01
aI00
aI00
aI00
aI00
aI00
aI01
aI01
aI01
aI01
aI00
aI00
aI00
aI01
aI01
aI01
aI00
aI01
aI01
aI00
aI00
aI01
aI00
aI00
aI00
aI00
aI00
aI00
aI01
aI00
aI01
aI01
aI00
aI01
aI00
aI00
aI01
aI00
aI00
aI00
aI01
aI00
aI00
aI01
aI01
aI01
aI00
aI00
aI00
aI00
aI00
aI01
aI00
aI00
aI01
aI01
aI00
aI01
aI00
aI01
aI00
aI01
aI00
aI00
aI00
aI01
aI00
aI01
aI01
aI00
aI00
aI00
aI00
aI00
aI01
aI00
aI00
aI01
aI01
asS'is_u_intended_equals_um'
p45
(lp46
I01
aI01
aI01
aI01
aI01
aI01
aI01
aI01
aI01
aI01
aI01
aI01
aI01
aI01
aI01
aI01
aI01
aI01
aI01
aI01
aI01
aI01
aI01
aI01
aI01
aI01
aI01
aI01
aI01
aI01
aI01
aI01
aI01
aI01
aI01
aI01
aI01
aI01
aI01
aI01
aI01
aI01
aI01
aI01
aI01
aI01
aI01
aI01
aI01
aI01
aI01
aI01
aI01
aI01
aI01
aI01
aI01
aI01
aI01
aI01
aI01
aI01
aI01
aI01
aI01
aI01
aI01
aI01
aI01
aI01
aI01
aI01
aI01
aI01
aI01
aI01
aI01
aI01
aI01
aI01
aI01
aI01
aI01
aI01
aI01
aI01
aI01
aI01
aI01
aI01
aI01
aI01
aI01
aI01
aI01
aI01
aI01
aI01
aI01
aI01
aI01
aI01
aI01
aI01
aI01
aI01
aI01
aI01
aI01
aI01
aI01
aI01
aI01
aI01
aI01
aI01
aI01
aI01
aI01
aI01
aI01
aI01
aI01
aI01
aI01
aI01
aI01
aI01
aI01
aI01
aI01
aI01
aI01
aI01
aI01
aI01
aI01
aI01
aI01
aI01
aI01
aI01
aI01
aI01
aI01
aI01
aI01
aI01
aI01
aI01
aI01
aI01
aI01
aI01
aI01
aI01
aI01
aI01
aI01
aI01
aI01
aI01
aI01
aI01
aI01
aI01
aI01
aI01
aI01
aI01
aI01
aI01
aI01
aI01
aI01
aI01
aI01
aI01
asS'total_steps'
p47
I178
sS'normalized_h_of_p_ui_given_um'
p48
(lp49
cnumpy.core.multiarray
scalar
p50
(cnumpy
dtype
p51
(S'f8'
p52
I0
I1
tp53
Rp54
(I3
S'<'
p55
NNNI-1
I-1
I0
tp56
bS'\x00\xee\x91\x81\xe9S\xc1?'
p57
tp58
Rp59
ag50
(g54
S'`\xe9\x85\xa0\n\xad\xc3?'
p60
tp61
Rp62
ag50
(g54
S'g\xfa\xe8\x06\xfc \xd7?'
p63
tp64
Rp65
ag50
(g54
S'\xd7\xc0\xd5KV\xb8\xcc?'
p66
tp67
Rp68
ag50
(g54
S'\x03!\x80\x13(\xe4\xe4?'
p69
tp70
Rp71
ag50
(g54
S'9\xef\xa1\x87\x17\x99\xd6?'
p72
tp73
Rp74
ag50
(g54
S'\xc4\x9c\xc1P\x90\xf1\xdf?'
p75
tp76
Rp77
ag50
(g54
S'_\xce\xceKS@\xd6?'
p78
tp79
Rp80
ag50
(g54
S'n\xb5\x00D\x16\xa2\xd9?'
p81
tp82
Rp83
ag50
(g54
S'`\xe9\x85\xa0\n\xad\xc3?'
p84
tp85
Rp86
ag50
(g54
S'g\xfa\xe8\x06\xfc \xd7?'
p87
tp88
Rp89
ag50
(g54
S'\xd7\xc0\xd5KV\xb8\xcc?'
p90
tp91
Rp92
ag50
(g54
S'g\xfa\xe8\x06\xfc \xd7?'
p93
tp94
Rp95
ag50
(g54
S'\xd7\xc0\xd5KV\xb8\xcc?'
p96
tp97
Rp98
ag50
(g54
S'\x03!\x80\x13(\xe4\xe4?'
p99
tp100
Rp101
ag50
(g54
S'\x03!\x80\x13(\xe4\xe4?'
p102
tp103
Rp104
ag50
(g54
S'9\xef\xa1\x87\x17\x99\xd6?'
p105
tp106
Rp107
ag50
(g54
S'\x00\xee\x91\x81\xe9S\xc1?'
p108
tp109
Rp110
ag50
(g54
S'\xc4\x9c\xc1P\x90\xf1\xdf?'
p111
tp112
Rp113
ag50
(g54
S'\xbam3\x19l@\xe0?'
p114
tp115
Rp116
ag50
(g54
S'\xbam3\x19l@\xe0?'
p117
tp118
Rp119
ag50
(g54
S'\xd7\xc0\xd5KV\xb8\xcc?'
p120
tp121
Rp122
ag50
(g54
S'LT\xfc4\xdf\xb7\xc1?'
p123
tp124
Rp125
ag50
(g54
S'\xd7\xc0\xd5KV\xb8\xcc?'
p126
tp127
Rp128
ag50
(g54
S'\x9d \xa6\xee\xdaF\xd4?'
p129
tp130
Rp131
ag50
(g54
S'\x9d \xa6\xee\xdaF\xd4?'
p132
tp133
Rp134
ag50
(g54
S'\x9d \xa6\xee\xdaF\xd4?'
p135
tp136
Rp137
ag50
(g54
S'\x97\xea\x90\x8f\xca\xd7\xe4?'
p138
tp139
Rp140
ag50
(g54
S'\xd7\xc0\xd5KV\xb8\xcc?'
p141
tp142
Rp143
ag50
(g54
S'\x97\xea\x90\x8f\xca\xd7\xe4?'
p144
tp145
Rp146
ag50
(g54
S'\xd7\xc0\xd5KV\xb8\xcc?'
p147
tp148
Rp149
ag50
(g54
S'\x9d \xa6\xee\xdaF\xd4?'
p150
tp151
Rp152
ag50
(g54
S'\x8e+ \xdc\xdd\xb4\xdf?'
p153
tp154
Rp155
ag50
(g54
S'`\xe9\x85\xa0\n\xad\xc3?'
p156
tp157
Rp158
ag50
(g54
S'\xa8z\x8e\xd0\xc3\xcf\xce?'
p159
tp160
Rp161
ag50
(g54
S'\xbam3\x19l@\xe0?'
p162
tp163
Rp164
ag50
(g54
S'\xd7\xc0\xd5KV\xb8\xcc?'
p165
tp166
Rp167
ag50
(g54
S'\x03!\x80\x13(\xe4\xe4?'
p168
tp169
Rp170
ag50
(g54
S'\xd7\xc0\xd5KV\xb8\xcc?'
p171
tp172
Rp173
ag50
(g54
S'9\xef\xa1\x87\x17\x99\xd6?'
p174
tp175
Rp176
ag50
(g54
S'`\xe9\x85\xa0\n\xad\xc3?'
p177
tp178
Rp179
ag50
(g54
S'LT\xfc4\xdf\xb7\xc1?'
p180
tp181
Rp182
ag50
(g54
S'\x00\xee\x91\x81\xe9S\xc1?'
p183
tp184
Rp185
ag50
(g54
S'\x00\xee\x91\x81\xe9S\xc1?'
p186
tp187
Rp188
ag50
(g54
S'\x00\xee\x91\x81\xe9S\xc1?'
p189
tp190
Rp191
ag50
(g54
S'\x00\xee\x91\x81\xe9S\xc1?'
p192
tp193
Rp194
ag50
(g54
S'`\xe9\x85\xa0\n\xad\xc3?'
p195
tp196
Rp197
ag50
(g54
S'9\xef\xa1\x87\x17\x99\xd6?'
p198
tp199
Rp200
ag50
(g54
S'\xc4\x9c\xc1P\x90\xf1\xdf?'
p201
tp202
Rp203
ag50
(g54
S'\xd7\xc0\xd5KV\xb8\xcc?'
p204
tp205
Rp206
ag50
(g54
S'9\xef\xa1\x87\x17\x99\xd6?'
p207
tp208
Rp209
ag50
(g54
S'`\xe9\x85\xa0\n\xad\xc3?'
p210
tp211
Rp212
ag50
(g54
S'g\xfa\xe8\x06\xfc \xd7?'
p213
tp214
Rp215
ag50
(g54
S'\xd7\xc0\xd5KV\xb8\xcc?'
p216
tp217
Rp218
ag50
(g54
S'9\xef\xa1\x87\x17\x99\xd6?'
p219
tp220
Rp221
ag50
(g54
S'\xc4\x9c\xc1P\x90\xf1\xdf?'
p222
tp223
Rp224
ag50
(g54
S'\xd7\xc0\xd5KV\xb8\xcc?'
p225
tp226
Rp227
ag50
(g54
S'\x03!\x80\x13(\xe4\xe4?'
p228
tp229
Rp230
ag50
(g54
S'_\xce\xceKS@\xd6?'
p231
tp232
Rp233
ag50
(g54
S'\xbam3\x19l@\xe0?'
p234
tp235
Rp236
ag50
(g54
S'_\xce\xceKS@\xd6?'
p237
tp238
Rp239
ag50
(g54
S'\xd7\xc0\xd5KV\xb8\xcc?'
p240
tp241
Rp242
ag50
(g54
S'LT\xfc4\xdf\xb7\xc1?'
p243
tp244
Rp245
ag50
(g54
S'`\xe9\x85\xa0\n\xad\xc3?'
p246
tp247
Rp248
ag50
(g54
S'g\xfa\xe8\x06\xfc \xd7?'
p249
tp250
Rp251
ag50
(g54
S'\xbam3\x19l@\xe0?'
p252
tp253
Rp254
ag50
(g54
S'_\xce\xceKS@\xd6?'
p255
tp256
Rp257
ag50
(g54
S'\x9d \xa6\xee\xdaF\xd4?'
p258
tp259
Rp260
ag50
(g54
S'\x9d \xa6\xee\xdaF\xd4?'
p261
tp262
Rp263
ag50
(g54
S'\x97\xea\x90\x8f\xca\xd7\xe4?'
p264
tp265
Rp266
ag50
(g54
S'\xd7\xc0\xd5KV\xb8\xcc?'
p267
tp268
Rp269
ag50
(g54
S'\x9d \xa6\xee\xdaF\xd4?'
p270
tp271
Rp272
ag50
(g54
S'\x97\xea\x90\x8f\xca\xd7\xe4?'
p273
tp274
Rp275
ag50
(g54
S'_\xce\xceKS@\xd6?'
p276
tp277
Rp278
ag50
(g54
S'\xbam3\x19l@\xe0?'
p279
tp280
Rp281
ag50
(g54
S'_\xce\xceKS@\xd6?'
p282
tp283
Rp284
ag50
(g54
S'\xd7\xc0\xd5KV\xb8\xcc?'
p285
tp286
Rp287
ag50
(g54
S'\x9d \xa6\xee\xdaF\xd4?'
p288
tp289
Rp290
ag50
(g54
S'\x97\xea\x90\x8f\xca\xd7\xe4?'
p291
tp292
Rp293
ag50
(g54
S'_\xce\xceKS@\xd6?'
p294
tp295
Rp296
ag50
(g54
S'\xd7\xc0\xd5KV\xb8\xcc?'
p297
tp298
Rp299
ag50
(g54
S'\x8e+ \xdc\xdd\xb4\xdf?'
p300
tp301
Rp302
ag50
(g54
S'`\xe9\x85\xa0\n\xad\xc3?'
p303
tp304
Rp305
ag50
(g54
S'\xa8z\x8e\xd0\xc3\xcf\xce?'
p306
tp307
Rp308
ag50
(g54
S'_\xce\xceKS@\xd6?'
p309
tp310
Rp311
ag50
(g54
S'\x97\xea\x90\x8f\xca\xd7\xe4?'
p312
tp313
Rp314
ag50
(g54
S'_\xce\xceKS@\xd6?'
p315
tp316
Rp317
ag50
(g54
S'\xd7\xc0\xd5KV\xb8\xcc?'
p318
tp319
Rp320
ag50
(g54
S'\x97\xea\x90\x8f\xca\xd7\xe4?'
p321
tp322
Rp323
ag50
(g54
S'\xd7\xc0\xd5KV\xb8\xcc?'
p324
tp325
Rp326
ag50
(g54
S'\x8e+ \xdc\xdd\xb4\xdf?'
p327
tp328
Rp329
ag50
(g54
S'\xe2\xa5~\xac\xb4]\xeb?'
p330
tp331
Rp332
ag50
(g54
S'n\xb5\x00D\x16\xa2\xd9?'
p333
tp334
Rp335
ag50
(g54
S'\x00\xee\x91\x81\xe9S\xc1?'
p336
tp337
Rp338
ag50
(g54
S'\xe2\xa5~\xac\xb4]\xeb?'
p339
tp340
Rp341
ag50
(g54
S'\xe2\xa5~\xac\xb4]\xeb?'
p342
tp343
Rp344
ag50
(g54
S'`\xe9\x85\xa0\n\xad\xc3?'
p345
tp346
Rp347
ag50
(g54
S'9\xef\xa1\x87\x17\x99\xd6?'
p348
tp349
Rp350
ag50
(g54
S'\x00\xee\x91\x81\xe9S\xc1?'
p351
tp352
Rp353
ag50
(g54
S'`\xe9\x85\xa0\n\xad\xc3?'
p354
tp355
Rp356
ag50
(g54
S'9\xef\xa1\x87\x17\x99\xd6?'
p357
tp358
Rp359
ag50
(g54
S'\xe2\xa5~\xac\xb4]\xeb?'
p360
tp361
Rp362
ag50
(g54
S'\x00\xee\x91\x81\xe9S\xc1?'
p363
tp364
Rp365
ag50
(g54
S'\xc4\x9c\xc1P\x90\xf1\xdf?'
p366
tp367
Rp368
ag50
(g54
S'n\xb5\x00D\x16\xa2\xd9?'
p369
tp370
Rp371
ag50
(g54
S'`\xe9\x85\xa0\n\xad\xc3?'
p372
tp373
Rp374
ag50
(g54
S'LT\xfc4\xdf\xb7\xc1?'
p375
tp376
Rp377
ag50
(g54
S'\xd7\xc0\xd5KV\xb8\xcc?'
p378
tp379
Rp380
ag50
(g54
S'\xa8z\x8e\xd0\xc3\xcf\xce?'
p381
tp382
Rp383
ag50
(g54
S'_\xce\xceKS@\xd6?'
p384
tp385
Rp386
ag50
(g54
S'\x9d \xa6\xee\xdaF\xd4?'
p387
tp388
Rp389
ag50
(g54
S'\x8e+ \xdc\xdd\xb4\xdf?'
p390
tp391
Rp392
ag50
(g54
S'`\xe9\x85\xa0\n\xad\xc3?'
p393
tp394
Rp395
ag50
(g54
S'\xa8z\x8e\xd0\xc3\xcf\xce?'
p396
tp397
Rp398
ag50
(g54
S'\xd7\xc0\xd5KV\xb8\xcc?'
p399
tp400
Rp401
ag50
(g54
S'g\xfa\xe8\x06\xfc \xd7?'
p402
tp403
Rp404
ag50
(g54
S'\xd7\xc0\xd5KV\xb8\xcc?'
p405
tp406
Rp407
ag50
(g54
S'LT\xfc4\xdf\xb7\xc1?'
p408
tp409
Rp410
ag50
(g54
S'\xbam3\x19l@\xe0?'
p411
tp412
Rp413
ag50
(g54
S'\xbam3\x19l@\xe0?'
p414
tp415
Rp416
ag50
(g54
S'\xd7\xc0\xd5KV\xb8\xcc?'
p417
tp418
Rp419
ag50
(g54
S'9\xef\xa1\x87\x17\x99\xd6?'
p420
tp421
Rp422
ag50
(g54
S'\xe2\xa5~\xac\xb4]\xeb?'
p423
tp424
Rp425
ag50
(g54
S'\x00\xee\x91\x81\xe9S\xc1?'
p426
tp427
Rp428
ag50
(g54
S'\x00\xee\x91\x81\xe9S\xc1?'
p429
tp430
Rp431
ag50
(g54
S'\x00\xee\x91\x81\xe9S\xc1?'
p432
tp433
Rp434
ag50
(g54
S'\xc4\x9c\xc1P\x90\xf1\xdf?'
p435
tp436
Rp437
ag50
(g54
S'\xd7\xc0\xd5KV\xb8\xcc?'
p438
tp439
Rp440
ag50
(g54
S'9\xef\xa1\x87\x17\x99\xd6?'
p441
tp442
Rp443
ag50
(g54
S'`\xe9\x85\xa0\n\xad\xc3?'
p444
tp445
Rp446
ag50
(g54
S'LT\xfc4\xdf\xb7\xc1?'
p447
tp448
Rp449
ag50
(g54
S'\xe2\xa5~\xac\xb4]\xeb?'
p450
tp451
Rp452
ag50
(g54
S'`\xe9\x85\xa0\n\xad\xc3?'
p453
tp454
Rp455
ag50
(g54
S'g\xfa\xe8\x06\xfc \xd7?'
p456
tp457
Rp458
ag50
(g54
S'n\xb5\x00D\x16\xa2\xd9?'
p459
tp460
Rp461
ag50
(g54
S'`\xe9\x85\xa0\n\xad\xc3?'
p462
tp463
Rp464
ag50
(g54
S'\x03!\x80\x13(\xe4\xe4?'
p465
tp466
Rp467
ag50
(g54
S'n\xb5\x00D\x16\xa2\xd9?'
p468
tp469
Rp470
ag50
(g54
S'\xe2\xa5~\xac\xb4]\xeb?'
p471
tp472
Rp473
ag50
(g54
S'`\xe9\x85\xa0\n\xad\xc3?'
p474
tp475
Rp476
ag50
(g54
S'9\xef\xa1\x87\x17\x99\xd6?'
p477
tp478
Rp479
ag50
(g54
S'\x00\xee\x91\x81\xe9S\xc1?'
p480
tp481
Rp482
ag50
(g54
S'`\xe9\x85\xa0\n\xad\xc3?'
p483
tp484
Rp485
ag50
(g54
S'LT\xfc4\xdf\xb7\xc1?'
p486
tp487
Rp488
ag50
(g54
S'`\xe9\x85\xa0\n\xad\xc3?'
p489
tp490
Rp491
ag50
(g54
S'\x03!\x80\x13(\xe4\xe4?'
p492
tp493
Rp494
ag50
(g54
S'_\xce\xceKS@\xd6?'
p495
tp496
Rp497
ag50
(g54
S'\xbam3\x19l@\xe0?'
p498
tp499
Rp500
ag50
(g54
S'n\xb5\x00D\x16\xa2\xd9?'
p501
tp502
Rp503
ag50
(g54
S'\xc4\x9c\xc1P\x90\xf1\xdf?'
p504
tp505
Rp506
ag50
(g54
S'\xd7\xc0\xd5KV\xb8\xcc?'
p507
tp508
Rp509
ag50
(g54
S'g\xfa\xe8\x06\xfc \xd7?'
p510
tp511
Rp512
ag50
(g54
S'n\xb5\x00D\x16\xa2\xd9?'
p513
tp514
Rp515
ag50
(g54
S'`\xe9\x85\xa0\n\xad\xc3?'
p516
tp517
Rp518
ag50
(g54
S'LT\xfc4\xdf\xb7\xc1?'
p519
tp520
Rp521
ag50
(g54
S'\xe2\xa5~\xac\xb4]\xeb?'
p522
tp523
Rp524
ag50
(g54
S'`\xe9\x85\xa0\n\xad\xc3?'
p525
tp526
Rp527
ag50
(g54
S'9\xef\xa1\x87\x17\x99\xd6?'
p528
tp529
Rp530
ag50
(g54
S'`\xe9\x85\xa0\n\xad\xc3?'
p531
tp532
Rp533
ag50
(g54
S'\x03!\x80\x13(\xe4\xe4?'
p534
tp535
Rp536
ag50
(g54
S'\xd7\xc0\xd5KV\xb8\xcc?'
p537
tp538
Rp539
ag50
(g54
S'9\xef\xa1\x87\x17\x99\xd6?'
p540
tp541
Rp542
ag50
(g54
S'\xc4\x9c\xc1P\x90\xf1\xdf?'
p543
tp544
Rp545
ag50
(g54
S'n\xb5\x00D\x16\xa2\xd9?'
p546
tp547
Rp548
ag50
(g54
S'`\xe9\x85\xa0\n\xad\xc3?'
p549
tp550
Rp551
ag50
(g54
S'9\xef\xa1\x87\x17\x99\xd6?'
p552
tp553
Rp554
ag50
(g54
S'`\xe9\x85\xa0\n\xad\xc3?'
p555
tp556
Rp557
ag50
(g54
S'LT\xfc4\xdf\xb7\xc1?'
p558
tp559
Rp560
ag50
(g54
S'\xc4\x9c\xc1P\x90\xf1\xdf?'
p561
tp562
Rp563
ag50
(g54
S'n\xb5\x00D\x16\xa2\xd9?'
p564
tp565
Rp566
ag50
(g54
S'\x00\xee\x91\x81\xe9S\xc1?'
p567
tp568
Rp569
ag50
(g54
S'\xc4\x9c\xc1P\x90\xf1\xdf?'
p570
tp571
Rp572
ag50
(g54
S'\xbam3\x19l@\xe0?'
p573
tp574
Rp575
ag50
(g54
S'\xd7\xc0\xd5KV\xb8\xcc?'
p576
tp577
Rp578
ag50
(g54
S'g\xfa\xe8\x06\xfc \xd7?'
p579
tp580
Rp581
ag50
(g54
S'\xbam3\x19l@\xe0?'
p582
tp583
Rp584
ag50
(g54
S'\xd7\xc0\xd5KV\xb8\xcc?'
p585
tp586
Rp587
ag50
(g54
S'LT\xfc4\xdf\xb7\xc1?'
p588
tp589
Rp590
asS'sp'
p591
(lp592
(S'p0'
p593
I0
S't'
p594
tp595
a(g593
I0
S'y'
p596
tp597
a(g593
I0
S'x'
p598
tp599
a(g593
I0
g596
tp600
a(g593
I0
g596
tp601
a(g593
I0
g594
tp602
a(g593
I0
g598
tp603
a(g593
I0
g598
tp604
a(g593
I0
g594
tp605
ag597
ag599
ag600
ag599
ag600
ag601
ag601
ag602
ag595
ag603
a(g593
I0
g598
tp606
ag606
ag600
a(S'p1'
p607
I0
g596
tp608
a(g607
I0
g594
tp609
a(g607
I0
g594
tp610
ag610
ag610
a(g607
I0
g596
tp611
ag609
ag611
ag609
ag610
a(g607
I0
g598
tp612
a(g607
I0
g594
tp613
a(g607
F1.5707963267948966
g594
tp614
a(g607
F1.5707963267948966
g594
tp615
a(g607
F1.5707963267948966
g598
tp616
a(g593
F1.5707963267948966
g598
tp617
a(g593
F1.5707963267948966
g596
tp618
a(g593
F1.5707963267948966
g594
tp619
a(g593
F1.5707963267948966
g596
tp620
a(g607
F1.5707963267948966
g596
tp621
a(g607
F1.5707963267948966
g596
tp622
ag622
ag622
ag622
a(g607
F1.5707963267948966
g598
tp623
a(g607
F1.5707963267948966
g596
tp624
a(g607
F1.5707963267948966
g594
tp625
ag616
ag624
ag623
a(g607
F1.5707963267948966
g594
tp626
ag616
ag624
ag625
ag616
ag617
a(g593
F1.5707963267948966
g598
tp627
a(g593
F1.5707963267948966
g598
tp628
ag627
ag618
ag621
ag623
ag626
ag615
a(g607
I0
g594
tp629
ag610
ag610
ag611
ag609
ag610
ag611
a(g607
I0
g596
tp630
a(g607
I0
g596
tp631
ag630
ag609
ag610
ag611
ag630
ag609
ag612
ag613
ag614
ag629
ag611
ag630
ag609
ag611
ag609
ag612
a(g593
I0
g598
tp632
ag605
ag595
a(g593
I0
g594
tp633
ag633
ag597
ag602
ag595
ag597
ag602
ag633
ag595
ag603
ag605
ag597
ag608
ag609
ag614
ag629
ag610
ag612
ag613
ag614
ag616
ag626
ag616
a(S'p2'
p634
F1.5707963267948966
g598
tp635
a(g634
F1.5707963267948966
g598
tp636
ag636
a(g634
F1.5707963267948966
g596
tp637
a(g634
F1.5707963267948966
g594
tp638
a(g634
F1.5707963267948966
g594
tp639
a(g634
F1.5707963267948966
g594
tp640
ag640
ag640
a(g634
F1.5707963267948966
g598
tp641
ag637
ag638
a(g634
F1.5707963267948966
g596
tp642
a(S'p3'
p643
F1.5707963267948966
g596
tp644
a(g643
F1.5707963267948966
g596
tp645
a(g643
F1.5707963267948966
g598
tp646
a(g643
F1.5707963267948966
g594
tp647
a(g643
F1.5707963267948966
g596
tp648
ag646
a(g634
F1.5707963267948966
g598
tp649
a(g634
F1.5707963267948966
g594
tp650
ag639
ag642
ag638
ag640
ag642
ag644
ag646
ag649
a(g634
F1.5707963267948966
g598
tp651
ag636
ag650
ag641
ag637
a(g634
F1.5707963267948966
g598
tp652
ag650
ag642
ag644
ag645
ag646
a(g643
F1.5707963267948966
g596
tp653
ag646
ag649
ag637
ag638
ag641
ag650
ag642
ag638
ag642
ag644
a(g643
F1.5707963267948966
g594
tp654
ag648
a(g643
F1.5707963267948966
g596
tp655
ag654
a(g643
F1.5707963267948966
g594
tp656
a(g643
F1.5707963267948966
g598
tp657
ag647
ag656
ag657
a(S'p4'
p658
F1.5707963267948966
g598
tp659
asS's'
p660
(lp661
(g593
I0
g22
tp662
ag595
ag597
ag599
ag600
ag601
ag602
ag603
ag604
ag605
ag597
ag599
ag600
ag599
ag600
ag601
ag601
ag602
ag595
ag603
ag606
ag606
ag600
ag608
ag609
ag610
ag610
ag610
ag611
ag609
ag611
ag609
ag610
ag612
ag613
ag614
ag615
ag616
ag617
ag618
ag619
ag620
ag621
ag622
ag622
ag622
ag622
ag623
ag624
ag625
ag616
ag624
ag623
ag626
ag616
ag624
ag625
ag616
ag617
ag627
ag628
ag627
ag618
ag621
ag623
ag626
ag615
ag629
ag610
ag610
ag611
ag609
ag610
ag611
ag630
ag631
ag630
ag609
ag610
ag611
ag630
ag609
ag612
ag613
ag614
ag629
ag611
ag630
ag609
ag611
ag609
ag612
ag632
ag605
ag595
ag633
ag633
ag597
ag602
ag595
ag597
ag602
ag633
ag595
ag603
ag605
ag597
ag608
ag609
ag614
ag629
ag610
ag612
ag613
ag614
ag616
ag626
ag616
ag635
ag636
ag636
ag637
ag638
ag639
ag640
ag640
ag640
ag641
ag637
ag638
ag642
ag644
ag645
ag646
ag647
ag648
ag646
ag649
ag650
ag639
ag642
ag638
ag640
ag642
ag644
ag646
ag649
ag651
ag636
ag650
ag641
ag637
ag652
ag650
ag642
ag644
ag645
ag646
ag653
ag646
ag649
ag637
ag638
ag641
ag650
ag642
ag638
ag642
ag644
ag654
ag648
ag655
ag654
ag656
ag657
ag647
ag656
ag657
asS'ui'
p663
(lp664
S'ss'
p665
aS'hs'
p666
ag666
aS'hp'
p667
ag665
ag667
ag667
ag665
ag666
ag666
ag665
ag667
ag666
ag667
ag591
ag667
ag667
ag665
ag666
ag591
ag591
ag667
ag665
ag667
ag665
ag591
ag665
ag591
ag667
ag666
ag667
ag591
ag667
ag666
ag591
ag591
ag667
ag591
ag667
ag667
ag666
ag665
ag665
ag665
ag665
ag665
ag666
ag667
ag667
ag667
ag667
ag666
ag666
ag667
ag667
ag667
ag667
ag591
ag665
ag591
ag591
ag667
ag665
ag666
ag665
ag667
ag665
ag665
ag665
ag666
ag667
ag665
ag591
ag591
ag667
ag665
ag667
ag665
ag666
ag667
ag667
ag591
ag666
ag591
ag591
ag665
ag665
ag667
ag666
ag667
ag591
ag591
ag666
ag665
ag591
ag667
ag665
ag591
ag665
ag666
ag667
ag666
ag665
ag666
ag666
ag666
ag665
ag667
ag591
ag665
ag665
ag667
ag666
ag591
ag667
ag666
ag667
ag666
ag591
ag591
ag667
ag667
ag591
ag667
ag665
ag665
ag667
ag667
ag667
ag666
ag665
ag591
ag665
ag666
ag666
ag666
ag591
ag666
ag665
ag666
ag667
ag665
ag666
ag665
ag666
ag591
ag665
ag591
ag666
ag667
ag667
ag666
ag666
ag666
ag665
ag665
ag666
ag667
ag666
ag667
ag667
ag667
ag667
ag666
ag666
ag667
ag666
ag665
ag667
ag666
ag665
ag667
ag665
ag667
ag666
ag591
ag667
ag665
asS'um_before'
p668
(lp669
g665
ag666
ag666
ag667
ag591
ag667
ag667
ag665
ag666
ag666
ag666
ag667
ag666
ag667
ag591
ag591
ag667
ag665
ag667
ag591
ag591
ag667
ag665
ag667
ag665
ag665
ag665
ag666
ag667
ag666
ag667
ag665
ag667
ag666
ag591
ag591
ag667
ag591
ag667
ag667
ag666
ag665
ag665
ag665
ag665
ag665
ag666
ag667
ag667
ag667
ag667
ag666
ag666
ag667
ag667
ag667
ag667
ag591
ag665
ag591
ag665
ag667
ag665
ag666
ag666
ag591
ag665
ag665
ag665
ag666
ag667
ag665
ag666
ag665
ag591
ag665
ag667
ag665
ag666
ag665
ag667
ag667
ag666
ag591
ag665
ag666
ag665
ag667
ag666
ag667
ag667
ag591
ag666
ag665
ag591
ag591
ag666
ag667
ag665
ag666
ag667
ag591
ag665
ag667
ag666
ag666
ag665
ag667
ag591
ag665
ag665
ag667
ag666
ag591
ag667
ag666
ag667
ag665
ag591
ag591
ag667
ag667
ag591
ag665
ag665
ag665
ag667
ag667
ag667
ag666
ag665
ag591
ag666
ag666
ag666
ag666
ag591
ag666
ag591
ag666
ag667
ag665
ag666
ag665
ag666
ag591
ag665
ag591
ag666
ag667
ag667
ag666
ag666
ag666
ag665
ag591
ag666
ag667
ag666
ag591
ag667
ag667
ag667
ag666
ag666
ag667
ag666
ag665
ag667
ag666
ag665
ag667
ag591
ag667
ag666
ag591
ag667
ag665
asS'um_after'
p670
(lp671
g665
ag666
ag666
ag667
ag591
ag667
ag667
ag665
ag666
ag666
ag666
ag667
ag666
ag667
ag591
ag591
ag667
ag665
ag667
ag591
ag591
ag667
ag665
ag667
ag665
ag665
ag665
ag666
ag667
ag666
ag667
ag665
ag667
ag666
ag591
ag591
ag667
ag591
ag667
ag667
ag666
ag665
ag665
ag665
ag665
ag665
ag666
ag667
ag667
ag667
ag667
ag666
ag666
ag667
ag667
ag667
ag667
ag591
ag665
ag591
ag665
ag667
ag665
ag666
ag666
ag591
ag665
ag665
ag665
ag666
ag667
ag665
ag666
ag665
ag591
ag665
ag667
ag665
ag666
ag665
ag667
ag667
ag666
ag591
ag665
ag666
ag665
ag667
ag666
ag667
ag667
ag591
ag666
ag665
ag591
ag591
ag666
ag667
ag665
ag666
ag667
ag591
ag665
ag667
ag666
ag666
ag665
ag667
ag591
ag665
ag665
ag667
ag666
ag591
ag667
ag666
ag667
ag665
ag591
ag591
ag667
ag667
ag591
ag665
ag665
ag665
ag667
ag667
ag667
ag666
ag665
ag591
ag666
ag666
ag666
ag666
ag591
ag666
ag591
ag666
ag667
ag665
ag666
ag665
ag666
ag591
ag665
ag591
ag666
ag667
ag667
ag666
ag666
ag666
ag665
ag591
ag666
ag667
ag666
ag591
ag667
ag667
ag667
ag666
ag666
ag667
ag666
ag665
ag667
ag666
ag665
ag667
ag591
ag667
ag666
ag591
ag667
ag665
asS'is_normalized_entropy_less_than_threshold'
p672
(lp673
g50
(g51
(S'b1'
p674
I0
I1
tp675
Rp676
(I3
S'|'
p677
NNNI-1
I-1
I0
tp678
bS'\x01'
p679
tp680
Rp681
ag681
ag681
ag681
ag681
ag681
ag681
ag681
ag681
ag681
ag681
ag681
ag681
ag681
ag681
ag681
ag681
ag681
ag681
ag681
ag681
ag681
ag681
ag681
ag681
ag681
ag681
ag681
ag681
ag681
ag681
ag681
ag681
ag681
ag681
ag681
ag681
ag681
ag681
ag681
ag681
ag681
ag681
ag681
ag681
ag681
ag681
ag681
ag681
ag681
ag681
ag681
ag681
ag681
ag681
ag681
ag681
ag681
ag681
ag681
ag681
ag681
ag681
ag681
ag681
ag681
ag681
ag681
ag681
ag681
ag681
ag681
ag681
ag681
ag681
ag681
ag681
ag681
ag681
ag681
ag681
ag681
ag681
ag681
ag681
ag681
ag681
ag681
ag681
ag681
ag681
ag50
(g676
S'\x00'
p682
tp683
Rp684
ag681
ag681
ag684
ag684
ag681
ag681
ag681
ag681
ag681
ag684
ag681
ag681
ag681
ag681
ag681
ag681
ag681
ag681
ag681
ag681
ag681
ag681
ag681
ag681
ag681
ag681
ag681
ag681
ag681
ag681
ag684
ag681
ag681
ag681
ag681
ag681
ag681
ag681
ag681
ag684
ag681
ag681
ag681
ag681
ag681
ag681
ag684
ag681
ag681
ag681
ag681
ag681
ag681
ag681
ag681
ag681
ag681
ag681
ag681
ag681
ag681
ag681
ag681
ag684
ag681
ag681
ag681
ag681
ag681
ag681
ag681
ag681
ag681
ag681
ag681
ag681
ag681
ag681
ag681
ag681
ag681
ag681
ag681
ag681
ag681
ag681
asaa(lp685
S'index'
p686
aI83024
aatp687
Rp688
.