ccollections
OrderedDict
p0
((lp1
(lp2
S'combination_dict'
p3
ag0
((lp4
(lp5
S'r_to_g_config'
p6
aS'br'
p7
aa(lp8
S'num_turns'
p9
aI3
aa(lp10
S'start_direction'
p11
acutils_ms
StartDirection
p12
(I0
tp13
Rp14
aa(lp15
S'assistance_type'
p16
acutils_ms
AssistanceType
p17
(I1
tp18
Rp19
aa(lp20
S'start_mode'
p21
aS'y'
p22
aa(lp23
S'ui_given_a_noise'
p24
aF0.5
aa(lp25
S'um_given_ui_noise'
p26
aF0.5
aa(lp27
S'entropy_threshold'
p28
aF0.5
aatp29
Rp30
aa(lp31
S'data'
p32
accollections
defaultdict
p33
(c__builtin__
list
p34
tp35
Rp36
S'a'
p37
(lp38
S'mode_l'
p39
aS'move_p'
p40
ag40
aS'mode_r'
p41
ag39
ag40
ag40
ag39
ag40
ag41
ag39
ag40
ag40
ag40
ag40
ag39
aS'move_n'
p42
ag41
ag42
ag39
ag41
ag39
ag42
ag39
ag40
ag40
ag40
ag39
ag41
ag42
ag39
ag41
ag41
ag40
ag41
ag41
ag40
ag41
ag39
ag39
ag42
asS'assistance_match_with_ground_truth'
p43
(lp44
I01
aI00
aI00
aI00
aI01
aI00
aI01
aI01
aI00
aI00
aI01
aI00
aI00
aI00
aI01
aI01
aI00
aI01
aI00
aI00
aI00
aI01
aI00
aI00
aI00
aI00
aI01
aI00
aI01
aI01
aI00
aI00
aI01
aI00
aI00
aI01
aI01
aI00
aI00
aI01
aI01
asS'is_u_intended_equals_um'
p45
(lp46
I01
aI01
aI00
aI00
aI01
aI01
aI01
aI01
aI00
aI00
aI01
aI01
aI01
aI01
aI01
aI01
aI00
aI00
aI01
aI01
aI00
aI01
aI01
aI01
aI01
aI01
aI01
aI01
aI01
aI01
aI01
aI00
aI01
aI00
aI00
aI00
aI01
aI00
aI01
aI01
aI01
asS'total_steps'
p47
I41
sS'normalized_h_of_p_ui_given_um'
p48
(lp49
cnumpy.core.multiarray
scalar
p50
(cnumpy
dtype
p51
(S'f8'
p52
I0
I1
tp53
Rp54
(I3
S'<'
p55
NNNI-1
I-1
I0
tp56
bS'\xa1\xab\xe3\xcd\xa3\xa8\xe4?'
p57
tp58
Rp59
ag50
(g54
S'N\xf5\xf1w\xa3\xb7\xe4?'
p60
tp61
Rp62
ag50
(g54
S'M\x14\xda\xb5\x13\xff\xe6?'
p63
tp64
Rp65
ag50
(g54
S'\xeaX\xb8\x9e\xca&\xe5?'
p66
tp67
Rp68
ag50
(g54
S'\xa1\xab\xe3\xcd\xa3\xa8\xe4?'
p69
tp70
Rp71
ag50
(g54
S'N\xf5\xf1w\xa3\xb7\xe4?'
p72
tp73
Rp74
ag50
(g54
S'\xa9\x8dH\x8c\x80[\xba?'
p75
tp76
Rp77
ag50
(g54
S'\xa1\xab\xe3\xcd\xa3\xa8\xe4?'
p78
tp79
Rp80
ag50
(g54
S'M\x14\xda\xb5\x13\xff\xe6?'
p81
tp82
Rp83
ag50
(g54
S'\xeaX\xb8\x9e\xca&\xe5?'
p84
tp85
Rp86
ag50
(g54
S'\xa1\xab\xe3\xcd\xa3\xa8\xe4?'
p87
tp88
Rp89
ag50
(g54
S'N\xf5\xf1w\xa3\xb7\xe4?'
p90
tp91
Rp92
ag50
(g54
S'N\xf5\xf1w\xa3\xb7\xe4?'
p93
tp94
Rp95
ag50
(g54
S'N\xf5\xf1w\xa3\xb7\xe4?'
p96
tp97
Rp98
ag50
(g54
S'\xa9\x8dH\x8c\x80[\xba?'
p99
tp100
Rp101
ag50
(g54
S'\xa1\xab\xe3\xcd\xa3\xa8\xe4?'
p102
tp103
Rp104
ag50
(g54
S'\x08w\xf7\x10}\x12\xe4?'
p105
tp106
Rp107
ag50
(g54
S'\xab\xe6\xec\xf9\x9d\xea\xdf?'
p108
tp109
Rp110
ag50
(g54
S'\xec\xe6\xa9C\xd9\x84\xe1?'
p111
tp112
Rp113
ag50
(g54
S'\xe4\x83\x14o\xc9\x9b\xeb?'
p114
tp115
Rp116
ag50
(g54
S'\xeaX\xb8\x9e\xca&\xe5?'
p117
tp118
Rp119
ag50
(g54
S'\xa1\xab\xe3\xcd\xa3\xa8\xe4?'
p120
tp121
Rp122
ag50
(g54
S'\xec\xe6\xa9C\xd9\x84\xe1?'
p123
tp124
Rp125
ag50
(g54
S'\xa4\xe8\x1b\xc2g\xe6\xe9?'
p126
tp127
Rp128
ag50
(g54
S'N\xf5\xf1w\xa3\xb7\xe4?'
p129
tp130
Rp131
ag50
(g54
S'N\xf5\xf1w\xa3\xb7\xe4?'
p132
tp133
Rp134
ag50
(g54
S'\xa9\x8dH\x8c\x80[\xba?'
p135
tp136
Rp137
ag50
(g54
S'\xe4\x83\x14o\xc9\x9b\xeb?'
p138
tp139
Rp140
ag50
(g54
S'0\x86"c!\xc9\xc9?'
p141
tp142
Rp143
ag50
(g54
S'\x98\x05\xaf\xfeTq\xcc?'
p144
tp145
Rp146
ag50
(g54
S'\xe4\x83\x14o\xc9\x9b\xeb?'
p147
tp148
Rp149
ag50
(g54
S'}\xf7\x03\xb6\x00\x98\xe5?'
p150
tp151
Rp152
ag50
(g54
S'0\x86"c!\xc9\xc9?'
p153
tp154
Rp155
ag50
(g54
S'M\x14\xda\xb5\x13\xff\xe6?'
p156
tp157
Rp158
ag50
(g54
S'}\xf7\x03\xb6\x00\x98\xe5?'
p159
tp160
Rp161
ag50
(g54
S'\xab\xe6\xec\xf9\x9d\xea\xdf?'
p162
tp163
Rp164
ag50
(g54
S'\xa9\x8dH\x8c\x80[\xba?'
p165
tp166
Rp167
ag50
(g54
S'\xeaX\xb8\x9e\xca&\xe5?'
p168
tp169
Rp170
ag50
(g54
S'\xa4\xe8\x1b\xc2g\xe6\xe9?'
p171
tp172
Rp173
ag50
(g54
S'\xa1\xab\xe3\xcd\xa3\xa8\xe4?'
p174
tp175
Rp176
ag50
(g54
S'\x98\x05\xaf\xfeTq\xcc?'
p177
tp178
Rp179
asS'sp'
p180
(lp181
(S'p0'
p182
I0
S'x'
p183
tp184
a(g182
I0
g183
tp185
a(g182
I0
S't'
p186
tp187
a(g182
I0
S'y'
p188
tp189
ag184
ag185
a(S'p1'
p190
I0
g183
tp191
a(g190
I0
g186
tp192
a(g190
I0
g188
tp193
a(g190
I0
g183
tp194
ag192
a(g190
I0
g186
tp195
ag195
ag195
a(g190
F1.5707963267948966
g186
tp196
a(g190
F1.5707963267948966
g188
tp197
a(g190
F1.5707963267948966
g183
tp198
a(g190
F1.5707963267948966
g188
tp199
a(g190
F1.5707963267948966
g186
tp200
a(g190
F1.5707963267948966
g183
tp201
a(g190
F1.5707963267948966
g186
tp202
ag197
ag200
a(g190
I0
g186
tp203
ag195
ag195
ag196
ag201
ag199
a(S'p2'
p204
F1.5707963267948966
g188
tp205
a(g204
F1.5707963267948966
g186
tp206
a(g204
F1.5707963267948966
g186
tp207
a(g204
F1.5707963267948966
g183
tp208
a(g204
F1.5707963267948966
g186
tp209
ag207
ag208
a(S'p3'
p210
F1.5707963267948966
g183
tp211
a(g210
F1.5707963267948966
g186
tp212
a(g210
F1.5707963267948966
g186
tp213
a(g210
F1.5707963267948966
g188
tp214
a(S'p4'
p215
F1.5707963267948966
g188
tp216
asS's'
p217
(lp218
(g182
I0
g22
tp219
ag184
ag185
ag187
ag189
ag184
ag185
ag191
ag192
ag193
ag194
ag192
ag195
ag195
ag195
ag196
ag197
ag198
ag199
ag200
ag201
ag202
ag197
ag200
ag203
ag195
ag195
ag196
ag201
ag199
ag205
ag206
ag207
ag208
ag209
ag207
ag208
ag211
ag212
ag213
ag214
asS'ui'
p220
(lp221
S'ss'
p222
ag222
ag222
aS'hp'
p223
aS'hs'
p224
ag224
ag180
ag224
ag180
ag223
ag224
ag180
ag180
ag224
ag180
ag180
ag223
ag180
ag223
ag224
ag223
ag224
ag223
ag222
ag224
ag180
ag180
ag180
ag223
ag222
ag223
ag223
ag223
ag224
ag223
ag180
ag180
ag223
ag224
ag180
ag222
asS'um_before'
p225
(lp226
g224
ag222
ag224
ag224
ag224
ag222
ag180
ag224
ag224
ag224
ag224
ag222
ag222
ag222
ag180
ag224
ag224
ag180
ag223
ag223
ag224
ag224
ag223
ag222
ag222
ag222
ag180
ag223
ag223
ag222
ag223
ag222
ag223
ag224
ag222
ag180
ag180
ag224
ag222
ag224
ag222
asS'um_after'
p227
(lp228
g224
ag222
ag224
ag224
ag224
ag222
ag180
ag224
ag224
ag224
ag224
ag222
ag222
ag222
ag180
ag224
ag224
ag223
ag223
ag223
ag224
ag224
ag223
ag222
ag222
ag222
ag180
ag223
ag223
ag222
ag223
ag222
ag223
ag224
ag222
ag223
ag180
ag224
ag222
ag224
ag222
asS'is_normalized_entropy_less_than_threshold'
p229
(lp230
g50
(g51
(S'b1'
p231
I0
I1
tp232
Rp233
(I3
S'|'
p234
NNNI-1
I-1
I0
tp235
bS'\x00'
p236
tp237
Rp238
ag238
ag238
ag238
ag238
ag238
ag50
(g233
S'\x01'
p239
tp240
Rp241
ag238
ag238
ag238
ag238
ag238
ag238
ag238
ag241
ag238
ag238
ag241
ag238
ag238
ag238
ag238
ag238
ag238
ag238
ag238
ag241
ag238
ag241
ag241
ag238
ag238
ag241
ag238
ag238
ag241
ag241
ag238
ag238
ag238
ag241
asaa(lp242
S'index'
p243
aI108503
aatp244
Rp245
.