ccollections
OrderedDict
p0
((lp1
(lp2
S'combination_dict'
p3
ag0
((lp4
(lp5
S'r_to_g_config'
p6
aS'br'
p7
aa(lp8
S'num_turns'
p9
aI2
aa(lp10
S'start_direction'
p11
acutils_ms
StartDirection
p12
(I0
tp13
Rp14
aa(lp15
S'assistance_type'
p16
acutils_ms
AssistanceType
p17
(I0
tp18
Rp19
aa(lp20
S'start_mode'
p21
aS'y'
p22
aa(lp23
S'ui_given_a_noise'
p24
aF0.1
aa(lp25
S'um_given_ui_noise'
p26
aF0.7
aa(lp27
S'entropy_threshold'
p28
aF0.6
aatp29
Rp30
aa(lp31
S'data'
p32
accollections
defaultdict
p33
(c__builtin__
list
p34
tp35
Rp36
S'a'
p37
(lp38
S'mode_l'
p39
ag39
aS'mode_r'
p40
aS'move_p'
p41
ag41
ag41
ag40
ag40
ag40
aS'move_n'
p42
ag39
ag39
ag41
ag40
ag40
ag42
ag40
ag41
ag41
ag40
ag41
ag41
ag41
asS'assistance_match_with_ground_truth'
p43
(lp44
I00
aI00
aI01
aI00
aI00
aI01
aI00
aI00
aI01
aI00
aI00
aI01
aI01
aI00
aI01
aI01
aI01
aI00
aI01
aI01
aI00
aI00
aI01
asS'is_u_intended_equals_um'
p45
(lp46
I00
aI00
aI01
aI00
aI00
aI01
aI00
aI00
aI01
aI00
aI00
aI01
aI01
aI00
aI01
aI01
aI01
aI00
aI01
aI01
aI00
aI00
aI01
asS'total_steps'
p47
I23
sS'normalized_h_of_p_ui_given_um'
p48
(lp49
cnumpy.core.multiarray
scalar
p50
(cnumpy
dtype
p51
(S'f8'
p52
I0
I1
tp53
Rp54
(I3
S'<'
p55
NNNI-1
I-1
I0
tp56
bS'} \xa7\xa1\xd6\xd0\xdb?'
p57
tp58
Rp59
ag50
(g54
S'\xa4\xa4Ei\xefT\xea?'
p60
tp61
Rp62
ag50
(g54
S'\xae\xebi\xbc\xaa\xba\xc5?'
p63
tp64
Rp65
ag50
(g54
S'\n\x967F\xf61\xe8?'
p66
tp67
Rp68
ag50
(g54
S'\x02\xb8\xca\xbc\x91\xd4\xc6?'
p69
tp70
Rp71
ag50
(g54
S'\xc1\xbd\xb6-\xd7\xd1\xc7?'
p72
tp73
Rp74
ag50
(g54
S']\xc4\xceE\xe5L\xd2?'
p75
tp76
Rp77
ag50
(g54
S'\xd8\x82\xcc\xdb\xaf$\xdf?'
p78
tp79
Rp80
ag50
(g54
S'\xae\xebi\xbc\xaa\xba\xc5?'
p81
tp82
Rp83
ag50
(g54
S' u\xac\xa4\x01Y\xea?'
p84
tp85
Rp86
ag50
(g54
S'} \xa7\xa1\xd6\xd0\xdb?'
p87
tp88
Rp89
ag50
(g54
S'\x8fb\xa6\x13\xed\x9a\xc1?'
p90
tp91
Rp92
ag50
(g54
S'\xc1\xbd\xb6-\xd7\xd1\xc7?'
p93
tp94
Rp95
ag50
(g54
S'\xd8\x82\xcc\xdb\xaf$\xdf?'
p96
tp97
Rp98
ag50
(g54
S'\xae\xebi\xbc\xaa\xba\xc5?'
p99
tp100
Rp101
ag50
(g54
S'\x8cH\xbe\xfc\xad\xd1\xc3?'
p102
tp103
Rp104
ag50
(g54
S'\xae\xebi\xbc\xaa\xba\xc5?'
p105
tp106
Rp107
ag50
(g54
S'\n\x967F\xf61\xe8?'
p108
tp109
Rp110
ag50
(g54
S'\xc1\xbd\xb6-\xd7\xd1\xc7?'
p111
tp112
Rp113
ag50
(g54
S'\xae\xebi\xbc\xaa\xba\xc5?'
p114
tp115
Rp116
ag50
(g54
S'\x02\xb8\xca\xbc\x91\xd4\xc6?'
p117
tp118
Rp119
ag50
(g54
S'\xa2\xf1j\xa1\xbc5\xd8?'
p120
tp121
Rp122
ag50
(g54
S'\xc1\xbd\xb6-\xd7\xd1\xc7?'
p123
tp124
Rp125
asS'sp'
p126
(lp127
(S'p0'
p128
I0
g22
tp129
a(g128
I0
S't'
p130
tp131
a(g128
I0
S'x'
p132
tp133
a(g128
I0
g132
tp134
ag134
a(S'p1'
p135
I0
g132
tp136
ag136
ag136
a(g135
I0
S'y'
p137
tp138
a(g128
I0
g137
tp139
ag139
a(g128
I0
g132
tp140
ag136
ag136
ag138
a(S'p2'
p141
I0
g137
tp142
a(g141
I0
g130
tp143
a(g141
I0
g130
tp144
a(g141
F1.5707963267948966
g130
tp145
a(g141
F1.5707963267948966
g132
tp146
ag146
ag146
a(S'p3'
p147
F1.5707963267948966
g132
tp148
asS's'
p149
(lp150
g129
ag129
ag131
ag133
ag134
ag134
ag136
ag136
ag136
ag138
ag139
ag139
ag140
ag136
ag136
ag138
ag142
ag143
ag144
ag145
ag146
ag146
ag146
asS'ui'
p151
(lp152
S'hs'
p153
ag126
aS'hp'
p154
ag154
ag126
ag126
ag154
ag154
ag154
aS'ss'
p155
ag126
ag126
ag126
ag155
ag154
ag155
ag154
ag126
ag153
ag154
ag126
ag126
ag126
asS'um_before'
p156
(lp157
g126
ag154
ag154
ag155
ag154
ag126
ag126
ag155
ag154
ag126
ag126
ag153
ag126
ag155
ag154
ag155
ag154
ag155
ag126
ag154
ag154
ag153
ag126
asS'um_after'
p158
(lp159
Nag154
ag154
ag155
aNag126
aNaNag154
ag126
aNag153
ag126
aNag154
ag155
ag154
ag155
ag126
ag154
aNaNag126
asS'is_normalized_entropy_less_than_threshold'
p160
(lp161
g50
(g51
(S'b1'
p162
I0
I1
tp163
Rp164
(I3
S'|'
p165
NNNI-1
I-1
I0
tp166
bS'\x01'
p167
tp168
Rp169
ag50
(g164
S'\x00'
p170
tp171
Rp172
ag169
ag172
ag169
ag169
ag169
ag169
ag169
ag172
ag169
ag169
ag169
ag169
ag169
ag169
ag169
ag172
ag169
ag169
ag169
ag169
ag169
asaa(lp173
S'index'
p174
aI96961
aatp175
Rp176
.