ccollections
OrderedDict
p0
((lp1
(lp2
S'combination_dict'
p3
ag0
((lp4
(lp5
S'r_to_g_config'
p6
aS'tr'
p7
aa(lp8
S'num_turns'
p9
aI2
aa(lp10
S'start_direction'
p11
acutils_ms
StartDirection
p12
(I1
tp13
Rp14
aa(lp15
S'assistance_type'
p16
acutils_ms
AssistanceType
p17
(I0
tp18
Rp19
aa(lp20
S'start_mode'
p21
aS't'
p22
aa(lp23
S'ui_given_a_noise'
p24
aF0.3
aa(lp25
S'um_given_ui_noise'
p26
aF0.7
aa(lp27
S'entropy_threshold'
p28
aF0.8
aatp29
Rp30
aa(lp31
S'data'
p32
accollections
defaultdict
p33
(c__builtin__
list
p34
tp35
Rp36
S'a'
p37
(lp38
S'mode_l'
p39
aS'move_p'
p40
ag40
ag40
ag40
ag40
ag39
ag39
ag39
ag39
ag39
ag39
ag39
aS'mode_r'
p41
ag40
ag39
ag39
ag40
ag40
ag40
ag39
ag40
ag40
asS'assistance_match_with_ground_truth'
p42
(lp43
I01
aI00
aI00
aI00
aI00
aI01
aI00
aI00
aI00
aI00
aI00
aI00
aI00
aI01
aI01
aI00
aI01
aI00
aI00
aI01
aI01
aI00
aI01
asS'is_u_intended_equals_um'
p44
(lp45
I01
aI00
aI00
aI00
aI00
aI01
aI00
aI00
aI00
aI00
aI00
aI00
aI00
aI01
aI01
aI00
aI01
aI00
aI00
aI01
aI01
aI00
aI01
asS'total_steps'
p46
I23
sS'normalized_h_of_p_ui_given_um'
p47
(lp48
cnumpy.core.multiarray
scalar
p49
(cnumpy
dtype
p50
(S'f8'
p51
I0
I1
tp52
Rp53
(I3
S'<'
p54
NNNI-1
I-1
I0
tp55
bS',\x96\x96\xd3\xd2|\xd2?'
p56
tp57
Rp58
ag49
(g53
S"\xe4G'\xe8.\xd4\xe0?"
p59
tp60
Rp61
ag49
(g53
S'\xbcj\xc6\xff\xa0t\xd8?'
p62
tp63
Rp64
ag49
(g53
S"\xe4G'\xe8.\xd4\xe0?"
p65
tp66
Rp67
ag49
(g53
S"\xe4G'\xe8.\xd4\xe0?"
p68
tp69
Rp70
ag49
(g53
S'w\xba\xe9S\xb8\x98\xd9?'
p71
tp72
Rp73
ag49
(g53
S'\xee\x8d\xb1\tU\xd4\xe5?'
p74
tp75
Rp76
ag49
(g53
S'\x16\xf6\x07\xd4O3\xeb?'
p77
tp78
Rp79
ag49
(g53
S'\xee\x8d\xb1\tU\xd4\xe5?'
p80
tp81
Rp82
ag49
(g53
S'\xee\x8d\xb1\tU\xd4\xe5?'
p83
tp84
Rp85
ag49
(g53
S'\xee\x8d\xb1\tU\xd4\xe5?'
p86
tp87
Rp88
ag49
(g53
S'\x16\xf6\x07\xd4O3\xeb?'
p89
tp90
Rp91
ag49
(g53
S'\x1d2\x98\xffO\x06\xef?'
p92
tp93
Rp94
ag49
(g53
S'^\xa5\xab\xb8C\xe8\xd2?'
p95
tp96
Rp97
ag49
(g53
S'w\xba\xe9S\xb8\x98\xd9?'
p98
tp99
Rp100
ag49
(g53
S'\xee\x8d\xb1\tU\xd4\xe5?'
p101
tp102
Rp103
ag49
(g53
S',\x96\x96\xd3\xd2|\xd2?'
p104
tp105
Rp106
ag49
(g53
S"\xe4G'\xe8.\xd4\xe0?"
p107
tp108
Rp109
ag49
(g53
S"\xe4G'\xe8.\xd4\xe0?"
p110
tp111
Rp112
ag49
(g53
S'w\xba\xe9S\xb8\x98\xd9?'
p113
tp114
Rp115
ag49
(g53
S',\x96\x96\xd3\xd2|\xd2?'
p116
tp117
Rp118
ag49
(g53
S"\xe4G'\xe8.\xd4\xe0?"
p119
tp120
Rp121
ag49
(g53
S'w\xba\xe9S\xb8\x98\xd9?'
p122
tp123
Rp124
asS'sp'
p125
(lp126
(S'p0'
p127
I0
S'y'
p128
tp129
ag129
ag129
ag129
ag129
a(S'p1'
p130
I0
g128
tp131
ag131
a(g130
I0
g128
tp132
ag132
ag132
ag132
ag132
a(g130
I0
S't'
p133
tp134
a(g130
I0
S'x'
p135
tp136
a(S'p2'
p137
I0
g135
tp138
ag138
a(g137
I0
g133
tp139
ag139
ag139
a(g137
F1.5707963267948966
g133
tp140
a(g137
F1.5707963267948966
g128
tp141
ag141
a(S'p3'
p142
F1.5707963267948966
g128
tp143
asS's'
p144
(lp145
(g127
I0
g22
tp146
ag129
ag129
ag129
ag129
ag129
ag131
ag131
ag132
ag132
ag132
ag132
ag132
ag134
ag136
ag138
ag138
ag139
ag139
ag139
ag140
ag141
ag141
asS'ui'
p147
(lp148
S'hs'
p149
ag125
ag125
aS'ss'
p150
ag150
ag125
ag149
ag149
ag150
ag150
ag125
ag149
ag125
aS'hp'
p151
ag125
ag150
ag149
ag150
ag125
ag125
ag149
ag125
ag125
asS'um_before'
p152
(lp153
g149
ag150
ag151
ag150
ag150
ag125
ag125
ag150
ag125
ag125
ag125
ag150
ag151
ag151
ag125
ag125
ag149
ag150
ag150
ag125
ag149
ag150
ag125
asS'um_after'
p154
(lp155
g149
aNaNaNaNag125
aNag150
aNaNaNag150
ag151
ag151
ag125
aNag149
aNaNag125
ag149
aNag125
asS'is_normalized_entropy_less_than_threshold'
p156
(lp157
g49
(g50
(S'b1'
p158
I0
I1
tp159
Rp160
(I3
S'|'
p161
NNNI-1
I-1
I0
tp162
bS'\x01'
p163
tp164
Rp165
ag165
ag165
ag165
ag165
ag165
ag165
ag49
(g160
S'\x00'
p166
tp167
Rp168
ag165
ag165
ag165
ag168
ag168
ag165
ag165
ag165
ag165
ag165
ag165
ag165
ag165
ag165
ag165
asaa(lp169
S'index'
p170
aI15580
aatp171
Rp172
.