ccollections
OrderedDict
p0
((lp1
(lp2
S'combination_dict'
p3
ag0
((lp4
(lp5
S'r_to_g_config'
p6
aS'bl'
p7
aa(lp8
S'num_turns'
p9
aI1
aa(lp10
S'start_direction'
p11
acutils_ms
StartDirection
p12
(I0
tp13
Rp14
aa(lp15
S'assistance_type'
p16
acutils_ms
AssistanceType
p17
(I1
tp18
Rp19
aa(lp20
S'start_mode'
p21
aS'y'
p22
aa(lp23
S'ui_given_a_noise'
p24
aF0.1
aa(lp25
S'um_given_ui_noise'
p26
aF0.1
aa(lp27
S'entropy_threshold'
p28
aF0.7
aatp29
Rp30
aa(lp31
S'data'
p32
accollections
defaultdict
p33
(c__builtin__
list
p34
tp35
Rp36
S'a'
p37
(lp38
S'mode_l'
p39
aS'move_n'
p40
ag39
ag39
aS'move_p'
p41
aS'mode_r'
p42
ag41
ag39
ag40
ag39
ag40
ag42
ag40
asS'assistance_match_with_ground_truth'
p43
(lp44
I01
aI01
aI00
aI01
aI00
aI01
aI01
aI01
aI00
aI01
aI01
aI01
aI01
asS'is_u_intended_equals_um'
p45
(lp46
I01
aI01
aI01
aI01
aI01
aI01
aI01
aI01
aI01
aI01
aI00
aI01
aI01
asS'total_steps'
p47
I13
sS'normalized_h_of_p_ui_given_um'
p48
(lp49
cnumpy.core.multiarray
scalar
p50
(cnumpy
dtype
p51
(S'f8'
p52
I0
I1
tp53
Rp54
(I3
S'<'
p55
NNNI-1
I-1
I0
tp56
bS'\x9e\x9e\xf5\xc3\xa1\xb1\xad?'
p57
tp58
Rp59
ag50
(g54
S'\x9eq\xebB;o\xab?'
p60
tp61
Rp62
ag50
(g54
S'\x1dGk}Q\x87\xe2?'
p63
tp64
Rp65
ag50
(g54
S'\x9e\x9e\xf5\xc3\xa1\xb1\xad?'
p66
tp67
Rp68
ag50
(g54
S'\xf0<\x12G\xe68\xe3?'
p69
tp70
Rp71
ag50
(g54
S'p\xb2c\xf4\xd5S\xab?'
p72
tp73
Rp74
ag50
(g54
S'\x18\x1fs<\xf6L\x9e?'
p75
tp76
Rp77
ag50
(g54
S'\x9e\x9e\xf5\xc3\xa1\xb1\xad?'
p78
tp79
Rp80
ag50
(g54
S'8\xb2\xa2J*T\xeb?'
p81
tp82
Rp83
ag50
(g54
S'\x9e\x9e\xf5\xc3\xa1\xb1\xad?'
p84
tp85
Rp86
ag50
(g54
S'7\x9f\xcf\x11\x92\xaa\xe1?'
p87
tp88
Rp89
ag50
(g54
S'p\xb2c\xf4\xd5S\xab?'
p90
tp91
Rp92
ag50
(g54
S'\x9eq\xebB;o\xab?'
p93
tp94
Rp95
asS'sp'
p96
(lp97
(S'p0'
p98
I0
S'x'
p99
tp100
a(S'p1'
p101
I0
g99
tp102
a(g101
I0
g99
tp103
a(g101
I0
S't'
p104
tp105
a(g101
I0
S'y'
p106
tp107
a(g101
I0
g104
tp108
a(g101
F1.5707963267948966
g104
tp109
a(g101
F1.5707963267948966
g106
tp110
a(g98
F1.5707963267948966
g106
tp111
a(g98
F1.5707963267948966
g99
tp112
a(g101
F1.5707963267948966
g99
tp113
a(g101
F1.5707963267948966
g106
tp114
a(S'p2'
p115
F1.5707963267948966
g106
tp116
asS's'
p117
(lp118
(g98
I0
g22
tp119
ag100
ag102
ag103
ag105
ag107
ag108
ag109
ag110
ag111
ag112
ag113
ag114
asS'ui'
p120
(lp121
S'hs'
p122
aS'ss'
p123
ag96
ag122
ag96
aS'hp'
p124
ag96
ag122
ag124
ag122
ag123
ag124
ag123
asS'um_before'
p125
(lp126
g122
ag123
ag96
ag122
ag122
ag124
ag96
ag122
ag96
ag122
ag124
ag124
ag123
asS'um_after'
p127
(lp128
g122
ag123
ag96
ag122
ag122
ag124
ag96
ag122
ag96
ag122
ag123
ag124
ag123
asS'is_normalized_entropy_less_than_threshold'
p129
(lp130
g50
(g51
(S'b1'
p131
I0
I1
tp132
Rp133
(I3
S'|'
p134
NNNI-1
I-1
I0
tp135
bS'\x01'
p136
tp137
Rp138
ag138
ag138
ag138
ag138
ag138
ag138
ag138
ag50
(g133
S'\x00'
p139
tp140
Rp141
ag138
ag138
ag138
ag138
asaa(lp142
S'index'
p143
aI60027
aatp144
Rp145
.