ccollections
OrderedDict
p0
((lp1
(lp2
S'combination_dict'
p3
ag0
((lp4
(lp5
S'r_to_g_config'
p6
aS'tl'
p7
aa(lp8
S'num_turns'
p9
aI3
aa(lp10
S'start_direction'
p11
acutils_ms
StartDirection
p12
(I1
tp13
Rp14
aa(lp15
S'assistance_type'
p16
acutils_ms
AssistanceType
p17
(I0
tp18
Rp19
aa(lp20
S'start_mode'
p21
aS't'
p22
aa(lp23
S'ui_given_a_noise'
p24
aF0.7
aa(lp25
S'um_given_ui_noise'
p26
aF0.5
aa(lp27
S'entropy_threshold'
p28
aF0.7
aatp29
Rp30
aa(lp31
S'data'
p32
accollections
defaultdict
p33
(c__builtin__
list
p34
tp35
Rp36
S'a'
p37
(lp38
S'mode_l'
p39
aS'move_p'
p40
aS'mode_r'
p41
ag40
ag41
ag41
aS'move_n'
p42
ag41
ag42
ag41
ag41
ag40
ag39
ag42
ag41
ag39
ag42
ag39
ag41
ag40
ag40
ag41
ag40
ag41
ag40
ag41
ag39
ag39
ag41
ag42
ag41
ag39
ag41
ag41
ag41
ag40
ag39
ag41
ag41
ag39
ag39
ag41
ag41
ag40
ag39
ag41
ag41
ag41
ag42
ag39
ag39
ag41
ag41
ag42
ag39
ag39
ag39
ag39
ag42
ag39
ag42
ag41
ag40
ag41
ag41
ag40
ag41
ag42
ag41
ag40
ag39
ag39
ag41
ag41
ag40
ag39
ag42
ag41
ag40
ag41
ag40
ag39
ag39
ag39
ag39
ag39
ag39
ag39
ag39
ag42
asS'assistance_match_with_ground_truth'
p43
(lp44
I01
aI01
aI01
aI01
aI00
aI01
aI00
aI01
aI00
aI00
aI01
aI01
aI01
aI00
aI00
aI01
aI00
aI00
aI00
aI00
aI01
aI00
aI00
aI01
aI01
aI00
aI00
aI00
aI01
aI00
aI00
aI00
aI00
aI00
aI00
aI00
aI00
aI00
aI00
aI00
aI00
aI00
aI01
aI01
aI00
aI00
aI00
aI01
aI00
aI00
aI00
aI00
aI01
aI00
aI00
aI00
aI00
aI01
aI00
aI01
aI00
aI01
aI00
aI00
aI01
aI01
aI01
aI01
aI01
aI00
aI00
aI00
aI00
aI01
aI01
aI01
aI00
aI01
aI00
aI01
aI01
aI00
aI00
aI00
aI00
aI00
aI00
aI00
aI01
aI01
asS'is_u_intended_equals_um'
p45
(lp46
I01
aI01
aI01
aI01
aI01
aI01
aI01
aI01
aI01
aI01
aI01
aI01
aI01
aI01
aI00
aI01
aI01
aI01
aI01
aI00
aI01
aI01
aI01
aI01
aI01
aI00
aI01
aI01
aI01
aI01
aI00
aI01
aI01
aI01
aI01
aI01
aI01
aI01
aI00
aI00
aI01
aI01
aI01
aI01
aI01
aI01
aI01
aI01
aI01
aI00
aI01
aI01
aI01
aI01
aI00
aI01
aI01
aI01
aI01
aI01
aI01
aI01
aI00
aI01
aI01
aI01
aI01
aI01
aI01
aI01
aI00
aI01
aI01
aI01
aI01
aI01
aI01
aI01
aI01
aI01
aI01
aI00
aI00
aI00
aI00
aI00
aI01
aI01
aI01
aI01
asS'total_steps'
p47
I90
sS'normalized_h_of_p_ui_given_um'
p48
(lp49
cnumpy.core.multiarray
scalar
p50
(cnumpy
dtype
p51
(S'f8'
p52
I0
I1
tp53
Rp54
(I3
S'<'
p55
NNNI-1
I-1
I0
tp56
bS'\x00\x10\x87rJ\xa2\xe5?'
p57
tp58
Rp59
ag50
(g54
S'\x04}\xf7t\xb9\xc5\xde?'
p60
tp61
Rp62
ag50
(g54
S'\xb7H\x85^\x17\xd9\xc2?'
p63
tp64
Rp65
ag50
(g54
S'\x04}\xf7t\xb9\xc5\xde?'
p66
tp67
Rp68
ag50
(g54
S'\x00\x9f\xb6\x9dQ6\xed?'
p69
tp70
Rp71
ag50
(g54
S'\xb7H\x85^\x17\xd9\xc2?'
p72
tp73
Rp74
ag50
(g54
S'\xa5\n\xcc\x9f}\xbd\xeb?'
p75
tp76
Rp77
ag50
(g54
S'\xb7H\x85^\x17\xd9\xc2?'
p78
tp79
Rp80
ag50
(g54
S'\x1b\xb6\xe3\xb8-\x08\xee?'
p81
tp82
Rp83
ag50
(g54
S'\x00\x9f\xb6\x9dQ6\xed?'
p84
tp85
Rp86
ag50
(g54
S'\xb7H\x85^\x17\xd9\xc2?'
p87
tp88
Rp89
ag50
(g54
S'\x04}\xf7t\xb9\xc5\xde?'
p90
tp91
Rp92
ag50
(g54
S'\x00\x10\x87rJ\xa2\xe5?'
p93
tp94
Rp95
ag50
(g54
S'\xa5\n\xcc\x9f}\xbd\xeb?'
p96
tp97
Rp98
ag50
(g54
S'\xb0\xca\x87\xe1j\xca\xee?'
p99
tp100
Rp101
ag50
(g54
S'\x00\x10\x87rJ\xa2\xe5?'
p102
tp103
Rp104
ag50
(g54
S'^r=\x93\xdb\xaa\xd6?'
p105
tp106
Rp107
ag50
(g54
S'g\x83"x"\x07\xdc?'
p108
tp109
Rp110
ag50
(g54
S'G\xdb\xcb\xf1;}\xdd?'
p111
tp112
Rp113
ag50
(g54
S'=\xe7\xd2[bW\xe9?'
p114
tp115
Rp116
ag50
(g54
S'\x04}\xf7t\xb9\xc5\xde?'
p117
tp118
Rp119
ag50
(g54
S'G\xdb\xcb\xf1;}\xdd?'
p120
tp121
Rp122
ag50
(g54
S'\n8*\xcc\xc8{\xe6?'
p123
tp124
Rp125
ag50
(g54
S'\xb7H\x85^\x17\xd9\xc2?'
p126
tp127
Rp128
ag50
(g54
S'\x04}\xf7t\xb9\xc5\xde?'
p129
tp130
Rp131
ag50
(g54
S'\xb0\xca\x87\xe1j\xca\xee?'
p132
tp133
Rp134
ag50
(g54
S'\xff\x85:y(,\xe5?'
p135
tp136
Rp137
ag50
(g54
S'g\x83"x"\x07\xdc?'
p138
tp139
Rp140
ag50
(g54
S'\xb7H\x85^\x17\xd9\xc2?'
p141
tp142
Rp143
ag50
(g54
S'\xa5\n\xcc\x9f}\xbd\xeb?'
p144
tp145
Rp146
ag50
(g54
S'\xb0\xca\x87\xe1j\xca\xee?'
p147
tp148
Rp149
ag50
(g54
S'g\x83"x"\x07\xdc?'
p150
tp151
Rp152
ag50
(g54
S'\x00\x9f\xb6\x9dQ6\xed?'
p153
tp154
Rp155
ag50
(g54
S'\x00\x9f\xb6\x9dQ6\xed?'
p156
tp157
Rp158
ag50
(g54
S'G\xdb\xcb\xf1;}\xdd?'
p159
tp160
Rp161
ag50
(g54
S'j\xe8l\x8c\x00\x9d\xe8?'
p162
tp163
Rp164
ag50
(g54
S'\xff\x85:y(,\xe5?'
p165
tp166
Rp167
ag50
(g54
S'G\xdb\xcb\xf1;}\xdd?'
p168
tp169
Rp170
ag50
(g54
S'\xb0\xca\x87\xe1j\xca\xee?'
p171
tp172
Rp173
ag50
(g54
S'\xfe\xd2\xcf\xb5\xc6y\xed?'
p174
tp175
Rp176
ag50
(g54
S'g\x83"x"\x07\xdc?'
p177
tp178
Rp179
ag50
(g54
S'\x00\x9f\xb6\x9dQ6\xed?'
p180
tp181
Rp182
ag50
(g54
S'\xb7H\x85^\x17\xd9\xc2?'
p183
tp184
Rp185
ag50
(g54
S'\x04}\xf7t\xb9\xc5\xde?'
p186
tp187
Rp188
ag50
(g54
S'g\x83"x"\x07\xdc?'
p189
tp190
Rp191
ag50
(g54
S'G\xdb\xcb\xf1;}\xdd?'
p192
tp193
Rp194
ag50
(g54
S'G\xdb\xcb\xf1;}\xdd?'
p195
tp196
Rp197
ag50
(g54
S'\xb7H\x85^\x17\xd9\xc2?'
p198
tp199
Rp200
ag50
(g54
S'^r=\x93\xdb\xaa\xd6?'
p201
tp202
Rp203
ag50
(g54
S'\xfe\xd2\xcf\xb5\xc6y\xed?'
p204
tp205
Rp206
ag50
(g54
S'g\x83"x"\x07\xdc?'
p207
tp208
Rp209
ag50
(g54
S'\x00\x9f\xb6\x9dQ6\xed?'
p210
tp211
Rp212
ag50
(g54
S'\xb7H\x85^\x17\xd9\xc2?'
p213
tp214
Rp215
ag50
(g54
S'^r=\x93\xdb\xaa\xd6?'
p216
tp217
Rp218
ag50
(g54
S'\xfe\xd2\xcf\xb5\xc6y\xed?'
p219
tp220
Rp221
ag50
(g54
S'\xff\x85:y(,\xe5?'
p222
tp223
Rp224
ag50
(g54
S'\xff\x85:y(,\xe5?'
p225
tp226
Rp227
ag50
(g54
S'\x00\x10\x87rJ\xa2\xe5?'
p228
tp229
Rp230
ag50
(g54
S'^r=\x93\xdb\xaa\xd6?'
p231
tp232
Rp233
ag50
(g54
S'\x00\x10\x87rJ\xa2\xe5?'
p234
tp235
Rp236
ag50
(g54
S'\x1b\xb6\xe3\xb8-\x08\xee?'
p237
tp238
Rp239
ag50
(g54
S'\xb7H\x85^\x17\xd9\xc2?'
p240
tp241
Rp242
ag50
(g54
S'=\xe7\xd2[bW\xe9?'
p243
tp244
Rp245
ag50
(g54
S'G\xdb\xcb\xf1;}\xdd?'
p246
tp247
Rp248
ag50
(g54
S'\xb7H\x85^\x17\xd9\xc2?'
p249
tp250
Rp251
ag50
(g54
S'\x04}\xf7t\xb9\xc5\xde?'
p252
tp253
Rp254
ag50
(g54
S'\xb7H\x85^\x17\xd9\xc2?'
p255
tp256
Rp257
ag50
(g54
S'\xf8o\xd8\xbe\xa6\x19\xe0?'
p258
tp259
Rp260
ag50
(g54
S'\xb7H\x85^\x17\xd9\xc2?'
p261
tp262
Rp263
ag50
(g54
S'j\xe8l\x8c\x00\x9d\xe8?'
p264
tp265
Rp266
ag50
(g54
S'\xfe\xd2\xcf\xb5\xc6y\xed?'
p267
tp268
Rp269
ag50
(g54
S'g\x83"x"\x07\xdc?'
p270
tp271
Rp272
ag50
(g54
S'G\xdb\xcb\xf1;}\xdd?'
p273
tp274
Rp275
ag50
(g54
S'\xb7H\x85^\x17\xd9\xc2?'
p276
tp277
Rp278
ag50
(g54
S'\x04}\xf7t\xb9\xc5\xde?'
p279
tp280
Rp281
ag50
(g54
S'\x00\x10\x87rJ\xa2\xe5?'
p282
tp283
Rp284
ag50
(g54
S'\x1b\xb6\xe3\xb8-\x08\xee?'
p285
tp286
Rp287
ag50
(g54
S'\xb7H\x85^\x17\xd9\xc2?'
p288
tp289
Rp290
ag50
(g54
S'\n8*\xcc\xc8{\xe6?'
p291
tp292
Rp293
ag50
(g54
S'\xb7H\x85^\x17\xd9\xc2?'
p294
tp295
Rp296
ag50
(g54
S'\x04}\xf7t\xb9\xc5\xde?'
p297
tp298
Rp299
ag50
(g54
S'\xfe\xd2\xcf\xb5\xc6y\xed?'
p300
tp301
Rp302
ag50
(g54
S'\xfe\xd2\xcf\xb5\xc6y\xed?'
p303
tp304
Rp305
ag50
(g54
S'\xfe\xd2\xcf\xb5\xc6y\xed?'
p306
tp307
Rp308
ag50
(g54
S'\xfe\xd2\xcf\xb5\xc6y\xed?'
p309
tp310
Rp311
ag50
(g54
S'\xfe\xd2\xcf\xb5\xc6y\xed?'
p312
tp313
Rp314
ag50
(g54
S'\xff\x85:y(,\xe5?'
p315
tp316
Rp317
ag50
(g54
S'\xff\x85:y(,\xe5?'
p318
tp319
Rp320
ag50
(g54
S'\x00\x10\x87rJ\xa2\xe5?'
p321
tp322
Rp323
ag50
(g54
S'\xf8o\xd8\xbe\xa6\x19\xe0?'
p324
tp325
Rp326
asS'sp'
p327
(lp328
(S'p0'
p329
I0
S'y'
p330
tp331
a(S'p1'
p332
I0
g330
tp333
a(g332
I0
S't'
p334
tp335
a(g332
F1.5707963267948966
g334
tp336
a(g332
F1.5707963267948966
g334
tp337
a(g332
F1.5707963267948966
S'x'
p338
tp339
a(g332
F1.5707963267948966
g334
tp340
ag339
a(g329
F1.5707963267948966
g338
tp341
a(g329
F1.5707963267948966
g338
tp342
a(g329
F1.5707963267948966
g330
tp343
a(g332
F1.5707963267948966
g330
tp344
a(g332
F1.5707963267948966
g338
tp345
ag340
a(g332
F1.5707963267948966
g330
tp346
ag345
a(g332
F1.5707963267948966
g330
tp347
a(g332
F1.5707963267948966
g334
tp348
a(g332
I0
g334
tp349
a(g332
I0
g334
tp350
ag336
ag349
a(g332
I0
g330
tp351
ag335
ag336
ag346
a(g332
F1.5707963267948966
g330
tp352
ag348
ag339
ag340
ag346
ag348
ag337
ag337
ag349
a(g332
I0
g338
tp353
a(S'p2'
p354
I0
g338
tp355
a(g354
I0
g338
tp356
a(g354
I0
g334
tp357
a(g354
I0
g334
tp358
a(g354
I0
g338
tp359
a(g354
I0
g338
tp360
a(g354
I0
g330
tp361
a(S'p3'
p362
I0
g330
tp363
a(g362
I0
g334
tp364
a(g362
I0
g334
tp365
ag365
a(g362
I0
g338
tp366
a(g362
I0
g330
tp367
a(g362
I0
g330
tp368
ag364
a(g362
I0
g334
tp369
ag366
ag367
ag368
a(g362
I0
g330
tp370
ag370
a(g362
I0
g338
tp371
ag367
ag371
a(g354
I0
g338
tp372
ag361
a(g332
I0
g330
tp373
a(g332
I0
g330
tp374
ag335
ag336
ag339
a(g354
F1.5707963267948966
g338
tp375
a(g354
F1.5707963267948966
g330
tp376
a(g354
F1.5707963267948966
g334
tp377
a(g354
F1.5707963267948966
g334
tp378
a(g354
F1.5707963267948966
g338
tp379
a(g354
F1.5707963267948966
g338
tp380
ag376
a(g362
F1.5707963267948966
g330
tp381
a(g362
F1.5707963267948966
g338
tp382
a(g354
F1.5707963267948966
g338
tp383
ag376
a(g354
F1.5707963267948966
g338
tp384
ag376
ag381
a(g362
F1.5707963267948966
g330
tp385
ag385
ag385
ag385
ag385
a(g362
F1.5707963267948966
g330
tp386
ag386
ag382
a(S'p4'
p387
F1.5707963267948966
g338
tp388
asS's'
p389
(lp390
(g329
I0
g22
tp391
ag331
ag333
ag335
ag336
ag337
ag339
ag340
ag339
ag341
ag342
ag343
ag344
ag345
ag340
ag346
ag345
ag347
ag348
ag349
ag350
ag336
ag349
ag351
ag335
ag336
ag346
ag352
ag348
ag339
ag340
ag346
ag348
ag337
ag337
ag349
ag353
ag355
ag356
ag357
ag358
ag359
ag360
ag361
ag363
ag364
ag365
ag365
ag366
ag367
ag368
ag364
ag369
ag366
ag367
ag368
ag370
ag370
ag371
ag367
ag371
ag372
ag361
ag373
ag374
ag335
ag336
ag339
ag375
ag376
ag377
ag378
ag379
ag380
ag376
ag381
ag382
ag383
ag376
ag384
ag376
ag381
ag385
ag385
ag385
ag385
ag385
ag386
ag386
ag382
asS'ui'
p392
(lp393
S'hs'
p394
ag394
aS'hp'
p395
ag394
ag395
ag395
ag394
ag395
aS'ss'
p396
ag327
ag395
ag327
ag394
ag327
ag327
ag394
ag394
ag396
ag396
ag327
ag327
ag396
ag396
ag395
ag394
ag396
ag394
ag395
ag395
ag396
ag395
ag394
ag396
ag396
ag396
ag395
ag396
ag396
ag396
ag394
ag396
ag396
ag395
ag327
ag394
ag396
ag396
ag395
ag396
ag327
ag394
ag327
ag395
ag395
ag327
ag394
ag327
ag394
ag395
ag394
ag327
ag395
ag327
ag327
ag395
ag327
ag395
ag327
ag395
ag395
ag327
ag395
ag396
ag395
ag327
ag394
ag396
ag395
ag394
ag395
ag327
ag327
ag396
ag327
ag327
ag394
ag327
ag396
ag396
ag396
asS'um_before'
p397
(lp398
g394
ag327
ag395
ag327
ag327
ag395
ag394
ag395
ag327
ag327
ag395
ag327
ag394
ag394
ag394
ag394
ag395
ag395
ag396
ag396
ag327
ag396
ag394
ag395
ag327
ag394
ag396
ag395
ag395
ag394
ag394
ag395
ag327
ag327
ag396
ag395
ag396
ag396
ag394
ag327
ag395
ag327
ag395
ag327
ag395
ag396
ag396
ag395
ag395
ag327
ag395
ag327
ag395
ag395
ag327
ag396
ag396
ag394
ag395
ag394
ag327
ag395
ag396
ag396
ag395
ag327
ag395
ag396
ag395
ag395
ag327
ag395
ag396
ag395
ag327
ag394
ag327
ag395
ag394
ag395
ag327
ag327
ag327
ag327
ag327
ag327
ag396
ag396
ag394
ag396
asS'um_after'
p399
(lp400
g394
ag327
ag395
ag327
ag327
ag395
ag394
ag395
ag327
ag327
ag395
ag327
ag394
ag394
ag394
ag394
ag395
ag395
ag396
ag396
ag327
ag396
ag394
ag395
ag327
ag394
ag396
ag395
ag395
ag394
ag394
ag395
ag327
ag327
ag396
ag395
ag396
ag396
ag394
ag327
ag395
ag327
ag395
ag327
ag395
ag396
ag396
ag395
ag395
ag327
ag395
ag327
ag395
ag395
ag327
ag396
ag396
ag394
ag395
ag394
ag327
ag395
ag396
ag396
ag395
ag327
ag395
ag396
ag395
ag395
ag327
ag395
ag396
ag395
ag327
ag394
ag327
ag395
ag394
ag395
ag327
ag327
ag327
ag327
ag327
ag327
ag396
ag396
ag394
ag396
asS'is_normalized_entropy_less_than_threshold'
p401
(lp402
g50
(g51
(S'b1'
p403
I0
I1
tp404
Rp405
(I3
S'|'
p406
NNNI-1
I-1
I0
tp407
bS'\x01'
p408
tp409
Rp410
ag410
ag410
ag410
ag50
(g405
S'\x00'
p411
tp412
Rp413
ag410
ag413
ag410
ag413
ag413
ag410
ag410
ag410
ag413
ag413
ag410
ag410
ag410
ag410
ag413
ag410
ag410
ag413
ag410
ag410
ag413
ag410
ag410
ag410
ag413
ag413
ag410
ag413
ag413
ag410
ag413
ag410
ag410
ag413
ag413
ag410
ag413
ag410
ag410
ag410
ag410
ag410
ag410
ag410
ag413
ag410
ag413
ag410
ag410
ag413
ag410
ag410
ag410
ag410
ag410
ag413
ag410
ag413
ag410
ag410
ag410
ag410
ag410
ag410
ag413
ag413
ag410
ag410
ag410
ag410
ag410
ag413
ag410
ag413
ag410
ag410
ag413
ag413
ag413
ag413
ag413
ag410
ag410
ag410
ag410
asaa(lp414
S'index'
p415
aI54327
aatp416
Rp417
.