ccollections
OrderedDict
p0
((lp1
(lp2
S'combination_dict'
p3
ag0
((lp4
(lp5
S'r_to_g_config'
p6
aS'tr'
p7
aa(lp8
S'num_turns'
p9
aI2
aa(lp10
S'start_direction'
p11
acutils_ms
StartDirection
p12
(I0
tp13
Rp14
aa(lp15
S'assistance_type'
p16
acutils_ms
AssistanceType
p17
(I0
tp18
Rp19
aa(lp20
S'start_mode'
p21
aS'y'
p22
aa(lp23
S'ui_given_a_noise'
p24
aF0.3
aa(lp25
S'um_given_ui_noise'
p26
aF0.7
aa(lp27
S'entropy_threshold'
p28
aF0.8
aatp29
Rp30
aa(lp31
S'data'
p32
accollections
defaultdict
p33
(c__builtin__
list
p34
tp35
Rp36
S'a'
p37
(lp38
S'mode_l'
p39
aS'move_p'
p40
ag39
ag40
ag40
ag39
ag39
ag39
ag40
ag39
ag39
ag40
aS'mode_r'
p41
ag41
ag41
ag39
ag39
ag40
ag40
ag40
asS'assistance_match_with_ground_truth'
p42
(lp43
I01
aI01
aI01
aI00
aI01
aI00
aI00
aI01
aI01
aI00
aI01
aI00
aI00
aI00
aI00
aI00
aI01
aI00
aI00
aI01
asS'is_u_intended_equals_um'
p44
(lp45
I01
aI01
aI01
aI00
aI01
aI00
aI01
aI01
aI01
aI00
aI01
aI00
aI00
aI00
aI00
aI00
aI01
aI00
aI00
aI01
asS'total_steps'
p46
I20
sS'normalized_h_of_p_ui_given_um'
p47
(lp48
cnumpy.core.multiarray
scalar
p49
(cnumpy
dtype
p50
(S'f8'
p51
I0
I1
tp52
Rp53
(I3
S'<'
p54
NNNI-1
I-1
I0
tp55
bS'\xa1\xb8\xe1\x15\x05>\xd7?'
p56
tp57
Rp58
ag49
(g53
S'\xcc>If\xbaS\xd5?'
p59
tp60
Rp61
ag49
(g53
S'\xa1\xb8\xe1\x15\x05>\xd7?'
p62
tp63
Rp64
ag49
(g53
S'\xc6Z,\xe0\xf7^\xe3?'
p65
tp66
Rp67
ag49
(g53
S'\xcc>If\xbaS\xd5?'
p68
tp69
Rp70
ag49
(g53
S'<\xbd\xf1\x9a|\x85\xe5?'
p71
tp72
Rp73
ag49
(g53
S'\xac\x91,\xd7\xba\xcf\xe6?'
p74
tp75
Rp76
ag49
(g53
S'\xa1\xb8\xe1\x15\x05>\xd7?'
p77
tp78
Rp79
ag49
(g53
S'\xcc>If\xbaS\xd5?'
p80
tp81
Rp82
ag49
(g53
S'S\xf1\x83\x88\xf9\x95\xe9?'
p83
tp84
Rp85
ag49
(g53
S'\xa1\xb8\xe1\x15\x05>\xd7?'
p86
tp87
Rp88
ag49
(g53
S'\xacr{\xa4\xefJ\xea?'
p89
tp90
Rp91
ag49
(g53
S'\x11\xc4\xed\xdb\xe3u\xe9?'
p92
tp93
Rp94
ag49
(g53
S'\x11\xc4\xed\xdb\xe3u\xe9?'
p95
tp96
Rp97
ag49
(g53
S'\xb4x\t\x98\x8e\xf0\xe9?'
p98
tp99
Rp100
ag49
(g53
S'S\xf1\x83\x88\xf9\x95\xe9?'
p101
tp102
Rp103
ag49
(g53
S'\xa1\xb8\xe1\x15\x05>\xd7?'
p104
tp105
Rp106
ag49
(g53
S'\xc6Z,\xe0\xf7^\xe3?'
p107
tp108
Rp109
ag49
(g53
S'\xc6Z,\xe0\xf7^\xe3?'
p110
tp111
Rp112
ag49
(g53
S'\xcc>If\xbaS\xd5?'
p113
tp114
Rp115
asS'sp'
p116
(lp117
(S'p0'
p118
I0
S'x'
p119
tp120
a(S'p1'
p121
I0
g119
tp122
a(g121
I0
S't'
p123
tp124
ag124
a(g121
F1.5707963267948966
g123
tp125
ag125
a(g121
F1.5707963267948966
g123
tp126
a(g121
F1.5707963267948966
S'y'
p127
tp128
a(S'p2'
p129
F1.5707963267948966
g127
tp130
ag130
a(g129
F1.5707963267948966
g119
tp131
a(g129
F1.5707963267948966
g123
tp132
ag132
ag132
a(g129
F1.5707963267948966
g127
tp133
ag133
ag131
ag131
ag131
a(S'p3'
p134
F1.5707963267948966
g119
tp135
asS's'
p136
(lp137
(g118
I0
g22
tp138
ag120
ag122
ag124
ag124
ag125
ag125
ag126
ag128
ag130
ag130
ag131
ag132
ag132
ag132
ag133
ag133
ag131
ag131
ag131
asS'ui'
p139
(lp140
S'hs'
p141
ag116
ag141
ag116
ag116
ag141
ag141
ag141
ag116
ag141
ag141
ag141
aS'hp'
p142
ag141
aS'ss'
p143
ag141
ag141
ag116
ag116
ag116
asS'um_before'
p144
(lp145
g141
ag116
ag141
ag142
ag116
ag143
ag116
ag141
ag116
ag142
ag141
ag141
ag143
ag143
ag141
ag142
ag141
ag142
ag142
ag116
asS'um_after'
p146
(lp147
g141
ag116
ag141
aNag116
aNag116
ag141
ag116
aNag141
ag141
aNaNag141
aNag141
aNaNag116
asS'is_normalized_entropy_less_than_threshold'
p148
(lp149
g49
(g50
(S'b1'
p150
I0
I1
tp151
Rp152
(I3
S'|'
p153
NNNI-1
I-1
I0
tp154
bS'\x01'
p155
tp156
Rp157
ag157
ag157
ag157
ag157
ag157
ag157
ag157
ag157
ag157
ag157
ag49
(g152
S'\x00'
p158
tp159
Rp160
ag157
ag157
ag160
ag157
ag157
ag157
ag157
ag157
asaa(lp161
S'index'
p162
aI10789
aatp163
Rp164
.