ccollections
OrderedDict
p0
((lp1
(lp2
S'combination_dict'
p3
ag0
((lp4
(lp5
S'r_to_g_config'
p6
aS'tl'
p7
aa(lp8
S'num_turns'
p9
aI2
aa(lp10
S'start_direction'
p11
acutils_ms
StartDirection
p12
(I0
tp13
Rp14
aa(lp15
S'assistance_type'
p16
acutils_ms
AssistanceType
p17
(I0
tp18
Rp19
aa(lp20
S'start_mode'
p21
aS'y'
p22
aa(lp23
S'ui_given_a_noise'
p24
aF0.7
aa(lp25
S'um_given_ui_noise'
p26
aF0.1
aa(lp27
S'entropy_threshold'
p28
aF0.6
aatp29
Rp30
aa(lp31
S'data'
p32
accollections
defaultdict
p33
(c__builtin__
list
p34
tp35
Rp36
S'a'
p37
(lp38
S'mode_l'
p39
ag39
aS'move_n'
p40
ag39
ag39
ag39
aS'move_p'
p41
aS'mode_r'
p42
ag41
ag41
ag42
ag41
ag42
ag39
ag39
ag41
ag39
ag42
ag41
ag39
ag39
ag39
ag39
ag42
ag42
ag40
ag42
ag41
ag39
ag39
ag39
ag40
asS'assistance_match_with_ground_truth'
p43
(lp44
I00
aI01
aI01
aI00
aI00
aI01
aI00
aI01
aI00
aI00
aI01
aI00
aI00
aI00
aI01
aI01
aI00
aI01
aI00
aI00
aI00
aI00
aI00
aI00
aI01
aI01
aI01
aI01
aI00
aI00
aI01
aI01
asS'is_u_intended_equals_um'
p45
(lp46
I01
aI01
aI01
aI01
aI01
aI01
aI01
aI01
aI01
aI01
aI01
aI01
aI01
aI01
aI01
aI01
aI01
aI01
aI01
aI01
aI01
aI01
aI01
aI01
aI01
aI01
aI01
aI01
aI01
aI01
aI01
aI01
asS'total_steps'
p47
I32
sS'normalized_h_of_p_ui_given_um'
p48
(lp49
cnumpy.core.multiarray
scalar
p50
(cnumpy
dtype
p51
(S'f8'
p52
I0
I1
tp53
Rp54
(I3
S'<'
p55
NNNI-1
I-1
I0
tp56
bS'\xadl\xc7\n\xaea\xd3?'
p57
tp58
Rp59
ag50
(g54
S'\x1ad\xee+y\x0b\xca?'
p60
tp61
Rp62
ag50
(g54
S'\x8e\x9e\xb3\x15r\x9c\x98?'
p63
tp64
Rp65
ag50
(g54
S'\x02&?n\xb0\x8a\xd1?'
p66
tp67
Rp68
ag50
(g54
S'\xadl\xc7\n\xaea\xd3?'
p69
tp70
Rp71
ag50
(g54
S'\x1ad\xee+y\x0b\xca?'
p72
tp73
Rp74
ag50
(g54
S'\xe0\xd8p\xa7\xfe\xe6\xd4?'
p75
tp76
Rp77
ag50
(g54
S'\x86\xc1\xff?t\xd1\xbc?'
p78
tp79
Rp80
ag50
(g54
S'Wp\x92\xa8\xd5\xb0\xd0?'
p81
tp82
Rp83
ag50
(g54
S'\xe0\xd8p\xa7\xfe\xe6\xd4?'
p84
tp85
Rp86
ag50
(g54
S'\x86\xc1\xff?t\xd1\xbc?'
p87
tp88
Rp89
ag50
(g54
S'\xe0\xd8p\xa7\xfe\xe6\xd4?'
p90
tp91
Rp92
ag50
(g54
S'`\xad}\x1a\x84\x8c\xd9?'
p93
tp94
Rp95
ag50
(g54
S'\xadl\xc7\n\xaea\xd3?'
p96
tp97
Rp98
ag50
(g54
S'\x1ad\xee+y\x0b\xca?'
p99
tp100
Rp101
ag50
(g54
S'6\\1\xd7\xf3>\xbc?'
p102
tp103
Rp104
ag50
(g54
S'dC#\x93-\x9b\xde?'
p105
tp106
Rp107
ag50
(g54
S'\x86\xc1\xff?t\xd1\xbc?'
p108
tp109
Rp110
ag50
(g54
S'Wp\x92\xa8\xd5\xb0\xd0?'
p111
tp112
Rp113
ag50
(g54
S'\x02&?n\xb0\x8a\xd1?'
p114
tp115
Rp116
ag50
(g54
S'\x02&?n\xb0\x8a\xd1?'
p117
tp118
Rp119
ag50
(g54
S'\xadl\xc7\n\xaea\xd3?'
p120
tp121
Rp122
ag50
(g54
S'dC#\x93-\x9b\xde?'
p123
tp124
Rp125
ag50
(g54
S'H\xf4a\xe8<\xfc\xd6?'
p126
tp127
Rp128
ag50
(g54
S'\x86\xc1\xff?t\xd1\xbc?'
p129
tp130
Rp131
ag50
(g54
S'\x8e\x9e\xb3\x15r\x9c\x98?'
p132
tp133
Rp134
ag50
(g54
S'\x86\xc1\xff?t\xd1\xbc?'
p135
tp136
Rp137
ag50
(g54
S'6\\1\xd7\xf3>\xbc?'
p138
tp139
Rp140
ag50
(g54
S'\x02&?n\xb0\x8a\xd1?'
p141
tp142
Rp143
ag50
(g54
S'\x02&?n\xb0\x8a\xd1?'
p144
tp145
Rp146
ag50
(g54
S'\x1ad\xee+y\x0b\xca?'
p147
tp148
Rp149
ag50
(g54
S'\x8e\x9e\xb3\x15r\x9c\x98?'
p150
tp151
Rp152
asS'sp'
p153
(lp154
(S'p0'
p155
I0
S'y'
p156
tp157
a(g155
I0
S'x'
p158
tp159
a(S'p1'
p160
I0
g158
tp161
a(g160
I0
g158
tp162
a(g160
I0
g158
tp163
a(g160
I0
S't'
p164
tp165
a(g160
I0
g156
tp166
a(g160
I0
g164
tp167
a(g160
I0
g164
tp168
ag166
ag167
ag166
a(g160
I0
g158
tp169
ag163
ag165
a(g160
F1.5707963267948966
g164
tp170
a(g160
F1.5707963267948966
g158
tp171
a(g160
F1.5707963267948966
g156
tp172
a(g155
F1.5707963267948966
g156
tp173
a(g155
F1.5707963267948966
g156
tp174
ag174
a(g155
F1.5707963267948966
g156
tp175
a(g155
F1.5707963267948966
g164
tp176
a(g155
F1.5707963267948966
g164
tp177
a(g155
F1.5707963267948966
g158
tp178
a(g160
F1.5707963267948966
g158
tp179
ag172
a(S'p2'
p180
F1.5707963267948966
g156
tp181
a(g180
F1.5707963267948966
g156
tp182
ag182
a(g180
F1.5707963267948966
g158
tp183
a(S'p3'
p184
F1.5707963267948966
g158
tp185
asS's'
p186
(lp187
(g155
I0
g22
tp188
ag157
ag159
ag161
ag162
ag163
ag165
ag166
ag167
ag168
ag166
ag167
ag166
ag169
ag163
ag165
ag170
ag171
ag172
ag173
ag174
ag174
ag175
ag176
ag177
ag178
ag179
ag172
ag181
ag182
ag182
ag183
asS'ui'
p189
(lp190
g153
aS'hs'
p191
aS'ss'
p192
ag192
ag153
ag191
ag192
aS'hp'
p193
ag192
ag191
ag193
ag191
ag191
ag153
ag191
ag153
ag193
ag193
ag192
ag192
ag192
ag153
ag193
ag193
ag193
ag192
ag193
ag153
ag192
ag192
ag191
ag192
asS'um_before'
p194
(lp195
g153
ag191
ag192
ag192
ag153
ag191
ag191
ag193
ag192
ag191
ag193
ag191
ag191
ag153
ag191
ag153
ag193
ag193
ag192
ag192
ag192
ag153
ag193
ag153
ag193
ag192
ag193
ag153
ag192
ag192
ag191
ag192
asS'um_after'
p196
(lp197
g153
ag191
ag192
ag192
ag153
ag191
ag191
ag193
ag192
ag191
ag193
ag191
ag191
ag153
ag191
ag153
ag193
ag193
ag192
ag192
ag192
ag153
ag193
ag153
ag193
ag192
ag193
ag153
ag192
ag192
ag191
ag192
asS'is_normalized_entropy_less_than_threshold'
p198
(lp199
g50
(g51
(S'b1'
p200
I0
I1
tp201
Rp202
(I3
S'|'
p203
NNNI-1
I-1
I0
tp204
bS'\x01'
p205
tp206
Rp207
ag207
ag207
ag207
ag207
ag207
ag207
ag207
ag207
ag207
ag207
ag207
ag207
ag207
ag207
ag207
ag207
ag207
ag207
ag207
ag207
ag207
ag207
ag207
ag207
ag207
ag207
ag207
ag207
ag207
ag207
ag207
asaa(lp208
S'index'
p209
aI39813
aatp210
Rp211
.