ccollections
OrderedDict
p0
((lp1
(lp2
S'combination_dict'
p3
ag0
((lp4
(lp5
S'r_to_g_config'
p6
aS'tr'
p7
aa(lp8
S'num_turns'
p9
aI3
aa(lp10
S'start_direction'
p11
acutils_ms
StartDirection
p12
(I0
tp13
Rp14
aa(lp15
S'assistance_type'
p16
acutils_ms
AssistanceType
p17
(I0
tp18
Rp19
aa(lp20
S'start_mode'
p21
aS't'
p22
aa(lp23
S'ui_given_a_noise'
p24
aF0.7
aa(lp25
S'um_given_ui_noise'
p26
aF0.1
aa(lp27
S'entropy_threshold'
p28
aF0.9
aatp29
Rp30
aa(lp31
S'data'
p32
accollections
defaultdict
p33
(c__builtin__
list
p34
tp35
Rp36
S'a'
p37
(lp38
S'mode_r'
p39
ag39
ag39
aS'mode_l'
p40
ag39
ag39
ag40
ag40
aS'move_p'
p41
ag40
ag40
ag40
ag41
ag40
ag41
ag40
ag40
ag41
ag40
ag39
ag40
ag41
ag41
ag40
ag40
ag39
ag40
ag41
ag40
ag39
ag40
ag41
ag39
ag39
ag39
ag39
ag41
ag40
ag40
ag41
ag39
ag40
ag39
ag39
ag41
ag40
ag40
ag40
ag40
ag39
ag41
asS'assistance_match_with_ground_truth'
p42
(lp43
I00
aI00
aI00
aI00
aI00
aI00
aI00
aI01
aI00
aI00
aI00
aI01
aI01
aI01
aI00
aI00
aI01
aI00
aI00
aI00
aI01
aI00
aI01
aI00
aI00
aI00
aI01
aI01
aI00
aI00
aI01
aI01
aI00
aI00
aI00
aI01
aI00
aI00
aI01
aI00
aI00
aI00
aI00
aI01
aI00
aI00
aI00
aI00
aI00
aI01
aI01
asS'is_u_intended_equals_um'
p44
(lp45
I01
aI01
aI01
aI01
aI01
aI01
aI01
aI01
aI01
aI01
aI01
aI01
aI01
aI01
aI01
aI01
aI01
aI01
aI01
aI01
aI01
aI01
aI01
aI01
aI01
aI01
aI01
aI01
aI01
aI01
aI01
aI01
aI01
aI01
aI01
aI01
aI01
aI01
aI01
aI01
aI01
aI01
aI01
aI01
aI01
aI01
aI01
aI01
aI01
aI01
aI01
asS'total_steps'
p46
I51
sS'normalized_h_of_p_ui_given_um'
p47
(lp48
cnumpy.core.multiarray
scalar
p49
(cnumpy
dtype
p50
(S'f8'
p51
I0
I1
tp52
Rp53
(I3
S'<'
p54
NNNI-1
I-1
I0
tp55
bS'<\x95*\xa4\xa7\xe8\xdf?'
p56
tp57
Rp58
ag49
(g53
S'\x05\xe8\xe6\xc81\xf4\xd6?'
p59
tp60
Rp61
ag49
(g53
S'\xcf\x865[\x0b\xc8\xdf?'
p62
tp63
Rp64
ag49
(g53
S'\xe3\x80\xfc$\xb6\xae\xe0?'
p65
tp66
Rp67
ag49
(g53
S'<\x95*\xa4\xa7\xe8\xdf?'
p68
tp69
Rp70
ag49
(g53
S'\xcf\x865[\x0b\xc8\xdf?'
p71
tp72
Rp73
ag49
(g53
S"f\xad4\xef'+\xd2?"
p74
tp75
Rp76
ag49
(g53
S'Dg\xc8\xd8\xbcz\xc9?'
p77
tp78
Rp79
ag49
(g53
S'\xc7(t\xd4\xe0e\xd8?'
p80
tp81
Rp82
ag49
(g53
S"f\xad4\xef'+\xd2?"
p83
tp84
Rp85
ag49
(g53
S'\x04\xcc8\x19v \xe7?'
p86
tp87
Rp88
ag49
(g53
S'Dg\xc8\xd8\xbcz\xc9?'
p89
tp90
Rp91
ag49
(g53
S'Wf\xf3qO\x1b\xd6?'
p92
tp93
Rp94
ag49
(g53
S'Dg\xc8\xd8\xbcz\xc9?'
p95
tp96
Rp97
ag49
(g53
S'\xc7(t\xd4\xe0e\xd8?'
p98
tp99
Rp100
ag49
(g53
S'\x04\xcc8\x19v \xe7?'
p101
tp102
Rp103
ag49
(g53
S'Dg\xc8\xd8\xbcz\xc9?'
p104
tp105
Rp106
ag49
(g53
S'\xc7(t\xd4\xe0e\xd8?'
p107
tp108
Rp109
ag49
(g53
S'\xe3\x80\xfc$\xb6\xae\xe0?'
p110
tp111
Rp112
ag49
(g53
S'\x05\xe8\xe6\xc81\xf4\xd6?'
p113
tp114
Rp115
ag49
(g53
S'Dg\xc8\xd8\xbcz\xc9?'
p116
tp117
Rp118
ag49
(g53
S'\xdam\xf4X\xd7A\xd9?'
p119
tp120
Rp121
ag49
(g53
S'Wf\xf3qO\x1b\xd6?'
p122
tp123
Rp124
ag49
(g53
S"f\xad4\xef'+\xd2?"
p125
tp126
Rp127
ag49
(g53
S'\xe3\x80\xfc$\xb6\xae\xe0?'
p128
tp129
Rp130
ag49
(g53
S'\x05\xe8\xe6\xc81\xf4\xd6?'
p131
tp132
Rp133
ag49
(g53
S'Dg\xc8\xd8\xbcz\xc9?'
p134
tp135
Rp136
ag49
(g53
S'Wf\xf3qO\x1b\xd6?'
p137
tp138
Rp139
ag49
(g53
S'\xe3\x80\xfc$\xb6\xae\xe0?'
p140
tp141
Rp142
ag49
(g53
S'<\x95*\xa4\xa7\xe8\xdf?'
p143
tp144
Rp145
ag49
(g53
S'Dg\xc8\xd8\xbcz\xc9?'
p146
tp147
Rp148
ag49
(g53
S'Wf\xf3qO\x1b\xd6?'
p149
tp150
Rp151
ag49
(g53
S'<\x95*\xa4\xa7\xe8\xdf?'
p152
tp153
Rp154
ag49
(g53
S'\x05\xe8\xe6\xc81\xf4\xd6?'
p155
tp156
Rp157
ag49
(g53
S'<\x95*\xa4\xa7\xe8\xdf?'
p158
tp159
Rp160
ag49
(g53
S'sN\xb3\xcb-\x11\xd0?'
p161
tp162
Rp163
ag49
(g53
S'\xc7(t\xd4\xe0e\xd8?'
p164
tp165
Rp166
ag49
(g53
S"f\xad4\xef'+\xd2?"
p167
tp168
Rp169
ag49
(g53
S'Dg\xc8\xd8\xbcz\xc9?'
p170
tp171
Rp172
ag49
(g53
S'\xcfKi/[\xcf\xdd?'
p173
tp174
Rp175
ag49
(g53
S'\xcf\x865[\x0b\xc8\xdf?'
p176
tp177
Rp178
ag49
(g53
S'\xe3\x80\xfc$\xb6\xae\xe0?'
p179
tp180
Rp181
ag49
(g53
S'\x05\xe8\xe6\xc81\xf4\xd6?'
p182
tp183
Rp184
ag49
(g53
S'sN\xb3\xcb-\x11\xd0?'
p185
tp186
Rp187
ag49
(g53
S'\xc7(t\xd4\xe0e\xd8?'
p188
tp189
Rp190
ag49
(g53
S"f\xad4\xef'+\xd2?"
p191
tp192
Rp193
ag49
(g53
S"f\xad4\xef'+\xd2?"
p194
tp195
Rp196
ag49
(g53
S"f\xad4\xef'+\xd2?"
p197
tp198
Rp199
ag49
(g53
S'\xe3\x80\xfc$\xb6\xae\xe0?'
p200
tp201
Rp202
ag49
(g53
S'sN\xb3\xcb-\x11\xd0?'
p203
tp204
Rp205
ag49
(g53
S'Wf\xf3qO\x1b\xd6?'
p206
tp207
Rp208
asS'sp'
p209
(lp210
(S'p0'
p211
I0
S't'
p212
tp213
a(g211
I0
g212
tp214
a(g211
I0
S'y'
p215
tp216
a(g211
I0
g212
tp217
ag213
ag216
a(g211
I0
g215
tp218
a(g211
I0
S'x'
p219
tp220
a(g211
I0
g215
tp221
ag218
a(g211
I0
g215
tp222
ag220
a(S'p1'
p223
I0
g219
tp224
a(g223
I0
g212
tp225
a(g223
I0
g219
tp226
a(g223
I0
g219
tp227
ag225
ag226
a(g223
I0
g215
tp228
a(g211
I0
g215
tp229
ag220
a(g211
I0
g219
tp230
ag224
a(g223
I0
g219
tp231
ag228
ag229
ag220
ag224
ag228
a(S'p2'
p232
I0
g215
tp233
a(g232
I0
g219
tp234
a(S'p3'
p235
I0
g219
tp236
a(g235
I0
g219
tp237
a(g235
I0
g219
tp238
ag237
a(g235
I0
g215
tp239
a(g235
I0
g212
tp240
a(g235
I0
g212
tp241
a(g235
I0
g215
tp242
a(g235
I0
g219
tp243
a(g235
I0
g212
tp244
a(g235
I0
g219
tp245
ag238
ag239
ag240
ag241
ag241
ag241
ag245
ag239
a(S'p4'
p246
I0
g215
tp247
asS's'
p248
(lp249
(g211
I0
g22
tp250
ag213
ag214
ag216
ag217
ag213
ag216
ag218
ag220
ag221
ag218
ag222
ag220
ag224
ag225
ag226
ag227
ag225
ag226
ag228
ag229
ag220
ag230
ag224
ag231
ag228
ag229
ag220
ag224
ag228
ag233
ag234
ag236
ag237
ag238
ag237
ag239
ag240
ag241
ag242
ag243
ag244
ag245
ag238
ag239
ag240
ag241
ag241
ag241
ag245
ag239
asS'ui'
p251
(lp252
g209
aS'ss'
p253
ag253
aS'hs'
p254
ag209
ag254
ag253
ag254
aS'hp'
p255
ag253
ag209
ag254
ag209
ag254
ag255
ag255
ag254
ag209
ag254
ag253
ag254
ag253
ag209
ag254
ag254
ag253
ag254
ag209
ag255
ag209
ag209
ag209
ag209
ag209
ag209
ag255
ag255
ag209
ag254
ag254
ag254
ag255
ag209
ag255
ag255
ag253
ag253
ag253
ag254
ag255
ag209
asS'um_before'
p256
(lp257
g209
ag253
ag254
ag255
ag209
ag254
ag253
ag254
ag255
ag253
ag209
ag254
ag209
ag254
ag255
ag209
ag254
ag255
ag255
ag253
ag254
ag253
ag209
ag253
ag255
ag253
ag254
ag209
ag255
ag209
ag254
ag209
ag209
ag253
ag209
ag255
ag255
ag253
ag254
ag254
ag254
ag255
ag253
ag255
ag255
ag253
ag253
ag253
ag255
ag255
ag209
asS'um_after'
p258
(lp259
g209
ag253
ag254
ag255
ag209
ag254
ag253
ag254
ag255
ag253
ag209
ag254
ag209
ag254
ag255
ag209
ag254
ag255
ag255
ag253
ag254
ag253
ag209
ag253
ag255
ag253
ag254
ag209
ag255
ag209
ag254
ag209
ag209
ag253
ag209
ag255
ag255
ag253
ag254
ag254
ag254
ag255
ag253
ag255
ag255
ag253
ag253
ag253
ag255
ag255
ag209
asS'is_normalized_entropy_less_than_threshold'
p260
(lp261
g49
(g50
(S'b1'
p262
I0
I1
tp263
Rp264
(I3
S'|'
p265
NNNI-1
I-1
I0
tp266
bS'\x01'
p267
tp268
Rp269
ag269
ag269
ag269
ag269
ag269
ag269
ag269
ag269
ag269
ag269
ag269
ag269
ag269
ag269
ag269
ag269
ag269
ag269
ag269
ag269
ag269
ag269
ag269
ag269
ag269
ag269
ag269
ag269
ag269
ag269
ag269
ag269
ag269
ag269
ag269
ag269
ag269
ag269
ag269
ag269
ag269
ag269
ag269
ag269
ag269
ag269
ag269
ag269
ag269
ag269
asaa(lp270
S'index'
p271
aI19849
aatp272
Rp273
.