ccollections
OrderedDict
p0
((lp1
(lp2
S'combination_dict'
p3
ag0
((lp4
(lp5
S'r_to_g_config'
p6
aS'br'
p7
aa(lp8
S'num_turns'
p9
aI3
aa(lp10
S'start_direction'
p11
acutils_ms
StartDirection
p12
(I0
tp13
Rp14
aa(lp15
S'assistance_type'
p16
acutils_ms
AssistanceType
p17
(I1
tp18
Rp19
aa(lp20
S'start_mode'
p21
aS'y'
p22
aa(lp23
S'ui_given_a_noise'
p24
aF0.7
aa(lp25
S'um_given_ui_noise'
p26
aF0.5
aa(lp27
S'entropy_threshold'
p28
aF0.7
aatp29
Rp30
aa(lp31
S'data'
p32
accollections
defaultdict
p33
(c__builtin__
list
p34
tp35
Rp36
S'a'
p37
(lp38
S'mode_l'
p39
ag39
ag39
aS'mode_r'
p40
ag40
ag39
ag39
aS'move_p'
p41
ag39
ag39
ag41
ag40
ag39
ag41
ag41
ag39
ag40
ag39
ag39
ag40
ag39
ag40
ag41
ag39
ag39
ag40
ag39
ag40
ag39
ag41
ag39
ag40
ag41
ag40
ag41
ag39
ag39
ag39
ag39
ag41
ag39
ag39
ag41
ag41
ag39
aS'move_n'
p42
ag39
ag40
ag40
ag41
ag39
ag40
ag41
ag40
ag41
ag40
ag42
ag39
ag42
asS'assistance_match_with_ground_truth'
p43
(lp44
I00
aI00
aI00
aI00
aI00
aI00
aI01
aI01
aI00
aI01
aI00
aI00
aI01
aI00
aI00
aI00
aI00
aI00
aI00
aI00
aI00
aI01
aI01
aI00
aI00
aI00
aI00
aI00
aI01
aI00
aI00
aI01
aI00
aI01
aI01
aI00
aI00
aI00
aI01
aI01
aI00
aI00
aI00
aI01
aI01
aI01
aI00
aI00
aI01
aI00
aI00
aI01
aI00
aI01
aI01
aI01
aI00
aI01
aI01
asS'is_u_intended_equals_um'
p45
(lp46
I01
aI00
aI00
aI01
aI01
aI00
aI01
aI01
aI01
aI01
aI01
aI01
aI01
aI01
aI00
aI00
aI01
aI01
aI00
aI01
aI00
aI00
aI01
aI00
aI00
aI01
aI00
aI01
aI01
aI00
aI00
aI00
aI01
aI01
aI01
aI01
aI01
aI01
aI01
aI01
aI01
aI00
aI01
aI01
aI01
aI01
aI00
aI01
aI01
aI00
aI00
aI01
aI01
aI00
aI01
aI01
aI00
aI01
aI00
asS'total_steps'
p47
I59
sS'normalized_h_of_p_ui_given_um'
p48
(lp49
cnumpy.core.multiarray
scalar
p50
(cnumpy
dtype
p51
(S'f8'
p52
I0
I1
tp53
Rp54
(I3
S'<'
p55
NNNI-1
I-1
I0
tp56
bS'\x18\xbf\xa8\xd4\xd3\xda\xe3?'
p57
tp58
Rp59
ag50
(g54
S'h+c&\xb6f\xe9?'
p60
tp61
Rp62
ag50
(g54
S'd\x16\xde%m\x10\xed?'
p63
tp64
Rp65
ag50
(g54
S'\xceS\xa2C\xb4\xa6\xe3?'
p66
tp67
Rp68
ag50
(g54
S'\xbf,3\xc5\x82\x16\xe3?'
p69
tp70
Rp71
ag50
(g54
S'h+c&\xb6f\xe9?'
p72
tp73
Rp74
ag50
(g54
S'\xecS#a\xe3\xbd\xdd?'
p75
tp76
Rp77
ag50
(g54
S'\x08\xc3~\xc62\xea\xdd?'
p78
tp79
Rp80
ag50
(g54
S'\x18\xbf\xa8\xd4\xd3\xda\xe3?'
p81
tp82
Rp83
ag50
(g54
S'\xecS#a\xe3\xbd\xdd?'
p84
tp85
Rp86
ag50
(g54
S'\xa0_5z\x14\x97\xe2?'
p87
tp88
Rp89
ag50
(g54
S'\xbf,3\xc5\x82\x16\xe3?'
p90
tp91
Rp92
ag50
(g54
S'\xecS#a\xe3\xbd\xdd?'
p93
tp94
Rp95
ag50
(g54
S'\x8c\xae5*1\x83\xe1?'
p96
tp97
Rp98
ag50
(g54
S'\xcc["l|G\xe9?'
p99
tp100
Rp101
ag50
(g54
S'd\x16\xde%m\x10\xed?'
p102
tp103
Rp104
ag50
(g54
S'\xceS\xa2C\xb4\xa6\xe3?'
p105
tp106
Rp107
ag50
(g54
S'\x18\xbf\xa8\xd4\xd3\xda\xe3?'
p108
tp109
Rp110
ag50
(g54
S'd\x16\xde%m\x10\xed?'
p111
tp112
Rp113
ag50
(g54
S'\xbf,3\xc5\x82\x16\xe3?'
p114
tp115
Rp116
ag50
(g54
S'd\x16\xde%m\x10\xed?'
p117
tp118
Rp119
ag50
(g54
S'\xcdU\xdaq\x8e^\xe5?'
p120
tp121
Rp122
ag50
(g54
S'\x08\xc3~\xc62\xea\xdd?'
p123
tp124
Rp125
ag50
(g54
S'h+c&\xb6f\xe9?'
p126
tp127
Rp128
ag50
(g54
S'd\x16\xde%m\x10\xed?'
p129
tp130
Rp131
ag50
(g54
S'\xceS\xa2C\xb4\xa6\xe3?'
p132
tp133
Rp134
ag50
(g54
S'd\x16\xde%m\x10\xed?'
p135
tp136
Rp137
ag50
(g54
S'\xbf,3\xc5\x82\x16\xe3?'
p138
tp139
Rp140
ag50
(g54
S'\xecS#a\xe3\xbd\xdd?'
p141
tp142
Rp143
ag50
(g54
S'\xcc["l|G\xe9?'
p144
tp145
Rp146
ag50
(g54
S'd\x16\xde%m\x10\xed?'
p147
tp148
Rp149
ag50
(g54
S'\xcdU\xdaq\x8e^\xe5?'
p150
tp151
Rp152
ag50
(g54
S'\xa0_5z\x14\x97\xe2?'
p153
tp154
Rp155
ag50
(g54
S'\xaf\xf6\xdaH\xdae\xe6?'
p156
tp157
Rp158
ag50
(g54
S'\x08\xc3~\xc62\xea\xdd?'
p159
tp160
Rp161
ag50
(g54
S'\x18\xbf\xa8\xd4\xd3\xda\xe3?'
p162
tp163
Rp164
ag50
(g54
S'\x18\xbf\xa8\xd4\xd3\xda\xe3?'
p165
tp166
Rp167
ag50
(g54
S'\x18\xbf\xa8\xd4\xd3\xda\xe3?'
p168
tp169
Rp170
ag50
(g54
S'\xecS#a\xe3\xbd\xdd?'
p171
tp172
Rp173
ag50
(g54
S'\x08\xc3~\xc62\xea\xdd?'
p174
tp175
Rp176
ag50
(g54
S'\x18\xbf\xa8\xd4\xd3\xda\xe3?'
p177
tp178
Rp179
ag50
(g54
S'h+c&\xb6f\xe9?'
p180
tp181
Rp182
ag50
(g54
S'\x8c\xae5*1\x83\xe1?'
p183
tp184
Rp185
ag50
(g54
S'\x08\xc3~\xc62\xea\xdd?'
p186
tp187
Rp188
ag50
(g54
S'\xecS#a\xe3\xbd\xdd?'
p189
tp190
Rp191
ag50
(g54
S'\x1c\xac\x87t]/\xe1?'
p192
tp193
Rp194
ag50
(g54
S'd\x16\xde%m\x10\xed?'
p195
tp196
Rp197
ag50
(g54
S'\xceS\xa2C\xb4\xa6\xe3?'
p198
tp199
Rp200
ag50
(g54
S'\xaf\xf6\xdaH\xdae\xe6?'
p201
tp202
Rp203
ag50
(g54
S'\xcc["l|G\xe9?'
p204
tp205
Rp206
ag50
(g54
S'd\x16\xde%m\x10\xed?'
p207
tp208
Rp209
ag50
(g54
S'\xaf\xf6\xdaH\xdae\xe6?'
p210
tp211
Rp212
ag50
(g54
S'\xa0_5z\x14\x97\xe2?'
p213
tp214
Rp215
ag50
(g54
S'\xcdU\xdaq\x8e^\xe5?'
p216
tp217
Rp218
ag50
(g54
S'\x08\xc3~\xc62\xea\xdd?'
p219
tp220
Rp221
ag50
(g54
S'\xaf\xf6\xdaH\xdae\xe6?'
p222
tp223
Rp224
ag50
(g54
S'm\x07\x14\x93uc\xea?'
p225
tp226
Rp227
ag50
(g54
S'\xecS#a\xe3\xbd\xdd?'
p228
tp229
Rp230
ag50
(g54
S'"\xc0\t\x15{\xf3\xe4?'
p231
tp232
Rp233
asS'sp'
p234
(lp235
(S'p0'
p236
I0
S'y'
p237
tp238
a(g236
I0
g237
tp239
a(g236
I0
S't'
p240
tp241
a(g236
I0
g240
tp242
a(g236
I0
g237
tp243
ag239
a(g236
I0
S'x'
p244
tp245
a(S'p1'
p246
I0
g244
tp247
a(g246
I0
g244
tp248
a(g246
I0
g240
tp249
a(g246
I0
g237
tp250
a(g246
I0
g244
tp251
ag249
a(g246
I0
g240
tp252
a(g246
I0
g244
tp253
a(g246
I0
g237
tp254
a(g236
I0
g237
tp255
ag238
ag241
ag243
ag241
a(g236
I0
g244
tp256
ag247
a(g246
I0
g244
tp257
ag254
ag255
ag241
ag243
ag245
a(g236
I0
g237
tp258
ag241
ag256
a(g236
I0
g240
tp259
ag256
ag247
ag248
ag248
ag248
ag249
a(g246
F1.5707963267948966
g240
tp260
a(g246
F1.5707963267948966
g240
tp261
a(g246
I0
g240
tp262
ag252
ag260
a(g246
F1.5707963267948966
g237
tp263
a(S'p2'
p264
F1.5707963267948966
g237
tp265
a(g264
F1.5707963267948966
g240
tp266
a(g264
F1.5707963267948966
g240
tp267
a(g264
F1.5707963267948966
g244
tp268
a(g264
F1.5707963267948966
g237
tp269
ag266
ag268
a(g264
F1.5707963267948966
g240
tp270
ag268
a(S'p3'
p271
F1.5707963267948966
g244
tp272
a(g271
F1.5707963267948966
g237
tp273
a(g271
F1.5707963267948966
g240
tp274
a(g271
F1.5707963267948966
g237
tp275
a(S'p4'
p276
F1.5707963267948966
g237
tp277
asS's'
p278
(lp279
(g236
I0
g22
tp280
ag238
ag239
ag241
ag242
ag243
ag239
ag245
ag247
ag248
ag249
ag250
ag251
ag249
ag252
ag253
ag254
ag255
ag238
ag241
ag243
ag241
ag256
ag247
ag257
ag254
ag255
ag241
ag243
ag245
ag258
ag241
ag256
ag259
ag256
ag247
ag248
ag248
ag248
ag249
ag260
ag261
ag262
ag252
ag260
ag263
ag265
ag266
ag267
ag268
ag269
ag266
ag268
ag270
ag268
ag272
ag273
ag274
ag275
asS'ui'
p281
(lp282
S'hs'
p283
ag234
ag234
ag234
aS'hp'
p284
ag234
ag283
ag283
ag234
ag283
ag283
ag283
ag283
aS'ss'
p285
ag285
ag283
ag283
ag234
ag283
ag234
ag283
ag234
ag285
ag234
ag283
ag283
ag234
ag283
ag283
ag283
ag283
ag284
ag283
ag284
ag234
ag283
ag283
ag234
ag283
ag234
ag234
ag234
ag285
ag234
ag283
ag285
ag285
ag234
ag284
ag283
ag283
ag283
ag285
ag234
ag283
ag284
ag284
ag285
ag285
asS'um_before'
p286
(lp287
g234
ag285
ag284
ag234
ag283
ag285
ag283
ag234
ag234
ag283
ag283
ag283
ag283
ag285
ag284
ag284
ag234
ag234
ag284
ag283
ag284
ag285
ag234
ag285
ag284
ag234
ag284
ag283
ag283
ag284
ag284
ag285
ag283
ag284
ag234
ag234
ag234
ag234
ag283
ag234
ag234
ag285
ag285
ag234
ag283
ag285
ag284
ag234
ag284
ag284
ag284
ag284
ag283
ag285
ag234
ag284
ag284
ag283
ag283
asS'um_after'
p288
(lp289
g234
ag285
ag284
ag234
ag283
ag285
ag283
ag234
ag234
ag283
ag283
ag283
ag283
ag285
ag284
ag284
ag234
ag234
ag284
ag283
ag284
ag284
ag234
ag285
ag284
ag234
ag284
ag283
ag283
ag284
ag284
ag284
ag283
ag284
ag234
ag234
ag234
ag234
ag283
ag234
ag234
ag285
ag285
ag234
ag283
ag285
ag284
ag234
ag284
ag284
ag284
ag284
ag283
ag284
ag234
ag284
ag284
ag283
ag285
asS'is_normalized_entropy_less_than_threshold'
p290
(lp291
g50
(g51
(S'b1'
p292
I0
I1
tp293
Rp294
(I3
S'|'
p295
NNNI-1
I-1
I0
tp296
bS'\x01'
p297
tp298
Rp299
ag50
(g294
S'\x00'
p300
tp301
Rp302
ag302
ag299
ag299
ag302
ag299
ag299
ag299
ag299
ag299
ag299
ag299
ag299
ag302
ag302
ag299
ag299
ag302
ag299
ag302
ag299
ag299
ag302
ag302
ag299
ag302
ag299
ag299
ag302
ag302
ag299
ag299
ag299
ag299
ag299
ag299
ag299
ag299
ag299
ag299
ag302
ag299
ag299
ag299
ag299
ag302
ag299
ag299
ag302
ag302
ag299
ag299
ag299
ag299
ag299
ag302
ag299
ag299
asaa(lp303
S'index'
p304
aI108724
aatp305
Rp306
.