ccollections
OrderedDict
p0
((lp1
(lp2
S'combination_dict'
p3
ag0
((lp4
(lp5
S'r_to_g_config'
p6
aS'tl'
p7
aa(lp8
S'num_turns'
p9
aI2
aa(lp10
S'start_direction'
p11
acutils_ms
StartDirection
p12
(I1
tp13
Rp14
aa(lp15
S'assistance_type'
p16
acutils_ms
AssistanceType
p17
(I0
tp18
Rp19
aa(lp20
S'start_mode'
p21
aS'x'
p22
aa(lp23
S'ui_given_a_noise'
p24
aF0.1
aa(lp25
S'um_given_ui_noise'
p26
aF0.3
aa(lp27
S'entropy_threshold'
p28
aF0.9
aatp29
Rp30
aa(lp31
S'data'
p32
accollections
defaultdict
p33
(c__builtin__
list
p34
tp35
Rp36
S'a'
p37
(lp38
S'mode_r'
p39
aS'move_p'
p40
ag40
ag39
ag39
ag39
ag40
ag39
ag40
ag39
ag39
ag40
ag39
aS'move_n'
p41
ag39
ag40
ag40
asS'assistance_match_with_ground_truth'
p42
(lp43
I01
aI00
aI01
aI00
aI00
aI01
aI01
aI00
aI01
aI00
aI00
aI01
aI01
aI01
aI01
aI00
aI01
asS'is_u_intended_equals_um'
p44
(lp45
I01
aI00
aI01
aI01
aI00
aI01
aI01
aI01
aI01
aI00
aI01
aI01
aI01
aI01
aI01
aI00
aI01
asS'total_steps'
p46
I17
sS'normalized_h_of_p_ui_given_um'
p47
(lp48
cnumpy.core.multiarray
scalar
p49
(cnumpy
dtype
p50
(S'f8'
p51
I0
I1
tp52
Rp53
(I3
S'<'
p54
NNNI-1
I-1
I0
tp55
bS'\xec\x0eN`%*\xc0?'
p56
tp57
Rp58
ag49
(g53
S'.\xcf\xf9}\xe3\x0f\xde?'
p59
tp60
Rp61
ag49
(g53
S'\xd6\xe0}H\x17\x9c\xc1?'
p62
tp63
Rp64
ag49
(g53
S'\xf4\x0b\xdb\xb7\xd4\xe3\xe2?'
p65
tp66
Rp67
ag49
(g53
S'\x18\x9e\xe0Z\xe61\xe4?'
p68
tp69
Rp70
ag49
(g53
S'\xec\x0eN`%*\xc0?'
p71
tp72
Rp73
ag49
(g53
S'\xd6\xe0}H\x17\x9c\xc1?'
p74
tp75
Rp76
ag49
(g53
S'\xf4\x0b\xdb\xb7\xd4\xe3\xe2?'
p77
tp78
Rp79
ag49
(g53
S'\xd6\xe0}H\x17\x9c\xc1?'
p80
tp81
Rp82
ag49
(g53
S'\x18\x9e\xe0Z\xe61\xe4?'
p83
tp84
Rp85
ag49
(g53
S'\xf4\x0b\xdb\xb7\xd4\xe3\xe2?'
p86
tp87
Rp88
ag49
(g53
S'\xd6\xe0}H\x17\x9c\xc1?'
p89
tp90
Rp91
ag49
(g53
S'\xec\x0eN`%*\xc0?'
p92
tp93
Rp94
ag49
(g53
S'@\x84<\xcdTN\xa7?'
p95
tp96
Rp97
ag49
(g53
S'\xec\x0eN`%*\xc0?'
p98
tp99
Rp100
ag49
(g53
S'T\xba~_\x13V\xe2?'
p101
tp102
Rp103
ag49
(g53
S'\xd6\xe0}H\x17\x9c\xc1?'
p104
tp105
Rp106
asS'sp'
p107
(lp108
(S'p0'
p109
I0
S'y'
p110
tp111
ag111
a(S'p1'
p112
I0
g110
tp113
a(g112
I0
g110
tp114
ag114
a(g112
I0
S't'
p115
tp116
a(g112
F1.5707963267948966
g115
tp117
a(g112
I0
g115
tp118
ag117
ag117
ag118
ag117
a(g112
F1.5707963267948966
S'x'
p119
tp120
a(S'p2'
p121
F1.5707963267948966
g119
tp122
a(g121
F1.5707963267948966
g110
tp123
ag123
a(S'p3'
p124
F1.5707963267948966
g110
tp125
asS's'
p126
(lp127
(g109
I0
g22
tp128
ag111
ag111
ag113
ag114
ag114
ag116
ag117
ag118
ag117
ag117
ag118
ag117
ag120
ag122
ag123
ag123
asS'ui'
p129
(lp130
S'hp'
p131
ag107
ag107
ag131
ag131
ag131
ag107
ag131
ag107
ag107
ag131
ag107
ag131
aS'ss'
p132
ag131
ag107
ag107
asS'um_before'
p133
(lp134
g131
ag132
ag107
ag132
ag107
ag131
ag107
ag132
ag107
ag107
ag132
ag107
ag131
ag132
ag131
ag131
ag107
asS'um_after'
p135
(lp136
g131
aNag107
ag132
aNag131
ag107
ag132
ag107
aNag132
ag107
ag131
ag132
ag131
aNag107
asS'is_normalized_entropy_less_than_threshold'
p137
(lp138
g49
(g50
(S'b1'
p139
I0
I1
tp140
Rp141
(I3
S'|'
p142
NNNI-1
I-1
I0
tp143
bS'\x01'
p144
tp145
Rp146
ag146
ag146
ag146
ag146
ag146
ag146
ag146
ag146
ag146
ag146
ag146
ag146
ag146
ag146
ag146
ag146
asaa(lp147
S'index'
p148
aI43295
aatp149
Rp150
.