ccollections
OrderedDict
p0
((lp1
(lp2
S'combination_dict'
p3
ag0
((lp4
(lp5
S'r_to_g_config'
p6
aS'br'
p7
aa(lp8
S'num_turns'
p9
aI3
aa(lp10
S'start_direction'
p11
acutils_ms
StartDirection
p12
(I1
tp13
Rp14
aa(lp15
S'assistance_type'
p16
acutils_ms
AssistanceType
p17
(I1
tp18
Rp19
aa(lp20
S'start_mode'
p21
aS't'
p22
aa(lp23
S'ui_given_a_noise'
p24
aF0.7
aa(lp25
S'um_given_ui_noise'
p26
aF0.3
aa(lp27
S'entropy_threshold'
p28
aF0.5
aatp29
Rp30
aa(lp31
S'data'
p32
accollections
defaultdict
p33
(c__builtin__
list
p34
tp35
Rp36
S'a'
p37
(lp38
S'mode_l'
p39
aS'mode_r'
p40
aS'move_n'
p41
ag39
ag41
ag39
ag40
ag41
ag40
ag41
ag40
ag40
ag40
ag40
ag40
ag40
ag39
aS'move_p'
p42
ag39
ag42
ag40
ag39
ag40
ag40
ag41
ag39
ag39
ag39
ag41
ag40
ag39
ag42
ag42
ag39
ag40
ag40
ag40
ag39
ag39
ag41
ag40
ag41
ag39
ag39
ag39
ag40
ag40
ag40
ag40
ag42
asS'assistance_match_with_ground_truth'
p43
(lp44
I00
aI01
aI00
aI01
aI00
aI00
aI01
aI00
aI01
aI01
aI00
aI00
aI00
aI00
aI00
aI00
aI01
aI00
aI01
aI00
aI00
aI00
aI00
aI01
aI00
aI00
aI00
aI01
aI01
aI00
aI01
aI00
aI00
aI00
aI00
aI00
aI00
aI00
aI01
aI00
aI01
aI01
aI00
aI00
aI00
aI00
aI00
aI00
aI01
aI01
asS'is_u_intended_equals_um'
p45
(lp46
I01
aI01
aI00
aI01
aI00
aI01
aI01
aI01
aI01
aI01
aI01
aI01
aI01
aI01
aI01
aI01
aI01
aI01
aI01
aI01
aI01
aI01
aI01
aI01
aI00
aI01
aI00
aI01
aI01
aI01
aI01
aI01
aI01
aI00
aI01
aI01
aI01
aI00
aI01
aI01
aI01
aI01
aI01
aI01
aI01
aI01
aI01
aI01
aI01
aI01
asS'total_steps'
p47
I50
sS'normalized_h_of_p_ui_given_um'
p48
(lp49
cnumpy.core.multiarray
scalar
p50
(cnumpy
dtype
p51
(S'f8'
p52
I0
I1
tp53
Rp54
(I3
S'<'
p55
NNNI-1
I-1
I0
tp56
bS'\x84\xe1\xc6_I\x1b\xe5?'
p57
tp58
Rp59
ag50
(g54
S'\xe6>{\xd1\xe0\xbe\xe0?'
p60
tp61
Rp62
ag50
(g54
S'`\xd2\xc3Z\x9bA\xef?'
p63
tp64
Rp65
ag50
(g54
S'O\x88\x16\x1b\x80\xb3\xd5?'
p66
tp67
Rp68
ag50
(g54
S'`\xd2\xc3Z\x9bA\xef?'
p69
tp70
Rp71
ag50
(g54
S'\x84\xe1\xc6_I\x1b\xe5?'
p72
tp73
Rp74
ag50
(g54
S'\xe6>{\xd1\xe0\xbe\xe0?'
p75
tp76
Rp77
ag50
(g54
S'v\x10\x16\xd7\xc1\x81\xe4?'
p78
tp79
Rp80
ag50
(g54
S'\xe6>{\xd1\xe0\xbe\xe0?'
p81
tp82
Rp83
ag50
(g54
S'rE\x0b\xb7\xf2\xc9\xd7?'
p84
tp85
Rp86
ag50
(g54
S'\x12f\xd84\x8f\x07\xea?'
p87
tp88
Rp89
ag50
(g54
S'\x12f\xd84\x8f\x07\xea?'
p90
tp91
Rp92
ag50
(g54
S'f\xa6\x8eh\xdd\xe2\xec?'
p93
tp94
Rp95
ag50
(g54
S'f\xa6\x8eh\xdd\xe2\xec?'
p96
tp97
Rp98
ag50
(g54
S'f\xa6\x8eh\xdd\xe2\xec?'
p99
tp100
Rp101
ag50
(g54
S'\x0c\x91\xc2\xce\x16\xeb\xe5?'
p102
tp103
Rp104
ag50
(g54
S'O\x88\x16\x1b\x80\xb3\xd5?'
p105
tp106
Rp107
ag50
(g54
S'\x91\xef\xf5xF\x8d\xe7?'
p108
tp109
Rp110
ag50
(g54
S'O\x88\x16\x1b\x80\xb3\xd5?'
p111
tp112
Rp113
ag50
(g54
S'n\xac]\xe3.\x99\xe7?'
p114
tp115
Rp116
ag50
(g54
S'\x0c\x91\xc2\xce\x16\xeb\xe5?'
p117
tp118
Rp119
ag50
(g54
S'Gc\n\xbb\xe1r\xec?'
p120
tp121
Rp122
ag50
(g54
S'\x12f\xd84\x8f\x07\xea?'
p123
tp124
Rp125
ag50
(g54
S'\xe6>{\xd1\xe0\xbe\xe0?'
p126
tp127
Rp128
ag50
(g54
S'`\xd2\xc3Z\x9bA\xef?'
p129
tp130
Rp131
ag50
(g54
S'Gc\n\xbb\xe1r\xec?'
p132
tp133
Rp134
ag50
(g54
S',\xa9M\xef\x10R\xeb?'
p135
tp136
Rp137
ag50
(g54
S'O\x88\x16\x1b\x80\xb3\xd5?'
p138
tp139
Rp140
ag50
(g54
S'rE\x0b\xb7\xf2\xc9\xd7?'
p141
tp142
Rp143
ag50
(g54
S'\x0c\x91\xc2\xce\x16\xeb\xe5?'
p144
tp145
Rp146
ag50
(g54
S'O\x88\x16\x1b\x80\xb3\xd5?'
p147
tp148
Rp149
ag50
(g54
S'\xe04\x84\xa1\x1f\x7f\xeb?'
p150
tp151
Rp152
ag50
(g54
S'\x91\xef\xf5xF\x8d\xe7?'
p153
tp154
Rp155
ag50
(g54
S',\xa9M\xef\x10R\xeb?'
p156
tp157
Rp158
ag50
(g54
S'f\xa6\x8eh\xdd\xe2\xec?'
p159
tp160
Rp161
ag50
(g54
S'f\xa6\x8eh\xdd\xe2\xec?'
p162
tp163
Rp164
ag50
(g54
S'\x0c\x91\xc2\xce\x16\xeb\xe5?'
p165
tp166
Rp167
ag50
(g54
S',\xa9M\xef\x10R\xeb?'
p168
tp169
Rp170
ag50
(g54
S'O\x88\x16\x1b\x80\xb3\xd5?'
p171
tp172
Rp173
ag50
(g54
S'v\x10\x16\xd7\xc1\x81\xe4?'
p174
tp175
Rp176
ag50
(g54
S'\xe6>{\xd1\xe0\xbe\xe0?'
p177
tp178
Rp179
ag50
(g54
S'rE\x0b\xb7\xf2\xc9\xd7?'
p180
tp181
Rp182
ag50
(g54
S'Gc\n\xbb\xe1r\xec?'
p183
tp184
Rp185
ag50
(g54
S'Gc\n\xbb\xe1r\xec?'
p186
tp187
Rp188
ag50
(g54
S'\x84\xe1\xc6_I\x1b\xe5?'
p189
tp190
Rp191
ag50
(g54
S'f\xa6\x8eh\xdd\xe2\xec?'
p192
tp193
Rp194
ag50
(g54
S'f\xa6\x8eh\xdd\xe2\xec?'
p195
tp196
Rp197
ag50
(g54
S'\x12f\xd84\x8f\x07\xea?'
p198
tp199
Rp200
ag50
(g54
S'\xe6>{\xd1\xe0\xbe\xe0?'
p201
tp202
Rp203
ag50
(g54
S'\x1e9\x8e\xd1\xd0\xba\xe5?'
p204
tp205
Rp206
asS'sp'
p207
(lp208
(S'p0'
p209
I0
S'x'
p210
tp211
a(g209
I0
S'y'
p212
tp213
a(g209
I0
S't'
p214
tp215
a(g209
I0
g212
tp216
ag215
ag211
ag213
a(g209
I0
g210
tp217
ag213
a(S'p1'
p218
I0
g212
tp219
a(g218
I0
g212
tp220
ag220
a(g218
I0
g212
tp221
ag221
ag221
a(g218
I0
g210
tp222
a(g218
I0
g214
tp223
a(g218
I0
g210
tp224
ag223
a(g218
I0
g212
tp225
ag222
a(g209
I0
g210
tp226
a(g209
I0
g210
tp227
ag213
ag215
a(g209
I0
g214
tp228
a(g209
I0
g214
tp229
ag216
ag219
ag222
ag223
a(g218
I0
g214
tp230
ag224
a(S'p2'
p231
I0
g210
tp232
a(g231
I0
g210
tp233
ag233
a(g231
I0
g214
tp234
a(g231
I0
g214
tp235
a(g231
I0
g212
tp236
a(g231
I0
g210
tp237
a(g231
I0
g212
tp238
a(S'p3'
p239
I0
g212
tp240
a(g239
I0
g212
tp241
ag241
a(g239
I0
g214
tp242
a(g239
I0
g214
tp243
ag243
a(g239
I0
g214
tp244
a(g239
I0
g210
tp245
a(S'p4'
p246
I0
g210
tp247
asS's'
p248
(lp249
(g209
I0
g22
tp250
ag211
ag213
ag215
ag216
ag215
ag211
ag213
ag217
ag213
ag219
ag220
ag220
ag221
ag221
ag221
ag222
ag223
ag224
ag223
ag225
ag222
ag226
ag227
ag213
ag215
ag228
ag229
ag216
ag219
ag222
ag223
ag230
ag224
ag232
ag233
ag233
ag234
ag235
ag236
ag237
ag238
ag240
ag241
ag241
ag242
ag243
ag243
ag244
ag245
asS'ui'
p251
(lp252
S'hp'
p253
aS'hs'
p254
ag207
ag254
ag254
ag253
ag253
ag254
ag253
ag207
aS'ss'
p255
ag255
ag253
ag254
ag207
ag254
ag254
ag253
ag254
ag254
ag255
ag253
ag253
ag253
ag255
ag254
ag254
ag254
ag255
ag254
ag254
ag207
ag207
ag255
ag207
ag254
ag254
ag254
ag254
ag254
ag253
ag255
ag255
ag255
ag254
ag254
ag207
ag253
ag253
ag207
asS'um_before'
p256
(lp257
g253
ag253
ag253
ag254
ag253
ag253
ag253
ag254
ag253
ag255
ag255
ag255
ag207
ag207
ag207
ag254
ag254
ag253
ag254
ag254
ag254
ag255
ag255
ag253
ag253
ag255
ag207
ag254
ag255
ag254
ag254
ag255
ag253
ag207
ag207
ag207
ag254
ag207
ag254
ag254
ag253
ag255
ag255
ag255
ag253
ag207
ag207
ag255
ag253
ag207
asS'um_after'
p258
(lp259
g253
ag253
ag253
ag254
ag253
ag253
ag253
ag254
ag253
ag255
ag255
ag255
ag207
ag207
ag207
ag254
ag254
ag253
ag254
ag254
ag254
ag255
ag255
ag253
ag253
ag255
ag207
ag254
ag255
ag254
ag254
ag255
ag253
ag207
ag207
ag207
ag254
ag207
ag254
ag254
ag253
ag255
ag255
ag255
ag253
ag207
ag207
ag255
ag253
ag207
asS'is_normalized_entropy_less_than_threshold'
p260
(lp261
g50
(g51
(S'b1'
p262
I0
I1
tp263
Rp264
(I3
S'|'
p265
NNNI-1
I-1
I0
tp266
bS'\x00'
p267
tp268
Rp269
ag269
ag269
ag50
(g264
S'\x01'
p270
tp271
Rp272
ag269
ag269
ag269
ag269
ag269
ag272
ag269
ag269
ag269
ag269
ag269
ag269
ag272
ag269
ag272
ag269
ag269
ag269
ag269
ag269
ag269
ag269
ag269
ag272
ag272
ag269
ag272
ag269
ag269
ag269
ag269
ag269
ag269
ag269
ag272
ag269
ag269
ag272
ag269
ag269
ag269
ag269
ag269
ag269
ag269
ag269
asaa(lp273
S'index'
p274
aI113456
aatp275
Rp276
.