ccollections
OrderedDict
p0
((lp1
(lp2
S'combination_dict'
p3
ag0
((lp4
(lp5
S'r_to_g_config'
p6
aS'br'
p7
aa(lp8
S'num_turns'
p9
aI3
aa(lp10
S'start_direction'
p11
acutils_ms
StartDirection
p12
(I1
tp13
Rp14
aa(lp15
S'assistance_type'
p16
acutils_ms
AssistanceType
p17
(I1
tp18
Rp19
aa(lp20
S'start_mode'
p21
aS'x'
p22
aa(lp23
S'ui_given_a_noise'
p24
aF0.5
aa(lp25
S'um_given_ui_noise'
p26
aF0.1
aa(lp27
S'entropy_threshold'
p28
aF0.7
aatp29
Rp30
aa(lp31
S'data'
p32
accollections
defaultdict
p33
(c__builtin__
list
p34
tp35
Rp36
S'a'
p37
(lp38
S'mode_r'
p39
aS'mode_l'
p40
ag40
aS'move_n'
p41
ag39
ag39
aS'move_p'
p42
ag40
ag39
ag42
ag40
ag39
ag40
ag40
ag41
ag40
ag40
ag40
ag40
ag40
ag40
ag42
asS'assistance_match_with_ground_truth'
p43
(lp44
I00
aI00
aI01
aI01
aI00
aI01
aI00
aI00
aI01
aI00
aI00
aI00
aI00
aI01
aI01
aI00
aI00
aI00
aI00
aI00
aI01
aI01
asS'is_u_intended_equals_um'
p45
(lp46
I01
aI01
aI01
aI01
aI01
aI01
aI01
aI01
aI01
aI01
aI01
aI01
aI01
aI01
aI01
aI01
aI01
aI01
aI01
aI01
aI01
aI00
asS'total_steps'
p47
I22
sS'normalized_h_of_p_ui_given_um'
p48
(lp49
cnumpy.core.multiarray
scalar
p50
(cnumpy
dtype
p51
(S'f8'
p52
I0
I1
tp53
Rp54
(I3
S'<'
p55
NNNI-1
I-1
I0
tp56
bS'\xd0=\xa4\x94Z\xa4\xe0?'
p57
tp58
Rp59
ag50
(g54
S'\x83L\x1a\xa3};\xdc?'
p60
tp61
Rp62
ag50
(g54
S'\xcco\xcdu\x8c\x10\xc1?'
p63
tp64
Rp65
ag50
(g54
S'1\xd7\x94QB%\xb6?'
p66
tp67
Rp68
ag50
(g54
S'\x91\xac\x1c\x13\xd1\x1d\xda?'
p69
tp70
Rp71
ag50
(g54
S'\\\x9b\xe9\x86w%\xc5?'
p72
tp73
Rp74
ag50
(g54
S';\n\xfd\x86G\x9e\xe0?'
p75
tp76
Rp77
ag50
(g54
S'\xf6\xd5\xce|}\x18\xe1?'
p78
tp79
Rp80
ag50
(g54
S'\\\x9b\xe9\x86w%\xc5?'
p81
tp82
Rp83
ag50
(g54
S';\n\xfd\x86G\x9e\xe0?'
p84
tp85
Rp86
ag50
(g54
S'\xa4\x1f\x9ez\t\xd8\xda?'
p87
tp88
Rp89
ag50
(g54
S'\xd0=\xa4\x94Z\xa4\xe0?'
p90
tp91
Rp92
ag50
(g54
S'\xa4\x1f\x9ez\t\xd8\xda?'
p93
tp94
Rp95
ag50
(g54
S'\xcco\xcdu\x8c\x10\xc1?'
p96
tp97
Rp98
ag50
(g54
S'1\xd7\x94QB%\xb6?'
p99
tp100
Rp101
ag50
(g54
S'\xa4\x1f\x9ez\t\xd8\xda?'
p102
tp103
Rp104
ag50
(g54
S'\xa4\x1f\x9ez\t\xd8\xda?'
p105
tp106
Rp107
ag50
(g54
S'\x83L\x1a\xa3};\xdc?'
p108
tp109
Rp110
ag50
(g54
S'\xa4\x1f\x9ez\t\xd8\xda?'
p111
tp112
Rp113
ag50
(g54
S'\x83L\x1a\xa3};\xdc?'
p114
tp115
Rp116
ag50
(g54
S'\xcco\xcdu\x8c\x10\xc1?'
p117
tp118
Rp119
ag50
(g54
S'\xaa\xc8\x9c\xf3\x97\xa0\xe4?'
p120
tp121
Rp122
asS'sp'
p123
(lp124
(S'p0'
p125
I0
S't'
p126
tp127
a(g125
I0
g126
tp128
a(g125
I0
S'y'
p129
tp130
a(S'p1'
p131
I0
g129
tp132
a(g131
I0
g129
tp133
a(g131
I0
g126
tp134
a(g131
I0
S'x'
p135
tp136
a(g131
I0
g129
tp137
ag134
ag136
a(S'p2'
p138
I0
g135
tp139
a(g138
I0
g126
tp140
a(g138
I0
g126
tp141
a(g138
I0
g129
tp142
a(S'p3'
p143
I0
g129
tp144
a(g143
I0
g129
tp145
ag145
a(g143
I0
g129
tp146
ag145
ag146
a(g143
I0
g135
tp147
a(S'p4'
p148
I0
g135
tp149
asS's'
p150
(lp151
(g125
I0
g22
tp152
ag127
ag128
ag130
ag132
ag133
ag134
ag136
ag137
ag134
ag136
ag139
ag140
ag141
ag142
ag144
ag145
ag145
ag146
ag145
ag146
ag147
asS'ui'
p153
(lp154
S'hs'
p155
aS'ss'
p156
ag155
ag156
ag123
aS'hp'
p157
ag123
ag157
ag157
ag157
ag123
ag155
ag123
ag155
ag156
ag123
ag156
ag156
ag156
ag156
ag155
ag155
asS'um_before'
p158
(lp159
g155
ag156
ag155
ag156
ag123
ag157
ag157
ag157
ag157
ag157
ag123
ag155
ag123
ag155
ag156
ag123
ag123
ag156
ag123
ag156
ag155
ag155
asS'um_after'
p160
(lp161
g155
ag156
ag155
ag156
ag123
ag157
ag157
ag157
ag157
ag157
ag123
ag155
ag123
ag155
ag156
ag123
ag123
ag156
ag123
ag156
ag155
ag123
asS'is_normalized_entropy_less_than_threshold'
p162
(lp163
g50
(g51
(S'b1'
p164
I0
I1
tp165
Rp166
(I3
S'|'
p167
NNNI-1
I-1
I0
tp168
bS'\x01'
p169
tp170
Rp171
ag171
ag171
ag171
ag171
ag171
ag171
ag171
ag171
ag171
ag171
ag171
ag171
ag171
ag171
ag171
ag171
ag171
ag171
ag171
ag171
ag171
asaa(lp172
S'index'
p173
aI112424
aatp174
Rp175
.