ccollections
OrderedDict
p0
((lp1
(lp2
S'combination_dict'
p3
ag0
((lp4
(lp5
S'r_to_g_config'
p6
aS'tl'
p7
aa(lp8
S'num_turns'
p9
aI2
aa(lp10
S'start_direction'
p11
acutils_ms
StartDirection
p12
(I1
tp13
Rp14
aa(lp15
S'assistance_type'
p16
acutils_ms
AssistanceType
p17
(I2
tp18
Rp19
aa(lp20
S'start_mode'
p21
aS't'
p22
aa(lp23
S'ui_given_a_noise'
p24
aF0.7
aa(lp25
S'um_given_ui_noise'
p26
aF0.7
aa(lp27
S'entropy_threshold'
p28
aF0.5
aatp29
Rp30
aa(lp31
S'data'
p32
accollections
defaultdict
p33
(c__builtin__
list
p34
tp35
Rp36
S'a'
p37
(lp38
S'mode_l'
p39
aS'mode_r'
p40
aS'move_p'
p41
ag40
ag40
ag40
ag41
ag39
ag40
ag41
ag41
ag41
ag40
ag40
ag41
ag41
ag39
ag41
ag39
ag40
ag40
ag41
ag39
ag40
ag39
ag40
ag40
ag40
ag41
ag40
ag40
ag39
ag39
ag41
ag39
ag41
ag39
ag40
ag40
ag40
ag39
ag39
ag39
ag39
ag41
ag41
ag40
ag40
ag41
ag39
ag40
ag40
ag40
ag39
ag40
ag41
ag39
ag40
ag40
ag39
ag41
ag39
ag39
ag39
ag39
ag41
ag40
ag40
ag40
ag41
ag39
ag39
ag40
ag40
ag41
ag41
ag41
ag39
ag39
ag40
ag40
ag39
ag41
ag40
ag40
ag40
ag40
ag40
ag41
ag41
ag41
ag40
aS'move_n'
p42
ag40
ag39
ag39
ag40
ag40
ag39
ag39
ag41
asS'assistance_match_with_ground_truth'
p43
(lp44
I00
aI01
aI00
aI00
aI00
aI01
aI00
aI00
aI01
aI00
aI00
aI00
aI00
aI01
aI00
aI00
aI01
aI00
aI00
aI00
aI01
aI00
aI00
aI00
aI00
aI00
aI00
aI01
aI00
aI00
aI00
aI00
aI01
aI00
aI01
aI00
aI00
aI00
aI00
aI00
aI00
aI00
aI00
aI01
aI00
aI00
aI00
aI01
aI00
aI00
aI00
aI00
aI00
aI00
aI01
aI00
aI00
aI00
aI00
aI01
aI00
aI00
aI00
aI00
aI01
aI00
aI00
aI00
aI01
aI00
aI00
aI00
aI00
aI01
aI00
aI00
aI00
aI00
aI00
aI00
aI00
aI01
aI01
aI00
aI00
aI00
aI00
aI01
aI00
aI00
aI01
aI01
aI01
aI00
aI00
aI00
aI00
aI00
aI00
aI01
aI01
asS'is_u_intended_equals_um'
p45
(lp46
I01
aI01
aI01
aI01
aI01
aI01
aI01
aI01
aI01
aI01
aI01
aI01
aI01
aI01
aI01
aI01
aI01
aI01
aI01
aI01
aI01
aI01
aI01
aI01
aI01
aI01
aI01
aI01
aI01
aI01
aI01
aI01
aI01
aI01
aI01
aI01
aI01
aI01
aI01
aI01
aI01
aI01
aI01
aI01
aI01
aI01
aI01
aI01
aI01
aI01
aI01
aI01
aI01
aI01
aI01
aI01
aI01
aI01
aI01
aI01
aI01
aI01
aI01
aI01
aI01
aI01
aI01
aI01
aI01
aI01
aI01
aI01
aI01
aI01
aI01
aI01
aI01
aI01
aI01
aI01
aI01
aI01
aI01
aI01
aI01
aI01
aI01
aI01
aI01
aI01
aI01
aI01
aI01
aI01
aI01
aI01
aI01
aI01
aI01
aI01
aI01
asS'total_steps'
p47
I101
sS'normalized_h_of_p_ui_given_um'
p48
(lp49
cnumpy.core.multiarray
scalar
p50
(cnumpy
dtype
p51
(S'f8'
p52
I0
I1
tp53
Rp54
(I3
S'<'
p55
NNNI-1
I-1
I0
tp56
bS'h\xf1e\xc5\x91\x8a\xe6?'
p57
tp58
Rp59
ag59
ag59
ag59
ag59
ag59
ag59
ag59
ag59
ag59
ag59
ag59
ag59
ag59
ag59
ag59
ag59
ag59
ag59
ag59
ag59
ag59
ag59
ag59
ag59
ag59
ag59
ag59
ag59
ag59
ag59
ag59
ag59
ag59
ag59
ag59
ag59
ag59
ag59
ag59
ag59
ag59
ag59
ag59
ag59
ag59
ag59
ag59
ag59
ag59
ag59
ag59
ag59
ag59
ag59
ag59
ag59
ag59
ag59
ag59
ag59
ag59
ag59
ag59
ag59
ag59
ag59
ag59
ag59
ag59
ag59
ag59
ag59
ag59
ag59
ag59
ag59
ag59
ag59
ag59
ag59
ag59
ag59
ag59
ag59
ag59
ag59
ag59
ag59
ag59
ag59
ag59
ag59
ag59
ag59
ag59
ag59
ag59
ag59
ag59
ag59
asS'sp'
p60
(lp61
(S'p0'
p62
I0
S'x'
p63
tp64
a(g62
I0
S'y'
p65
tp66
a(g62
I0
g63
tp67
a(g62
I0
g63
tp68
a(g62
I0
g63
tp69
ag66
a(g62
I0
S't'
p70
tp71
ag64
ag66
a(g62
I0
g65
tp72
ag72
ag67
ag68
ag66
ag72
ag71
a(g62
I0
g65
tp73
ag71
ag64
ag68
ag66
ag71
ag64
a(g62
I0
g70
tp74
ag64
ag68
ag68
ag66
ag67
ag68
ag74
a(g62
I0
g70
tp75
ag73
ag71
ag73
ag71
ag64
ag69
ag68
ag74
a(g62
I0
g70
tp76
ag76
ag75
ag73
ag72
ag67
ag69
ag66
ag71
ag64
ag68
ag69
ag74
ag64
ag66
ag71
ag64
ag68
ag74
ag73
ag71
ag76
ag75
ag76
ag73
ag67
ag68
ag68
ag66
ag71
ag75
ag64
ag68
ag66
ag72
ag72
ag71
ag75
ag64
ag68
ag74
ag73
a(S'p1'
p77
I0
g65
tp78
a(g77
I0
g65
tp79
a(g77
I0
g65
tp80
ag80
ag80
a(g77
I0
g70
tp81
a(g77
I0
g70
tp82
ag82
a(g77
F1.5707963267948966
g70
tp83
a(g77
F1.5707963267948966
g63
tp84
a(S'p2'
p85
F1.5707963267948966
g63
tp86
a(g85
F1.5707963267948966
g70
tp87
a(g85
F1.5707963267948966
g70
tp88
a(g85
F1.5707963267948966
g63
tp89
a(g85
F1.5707963267948966
g63
tp90
ag87
a(g85
F1.5707963267948966
g70
tp91
a(g85
F1.5707963267948966
g65
tp92
a(S'p3'
p93
F1.5707963267948966
g65
tp94
asS's'
p95
(lp96
(g62
I0
g22
tp97
ag64
ag66
ag67
ag68
ag69
ag66
ag71
ag64
ag66
ag72
ag72
ag67
ag68
ag66
ag72
ag71
ag73
ag71
ag64
ag68
ag66
ag71
ag64
ag74
ag64
ag68
ag68
ag66
ag67
ag68
ag74
ag75
ag73
ag71
ag73
ag71
ag64
ag69
ag68
ag74
ag76
ag76
ag75
ag73
ag72
ag67
ag69
ag66
ag71
ag64
ag68
ag69
ag74
ag64
ag66
ag71
ag64
ag68
ag74
ag73
ag71
ag76
ag75
ag76
ag73
ag67
ag68
ag68
ag66
ag71
ag75
ag64
ag68
ag66
ag72
ag72
ag71
ag75
ag64
ag68
ag74
ag73
ag78
ag79
ag80
ag80
ag80
ag81
ag82
ag82
ag83
ag84
ag86
ag87
ag88
ag89
ag90
ag87
ag91
ag92
asS'ui'
p98
(lp99
g60
aS'ss'
p100
aS'hs'
p101
ag60
ag60
aS'hp'
p102
ag102
ag101
ag60
ag60
ag60
ag60
ag60
ag60
ag102
ag60
ag101
ag102
ag102
ag102
ag102
ag102
ag102
ag102
ag101
ag102
ag60
ag102
ag101
ag60
ag101
ag101
ag60
ag100
ag101
ag102
ag100
ag60
ag60
ag101
ag60
ag102
ag101
ag101
ag100
ag60
ag60
ag60
ag102
ag101
ag60
ag102
ag101
ag102
ag102
ag102
ag101
ag60
ag102
ag102
ag100
ag101
ag101
ag60
ag101
ag102
ag60
ag102
ag102
ag102
ag101
ag102
ag60
ag102
ag101
ag101
ag102
ag100
ag60
ag102
ag60
ag101
ag60
ag60
ag102
ag60
ag60
ag102
ag101
ag100
ag60
ag60
ag102
ag101
ag60
ag101
ag60
ag60
ag101
ag102
ag60
asS'um_before'
p103
(lp104
g102
ag102
ag101
ag60
ag100
ag102
ag102
ag102
ag102
ag100
ag100
ag101
ag60
ag102
ag100
ag102
ag101
ag102
ag102
ag60
ag102
ag102
ag102
ag101
ag102
ag60
ag60
ag102
ag101
ag60
ag101
ag100
ag101
ag102
ag101
ag102
ag102
ag100
ag60
ag101
ag60
ag60
ag100
ag101
ag100
ag101
ag100
ag102
ag102
ag102
ag60
ag100
ag101
ag102
ag102
ag102
ag102
ag60
ag101
ag101
ag102
ag60
ag100
ag60
ag101
ag101
ag60
ag60
ag102
ag102
ag100
ag102
ag60
ag102
ag100
ag100
ag102
ag100
ag102
ag60
ag101
ag101
ag60
ag60
ag100
ag100
ag100
ag102
ag100
ag100
ag60
ag102
ag100
ag101
ag60
ag102
ag60
ag101
ag100
ag101
ag60
asS'um_after'
p105
(lp106
g102
ag102
ag101
ag60
ag100
ag102
ag102
ag102
ag102
ag100
ag100
ag101
ag60
ag102
ag100
ag102
ag101
ag102
ag102
ag60
ag102
ag102
ag102
ag101
ag102
ag60
ag60
ag102
ag101
ag60
ag101
ag100
ag101
ag102
ag101
ag102
ag102
ag100
ag60
ag101
ag60
ag60
ag100
ag101
ag100
ag101
ag100
ag102
ag102
ag102
ag60
ag100
ag101
ag102
ag102
ag102
ag102
ag60
ag101
ag101
ag102
ag60
ag100
ag60
ag101
ag101
ag60
ag60
ag102
ag102
ag100
ag102
ag60
ag102
ag100
ag100
ag102
ag100
ag102
ag60
ag101
ag101
ag60
ag60
ag100
ag100
ag100
ag102
ag100
ag100
ag60
ag102
ag100
ag101
ag60
ag102
ag60
ag101
ag100
ag101
ag60
asS'is_normalized_entropy_less_than_threshold'
p107
(lp108
g50
(g51
(S'b1'
p109
I0
I1
tp110
Rp111
(I3
S'|'
p112
NNNI-1
I-1
I0
tp113
bS'\x01'
p114
tp115
Rp116
ag116
ag116
ag116
ag116
ag116
ag116
ag116
ag116
ag116
ag116
ag116
ag116
ag116
ag116
ag116
ag116
ag116
ag116
ag116
ag116
ag116
ag116
ag116
ag116
ag116
ag116
ag116
ag116
ag116
ag116
ag116
ag116
ag116
ag116
ag116
ag116
ag116
ag116
ag116
ag116
ag116
ag116
ag116
ag116
ag116
ag116
ag116
ag116
ag116
ag116
ag116
ag116
ag116
ag116
ag116
ag116
ag116
ag116
ag116
ag116
ag116
ag116
ag116
ag116
ag116
ag116
ag116
ag116
ag116
ag116
ag116
ag116
ag116
ag116
ag116
ag116
ag116
ag116
ag116
ag116
ag116
ag116
ag116
ag116
ag116
ag116
ag116
ag116
ag116
ag116
ag116
ag116
ag116
ag116
ag116
ag116
ag116
ag116
ag116
ag116
asaa(lp117
S'index'
p118
aI47956
aatp119
Rp120
.