ccollections
OrderedDict
p0
((lp1
(lp2
S'combination_dict'
p3
ag0
((lp4
(lp5
S'r_to_g_config'
p6
aS'br'
p7
aa(lp8
S'num_turns'
p9
aI3
aa(lp10
S'start_direction'
p11
acutils_ms
StartDirection
p12
(I0
tp13
Rp14
aa(lp15
S'assistance_type'
p16
acutils_ms
AssistanceType
p17
(I0
tp18
Rp19
aa(lp20
S'start_mode'
p21
aS't'
p22
aa(lp23
S'ui_given_a_noise'
p24
aF0.5
aa(lp25
S'um_given_ui_noise'
p26
aF0.7
aa(lp27
S'entropy_threshold'
p28
aF0.8
aatp29
Rp30
aa(lp31
S'data'
p32
accollections
defaultdict
p33
(c__builtin__
list
p34
tp35
Rp36
S'a'
p37
(lp38
S'mode_r'
p39
aS'move_p'
p40
ag39
aS'mode_l'
p41
ag41
ag40
ag40
ag39
aS'move_n'
p42
ag41
ag41
ag39
ag39
ag39
ag40
ag41
ag40
ag41
ag41
ag40
ag39
ag42
ag41
ag41
ag42
ag41
ag41
ag39
ag39
ag41
ag39
ag39
ag41
ag41
ag39
ag41
ag40
ag40
ag39
ag39
ag42
ag41
ag39
ag42
ag41
ag39
ag42
ag41
ag42
ag39
ag42
ag41
ag39
ag39
ag40
ag41
ag41
ag40
ag39
ag39
ag41
ag42
ag39
ag39
ag42
ag41
ag39
ag39
ag39
ag40
ag39
ag42
ag41
ag42
ag41
ag40
ag39
ag39
ag40
ag41
ag40
ag41
ag41
ag39
ag41
ag39
ag41
ag39
ag42
asS'assistance_match_with_ground_truth'
p43
(lp44
I01
aI00
aI00
aI00
aI01
aI00
aI01
aI01
aI00
aI00
aI00
aI00
aI00
aI01
aI00
aI01
aI00
aI00
aI01
aI01
aI01
aI00
aI00
aI01
aI00
aI00
aI00
aI00
aI00
aI00
aI00
aI00
aI00
aI00
aI00
aI01
aI00
aI01
aI00
aI01
aI00
aI00
aI01
aI00
aI00
aI01
aI00
aI01
aI00
aI01
aI00
aI00
aI00
aI01
aI00
aI00
aI01
aI01
aI00
aI00
aI01
aI00
aI00
aI01
aI00
aI00
aI00
aI00
aI01
aI01
aI01
aI00
aI01
aI01
aI01
aI00
aI00
aI01
aI01
aI01
aI01
aI00
aI00
aI00
aI00
aI00
aI00
aI01
aI01
asS'is_u_intended_equals_um'
p45
(lp46
I01
aI01
aI01
aI00
aI01
aI00
aI01
aI01
aI01
aI00
aI01
aI01
aI01
aI01
aI01
aI01
aI01
aI00
aI01
aI01
aI01
aI00
aI00
aI01
aI01
aI00
aI01
aI01
aI01
aI01
aI01
aI01
aI00
aI01
aI01
aI01
aI00
aI01
aI00
aI01
aI00
aI01
aI01
aI00
aI01
aI01
aI00
aI01
aI01
aI01
aI01
aI01
aI01
aI01
aI01
aI00
aI01
aI01
aI00
aI01
aI01
aI01
aI01
aI01
aI01
aI01
aI01
aI00
aI01
aI01
aI01
aI00
aI01
aI01
aI01
aI01
aI00
aI01
aI01
aI01
aI01
aI00
aI01
aI01
aI01
aI01
aI01
aI01
aI01
asS'total_steps'
p47
I89
sS'normalized_h_of_p_ui_given_um'
p48
(lp49
cnumpy.core.multiarray
scalar
p50
(cnumpy
dtype
p51
(S'f8'
p52
I0
I1
tp53
Rp54
(I3
S'<'
p55
NNNI-1
I-1
I0
tp56
bS'0X\x00/\x94\xcd\xdc?'
p57
tp58
Rp59
ag50
(g54
S'\xb7Ic\x1f\xa4\xb2\xe6?'
p60
tp61
Rp62
ag50
(g54
S'\xdaG\x1c~\x88\xc7\xe7?'
p63
tp64
Rp65
ag50
(g54
S'\xf8\x97\xea"\x1e\xd2\xe2?'
p66
tp67
Rp68
ag50
(g54
S'_\xa9\x01\x06\x03\xec\xd7?'
p69
tp70
Rp71
ag50
(g54
S'\xb7)Ou9\x11\xea?'
p72
tp73
Rp74
ag50
(g54
S'D\xd0\xb6 F\xef\xd5?'
p75
tp76
Rp77
ag50
(g54
S'0X\x00/\x94\xcd\xdc?'
p78
tp79
Rp80
ag50
(g54
S'$(\x0b\x83?f\xe9?'
p81
tp82
Rp83
ag50
(g54
S'\xf8\x97\xea"\x1e\xd2\xe2?'
p84
tp85
Rp86
ag50
(g54
S'\x86\x8a\x1e}\xbe\xb2\xe7?'
p87
tp88
Rp89
ag50
(g54
S'\xfd\x91\xac\xff<c\xe0?'
p90
tp91
Rp92
ag50
(g54
S'\xfd\x91\xac\xff<c\xe0?'
p93
tp94
Rp95
ag50
(g54
S'0X\x00/\x94\xcd\xdc?'
p96
tp97
Rp98
ag50
(g54
S'<\xd4\x8d\xab$\xbf\xec?'
p99
tp100
Rp101
ag50
(g54
S'_\xa9\x01\x06\x03\xec\xd7?'
p102
tp103
Rp104
ag50
(g54
S'<\xd4\x8d\xab$\xbf\xec?'
p105
tp106
Rp107
ag50
(g54
S'\xa9t2#\x83]\xef?'
p108
tp109
Rp110
ag50
(g54
S'_\xa9\x01\x06\x03\xec\xd7?'
p111
tp112
Rp113
ag50
(g54
S'D\xd0\xb6 F\xef\xd5?'
p114
tp115
Rp116
ag50
(g54
S'0X\x00/\x94\xcd\xdc?'
p117
tp118
Rp119
ag50
(g54
S'^?0\xe8\x15\xe5\xea?'
p120
tp121
Rp122
ag50
(g54
S'\xa9t2#\x83]\xef?'
p123
tp124
Rp125
ag50
(g54
S'_\xa9\x01\x06\x03\xec\xd7?'
p126
tp127
Rp128
ag50
(g54
S'$(\x0b\x83?f\xe9?'
p129
tp130
Rp131
ag50
(g54
S'\xa9t2#\x83]\xef?'
p132
tp133
Rp134
ag50
(g54
S'\x86\x8a\x1e}\xbe\xb2\xe7?'
p135
tp136
Rp137
ag50
(g54
S'\xfd\x91\xac\xff<c\xe0?'
p138
tp139
Rp140
ag50
(g54
S'\xdaG\x1c~\x88\xc7\xe7?'
p141
tp142
Rp143
ag50
(g54
S'\x86\x8a\x1e}\xbe\xb2\xe7?'
p144
tp145
Rp146
ag50
(g54
S'\xfd\x91\xac\xff<c\xe0?'
p147
tp148
Rp149
ag50
(g54
S'\xdaG\x1c~\x88\xc7\xe7?'
p150
tp151
Rp152
ag50
(g54
S'\xa9t2#\x83]\xef?'
p153
tp154
Rp155
ag50
(g54
S'\x86\x8a\x1e}\xbe\xb2\xe7?'
p156
tp157
Rp158
ag50
(g54
S'\xdaG\x1c~\x88\xc7\xe7?'
p159
tp160
Rp161
ag50
(g54
S'_\xa9\x01\x06\x03\xec\xd7?'
p162
tp163
Rp164
ag50
(g54
S'\xb7)Ou9\x11\xea?'
p165
tp166
Rp167
ag50
(g54
S'D\xd0\xb6 F\xef\xd5?'
p168
tp169
Rp170
ag50
(g54
S'\\5\xd6\n\x1d\xac\xe6?'
p171
tp172
Rp173
ag50
(g54
S'0X\x00/\x94\xcd\xdc?'
p174
tp175
Rp176
ag50
(g54
S'^?0\xe8\x15\xe5\xea?'
p177
tp178
Rp179
ag50
(g54
S'\x86\x8a\x1e}\xbe\xb2\xe7?'
p180
tp181
Rp182
ag50
(g54
S'0X\x00/\x94\xcd\xdc?'
p183
tp184
Rp185
ag50
(g54
S'^?0\xe8\x15\xe5\xea?'
p186
tp187
Rp188
ag50
(g54
S'\x86\x8a\x1e}\xbe\xb2\xe7?'
p189
tp190
Rp191
ag50
(g54
S'0X\x00/\x94\xcd\xdc?'
p192
tp193
Rp194
ag50
(g54
S'^?0\xe8\x15\xe5\xea?'
p195
tp196
Rp197
ag50
(g54
S'_\xa9\x01\x06\x03\xec\xd7?'
p198
tp199
Rp200
ag50
(g54
S'\xfaJ\x9b\xab\xe0m\xe9?'
p201
tp202
Rp203
ag50
(g54
S'0X\x00/\x94\xcd\xdc?'
p204
tp205
Rp206
ag50
(g54
S'$(\x0b\x83?f\xe9?'
p207
tp208
Rp209
ag50
(g54
S'\x86\x8a\x1e}\xbe\xb2\xe7?'
p210
tp211
Rp212
ag50
(g54
S'\xfd\x91\xac\xff<c\xe0?'
p213
tp214
Rp215
ag50
(g54
S'0X\x00/\x94\xcd\xdc?'
p216
tp217
Rp218
ag50
(g54
S'<\xd4\x8d\xab$\xbf\xec?'
p219
tp220
Rp221
ag50
(g54
S'\xa9t2#\x83]\xef?'
p222
tp223
Rp224
ag50
(g54
S'_\xa9\x01\x06\x03\xec\xd7?'
p225
tp226
Rp227
ag50
(g54
S'D\xd0\xb6 F\xef\xd5?'
p228
tp229
Rp230
ag50
(g54
S'\\5\xd6\n\x1d\xac\xe6?'
p231
tp232
Rp233
ag50
(g54
S'\xdaG\x1c~\x88\xc7\xe7?'
p234
tp235
Rp236
ag50
(g54
S'_\xa9\x01\x06\x03\xec\xd7?'
p237
tp238
Rp239
ag50
(g54
S'\xfaJ\x9b\xab\xe0m\xe9?'
p240
tp241
Rp242
ag50
(g54
S'\xfd\x91\xac\xff<c\xe0?'
p243
tp244
Rp245
ag50
(g54
S'0X\x00/\x94\xcd\xdc?'
p246
tp247
Rp248
ag50
(g54
S'$(\x0b\x83?f\xe9?'
p249
tp250
Rp251
ag50
(g54
S'\x86\x8a\x1e}\xbe\xb2\xe7?'
p252
tp253
Rp254
ag50
(g54
S'\xfd\x91\xac\xff<c\xe0?'
p255
tp256
Rp257
ag50
(g54
S'\\5\xd6\n\x1d\xac\xe6?'
p258
tp259
Rp260
ag50
(g54
S'0X\x00/\x94\xcd\xdc?'
p261
tp262
Rp263
ag50
(g54
S'D\xd0\xb6 F\xef\xd5?'
p264
tp265
Rp266
ag50
(g54
S'0X\x00/\x94\xcd\xdc?'
p267
tp268
Rp269
ag50
(g54
S'^?0\xe8\x15\xe5\xea?'
p270
tp271
Rp272
ag50
(g54
S'_\xa9\x01\x06\x03\xec\xd7?'
p273
tp274
Rp275
ag50
(g54
S'\x9cg\xdfi\xfc\xf7\xdc?'
p276
tp277
Rp278
ag50
(g54
S'_\xa9\x01\x06\x03\xec\xd7?'
p279
tp280
Rp281
ag50
(g54
S'\xb7Ic\x1f\xa4\xb2\xe6?'
p282
tp283
Rp284
ag50
(g54
S'\\5\xd6\n\x1d\xac\xe6?'
p285
tp286
Rp287
ag50
(g54
S'0X\x00/\x94\xcd\xdc?'
p288
tp289
Rp290
ag50
(g54
S'D\xd0\xb6 F\xef\xd5?'
p291
tp292
Rp293
ag50
(g54
S'_\xa9\x01\x06\x03\xec\xd7?'
p294
tp295
Rp296
ag50
(g54
S'D\xd0\xb6 F\xef\xd5?'
p297
tp298
Rp299
ag50
(g54
S'\xa9t2#\x83]\xef?'
p300
tp301
Rp302
ag50
(g54
S'\x86\x8a\x1e}\xbe\xb2\xe7?'
p303
tp304
Rp305
ag50
(g54
S'\xdaG\x1c~\x88\xc7\xe7?'
p306
tp307
Rp308
ag50
(g54
S'\x86\x8a\x1e}\xbe\xb2\xe7?'
p309
tp310
Rp311
ag50
(g54
S'\xdaG\x1c~\x88\xc7\xe7?'
p312
tp313
Rp314
ag50
(g54
S'\x86\x8a\x1e}\xbe\xb2\xe7?'
p315
tp316
Rp317
ag50
(g54
S'0X\x00/\x94\xcd\xdc?'
p318
tp319
Rp320
ag50
(g54
S'\x9cg\xdfi\xfc\xf7\xdc?'
p321
tp322
Rp323
asS'sp'
p324
(lp325
(S'p0'
p326
I0
S'x'
p327
tp328
a(g326
I0
S't'
p329
tp330
a(g326
I0
S'y'
p331
tp332
ag332
a(g326
I0
g327
tp333
a(g326
I0
g327
tp334
a(S'p1'
p335
I0
g327
tp336
a(g335
I0
g331
tp337
a(g326
I0
g331
tp338
ag338
a(g326
I0
g329
tp339
a(g326
I0
g329
tp340
ag340
ag328
a(g326
I0
g331
tp341
ag333
ag341
a(g326
I0
g331
tp342
ag333
ag336
ag337
a(g335
I0
g329
tp343
a(g335
I0
g329
tp344
a(g335
I0
g331
tp345
ag338
ag342
ag339
ag340
ag332
ag339
ag340
ag332
ag342
ag339
ag332
ag333
ag334
ag336
ag336
ag337
ag343
a(g335
I0
g327
tp346
ag337
ag343
ag346
ag337
ag343
ag345
a(g335
I0
g327
tp347
ag337
ag338
ag339
ag340
ag328
ag341
ag342
ag333
ag336
ag336
a(g335
I0
g329
tp348
ag345
ag347
a(g335
I0
g327
tp349
ag337
ag338
ag339
ag340
ag340
ag328
ag336
ag337
ag343
ag345
a(S'p2'
p350
I0
g331
tp351
a(g350
I0
g327
tp352
a(g350
I0
g329
tp353
ag353
a(g350
I0
g327
tp354
a(S'p3'
p355
I0
g327
tp356
a(g355
I0
g329
tp357
a(g355
F1.5707963267948966
g329
tp358
a(g355
F1.5707963267948966
g329
tp359
a(g355
F1.5707963267948966
g327
tp360
a(g355
F1.5707963267948966
g329
tp361
ag360
ag361
ag360
a(g355
F1.5707963267948966
g331
tp362
a(S'p4'
p363
F1.5707963267948966
g331
tp364
asS's'
p365
(lp366
(g326
I0
g22
tp367
ag328
ag330
ag332
ag332
ag333
ag334
ag336
ag337
ag338
ag338
ag339
ag340
ag340
ag328
ag341
ag333
ag341
ag342
ag333
ag336
ag337
ag343
ag344
ag345
ag338
ag342
ag339
ag340
ag332
ag339
ag340
ag332
ag342
ag339
ag332
ag333
ag334
ag336
ag336
ag337
ag343
ag346
ag337
ag343
ag346
ag337
ag343
ag345
ag347
ag337
ag338
ag339
ag340
ag328
ag341
ag342
ag333
ag336
ag336
ag348
ag345
ag347
ag349
ag337
ag338
ag339
ag340
ag340
ag328
ag336
ag337
ag343
ag345
ag351
ag352
ag353
ag353
ag354
ag356
ag357
ag358
ag359
ag360
ag361
ag360
ag361
ag360
ag362
asS'ui'
p368
(lp369
S'hp'
p370
ag324
aS'hs'
p371
ag371
ag371
ag324
ag324
ag371
aS'ss'
p372
ag371
ag370
ag372
ag371
ag370
ag370
ag371
ag371
ag324
ag371
ag324
ag370
ag372
ag324
ag371
ag372
ag324
ag370
ag372
ag371
ag370
ag372
ag371
ag372
ag370
ag370
ag371
ag372
ag324
ag372
ag370
ag370
ag370
ag370
ag371
ag370
ag370
ag372
ag371
ag370
ag370
ag324
ag370
ag371
ag372
ag372
ag370
ag371
ag324
ag324
ag371
ag371
ag371
ag372
ag370
ag324
ag370
ag372
ag370
ag370
ag324
ag370
ag370
ag371
ag372
ag371
ag324
ag370
ag370
ag324
ag371
ag324
ag324
ag370
ag371
ag372
ag370
ag371
ag372
ag372
asS'um_before'
p373
(lp374
g370
ag371
ag371
ag372
ag371
ag372
ag324
ag370
ag324
ag372
ag370
ag372
ag372
ag370
ag370
ag371
ag370
ag324
ag371
ag324
ag370
ag370
ag324
ag371
ag324
ag324
ag370
ag372
ag371
ag370
ag372
ag371
ag324
ag370
ag371
ag371
ag372
ag324
ag324
ag370
ag370
ag370
ag370
ag370
ag370
ag370
ag370
ag371
ag371
ag370
ag324
ag370
ag372
ag370
ag370
ag324
ag371
ag324
ag324
ag371
ag371
ag371
ag372
ag370
ag324
ag370
ag372
ag324
ag370
ag324
ag370
ag370
ag371
ag372
ag371
ag371
ag324
ag370
ag324
ag371
ag324
ag324
ag370
ag371
ag370
ag371
ag370
ag370
ag372
asS'um_after'
p375
(lp376
g370
ag371
ag371
aNag371
ag372
ag324
ag370
ag324
aNag370
ag372
ag372
ag370
ag370
ag371
ag370
ag324
ag371
ag324
ag370
ag370
ag324
ag371
ag324
ag324
ag370
ag372
ag371
ag370
ag372
ag371
ag324
ag370
ag371
ag371
ag372
ag324
aNag370
ag370
ag370
ag370
ag370
ag370
ag370
ag370
ag371
ag371
ag370
ag324
ag370
ag372
ag370
ag370
ag324
ag371
ag324
aNag371
ag371
ag371
ag372
ag370
ag324
ag370
ag372
aNag370
ag324
ag370
ag370
ag371
ag372
ag371
ag371
aNag370
ag324
ag371
ag324
ag324
ag370
ag371
ag370
ag371
ag370
ag370
ag372
asS'is_normalized_entropy_less_than_threshold'
p377
(lp378
g50
(g51
(S'b1'
p379
I0
I1
tp380
Rp381
(I3
S'|'
p382
NNNI-1
I-1
I0
tp383
bS'\x01'
p384
tp385
Rp386
ag386
ag386
ag386
ag386
ag50
(g381
S'\x00'
p387
tp388
Rp389
ag386
ag386
ag386
ag386
ag386
ag386
ag386
ag386
ag389
ag386
ag389
ag389
ag386
ag386
ag386
ag389
ag389
ag386
ag386
ag389
ag386
ag386
ag386
ag386
ag386
ag386
ag389
ag386
ag386
ag386
ag389
ag386
ag386
ag386
ag389
ag386
ag386
ag389
ag386
ag386
ag389
ag386
ag386
ag386
ag386
ag386
ag386
ag386
ag389
ag389
ag386
ag386
ag386
ag386
ag386
ag386
ag386
ag386
ag386
ag386
ag386
ag386
ag386
ag386
ag386
ag389
ag386
ag386
ag386
ag386
ag386
ag386
ag386
ag386
ag386
ag389
ag386
ag386
ag386
ag386
ag386
ag386
ag386
asaa(lp390
S'index'
p391
aI106185
aatp392
Rp393
.