ccollections
OrderedDict
p0
((lp1
(lp2
S'combination_dict'
p3
ag0
((lp4
(lp5
S'r_to_g_config'
p6
aS'br'
p7
aa(lp8
S'num_turns'
p9
aI3
aa(lp10
S'start_direction'
p11
acutils_ms
StartDirection
p12
(I1
tp13
Rp14
aa(lp15
S'assistance_type'
p16
acutils_ms
AssistanceType
p17
(I0
tp18
Rp19
aa(lp20
S'start_mode'
p21
aS't'
p22
aa(lp23
S'ui_given_a_noise'
p24
aF0.7
aa(lp25
S'um_given_ui_noise'
p26
aF0.3
aa(lp27
S'entropy_threshold'
p28
aF0.9
aatp29
Rp30
aa(lp31
S'data'
p32
accollections
defaultdict
p33
(c__builtin__
list
p34
tp35
Rp36
S'a'
p37
(lp38
S'mode_l'
p39
ag39
ag39
aS'move_n'
p40
aS'mode_r'
p41
ag41
aS'move_p'
p42
ag41
ag41
ag41
ag41
ag41
ag41
ag41
ag41
ag42
ag41
ag42
ag41
ag39
ag42
ag41
ag42
ag42
ag39
ag39
ag42
ag41
ag40
ag39
ag39
ag39
ag39
ag41
ag41
ag42
asS'assistance_match_with_ground_truth'
p43
(lp44
I00
aI00
aI01
aI01
aI00
aI01
aI00
aI00
aI00
aI00
aI00
aI00
aI00
aI00
aI01
aI00
aI01
aI01
aI00
aI01
aI00
aI01
aI00
aI00
aI00
aI01
aI01
aI01
aI01
aI00
aI00
aI00
aI00
aI00
aI01
aI01
asS'is_u_intended_equals_um'
p45
(lp46
I01
aI01
aI01
aI01
aI01
aI01
aI01
aI01
aI01
aI01
aI01
aI01
aI01
aI01
aI01
aI01
aI01
aI01
aI01
aI01
aI01
aI01
aI00
aI01
aI01
aI01
aI01
aI01
aI01
aI01
aI01
aI01
aI01
aI01
aI01
aI01
asS'total_steps'
p47
I36
sS'normalized_h_of_p_ui_given_um'
p48
(lp49
cnumpy.core.multiarray
scalar
p50
(cnumpy
dtype
p51
(S'f8'
p52
I0
I1
tp53
Rp54
(I3
S'<'
p55
NNNI-1
I-1
I0
tp56
bS'\xea-\x0cWrp\xe6?'
p57
tp58
Rp59
ag50
(g54
S'w\x9c ]\x01z\xe7?'
p60
tp61
Rp62
ag50
(g54
S'\xea\x92Be\x02\xaa\xd9?'
p63
tp64
Rp65
ag50
(g54
S'\x90v \xf5r\x8d\xdf?'
p66
tp67
Rp68
ag50
(g54
S'\xd2$\xb2J\xee\xcf\xd6?'
p69
tp70
Rp71
ag50
(g54
S'\xa3\xf4\x00\xef |\xd3?'
p72
tp73
Rp74
ag50
(g54
S"Z\xba\xbf\x05\xa7'\xd9?"
p75
tp76
Rp77
ag50
(g54
S'\xd2$\xb2J\xee\xcf\xd6?'
p78
tp79
Rp80
ag50
(g54
S'\xd2$\xb2J\xee\xcf\xd6?'
p81
tp82
Rp83
ag50
(g54
S'\x84\xc2\x02pX\xdc\xed?'
p84
tp85
Rp86
ag50
(g54
S'\xd2$\xb2J\xee\xcf\xd6?'
p87
tp88
Rp89
ag50
(g54
S'\xd2$\xb2J\xee\xcf\xd6?'
p90
tp91
Rp92
ag50
(g54
S'\xd2$\xb2J\xee\xcf\xd6?'
p93
tp94
Rp95
ag50
(g54
S'\xd2$\xb2J\xee\xcf\xd6?'
p96
tp97
Rp98
ag50
(g54
S'\xa3\xf4\x00\xef |\xd3?'
p99
tp100
Rp101
ag50
(g54
S"Z\xba\xbf\x05\xa7'\xd9?"
p102
tp103
Rp104
ag50
(g54
S'\xa3\xf4\x00\xef |\xd3?'
p105
tp106
Rp107
ag50
(g54
S'"\xd2{\xb7AA\xd0?'
p108
tp109
Rp110
ag50
(g54
S'\xf6\xc0\xc0\xec\xe5\xe2\xe5?'
p111
tp112
Rp113
ag50
(g54
S'\xea\x92Be\x02\xaa\xd9?'
p114
tp115
Rp116
ag50
(g54
S"Z\xba\xbf\x05\xa7'\xd9?"
p117
tp118
Rp119
ag50
(g54
S'\xa3\xf4\x00\xef |\xd3?'
p120
tp121
Rp122
ag50
(g54
S'\xca\x88\xf2x\xfb\xc7\xec?'
p123
tp124
Rp125
ag50
(g54
S'B\xf7\x8b\xcd\x19\x0b\xe1?'
p126
tp127
Rp128
ag50
(g54
S'w\x9c ]\x01z\xe7?'
p129
tp130
Rp131
ag50
(g54
S'\xea\x92Be\x02\xaa\xd9?'
p132
tp133
Rp134
ag50
(g54
S'"\xd2{\xb7AA\xd0?'
p135
tp136
Rp137
ag50
(g54
S'\xa3\xf4\x00\xef |\xd3?'
p138
tp139
Rp140
ag50
(g54
S'\x90v \xf5r\x8d\xdf?'
p141
tp142
Rp143
ag50
(g54
S'w\x9c ]\x01z\xe7?'
p144
tp145
Rp146
ag50
(g54
S'w\x9c ]\x01z\xe7?'
p147
tp148
Rp149
ag50
(g54
S'\xea-\x0cWrp\xe6?'
p150
tp151
Rp152
ag50
(g54
S'\x0e\x8fH\xf1W/\xe4?'
p153
tp154
Rp155
ag50
(g54
S'\xd2$\xb2J\xee\xcf\xd6?'
p156
tp157
Rp158
ag50
(g54
S'\xa3\xf4\x00\xef |\xd3?'
p159
tp160
Rp161
ag50
(g54
S'"\xd2{\xb7AA\xd0?'
p162
tp163
Rp164
asS'sp'
p165
(lp166
(S'p0'
p167
I0
S't'
p168
tp169
a(g167
I0
g168
tp170
a(g167
I0
S'y'
p171
tp172
a(S'p1'
p173
I0
g171
tp174
a(g173
I0
g171
tp175
a(g173
I0
g168
tp176
a(g173
I0
g171
tp177
ag175
ag175
a(g173
I0
g171
tp178
ag175
ag175
ag175
ag175
ag176
ag177
ag176
a(g173
F1.5707963267948966
g168
tp179
a(g173
F1.5707963267948966
g171
tp180
a(g173
F1.5707963267948966
S'x'
p181
tp182
a(g173
F1.5707963267948966
g168
tp183
a(g173
F1.5707963267948966
g181
tp184
ag184
a(g173
F1.5707963267948966
g171
tp185
a(g173
F1.5707963267948966
g171
tp186
ag182
a(S'p2'
p187
F1.5707963267948966
g181
tp188
a(g187
F1.5707963267948966
g171
tp189
a(S'p3'
p190
F1.5707963267948966
g171
tp191
a(g190
F1.5707963267948966
g171
tp192
ag192
a(g190
F1.5707963267948966
g171
tp193
a(g190
F1.5707963267948966
g168
tp194
a(g190
F1.5707963267948966
g168
tp195
a(g190
F1.5707963267948966
g181
tp196
a(S'p4'
p197
F1.5707963267948966
g181
tp198
asS's'
p199
(lp200
(g167
I0
g22
tp201
ag169
ag170
ag172
ag174
ag175
ag176
ag177
ag175
ag175
ag178
ag175
ag175
ag175
ag175
ag176
ag177
ag176
ag179
ag180
ag182
ag183
ag184
ag184
ag185
ag186
ag182
ag188
ag189
ag191
ag192
ag192
ag193
ag194
ag195
ag196
asS'ui'
p202
(lp203
g165
aS'ss'
p204
aS'hs'
p205
ag204
ag165
aS'hp'
p206
ag205
ag165
ag165
ag206
ag165
ag206
ag165
ag165
ag206
ag205
ag206
ag165
ag204
ag205
ag205
ag206
ag165
ag206
ag204
ag205
ag165
ag206
ag204
ag204
ag204
ag205
ag206
ag204
ag206
ag165
asS'um_before'
p207
(lp208
g165
ag204
ag205
ag204
ag165
ag206
ag205
ag165
ag165
ag204
ag165
ag165
ag165
ag165
ag206
ag205
ag206
ag165
ag205
ag205
ag205
ag206
ag204
ag206
ag204
ag205
ag165
ag206
ag204
ag204
ag204
ag165
ag206
ag165
ag206
ag165
asS'um_after'
p209
(lp210
g165
ag204
ag205
ag204
ag165
ag206
ag205
ag165
ag165
ag204
ag165
ag165
ag165
ag165
ag206
ag205
ag206
ag165
ag205
ag205
ag205
ag206
aNag206
ag204
ag205
ag165
ag206
ag204
ag204
ag204
ag165
ag206
ag165
ag206
ag165
asS'is_normalized_entropy_less_than_threshold'
p211
(lp212
g50
(g51
(S'b1'
p213
I0
I1
tp214
Rp215
(I3
S'|'
p216
NNNI-1
I-1
I0
tp217
bS'\x01'
p218
tp219
Rp220
ag220
ag220
ag220
ag220
ag220
ag220
ag220
ag220
ag50
(g215
S'\x00'
p221
tp222
Rp223
ag220
ag220
ag220
ag220
ag220
ag220
ag220
ag220
ag220
ag220
ag220
ag220
ag220
ag220
ag220
ag220
ag220
ag220
ag220
ag220
ag220
ag220
ag220
ag220
ag220
ag220
asaa(lp224
S'index'
p225
aI111895
aatp226
Rp227
.