ccollections
OrderedDict
p0
((lp1
(lp2
S'combination_dict'
p3
ag0
((lp4
(lp5
S'r_to_g_config'
p6
aS'tr'
p7
aa(lp8
S'num_turns'
p9
aI1
aa(lp10
S'start_direction'
p11
acutils_ms
StartDirection
p12
(I0
tp13
Rp14
aa(lp15
S'assistance_type'
p16
acutils_ms
AssistanceType
p17
(I0
tp18
Rp19
aa(lp20
S'start_mode'
p21
aS'y'
p22
aa(lp23
S'ui_given_a_noise'
p24
aF0.1
aa(lp25
S'um_given_ui_noise'
p26
aF0.5
aa(lp27
S'entropy_threshold'
p28
aF0.8
aatp29
Rp30
aa(lp31
S'data'
p32
accollections
defaultdict
p33
(c__builtin__
list
p34
tp35
Rp36
S'a'
p37
(lp38
S'mode_l'
p39
aS'move_p'
p40
ag40
ag40
ag40
ag39
ag39
ag40
ag40
ag40
ag40
ag40
ag40
ag39
ag39
ag40
asS'assistance_match_with_ground_truth'
p41
(lp42
I01
aI00
aI00
aI00
aI01
aI00
aI01
aI00
aI00
aI00
aI00
aI00
aI01
aI00
aI01
aI01
asS'is_u_intended_equals_um'
p43
(lp44
I01
aI00
aI00
aI00
aI01
aI00
aI01
aI00
aI00
aI00
aI00
aI00
aI01
aI00
aI01
aI01
asS'total_steps'
p45
I16
sS'normalized_h_of_p_ui_given_um'
p46
(lp47
cnumpy.core.multiarray
scalar
p48
(cnumpy
dtype
p49
(S'f8'
p50
I0
I1
tp51
Rp52
(I3
S'<'
p53
NNNI-1
I-1
I0
tp54
bS'\x8c\xbbR\x04\x00=\xcd?'
p55
tp56
Rp57
ag48
(g52
S'G\x14\x8e\xcb\x9c\x83\xdb?'
p58
tp59
Rp60
ag48
(g52
S'c\x11.\xccw\n\xe2?'
p61
tp62
Rp63
ag48
(g52
S'c\x11.\xccw\n\xe2?'
p64
tp65
Rp66
ag48
(g52
S'\n\xbaz\xb98@\xc8?'
p67
tp68
Rp69
ag48
(g52
S'r\xc2\x10\xb50\\\xdb?'
p70
tp71
Rp72
ag48
(g52
S'\x8c\xbbR\x04\x00=\xcd?'
p73
tp74
Rp75
ag48
(g52
S'c\x11.\xccw\n\xe2?'
p76
tp77
Rp78
ag48
(g52
S'G\x14\x8e\xcb\x9c\x83\xdb?'
p79
tp80
Rp81
ag48
(g52
S'G\x14\x8e\xcb\x9c\x83\xdb?'
p82
tp83
Rp84
ag48
(g52
S'G\x14\x8e\xcb\x9c\x83\xdb?'
p85
tp86
Rp87
ag48
(g52
S'G\x14\x8e\xcb\x9c\x83\xdb?'
p88
tp89
Rp90
ag48
(g52
S'\n\xbaz\xb98@\xc8?'
p91
tp92
Rp93
ag48
(g52
S'r\xc2\x10\xb50\\\xdb?'
p94
tp95
Rp96
ag48
(g52
S'\x8c\xbbR\x04\x00=\xcd?'
p97
tp98
Rp99
ag48
(g52
S'\n\xbaz\xb98@\xc8?'
p100
tp101
Rp102
asS'sp'
p103
(lp104
(S'p0'
p105
I0
S'x'
p106
tp107
ag107
ag107
ag107
a(S'p1'
p108
I0
g106
tp109
ag109
a(g108
I0
S't'
p110
tp111
ag111
ag111
ag111
ag111
ag111
a(g108
F1.5707963267948966
g110
tp112
ag112
a(g108
F1.5707963267948966
S'y'
p113
tp114
a(S'p2'
p115
F1.5707963267948966
g113
tp116
asS's'
p117
(lp118
(g105
I0
g22
tp119
ag107
ag107
ag107
ag107
ag109
ag109
ag111
ag111
ag111
ag111
ag111
ag111
ag112
ag112
ag114
asS'ui'
p120
(lp121
S'hs'
p122
ag103
ag122
ag103
ag103
ag122
ag122
ag122
ag103
ag103
aS'hp'
p123
ag103
ag103
ag122
ag122
ag103
asS'um_before'
p124
(lp125
g122
ag123
ag122
ag122
ag103
aS'ss'
p126
ag122
ag122
ag123
ag123
ag123
ag123
ag103
ag126
ag122
ag103
asS'um_after'
p127
(lp128
g122
aNaNaNag103
aNag122
aNaNaNaNaNag103
aNag122
ag103
asS'is_normalized_entropy_less_than_threshold'
p129
(lp130
g48
(g49
(S'b1'
p131
I0
I1
tp132
Rp133
(I3
S'|'
p134
NNNI-1
I-1
I0
tp135
bS'\x01'
p136
tp137
Rp138
ag138
ag138
ag138
ag138
ag138
ag138
ag138
ag138
ag138
ag138
ag138
ag138
ag138
ag138
ag138
asaa(lp139
S'index'
p140
aI935
aatp141
Rp142
.