ccollections
OrderedDict
p0
((lp1
(lp2
S'combination_dict'
p3
ag0
((lp4
(lp5
S'r_to_g_config'
p6
aS'tl'
p7
aa(lp8
S'num_turns'
p9
aI2
aa(lp10
S'start_direction'
p11
acutils_ms
StartDirection
p12
(I0
tp13
Rp14
aa(lp15
S'assistance_type'
p16
acutils_ms
AssistanceType
p17
(I1
tp18
Rp19
aa(lp20
S'start_mode'
p21
aS'y'
p22
aa(lp23
S'ui_given_a_noise'
p24
aF0.3
aa(lp25
S'um_given_ui_noise'
p26
aF0.1
aa(lp27
S'entropy_threshold'
p28
aF0.9
aatp29
Rp30
aa(lp31
S'data'
p32
accollections
defaultdict
p33
(c__builtin__
list
p34
tp35
Rp36
S'a'
p37
(lp38
S'mode_l'
p39
aS'move_n'
p40
ag39
ag40
aS'mode_r'
p41
ag41
ag40
ag41
aS'move_p'
p42
ag39
ag39
ag39
ag40
ag41
ag39
ag40
ag41
ag42
ag41
ag42
ag39
ag42
ag41
ag41
ag39
ag42
ag41
ag40
ag41
ag39
ag42
ag41
ag41
ag42
ag39
ag39
ag40
asS'assistance_match_with_ground_truth'
p43
(lp44
I01
aI00
aI01
aI00
aI00
aI01
aI01
aI01
aI00
aI00
aI00
aI01
aI00
aI00
aI01
aI01
aI01
aI00
aI01
aI00
aI01
aI01
aI00
aI00
aI01
aI01
aI01
aI00
aI00
aI01
aI00
aI00
aI01
aI01
aI00
aI01
aI01
asS'is_u_intended_equals_um'
p45
(lp46
I01
aI01
aI01
aI01
aI01
aI01
aI01
aI01
aI01
aI01
aI01
aI01
aI01
aI01
aI01
aI01
aI01
aI01
aI01
aI01
aI01
aI01
aI01
aI01
aI01
aI01
aI01
aI01
aI01
aI01
aI01
aI01
aI01
aI01
aI01
aI01
aI01
asS'total_steps'
p47
I37
sS'normalized_h_of_p_ui_given_um'
p48
(lp49
cnumpy.core.multiarray
scalar
p50
(cnumpy
dtype
p51
(S'f8'
p52
I0
I1
tp53
Rp54
(I3
S'<'
p55
NNNI-1
I-1
I0
tp56
bS'*\xc9\xb1\xf3u#\xc2?'
p57
tp58
Rp59
ag50
(g54
S'\xb0\xd1\x8a\xd8\x8e]\xdb?'
p60
tp61
Rp62
ag50
(g54
S'*\xc9\xb1\xf3u#\xc2?'
p63
tp64
Rp65
ag50
(g54
S'V\xcag\x05\xf0p\xe8?'
p66
tp67
Rp68
ag50
(g54
S'7`)\x857B\xd7?'
p69
tp70
Rp71
ag50
(g54
S'V\xb9\xdf\x99\x0ei\xb7?'
p72
tp73
Rp74
ag50
(g54
S'\x97\x9f\x1ai\xd2b\xc2?'
p75
tp76
Rp77
ag50
(g54
S'V\xb9\xdf\x99\x0ei\xb7?'
p78
tp79
Rp80
ag50
(g54
S'\xd0!$^\x19\xdb\xe0?'
p81
tp82
Rp83
ag50
(g54
S'=\xfd\xcd\xe3\x03\x98\xda?'
p84
tp85
Rp86
ag50
(g54
S'#\xb05\xf6\x108\xe5?'
p87
tp88
Rp89
ag50
(g54
S'*\xc9\xb1\xf3u#\xc2?'
p90
tp91
Rp92
ag50
(g54
S'V\xcag\x05\xf0p\xe8?'
p93
tp94
Rp95
ag50
(g54
S'\xee\xbf\x824 \xc4\xe6?'
p96
tp97
Rp98
ag50
(g54
S'*\xc9\xb1\xf3u#\xc2?'
p99
tp100
Rp101
ag50
(g54
S'\x97\x9f\x1ai\xd2b\xc2?'
p102
tp103
Rp104
ag50
(g54
S'V\xb9\xdf\x99\x0ei\xb7?'
p105
tp106
Rp107
ag50
(g54
S'E\xee6V\xac\x88\xe5?'
p108
tp109
Rp110
ag50
(g54
S'V\xb9\xdf\x99\x0ei\xb7?'
p111
tp112
Rp113
ag50
(g54
S't\xf8\xd2B\xa5\xbc\xdc?'
p114
tp115
Rp116
ag50
(g54
S'*\xc9\xb1\xf3u#\xc2?'
p117
tp118
Rp119
ag50
(g54
S'\x18\x12\xaf\x00\x82\x99\xbc?'
p120
tp121
Rp122
ag50
(g54
S'7`)\x857B\xd7?'
p123
tp124
Rp125
ag50
(g54
S'\xee\xbf\x824 \xc4\xe6?'
p126
tp127
Rp128
ag50
(g54
S'*\xc9\xb1\xf3u#\xc2?'
p129
tp130
Rp131
ag50
(g54
S'\x18\x12\xaf\x00\x82\x99\xbc?'
p132
tp133
Rp134
ag50
(g54
S'V\xb9\xdf\x99\x0ei\xb7?'
p135
tp136
Rp137
ag50
(g54
S'\x04\xa5Z\x98\x8a%\xe0?'
p138
tp139
Rp140
ag50
(g54
S'\xee\xbf\x824 \xc4\xe6?'
p141
tp142
Rp143
ag50
(g54
S'*\xc9\xb1\xf3u#\xc2?'
p144
tp145
Rp146
ag50
(g54
S'E\xee6V\xac\x88\xe5?'
p147
tp148
Rp149
ag50
(g54
S'\x94\xb7\x1e\x9c<\x8a\xe3?'
p150
tp151
Rp152
ag50
(g54
S'V\xb9\xdf\x99\x0ei\xb7?'
p153
tp154
Rp155
ag50
(g54
S'\x18\x12\xaf\x00\x82\x99\xbc?'
p156
tp157
Rp158
ag50
(g54
S'=\xfd\xcd\xe3\x03\x98\xda?'
p159
tp160
Rp161
ag50
(g54
S'*\xc9\xb1\xf3u#\xc2?'
p162
tp163
Rp164
ag50
(g54
S'\x97\x9f\x1ai\xd2b\xc2?'
p165
tp166
Rp167
asS'sp'
p168
(lp169
(S'p0'
p170
I0
S'x'
p171
tp172
a(g170
I0
S'y'
p173
tp174
ag172
a(g170
I0
S't'
p175
tp176
a(g170
I0
g175
tp177
a(g170
I0
g171
tp178
a(S'p1'
p179
I0
g171
tp180
a(g179
I0
g173
tp181
a(g170
I0
g173
tp182
a(g170
I0
g173
tp183
a(g170
I0
g173
tp184
ag172
ag176
a(g170
I0
g173
tp185
ag172
ag180
ag181
a(g179
I0
g171
tp186
ag181
a(g179
I0
g175
tp187
a(g179
I0
g173
tp188
a(S'p2'
p189
I0
g173
tp190
a(g189
I0
g173
tp191
a(g189
I0
g171
tp192
a(g189
I0
g175
tp193
a(g189
F1.5707963267948966
g175
tp194
a(g189
F1.5707963267948966
g171
tp195
a(g179
F1.5707963267948966
g171
tp196
a(g179
F1.5707963267948966
g175
tp197
a(g179
F1.5707963267948966
g173
tp198
a(g179
F1.5707963267948966
g171
tp199
a(g179
F1.5707963267948966
g171
tp200
a(g179
F1.5707963267948966
g173
tp201
a(g189
F1.5707963267948966
g173
tp202
a(g189
F1.5707963267948966
g173
tp203
a(g189
F1.5707963267948966
g171
tp204
a(S'p3'
p205
F1.5707963267948966
g171
tp206
asS's'
p207
(lp208
(g170
I0
g22
tp209
ag172
ag174
ag172
ag176
ag177
ag178
ag180
ag181
ag182
ag183
ag184
ag172
ag176
ag185
ag172
ag180
ag181
ag186
ag181
ag187
ag188
ag190
ag191
ag192
ag193
ag194
ag195
ag196
ag197
ag198
ag199
ag200
ag201
ag202
ag203
ag204
asS'ui'
p210
(lp211
S'hs'
p212
aS'ss'
p213
ag212
ag168
ag168
aS'hp'
p214
ag213
ag214
ag213
ag213
ag168
ag212
ag212
ag212
ag212
ag213
ag214
ag212
ag214
ag214
ag212
ag168
ag213
ag212
ag212
ag168
ag214
ag168
ag214
ag212
ag212
ag213
ag214
ag168
ag213
ag212
ag213
asS'um_before'
p215
(lp216
g212
ag214
ag212
ag212
ag168
ag214
ag213
ag214
ag213
ag213
ag168
ag212
ag212
ag212
ag212
ag213
ag214
ag212
ag214
ag214
ag212
ag168
ag168
ag212
ag212
ag168
ag214
ag168
ag212
ag212
ag212
ag213
ag214
ag168
ag213
ag212
ag213
asS'um_after'
p217
(lp218
g212
ag214
ag212
ag212
ag168
ag214
ag213
ag214
ag213
ag213
ag168
ag212
ag212
ag212
ag212
ag213
ag214
ag212
ag214
ag214
ag212
ag168
ag168
ag212
ag212
ag168
ag214
ag168
ag212
ag212
ag212
ag213
ag214
ag168
ag213
ag212
ag213
asS'is_normalized_entropy_less_than_threshold'
p219
(lp220
g50
(g51
(S'b1'
p221
I0
I1
tp222
Rp223
(I3
S'|'
p224
NNNI-1
I-1
I0
tp225
bS'\x01'
p226
tp227
Rp228
ag228
ag228
ag228
ag228
ag228
ag228
ag228
ag228
ag228
ag228
ag228
ag228
ag228
ag228
ag228
ag228
ag228
ag228
ag228
ag228
ag228
ag228
ag228
ag228
ag228
ag228
ag228
ag228
ag228
ag228
ag228
ag228
ag228
ag228
ag228
ag228
asaa(lp229
S'index'
p230
aI41041
aatp231
Rp232
.