ccollections
OrderedDict
p0
((lp1
(lp2
S'combination_dict'
p3
ag0
((lp4
(lp5
S'r_to_g_config'
p6
aS'br'
p7
aa(lp8
S'num_turns'
p9
aI3
aa(lp10
S'start_direction'
p11
acutils_ms
StartDirection
p12
(I1
tp13
Rp14
aa(lp15
S'assistance_type'
p16
acutils_ms
AssistanceType
p17
(I1
tp18
Rp19
aa(lp20
S'start_mode'
p21
aS't'
p22
aa(lp23
S'ui_given_a_noise'
p24
aF0.5
aa(lp25
S'um_given_ui_noise'
p26
aF0.3
aa(lp27
S'entropy_threshold'
p28
aF0.9
aatp29
Rp30
aa(lp31
S'data'
p32
accollections
defaultdict
p33
(c__builtin__
list
p34
tp35
Rp36
S'a'
p37
(lp38
S'mode_l'
p39
ag39
aS'mode_r'
p40
ag40
ag40
ag40
aS'move_n'
p41
ag39
ag40
aS'move_p'
p42
ag40
ag40
ag41
ag39
ag40
ag40
ag40
ag42
ag39
ag39
ag39
ag42
ag39
ag39
ag40
ag40
ag40
ag41
ag39
ag40
ag42
ag39
ag40
ag42
asS'assistance_match_with_ground_truth'
p43
(lp44
I00
aI00
aI00
aI00
aI00
aI01
aI01
aI00
aI01
aI00
aI00
aI01
aI01
aI00
aI00
aI00
aI01
aI01
aI00
aI00
aI01
aI01
aI00
aI00
aI00
aI00
aI01
aI01
aI00
aI01
aI00
aI00
aI01
aI01
asS'is_u_intended_equals_um'
p45
(lp46
I01
aI01
aI01
aI01
aI01
aI01
aI00
aI01
aI00
aI01
aI01
aI01
aI01
aI01
aI01
aI01
aI01
aI01
aI00
aI00
aI01
aI01
aI01
aI01
aI01
aI01
aI01
aI01
aI01
aI00
aI00
aI01
aI01
aI00
asS'total_steps'
p47
I34
sS'normalized_h_of_p_ui_given_um'
p48
(lp49
cnumpy.core.multiarray
scalar
p50
(cnumpy
dtype
p51
(S'f8'
p52
I0
I1
tp53
Rp54
(I3
S'<'
p55
NNNI-1
I-1
I0
tp56
bS'0\xac\xf8\xd3\xc5i\xe2?'
p57
tp58
Rp59
ag50
(g54
S'\x86\xf0\xa7\xd3Z\x8a\xe6?'
p60
tp61
Rp62
ag50
(g54
S'\xa0\xf9\xa97#r\xe2?'
p63
tp64
Rp65
ag50
(g54
S'\xeb\xdd\x97!+\xc3\xeb?'
p66
tp67
Rp68
ag50
(g54
S'\xa0\xf9\xa97#r\xe2?'
p69
tp70
Rp71
ag50
(g54
S'\x8c\x0c\xc8-\x84\x06\xd9?'
p72
tp73
Rp74
ag50
(g54
S'\x84\x0e\xbf\x9e*i\xea?'
p75
tp76
Rp77
ag50
(g54
S'\x86\xf0\xa7\xd3Z\x8a\xe6?'
p78
tp79
Rp80
ag50
(g54
S'\xd4?1\xe3V\x8c\xec?'
p81
tp82
Rp83
ag50
(g54
S'F\x87\xdd\xb7\x8d\x02\xe8?'
p84
tp85
Rp86
ag50
(g54
S'\xa0\xf9\xa97#r\xe2?'
p87
tp88
Rp89
ag50
(g54
S'\x8c\x0c\xc8-\x84\x06\xd9?'
p90
tp91
Rp92
ag50
(g54
S'\xd1\x82\xe1\x98\xe4\xcd\xd5?'
p93
tp94
Rp95
ag50
(g54
S'\x86\xf0\xa7\xd3Z\x8a\xe6?'
p96
tp97
Rp98
ag50
(g54
S'\xa0\xf9\xa97#r\xe2?'
p99
tp100
Rp101
ag50
(g54
S'\xa0\xf9\xa97#r\xe2?'
p102
tp103
Rp104
ag50
(g54
S'\x8c\x0c\xc8-\x84\x06\xd9?'
p105
tp106
Rp107
ag50
(g54
S'jC\xbe\x94J\r\xcf?'
p108
tp109
Rp110
ag50
(g54
S'>A\x11\xf3\xd5\xe2\xec?'
p111
tp112
Rp113
ag50
(g54
S'>A\x11\xf3\xd5\xe2\xec?'
p114
tp115
Rp116
ag50
(g54
S"'\x13\xef&\xa0%\xdd?"
p117
tp118
Rp119
ag50
(g54
S'jC\xbe\x94J\r\xcf?'
p120
tp121
Rp122
ag50
(g54
S'0\xac\xf8\xd3\xc5i\xe2?'
p123
tp124
Rp125
ag50
(g54
S'\x86\xf0\xa7\xd3Z\x8a\xe6?'
p126
tp127
Rp128
ag50
(g54
S'\xa0\xf9\xa97#r\xe2?'
p129
tp130
Rp131
ag50
(g54
S'\xa0\xf9\xa97#r\xe2?'
p132
tp133
Rp134
ag50
(g54
S'\x8c\x0c\xc8-\x84\x06\xd9?'
p135
tp136
Rp137
ag50
(g54
S'\xd1\x82\xe1\x98\xe4\xcd\xd5?'
p138
tp139
Rp140
ag50
(g54
S'\x86\xf0\xa7\xd3Z\x8a\xe6?'
p141
tp142
Rp143
ag50
(g54
S'\xd4?1\xe3V\x8c\xec?'
p144
tp145
Rp146
ag50
(g54
S'\xaa\x11\xbfO\xe9c\xed?'
p147
tp148
Rp149
ag50
(g54
S'\x86\xf0\xa7\xd3Z\x8a\xe6?'
p150
tp151
Rp152
ag50
(g54
S'\x8c\x0c\xc8-\x84\x06\xd9?'
p153
tp154
Rp155
ag50
(g54
S'P\x98?L\xd4\xef\xe9?'
p156
tp157
Rp158
asS'sp'
p159
(lp160
(S'p0'
p161
I0
S't'
p162
tp163
a(g161
I0
S'x'
p164
tp165
a(g161
I0
g164
tp166
a(g161
I0
g164
tp167
ag166
a(g161
I0
S'y'
p168
tp169
a(S'p1'
p170
I0
g168
tp171
a(g170
I0
g162
tp172
a(g170
I0
g164
tp173
a(g161
I0
g164
tp174
ag166
ag169
ag171
ag172
a(g170
I0
g162
tp175
ag175
ag173
a(S'p2'
p176
I0
g164
tp177
a(g176
I0
g164
tp178
ag178
a(g176
I0
g162
tp179
a(g176
F1.5707963267948966
g162
tp180
a(g176
F1.5707963267948966
g162
tp181
a(g176
F1.5707963267948966
g164
tp182
a(g176
F1.5707963267948966
g164
tp183
ag183
a(g176
F1.5707963267948966
g168
tp184
a(S'p3'
p185
F1.5707963267948966
g168
tp186
a(g185
F1.5707963267948966
g162
tp187
a(g185
F1.5707963267948966
g164
tp188
a(g185
F1.5707963267948966
g168
tp189
ag187
ag188
a(S'p4'
p190
F1.5707963267948966
g164
tp191
asS's'
p192
(lp193
(g161
I0
g22
tp194
ag163
ag165
ag166
ag167
ag166
ag169
ag171
ag172
ag173
ag174
ag166
ag169
ag171
ag172
ag175
ag175
ag173
ag177
ag178
ag178
ag179
ag180
ag181
ag182
ag183
ag183
ag184
ag186
ag187
ag188
ag189
ag187
ag188
asS'ui'
p195
(lp196
g159
aS'ss'
p197
ag197
ag159
ag197
aS'hp'
p198
aS'hs'
p199
ag198
ag198
ag197
ag197
ag198
ag197
ag159
ag197
ag197
ag199
ag159
ag159
ag199
ag199
ag159
ag199
ag198
ag197
ag197
ag198
ag197
ag159
ag198
ag159
ag198
ag198
ag159
asS'um_before'
p200
(lp201
g159
ag198
ag197
ag159
ag197
ag198
ag199
ag198
ag199
ag197
ag197
ag198
ag197
ag198
ag197
ag197
ag198
ag159
ag197
ag197
ag199
ag159
ag159
ag198
ag197
ag197
ag198
ag197
ag198
ag199
ag198
ag198
ag198
ag199
asS'um_after'
p202
(lp203
g159
ag198
ag197
ag159
ag197
ag198
ag197
ag198
ag198
ag197
ag197
ag198
ag197
ag198
ag197
ag197
ag198
ag159
ag197
ag197
ag199
ag159
ag159
ag198
ag197
ag197
ag198
ag197
ag198
ag198
ag198
ag198
ag198
ag159
asS'is_normalized_entropy_less_than_threshold'
p204
(lp205
g50
(g51
(S'b1'
p206
I0
I1
tp207
Rp208
(I3
S'|'
p209
NNNI-1
I-1
I0
tp210
bS'\x01'
p211
tp212
Rp213
ag213
ag213
ag213
ag213
ag213
ag213
ag213
ag213
ag213
ag213
ag213
ag213
ag213
ag213
ag213
ag213
ag213
ag50
(g208
S'\x00'
p214
tp215
Rp216
ag216
ag213
ag213
ag213
ag213
ag213
ag213
ag213
ag213
ag213
ag213
ag216
ag213
ag213
ag213
asaa(lp217
S'index'
p218
aI113294
aatp219
Rp220
.