ccollections
OrderedDict
p0
((lp1
(lp2
S'combination_dict'
p3
ag0
((lp4
(lp5
S'r_to_g_config'
p6
aS'br'
p7
aa(lp8
S'num_turns'
p9
aI1
aa(lp10
S'start_direction'
p11
acutils_ms
StartDirection
p12
(I1
tp13
Rp14
aa(lp15
S'assistance_type'
p16
acutils_ms
AssistanceType
p17
(I1
tp18
Rp19
aa(lp20
S'start_mode'
p21
aS't'
p22
aa(lp23
S'ui_given_a_noise'
p24
aF0.5
aa(lp25
S'um_given_ui_noise'
p26
aF0.1
aa(lp27
S'entropy_threshold'
p28
aF0.8
aatp29
Rp30
aa(lp31
S'data'
p32
accollections
defaultdict
p33
(c__builtin__
list
p34
tp35
Rp36
S'a'
p37
(lp38
S'mode_l'
p39
ag39
aS'mode_r'
p40
ag39
ag39
ag39
ag40
ag40
aS'move_n'
p41
ag40
ag40
ag39
aS'move_p'
p42
ag40
ag42
asS'assistance_match_with_ground_truth'
p43
(lp44
I00
aI00
aI00
aI00
aI00
aI00
aI00
aI01
aI01
aI00
aI00
aI01
aI01
aI01
aI01
asS'is_u_intended_equals_um'
p45
(lp46
I01
aI01
aI01
aI01
aI01
aI01
aI01
aI01
aI01
aI01
aI01
aI01
aI01
aI01
aI01
asS'total_steps'
p47
I15
sS'normalized_h_of_p_ui_given_um'
p48
(lp49
cnumpy.core.multiarray
scalar
p50
(cnumpy
dtype
p51
(S'f8'
p52
I0
I1
tp53
Rp54
(I3
S'<'
p55
NNNI-1
I-1
I0
tp56
bS'\xc6G&8\\|\xe5?'
p57
tp58
Rp59
ag50
(g54
S'gQU]Y>\xd7?'
p60
tp61
Rp62
ag50
(g54
S'\x19}\xf8\xba\xd9\xca\xd6?'
p63
tp64
Rp65
ag50
(g54
S'D\x86\xab~\x11\x8d\xe0?'
p66
tp67
Rp68
ag50
(g54
S'\xc6G&8\\|\xe5?'
p69
tp70
Rp71
ag50
(g54
S'gQU]Y>\xd7?'
p72
tp73
Rp74
ag50
(g54
S'\x9a\x85-B\x18D\xe3?'
p75
tp76
Rp77
ag50
(g54
S'\xf9o\xca\x93k\xb5\xc3?'
p78
tp79
Rp80
ag50
(g54
S'\x85X\xb9\xf4\xa2\x15\xc6?'
p81
tp82
Rp83
ag50
(g54
S'\x9a\x85-B\x18D\xe3?'
p84
tp85
Rp86
ag50
(g54
S'\x19}\xf8\xba\xd9\xca\xd6?'
p87
tp88
Rp89
ag50
(g54
S'z\xdf\x0f\xf9\xb5-\xbe?'
p90
tp91
Rp92
ag50
(g54
S'\xad\xf4\xa13\x07\xf1\xb5?'
p93
tp94
Rp95
ag50
(g54
S'\xf9o\xca\x93k\xb5\xc3?'
p96
tp97
Rp98
ag50
(g54
S'\xad\xf4\xa13\x07\xf1\xb5?'
p99
tp100
Rp101
asS'sp'
p102
(lp103
(S'p0'
p104
I0
S't'
p105
tp106
a(g104
I0
S'x'
p107
tp108
a(g104
I0
g105
tp109
a(g104
I0
g105
tp110
ag106
ag108
a(g104
I0
g107
tp111
a(g104
I0
S'y'
p112
tp113
a(S'p1'
p114
I0
g112
tp115
a(g114
I0
g112
tp116
a(g114
I0
g107
tp117
a(g114
I0
g105
tp118
a(g114
F1.5707963267948966
g105
tp119
a(g114
F1.5707963267948966
g107
tp120
a(S'p2'
p121
F1.5707963267948966
g107
tp122
asS's'
p123
(lp124
(g104
I0
g22
tp125
ag106
ag108
ag109
ag110
ag106
ag108
ag111
ag113
ag115
ag116
ag117
ag118
ag119
ag120
asS'ui'
p126
(lp127
S'hs'
p128
aS'ss'
p129
ag128
ag128
ag129
aS'hp'
p130
ag129
ag130
ag129
ag102
ag128
ag128
ag102
ag130
ag102
asS'um_before'
p131
(lp132
g129
ag130
ag128
ag102
ag129
ag130
ag129
ag130
ag129
ag129
ag128
ag128
ag102
ag130
ag102
asS'um_after'
p133
(lp134
g129
ag130
ag128
ag102
ag129
ag130
ag129
ag130
ag129
ag129
ag128
ag128
ag102
ag130
ag102
asS'is_normalized_entropy_less_than_threshold'
p135
(lp136
g50
(g51
(S'b1'
p137
I0
I1
tp138
Rp139
(I3
S'|'
p140
NNNI-1
I-1
I0
tp141
bS'\x01'
p142
tp143
Rp144
ag144
ag144
ag144
ag144
ag144
ag144
ag144
ag144
ag144
ag144
ag144
ag144
ag144
ag144
asaa(lp145
S'index'
p146
aI94036
aatp147
Rp148
.