ccollections
OrderedDict
p0
((lp1
(lp2
S'combination_dict'
p3
ag0
((lp4
(lp5
S'r_to_g_config'
p6
aS'tl'
p7
aa(lp8
S'num_turns'
p9
aI1
aa(lp10
S'start_direction'
p11
acutils_ms
StartDirection
p12
(I0
tp13
Rp14
aa(lp15
S'assistance_type'
p16
acutils_ms
AssistanceType
p17
(I1
tp18
Rp19
aa(lp20
S'start_mode'
p21
aS'y'
p22
aa(lp23
S'ui_given_a_noise'
p24
aF0.7
aa(lp25
S'um_given_ui_noise'
p26
aF0.3
aa(lp27
S'entropy_threshold'
p28
aF0.6
aatp29
Rp30
aa(lp31
S'data'
p32
accollections
defaultdict
p33
(c__builtin__
list
p34
tp35
Rp36
S'a'
p37
(lp38
S'mode_l'
p39
aS'move_n'
p40
ag39
aS'move_p'
p41
ag39
ag41
ag41
ag41
ag39
aS'mode_r'
p42
ag41
ag41
ag39
ag41
ag39
ag39
ag39
ag39
ag39
ag40
ag42
ag42
ag41
ag39
ag40
ag42
ag41
asS'assistance_match_with_ground_truth'
p43
(lp44
I01
aI01
aI01
aI01
aI00
aI00
aI00
aI00
aI00
aI01
aI00
aI01
aI01
aI00
aI00
aI00
aI00
aI00
aI01
aI01
aI00
aI01
aI00
aI01
aI01
aI01
aI01
asS'is_u_intended_equals_um'
p45
(lp46
I01
aI01
aI01
aI01
aI01
aI01
aI01
aI00
aI01
aI01
aI01
aI01
aI01
aI01
aI01
aI01
aI01
aI01
aI01
aI01
aI01
aI01
aI01
aI01
aI01
aI01
aI01
asS'total_steps'
p47
I27
sS'normalized_h_of_p_ui_given_um'
p48
(lp49
cnumpy.core.multiarray
scalar
p50
(cnumpy
dtype
p51
(S'f8'
p52
I0
I1
tp53
Rp54
(I3
S'<'
p55
NNNI-1
I-1
I0
tp56
bS'P\xed)\x95\xf16\xca?'
p57
tp58
Rp59
ag50
(g54
S'\xf7k\xcdY\xc9h\xd5?'
p60
tp61
Rp62
ag50
(g54
S'P\xed)\x95\xf16\xca?'
p63
tp64
Rp65
ag50
(g54
S'p\n\x95o_\xe2\xd5?'
p66
tp67
Rp68
ag50
(g54
S'\xc2\x8c<\x0f\x19\x1d\xe8?'
p69
tp70
Rp71
ag50
(g54
S'h\x86E\xe4n\xcb\xda?'
p72
tp73
Rp74
ag50
(g54
S'h\x86E\xe4n\xcb\xda?'
p75
tp76
Rp77
ag50
(g54
S'\xe6\xf1:\xc4\xb0\xd2\xe5?'
p78
tp79
Rp80
ag50
(g54
S'\xe5*\x1d\xdb*\xaa\xe9?'
p81
tp82
Rp83
ag50
(g54
S'\x85\x02\xa5L\xb3\x06\xd6?'
p84
tp85
Rp86
ag50
(g54
S'h\x86E\xe4n\xcb\xda?'
p87
tp88
Rp89
ag50
(g54
S'p\n\x95o_\xe2\xd5?'
p90
tp91
Rp92
ag50
(g54
S'P\xed)\x95\xf16\xca?'
p93
tp94
Rp95
ag50
(g54
S'h\x86E\xe4n\xcb\xda?'
p96
tp97
Rp98
ag50
(g54
S'b\xf4\xa7\x01\xc3\xe6\xe9?'
p99
tp100
Rp101
ag50
(g54
S'\xc2\x8c<\x0f\x19\x1d\xe8?'
p102
tp103
Rp104
ag50
(g54
S'b\xf4\xa7\x01\xc3\xe6\xe9?'
p105
tp106
Rp107
ag50
(g54
S'\xc2\x8c<\x0f\x19\x1d\xe8?'
p108
tp109
Rp110
ag50
(g54
S'P\xed)\x95\xf16\xca?'
p111
tp112
Rp113
ag50
(g54
S'\xf7k\xcdY\xc9h\xd5?'
p114
tp115
Rp116
ag50
(g54
S'\x87\xfa&\x97\x11_\xe8?'
p117
tp118
Rp119
ag50
(g54
S'\x85\x02\xa5L\xb3\x06\xd6?'
p120
tp121
Rp122
ag50
(g54
S'h\x86E\xe4n\xcb\xda?'
p123
tp124
Rp125
ag50
(g54
S'P\xed)\x95\xf16\xca?'
p126
tp127
Rp128
ag50
(g54
S'\xf7k\xcdY\xc9h\xd5?'
p129
tp130
Rp131
ag50
(g54
S'\x85\x02\xa5L\xb3\x06\xd6?'
p132
tp133
Rp134
ag50
(g54
S'p\n\x95o_\xe2\xd5?'
p135
tp136
Rp137
asS'sp'
p138
(lp139
(S'p0'
p140
I0
S'x'
p141
tp142
a(S'p1'
p143
I0
g141
tp144
a(g143
I0
S't'
p145
tp146
a(g143
F1.5707963267948966
g145
tp147
a(g143
I0
g145
tp148
a(g143
I0
g145
tp149
ag149
a(g143
I0
g141
tp150
a(g143
I0
S'y'
p151
tp152
a(g143
I0
g145
tp153
ag149
ag147
a(g143
F1.5707963267948966
g151
tp154
a(g140
F1.5707963267948966
g151
tp155
a(g140
F1.5707963267948966
g151
tp156
a(g140
F1.5707963267948966
g151
tp157
ag156
ag157
a(g140
F1.5707963267948966
g141
tp158
a(g143
F1.5707963267948966
g141
tp159
a(g143
F1.5707963267948966
g141
tp160
a(g143
F1.5707963267948966
g151
tp161
ag155
ag158
ag159
ag161
a(S'p2'
p162
F1.5707963267948966
g151
tp163
asS's'
p164
(lp165
(g140
I0
g22
tp166
ag142
ag144
ag146
ag147
ag148
ag149
ag149
ag150
ag152
ag153
ag149
ag147
ag154
ag155
ag156
ag157
ag156
ag157
ag158
ag159
ag160
ag161
ag155
ag158
ag159
ag161
asS'ui'
p167
(lp168
S'hs'
p169
aS'ss'
p170
ag169
ag138
ag170
ag170
ag170
ag169
aS'hp'
p171
ag138
ag170
ag171
ag169
ag138
ag170
ag170
ag138
ag170
ag169
ag170
ag171
ag171
ag170
ag169
ag170
ag171
ag170
asS'um_before'
p172
(lp173
g169
ag170
ag169
ag138
ag170
ag170
ag170
ag171
ag171
ag171
ag170
ag138
ag169
ag170
ag138
ag170
ag138
ag170
ag169
ag170
ag138
ag171
ag170
ag169
ag170
ag171
ag138
asS'um_after'
p174
(lp175
g169
ag170
ag169
ag138
ag170
ag170
ag170
ag171
ag171
ag171
ag170
ag138
ag169
ag170
ag138
ag170
ag138
ag170
ag169
ag170
ag138
ag171
ag170
ag169
ag170
ag171
ag138
asS'is_normalized_entropy_less_than_threshold'
p176
(lp177
g50
(g51
(S'b1'
p178
I0
I1
tp179
Rp180
(I3
S'|'
p181
NNNI-1
I-1
I0
tp182
bS'\x01'
p183
tp184
Rp185
ag185
ag185
ag185
ag50
(g180
S'\x00'
p186
tp187
Rp188
ag185
ag185
ag188
ag188
ag185
ag185
ag185
ag185
ag185
ag188
ag188
ag188
ag188
ag185
ag185
ag188
ag185
ag185
ag185
ag185
ag185
ag185
asaa(lp189
S'index'
p190
aI31869
aatp191
Rp192
.