ccollections
OrderedDict
p0
((lp1
(lp2
S'combination_dict'
p3
ag0
((lp4
(lp5
S'r_to_g_config'
p6
aS'tr'
p7
aa(lp8
S'num_turns'
p9
aI3
aa(lp10
S'start_direction'
p11
acutils_ms
StartDirection
p12
(I0
tp13
Rp14
aa(lp15
S'assistance_type'
p16
acutils_ms
AssistanceType
p17
(I0
tp18
Rp19
aa(lp20
S'start_mode'
p21
aS't'
p22
aa(lp23
S'ui_given_a_noise'
p24
aF0.3
aa(lp25
S'um_given_ui_noise'
p26
aF0.3
aa(lp27
S'entropy_threshold'
p28
aF0.8
aatp29
Rp30
aa(lp31
S'data'
p32
accollections
defaultdict
p33
(c__builtin__
list
p34
tp35
Rp36
S'a'
p37
(lp38
S'mode_r'
p39
ag39
aS'mode_l'
p40
aS'move_p'
p41
ag40
ag41
ag40
ag41
ag40
ag41
ag41
ag40
ag41
ag40
ag41
ag40
ag40
ag40
ag41
ag40
ag40
ag41
ag39
ag40
ag40
ag41
ag41
ag40
ag41
ag41
ag39
ag40
ag40
ag41
ag41
ag41
asS'assistance_match_with_ground_truth'
p42
(lp43
I00
aI00
aI01
aI00
aI01
aI01
aI01
aI01
aI00
aI00
aI01
aI01
aI01
aI01
aI00
aI00
aI00
aI01
aI00
aI00
aI01
aI01
aI00
aI00
aI01
aI00
aI00
aI01
aI00
aI01
aI00
aI00
aI01
aI00
aI00
aI01
asS'is_u_intended_equals_um'
p44
(lp45
I01
aI01
aI01
aI00
aI01
aI01
aI01
aI01
aI01
aI01
aI01
aI01
aI01
aI01
aI00
aI01
aI01
aI01
aI00
aI01
aI01
aI01
aI01
aI01
aI01
aI00
aI01
aI01
aI00
aI01
aI01
aI01
aI01
aI00
aI00
aI01
asS'total_steps'
p46
I36
sS'normalized_h_of_p_ui_given_um'
p47
(lp48
cnumpy.core.multiarray
scalar
p49
(cnumpy
dtype
p50
(S'f8'
p51
I0
I1
tp52
Rp53
(I3
S'<'
p54
NNNI-1
I-1
I0
tp55
bS'\xf3\x01\x0b$%x\xdf?'
p56
tp57
Rp58
ag49
(g53
S"i\xfb\xf4\x93\xcf'\xeb?"
p59
tp60
Rp61
ag49
(g53
S'[aS\xe1\xd9\xb8\xbb?'
p62
tp63
Rp64
ag49
(g53
S'\xae>\x9b>U#\xeb?'
p65
tp66
Rp67
ag49
(g53
S'[aS\xe1\xd9\xb8\xbb?'
p68
tp69
Rp70
ag49
(g53
S'uiz6<\x0c\xb7?'
p71
tp72
Rp73
ag49
(g53
S'[aS\xe1\xd9\xb8\xbb?'
p74
tp75
Rp76
ag49
(g53
S'uiz6<\x0c\xb7?'
p77
tp78
Rp79
ag49
(g53
S'or&\xd9M\x81\xe4?'
p80
tp81
Rp82
ag49
(g53
S'\x9c\xfd\xd6\x11d\xb0\xe2?'
p83
tp84
Rp85
ag49
(g53
S'uiz6<\x0c\xb7?'
p86
tp87
Rp88
ag49
(g53
S'[aS\xe1\xd9\xb8\xbb?'
p89
tp90
Rp91
ag49
(g53
S'uiz6<\x0c\xb7?'
p92
tp93
Rp94
ag49
(g53
S'[aS\xe1\xd9\xb8\xbb?'
p95
tp96
Rp97
ag49
(g53
S'\xae>\x9b>U#\xeb?'
p98
tp99
Rp100
ag49
(g53
S'or&\xd9M\x81\xe4?'
p101
tp102
Rp103
ag49
(g53
S'or&\xd9M\x81\xe4?'
p104
tp105
Rp106
ag49
(g53
S'[aS\xe1\xd9\xb8\xbb?'
p107
tp108
Rp109
ag49
(g53
S'\xae>\x9b>U#\xeb?'
p110
tp111
Rp112
ag49
(g53
S'or&\xd9M\x81\xe4?'
p113
tp114
Rp115
ag49
(g53
S'[aS\xe1\xd9\xb8\xbb?'
p116
tp117
Rp118
ag49
(g53
S'uiz6<\x0c\xb7?'
p119
tp120
Rp121
ag49
(g53
S"i\xfb\xf4\x93\xcf'\xeb?"
p122
tp123
Rp124
ag49
(g53
S'or&\xd9M\x81\xe4?'
p125
tp126
Rp127
ag49
(g53
S'[aS\xe1\xd9\xb8\xbb?'
p128
tp129
Rp130
ag49
(g53
S'\x8e:\xa2\x8d\x0e"\xe3?'
p131
tp132
Rp133
ag49
(g53
S'\x9c\xfd\xd6\x11d\xb0\xe2?'
p134
tp135
Rp136
ag49
(g53
S'[aS\xe1\xd9\xb8\xbb?'
p137
tp138
Rp139
ag49
(g53
S'\x8e:\xa2\x8d\x0e"\xe3?'
p140
tp141
Rp142
ag49
(g53
S'uiz6<\x0c\xb7?'
p143
tp144
Rp145
ag49
(g53
S"i\xfb\xf4\x93\xcf'\xeb?"
p146
tp147
Rp148
ag49
(g53
S'or&\xd9M\x81\xe4?'
p149
tp150
Rp151
ag49
(g53
S'[aS\xe1\xd9\xb8\xbb?'
p152
tp153
Rp154
ag49
(g53
S'\x8e:\xa2\x8d\x0e"\xe3?'
p155
tp156
Rp157
ag49
(g53
S'\x8e:\xa2\x8d\x0e"\xe3?'
p158
tp159
Rp160
ag49
(g53
S'uiz6<\x0c\xb7?'
p161
tp162
Rp163
asS'sp'
p164
(lp165
(S'p0'
p166
I0
S't'
p167
tp168
a(g166
I0
S'y'
p169
tp170
a(g166
I0
S'x'
p171
tp172
a(g166
I0
g169
tp173
ag172
a(S'p1'
p174
I0
g171
tp175
a(g174
I0
g167
tp176
a(g174
F1.5707963267948966
g167
tp177
a(g174
I0
g167
tp178
a(g174
I0
g167
tp179
ag177
a(g174
F1.5707963267948966
g169
tp180
a(S'p2'
p181
F1.5707963267948966
g169
tp182
a(g181
F1.5707963267948966
g171
tp183
a(g181
F1.5707963267948966
g169
tp184
a(g181
F1.5707963267948966
g169
tp185
ag185
ag183
ag184
ag185
ag183
a(S'p3'
p186
F1.5707963267948966
g171
tp187
a(g186
F1.5707963267948966
g167
tp188
a(g186
F1.5707963267948966
g167
tp189
a(g186
F1.5707963267948966
g169
tp190
ag190
a(g181
F1.5707963267948966
g169
tp191
ag183
ag183
ag187
ag188
ag189
ag190
ag190
ag190
a(S'p4'
p192
F1.5707963267948966
g169
tp193
asS's'
p194
(lp195
(g166
I0
g22
tp196
ag168
ag170
ag172
ag173
ag172
ag175
ag176
ag177
ag178
ag179
ag177
ag180
ag182
ag183
ag184
ag185
ag185
ag183
ag184
ag185
ag183
ag187
ag188
ag189
ag190
ag190
ag191
ag183
ag183
ag187
ag188
ag189
ag190
ag190
ag190
asS'ui'
p197
(lp198
g164
ag164
aS'hs'
p199
aS'ss'
p200
ag199
ag164
ag199
ag164
ag200
ag164
ag164
ag199
ag164
ag199
ag200
ag199
ag199
ag199
ag200
ag200
ag199
ag164
aS'hp'
p201
ag199
ag199
ag164
ag200
ag199
ag199
ag164
ag199
ag199
ag199
ag164
ag164
ag164
asS'um_before'
p202
(lp203
g164
ag199
ag199
ag201
ag199
ag164
ag199
ag164
ag200
ag200
ag164
ag199
ag164
ag199
ag201
ag200
ag200
ag199
ag201
ag200
ag199
ag164
ag199
ag200
ag199
ag199
ag200
ag199
ag199
ag164
ag199
ag200
ag199
ag199
ag199
ag164
asS'um_after'
p204
(lp205
g164
ag199
ag199
ag201
ag199
ag164
ag199
ag164
ag200
ag200
ag164
ag199
ag164
ag199
ag201
ag200
ag200
ag199
ag201
ag200
ag199
ag164
ag199
ag200
ag199
aNag200
ag199
aNag164
ag199
ag200
ag199
aNaNag164
asS'is_normalized_entropy_less_than_threshold'
p206
(lp207
g49
(g50
(S'b1'
p208
I0
I1
tp209
Rp210
(I3
S'|'
p211
NNNI-1
I-1
I0
tp212
bS'\x01'
p213
tp214
Rp215
ag49
(g210
S'\x00'
p216
tp217
Rp218
ag215
ag218
ag215
ag215
ag215
ag215
ag215
ag215
ag215
ag215
ag215
ag215
ag218
ag215
ag215
ag215
ag218
ag215
ag215
ag215
ag218
ag215
ag215
ag215
ag215
ag215
ag215
ag215
ag218
ag215
ag215
ag215
ag215
ag215
asaa(lp219
S'index'
p220
aI19486
aatp221
Rp222
.