ccollections
OrderedDict
p0
((lp1
(lp2
S'combination_dict'
p3
ag0
((lp4
(lp5
S'r_to_g_config'
p6
aS'tr'
p7
aa(lp8
S'num_turns'
p9
aI3
aa(lp10
S'start_direction'
p11
acutils_ms
StartDirection
p12
(I1
tp13
Rp14
aa(lp15
S'assistance_type'
p16
acutils_ms
AssistanceType
p17
(I1
tp18
Rp19
aa(lp20
S'start_mode'
p21
aS't'
p22
aa(lp23
S'ui_given_a_noise'
p24
aF0.1
aa(lp25
S'um_given_ui_noise'
p26
aF0.5
aa(lp27
S'entropy_threshold'
p28
aF0.6
aatp29
Rp30
aa(lp31
S'data'
p32
accollections
defaultdict
p33
(c__builtin__
list
p34
tp35
Rp36
S'a'
p37
(lp38
S'mode_l'
p39
aS'move_p'
p40
aS'mode_r'
p41
ag40
ag39
ag40
ag41
ag40
ag39
ag40
ag39
ag40
ag41
ag40
ag39
ag40
asS'assistance_match_with_ground_truth'
p42
(lp43
I01
aI01
aI01
aI00
aI01
aI01
aI01
aI00
aI01
aI00
aI01
aI01
aI01
aI01
aI01
aI01
asS'is_u_intended_equals_um'
p44
(lp45
I01
aI00
aI01
aI00
aI01
aI00
aI01
aI00
aI00
aI00
aI00
aI01
aI00
aI00
aI01
aI01
asS'total_steps'
p46
I16
sS'normalized_h_of_p_ui_given_um'
p47
(lp48
cnumpy.core.multiarray
scalar
p49
(cnumpy
dtype
p50
(S'f8'
p51
I0
I1
tp52
Rp53
(I3
S'<'
p54
NNNI-1
I-1
I0
tp55
bS'\x0e\xfe\x05\xf1\x0e\xa1\xc5?'
p56
tp57
Rp58
ag49
(g53
S'[\xae\x04\x90y\xea\xd3?'
p59
tp60
Rp61
ag49
(g53
S'(\x94\xb7cj\x83\xb4?'
p62
tp63
Rp64
ag49
(g53
S'\x95\\\xa8q\xd3\xd4\xe4?'
p65
tp66
Rp67
ag49
(g53
S'\x0e\xfe\x05\xf1\x0e\xa1\xc5?'
p68
tp69
Rp70
ag49
(g53
S'[\xae\x04\x90y\xea\xd3?'
p71
tp72
Rp73
ag49
(g53
S'(\x94\xb7cj\x83\xb4?'
p74
tp75
Rp76
ag49
(g53
S'\x95\\\xa8q\xd3\xd4\xe4?'
p77
tp78
Rp79
ag49
(g53
S'\xb3\xf5\x94\xa2\xdfQ\xdd?'
p80
tp81
Rp82
ag49
(g53
S'\x95\\\xa8q\xd3\xd4\xe4?'
p83
tp84
Rp85
ag49
(g53
S'\x95\x12\x92\xd7\xfe?\xdc?'
p86
tp87
Rp88
ag49
(g53
S'\xd0`\n\xaa\xa5U\x9c?'
p89
tp90
Rp91
ag49
(g53
S'\xd4\xbfP\x87\xd2\x1a\xca?'
p92
tp93
Rp94
ag49
(g53
S'[\xae\x04\x90y\xea\xd3?'
p95
tp96
Rp97
ag49
(g53
S'\x0e\xfe\x05\xf1\x0e\xa1\xc5?'
p98
tp99
Rp100
ag49
(g53
S'\xd0`\n\xaa\xa5U\x9c?'
p101
tp102
Rp103
asS'sp'
p104
(lp105
(S'p0'
p106
I0
S'y'
p107
tp108
a(S'p1'
p109
I0
g107
tp110
a(g109
I0
S't'
p111
tp112
a(g109
I0
S'x'
p113
tp114
a(g109
I0
g111
tp115
a(g109
F1.5707963267948966
g111
tp116
a(g109
F1.5707963267948966
g113
tp117
a(g109
F1.5707963267948966
g107
tp118
a(g109
F1.5707963267948966
g113
tp119
ag118
ag119
a(S'p2'
p120
F1.5707963267948966
g113
tp121
a(g120
F1.5707963267948966
g107
tp122
a(S'p3'
p123
F1.5707963267948966
g107
tp124
a(g123
F1.5707963267948966
g113
tp125
a(S'p4'
p126
F1.5707963267948966
g113
tp127
asS's'
p128
(lp129
(g106
I0
g22
tp130
ag108
ag110
ag112
ag114
ag115
ag116
ag117
ag118
ag119
ag118
ag119
ag121
ag122
ag124
ag125
asS'ui'
p131
(lp132
S'hs'
p133
ag104
aS'hp'
p134
ag104
ag133
ag104
ag134
ag104
ag133
ag104
ag104
ag104
ag134
ag104
ag133
ag104
asS'um_before'
p135
(lp136
g133
aS'ss'
p137
ag134
ag134
ag133
ag137
ag134
ag134
ag134
ag134
ag137
ag104
ag133
ag137
ag133
ag104
asS'um_after'
p138
(lp139
g133
ag104
ag134
ag134
ag133
ag104
ag134
ag134
ag133
ag134
ag133
ag104
ag134
ag104
ag133
ag104
asS'is_normalized_entropy_less_than_threshold'
p140
(lp141
g49
(g50
(S'b1'
p142
I0
I1
tp143
Rp144
(I3
S'|'
p145
NNNI-1
I-1
I0
tp146
bS'\x01'
p147
tp148
Rp149
ag149
ag149
ag49
(g144
S'\x00'
p150
tp151
Rp152
ag149
ag149
ag149
ag152
ag149
ag152
ag149
ag149
ag149
ag149
ag149
ag149
asaa(lp153
S'index'
p154
aI26510
aatp155
Rp156
.