ccollections
OrderedDict
p0
((lp1
(lp2
S'combination_dict'
p3
ag0
((lp4
(lp5
S'r_to_g_config'
p6
aS'bl'
p7
aa(lp8
S'num_turns'
p9
aI2
aa(lp10
S'start_direction'
p11
acutils_ms
StartDirection
p12
(I1
tp13
Rp14
aa(lp15
S'assistance_type'
p16
acutils_ms
AssistanceType
p17
(I0
tp18
Rp19
aa(lp20
S'start_mode'
p21
aS't'
p22
aa(lp23
S'ui_given_a_noise'
p24
aF0.3
aa(lp25
S'um_given_ui_noise'
p26
aF0.7
aa(lp27
S'entropy_threshold'
p28
aF0.8
aatp29
Rp30
aa(lp31
S'data'
p32
accollections
defaultdict
p33
(c__builtin__
list
p34
tp35
Rp36
S'a'
p37
(lp38
S'mode_l'
p39
aS'move_n'
p40
ag40
ag40
aS'mode_r'
p41
ag41
aS'move_p'
p42
ag41
ag40
ag40
ag40
ag40
ag41
ag41
ag40
ag40
ag40
ag40
asS'assistance_match_with_ground_truth'
p43
(lp44
I01
aI00
aI00
aI01
aI00
aI01
aI01
aI01
aI00
aI00
aI00
aI01
aI00
aI01
aI00
aI00
aI00
aI01
asS'is_u_intended_equals_um'
p45
(lp46
I01
aI00
aI00
aI01
aI00
aI01
aI01
aI01
aI00
aI00
aI00
aI01
aI00
aI01
aI00
aI00
aI00
aI01
asS'total_steps'
p47
I18
sS'normalized_h_of_p_ui_given_um'
p48
(lp49
cnumpy.core.multiarray
scalar
p50
(cnumpy
dtype
p51
(S'f8'
p52
I0
I1
tp53
Rp54
(I3
S'<'
p55
NNNI-1
I-1
I0
tp56
bS'\xc3D=s^"\xdc?'
p57
tp58
Rp59
ag50
(g54
S'\x01\xc6\xcc_\xe7\xed\xdf?'
p60
tp61
Rp62
ag50
(g54
S'\x01\xc6\xcc_\xe7\xed\xdf?'
p63
tp64
Rp65
ag50
(g54
S'y\xee\xa9\xf18\x12\xd7?'
p66
tp67
Rp68
ag50
(g54
S'\xec\xab\xf3${\xf0\xe8?'
p69
tp70
Rp71
ag50
(g54
S'\xd1\xc9\xf6\xdau\xa7\xd7?'
p72
tp73
Rp74
ag50
(g54
S'C\xc2\x94e\x98*\xc8?'
p75
tp76
Rp77
ag50
(g54
S'\xd1\xc9\xf6\xdau\xa7\xd7?'
p78
tp79
Rp80
ag50
(g54
S'\x01\xc6\xcc_\xe7\xed\xdf?'
p81
tp82
Rp83
ag50
(g54
S'\xabL<\xdf}\x8b\xe4?'
p84
tp85
Rp86
ag50
(g54
S'(J\\+N\n\xcf?'
p87
tp88
Rp89
ag50
(g54
S'y\xee\xa9\xf18\x12\xd7?'
p90
tp91
Rp92
ag50
(g54
S'\xa8\x86O\r\x0eD\xe7?'
p93
tp94
Rp95
ag50
(g54
S'\xd1\xc9\xf6\xdau\xa7\xd7?'
p96
tp97
Rp98
ag50
(g54
S'(J\\+N\n\xcf?'
p99
tp100
Rp101
ag50
(g54
S'\x01\xc6\xcc_\xe7\xed\xdf?'
p102
tp103
Rp104
ag50
(g54
S'(J\\+N\n\xcf?'
p105
tp106
Rp107
ag50
(g54
S'y\xee\xa9\xf18\x12\xd7?'
p108
tp109
Rp110
asS'sp'
p111
(lp112
(S'p0'
p113
I0
S'y'
p114
tp115
ag115
ag115
a(S'p1'
p116
I0
g114
tp117
ag117
a(g116
I0
S't'
p118
tp119
a(g116
F1.5707963267948966
g118
tp120
a(g116
F1.5707963267948966
S'x'
p121
tp122
ag122
ag122
ag122
a(S'p2'
p123
F1.5707963267948966
g121
tp124
ag124
a(g123
F1.5707963267948966
g114
tp125
ag125
ag125
ag125
a(S'p3'
p126
F1.5707963267948966
g114
tp127
asS's'
p128
(lp129
(g113
I0
g22
tp130
ag115
ag115
ag115
ag117
ag117
ag119
ag120
ag122
ag122
ag122
ag122
ag124
ag124
ag125
ag125
ag125
ag125
asS'ui'
p131
(lp132
S'hs'
p133
aS'ss'
p134
aS'hp'
p135
ag134
ag134
ag135
ag111
ag135
ag135
ag135
ag134
ag134
ag135
ag135
ag134
ag134
ag134
ag134
asS'um_before'
p136
(lp137
g133
ag133
ag133
ag134
ag133
ag135
ag111
ag135
ag133
ag135
ag111
ag134
ag134
ag135
ag111
ag133
ag111
ag134
asS'um_after'
p138
(lp139
g133
aNaNag134
aNag135
ag111
ag135
aNaNaNag134
aNag135
aNaNaNag134
asS'is_normalized_entropy_less_than_threshold'
p140
(lp141
g50
(g51
(S'b1'
p142
I0
I1
tp143
Rp144
(I3
S'|'
p145
NNNI-1
I-1
I0
tp146
bS'\x01'
p147
tp148
Rp149
ag149
ag149
ag149
ag149
ag149
ag149
ag149
ag149
ag149
ag149
ag149
ag149
ag149
ag149
ag149
ag149
ag149
asaa(lp150
S'index'
p151
aI73189
aatp152
Rp153
.