ccollections
OrderedDict
p0
((lp1
(lp2
S'combination_dict'
p3
ag0
((lp4
(lp5
S'r_to_g_config'
p6
aS'bl'
p7
aa(lp8
S'num_turns'
p9
aI2
aa(lp10
S'start_direction'
p11
acutils_ms
StartDirection
p12
(I0
tp13
Rp14
aa(lp15
S'assistance_type'
p16
acutils_ms
AssistanceType
p17
(I1
tp18
Rp19
aa(lp20
S'start_mode'
p21
aS't'
p22
aa(lp23
S'ui_given_a_noise'
p24
aF0.7
aa(lp25
S'um_given_ui_noise'
p26
aF0.7
aa(lp27
S'entropy_threshold'
p28
aF0.6
aatp29
Rp30
aa(lp31
S'data'
p32
accollections
defaultdict
p33
(c__builtin__
list
p34
tp35
Rp36
S'a'
p37
(lp38
S'mode_r'
p39
ag39
ag39
ag39
aS'move_n'
p40
ag39
aS'mode_l'
p41
ag40
ag41
aS'move_p'
p42
ag41
ag42
ag41
ag40
ag41
ag41
ag40
asS'assistance_match_with_ground_truth'
p43
(lp44
I00
aI00
aI00
aI01
aI00
aI00
aI01
aI01
aI01
aI01
aI00
aI01
aI01
aI01
aI00
aI01
aI01
asS'is_u_intended_equals_um'
p45
(lp46
I00
aI00
aI00
aI01
aI01
aI00
aI01
aI01
aI01
aI01
aI01
aI01
aI01
aI01
aI01
aI01
aI01
asS'total_steps'
p47
I17
sS'normalized_h_of_p_ui_given_um'
p48
(lp49
cnumpy.core.multiarray
scalar
p50
(cnumpy
dtype
p51
(S'f8'
p52
I0
I1
tp53
Rp54
(I3
S'<'
p55
NNNI-1
I-1
I0
tp56
bS'\xfd\xa0&\xcf\x19O\xeb?'
p57
tp58
Rp59
ag50
(g54
S'\xfd\xa0&\xcf\x19O\xeb?'
p60
tp61
Rp62
ag50
(g54
S'\xfd\xa0&\xcf\x19O\xeb?'
p63
tp64
Rp65
ag50
(g54
S'u\xfd\x9dE\x89N\xe1?'
p66
tp67
Rp68
ag50
(g54
S"'\xbbg\x99\x8a\x9e\xe8?"
p69
tp70
Rp71
ag50
(g54
S'\x10\x18\x0b\xbds\xe8\xe8?'
p72
tp73
Rp74
ag50
(g54
S'\x15\xd3\x9fO\xb6\xf9\xd2?'
p75
tp76
Rp77
ag50
(g54
S'8]\xbdc$Q\xdf?'
p78
tp79
Rp80
ag50
(g54
S'\x15\xd3\x9fO\xb6\xf9\xd2?'
p81
tp82
Rp83
ag50
(g54
S'\xa5"\xd1\x92\x13\x9c\xe8?'
p84
tp85
Rp86
ag50
(g54
S'\xe2]\xbe\xc0\xd3\xe6\xe4?'
p87
tp88
Rp89
ag50
(g54
S'\xa5"\xd1\x92\x13\x9c\xe8?'
p90
tp91
Rp92
ag50
(g54
S'\x15\xd3\x9fO\xb6\xf9\xd2?'
p93
tp94
Rp95
ag50
(g54
S'8]\xbdc$Q\xdf?'
p96
tp97
Rp98
ag50
(g54
S'\xe2]\xbe\xc0\xd3\xe6\xe4?'
p99
tp100
Rp101
ag50
(g54
S'\x15\xd3\x9fO\xb6\xf9\xd2?'
p102
tp103
Rp104
ag50
(g54
S'8]\xbdc$Q\xdf?'
p105
tp106
Rp107
asS'sp'
p108
(lp109
(S'p0'
p110
I0
S't'
p111
tp112
ag112
ag112
a(g110
I0
S'x'
p113
tp114
a(g110
I0
g111
tp115
a(g110
I0
S'y'
p116
tp117
a(g110
I0
g113
tp118
a(S'p1'
p119
I0
g113
tp120
a(g119
I0
g111
tp121
a(g119
F1.5707963267948966
g111
tp122
a(g119
I0
g111
tp123
ag122
a(g119
F1.5707963267948966
g116
tp124
a(S'p2'
p125
F1.5707963267948966
g116
tp126
a(g125
F1.5707963267948966
g116
tp127
a(g125
F1.5707963267948966
g113
tp128
a(S'p3'
p129
F1.5707963267948966
g113
tp130
asS's'
p131
(lp132
(g110
I0
g22
tp133
ag112
ag112
ag112
ag114
ag115
ag117
ag118
ag120
ag121
ag122
ag123
ag122
ag124
ag126
ag127
ag128
asS'ui'
p134
(lp135
S'hp'
p136
ag108
ag136
ag108
ag136
ag136
aS'ss'
p137
ag137
aS'hs'
p138
ag138
ag137
ag137
ag138
ag136
ag138
ag138
ag137
asS'um_before'
p139
(lp140
g137
ag137
ag137
ag136
ag138
ag138
ag138
ag137
ag138
ag108
ag137
ag108
ag138
ag137
ag137
ag138
ag137
asS'um_after'
p141
(lp142
g137
ag137
ag137
ag136
ag138
ag138
ag138
ag137
ag138
ag108
ag137
ag108
ag138
ag137
ag137
ag138
ag137
asS'is_normalized_entropy_less_than_threshold'
p143
(lp144
g50
(g51
(S'b1'
p145
I0
I1
tp146
Rp147
(I3
S'|'
p148
NNNI-1
I-1
I0
tp149
bS'\x00'
p150
tp151
Rp152
ag152
ag152
ag50
(g147
S'\x01'
p153
tp154
Rp155
ag152
ag152
ag155
ag155
ag155
ag152
ag152
ag152
ag155
ag155
ag152
ag155
ag155
asaa(lp156
S'index'
p157
aI69562
aatp158
Rp159
.