ccollections
OrderedDict
p0
((lp1
(lp2
S'combination_dict'
p3
ag0
((lp4
(lp5
S'r_to_g_config'
p6
aS'tl'
p7
aa(lp8
S'num_turns'
p9
aI3
aa(lp10
S'start_direction'
p11
acutils_ms
StartDirection
p12
(I1
tp13
Rp14
aa(lp15
S'assistance_type'
p16
acutils_ms
AssistanceType
p17
(I1
tp18
Rp19
aa(lp20
S'start_mode'
p21
aS't'
p22
aa(lp23
S'ui_given_a_noise'
p24
aF0.3
aa(lp25
S'um_given_ui_noise'
p26
aF0.3
aa(lp27
S'entropy_threshold'
p28
aF0.8
aatp29
Rp30
aa(lp31
S'data'
p32
accollections
defaultdict
p33
(c__builtin__
list
p34
tp35
Rp36
S'a'
p37
(lp38
S'mode_l'
p39
ag39
aS'move_p'
p40
ag40
ag39
ag40
aS'mode_r'
p41
ag40
ag39
aS'move_n'
p42
ag41
ag42
ag41
ag40
ag41
ag41
ag40
ag41
ag40
ag41
ag42
ag41
ag42
asS'assistance_match_with_ground_truth'
p43
(lp44
I00
aI01
aI00
aI00
aI01
aI00
aI01
aI01
aI01
aI00
aI01
aI01
aI01
aI00
aI00
aI01
aI01
aI01
aI01
aI01
aI00
aI01
aI01
asS'is_u_intended_equals_um'
p45
(lp46
I01
aI01
aI00
aI01
aI01
aI00
aI01
aI01
aI01
aI01
aI00
aI00
aI01
aI00
aI01
aI01
aI01
aI01
aI01
aI01
aI01
aI00
aI00
asS'total_steps'
p47
I23
sS'normalized_h_of_p_ui_given_um'
p48
(lp49
cnumpy.core.multiarray
scalar
p50
(cnumpy
dtype
p51
(S'f8'
p52
I0
I1
tp53
Rp54
(I3
S'<'
p55
NNNI-1
I-1
I0
tp56
bS'\x1a\x05\xb6\xec\xebN\xe3?'
p57
tp58
Rp59
ag50
(g54
S'Fu\xe9\x82\xab\xa8\xc7?'
p60
tp61
Rp62
ag50
(g54
S'D\xd9\x1e\x1e\x10\xa1\xea?'
p63
tp64
Rp65
ag50
(g54
S'>W8}\xb8\xb7\xde?'
p66
tp67
Rp68
ag50
(g54
S'Fu\xe9\x82\xab\xa8\xc7?'
p69
tp70
Rp71
ag50
(g54
S'\xbfd<\xed\x0c>\xea?'
p72
tp73
Rp74
ag50
(g54
S'\xc1\xba\x91l\xda\xd0\xa8?'
p75
tp76
Rp77
ag50
(g54
S'r\xd6\t\xd8\x1e\xc0\xc2?'
p78
tp79
Rp80
ag50
(g54
S'Fu\xe9\x82\xab\xa8\xc7?'
p81
tp82
Rp83
ag50
(g54
S'|9|\x14lp\xe8?'
p84
tp85
Rp86
ag50
(g54
S'\xe0R\x86#\x08\x1b\xe4?'
p87
tp88
Rp89
ag50
(g54
S'S\xbf\xa7(<\xed\xe0?'
p90
tp91
Rp92
ag50
(g54
S'\xc1\xba\x91l\xda\xd0\xa8?'
p93
tp94
Rp95
ag50
(g54
S'\xbfd<\xed\x0c>\xea?'
p96
tp97
Rp98
ag50
(g54
S'X\x1fy\xbf\xfe(\xe7?'
p99
tp100
Rp101
ag50
(g54
S'\xc1\xba\x91l\xda\xd0\xa8?'
p102
tp103
Rp104
ag50
(g54
S'r\xd6\t\xd8\x1e\xc0\xc2?'
p105
tp106
Rp107
ag50
(g54
S'\xc1\xba\x91l\xda\xd0\xa8?'
p108
tp109
Rp110
ag50
(g54
S'r\xd6\t\xd8\x1e\xc0\xc2?'
p111
tp112
Rp113
ag50
(g54
S'\xc1\xba\x91l\xda\xd0\xa8?'
p114
tp115
Rp116
ag50
(g54
S'|9|\x14lp\xe8?'
p117
tp118
Rp119
ag50
(g54
S'\xfd\x19\xc5\xae.\x1b\xe3?'
p120
tp121
Rp122
ag50
(g54
S'S\xbf\xa7(<\xed\xe0?'
p123
tp124
Rp125
asS'sp'
p126
(lp127
(S'p0'
p128
I0
S't'
p129
tp130
a(g128
I0
S'y'
p131
tp132
a(g128
I0
g131
tp133
a(g128
I0
g129
tp134
ag132
a(g128
I0
S'x'
p135
tp136
a(g128
I0
g131
tp137
a(S'p1'
p138
I0
g131
tp139
a(g138
I0
g135
tp140
a(g138
I0
g129
tp141
a(g138
I0
g135
tp142
a(S'p2'
p143
I0
g135
tp144
a(g143
I0
g131
tp145
a(g143
I0
g135
tp146
a(g143
I0
g135
tp147
ag145
a(S'p3'
p148
I0
g131
tp149
a(g148
I0
g129
tp150
a(g148
F1.5707963267948966
g129
tp151
a(g148
F1.5707963267948966
g135
tp152
a(g148
F1.5707963267948966
g129
tp153
ag152
a(S'p4'
p154
F1.5707963267948966
g135
tp155
asS's'
p156
(lp157
(g128
I0
g22
tp158
ag130
ag132
ag133
ag134
ag132
ag136
ag137
ag139
ag140
ag141
ag142
ag144
ag145
ag146
ag147
ag145
ag149
ag150
ag151
ag152
ag153
ag152
asS'ui'
p159
(lp160
S'ss'
p161
aS'hs'
p162
ag162
aS'hp'
p163
ag162
ag126
ag163
ag161
ag162
ag161
ag161
ag161
ag163
ag126
ag161
ag163
ag126
ag163
ag126
ag163
ag162
ag162
ag161
asS'um_before'
p164
(lp165
g161
ag162
ag161
ag163
ag162
ag162
ag163
ag126
ag162
ag162
ag161
ag126
ag163
ag162
ag126
ag163
ag126
ag163
ag126
ag163
ag162
ag162
ag126
asS'um_after'
p166
(lp167
g161
ag162
ag161
ag163
ag162
ag162
ag163
ag126
ag162
ag162
ag163
ag161
ag163
ag162
ag126
ag163
ag126
ag163
ag126
ag163
ag162
ag163
ag161
asS'is_normalized_entropy_less_than_threshold'
p168
(lp169
g50
(g51
(S'b1'
p170
I0
I1
tp171
Rp172
(I3
S'|'
p173
NNNI-1
I-1
I0
tp174
bS'\x01'
p175
tp176
Rp177
ag177
ag50
(g172
S'\x00'
p178
tp179
Rp180
ag177
ag177
ag180
ag177
ag177
ag177
ag177
ag177
ag177
ag177
ag180
ag177
ag177
ag177
ag177
ag177
ag177
ag177
ag177
ag177
asaa(lp181
S'index'
p182
aI55482
aatp183
Rp184
.