ccollections
OrderedDict
p0
((lp1
(lp2
S'combination_dict'
p3
ag0
((lp4
(lp5
S'r_to_g_config'
p6
aS'br'
p7
aa(lp8
S'num_turns'
p9
aI3
aa(lp10
S'start_direction'
p11
acutils_ms
StartDirection
p12
(I1
tp13
Rp14
aa(lp15
S'assistance_type'
p16
acutils_ms
AssistanceType
p17
(I1
tp18
Rp19
aa(lp20
S'start_mode'
p21
aS'x'
p22
aa(lp23
S'ui_given_a_noise'
p24
aF0.7
aa(lp25
S'um_given_ui_noise'
p26
aF0.5
aa(lp27
S'entropy_threshold'
p28
aF0.5
aatp29
Rp30
aa(lp31
S'data'
p32
accollections
defaultdict
p33
(c__builtin__
list
p34
tp35
Rp36
S'a'
p37
(lp38
S'mode_r'
p39
ag39
aS'mode_l'
p40
aS'move_n'
p41
ag39
ag39
ag39
ag40
ag41
ag39
ag39
ag39
ag39
ag40
ag40
ag40
ag41
ag39
ag41
ag39
ag39
ag40
ag40
ag39
ag39
ag41
ag40
ag39
ag39
aS'move_p'
p42
ag39
ag40
ag40
ag41
ag39
ag40
ag41
ag40
ag40
ag39
ag39
ag39
ag39
ag39
ag40
ag40
ag40
ag39
ag40
ag40
ag42
ag39
ag40
ag42
ag40
ag40
ag39
ag42
ag39
ag40
ag40
ag40
ag40
ag40
ag40
ag39
ag39
ag39
ag39
ag40
ag39
ag40
ag40
ag40
ag42
ag40
ag40
ag39
ag40
ag40
ag42
asS'assistance_match_with_ground_truth'
p43
(lp44
I00
aI00
aI01
aI00
aI00
aI00
aI00
aI01
aI00
aI00
aI00
aI00
aI00
aI00
aI00
aI01
aI00
aI01
aI00
aI00
aI00
aI00
aI00
aI00
aI01
aI01
aI00
aI00
aI01
aI00
aI00
aI00
aI01
aI00
aI00
aI01
aI01
aI00
aI00
aI00
aI00
aI00
aI00
aI00
aI00
aI00
aI00
aI00
aI00
aI01
aI00
aI00
aI01
aI01
aI00
aI00
aI01
aI00
aI00
aI00
aI00
aI00
aI00
aI00
aI00
aI00
aI00
aI00
aI00
aI00
aI00
aI00
aI00
aI01
aI01
aI00
aI00
aI00
aI00
aI01
aI01
asS'is_u_intended_equals_um'
p45
(lp46
I01
aI01
aI01
aI01
aI01
aI01
aI01
aI01
aI01
aI01
aI01
aI01
aI01
aI01
aI01
aI01
aI01
aI01
aI01
aI01
aI01
aI01
aI01
aI01
aI01
aI01
aI01
aI01
aI01
aI01
aI01
aI01
aI01
aI01
aI01
aI01
aI01
aI01
aI01
aI01
aI01
aI01
aI01
aI01
aI01
aI01
aI01
aI01
aI01
aI01
aI01
aI01
aI01
aI01
aI01
aI01
aI01
aI01
aI01
aI01
aI01
aI01
aI01
aI01
aI01
aI01
aI01
aI01
aI01
aI01
aI01
aI01
aI01
aI01
aI01
aI01
aI01
aI01
aI01
aI01
aI01
asS'total_steps'
p47
I81
sS'normalized_h_of_p_ui_given_um'
p48
(lp49
cnumpy.core.multiarray
scalar
p50
(cnumpy
dtype
p51
(S'f8'
p52
I0
I1
tp53
Rp54
(I3
S'<'
p55
NNNI-1
I-1
I0
tp56
bS'\x1cc\xae\x9b\x94\x8b\xec?'
p57
tp58
Rp59
ag50
(g54
S'v\xe6/\x0e\xe8M\xea?'
p60
tp61
Rp62
ag50
(g54
S'7\xaft\xbb\x7f\x1c\xde?'
p63
tp64
Rp65
ag50
(g54
S'X\xae\xde\xda\xf5\x16\xe4?'
p66
tp67
Rp68
ag50
(g54
S'\x1cc\xae\x9b\x94\x8b\xec?'
p69
tp70
Rp71
ag50
(g54
S'\x1cc\xae\x9b\x94\x8b\xec?'
p72
tp73
Rp74
ag50
(g54
S'v\xe6/\x0e\xe8M\xea?'
p75
tp76
Rp77
ag50
(g54
S'7\xaft\xbb\x7f\x1c\xde?'
p78
tp79
Rp80
ag50
(g54
S'X\xae\xde\xda\xf5\x16\xe4?'
p81
tp82
Rp83
ag50
(g54
S'{\x13\xd4\xe5\xc6V\xe6?'
p84
tp85
Rp86
ag50
(g54
S'{\x13\xd4\xe5\xc6V\xe6?'
p87
tp88
Rp89
ag50
(g54
S'\x1cc\xae\x9b\x94\x8b\xec?'
p90
tp91
Rp92
ag50
(g54
S'v\xe6/\x0e\xe8M\xea?'
p93
tp94
Rp95
ag50
(g54
S'[\xea\xce\xf8\xd2\x10\xe8?'
p96
tp97
Rp98
ag50
(g54
S'[\xea\xce\xf8\xd2\x10\xe8?'
p99
tp100
Rp101
ag50
(g54
S'7\xaft\xbb\x7f\x1c\xde?'
p102
tp103
Rp104
ag50
(g54
S'X\xae\xde\xda\xf5\x16\xe4?'
p105
tp106
Rp107
ag50
(g54
S'\x88\x87\xd5\xa1r1\xe5?'
p108
tp109
Rp110
ag50
(g54
S'X\xae\xde\xda\xf5\x16\xe4?'
p111
tp112
Rp113
ag50
(g54
S'{\x13\xd4\xe5\xc6V\xe6?'
p114
tp115
Rp116
ag50
(g54
S'v\xe6/\x0e\xe8M\xea?'
p117
tp118
Rp119
ag50
(g54
S'[\xea\xce\xf8\xd2\x10\xe8?'
p120
tp121
Rp122
ag50
(g54
S'\x8egq\xa4\xe0\xca\xe9?'
p123
tp124
Rp125
ag50
(g54
S'{\x13\xd4\xe5\xc6V\xe6?'
p126
tp127
Rp128
ag50
(g54
S'\x88\x87\xd5\xa1r1\xe5?'
p129
tp130
Rp131
ag50
(g54
S'\xf1O\xd1\x87\x1a\xe3\xdb?'
p132
tp133
Rp134
ag50
(g54
S'\x8egq\xa4\xe0\xca\xe9?'
p135
tp136
Rp137
ag50
(g54
S'{\x13\xd4\xe5\xc6V\xe6?'
p138
tp139
Rp140
ag50
(g54
S'\x88\x87\xd5\xa1r1\xe5?'
p141
tp142
Rp143
ag50
(g54
S'w\xe4\xe5\x9c\xef\x13\xe6?'
p144
tp145
Rp146
ag50
(g54
S'v\xe6/\x0e\xe8M\xea?'
p147
tp148
Rp149
ag50
(g54
S'EJp\xb0\xf5t\xef?'
p150
tp151
Rp152
ag50
(g54
S'7\xaft\xbb\x7f\x1c\xde?'
p153
tp154
Rp155
ag50
(g54
S'X\xae\xde\xda\xf5\x16\xe4?'
p156
tp157
Rp158
ag50
(g54
S'v\xe6/\x0e\xe8M\xea?'
p159
tp160
Rp161
ag50
(g54
S'7\xaft\xbb\x7f\x1c\xde?'
p162
tp163
Rp164
ag50
(g54
S'\xf1O\xd1\x87\x1a\xe3\xdb?'
p165
tp166
Rp167
ag50
(g54
S'[\xea\xce\xf8\xd2\x10\xe8?'
p168
tp169
Rp170
ag50
(g54
S'\x8egq\xa4\xe0\xca\xe9?'
p171
tp172
Rp173
ag50
(g54
S'{\x13\xd4\xe5\xc6V\xe6?'
p174
tp175
Rp176
ag50
(g54
S'\x1cc\xae\x9b\x94\x8b\xec?'
p177
tp178
Rp179
ag50
(g54
S'\x1cc\xae\x9b\x94\x8b\xec?'
p180
tp181
Rp182
ag50
(g54
S'{\x13\xd4\xe5\xc6V\xe6?'
p183
tp184
Rp185
ag50
(g54
S'v\xe6/\x0e\xe8M\xea?'
p186
tp187
Rp188
ag50
(g54
S'EJp\xb0\xf5t\xef?'
p189
tp190
Rp191
ag50
(g54
S'[\xea\xce\xf8\xd2\x10\xe8?'
p192
tp193
Rp194
ag50
(g54
S'\x8egq\xa4\xe0\xca\xe9?'
p195
tp196
Rp197
ag50
(g54
S'v\xe6/\x0e\xe8M\xea?'
p198
tp199
Rp200
ag50
(g54
S'[\xea\xce\xf8\xd2\x10\xe8?'
p201
tp202
Rp203
ag50
(g54
S'7\xaft\xbb\x7f\x1c\xde?'
p204
tp205
Rp206
ag50
(g54
S'Au~\xfb6\xd5\xe4?'
p207
tp208
Rp209
ag50
(g54
S'v\xe6/\x0e\xe8M\xea?'
p210
tp211
Rp212
ag50
(g54
S'7\xaft\xbb\x7f\x1c\xde?'
p213
tp214
Rp215
ag50
(g54
S'-v\xf3\xef\xd1b\xdb?'
p216
tp217
Rp218
ag50
(g54
S'[\xea\xce\xf8\xd2\x10\xe8?'
p219
tp220
Rp221
ag50
(g54
S'\x8egq\xa4\xe0\xca\xe9?'
p222
tp223
Rp224
ag50
(g54
S'\x88\x87\xd5\xa1r1\xe5?'
p225
tp226
Rp227
ag50
(g54
S'Au~\xfb6\xd5\xe4?'
p228
tp229
Rp230
ag50
(g54
S'{\x13\xd4\xe5\xc6V\xe6?'
p231
tp232
Rp233
ag50
(g54
S'[\xea\xce\xf8\xd2\x10\xe8?'
p234
tp235
Rp236
ag50
(g54
S'EJp\xb0\xf5t\xef?'
p237
tp238
Rp239
ag50
(g54
S'[\xea\xce\xf8\xd2\x10\xe8?'
p240
tp241
Rp242
ag50
(g54
S'[\xea\xce\xf8\xd2\x10\xe8?'
p243
tp244
Rp245
ag50
(g54
S'EJp\xb0\xf5t\xef?'
p246
tp247
Rp248
ag50
(g54
S'\x8egq\xa4\xe0\xca\xe9?'
p249
tp250
Rp251
ag50
(g54
S'\x1cc\xae\x9b\x94\x8b\xec?'
p252
tp253
Rp254
ag50
(g54
S'{\x13\xd4\xe5\xc6V\xe6?'
p255
tp256
Rp257
ag50
(g54
S'\x1cc\xae\x9b\x94\x8b\xec?'
p258
tp259
Rp260
ag50
(g54
S'v\xe6/\x0e\xe8M\xea?'
p261
tp262
Rp263
ag50
(g54
S'\x8egq\xa4\xe0\xca\xe9?'
p264
tp265
Rp266
ag50
(g54
S'v\xe6/\x0e\xe8M\xea?'
p267
tp268
Rp269
ag50
(g54
S'[\xea\xce\xf8\xd2\x10\xe8?'
p270
tp271
Rp272
ag50
(g54
S'[\xea\xce\xf8\xd2\x10\xe8?'
p273
tp274
Rp275
ag50
(g54
S'7\xaft\xbb\x7f\x1c\xde?'
p276
tp277
Rp278
ag50
(g54
S'-v\xf3\xef\xd1b\xdb?'
p279
tp280
Rp281
ag50
(g54
S'EJp\xb0\xf5t\xef?'
p282
tp283
Rp284
ag50
(g54
S'\x8egq\xa4\xe0\xca\xe9?'
p285
tp286
Rp287
ag50
(g54
S'\x1cc\xae\x9b\x94\x8b\xec?'
p288
tp289
Rp290
ag50
(g54
S'[\xea\xce\xf8\xd2\x10\xe8?'
p291
tp292
Rp293
ag50
(g54
S'7\xaft\xbb\x7f\x1c\xde?'
p294
tp295
Rp296
ag50
(g54
S'-v\xf3\xef\xd1b\xdb?'
p297
tp298
Rp299
asS'sp'
p300
(lp301
(S'p0'
p302
I0
S'x'
p303
tp304
a(g302
I0
S't'
p305
tp306
a(g302
I0
S'y'
p307
tp308
a(g302
I0
g303
tp309
ag304
ag304
ag306
ag308
ag309
a(g302
I0
g303
tp310
ag310
ag304
ag306
a(g302
I0
g305
tp311
ag311
ag308
ag309
a(g302
I0
g307
tp312
ag309
ag310
ag306
ag311
a(g302
I0
g303
tp313
ag310
ag312
a(S'p1'
p314
I0
g307
tp315
a(g314
I0
g305
tp316
a(g314
I0
g305
tp317
a(g314
I0
g303
tp318
a(g302
I0
g303
tp319
ag306
a(g302
I0
g305
tp320
ag308
ag309
ag306
ag308
ag315
a(g314
I0
g307
tp321
ag316
ag317
a(g314
I0
g305
tp322
ag322
ag317
a(g314
I0
g307
tp323
a(g314
I0
g307
tp324
ag321
ag316
ag323
ag321
a(g314
I0
g303
tp325
a(g314
I0
g305
tp326
ag323
ag325
a(S'p2'
p327
I0
g303
tp328
a(g327
I0
g303
tp329
a(g327
I0
g307
tp330
a(g327
I0
g305
tp331
a(g327
I0
g307
tp332
a(g314
I0
g307
tp333
ag321
ag324
ag321
ag321
ag324
ag316
ag322
ag317
ag322
ag323
ag316
ag323
ag321
ag321
ag325
ag328
a(g327
I0
g303
tp334
ag330
a(S'p3'
p335
I0
g307
tp336
a(g335
I0
g307
tp337
a(g335
I0
g303
tp338
a(S'p4'
p339
I0
g303
tp340
asS's'
p341
(lp342
(g302
I0
g22
tp343
ag304
ag306
ag308
ag309
ag304
ag304
ag306
ag308
ag309
ag310
ag310
ag304
ag306
ag311
ag311
ag308
ag309
ag312
ag309
ag310
ag306
ag311
ag313
ag310
ag312
ag315
ag316
ag317
ag318
ag319
ag306
ag320
ag308
ag309
ag306
ag308
ag315
ag321
ag316
ag317
ag322
ag322
ag317
ag323
ag324
ag321
ag316
ag323
ag321
ag325
ag326
ag323
ag325
ag328
ag329
ag330
ag331
ag332
ag333
ag321
ag324
ag321
ag321
ag324
ag316
ag322
ag317
ag322
ag323
ag316
ag323
ag321
ag321
ag325
ag328
ag334
ag330
ag336
ag337
ag338
asS'ui'
p344
(lp345
S'ss'
p346
aS'hs'
p347
ag347
ag347
aS'hp'
p348
ag346
ag346
ag347
ag347
ag348
ag348
ag300
ag346
ag347
ag300
ag347
ag347
ag346
ag347
ag348
ag348
ag348
ag348
ag300
ag348
ag346
ag347
ag300
ag348
ag300
ag347
ag348
ag347
ag347
ag300
ag347
ag300
ag300
ag300
ag346
ag346
ag300
ag300
ag347
ag347
ag300
ag348
ag348
ag347
ag347
ag347
ag348
ag347
ag300
ag347
ag348
ag348
ag347
ag348
ag348
ag348
ag300
ag300
ag346
ag348
ag300
ag348
ag348
ag348
ag347
ag346
ag347
ag300
ag347
ag347
ag300
ag348
ag346
ag347
ag347
ag300
asS'um_before'
p349
(lp350
g346
ag347
ag347
ag347
ag346
ag346
ag347
ag347
ag347
ag300
ag300
ag346
ag347
ag300
ag300
ag347
ag347
ag348
ag347
ag300
ag347
ag300
ag348
ag300
ag348
ag346
ag348
ag300
ag348
ag346
ag347
ag346
ag347
ag347
ag347
ag347
ag346
ag300
ag348
ag300
ag346
ag346
ag300
ag347
ag346
ag300
ag348
ag347
ag300
ag347
ag347
ag347
ag347
ag300
ag300
ag348
ag348
ag347
ag300
ag300
ag346
ag300
ag300
ag346
ag348
ag346
ag300
ag346
ag347
ag348
ag347
ag300
ag300
ag347
ag300
ag346
ag348
ag346
ag300
ag347
ag300
asS'um_after'
p351
(lp352
g346
ag347
ag347
ag347
ag346
ag346
ag347
ag347
ag347
ag300
ag300
ag346
ag347
ag300
ag300
ag347
ag347
ag348
ag347
ag300
ag347
ag300
ag348
ag300
ag348
ag346
ag348
ag300
ag348
ag346
ag347
ag346
ag347
ag347
ag347
ag347
ag346
ag300
ag348
ag300
ag346
ag346
ag300
ag347
ag346
ag300
ag348
ag347
ag300
ag347
ag347
ag347
ag347
ag300
ag300
ag348
ag348
ag347
ag300
ag300
ag346
ag300
ag300
ag346
ag348
ag346
ag300
ag346
ag347
ag348
ag347
ag300
ag300
ag347
ag300
ag346
ag348
ag346
ag300
ag347
ag300
asS'is_normalized_entropy_less_than_threshold'
p353
(lp354
g50
(g51
(S'b1'
p355
I0
I1
tp356
Rp357
(I3
S'|'
p358
NNNI-1
I-1
I0
tp359
bS'\x00'
p360
tp361
Rp362
ag362
ag50
(g357
S'\x01'
p363
tp364
Rp365
ag362
ag362
ag362
ag362
ag365
ag362
ag362
ag362
ag362
ag362
ag362
ag362
ag365
ag362
ag362
ag362
ag362
ag362
ag362
ag362
ag362
ag362
ag365
ag362
ag362
ag362
ag362
ag362
ag362
ag365
ag362
ag362
ag365
ag365
ag362
ag362
ag362
ag362
ag362
ag362
ag362
ag362
ag362
ag362
ag362
ag362
ag365
ag362
ag362
ag365
ag365
ag362
ag362
ag362
ag362
ag362
ag362
ag362
ag362
ag362
ag362
ag362
ag362
ag362
ag362
ag362
ag362
ag362
ag362
ag362
ag365
ag365
ag362
ag362
ag362
ag362
ag365
ag365
asaa(lp366
S'index'
p367
aI112709
aatp368
Rp369
.