ccollections
OrderedDict
p0
((lp1
(lp2
S'combination_dict'
p3
ag0
((lp4
(lp5
S'r_to_g_config'
p6
aS'bl'
p7
aa(lp8
S'num_turns'
p9
aI1
aa(lp10
S'start_direction'
p11
acutils_ms
StartDirection
p12
(I0
tp13
Rp14
aa(lp15
S'assistance_type'
p16
acutils_ms
AssistanceType
p17
(I0
tp18
Rp19
aa(lp20
S'start_mode'
p21
aS't'
p22
aa(lp23
S'ui_given_a_noise'
p24
aF0.5
aa(lp25
S'um_given_ui_noise'
p26
aF0.5
aa(lp27
S'entropy_threshold'
p28
aF0.9
aatp29
Rp30
aa(lp31
S'data'
p32
accollections
defaultdict
p33
(c__builtin__
list
p34
tp35
Rp36
S'a'
p37
(lp38
S'mode_r'
p39
aS'move_n'
p40
ag40
ag39
ag39
ag39
ag39
ag40
ag40
ag40
aS'mode_l'
p41
ag41
ag41
aS'move_p'
p42
ag41
ag40
ag40
asS'assistance_match_with_ground_truth'
p43
(lp44
I01
aI00
aI00
aI00
aI00
aI00
aI01
aI00
aI00
aI01
aI00
aI00
aI01
aI01
aI01
aI00
aI01
asS'is_u_intended_equals_um'
p45
(lp46
I01
aI00
aI00
aI00
aI00
aI00
aI01
aI00
aI00
aI01
aI01
aI01
aI01
aI01
aI01
aI00
aI01
asS'total_steps'
p47
I17
sS'normalized_h_of_p_ui_given_um'
p48
(lp49
cnumpy.core.multiarray
scalar
p50
(cnumpy
dtype
p51
(S'f8'
p52
I0
I1
tp53
Rp54
(I3
S'<'
p55
NNNI-1
I-1
I0
tp56
bS'\xa1\x81\x93"\x10\xcf\xb0?'
p57
tp58
Rp59
ag50
(g54
S'\x8c\x96\xa7\xb3\xef\x83\xe4?'
p60
tp61
Rp62
ag50
(g54
S'VI\xec\x19\xe8u\xee?'
p63
tp64
Rp65
ag50
(g54
S'\x16C,"fj\xd4?'
p66
tp67
Rp68
ag50
(g54
S'\x16C,"fj\xd4?'
p69
tp70
Rp71
ag50
(g54
S'DC \xacdk\xd9?'
p72
tp73
Rp74
ag50
(g54
S'\xa1\x81\x93"\x10\xcf\xb0?'
p75
tp76
Rp77
ag50
(g54
S'\x8c\x96\xa7\xb3\xef\x83\xe4?'
p78
tp79
Rp80
ag50
(g54
S'\x8c\x96\xa7\xb3\xef\x83\xe4?'
p81
tp82
Rp83
ag50
(g54
S'B\xd3\x93\x17\xbe\x1e\xd2?'
p84
tp85
Rp86
ag50
(g54
S'\xbe\xc3\x04\xcf\x05]\xe5?'
p87
tp88
Rp89
ag50
(g54
S'\xbe\xc3\x04\xcf\x05]\xe5?'
p90
tp91
Rp92
ag50
(g54
S'\x85\x16\x16%&\xdd\xdb?'
p93
tp94
Rp95
ag50
(g54
S'\x00\x95\xb8\x91\x14\x1e\xe0?'
p96
tp97
Rp98
ag50
(g54
S'\x85\x16\x16%&\xdd\xdb?'
p99
tp100
Rp101
ag50
(g54
S'\x10b\xe8\xbe9\xc4\xe6?'
p102
tp103
Rp104
ag50
(g54
S'B\xd3\x93\x17\xbe\x1e\xd2?'
p105
tp106
Rp107
asS'sp'
p108
(lp109
(S'p0'
p110
I0
S'x'
p111
tp112
ag112
a(g110
I0
S't'
p113
tp114
ag114
ag114
ag114
ag112
ag112
ag112
a(S'p1'
p115
I0
g111
tp116
a(g115
I0
g111
tp117
ag117
a(g115
I0
g113
tp118
a(g115
F1.5707963267948966
g113
tp119
a(g115
F1.5707963267948966
S'y'
p120
tp121
ag121
a(S'p2'
p122
F1.5707963267948966
g120
tp123
asS's'
p124
(lp125
(g110
I0
g22
tp126
ag112
ag112
ag114
ag114
ag114
ag114
ag112
ag112
ag112
ag116
ag117
ag117
ag118
ag119
ag121
ag121
asS'ui'
p127
(lp128
S'hp'
p129
ag108
aS'hs'
p130
ag129
ag129
ag129
ag129
ag108
aS'ss'
p131
ag131
ag108
ag130
ag130
ag108
ag108
ag131
ag131
asS'um_before'
p132
(lp133
g129
ag108
ag130
ag130
ag130
ag131
ag129
ag108
ag108
ag131
ag108
ag108
ag130
ag108
ag130
ag129
ag131
asS'um_after'
p134
(lp135
g129
aNag130
aNaNaNag129
aNaNag131
ag108
ag108
ag130
ag108
ag130
aNag131
asS'is_normalized_entropy_less_than_threshold'
p136
(lp137
g50
(g51
(S'b1'
p138
I0
I1
tp139
Rp140
(I3
S'|'
p141
NNNI-1
I-1
I0
tp142
bS'\x01'
p143
tp144
Rp145
ag145
ag50
(g140
S'\x00'
p146
tp147
Rp148
ag145
ag145
ag145
ag145
ag145
ag145
ag145
ag145
ag145
ag145
ag145
ag145
ag145
ag145
asaa(lp149
S'index'
p150
aI58145
aatp151
Rp152
.