ccollections
OrderedDict
p0
((lp1
(lp2
S'combination_dict'
p3
ag0
((lp4
(lp5
S'r_to_g_config'
p6
aS'tr'
p7
aa(lp8
S'num_turns'
p9
aI1
aa(lp10
S'start_direction'
p11
acutils_ms
StartDirection
p12
(I1
tp13
Rp14
aa(lp15
S'assistance_type'
p16
acutils_ms
AssistanceType
p17
(I1
tp18
Rp19
aa(lp20
S'start_mode'
p21
aS't'
p22
aa(lp23
S'ui_given_a_noise'
p24
aF0.7
aa(lp25
S'um_given_ui_noise'
p26
aF0.5
aa(lp27
S'entropy_threshold'
p28
aF0.7
aatp29
Rp30
aa(lp31
S'data'
p32
accollections
defaultdict
p33
(c__builtin__
list
p34
tp35
Rp36
S'a'
p37
(lp38
S'mode_l'
p39
ag39
aS'move_p'
p40
aS'mode_r'
p41
ag41
ag41
ag40
ag40
ag41
ag41
ag39
ag40
ag41
ag40
ag40
ag40
ag39
ag39
ag40
ag39
ag41
ag39
ag40
asS'assistance_match_with_ground_truth'
p42
(lp43
I00
aI01
aI01
aI00
aI00
aI01
aI00
aI01
aI00
aI00
aI01
aI00
aI01
aI00
aI00
aI01
aI00
aI01
aI00
aI00
aI00
aI01
aI01
asS'is_u_intended_equals_um'
p44
(lp45
I01
aI01
aI01
aI00
aI00
aI01
aI00
aI01
aI00
aI00
aI01
aI00
aI01
aI00
aI00
aI01
aI01
aI01
aI01
aI00
aI00
aI01
aI01
asS'total_steps'
p46
I23
sS'normalized_h_of_p_ui_given_um'
p47
(lp48
cnumpy.core.multiarray
scalar
p49
(cnumpy
dtype
p50
(S'f8'
p51
I0
I1
tp52
Rp53
(I3
S'<'
p54
NNNI-1
I-1
I0
tp55
bS'\x96\xdf{\xa6}\xe2\xe7?'
p56
tp57
Rp58
ag49
(g53
S'"S\xac+\xb0\xac\xe0?'
p59
tp60
Rp61
ag49
(g53
S'\xbcV`\xc8\xb5a\xde?'
p62
tp63
Rp64
ag49
(g53
S'?#\x9e\xda\x12v\xe6?'
p65
tp66
Rp67
ag49
(g53
S'?#\x9e\xda\x12v\xe6?'
p68
tp69
Rp70
ag49
(g53
S'\xa7\x14\xc5\x00\xcc\xae\xda?'
p71
tp72
Rp73
ag49
(g53
S'9KO\x17\x8eG\xe8?'
p74
tp75
Rp76
ag49
(g53
S'\xbcV`\xc8\xb5a\xde?'
p77
tp78
Rp79
ag49
(g53
S'?#\x9e\xda\x12v\xe6?'
p80
tp81
Rp82
ag49
(g53
S'`O\xa0B\xa4\xc4\xea?'
p83
tp84
Rp85
ag49
(g53
S'"S\xac+\xb0\xac\xe0?'
p86
tp87
Rp88
ag49
(g53
S'9KO\x17\x8eG\xe8?'
p89
tp90
Rp91
ag49
(g53
S'\xa7\x14\xc5\x00\xcc\xae\xda?'
p92
tp93
Rp94
ag49
(g53
S'9KO\x17\x8eG\xe8?'
p95
tp96
Rp97
ag49
(g53
S'9KO\x17\x8eG\xe8?'
p98
tp99
Rp100
ag49
(g53
S'\xbcV`\xc8\xb5a\xde?'
p101
tp102
Rp103
ag49
(g53
S'\x96\xdf{\xa6}\xe2\xe7?'
p104
tp105
Rp106
ag49
(g53
S'"S\xac+\xb0\xac\xe0?'
p107
tp108
Rp109
ag49
(g53
S'\x11\x91\xd1\xcc\x97\x15\xe2?'
p110
tp111
Rp112
ag49
(g53
S'yy\xf9A\xcf\xd7\xec?'
p113
tp114
Rp115
ag49
(g53
S'`O\xa0B\xa4\xc4\xea?'
p116
tp117
Rp118
ag49
(g53
S'"S\xac+\xb0\xac\xe0?'
p119
tp120
Rp121
ag49
(g53
S'\xbcV`\xc8\xb5a\xde?'
p122
tp123
Rp124
asS'sp'
p125
(lp126
(S'p0'
p127
I0
S't'
p128
tp129
a(g127
I0
S'y'
p130
tp131
a(S'p1'
p132
I0
g130
tp133
a(g132
I0
g130
tp134
ag134
a(g132
I0
g128
tp135
a(g132
I0
g128
tp136
a(g132
F1.5707963267948966
g128
tp137
a(g132
F1.5707963267948966
g128
tp138
a(g132
F1.5707963267948966
g130
tp139
a(g132
F1.5707963267948966
S'x'
p140
tp141
a(g127
F1.5707963267948966
g140
tp142
a(g127
F1.5707963267948966
g130
tp143
a(g127
F1.5707963267948966
g130
tp144
ag144
a(g132
F1.5707963267948966
g130
tp145
a(g132
F1.5707963267948966
g130
tp146
ag141
a(g132
F1.5707963267948966
g130
tp147
a(g132
F1.5707963267948966
g128
tp148
ag139
ag141
a(S'p2'
p149
F1.5707963267948966
g140
tp150
asS's'
p151
(lp152
(g127
I0
g22
tp153
ag129
ag131
ag133
ag134
ag134
ag135
ag136
ag137
ag138
ag139
ag141
ag142
ag143
ag144
ag144
ag145
ag146
ag141
ag147
ag148
ag139
ag141
asS'ui'
p154
(lp155
g125
aS'hs'
p156
ag125
aS'hp'
p157
ag157
ag125
ag125
ag157
ag157
ag156
ag156
aS'ss'
p158
ag157
ag158
ag125
ag125
ag156
ag156
ag157
ag157
ag156
ag156
ag157
asS'um_before'
p159
(lp160
g125
ag156
ag125
ag125
ag125
ag157
ag158
ag125
ag125
ag156
ag156
ag158
ag157
ag158
ag158
ag125
ag125
ag156
ag157
ag157
ag156
ag156
ag125
asS'um_after'
p161
(lp162
g125
ag156
ag125
ag125
ag125
ag157
ag158
ag125
ag125
ag156
ag156
ag158
ag157
ag158
ag158
ag125
ag125
ag156
ag157
ag157
ag156
ag156
ag125
asS'is_normalized_entropy_less_than_threshold'
p163
(lp164
g49
(g50
(S'b1'
p165
I0
I1
tp166
Rp167
(I3
S'|'
p168
NNNI-1
I-1
I0
tp169
bS'\x00'
p170
tp171
Rp172
ag49
(g167
S'\x01'
p173
tp174
Rp175
ag175
ag172
ag172
ag175
ag172
ag175
ag172
ag172
ag175
ag172
ag175
ag172
ag172
ag175
ag172
ag175
ag175
ag172
ag172
ag175
ag175
asaa(lp176
S'index'
p177
aI7925
aatp178
Rp179
.