ccollections
OrderedDict
p0
((lp1
(lp2
S'combination_dict'
p3
ag0
((lp4
(lp5
S'r_to_g_config'
p6
aS'tl'
p7
aa(lp8
S'num_turns'
p9
aI2
aa(lp10
S'start_direction'
p11
acutils_ms
StartDirection
p12
(I1
tp13
Rp14
aa(lp15
S'assistance_type'
p16
acutils_ms
AssistanceType
p17
(I1
tp18
Rp19
aa(lp20
S'start_mode'
p21
aS'x'
p22
aa(lp23
S'ui_given_a_noise'
p24
aF0.5
aa(lp25
S'um_given_ui_noise'
p26
aF0.1
aa(lp27
S'entropy_threshold'
p28
aF0.7
aatp29
Rp30
aa(lp31
S'data'
p32
accollections
defaultdict
p33
(c__builtin__
list
p34
tp35
Rp36
S'a'
p37
(lp38
S'mode_r'
p39
aS'move_p'
p40
aS'mode_l'
p41
ag41
ag40
ag40
ag41
aS'move_n'
p42
ag41
ag39
ag39
ag42
ag39
ag41
ag42
ag41
ag41
ag40
ag41
ag40
ag41
ag40
ag39
ag40
ag41
ag40
asS'assistance_match_with_ground_truth'
p43
(lp44
I01
aI00
aI00
aI01
aI00
aI01
aI01
aI00
aI00
aI00
aI01
aI00
aI00
aI01
aI01
aI00
aI01
aI01
aI00
aI01
aI01
aI00
aI01
aI00
aI01
aI01
asS'is_u_intended_equals_um'
p45
(lp46
I01
aI01
aI01
aI01
aI01
aI01
aI01
aI01
aI01
aI01
aI01
aI01
aI01
aI01
aI01
aI01
aI01
aI01
aI01
aI01
aI01
aI01
aI01
aI01
aI01
aI01
asS'total_steps'
p47
I26
sS'normalized_h_of_p_ui_given_um'
p48
(lp49
cnumpy.core.multiarray
scalar
p50
(cnumpy
dtype
p51
(S'f8'
p52
I0
I1
tp53
Rp54
(I3
S'<'
p55
NNNI-1
I-1
I0
tp56
bS'\xa8R"m2,\xb7?'
p57
tp58
Rp59
ag50
(g54
S'\x84\xed\x88\x90\x84\x19\xe7?'
p60
tp61
Rp62
ag50
(g54
S'\x0b\x1a\x1c\xa7)\x98\xde?'
p63
tp64
Rp65
ag50
(g54
S'\xda}\x0e\x99\xbf\xad\xa6?'
p66
tp67
Rp68
ag50
(g54
S'q8.c\x85\x16\xe3?'
p69
tp70
Rp71
ag50
(g54
S'\xf6\xec[t3M\xc9?'
p72
tp73
Rp74
ag50
(g54
S'\xda}\x0e\x99\xbf\xad\xa6?'
p75
tp76
Rp77
ag50
(g54
S'B\xce\x97\\a#\xdb?'
p78
tp79
Rp80
ag50
(g54
S'\xc1\x8b;\xcf!(\xda?'
p81
tp82
Rp83
ag50
(g54
S'\xf4?"0\xb7\x96\xea?'
p84
tp85
Rp86
ag50
(g54
S'\xa8R"m2,\xb7?'
p87
tp88
Rp89
ag50
(g54
S'\x84\xf4\x8f\xb0\xa7#\xc5?'
p90
tp91
Rp92
ag50
(g54
S'3\xc4\\\x12l\xd6\xd3?'
p93
tp94
Rp95
ag50
(g54
S'\xda}\x0e\x99\xbf\xad\xa6?'
p96
tp97
Rp98
ag50
(g54
S'.\xfe\xb2^s\xeb\xc9?'
p99
tp100
Rp101
ag50
(g54
S'\x0b\x1a\x1c\xa7)\x98\xde?'
p102
tp103
Rp104
ag50
(g54
S'\xda}\x0e\x99\xbf\xad\xa6?'
p105
tp106
Rp107
ag50
(g54
S'\xf6\xec[t3M\xc9?'
p108
tp109
Rp110
ag50
(g54
S'\x0b\x1a\x1c\xa7)\x98\xde?'
p111
tp112
Rp113
ag50
(g54
S'\xf6\xec[t3M\xc9?'
p114
tp115
Rp116
ag50
(g54
S'\xda}\x0e\x99\xbf\xad\xa6?'
p117
tp118
Rp119
ag50
(g54
S'\xfe\xfe\xb7+\x12g\xac?'
p120
tp121
Rp122
ag50
(g54
S'\xa8R"m2,\xb7?'
p123
tp124
Rp125
ag50
(g54
S'\x84\xed\x88\x90\x84\x19\xe7?'
p126
tp127
Rp128
ag50
(g54
S'\xda}\x0e\x99\xbf\xad\xa6?'
p129
tp130
Rp131
ag50
(g54
S'\xf6\xec[t3M\xc9?'
p132
tp133
Rp134
asS'sp'
p135
(lp136
(S'p0'
p137
I0
S'y'
p138
tp139
a(g137
I0
S't'
p140
tp141
a(g137
I0
g140
tp142
a(g137
I0
g138
tp143
a(g137
I0
g138
tp144
a(S'p1'
p145
I0
g138
tp146
a(g145
I0
S'x'
p147
tp148
a(g145
I0
g138
tp149
a(g145
I0
g140
tp150
a(g145
I0
g140
tp151
a(g145
I0
g147
tp152
a(g145
I0
g140
tp153
a(g145
I0
g138
tp154
ag148
a(S'p2'
p155
I0
g147
tp156
a(g155
I0
g147
tp157
a(g155
I0
g140
tp158
a(g155
F1.5707963267948966
g140
tp159
a(g155
I0
g140
tp160
ag159
a(g155
F1.5707963267948966
g138
tp161
a(g155
F1.5707963267948966
g147
tp162
a(g155
F1.5707963267948966
g138
tp163
a(g155
F1.5707963267948966
g140
tp164
ag161
a(S'p3'
p165
F1.5707963267948966
g138
tp166
asS's'
p167
(lp168
(g137
I0
g22
tp169
ag139
ag141
ag142
ag143
ag144
ag146
ag148
ag149
ag150
ag151
ag152
ag153
ag154
ag148
ag156
ag157
ag158
ag159
ag160
ag159
ag161
ag162
ag163
ag164
ag161
asS'ui'
p170
(lp171
S'hp'
p172
ag172
aS'ss'
p173
aS'hs'
p174
ag173
ag135
ag174
ag172
ag172
ag172
ag172
ag174
ag174
ag174
ag173
ag173
ag174
ag135
ag173
ag135
ag174
ag174
ag172
ag172
ag174
ag135
asS'um_before'
p175
(lp176
g172
ag172
ag173
ag174
ag173
ag135
ag174
ag172
ag172
ag135
ag172
ag174
ag174
ag174
ag173
ag173
ag174
ag135
ag173
ag135
ag174
ag174
ag172
ag172
ag174
ag135
asS'um_after'
p177
(lp178
g172
ag172
ag173
ag174
ag173
ag135
ag174
ag172
ag172
ag135
ag172
ag174
ag174
ag174
ag173
ag173
ag174
ag135
ag173
ag135
ag174
ag174
ag172
ag172
ag174
ag135
asS'is_normalized_entropy_less_than_threshold'
p179
(lp180
g50
(g51
(S'b1'
p181
I0
I1
tp182
Rp183
(I3
S'|'
p184
NNNI-1
I-1
I0
tp185
bS'\x01'
p186
tp187
Rp188
ag50
(g183
S'\x00'
p189
tp190
Rp191
ag188
ag188
ag188
ag188
ag188
ag188
ag188
ag191
ag188
ag188
ag188
ag188
ag188
ag188
ag188
ag188
ag188
ag188
ag188
ag188
ag188
ag191
ag188
ag188
asaa(lp192
S'index'
p193
aI45222
aatp194
Rp195
.