ccollections
OrderedDict
p0
((lp1
(lp2
S'combination_dict'
p3
ag0
((lp4
(lp5
S'r_to_g_config'
p6
aS'bl'
p7
aa(lp8
S'num_turns'
p9
aI3
aa(lp10
S'start_direction'
p11
acutils_ms
StartDirection
p12
(I1
tp13
Rp14
aa(lp15
S'assistance_type'
p16
acutils_ms
AssistanceType
p17
(I2
tp18
Rp19
aa(lp20
S'start_mode'
p21
aS't'
p22
aa(lp23
S'ui_given_a_noise'
p24
aF0.1
aa(lp25
S'um_given_ui_noise'
p26
aF0.5
aa(lp27
S'entropy_threshold'
p28
aF0.6
aatp29
Rp30
aa(lp31
S'data'
p32
accollections
defaultdict
p33
(c__builtin__
list
p34
tp35
Rp36
S'a'
p37
(lp38
S'mode_l'
p39
aS'mode_r'
p40
ag40
ag40
aS'move_n'
p41
ag39
ag39
ag41
ag40
ag41
ag39
ag41
ag40
ag40
ag41
ag41
ag41
ag39
ag41
ag39
ag41
ag39
ag40
ag39
ag40
ag41
ag39
ag40
ag39
ag39
aS'move_p'
p42
ag42
ag39
ag42
ag39
ag42
ag39
ag41
ag39
ag41
ag39
ag40
ag41
ag40
ag40
ag41
ag40
ag41
ag39
ag39
ag41
ag40
ag41
ag39
ag39
ag41
asS'assistance_match_with_ground_truth'
p43
(lp44
I00
aI00
aI00
aI01
aI01
aI00
aI01
aI00
aI01
aI01
aI01
aI00
aI00
aI01
aI00
aI00
aI01
aI01
aI00
aI01
aI01
aI00
aI00
aI00
aI01
aI00
aI00
aI00
aI00
aI01
aI00
aI00
aI01
aI00
aI01
aI01
aI01
aI01
aI01
aI00
aI00
aI01
aI00
aI00
aI01
aI00
aI01
aI00
aI00
aI01
aI01
aI01
aI01
aI00
aI01
aI01
asS'is_u_intended_equals_um'
p45
(lp46
I00
aI00
aI00
aI00
aI00
aI00
aI00
aI00
aI00
aI00
aI00
aI00
aI00
aI00
aI00
aI00
aI00
aI00
aI00
aI00
aI00
aI00
aI00
aI00
aI00
aI00
aI00
aI00
aI00
aI00
aI00
aI00
aI00
aI00
aI00
aI00
aI00
aI00
aI00
aI00
aI00
aI00
aI00
aI00
aI00
aI00
aI00
aI00
aI00
aI00
aI00
aI00
aI00
aI00
aI00
aI00
asS'total_steps'
p47
I56
sS'normalized_h_of_p_ui_given_um'
p48
(lp49
cnumpy.core.multiarray
scalar
p50
(cnumpy
dtype
p51
(S'f8'
p52
I0
I1
tp53
Rp54
(I3
S'<'
p55
NNNI-1
I-1
I0
tp56
bS'Y\xc1\x03\x16\xe9-\xea?'
p57
tp58
Rp59
ag59
ag59
ag59
ag59
ag59
ag59
ag59
ag59
ag59
ag59
ag59
ag59
ag59
ag59
ag59
ag59
ag59
ag59
ag59
ag59
ag59
ag59
ag59
ag59
ag59
ag59
ag59
ag59
ag59
ag59
ag59
ag59
ag59
ag59
ag59
ag59
ag59
ag59
ag59
ag59
ag59
ag59
ag59
ag59
ag59
ag59
ag59
ag59
ag59
ag59
ag59
ag59
ag59
ag59
ag59
asS'sp'
p60
(lp61
(S'p0'
p62
I0
S'x'
p63
tp64
a(g62
I0
g63
tp65
ag65
a(g62
I0
S'y'
p66
tp67
a(S'p1'
p68
I0
g66
tp69
a(g68
I0
g66
tp70
a(g68
I0
g63
tp71
a(g62
I0
g63
tp72
ag67
ag69
ag71
ag72
ag65
ag67
a(g62
I0
g66
tp73
ag73
ag69
ag71
a(g68
I0
g66
tp74
ag71
a(S'p2'
p75
I0
g63
tp76
a(g75
I0
g66
tp77
a(S'p3'
p78
I0
g66
tp79
a(g78
I0
S't'
p80
tp81
a(g78
I0
g63
tp82
a(g75
I0
g63
tp83
ag77
a(g75
I0
g63
tp84
a(g75
I0
g63
tp85
a(g75
I0
g80
tp86
a(g75
I0
g80
tp87
a(g75
I0
g63
tp88
ag86
ag88
ag86
a(g75
F1.5707963267948966
g80
tp89
a(g75
F1.5707963267948966
g66
tp90
a(g78
F1.5707963267948966
g66
tp91
a(g78
F1.5707963267948966
g63
tp92
a(g78
F1.5707963267948966
g66
tp93
a(g78
F1.5707963267948966
g80
tp94
a(g78
F1.5707963267948966
g63
tp95
a(g75
F1.5707963267948966
g63
tp96
a(g75
F1.5707963267948966
g63
tp97
a(g75
F1.5707963267948966
g66
tp98
a(g75
F1.5707963267948966
g63
tp99
ag98
a(g68
F1.5707963267948966
g66
tp100
a(g68
F1.5707963267948966
g66
tp101
a(g68
F1.5707963267948966
g63
tp102
a(g75
F1.5707963267948966
g63
tp103
ag98
ag91
a(g78
F1.5707963267948966
g66
tp104
ag92
a(S'p4'
p105
F1.5707963267948966
g63
tp106
asS's'
p107
(lp108
(g62
I0
g22
tp109
ag64
ag65
ag65
ag67
ag69
ag70
ag71
ag72
ag67
ag69
ag71
ag72
ag65
ag67
ag73
ag73
ag69
ag71
ag74
ag71
ag76
ag77
ag79
ag81
ag82
ag83
ag77
ag84
ag85
ag86
ag87
ag88
ag86
ag88
ag86
ag89
ag90
ag91
ag92
ag93
ag94
ag95
ag96
ag97
ag98
ag99
ag98
ag100
ag101
ag102
ag103
ag98
ag91
ag104
ag92
asS'ui'
p110
(lp111
S'hs'
p112
ag112
aS'hp'
p113
ag113
aS'ss'
p114
ag112
ag112
ag112
ag113
ag114
ag112
ag112
ag113
ag113
ag114
ag114
ag114
ag112
ag113
ag112
ag114
ag112
ag113
ag112
ag113
ag114
ag112
ag112
ag112
ag112
ag60
ag113
ag112
ag114
ag112
ag60
ag112
ag114
ag112
ag114
ag112
ag113
ag114
ag113
ag113
ag114
ag113
ag114
ag112
ag112
ag113
ag113
ag114
ag113
ag112
ag114
asS'um_before'
p115
(lp116
g113
ag60
ag60
ag113
ag114
ag60
ag112
ag60
ag113
ag114
ag112
ag60
ag60
ag113
ag60
ag60
ag114
ag112
ag113
ag112
ag114
ag113
ag114
ag113
ag113
ag60
ag113
ag112
ag60
ag112
ag114
ag113
ag112
ag113
ag112
ag60
ag112
ag114
ag112
ag113
ag113
ag113
ag60
ag114
ag113
ag112
ag113
ag60
ag114
ag112
ag114
ag113
ag114
ag114
ag112
ag114
asS'um_after'
p117
(lp118
g113
ag60
ag60
ag113
ag114
ag60
ag112
ag60
ag113
ag114
ag112
ag60
ag60
ag113
ag60
ag60
ag114
ag112
ag113
ag112
ag114
ag113
ag114
ag113
ag113
ag60
ag113
ag112
ag60
ag112
ag114
ag113
ag112
ag113
ag112
ag60
ag112
ag114
ag112
ag113
ag113
ag113
ag60
ag114
ag113
ag112
ag113
ag60
ag114
ag112
ag114
ag113
ag114
ag114
ag112
ag114
asS'is_normalized_entropy_less_than_threshold'
p119
(lp120
g50
(g51
(S'b1'
p121
I0
I1
tp122
Rp123
(I3
S'|'
p124
NNNI-1
I-1
I0
tp125
bS'\x01'
p126
tp127
Rp128
ag128
ag128
ag128
ag128
ag128
ag128
ag128
ag128
ag128
ag128
ag128
ag128
ag128
ag128
ag128
ag128
ag128
ag128
ag128
ag128
ag128
ag128
ag128
ag128
ag128
ag128
ag128
ag128
ag128
ag128
ag128
ag128
ag128
ag128
ag128
ag128
ag128
ag128
ag128
ag128
ag128
ag128
ag128
ag128
ag128
ag128
ag128
ag128
ag128
ag128
ag128
ag128
ag128
ag128
ag128
asaa(lp129
S'index'
p130
aI85714
aatp131
Rp132
.