ccollections
OrderedDict
p0
((lp1
(lp2
S'combination_dict'
p3
ag0
((lp4
(lp5
S'r_to_g_config'
p6
aS'br'
p7
aa(lp8
S'num_turns'
p9
aI3
aa(lp10
S'start_direction'
p11
acutils_ms
StartDirection
p12
(I1
tp13
Rp14
aa(lp15
S'assistance_type'
p16
acutils_ms
AssistanceType
p17
(I1
tp18
Rp19
aa(lp20
S'start_mode'
p21
aS'x'
p22
aa(lp23
S'ui_given_a_noise'
p24
aF0.7
aa(lp25
S'um_given_ui_noise'
p26
aF0.5
aa(lp27
S'entropy_threshold'
p28
aF0.7
aatp29
Rp30
aa(lp31
S'data'
p32
accollections
defaultdict
p33
(c__builtin__
list
p34
tp35
Rp36
S'a'
p37
(lp38
S'mode_r'
p39
ag39
aS'move_n'
p40
ag39
ag39
ag39
ag40
ag40
ag40
ag39
ag39
aS'mode_l'
p41
ag41
ag41
ag40
ag41
ag41
aS'move_p'
p42
ag41
ag42
ag39
ag40
ag41
ag42
ag41
ag41
ag41
ag42
ag39
ag41
ag41
ag41
ag41
ag41
ag41
ag41
ag39
ag39
ag39
ag41
ag40
ag39
ag42
ag42
ag42
ag42
ag42
ag39
ag42
asS'assistance_match_with_ground_truth'
p43
(lp44
I00
aI01
aI00
aI00
aI00
aI01
aI00
aI00
aI00
aI00
aI00
aI00
aI00
aI01
aI01
aI00
aI01
aI00
aI01
aI01
aI01
aI00
aI01
aI00
aI00
aI00
aI01
aI01
aI00
aI00
aI00
aI00
aI00
aI00
aI00
aI00
aI00
aI00
aI00
aI01
aI01
aI01
aI00
aI00
aI00
aI00
aI01
aI01
aI01
asS'is_u_intended_equals_um'
p45
(lp46
I01
aI01
aI00
aI00
aI00
aI01
aI01
aI01
aI00
aI01
aI00
aI01
aI01
aI01
aI01
aI01
aI01
aI01
aI01
aI01
aI01
aI01
aI01
aI01
aI01
aI00
aI01
aI01
aI00
aI01
aI00
aI00
aI01
aI01
aI01
aI01
aI01
aI01
aI00
aI01
aI01
aI01
aI01
aI01
aI01
aI01
aI01
aI01
aI01
asS'total_steps'
p47
I49
sS'normalized_h_of_p_ui_given_um'
p48
(lp49
cnumpy.core.multiarray
scalar
p50
(cnumpy
dtype
p51
(S'f8'
p52
I0
I1
tp53
Rp54
(I3
S'<'
p55
NNNI-1
I-1
I0
tp56
bS'\x1b\x1c\xc2\r\x00\xd5\xe3?'
p57
tp58
Rp59
ag50
(g54
S'&\xdd&Q)\xc2\xe0?'
p60
tp61
Rp62
ag50
(g54
S'\x9dD\xed1\xb8\xf2\xea?'
p63
tp64
Rp65
ag50
(g54
S'\x9d\xdd\x10\xa7^\x0b\xeb?'
p66
tp67
Rp68
ag50
(g54
S'\x9d\xdd\x10\xa7^\x0b\xeb?'
p69
tp70
Rp71
ag50
(g54
S'&\xdd&Q)\xc2\xe0?'
p72
tp73
Rp74
ag50
(g54
S'0q4\xbci\xf2\xea?'
p75
tp76
Rp77
ag50
(g54
S'0q4\xbci\xf2\xea?'
p78
tp79
Rp80
ag50
(g54
S'\x9dD\xed1\xb8\xf2\xea?'
p81
tp82
Rp83
ag50
(g54
S'\x1b\x1c\xc2\r\x00\xd5\xe3?'
p84
tp85
Rp86
ag50
(g54
S'\x9a[\xa3\xb3v\xb9\xe7?'
p87
tp88
Rp89
ag50
(g54
S'T\xdf\xfe\xa4\xaf\xc2\xe5?'
p90
tp91
Rp92
ag50
(g54
S'T\xdf\xfe\xa4\xaf\xc2\xe5?'
p93
tp94
Rp95
ag50
(g54
S'\x0e\x07\xa89\x19\xe7\xdd?'
p96
tp97
Rp98
ag50
(g54
S'\xa2\xfe\xbe\xc9\rh\xe0?'
p99
tp100
Rp101
ag50
(g54
S'T\xdf\xfe\xa4\xaf\xc2\xe5?'
p102
tp103
Rp104
ag50
(g54
S'\x0e\x07\xa89\x19\xe7\xdd?'
p105
tp106
Rp107
ag50
(g54
S'\x86\xad%v\xb1)\xe9?'
p108
tp109
Rp110
ag50
(g54
S'\x0e\x07\xa89\x19\xe7\xdd?'
p111
tp112
Rp113
ag50
(g54
S'q\xf6\xb9\x94\xe8<\xd8?'
p114
tp115
Rp116
ag50
(g54
S'&\xdd&Q)\xc2\xe0?'
p117
tp118
Rp119
ag50
(g54
S'0q4\xbci\xf2\xea?'
p120
tp121
Rp122
ag50
(g54
S'\x0e\x07\xa89\x19\xe7\xdd?'
p123
tp124
Rp125
ag50
(g54
S'\x86\xad%v\xb1)\xe9?'
p126
tp127
Rp128
ag50
(g54
S'T\xdf\xfe\xa4\xaf\xc2\xe5?'
p129
tp130
Rp131
ag50
(g54
S'^\xc83\n\x06\x14\xef?'
p132
tp133
Rp134
ag50
(g54
S'\x0e\x07\xa89\x19\xe7\xdd?'
p135
tp136
Rp137
ag50
(g54
S'q\xf6\xb9\x94\xe8<\xd8?'
p138
tp139
Rp140
ag50
(g54
S'\x9a[\xa3\xb3v\xb9\xe7?'
p141
tp142
Rp143
ag50
(g54
S'T\xdf\xfe\xa4\xaf\xc2\xe5?'
p144
tp145
Rp146
ag50
(g54
S'^\xc83\n\x06\x14\xef?'
p147
tp148
Rp149
ag50
(g54
S'^\xc83\n\x06\x14\xef?'
p150
tp151
Rp152
ag50
(g54
S'T\xdf\xfe\xa4\xaf\xc2\xe5?'
p153
tp154
Rp155
ag50
(g54
S'T\xdf\xfe\xa4\xaf\xc2\xe5?'
p156
tp157
Rp158
ag50
(g54
S'T\xdf\xfe\xa4\xaf\xc2\xe5?'
p159
tp160
Rp161
ag50
(g54
S'R\xe3\xc5\xe5\xd2R\xea?'
p162
tp163
Rp164
ag50
(g54
S'\x1b\x1c\xc2\r\x00\xd5\xe3?'
p165
tp166
Rp167
ag50
(g54
S'\x1b\x1c\xc2\r\x00\xd5\xe3?'
p168
tp169
Rp170
ag50
(g54
S'\x9a[\xa3\xb3v\xb9\xe7?'
p171
tp172
Rp173
ag50
(g54
S'\x0e\x07\xa89\x19\xe7\xdd?'
p174
tp175
Rp176
ag50
(g54
S'\xa2\xfe\xbe\xc9\rh\xe0?'
p177
tp178
Rp179
ag50
(g54
S'&\xdd&Q)\xc2\xe0?'
p180
tp181
Rp182
ag50
(g54
S'\xf9gV\x82\x9b\xaa\xe5?'
p183
tp184
Rp185
ag50
(g54
S'\xf9gV\x82\x9b\xaa\xe5?'
p186
tp187
Rp188
ag50
(g54
S'\xf9gV\x82\x9b\xaa\xe5?'
p189
tp190
Rp191
ag50
(g54
S'\xf9gV\x82\x9b\xaa\xe5?'
p192
tp193
Rp194
ag50
(g54
S'q\xf6\xb9\x94\xe8<\xd8?'
p195
tp196
Rp197
ag50
(g54
S'&\xdd&Q)\xc2\xe0?'
p198
tp199
Rp200
ag50
(g54
S'q\xf6\xb9\x94\xe8<\xd8?'
p201
tp202
Rp203
asS'sp'
p204
(lp205
(S'p0'
p206
I0
S'x'
p207
tp208
a(g206
I0
S'y'
p209
tp210
a(g206
I0
g207
tp211
a(g206
I0
g207
tp212
ag212
ag210
a(g206
I0
g209
tp213
ag213
ag211
ag208
a(g206
I0
S't'
p214
tp215
a(g206
I0
g214
tp216
ag216
a(g206
I0
g209
tp217
a(S'p1'
p218
I0
g209
tp219
a(g218
I0
g209
tp220
a(g218
I0
g207
tp221
a(g218
I0
g209
tp222
ag221
a(S'p2'
p223
I0
g207
tp224
a(g223
I0
g209
tp225
a(g218
I0
g209
tp226
ag221
ag222
ag220
a(g218
I0
g209
tp227
ag221
ag224
a(g223
I0
g214
tp228
a(g223
I0
g214
tp229
a(g223
I0
g214
tp230
ag230
ag229
ag229
ag229
a(g223
I0
g207
tp231
a(g223
I0
g207
tp232
ag232
ag228
a(g223
I0
g209
tp233
a(S'p3'
p234
I0
g209
tp235
a(g234
I0
g214
tp236
a(g234
I0
g214
tp237
ag237
ag237
ag237
a(g234
F1.5707963267948966
g214
tp238
a(g234
F1.5707963267948966
g207
tp239
a(S'p4'
p240
F1.5707963267948966
g207
tp241
asS's'
p242
(lp243
(g206
I0
g22
tp244
ag208
ag210
ag211
ag212
ag212
ag210
ag213
ag213
ag211
ag208
ag215
ag216
ag216
ag217
ag219
ag220
ag221
ag222
ag221
ag224
ag225
ag226
ag221
ag222
ag220
ag227
ag221
ag224
ag228
ag229
ag230
ag230
ag229
ag229
ag229
ag231
ag232
ag232
ag228
ag233
ag235
ag236
ag237
ag237
ag237
ag237
ag238
ag239
asS'ui'
p245
(lp246
g204
aS'hp'
p247
ag247
ag247
ag204
ag247
ag247
ag204
aS'hs'
p248
ag204
ag247
ag248
ag248
ag248
aS'ss'
p249
ag249
ag248
ag249
ag248
ag204
ag247
ag249
ag248
ag249
ag249
ag248
ag249
ag204
ag247
ag204
ag204
ag204
ag249
ag249
ag248
ag249
ag248
ag204
ag248
ag248
ag247
ag247
ag204
ag249
ag204
ag249
ag204
ag247
ag204
asS'um_before'
p250
(lp251
g204
ag247
ag248
ag249
ag249
ag247
ag204
ag204
ag248
ag204
ag248
ag249
ag249
ag248
ag249
ag249
ag248
ag247
ag248
ag204
ag247
ag204
ag248
ag247
ag249
ag204
ag248
ag204
ag248
ag249
ag204
ag204
ag249
ag249
ag249
ag247
ag204
ag204
ag248
ag248
ag249
ag247
ag249
ag249
ag249
ag249
ag204
ag247
ag204
asS'um_after'
p252
(lp253
g204
ag247
ag248
ag249
ag249
ag247
ag204
ag204
ag248
ag204
ag248
ag249
ag249
ag248
ag249
ag249
ag248
ag247
ag248
ag204
ag247
ag204
ag248
ag247
ag249
ag204
ag248
ag204
ag248
ag249
ag204
ag204
ag249
ag249
ag249
ag247
ag204
ag204
ag248
ag248
ag249
ag247
ag249
ag249
ag249
ag249
ag204
ag247
ag204
asS'is_normalized_entropy_less_than_threshold'
p254
(lp255
g50
(g51
(S'b1'
p256
I0
I1
tp257
Rp258
(I3
S'|'
p259
NNNI-1
I-1
I0
tp260
bS'\x01'
p261
tp262
Rp263
ag263
ag50
(g258
S'\x00'
p264
tp265
Rp266
ag266
ag266
ag263
ag266
ag266
ag266
ag263
ag266
ag263
ag263
ag263
ag263
ag263
ag263
ag266
ag263
ag263
ag263
ag266
ag263
ag266
ag263
ag266
ag263
ag263
ag266
ag263
ag266
ag266
ag263
ag263
ag263
ag266
ag263
ag263
ag266
ag263
ag263
ag263
ag263
ag263
ag263
ag263
ag263
ag263
ag263
asaa(lp267
S'index'
p268
aI112721
aatp269
Rp270
.