ccollections
OrderedDict
p0
((lp1
(lp2
S'combination_dict'
p3
ag0
((lp4
(lp5
S'r_to_g_config'
p6
aS'tl'
p7
aa(lp8
S'num_turns'
p9
aI3
aa(lp10
S'start_direction'
p11
acutils_ms
StartDirection
p12
(I1
tp13
Rp14
aa(lp15
S'assistance_type'
p16
acutils_ms
AssistanceType
p17
(I1
tp18
Rp19
aa(lp20
S'start_mode'
p21
aS't'
p22
aa(lp23
S'ui_given_a_noise'
p24
aF0.1
aa(lp25
S'um_given_ui_noise'
p26
aF0.1
aa(lp27
S'entropy_threshold'
p28
aF0.5
aatp29
Rp30
aa(lp31
S'data'
p32
accollections
defaultdict
p33
(c__builtin__
list
p34
tp35
Rp36
S'a'
p37
(lp38
S'mode_l'
p39
ag39
ag39
aS'move_p'
p40
ag40
ag39
aS'move_n'
p41
ag39
ag39
ag39
ag41
ag39
ag40
ag39
ag40
aS'mode_r'
p42
ag40
ag39
ag41
asS'assistance_match_with_ground_truth'
p43
(lp44
I00
aI00
aI01
aI00
aI01
aI01
aI00
aI00
aI00
aI01
aI01
aI01
aI01
aI01
aI00
aI01
aI01
aI01
aI01
asS'is_u_intended_equals_um'
p45
(lp46
I00
aI00
aI01
aI01
aI01
aI01
aI00
aI00
aI00
aI01
aI01
aI01
aI01
aI01
aI01
aI01
aI01
aI01
aI01
asS'total_steps'
p47
I19
sS'normalized_h_of_p_ui_given_um'
p48
(lp49
cnumpy.core.multiarray
scalar
p50
(cnumpy
dtype
p51
(S'f8'
p52
I0
I1
tp53
Rp54
(I3
S'<'
p55
NNNI-1
I-1
I0
tp56
bS'\xf8\x11\xad\x07\xc4\x13\xe2?'
p57
tp58
Rp59
ag50
(g54
S'Zu!\x02\xb4s\xe4?'
p60
tp61
Rp62
ag50
(g54
S'\xb6\xeb\xb5\xce\x0bQ\x98?'
p63
tp64
Rp65
ag50
(g54
S'\xd0\xaa\xdaZ\xc4\xa4\xe2?'
p66
tp67
Rp68
ag50
(g54
S'_\xff\x93\x9fv\xa3\xab?'
p69
tp70
Rp71
ag50
(g54
S'\xb6\xeb\xb5\xce\x0bQ\x98?'
p72
tp73
Rp74
ag50
(g54
S'A\xcd\xe9$\xa5\xd0\xe2?'
p75
tp76
Rp77
ag50
(g54
S'Zu!\x02\xb4s\xe4?'
p78
tp79
Rp80
ag50
(g54
S'\xf8\x11\xad\x07\xc4\x13\xe2?'
p81
tp82
Rp83
ag50
(g54
S'\xb6\xeb\xb5\xce\x0bQ\x98?'
p84
tp85
Rp86
ag50
(g54
S'$\xea\xf4\x0b&[\xa4?'
p87
tp88
Rp89
ag50
(g54
S'\xb6\xeb\xb5\xce\x0bQ\x98?'
p90
tp91
Rp92
ag50
(g54
S'_\xff\x93\x9fv\xa3\xab?'
p93
tp94
Rp95
ag50
(g54
S'\xb6\xeb\xb5\xce\x0bQ\x98?'
p96
tp97
Rp98
ag50
(g54
S'\xe6: \xa9oT\xea?'
p99
tp100
Rp101
ag50
(g54
S's\xd6G\x82P\x84\xb0?'
p102
tp103
Rp104
ag50
(g54
S'_\xff\x93\x9fv\xa3\xab?'
p105
tp106
Rp107
ag50
(g54
S'\xb6\xeb\xb5\xce\x0bQ\x98?'
p108
tp109
Rp110
ag50
(g54
S'$\xea\xf4\x0b&[\xa4?'
p111
tp112
Rp113
asS'sp'
p114
(lp115
(S'p0'
p116
I0
S't'
p117
tp118
a(g116
I0
g117
tp119
a(g116
I0
S'y'
p120
tp121
a(g116
I0
g120
tp122
a(S'p1'
p123
I0
g120
tp124
a(g123
I0
S'x'
p125
tp126
a(g123
I0
g120
tp127
a(g123
I0
g120
tp128
a(g123
I0
g120
tp129
ag126
a(S'p2'
p130
I0
g125
tp131
a(g130
I0
g117
tp132
a(g130
F1.5707963267948966
g117
tp133
a(g130
F1.5707963267948966
g120
tp134
a(g130
F1.5707963267948966
g125
tp135
a(g130
F1.5707963267948966
g120
tp136
a(S'p3'
p137
F1.5707963267948966
g120
tp138
a(g137
F1.5707963267948966
g125
tp139
a(S'p4'
p140
F1.5707963267948966
g125
tp141
asS's'
p142
(lp143
(g116
I0
g22
tp144
ag118
ag119
ag121
ag122
ag124
ag126
ag127
ag128
ag129
ag126
ag131
ag132
ag133
ag134
ag135
ag136
ag138
ag139
asS'ui'
p145
(lp146
g114
aS'ss'
p147
aS'hs'
p148
ag114
ag114
ag148
ag147
ag148
ag148
ag148
ag147
ag148
ag114
ag148
ag148
aS'hp'
p149
ag114
ag148
ag147
asS'um_before'
p150
(lp151
g114
ag147
ag148
ag147
ag114
ag148
ag149
ag147
ag114
ag148
ag147
ag148
ag114
ag148
ag148
ag149
ag114
ag148
ag147
asS'um_after'
p152
(lp153
g114
ag147
ag148
ag147
ag114
ag148
ag149
ag147
ag114
ag148
ag147
ag148
ag114
ag148
ag148
ag149
ag114
ag148
ag147
asS'is_normalized_entropy_less_than_threshold'
p154
(lp155
g50
(g51
(S'b1'
p156
I0
I1
tp157
Rp158
(I3
S'|'
p159
NNNI-1
I-1
I0
tp160
bS'\x00'
p161
tp162
Rp163
ag163
ag50
(g158
S'\x01'
p164
tp165
Rp166
ag163
ag166
ag166
ag163
ag163
ag163
ag166
ag166
ag166
ag166
ag166
ag163
ag166
ag166
ag166
ag166
asaa(lp167
S'index'
p168
aI55206
aatp169
Rp170
.