ccollections
OrderedDict
p0
((lp1
(lp2
S'combination_dict'
p3
ag0
((lp4
(lp5
S'r_to_g_config'
p6
aS'tr'
p7
aa(lp8
S'num_turns'
p9
aI3
aa(lp10
S'start_direction'
p11
acutils_ms
StartDirection
p12
(I1
tp13
Rp14
aa(lp15
S'assistance_type'
p16
acutils_ms
AssistanceType
p17
(I0
tp18
Rp19
aa(lp20
S'start_mode'
p21
aS't'
p22
aa(lp23
S'ui_given_a_noise'
p24
aF0.7
aa(lp25
S'um_given_ui_noise'
p26
aF0.3
aa(lp27
S'entropy_threshold'
p28
aF0.5
aatp29
Rp30
aa(lp31
S'data'
p32
accollections
defaultdict
p33
(c__builtin__
list
p34
tp35
Rp36
S'a'
p37
(lp38
S'mode_l'
p39
aS'move_p'
p40
ag39
ag40
ag40
ag40
ag39
ag40
ag39
aS'mode_r'
p41
ag41
ag40
ag39
ag39
ag41
ag40
ag39
ag39
ag41
ag41
ag40
ag39
ag41
ag39
ag40
ag39
ag40
ag39
ag41
ag40
ag39
ag41
ag40
asS'assistance_match_with_ground_truth'
p42
(lp43
I01
aI00
aI01
aI00
aI00
aI00
aI01
aI00
aI00
aI00
aI01
aI00
aI00
aI00
aI01
aI01
aI00
aI00
aI00
aI01
aI00
aI00
aI00
aI01
aI01
aI01
aI01
aI00
aI01
aI01
aI00
aI01
aI01
asS'is_u_intended_equals_um'
p44
(lp45
I01
aI01
aI01
aI01
aI01
aI01
aI01
aI01
aI01
aI01
aI01
aI01
aI01
aI01
aI01
aI01
aI00
aI01
aI01
aI01
aI01
aI01
aI01
aI01
aI01
aI01
aI01
aI01
aI01
aI01
aI01
aI01
aI01
asS'total_steps'
p46
I33
sS'normalized_h_of_p_ui_given_um'
p47
(lp48
cnumpy.core.multiarray
scalar
p49
(cnumpy
dtype
p50
(S'f8'
p51
I0
I1
tp52
Rp53
(I3
S'<'
p54
NNNI-1
I-1
I0
tp55
bS'\xea\xb3"\xae\x04v\xdb?'
p56
tp57
Rp58
ag49
(g53
S'\xd1ZE\x14\xbd\xc1\xe6?'
p59
tp60
Rp61
ag49
(g53
S'\xea\xb3"\xae\x04v\xdb?'
p62
tp63
Rp64
ag49
(g53
S'\x15\x8c\xf9\n\xc1N\xe5?'
p65
tp66
Rp67
ag49
(g53
S'\x15\x8c\xf9\n\xc1N\xe5?'
p68
tp69
Rp70
ag49
(g53
S'\xd1ZE\x14\xbd\xc1\xe6?'
p71
tp72
Rp73
ag49
(g53
S'\xea\xb3"\xae\x04v\xdb?'
p74
tp75
Rp76
ag49
(g53
S'\xd1ZE\x14\xbd\xc1\xe6?'
p77
tp78
Rp79
ag49
(g53
S'c\x16mj\x0c\x10\xe8?'
p80
tp81
Rp82
ag49
(g53
S'\xde2\x05(6D\xe9?'
p83
tp84
Rp85
ag49
(g53
S'\x06\x1aRtyQ\xe2?'
p86
tp87
Rp88
ag49
(g53
S'\xd1ZE\x14\xbd\xc1\xe6?'
p89
tp90
Rp91
ag49
(g53
S'\x16E\xbbAn\x1c\xea?'
p92
tp93
Rp94
ag49
(g53
S'c\x16mj\x0c\x10\xe8?'
p95
tp96
Rp97
ag49
(g53
S'\x06\x1aRtyQ\xe2?'
p98
tp99
Rp100
ag49
(g53
S'\xf1\x17\x1a\xfc\x1d\x9a\xd9?'
p101
tp102
Rp103
ag49
(g53
S'*~\xc8\xf0B\xdf\xec?'
p104
tp105
Rp106
ag49
(g53
S'c\x16mj\x0c\x10\xe8?'
p107
tp108
Rp109
ag49
(g53
S'\xde2\x05(6D\xe9?'
p110
tp111
Rp112
ag49
(g53
S'\x06\x1aRtyQ\xe2?'
p113
tp114
Rp115
ag49
(g53
S'\xd1ZE\x14\xbd\xc1\xe6?'
p116
tp117
Rp118
ag49
(g53
S'c\x16mj\x0c\x10\xe8?'
p119
tp120
Rp121
ag49
(g53
S'\x96\xc0\x8f\xdb:i\xef?'
p122
tp123
Rp124
ag49
(g53
S'\xea\xb3"\xae\x04v\xdb?'
p125
tp126
Rp127
ag49
(g53
S'\xf1\x17\x1a\xfc\x1d\x9a\xd9?'
p128
tp129
Rp130
ag49
(g53
S'\xea\xb3"\xae\x04v\xdb?'
p131
tp132
Rp133
ag49
(g53
S'\xf1\x17\x1a\xfc\x1d\x9a\xd9?'
p134
tp135
Rp136
ag49
(g53
S'c\x16mj\x0c\x10\xe8?'
p137
tp138
Rp139
ag49
(g53
S'\x06\x1aRtyQ\xe2?'
p140
tp141
Rp142
ag49
(g53
S'\xf1\x17\x1a\xfc\x1d\x9a\xd9?'
p143
tp144
Rp145
ag49
(g53
S'c\x16mj\x0c\x10\xe8?'
p146
tp147
Rp148
ag49
(g53
S'\x06\x1aRtyQ\xe2?'
p149
tp150
Rp151
ag49
(g53
S'\xf1\x17\x1a\xfc\x1d\x9a\xd9?'
p152
tp153
Rp154
asS'sp'
p155
(lp156
(S'p0'
p157
I0
S'y'
p158
tp159
a(g157
I0
S't'
p160
tp161
ag159
a(g157
I0
g158
tp162
ag162
ag161
ag159
ag161
a(g157
I0
S'x'
p163
tp164
a(g157
I0
g163
tp165
a(g157
I0
g158
tp166
ag161
a(g157
I0
g160
tp167
ag164
ag166
a(S'p1'
p168
I0
g158
tp169
a(g168
I0
g158
tp170
a(g168
I0
g160
tp171
a(g168
I0
g160
tp172
a(g168
I0
g163
tp173
a(g168
I0
g158
tp174
ag171
a(g168
I0
g158
tp175
a(g168
I0
g163
tp176
a(S'p2'
p177
I0
g163
tp178
a(g177
I0
g160
tp179
a(g177
F1.5707963267948966
g160
tp180
a(g177
F1.5707963267948966
g163
tp181
a(g177
F1.5707963267948966
g158
tp182
a(S'p3'
p183
F1.5707963267948966
g158
tp184
a(g183
F1.5707963267948966
g160
tp185
a(g183
F1.5707963267948966
g163
tp186
a(S'p4'
p187
F1.5707963267948966
g163
tp188
asS's'
p189
(lp190
(g157
I0
g22
tp191
ag159
ag161
ag159
ag162
ag162
ag161
ag159
ag161
ag164
ag165
ag166
ag161
ag167
ag164
ag166
ag169
ag170
ag171
ag172
ag173
ag174
ag171
ag175
ag176
ag178
ag179
ag180
ag181
ag182
ag184
ag185
ag186
asS'ui'
p192
(lp193
S'hs'
p194
ag155
ag194
aS'ss'
p195
ag155
aS'hp'
p196
ag194
ag196
ag194
ag155
ag155
ag196
ag195
ag196
ag196
ag196
ag194
ag194
ag196
ag195
ag155
ag194
ag196
ag194
ag196
ag194
ag196
ag196
ag195
ag155
ag196
ag196
ag196
asS'um_before'
p197
(lp198
g194
ag196
ag194
ag195
ag195
ag196
ag194
ag196
ag196
ag155
ag196
ag196
ag195
ag196
ag196
ag155
ag155
ag196
ag155
ag196
ag196
ag196
ag194
ag194
ag155
ag194
ag155
ag196
ag196
ag155
ag196
ag196
ag155
asS'um_after'
p199
(lp200
g194
ag196
ag194
ag195
ag195
ag196
ag194
ag196
ag196
ag155
ag196
ag196
ag195
ag196
ag196
ag155
ag155
ag196
ag155
ag196
ag196
ag196
ag194
ag194
ag155
ag194
ag155
ag196
ag196
ag155
ag196
ag196
ag155
asS'is_normalized_entropy_less_than_threshold'
p201
(lp202
g49
(g50
(S'b1'
p203
I0
I1
tp204
Rp205
(I3
S'|'
p206
NNNI-1
I-1
I0
tp207
bS'\x01'
p208
tp209
Rp210
ag49
(g205
S'\x00'
p211
tp212
Rp213
ag210
ag213
ag213
ag213
ag210
ag213
ag213
ag213
ag213
ag213
ag213
ag213
ag213
ag210
ag213
ag213
ag213
ag213
ag213
ag213
ag213
ag210
ag210
ag210
ag210
ag213
ag213
ag210
ag213
ag213
ag210
asaa(lp214
S'index'
p215
aI25454
aatp216
Rp217
.