ccollections
OrderedDict
p0
((lp1
(lp2
S'combination_dict'
p3
ag0
((lp4
(lp5
S'r_to_g_config'
p6
aS'br'
p7
aa(lp8
S'num_turns'
p9
aI3
aa(lp10
S'start_direction'
p11
acutils_ms
StartDirection
p12
(I0
tp13
Rp14
aa(lp15
S'assistance_type'
p16
acutils_ms
AssistanceType
p17
(I1
tp18
Rp19
aa(lp20
S'start_mode'
p21
aS'y'
p22
aa(lp23
S'ui_given_a_noise'
p24
aF0.7
aa(lp25
S'um_given_ui_noise'
p26
aF0.1
aa(lp27
S'entropy_threshold'
p28
aF0.8
aatp29
Rp30
aa(lp31
S'data'
p32
accollections
defaultdict
p33
(c__builtin__
list
p34
tp35
Rp36
S'a'
p37
(lp38
S'mode_l'
p39
aS'move_p'
p40
ag40
aS'mode_r'
p41
ag39
aS'move_n'
p42
ag39
ag40
ag39
ag39
ag39
ag39
ag40
ag41
ag41
ag40
ag39
ag39
ag39
ag41
ag40
ag39
ag40
ag41
ag39
ag40
ag39
ag40
ag41
ag40
ag41
asS'assistance_match_with_ground_truth'
p43
(lp44
I01
aI00
aI01
aI00
aI01
aI01
aI01
aI00
aI00
aI00
aI00
aI01
aI00
aI00
aI01
aI01
aI00
aI00
aI00
aI01
aI00
aI01
aI00
aI00
aI01
aI01
aI01
aI00
aI01
aI00
aI00
asS'is_u_intended_equals_um'
p45
(lp46
I01
aI01
aI01
aI01
aI01
aI01
aI01
aI01
aI01
aI01
aI01
aI01
aI01
aI01
aI01
aI01
aI01
aI01
aI01
aI01
aI01
aI01
aI01
aI01
aI01
aI01
aI01
aI01
aI01
aI01
aI01
asS'total_steps'
p47
I31
sS'normalized_h_of_p_ui_given_um'
p48
(lp49
cnumpy.core.multiarray
scalar
p50
(cnumpy
dtype
p51
(S'f8'
p52
I0
I1
tp53
Rp54
(I3
S'<'
p55
NNNI-1
I-1
I0
tp56
bS'q!O(C\x14\xb5?'
p57
tp58
Rp59
ag50
(g54
S'IN\xf3k\x1d\x08\xe8?'
p60
tp61
Rp62
ag50
(g54
S'\r.\xfeJ\xebW\xc7?'
p63
tp64
Rp65
ag50
(g54
S'\xac\x82\xbd)\x03!\xe5?'
p66
tp67
Rp68
ag50
(g54
S'q!O(C\x14\xb5?'
p69
tp70
Rp71
ag50
(g54
S'?\x134~\xdfb\xc5?'
p72
tp73
Rp74
ag50
(g54
S'q!O(C\x14\xb5?'
p75
tp76
Rp77
ag50
(g54
S'\xb6T\xec\xa1+\x0c\xd3?'
p78
tp79
Rp80
ag50
(g54
S'\xef\xd4T2\x88\xfb\xdd?'
p81
tp82
Rp83
ag50
(g54
S'\xd8^\x01i\xf1?\xe3?'
p84
tp85
Rp86
ag50
(g54
S'\xef\xd4T2\x88\xfb\xdd?'
p87
tp88
Rp89
ag50
(g54
S'q!O(C\x14\xb5?'
p90
tp91
Rp92
ag50
(g54
S'"QH\x04\x95\xac\xd4?'
p93
tp94
Rp95
ag50
(g54
S"'o%\xc7\xf8p\xe2?"
p96
tp97
Rp98
ag50
(g54
S'&l\x81K\xc3\x8f\xb2?'
p99
tp100
Rp101
ag50
(g54
S'\r.\xfeJ\xebW\xc7?'
p102
tp103
Rp104
ag50
(g54
S'\xd8^\x01i\xf1?\xe3?'
p105
tp106
Rp107
ag50
(g54
S'\xef\xd4T2\x88\xfb\xdd?'
p108
tp109
Rp110
ag50
(g54
S';\tGP\xf3\x1b\xdd?'
p111
tp112
Rp113
ag50
(g54
S'&l\x81K\xc3\x8f\xb2?'
p114
tp115
Rp116
ag50
(g54
S'\xb6T\xec\xa1+\x0c\xd3?'
p117
tp118
Rp119
ag50
(g54
S'q!O(C\x14\xb5?'
p120
tp121
Rp122
ag50
(g54
S'"QH\x04\x95\xac\xd4?'
p123
tp124
Rp125
ag50
(g54
S'\x06DP\xf9\xf2\xb6\xe0?'
p126
tp127
Rp128
ag50
(g54
S'q!O(C\x14\xb5?'
p129
tp130
Rp131
ag50
(g54
S'\r.\xfeJ\xebW\xc7?'
p132
tp133
Rp134
ag50
(g54
S'q!O(C\x14\xb5?'
p135
tp136
Rp137
ag50
(g54
S'"QH\x04\x95\xac\xd4?'
p138
tp139
Rp140
ag50
(g54
S'&l\x81K\xc3\x8f\xb2?'
p141
tp142
Rp143
ag50
(g54
S'"QH\x04\x95\xac\xd4?'
p144
tp145
Rp146
ag50
(g54
S"'o%\xc7\xf8p\xe2?"
p147
tp148
Rp149
asS'sp'
p150
(lp151
(S'p0'
p152
I0
S'x'
p153
tp154
a(g152
I0
g153
tp155
a(S'p1'
p156
I0
g153
tp157
a(g156
I0
S't'
p158
tp159
a(g156
I0
S'y'
p160
tp161
a(S'p2'
p162
I0
g160
tp163
a(g162
I0
g153
tp164
a(g162
I0
g160
tp165
a(g162
I0
g160
tp166
a(g162
I0
g160
tp167
ag166
ag164
a(g162
I0
g158
tp168
a(g162
I0
g158
tp169
a(g162
I0
g153
tp170
a(S'p3'
p171
I0
g153
tp172
a(g171
I0
g153
tp173
a(g171
I0
g153
tp174
a(g171
I0
g160
tp175
a(g171
I0
g158
tp176
a(g171
I0
g153
tp177
a(g171
I0
g158
tp178
a(g171
I0
g160
tp179
a(g162
I0
g160
tp180
ag164
ag172
ag178
ag179
ag176
ag179
a(S'p4'
p181
I0
g160
tp182
asS's'
p183
(lp184
(g152
I0
g22
tp185
ag154
ag155
ag157
ag159
ag161
ag163
ag164
ag165
ag166
ag167
ag166
ag164
ag168
ag169
ag170
ag172
ag173
ag174
ag175
ag176
ag177
ag178
ag179
ag180
ag164
ag172
ag178
ag179
ag176
ag179
asS'ui'
p186
(lp187
S'hs'
p188
aS'ss'
p189
ag150
ag188
ag188
ag189
ag188
aS'hp'
p190
ag189
ag189
ag189
ag188
ag188
ag190
ag190
ag150
ag150
ag188
ag150
ag190
ag190
ag188
ag188
ag150
ag188
ag150
ag188
ag188
ag190
ag188
ag189
asS'um_before'
p191
(lp192
g188
ag189
ag150
ag188
ag188
ag189
ag188
ag190
ag189
ag150
ag189
ag188
ag188
ag189
ag190
ag150
ag150
ag189
ag190
ag190
ag190
ag188
ag188
ag150
ag188
ag150
ag188
ag188
ag190
ag188
ag189
asS'um_after'
p193
(lp194
g188
ag189
ag150
ag188
ag188
ag189
ag188
ag190
ag189
ag150
ag189
ag188
ag188
ag189
ag190
ag150
ag150
ag189
ag190
ag190
ag190
ag188
ag188
ag150
ag188
ag150
ag188
ag188
ag190
ag188
ag189
asS'is_normalized_entropy_less_than_threshold'
p195
(lp196
g50
(g51
(S'b1'
p197
I0
I1
tp198
Rp199
(I3
S'|'
p200
NNNI-1
I-1
I0
tp201
bS'\x01'
p202
tp203
Rp204
ag204
ag204
ag204
ag204
ag204
ag204
ag204
ag204
ag204
ag204
ag204
ag204
ag204
ag204
ag204
ag204
ag204
ag204
ag204
ag204
ag204
ag204
ag204
ag204
ag204
ag204
ag204
ag204
ag204
ag204
asaa(lp205
S'index'
p206
aI108639
aatp207
Rp208
.