ccollections
OrderedDict
p0
((lp1
(lp2
S'combination_dict'
p3
ag0
((lp4
(lp5
S'r_to_g_config'
p6
aS'tl'
p7
aa(lp8
S'num_turns'
p9
aI3
aa(lp10
S'start_direction'
p11
acutils_ms
StartDirection
p12
(I1
tp13
Rp14
aa(lp15
S'assistance_type'
p16
acutils_ms
AssistanceType
p17
(I1
tp18
Rp19
aa(lp20
S'start_mode'
p21
aS't'
p22
aa(lp23
S'ui_given_a_noise'
p24
aF0.3
aa(lp25
S'um_given_ui_noise'
p26
aF0.3
aa(lp27
S'entropy_threshold'
p28
aF0.6
aatp29
Rp30
aa(lp31
S'data'
p32
accollections
defaultdict
p33
(c__builtin__
list
p34
tp35
Rp36
S'a'
p37
(lp38
S'mode_l'
p39
aS'move_p'
p40
ag39
aS'mode_r'
p41
ag41
aS'move_n'
p42
ag41
ag39
ag40
ag41
ag40
ag41
ag42
ag41
ag39
ag42
asS'assistance_match_with_ground_truth'
p43
(lp44
I01
aI01
aI00
aI00
aI01
aI01
aI00
aI01
aI01
aI01
aI01
aI01
aI00
aI00
aI01
aI01
asS'is_u_intended_equals_um'
p45
(lp46
I01
aI01
aI01
aI00
aI01
aI01
aI01
aI01
aI00
aI01
aI01
aI01
aI01
aI01
aI00
aI01
asS'total_steps'
p47
I16
sS'normalized_h_of_p_ui_given_um'
p48
(lp49
cnumpy.core.multiarray
scalar
p50
(cnumpy
dtype
p51
(S'f8'
p52
I0
I1
tp53
Rp54
(I3
S'<'
p55
NNNI-1
I-1
I0
tp56
bS'DC\x97\xf4C\xc9\xb6?'
p57
tp58
Rp59
ag50
(g54
S'[\xc4\xf8L1\xf4\xb9?'
p60
tp61
Rp62
ag50
(g54
S'\x16\x90\xee\x9d\xb0#\xe0?'
p63
tp64
Rp65
ag50
(g54
S'\x8e\x15\x82\x80G\x04\xea?'
p66
tp67
Rp68
ag50
(g54
S'~d\xe5\xf6(\xe6\xb7?'
p69
tp70
Rp71
ag50
(g54
S'\xb3\xcc\x1d\xf80\x0b\xd1?'
p72
tp73
Rp74
ag50
(g54
S'\x0c\xd1\xa3\xe8\x13U\xdd?'
p75
tp76
Rp77
ag50
(g54
S'DC\x97\xf4C\xc9\xb6?'
p78
tp79
Rp80
ag50
(g54
S"c('\x8dS\x95\xdc?"
p81
tp82
Rp83
ag50
(g54
S'~d\xe5\xf6(\xe6\xb7?'
p84
tp85
Rp86
ag50
(g54
S'[\xc4\xf8L1\xf4\xb9?'
p87
tp88
Rp89
ag50
(g54
S'~d\xe5\xf6(\xe6\xb7?'
p90
tp91
Rp92
ag50
(g54
S'\xfeQRg\x16T\xe4?'
p93
tp94
Rp95
ag50
(g54
S'\x0c\xd1\xa3\xe8\x13U\xdd?'
p96
tp97
Rp98
ag50
(g54
S'h\xb0\xbdY4\x17\xe1?'
p99
tp100
Rp101
ag50
(g54
S'\xb3\xcc\x1d\xf80\x0b\xd1?'
p102
tp103
Rp104
asS'sp'
p105
(lp106
(S'p0'
p107
I0
S'y'
p108
tp109
a(S'p1'
p110
I0
g108
tp111
a(g110
I0
S't'
p112
tp113
a(g110
I0
g112
tp114
a(g110
I0
S'x'
p115
tp116
a(S'p2'
p117
I0
g115
tp118
a(g117
I0
g112
tp119
a(g117
I0
g108
tp120
a(S'p3'
p121
I0
g108
tp122
a(g121
I0
g112
tp123
a(g121
F1.5707963267948966
g112
tp124
a(g121
F1.5707963267948966
g115
tp125
a(g121
F1.5707963267948966
g112
tp126
a(g121
F1.5707963267948966
g108
tp127
a(g121
F1.5707963267948966
g115
tp128
a(S'p4'
p129
F1.5707963267948966
g115
tp130
asS's'
p131
(lp132
(g107
I0
g22
tp133
ag109
ag111
ag113
ag114
ag116
ag118
ag119
ag120
ag122
ag123
ag124
ag125
ag126
ag127
ag128
asS'ui'
p134
(lp135
S'hs'
p136
ag105
ag136
ag105
aS'hp'
p137
aS'ss'
p138
ag136
ag136
ag105
ag137
ag105
ag137
ag136
ag136
ag136
ag138
asS'um_before'
p139
(lp140
g136
ag105
ag137
ag138
ag137
ag138
ag136
ag136
ag138
ag137
ag105
ag137
ag136
ag136
ag105
ag138
asS'um_after'
p141
(lp142
g136
ag105
ag137
ag138
ag137
ag138
ag136
ag136
ag105
ag137
ag105
ag137
ag136
ag136
ag136
ag138
asS'is_normalized_entropy_less_than_threshold'
p143
(lp144
g50
(g51
(S'b1'
p145
I0
I1
tp146
Rp147
(I3
S'|'
p148
NNNI-1
I-1
I0
tp149
bS'\x01'
p150
tp151
Rp152
ag152
ag152
ag50
(g147
S'\x00'
p153
tp154
Rp155
ag152
ag152
ag152
ag152
ag152
ag152
ag152
ag152
ag155
ag152
ag152
ag152
asaa(lp156
S'index'
p157
aI55460
aatp158
Rp159
.