ccollections
OrderedDict
p0
((lp1
(lp2
S'combination_dict'
p3
ag0
((lp4
(lp5
S'r_to_g_config'
p6
aS'bl'
p7
aa(lp8
S'num_turns'
p9
aI3
aa(lp10
S'start_direction'
p11
acutils_ms
StartDirection
p12
(I1
tp13
Rp14
aa(lp15
S'assistance_type'
p16
acutils_ms
AssistanceType
p17
(I0
tp18
Rp19
aa(lp20
S'start_mode'
p21
aS't'
p22
aa(lp23
S'ui_given_a_noise'
p24
aF0.5
aa(lp25
S'um_given_ui_noise'
p26
aF0.5
aa(lp27
S'entropy_threshold'
p28
aF0.6
aatp29
Rp30
aa(lp31
S'data'
p32
accollections
defaultdict
p33
(c__builtin__
list
p34
tp35
Rp36
S'a'
p37
(lp38
S'mode_l'
p39
aS'move_n'
p40
aS'mode_r'
p41
ag41
ag40
ag40
ag40
ag41
aS'move_p'
p42
ag42
ag41
ag40
ag41
ag40
ag41
ag40
ag39
ag41
ag40
ag41
ag41
ag41
ag40
ag41
ag41
ag40
ag39
ag40
ag39
ag40
ag41
ag40
ag39
ag39
ag41
ag40
ag39
ag41
ag42
ag41
ag42
ag41
ag41
ag41
ag41
ag41
ag41
ag41
ag41
ag41
ag41
ag42
ag42
ag39
ag41
ag42
ag41
ag41
ag40
ag41
ag41
ag40
ag39
ag40
ag39
ag39
ag40
ag41
ag41
ag41
ag41
ag41
ag41
ag41
ag40
ag39
ag40
ag39
ag40
ag39
ag41
ag40
ag41
ag41
ag41
ag41
ag40
ag40
ag40
ag39
ag39
ag39
ag39
ag39
ag40
ag39
ag41
ag40
ag39
ag40
ag41
ag40
ag39
ag40
ag40
ag39
ag40
ag40
ag39
ag41
ag40
ag39
ag40
ag41
ag41
ag40
ag39
ag39
ag40
ag41
ag41
ag41
ag40
ag39
ag40
ag39
ag41
ag40
asS'assistance_match_with_ground_truth'
p43
(lp44
I01
aI00
aI00
aI01
aI00
aI00
aI01
aI01
aI00
aI01
aI01
aI00
aI01
aI00
aI01
aI01
aI00
aI01
aI00
aI00
aI00
aI01
aI01
aI00
aI01
aI00
aI01
aI00
aI01
aI00
aI01
aI00
aI00
aI00
aI01
aI01
aI00
aI00
aI01
aI00
aI00
aI00
aI00
aI00
aI00
aI00
aI00
aI00
aI00
aI00
aI01
aI00
aI00
aI00
aI01
aI01
aI00
aI01
aI00
aI00
aI01
aI01
aI01
aI00
aI00
aI01
aI01
aI00
aI00
aI00
aI00
aI00
aI00
aI01
aI00
aI01
aI00
aI01
aI00
aI00
aI01
aI00
aI00
aI00
aI00
aI01
aI00
aI00
aI01
aI00
aI00
aI00
aI00
aI01
aI00
aI00
aI01
aI00
aI01
aI00
aI01
aI00
aI01
aI00
aI00
aI01
aI00
aI00
aI00
aI01
aI01
aI01
aI01
aI00
aI01
aI00
aI00
aI01
aI00
aI00
aI00
aI01
aI01
aI01
aI00
aI00
aI01
aI01
asS'is_u_intended_equals_um'
p45
(lp46
I01
aI01
aI00
aI01
aI00
aI00
aI01
aI01
aI01
aI01
aI01
aI00
aI01
aI01
aI01
aI01
aI01
aI01
aI01
aI00
aI00
aI01
aI01
aI00
aI01
aI00
aI01
aI00
aI01
aI00
aI01
aI00
aI00
aI01
aI01
aI01
aI01
aI00
aI01
aI00
aI00
aI00
aI00
aI00
aI00
aI00
aI00
aI00
aI00
aI00
aI01
aI01
aI01
aI01
aI01
aI01
aI00
aI01
aI00
aI00
aI01
aI01
aI01
aI00
aI00
aI01
aI01
aI00
aI00
aI00
aI00
aI00
aI00
aI01
aI00
aI01
aI00
aI01
aI00
aI01
aI01
aI00
aI00
aI00
aI00
aI01
aI00
aI00
aI01
aI00
aI00
aI00
aI00
aI01
aI00
aI01
aI01
aI00
aI01
aI00
aI01
aI00
aI01
aI00
aI00
aI01
aI00
aI00
aI01
aI01
aI01
aI01
aI01
aI00
aI01
aI00
aI00
aI01
aI01
aI00
aI00
aI01
aI01
aI01
aI00
aI01
aI01
aI01
asS'total_steps'
p47
I128
sS'normalized_h_of_p_ui_given_um'
p48
(lp49
cnumpy.core.multiarray
scalar
p50
(cnumpy
dtype
p51
(S'f8'
p52
I0
I1
tp53
Rp54
(I3
S'<'
p55
NNNI-1
I-1
I0
tp56
bS'h\xcc\x05\r\xd2\x13\xd9?'
p57
tp58
Rp59
ag50
(g54
S'\xbc\x1b\xcf\xc5\xa8D\xeb?'
p60
tp61
Rp62
ag50
(g54
S'4#}\xb9\xd3\xf4\xe4?'
p63
tp64
Rp65
ag50
(g54
S'kz\xc7\xf7\x9b\x0f\xd2?'
p66
tp67
Rp68
ag50
(g54
S'\xb9p\xcc\x9b\xde\x16\xed?'
p69
tp70
Rp71
ag50
(g54
S'\xb9p\xcc\x9b\xde\x16\xed?'
p72
tp73
Rp74
ag50
(g54
S'\xc6"\xaf4\n\xfa\xda?'
p75
tp76
Rp77
ag50
(g54
S'kz\xc7\xf7\x9b\x0f\xd2?'
p78
tp79
Rp80
ag50
(g54
S'\x14\x9d\xe8\xe1m\xb4\xe6?'
p81
tp82
Rp83
ag50
(g54
S'\xef\xda}\x15\xd2W\xe3?'
p84
tp85
Rp86
ag50
(g54
S'kz\xc7\xf7\x9b\x0f\xd2?'
p87
tp88
Rp89
ag50
(g54
S'\xb9p\xcc\x9b\xde\x16\xed?'
p90
tp91
Rp92
ag50
(g54
S'kz\xc7\xf7\x9b\x0f\xd2?'
p93
tp94
Rp95
ag50
(g54
S'\xbc\x1b\xcf\xc5\xa8D\xeb?'
p96
tp97
Rp98
ag50
(g54
S'kz\xc7\xf7\x9b\x0f\xd2?'
p99
tp100
Rp101
ag50
(g54
S'\xc6"\xaf4\n\xfa\xda?'
p102
tp103
Rp104
ag50
(g54
S"\x92D'\xddc\x1b\xe4?"
p105
tp106
Rp107
ag50
(g54
S'kz\xc7\xf7\x9b\x0f\xd2?'
p108
tp109
Rp110
ag50
(g54
S'\xbc\x1b\xcf\xc5\xa8D\xeb?'
p111
tp112
Rp113
ag50
(g54
S'4#}\xb9\xd3\xf4\xe4?'
p114
tp115
Rp116
ag50
(g54
S'4#}\xb9\xd3\xf4\xe4?'
p117
tp118
Rp119
ag50
(g54
S'kz\xc7\xf7\x9b\x0f\xd2?'
p120
tp121
Rp122
ag50
(g54
S'\xc6"\xaf4\n\xfa\xda?'
p123
tp124
Rp125
ag50
(g54
S'4#}\xb9\xd3\xf4\xe4?'
p126
tp127
Rp128
ag50
(g54
S'kz\xc7\xf7\x9b\x0f\xd2?'
p129
tp130
Rp131
ag50
(g54
S'\x9c\xc2\x86\xfc\xd1\n\xe8?'
p132
tp133
Rp134
ag50
(g54
S'h\xcc\x05\r\xd2\x13\xd9?'
p135
tp136
Rp137
ag50
(g54
S'\xb9p\xcc\x9b\xde\x16\xed?'
p138
tp139
Rp140
ag50
(g54
S'h\xcc\x05\r\xd2\x13\xd9?'
p141
tp142
Rp143
ag50
(g54
S'\xb9p\xcc\x9b\xde\x16\xed?'
p144
tp145
Rp146
ag50
(g54
S'kz\xc7\xf7\x9b\x0f\xd2?'
p147
tp148
Rp149
ag50
(g54
S'\x9c\xc2\x86\xfc\xd1\n\xe8?'
p150
tp151
Rp152
ag50
(g54
S'\xad\x8eh\x8b=\xc4\xe7?'
p153
tp154
Rp155
ag50
(g54
S"\x92D'\xddc\x1b\xe4?"
p156
tp157
Rp158
ag50
(g54
S'kz\xc7\xf7\x9b\x0f\xd2?'
p159
tp160
Rp161
ag50
(g54
S'\xc6"\xaf4\n\xfa\xda?'
p162
tp163
Rp164
ag50
(g54
S"\x92D'\xddc\x1b\xe4?"
p165
tp166
Rp167
ag50
(g54
S'\x14s$\xa6x\xda\xeb?'
p168
tp169
Rp170
ag50
(g54
S'\xef\xda}\x15\xd2W\xe3?'
p171
tp172
Rp173
ag50
(g54
S'\x14s$\xa6x\xda\xeb?'
p174
tp175
Rp176
ag50
(g54
S'\xf2~6VaH\xea?'
p177
tp178
Rp179
ag50
(g54
S'6_$\xe7\x17\x90\xe0?'
p180
tp181
Rp182
ag50
(g54
S'4#}\xb9\xd3\xf4\xe4?'
p183
tp184
Rp185
ag50
(g54
S'\x14s$\xa6x\xda\xeb?'
p186
tp187
Rp188
ag50
(g54
S'6_$\xe7\x17\x90\xe0?'
p189
tp190
Rp191
ag50
(g54
S'6_$\xe7\x17\x90\xe0?'
p192
tp193
Rp194
ag50
(g54
S'4#}\xb9\xd3\xf4\xe4?'
p195
tp196
Rp197
ag50
(g54
S'4#}\xb9\xd3\xf4\xe4?'
p198
tp199
Rp200
ag50
(g54
S'4#}\xb9\xd3\xf4\xe4?'
p201
tp202
Rp203
ag50
(g54
S'4#}\xb9\xd3\xf4\xe4?'
p204
tp205
Rp206
ag50
(g54
S'kz\xc7\xf7\x9b\x0f\xd2?'
p207
tp208
Rp209
ag50
(g54
S'\x14\x9d\xe8\xe1m\xb4\xe6?'
p210
tp211
Rp212
ag50
(g54
S'\x1e\x9d\x0eO\xa6\xe2\xeb?'
p213
tp214
Rp215
ag50
(g54
S"\x92D'\xddc\x1b\xe4?"
p216
tp217
Rp218
ag50
(g54
S'kz\xc7\xf7\x9b\x0f\xd2?'
p219
tp220
Rp221
ag50
(g54
S'\xef\xda}\x15\xd2W\xe3?'
p222
tp223
Rp224
ag50
(g54
S'6_$\xe7\x17\x90\xe0?'
p225
tp226
Rp227
ag50
(g54
S'kz\xc7\xf7\x9b\x0f\xd2?'
p228
tp229
Rp230
ag50
(g54
S'\xb9p\xcc\x9b\xde\x16\xed?'
p231
tp232
Rp233
ag50
(g54
S'4#}\xb9\xd3\xf4\xe4?'
p234
tp235
Rp236
ag50
(g54
S'kz\xc7\xf7\x9b\x0f\xd2?'
p237
tp238
Rp239
ag50
(g54
S'\xc6"\xaf4\n\xfa\xda?'
p240
tp241
Rp242
ag50
(g54
S'h\xcc\x05\r\xd2\x13\xd9?'
p243
tp244
Rp245
ag50
(g54
S'\x9c\xc2\x86\xfc\xd1\n\xe8?'
p246
tp247
Rp248
ag50
(g54
S'\xad\x8eh\x8b=\xc4\xe7?'
p249
tp250
Rp251
ag50
(g54
S'h\xcc\x05\r\xd2\x13\xd9?'
p252
tp253
Rp254
ag50
(g54
S'\xc6"\xaf4\n\xfa\xda?'
p255
tp256
Rp257
ag50
(g54
S'4#}\xb9\xd3\xf4\xe4?'
p258
tp259
Rp260
ag50
(g54
S'4#}\xb9\xd3\xf4\xe4?'
p261
tp262
Rp263
ag50
(g54
S'6_$\xe7\x17\x90\xe0?'
p264
tp265
Rp266
ag50
(g54
S'6_$\xe7\x17\x90\xe0?'
p267
tp268
Rp269
ag50
(g54
S'4#}\xb9\xd3\xf4\xe4?'
p270
tp271
Rp272
ag50
(g54
S'4#}\xb9\xd3\xf4\xe4?'
p273
tp274
Rp275
ag50
(g54
S'kz\xc7\xf7\x9b\x0f\xd2?'
p276
tp277
Rp278
ag50
(g54
S'\x9c\xc2\x86\xfc\xd1\n\xe8?'
p279
tp280
Rp281
ag50
(g54
S'h\xcc\x05\r\xd2\x13\xd9?'
p282
tp283
Rp284
ag50
(g54
S'\xb9p\xcc\x9b\xde\x16\xed?'
p285
tp286
Rp287
ag50
(g54
S'h\xcc\x05\r\xd2\x13\xd9?'
p288
tp289
Rp290
ag50
(g54
S'\x9c\xc2\x86\xfc\xd1\n\xe8?'
p291
tp292
Rp293
ag50
(g54
S"\x92D'\xddc\x1b\xe4?"
p294
tp295
Rp296
ag50
(g54
S'kz\xc7\xf7\x9b\x0f\xd2?'
p297
tp298
Rp299
ag50
(g54
S'\xb9p\xcc\x9b\xde\x16\xed?'
p300
tp301
Rp302
ag50
(g54
S'6_$\xe7\x17\x90\xe0?'
p303
tp304
Rp305
ag50
(g54
S'4#}\xb9\xd3\xf4\xe4?'
p306
tp307
Rp308
ag50
(g54
S'4#}\xb9\xd3\xf4\xe4?'
p309
tp310
Rp311
ag50
(g54
S'kz\xc7\xf7\x9b\x0f\xd2?'
p312
tp313
Rp314
ag50
(g54
S'\xb9p\xcc\x9b\xde\x16\xed?'
p315
tp316
Rp317
ag50
(g54
S'\xb9p\xcc\x9b\xde\x16\xed?'
p318
tp319
Rp320
ag50
(g54
S'\xc6"\xaf4\n\xfa\xda?'
p321
tp322
Rp323
ag50
(g54
S'\xad\x8eh\x8b=\xc4\xe7?'
p324
tp325
Rp326
ag50
(g54
S'\xad\x8eh\x8b=\xc4\xe7?'
p327
tp328
Rp329
ag50
(g54
S'\xad\x8eh\x8b=\xc4\xe7?'
p330
tp331
Rp332
ag50
(g54
S'\xad\x8eh\x8b=\xc4\xe7?'
p333
tp334
Rp335
ag50
(g54
S'h\xcc\x05\r\xd2\x13\xd9?'
p336
tp337
Rp338
ag50
(g54
S'\x9c\xc2\x86\xfc\xd1\n\xe8?'
p339
tp340
Rp341
ag50
(g54
S"\x92D'\xddc\x1b\xe4?"
p342
tp343
Rp344
ag50
(g54
S'kz\xc7\xf7\x9b\x0f\xd2?'
p345
tp346
Rp347
ag50
(g54
S'\x9c\xc2\x86\xfc\xd1\n\xe8?'
p348
tp349
Rp350
ag50
(g54
S'h\xcc\x05\r\xd2\x13\xd9?'
p351
tp352
Rp353
ag50
(g54
S'\xb9p\xcc\x9b\xde\x16\xed?'
p354
tp355
Rp356
ag50
(g54
S'kz\xc7\xf7\x9b\x0f\xd2?'
p357
tp358
Rp359
ag50
(g54
S'\x9c\xc2\x86\xfc\xd1\n\xe8?'
p360
tp361
Rp362
ag50
(g54
S'h\xcc\x05\r\xd2\x13\xd9?'
p363
tp364
Rp365
ag50
(g54
S'\xb9p\xcc\x9b\xde\x16\xed?'
p366
tp367
Rp368
ag50
(g54
S'\x9c\xc2\x86\xfc\xd1\n\xe8?'
p369
tp370
Rp371
ag50
(g54
S'h\xcc\x05\r\xd2\x13\xd9?'
p372
tp373
Rp374
ag50
(g54
S'\xb9p\xcc\x9b\xde\x16\xed?'
p375
tp376
Rp377
ag50
(g54
S'\x9c\xc2\x86\xfc\xd1\n\xe8?'
p378
tp379
Rp380
ag50
(g54
S"\x92D'\xddc\x1b\xe4?"
p381
tp382
Rp383
ag50
(g54
S'kz\xc7\xf7\x9b\x0f\xd2?'
p384
tp385
Rp386
ag50
(g54
S'\xc6"\xaf4\n\xfa\xda?'
p387
tp388
Rp389
ag50
(g54
S'h\xcc\x05\r\xd2\x13\xd9?'
p390
tp391
Rp392
ag50
(g54
S'\xc6"\xaf4\n\xfa\xda?'
p393
tp394
Rp395
ag50
(g54
S'4#}\xb9\xd3\xf4\xe4?'
p396
tp397
Rp398
ag50
(g54
S'kz\xc7\xf7\x9b\x0f\xd2?'
p399
tp400
Rp401
ag50
(g54
S'\x9c\xc2\x86\xfc\xd1\n\xe8?'
p402
tp403
Rp404
ag50
(g54
S'\xad\x8eh\x8b=\xc4\xe7?'
p405
tp406
Rp407
ag50
(g54
S'h\xcc\x05\r\xd2\x13\xd9?'
p408
tp409
Rp410
ag50
(g54
S'\xbc\x1b\xcf\xc5\xa8D\xeb?'
p411
tp412
Rp413
ag50
(g54
S'6_$\xe7\x17\x90\xe0?'
p414
tp415
Rp416
ag50
(g54
S'6_$\xe7\x17\x90\xe0?'
p417
tp418
Rp419
ag50
(g54
S'kz\xc7\xf7\x9b\x0f\xd2?'
p420
tp421
Rp422
ag50
(g54
S'\xc6"\xaf4\n\xfa\xda?'
p423
tp424
Rp425
ag50
(g54
S'h\xcc\x05\r\xd2\x13\xd9?'
p426
tp427
Rp428
ag50
(g54
S'\x9c\xc2\x86\xfc\xd1\n\xe8?'
p429
tp430
Rp431
ag50
(g54
S"\x92D'\xddc\x1b\xe4?"
p432
tp433
Rp434
ag50
(g54
S'kz\xc7\xf7\x9b\x0f\xd2?'
p435
tp436
Rp437
ag50
(g54
S'\xc6"\xaf4\n\xfa\xda?'
p438
tp439
Rp440
asS'sp'
p441
(lp442
(S'p0'
p443
I0
S'y'
p444
tp445
a(g443
I0
S'x'
p446
tp447
a(g443
I0
g446
tp448
a(g443
I0
g444
tp449
a(g443
I0
g444
tp450
ag450
a(S'p1'
p451
I0
g444
tp452
a(g451
I0
S't'
p453
tp454
a(g451
I0
g453
tp455
a(g451
F1.5707963267948966
g453
tp456
a(g451
F1.5707963267948966
g446
tp457
a(g443
F1.5707963267948966
g446
tp458
a(g443
F1.5707963267948966
g444
tp459
a(g443
F1.5707963267948966
g446
tp460
ag459
a(g451
F1.5707963267948966
g444
tp461
a(g451
F1.5707963267948966
g453
tp462
ag457
a(g451
F1.5707963267948966
g453
tp463
a(g451
F1.5707963267948966
g453
tp464
ag464
ag457
a(S'p2'
p465
F1.5707963267948966
g446
tp466
a(g465
F1.5707963267948966
g446
tp467
a(g465
F1.5707963267948966
g444
tp468
a(g465
F1.5707963267948966
g453
tp469
a(g465
F1.5707963267948966
g444
tp470
a(g451
F1.5707963267948966
g444
tp471
a(g451
F1.5707963267948966
g446
tp472
ag458
ag459
a(g443
F1.5707963267948966
g453
tp473
a(g443
F1.5707963267948966
g453
tp474
a(g443
F1.5707963267948966
g446
tp475
ag459
ag461
ag462
a(g451
I0
g453
tp476
ag456
ag476
a(g451
I0
g444
tp477
ag477
a(g451
I0
g444
tp478
a(g451
I0
g444
tp479
ag479
ag479
ag478
ag478
ag478
ag478
ag454
ag455
a(g451
I0
g446
tp480
a(g451
I0
g444
tp481
ag454
ag456
ag456
ag457
ag458
a(g443
F1.5707963267948966
g446
tp482
ag459
ag461
ag472
a(g451
F1.5707963267948966
g444
tp483
a(g451
F1.5707963267948966
g444
tp484
ag472
ag466
ag467
ag467
ag467
ag467
ag467
ag467
ag468
ag469
ag470
ag471
ag472
ag483
ag462
ag457
ag458
ag458
ag482
ag482
ag459
a(g443
F1.5707963267948966
g444
tp485
ag485
ag461
ag484
ag484
ag484
ag484
ag472
ag483
ag462
ag457
ag483
ag472
ag458
ag459
ag473
a(g443
F1.5707963267948966
g444
tp486
ag485
ag473
ag486
ag485
ag473
ag475
ag459
ag461
ag472
ag466
ag467
ag468
ag469
a(g465
F1.5707963267948966
g453
tp487
ag470
a(g465
F1.5707963267948966
g446
tp488
ag488
ag488
ag468
a(S'p3'
p489
F1.5707963267948966
g444
tp490
a(g489
F1.5707963267948966
g446
tp491
a(g489
F1.5707963267948966
g444
tp492
a(g489
F1.5707963267948966
g453
tp493
a(g489
F1.5707963267948966
g446
tp494
a(S'p4'
p495
F1.5707963267948966
g446
tp496
asS's'
p497
(lp498
(g443
I0
g22
tp499
ag445
ag447
ag448
ag449
ag450
ag450
ag452
ag454
ag455
ag456
ag457
ag458
ag459
ag460
ag459
ag461
ag462
ag457
ag463
ag464
ag464
ag457
ag466
ag467
ag468
ag469
ag470
ag471
ag472
ag458
ag459
ag473
ag474
ag475
ag459
ag461
ag462
ag476
ag456
ag476
ag477
ag477
ag478
ag479
ag479
ag479
ag478
ag478
ag478
ag478
ag454
ag455
ag480
ag481
ag454
ag456
ag456
ag457
ag458
ag482
ag459
ag461
ag472
ag483
ag484
ag472
ag466
ag467
ag467
ag467
ag467
ag467
ag467
ag468
ag469
ag470
ag471
ag472
ag483
ag462
ag457
ag458
ag458
ag482
ag482
ag459
ag485
ag485
ag461
ag484
ag484
ag484
ag484
ag472
ag483
ag462
ag457
ag483
ag472
ag458
ag459
ag473
ag486
ag485
ag473
ag486
ag485
ag473
ag475
ag459
ag461
ag472
ag466
ag467
ag468
ag469
ag487
ag470
ag488
ag488
ag488
ag468
ag490
ag491
ag492
ag493
ag494
asS'ui'
p500
(lp501
S'hs'
p502
ag502
aS'hp'
p503
ag503
ag502
aS'ss'
p504
ag503
ag503
ag504
ag441
ag503
ag502
ag503
ag441
ag503
ag504
ag503
ag503
ag502
ag441
ag441
ag503
ag504
ag441
ag503
ag503
ag502
ag504
ag503
ag441
ag503
ag504
ag441
ag503
ag503
ag504
ag503
ag503
ag502
ag503
ag503
ag503
ag441
ag503
ag441
ag441
ag441
ag503
ag441
ag441
ag503
ag504
ag503
ag503
ag503
ag441
ag502
ag503
ag504
ag441
ag503
ag504
ag502
ag502
ag441
ag502
ag504
ag503
ag441
ag503
ag503
ag441
ag441
ag503
ag504
ag502
ag504
ag502
ag504
ag502
ag503
ag441
ag441
ag441
ag441
ag503
ag504
ag504
ag504
ag502
ag503
ag503
ag502
ag502
ag503
ag502
ag503
ag503
ag502
ag441
ag503
ag504
ag502
ag441
ag503
ag502
ag504
ag504
ag502
ag503
ag504
ag502
ag504
ag441
ag503
ag503
ag502
ag502
ag503
ag503
ag503
ag503
ag504
ag502
ag503
ag441
ag503
ag504
asS'um_before'
p505
(lp506
g502
ag502
ag441
ag503
ag441
ag441
ag504
ag503
ag504
ag441
ag503
ag441
ag503
ag502
ag503
ag504
ag503
ag503
ag502
ag441
ag441
ag503
ag504
ag441
ag503
ag503
ag502
ag441
ag502
ag441
ag503
ag503
ag441
ag503
ag503
ag504
ag503
ag504
ag441
ag504
ag502
ag502
ag441
ag504
ag502
ag502
ag441
ag441
ag441
ag441
ag503
ag504
ag503
ag503
ag503
ag441
ag502
ag503
ag441
ag441
ag503
ag504
ag502
ag503
ag441
ag502
ag504
ag441
ag441
ag502
ag502
ag441
ag441
ag503
ag503
ag502
ag441
ag502
ag503
ag503
ag503
ag441
ag502
ag441
ag441
ag503
ag441
ag441
ag504
ag441
ag441
ag441
ag441
ag502
ag503
ag503
ag503
ag503
ag502
ag441
ag503
ag503
ag502
ag441
ag503
ag502
ag441
ag503
ag503
ag503
ag504
ag502
ag504
ag441
ag503
ag503
ag441
ag502
ag502
ag502
ag502
ag503
ag504
ag502
ag503
ag503
ag503
ag504
asS'um_after'
p507
(lp508
g502
ag502
ag441
ag503
ag441
ag441
ag504
ag503
ag504
ag441
ag503
ag441
ag503
ag502
ag503
ag504
ag503
ag503
ag502
ag441
ag441
ag503
ag504
ag441
ag503
ag503
ag502
ag441
ag502
ag441
ag503
ag503
ag441
ag503
ag503
ag504
ag503
ag504
ag441
ag504
ag502
aNag441
ag504
aNaNag441
ag441
ag441
ag441
ag503
ag504
ag503
ag503
ag503
ag441
aNag503
ag441
ag441
ag503
ag504
ag502
ag503
ag441
ag502
ag504
ag441
ag441
aNaNag441
ag441
ag503
ag503
ag502
ag441
ag502
ag503
ag503
ag503
ag441
aNag441
ag441
ag503
ag441
ag441
ag504
ag441
ag441
ag441
ag441
ag502
ag503
ag503
ag503
ag503
ag502
ag441
ag503
ag503
ag502
ag441
ag503
ag502
ag441
ag503
ag503
ag503
ag504
ag502
ag504
ag441
ag503
ag503
ag441
ag502
ag502
aNaNag503
ag504
ag502
ag503
ag503
ag503
ag504
asS'is_normalized_entropy_less_than_threshold'
p509
(lp510
g50
(g51
(S'b1'
p511
I0
I1
tp512
Rp513
(I3
S'|'
p514
NNNI-1
I-1
I0
tp515
bS'\x01'
p516
tp517
Rp518
ag50
(g513
S'\x00'
p519
tp520
Rp521
ag521
ag518
ag521
ag521
ag518
ag518
ag521
ag521
ag518
ag521
ag518
ag521
ag518
ag518
ag521
ag518
ag521
ag521
ag521
ag518
ag518
ag521
ag518
ag521
ag518
ag521
ag518
ag521
ag518
ag521
ag521
ag521
ag518
ag518
ag521
ag521
ag521
ag521
ag521
ag518
ag521
ag521
ag518
ag518
ag521
ag521
ag521
ag521
ag518
ag521
ag521
ag521
ag518
ag521
ag518
ag518
ag521
ag521
ag518
ag518
ag518
ag521
ag521
ag518
ag518
ag521
ag521
ag518
ag518
ag521
ag521
ag518
ag521
ag518
ag521
ag518
ag521
ag521
ag518
ag521
ag518
ag521
ag521
ag518
ag521
ag521
ag518
ag521
ag521
ag521
ag521
ag518
ag521
ag521
ag518
ag521
ag518
ag521
ag518
ag521
ag518
ag521
ag521
ag518
ag521
ag521
ag521
ag518
ag518
ag518
ag518
ag521
ag518
ag521
ag521
ag518
ag521
ag518
ag518
ag518
ag518
ag518
ag521
ag521
ag518
ag518
asaa(lp522
S'index'
p523
aI82911
aatp524
Rp525
.