ccollections
OrderedDict
p0
((lp1
(lp2
S'combination_dict'
p3
ag0
((lp4
(lp5
S'r_to_g_config'
p6
aS'br'
p7
aa(lp8
S'num_turns'
p9
aI1
aa(lp10
S'start_direction'
p11
acutils_ms
StartDirection
p12
(I1
tp13
Rp14
aa(lp15
S'assistance_type'
p16
acutils_ms
AssistanceType
p17
(I0
tp18
Rp19
aa(lp20
S'start_mode'
p21
aS't'
p22
aa(lp23
S'ui_given_a_noise'
p24
aF0.3
aa(lp25
S'um_given_ui_noise'
p26
aF0.7
aa(lp27
S'entropy_threshold'
p28
aF0.9
aatp29
Rp30
aa(lp31
S'data'
p32
accollections
defaultdict
p33
(c__builtin__
list
p34
tp35
Rp36
S'a'
p37
(lp38
S'mode_l'
p39
ag39
ag39
ag39
aS'move_n'
p40
aS'mode_r'
p41
ag41
ag41
aS'move_p'
p42
ag42
ag42
ag41
ag42
ag42
asS'assistance_match_with_ground_truth'
p43
(lp44
I00
aI00
aI00
aI01
aI01
aI00
aI00
aI01
aI00
aI00
aI01
aI01
aI00
aI01
asS'is_u_intended_equals_um'
p45
(lp46
I00
aI00
aI00
aI01
aI01
aI00
aI00
aI01
aI00
aI00
aI01
aI01
aI00
aI01
asS'total_steps'
p47
I14
sS'normalized_h_of_p_ui_given_um'
p48
(lp49
cnumpy.core.multiarray
scalar
p50
(cnumpy
dtype
p51
(S'f8'
p52
I0
I1
tp53
Rp54
(I3
S'<'
p55
NNNI-1
I-1
I0
tp56
bS'\xc1-x\xb4\xa8C\xeb?'
p57
tp58
Rp59
ag50
(g54
S'\xb3XX\x94B\xc8\xeb?'
p60
tp61
Rp62
ag50
(g54
S'\xb3XX\x94B\xc8\xeb?'
p63
tp64
Rp65
ag50
(g54
S'~m\xbe\xf2\x8av\xd3?'
p66
tp67
Rp68
ag50
(g54
S'\xea\xc3\xf0\x120+\xdf?'
p69
tp70
Rp71
ag50
(g54
S'\xa8\x04\xce\xed\x01\x17\xde?'
p72
tp73
Rp74
ag50
(g54
S'\xfc\xb3\x95\xbe{\xa5\xe1?'
p75
tp76
Rp77
ag50
(g54
S'\xa7\xeb8h\xda\x8d\xd0?'
p78
tp79
Rp80
ag50
(g54
S'\x0fQ\xaem\xc5\x89\xe5?'
p81
tp82
Rp83
ag50
(g54
S'%\x9a\x8d\xf6L\xf3\xe8?'
p84
tp85
Rp86
ag50
(g54
S'\x92\x85\xf6\xc3\xb1P\xd0?'
p87
tp88
Rp89
ag50
(g54
S'\xa7\xeb8h\xda\x8d\xd0?'
p90
tp91
Rp92
ag50
(g54
S'%\x9a\x8d\xf6L\xf3\xe8?'
p93
tp94
Rp95
ag50
(g54
S'\x92\x85\xf6\xc3\xb1P\xd0?'
p96
tp97
Rp98
asS'sp'
p99
(lp100
(S'p0'
p101
I0
g22
tp102
ag102
ag102
a(g101
I0
S'y'
p103
tp104
a(S'p1'
p105
I0
g103
tp106
ag106
ag106
a(g105
I0
S't'
p107
tp108
ag108
ag108
a(g105
F1.5707963267948966
g107
tp109
a(g105
F1.5707963267948966
S'x'
p110
tp111
ag111
a(S'p2'
p112
F1.5707963267948966
g110
tp113
asS's'
p114
(lp115
g102
ag102
ag102
ag102
ag104
ag106
ag106
ag106
ag108
ag108
ag108
ag109
ag111
ag111
asS'ui'
p116
(lp117
S'hs'
p118
aS'hp'
p119
ag119
ag118
aS'ss'
p120
ag99
ag119
ag119
ag99
ag99
ag99
ag119
ag119
ag118
asS'um_before'
p121
(lp122
g120
ag119
ag119
ag118
ag120
ag120
ag99
ag119
ag120
ag119
ag99
ag119
ag119
ag99
asS'um_after'
p123
(lp124
NaNaNag118
ag120
aNaNag119
aNaNag99
ag119
aNag99
asS'is_normalized_entropy_less_than_threshold'
p125
(lp126
g50
(g51
(S'b1'
p127
I0
I1
tp128
Rp129
(I3
S'|'
p130
NNNI-1
I-1
I0
tp131
bS'\x01'
p132
tp133
Rp134
ag134
ag134
ag134
ag134
ag134
ag134
ag134
ag134
ag134
ag134
ag134
ag134
ag134
asaa(lp135
S'index'
p136
aI92395
aatp137
Rp138
.