ccollections
OrderedDict
p0
((lp1
(lp2
S'combination_dict'
p3
ag0
((lp4
(lp5
S'r_to_g_config'
p6
aS'bl'
p7
aa(lp8
S'num_turns'
p9
aI1
aa(lp10
S'start_direction'
p11
acutils_ms
StartDirection
p12
(I1
tp13
Rp14
aa(lp15
S'assistance_type'
p16
acutils_ms
AssistanceType
p17
(I0
tp18
Rp19
aa(lp20
S'start_mode'
p21
aS'x'
p22
aa(lp23
S'ui_given_a_noise'
p24
aF0.7
aa(lp25
S'um_given_ui_noise'
p26
aF0.5
aa(lp27
S'entropy_threshold'
p28
aF0.9
aatp29
Rp30
aa(lp31
S'data'
p32
accollections
defaultdict
p33
(c__builtin__
list
p34
tp35
Rp36
S'a'
p37
(lp38
S'mode_r'
p39
ag39
aS'move_n'
p40
ag39
aS'move_p'
p41
ag41
ag39
ag39
ag41
ag39
ag39
ag41
aS'mode_l'
p42
ag39
ag42
ag39
ag39
ag39
ag39
ag39
ag41
ag39
ag39
ag39
ag42
ag41
ag39
ag41
ag39
ag39
ag39
ag41
ag42
ag42
ag41
ag39
ag42
ag40
ag42
ag40
ag42
ag42
ag40
ag39
ag42
ag39
ag39
ag39
ag40
ag42
ag40
asS'assistance_match_with_ground_truth'
p43
(lp44
I00
aI01
aI01
aI01
aI00
aI00
aI00
aI01
aI00
aI00
aI01
aI00
aI00
aI00
aI00
aI00
aI00
aI00
aI00
aI01
aI00
aI00
aI00
aI00
aI01
aI01
aI00
aI01
aI00
aI00
aI00
aI00
aI00
aI01
aI01
aI00
aI01
aI00
aI01
aI00
aI00
aI01
aI00
aI00
aI00
aI00
aI00
aI01
aI01
aI01
aI01
asS'is_u_intended_equals_um'
p45
(lp46
I00
aI01
aI01
aI01
aI01
aI01
aI00
aI01
aI01
aI01
aI01
aI01
aI01
aI00
aI01
aI00
aI00
aI01
aI00
aI01
aI01
aI01
aI00
aI00
aI01
aI01
aI01
aI01
aI00
aI00
aI01
aI01
aI00
aI01
aI01
aI00
aI01
aI01
aI01
aI01
aI00
aI01
aI01
aI00
aI01
aI01
aI00
aI01
aI01
aI01
aI01
asS'total_steps'
p47
I51
sS'normalized_h_of_p_ui_given_um'
p48
(lp49
cnumpy.core.multiarray
scalar
p50
(cnumpy
dtype
p51
(S'f8'
p52
I0
I1
tp53
Rp54
(I3
S'<'
p55
NNNI-1
I-1
I0
tp56
bS'\xd4\x9c\x17H\x91\x88\xeb?'
p57
tp58
Rp59
ag50
(g54
S'\xfe\x8cO\xf1\xbbS\xd7?'
p60
tp61
Rp62
ag50
(g54
S'\xf4\xf5L\xc0\xccw\xd6?'
p63
tp64
Rp65
ag50
(g54
S'\xfe\x8cO\xf1\xbbS\xd7?'
p66
tp67
Rp68
ag50
(g54
S'\\\xe0\x8e=\xe4\xdd\xe4?'
p69
tp70
Rp71
ag50
(g54
S'%\x1d\xdam\xce\x92\xed?'
p72
tp73
Rp74
ag50
(g54
S'\xd4\x9c\x17H\x91\x88\xeb?'
p75
tp76
Rp77
ag50
(g54
S'\xfe\x8cO\xf1\xbbS\xd7?'
p78
tp79
Rp80
ag50
(g54
S'%\x1d\xdam\xce\x92\xed?'
p81
tp82
Rp83
ag50
(g54
S'\xbc\x06\xe7J\xaa\xb7\xdc?'
p84
tp85
Rp86
ag50
(g54
S'\xfe\x8cO\xf1\xbbS\xd7?'
p87
tp88
Rp89
ag50
(g54
S'\x15\xbf\xf1\xfc#\xc7\xe3?'
p90
tp91
Rp92
ag50
(g54
S'\xbd\x88\xca\xb6\x05P\xcd?'
p93
tp94
Rp95
ag50
(g54
S'8=\x01<\xdc,\xed?'
p96
tp97
Rp98
ag50
(g54
S'\xbd\x88\xca\xb6\x05P\xcd?'
p99
tp100
Rp101
ag50
(g54
S'\xd4\x9c\x17H\x91\x88\xeb?'
p102
tp103
Rp104
ag50
(g54
S'\xd4\x9c\x17H\x91\x88\xeb?'
p105
tp106
Rp107
ag50
(g54
S'\xbc\x06\xe7J\xaa\xb7\xdc?'
p108
tp109
Rp110
ag50
(g54
S'\xd4\x9c\x17H\x91\x88\xeb?'
p111
tp112
Rp113
ag50
(g54
S'\xfe\x8cO\xf1\xbbS\xd7?'
p114
tp115
Rp116
ag50
(g54
S'%\x1d\xdam\xce\x92\xed?'
p117
tp118
Rp119
ag50
(g54
S'\xbc\x06\xe7J\xaa\xb7\xdc?'
p120
tp121
Rp122
ag50
(g54
S'\xd4\x9c\x17H\x91\x88\xeb?'
p123
tp124
Rp125
ag50
(g54
S'8=\x01<\xdc,\xed?'
p126
tp127
Rp128
ag50
(g54
S'\xc7\xd4\x8a\x91{\xb1\xda?'
p129
tp130
Rp131
ag50
(g54
S'\xd0\x07\x88\x8d\xb6y\xe3?'
p132
tp133
Rp134
ag50
(g54
S'\xbc\x06\xe7J\xaa\xb7\xdc?'
p135
tp136
Rp137
ag50
(g54
S'\xd0\x07\x88\x8d\xb6y\xe3?'
p138
tp139
Rp140
ag50
(g54
S'\xd4\x9c\x17H\x91\x88\xeb?'
p141
tp142
Rp143
ag50
(g54
S'\xd4\x9c\x17H\x91\x88\xeb?'
p144
tp145
Rp146
ag50
(g54
S'\xbc\x06\xe7J\xaa\xb7\xdc?'
p147
tp148
Rp149
ag50
(g54
S'\x15\xbf\xf1\xfc#\xc7\xe3?'
p150
tp151
Rp152
ag50
(g54
S'\xab\x8a\xa7\xc7\xbe\xc1\xe7?'
p153
tp154
Rp155
ag50
(g54
S'\xc7\xd4\x8a\x91{\xb1\xda?'
p156
tp157
Rp158
ag50
(g54
S'\xd0\x07\x88\x8d\xb6y\xe3?'
p159
tp160
Rp161
ag50
(g54
S'8=\x01<\xdc,\xed?'
p162
tp163
Rp164
ag50
(g54
S'\xc7\xd4\x8a\x91{\xb1\xda?'
p165
tp166
Rp167
ag50
(g54
S'\xdb\nk0\xbei\xe2?'
p168
tp169
Rp170
ag50
(g54
S'\xc7\xd4\x8a\x91{\xb1\xda?'
p171
tp172
Rp173
ag50
(g54
S'\xdb\nk0\xbei\xe2?'
p174
tp175
Rp176
ag50
(g54
S'1L\xd8N\xc2\xbf\xe7?'
p177
tp178
Rp179
ag50
(g54
S'\xc7\xd4\x8a\x91{\xb1\xda?'
p180
tp181
Rp182
ag50
(g54
S'\xee\x1d\x00Xg\x96\xe8?'
p183
tp184
Rp185
ag50
(g54
S'8=\x01<\xdc,\xed?'
p186
tp187
Rp188
ag50
(g54
S'\xbd\x88\xca\xb6\x05P\xcd?'
p189
tp190
Rp191
ag50
(g54
S'\xbc\x06\xe7J\xaa\xb7\xdc?'
p192
tp193
Rp194
ag50
(g54
S'\xd4\x9c\x17H\x91\x88\xeb?'
p195
tp196
Rp197
ag50
(g54
S'\xfe\x8cO\xf1\xbbS\xd7?'
p198
tp199
Rp200
ag50
(g54
S'\xf4\xf5L\xc0\xccw\xd6?'
p201
tp202
Rp203
ag50
(g54
S'\xc7\xd4\x8a\x91{\xb1\xda?'
p204
tp205
Rp206
ag50
(g54
S'\xf4\xf5L\xc0\xccw\xd6?'
p207
tp208
Rp209
asS'sp'
p210
(lp211
(S'p0'
p212
I0
g22
tp213
a(g212
I0
S'y'
p214
tp215
a(S'p1'
p216
I0
g214
tp217
a(g216
I0
S't'
p218
tp219
a(g216
I0
g218
tp220
a(g216
I0
g214
tp221
ag221
ag219
ag221
a(g216
I0
g214
tp222
ag219
a(g216
I0
S'x'
p223
tp224
a(g216
I0
g214
tp225
a(g216
I0
g223
tp226
ag225
ag225
ag225
ag222
ag222
ag219
ag221
ag222
ag222
ag226
a(g216
I0
g218
tp227
a(g216
F1.5707963267948966
g218
tp228
a(g216
I0
g218
tp229
ag228
ag228
ag228
ag229
ag224
ag224
ag227
ag228
a(g216
F1.5707963267948966
g214
tp230
a(g216
F1.5707963267948966
g223
tp231
a(g216
F1.5707963267948966
g214
tp232
ag231
ag232
ag232
ag231
a(g212
F1.5707963267948966
g223
tp233
a(g212
F1.5707963267948966
g218
tp234
a(g212
F1.5707963267948966
g223
tp235
a(g212
F1.5707963267948966
g223
tp236
ag236
a(g212
F1.5707963267948966
g214
tp237
a(g216
F1.5707963267948966
g214
tp238
ag231
a(S'p2'
p239
F1.5707963267948966
g223
tp240
asS's'
p241
(lp242
g213
ag213
ag215
ag217
ag219
ag220
ag221
ag221
ag219
ag221
ag222
ag219
ag224
ag225
ag226
ag225
ag225
ag225
ag222
ag222
ag219
ag221
ag222
ag222
ag226
ag227
ag228
ag229
ag228
ag228
ag228
ag229
ag224
ag224
ag227
ag228
ag230
ag231
ag232
ag231
ag232
ag232
ag231
ag233
ag234
ag235
ag236
ag236
ag237
ag238
ag231
asS'ui'
p243
(lp244
S'hp'
p245
ag245
aS'ss'
p246
ag246
ag246
aS'hs'
p247
ag245
ag246
ag246
ag246
ag245
ag245
ag245
ag247
ag245
ag210
ag245
ag246
ag245
ag245
ag245
ag245
ag246
ag247
ag247
ag245
ag246
ag210
ag245
ag245
ag246
ag245
ag246
ag247
ag210
ag246
ag247
ag245
ag247
ag245
ag245
ag247
ag210
ag246
ag245
ag246
ag245
ag245
ag246
ag247
ag246
asS'um_before'
p248
(lp249
g210
ag245
ag246
ag245
ag246
ag247
ag210
ag245
ag247
ag246
ag245
ag245
ag245
ag247
ag245
ag210
ag210
ag246
ag210
ag245
ag247
ag246
ag210
ag247
ag247
ag210
ag246
ag210
ag210
ag210
ag246
ag245
ag246
ag247
ag210
ag247
ag247
ag245
ag247
ag245
ag210
ag247
ag210
ag247
ag245
ag246
ag210
ag245
ag246
ag247
ag246
asS'um_after'
p250
(lp251
Nag245
ag246
ag245
ag246
ag247
aNag245
ag247
ag246
ag245
ag245
ag245
ag247
ag245
aNaNag246
aNag245
ag247
ag246
aNag247
ag247
ag210
ag246
ag210
aNaNag246
ag245
aNag247
ag210
ag247
ag247
ag245
ag247
ag245
aNag247
ag210
ag247
ag245
ag246
aNag245
ag246
ag247
ag246
asS'is_normalized_entropy_less_than_threshold'
p252
(lp253
g50
(g51
(S'b1'
p254
I0
I1
tp255
Rp256
(I3
S'|'
p257
NNNI-1
I-1
I0
tp258
bS'\x01'
p259
tp260
Rp261
ag261
ag261
ag261
ag261
ag50
(g256
S'\x00'
p262
tp263
Rp264
ag261
ag261
ag264
ag261
ag261
ag261
ag261
ag264
ag261
ag261
ag261
ag261
ag261
ag261
ag264
ag261
ag261
ag264
ag261
ag261
ag261
ag261
ag261
ag261
ag261
ag261
ag261
ag261
ag261
ag264
ag261
ag261
ag261
ag261
ag261
ag261
ag261
ag264
ag261
ag261
ag261
ag261
ag261
ag261
ag261
asaa(lp265
S'index'
p266
aI63144
aatp267
Rp268
.