ccollections
OrderedDict
p0
((lp1
(lp2
S'combination_dict'
p3
ag0
((lp4
(lp5
S'r_to_g_config'
p6
aS'br'
p7
aa(lp8
S'num_turns'
p9
aI1
aa(lp10
S'start_direction'
p11
acutils_ms
StartDirection
p12
(I1
tp13
Rp14
aa(lp15
S'assistance_type'
p16
acutils_ms
AssistanceType
p17
(I0
tp18
Rp19
aa(lp20
S'start_mode'
p21
aS't'
p22
aa(lp23
S'ui_given_a_noise'
p24
aF0.3
aa(lp25
S'um_given_ui_noise'
p26
aF0.3
aa(lp27
S'entropy_threshold'
p28
aF0.5
aatp29
Rp30
aa(lp31
S'data'
p32
accollections
defaultdict
p33
(c__builtin__
list
p34
tp35
Rp36
S'a'
p37
(lp38
S'mode_l'
p39
ag39
aS'move_n'
p40
aS'mode_r'
p41
aS'move_p'
p42
ag41
ag42
ag41
ag41
ag41
ag40
ag39
ag39
ag39
ag42
ag39
ag39
ag42
ag41
ag42
ag41
ag41
ag41
ag40
ag39
ag39
ag39
ag42
ag41
ag42
asS'assistance_match_with_ground_truth'
p43
(lp44
I00
aI01
aI01
aI01
aI01
aI01
aI00
aI00
aI00
aI01
aI01
aI00
aI00
aI01
aI00
aI00
aI01
aI00
aI01
aI00
aI00
aI00
aI01
aI01
aI00
aI00
aI01
aI00
aI01
aI01
asS'is_u_intended_equals_um'
p45
(lp46
I00
aI01
aI01
aI01
aI01
aI01
aI00
aI00
aI00
aI01
aI01
aI00
aI00
aI01
aI01
aI00
aI01
aI01
aI01
aI00
aI00
aI00
aI01
aI01
aI00
aI00
aI01
aI01
aI01
aI01
asS'total_steps'
p47
I30
sS'normalized_h_of_p_ui_given_um'
p48
(lp49
cnumpy.core.multiarray
scalar
p50
(cnumpy
dtype
p51
(S'f8'
p52
I0
I1
tp53
Rp54
(I3
S'<'
p55
NNNI-1
I-1
I0
tp56
bS'p\xf0/C\n\xba\xdf?'
p57
tp58
Rp59
ag50
(g54
S'\xc2\xcb\x94\xd9\xc1\x86\xb1?'
p60
tp61
Rp62
ag50
(g54
S'\xd3\x17\x1aM\xbd"\xc4?'
p63
tp64
Rp65
ag50
(g54
S'\xc7GO\x1b\xc7>\xc4?'
p66
tp67
Rp68
ag50
(g54
S'\xfa\xbf\xeb\xe6N\x00\xcf?'
p69
tp70
Rp71
ag50
(g54
S'\xc7GO\x1b\xc7>\xc4?'
p72
tp73
Rp74
ag50
(g54
S'^\xc0\xf2\xd7\xa8\xe6\xeb?'
p75
tp76
Rp77
ag50
(g54
S'(~Nb\tj\xe7?'
p78
tp79
Rp80
ag50
(g54
S'(~Nb\tj\xe7?'
p81
tp82
Rp83
ag50
(g54
S'\xc7GO\x1b\xc7>\xc4?'
p84
tp85
Rp86
ag50
(g54
S'\xd3\x17\x1aM\xbd"\xc4?'
p87
tp88
Rp89
ag50
(g54
S'p\xf0/C\n\xba\xdf?'
p90
tp91
Rp92
ag50
(g54
S'\x03hh\xb1\x89\x9b\xdd?'
p93
tp94
Rp95
ag50
(g54
S'\xc2\xcb\x94\xd9\xc1\x86\xb1?'
p96
tp97
Rp98
ag50
(g54
S'\x11\x9b\x19>\x05B\xe8?'
p99
tp100
Rp101
ag50
(g54
S'\x03hh\xb1\x89\x9b\xdd?'
p102
tp103
Rp104
ag50
(g54
S'\xc2\xcb\x94\xd9\xc1\x86\xb1?'
p105
tp106
Rp107
ag50
(g54
S'Y\x19Dyt\xc1\xe5?'
p108
tp109
Rp110
ag50
(g54
S'\xc7GO\x1b\xc7>\xc4?'
p111
tp112
Rp113
ag50
(g54
S'^\xc0\xf2\xd7\xa8\xe6\xeb?'
p114
tp115
Rp116
ag50
(g54
S'(~Nb\tj\xe7?'
p117
tp118
Rp119
ag50
(g54
S'\xc7t z\x1f\xb6\xe5?'
p120
tp121
Rp122
ag50
(g54
S'\xc7GO\x1b\xc7>\xc4?'
p123
tp124
Rp125
ag50
(g54
S'\xd3\x17\x1aM\xbd"\xc4?'
p126
tp127
Rp128
ag50
(g54
S'\x1cp`\xc0\xa5\xdc\xda?'
p129
tp130
Rp131
ag50
(g54
S'\x1cp`\xc0\xa5\xdc\xda?'
p132
tp133
Rp134
ag50
(g54
S'\xc2\xcb\x94\xd9\xc1\x86\xb1?'
p135
tp136
Rp137
ag50
(g54
S'Y\x19Dyt\xc1\xe5?'
p138
tp139
Rp140
ag50
(g54
S'\xc7GO\x1b\xc7>\xc4?'
p141
tp142
Rp143
ag50
(g54
S'\xfa\xbf\xeb\xe6N\x00\xcf?'
p144
tp145
Rp146
asS'sp'
p147
(lp148
(S'p0'
p149
I0
g22
tp150
a(g149
I0
S'y'
p151
tp152
a(S'p1'
p153
I0
g151
tp154
a(g153
I0
S't'
p155
tp156
a(g153
F1.5707963267948966
g155
tp157
a(g153
F1.5707963267948966
S'x'
p158
tp159
a(g149
F1.5707963267948966
g158
tp160
a(g149
F1.5707963267948966
g158
tp161
ag161
a(g149
F1.5707963267948966
g151
tp162
a(g153
F1.5707963267948966
g151
tp163
ag163
ag163
a(g153
F1.5707963267948966
g158
tp164
a(g153
F1.5707963267948966
g151
tp165
ag165
ag164
a(g153
F1.5707963267948966
g155
tp166
ag159
ag160
ag161
a(g149
F1.5707963267948966
g158
tp167
ag162
ag163
ag163
ag163
ag164
ag166
ag159
a(S'p2'
p168
F1.5707963267948966
g158
tp169
asS's'
p170
(lp171
g150
ag150
ag152
ag154
ag156
ag157
ag159
ag160
ag161
ag161
ag162
ag163
ag163
ag163
ag164
ag165
ag165
ag164
ag166
ag159
ag160
ag161
ag167
ag162
ag163
ag163
ag163
ag164
ag166
ag159
asS'ui'
p172
(lp173
S'hs'
p174
ag174
aS'ss'
p175
aS'hp'
p176
ag147
ag176
ag147
ag147
ag176
ag176
ag175
ag174
ag174
ag174
ag176
ag174
ag174
ag174
ag176
ag147
ag174
ag176
ag176
ag175
ag174
ag174
ag174
ag174
ag176
ag147
asS'um_before'
p177
(lp178
g176
ag174
ag175
ag176
ag147
ag176
ag175
ag175
ag175
ag176
ag175
ag176
ag147
ag174
ag176
ag147
ag174
ag174
ag176
ag175
ag175
ag147
ag176
ag175
ag175
ag175
ag174
ag174
ag176
ag147
asS'um_after'
p179
(lp180
Nag174
ag175
ag176
ag147
ag176
ag175
ag175
ag175
ag176
ag175
aNaNag174
ag176
aNag174
ag174
ag176
ag175
ag175
ag147
ag176
ag175
aNaNag174
ag174
ag176
ag147
asS'is_normalized_entropy_less_than_threshold'
p181
(lp182
g50
(g51
(S'b1'
p183
I0
I1
tp184
Rp185
(I3
S'|'
p186
NNNI-1
I-1
I0
tp187
bS'\x01'
p188
tp189
Rp190
ag190
ag190
ag190
ag190
ag190
ag50
(g185
S'\x00'
p191
tp192
Rp193
ag193
ag193
ag190
ag190
ag190
ag190
ag190
ag193
ag190
ag190
ag193
ag190
ag193
ag193
ag193
ag190
ag190
ag190
ag190
ag190
ag193
ag190
ag190
asaa(lp194
S'index'
p195
aI92256
aatp196
Rp197
.