ccollections
OrderedDict
p0
((lp1
(lp2
S'combination_dict'
p3
ag0
((lp4
(lp5
S'r_to_g_config'
p6
aS'tr'
p7
aa(lp8
S'num_turns'
p9
aI2
aa(lp10
S'start_direction'
p11
acutils_ms
StartDirection
p12
(I1
tp13
Rp14
aa(lp15
S'assistance_type'
p16
acutils_ms
AssistanceType
p17
(I2
tp18
Rp19
aa(lp20
S'start_mode'
p21
aS'x'
p22
aa(lp23
S'ui_given_a_noise'
p24
aF0.5
aa(lp25
S'um_given_ui_noise'
p26
aF0.5
aa(lp27
S'entropy_threshold'
p28
aF0.5
aatp29
Rp30
aa(lp31
S'data'
p32
accollections
defaultdict
p33
(c__builtin__
list
p34
tp35
Rp36
S'a'
p37
(lp38
S'mode_r'
p39
ag39
aS'move_p'
p40
ag39
aS'mode_l'
p41
ag41
ag40
ag39
ag39
ag41
ag40
ag39
ag40
ag39
ag40
ag41
ag39
ag41
ag41
ag41
ag39
ag39
ag39
ag40
ag41
ag40
ag39
ag39
ag41
ag40
ag39
ag41
ag41
ag40
ag39
ag39
ag39
ag41
ag40
ag41
ag41
ag40
ag39
ag41
ag41
ag40
ag40
ag39
ag39
ag39
ag41
ag40
ag39
ag41
ag41
ag40
ag39
ag39
ag40
ag41
ag41
ag40
ag41
ag40
ag39
ag40
ag39
ag41
ag41
ag39
ag39
ag41
ag40
ag39
ag40
ag39
ag40
ag39
ag39
ag40
ag39
ag41
ag40
ag41
ag39
ag40
ag39
ag40
ag39
ag40
ag39
ag40
ag39
ag39
ag41
ag41
ag41
ag40
asS'assistance_match_with_ground_truth'
p42
(lp43
I00
aI01
aI00
aI00
aI00
aI01
aI01
aI00
aI00
aI01
aI00
aI01
aI01
aI00
aI00
aI00
aI00
aI00
aI00
aI00
aI00
aI00
aI01
aI00
aI01
aI01
aI00
aI00
aI01
aI01
aI00
aI00
aI01
aI00
aI00
aI00
aI00
aI01
aI01
aI00
aI01
aI00
aI00
aI00
aI01
aI00
aI00
aI00
aI00
aI00
aI01
aI00
aI00
aI00
aI01
aI00
aI00
aI01
aI01
aI00
aI01
aI00
aI01
aI00
aI01
aI00
aI00
aI00
aI00
aI00
aI00
aI01
aI00
aI01
aI01
aI01
aI00
aI00
aI01
aI00
aI00
aI01
aI00
aI00
aI01
aI00
aI01
aI00
aI01
aI00
aI01
aI00
aI00
aI00
aI00
aI00
aI01
aI01
asS'is_u_intended_equals_um'
p44
(lp45
I01
aI01
aI01
aI01
aI01
aI01
aI01
aI01
aI01
aI01
aI01
aI01
aI01
aI01
aI01
aI01
aI01
aI01
aI01
aI01
aI01
aI01
aI01
aI01
aI01
aI01
aI01
aI01
aI01
aI01
aI01
aI01
aI01
aI01
aI01
aI01
aI01
aI01
aI01
aI01
aI01
aI01
aI01
aI01
aI01
aI01
aI01
aI01
aI01
aI01
aI01
aI01
aI01
aI01
aI01
aI01
aI01
aI01
aI01
aI01
aI01
aI01
aI01
aI01
aI01
aI01
aI01
aI01
aI01
aI01
aI01
aI01
aI01
aI01
aI01
aI01
aI01
aI01
aI01
aI01
aI01
aI01
aI01
aI01
aI01
aI01
aI01
aI01
aI01
aI01
aI01
aI01
aI01
aI01
aI01
aI01
aI01
aI01
asS'total_steps'
p46
I98
sS'normalized_h_of_p_ui_given_um'
p47
(lp48
cnumpy.core.multiarray
scalar
p49
(cnumpy
dtype
p50
(S'f8'
p51
I0
I1
tp52
Rp53
(I3
S'<'
p54
NNNI-1
I-1
I0
tp55
bS'm\xb8v\xf3\xfb\x05\xde?'
p56
tp57
Rp58
ag58
ag58
ag58
ag58
ag58
ag58
ag58
ag58
ag58
ag58
ag58
ag58
ag58
ag58
ag58
ag58
ag58
ag58
ag58
ag58
ag58
ag58
ag58
ag58
ag58
ag58
ag58
ag58
ag58
ag58
ag58
ag58
ag58
ag58
ag58
ag58
ag58
ag58
ag58
ag58
ag58
ag58
ag58
ag58
ag58
ag58
ag58
ag58
ag58
ag58
ag58
ag58
ag58
ag58
ag58
ag58
ag58
ag58
ag58
ag58
ag58
ag58
ag58
ag58
ag58
ag58
ag58
ag58
ag58
ag58
ag58
ag58
ag58
ag58
ag58
ag58
ag58
ag58
ag58
ag58
ag58
ag58
ag58
ag58
ag58
ag58
ag58
ag58
ag58
ag58
ag58
ag58
ag58
ag58
ag58
ag58
ag58
asS'sp'
p59
(lp60
(S'p0'
p61
I0
S'x'
p62
tp63
a(g61
I0
S'y'
p64
tp65
a(g61
I0
g62
tp66
a(g61
I0
S't'
p67
tp68
a(g61
I0
g67
tp69
a(g61
I0
g64
tp70
a(S'p1'
p71
I0
g64
tp72
a(g71
I0
g64
tp73
a(g71
I0
g62
tp74
a(g71
I0
g67
tp75
a(g71
I0
g64
tp76
a(g71
I0
g67
tp77
a(g71
F1.5707963267948966
g67
tp78
a(g71
I0
g67
tp79
a(g71
I0
g62
tp80
a(g61
I0
g62
tp81
ag68
a(g61
I0
g67
tp82
ag69
a(g61
I0
g62
tp83
a(g61
I0
g62
tp84
ag84
ag65
a(g61
I0
g67
tp85
ag70
ag72
ag73
ag74
ag75
ag78
a(g71
F1.5707963267948966
g64
tp86
a(g71
F1.5707963267948966
g64
tp87
a(g71
F1.5707963267948966
g62
tp88
a(g61
F1.5707963267948966
g62
tp89
a(g61
F1.5707963267948966
g62
tp90
a(g61
F1.5707963267948966
g62
tp91
a(g61
F1.5707963267948966
g67
tp92
a(g61
F1.5707963267948966
g64
tp93
a(g71
F1.5707963267948966
g64
tp94
ag87
ag88
ag89
ag92
a(g61
F1.5707963267948966
g67
tp95
ag93
a(g61
F1.5707963267948966
g64
tp96
a(g61
F1.5707963267948966
g62
tp97
ag90
ag90
ag92
ag93
ag97
ag92
a(g61
F1.5707963267948966
g67
tp98
ag93
ag97
ag91
a(g61
F1.5707963267948966
g64
tp99
ag94
ag87
ag88
a(g71
F1.5707963267948966
g64
tp100
ag88
a(g71
F1.5707963267948966
g67
tp101
a(g71
F1.5707963267948966
g62
tp102
ag101
ag86
a(g71
F1.5707963267948966
g64
tp103
a(g71
F1.5707963267948966
g67
tp104
a(g71
F1.5707963267948966
g67
tp105
ag86
ag88
ag101
ag102
a(S'p2'
p106
F1.5707963267948966
g62
tp107
a(g106
F1.5707963267948966
g64
tp108
a(g106
F1.5707963267948966
g62
tp109
a(g106
F1.5707963267948966
g62
tp110
ag108
ag109
a(g106
F1.5707963267948966
g67
tp111
a(g106
F1.5707963267948966
g64
tp112
a(g106
F1.5707963267948966
g67
tp113
a(g106
F1.5707963267948966
g62
tp114
ag108
ag109
ag108
ag109
ag108
ag109
ag108
ag109
ag110
ag111
a(g106
F1.5707963267948966
g67
tp115
a(g106
F1.5707963267948966
g67
tp116
ag112
a(S'p3'
p117
F1.5707963267948966
g64
tp118
asS's'
p119
(lp120
(g61
I0
g22
tp121
ag63
ag65
ag66
ag68
ag69
ag70
ag72
ag73
ag74
ag75
ag76
ag77
ag78
ag79
ag80
ag81
ag68
ag82
ag69
ag83
ag84
ag84
ag65
ag85
ag70
ag72
ag73
ag74
ag75
ag78
ag86
ag87
ag88
ag89
ag90
ag91
ag92
ag93
ag94
ag87
ag88
ag89
ag92
ag95
ag93
ag96
ag97
ag90
ag90
ag92
ag93
ag97
ag92
ag98
ag93
ag97
ag91
ag99
ag94
ag87
ag88
ag100
ag88
ag101
ag102
ag101
ag86
ag103
ag104
ag105
ag86
ag88
ag101
ag102
ag107
ag108
ag109
ag110
ag108
ag109
ag111
ag112
ag113
ag114
ag108
ag109
ag108
ag109
ag108
ag109
ag108
ag109
ag110
ag111
ag115
ag116
ag112
asS'ui'
p122
(lp123
S'ss'
p124
aS'hp'
p125
aS'hs'
p126
ag125
ag126
ag126
ag59
ag125
ag126
ag126
ag124
ag125
ag125
ag124
ag125
ag126
ag124
ag124
ag124
ag125
ag59
ag59
ag125
ag59
ag126
ag59
ag125
ag126
ag126
ag125
ag125
ag126
ag126
ag124
ag124
ag59
ag126
ag126
ag59
ag126
ag126
ag124
ag125
ag124
ag126
ag126
ag126
ag125
ag126
ag126
ag126
ag126
ag126
ag125
ag124
ag126
ag125
ag125
ag59
ag126
ag126
ag125
ag126
ag59
ag125
ag124
ag126
ag59
ag59
ag125
ag125
ag125
ag59
ag126
ag59
ag125
ag125
ag125
ag125
ag126
ag126
ag126
ag125
ag126
ag125
ag59
ag124
ag59
ag125
ag59
ag125
ag126
ag124
ag126
ag124
ag126
ag126
ag59
asS'um_before'
p127
(lp128
g124
ag125
ag126
ag126
ag124
ag126
ag59
ag124
ag126
ag126
ag126
ag125
ag59
ag124
ag125
ag124
ag126
ag59
ag124
ag125
ag59
ag59
ag125
ag125
ag126
ag59
ag124
ag126
ag126
ag59
ag126
ag124
ag126
ag124
ag124
ag59
ag126
ag126
ag59
ag124
ag126
ag124
ag126
ag124
ag126
ag124
ag126
ag124
ag124
ag126
ag126
ag126
ag126
ag59
ag126
ag126
ag59
ag125
ag59
ag124
ag126
ag125
ag126
ag126
ag125
ag126
ag126
ag59
ag125
ag59
ag126
ag126
ag126
ag125
ag59
ag125
ag126
ag124
ag125
ag126
ag126
ag126
ag125
ag125
ag125
ag126
ag125
ag126
ag125
ag126
ag125
ag126
ag124
ag126
ag59
ag124
ag126
ag59
asS'um_after'
p129
(lp130
g124
ag125
ag126
ag126
ag124
ag126
ag59
ag124
ag126
ag126
ag126
ag125
ag59
ag124
ag125
ag124
ag126
ag59
ag124
ag125
ag59
ag59
ag125
ag125
ag126
ag59
ag124
ag126
ag126
ag59
ag126
ag124
ag126
ag124
ag124
ag59
ag126
ag126
ag59
ag124
ag126
ag124
ag126
ag124
ag126
ag124
ag126
ag124
ag124
ag126
ag126
ag126
ag126
ag59
ag126
ag126
ag59
ag125
ag59
ag124
ag126
ag125
ag126
ag126
ag125
ag126
ag126
ag59
ag125
ag59
ag126
ag126
ag126
ag125
ag59
ag125
ag126
ag124
ag125
ag126
ag126
ag126
ag125
ag125
ag125
ag126
ag125
ag126
ag125
ag126
ag125
ag126
ag124
ag126
ag59
ag124
ag126
ag59
asS'is_normalized_entropy_less_than_threshold'
p131
(lp132
g49
(g50
(S'b1'
p133
I0
I1
tp134
Rp135
(I3
S'|'
p136
NNNI-1
I-1
I0
tp137
bS'\x01'
p138
tp139
Rp140
ag140
ag140
ag140
ag140
ag140
ag140
ag140
ag140
ag140
ag140
ag140
ag140
ag140
ag140
ag140
ag140
ag140
ag140
ag140
ag140
ag140
ag140
ag140
ag140
ag140
ag140
ag140
ag140
ag140
ag140
ag140
ag140
ag140
ag140
ag140
ag140
ag140
ag140
ag140
ag140
ag140
ag140
ag140
ag140
ag140
ag140
ag140
ag140
ag140
ag140
ag140
ag140
ag140
ag140
ag140
ag140
ag140
ag140
ag140
ag140
ag140
ag140
ag140
ag140
ag140
ag140
ag140
ag140
ag140
ag140
ag140
ag140
ag140
ag140
ag140
ag140
ag140
ag140
ag140
ag140
ag140
ag140
ag140
ag140
ag140
ag140
ag140
ag140
ag140
ag140
ag140
ag140
ag140
ag140
ag140
ag140
ag140
asaa(lp141
S'index'
p142
aI18108
aatp143
Rp144
.