ccollections
OrderedDict
p0
((lp1
(lp2
S'combination_dict'
p3
ag0
((lp4
(lp5
S'r_to_g_config'
p6
aS'br'
p7
aa(lp8
S'num_turns'
p9
aI3
aa(lp10
S'start_direction'
p11
acutils_ms
StartDirection
p12
(I0
tp13
Rp14
aa(lp15
S'assistance_type'
p16
acutils_ms
AssistanceType
p17
(I1
tp18
Rp19
aa(lp20
S'start_mode'
p21
aS'y'
p22
aa(lp23
S'ui_given_a_noise'
p24
aF0.5
aa(lp25
S'um_given_ui_noise'
p26
aF0.7
aa(lp27
S'entropy_threshold'
p28
aF0.8
aatp29
Rp30
aa(lp31
S'data'
p32
accollections
defaultdict
p33
(c__builtin__
list
p34
tp35
Rp36
S'a'
p37
(lp38
S'mode_l'
p39
aS'move_p'
p40
ag40
aS'mode_r'
p41
aS'move_n'
p42
ag39
ag41
ag42
ag39
ag42
ag39
ag39
ag41
ag40
ag41
ag42
ag39
ag40
ag41
ag42
ag41
ag42
ag41
ag40
ag41
ag40
ag41
ag42
ag39
ag39
ag42
ag39
ag41
ag40
ag41
ag42
asS'assistance_match_with_ground_truth'
p43
(lp44
I01
aI00
aI01
aI01
aI00
aI00
aI01
aI00
aI01
aI00
aI00
aI00
aI01
aI01
aI01
aI00
aI01
aI01
aI01
aI00
aI01
aI01
aI01
aI01
aI01
aI01
aI01
aI00
aI00
aI01
aI00
aI00
aI01
aI01
aI01
aI01
asS'is_u_intended_equals_um'
p45
(lp46
I01
aI01
aI01
aI00
aI01
aI01
aI00
aI01
aI01
aI00
aI01
aI01
aI01
aI01
aI01
aI00
aI01
aI00
aI00
aI01
aI00
aI01
aI00
aI01
aI01
aI01
aI00
aI01
aI01
aI01
aI00
aI01
aI01
aI00
aI00
aI01
asS'total_steps'
p47
I36
sS'normalized_h_of_p_ui_given_um'
p48
(lp49
cnumpy.core.multiarray
scalar
p50
(cnumpy
dtype
p51
(S'f8'
p52
I0
I1
tp53
Rp54
(I3
S'<'
p55
NNNI-1
I-1
I0
tp56
bS'a@\xba~\xb2\x90\xe7?'
p57
tp58
Rp59
ag50
(g54
S'\xda\xed\x16\xe0\x91\xf2\xe7?'
p60
tp61
Rp62
ag50
(g54
S'h\xf3m\n\x13b\xdf?'
p63
tp64
Rp65
ag50
(g54
S"\x81u\x84'\xc9#\xe7?"
p66
tp67
Rp68
ag50
(g54
S'\x18\x04\x0c\xc4\xe5\x9f\xe9?'
p69
tp70
Rp71
ag50
(g54
S'D^\x15\x1b\x90\xaa\xeb?'
p72
tp73
Rp74
ag50
(g54
S'\xee\xa0\x1d\xd2\x92\x95\xe7?'
p75
tp76
Rp77
ag50
(g54
S'\x18\x04\x0c\xc4\xe5\x9f\xe9?'
p78
tp79
Rp80
ag50
(g54
S'a@\xba~\xb2\x90\xe7?'
p81
tp82
Rp83
ag50
(g54
S'\xc0\xfe\x1bZ\xa4\x9d\xeb?'
p84
tp85
Rp86
ag50
(g54
S'\x9eS\xcc\xef|R\xee?'
p87
tp88
Rp89
ag50
(g54
S'D^\x15\x1b\x90\xaa\xeb?'
p90
tp91
Rp92
ag50
(g54
S'%\xad\x91f[s\xd7?'
p93
tp94
Rp95
ag50
(g54
S'h\xf3m\n\x13b\xdf?'
p96
tp97
Rp98
ag50
(g54
S'%\xad\x91f[s\xd7?'
p99
tp100
Rp101
ag50
(g54
S'\xc0\xfe\x1bZ\xa4\x9d\xeb?'
p102
tp103
Rp104
ag50
(g54
S'a@\xba~\xb2\x90\xe7?'
p105
tp106
Rp107
ag50
(g54
S'\xa84\n\x81\xd5\x8b\xe6?'
p108
tp109
Rp110
ag50
(g54
S'\xee\xa0\x1d\xd2\x92\x95\xe7?'
p111
tp112
Rp113
ag50
(g54
S'\x86\x95\x94\xdf\x90\x17\xee?'
p114
tp115
Rp116
ag50
(g54
S'\xee\xa0\x1d\xd2\x92\x95\xe7?'
p117
tp118
Rp119
ag50
(g54
S'\x90"\x8e_\xa3\xe5\xdf?'
p120
tp121
Rp122
ag50
(g54
S"\x81u\x84'\xc9#\xe7?"
p123
tp124
Rp125
ag50
(g54
S'h\xf3m\n\x13b\xdf?'
p126
tp127
Rp128
ag50
(g54
S'%\xad\x91f[s\xd7?'
p129
tp130
Rp131
ag50
(g54
S'h\xf3m\n\x13b\xdf?'
p132
tp133
Rp134
ag50
(g54
S"\x81u\x84'\xc9#\xe7?"
p135
tp136
Rp137
ag50
(g54
S'\x18\x04\x0c\xc4\xe5\x9f\xe9?'
p138
tp139
Rp140
ag50
(g54
S'\x9eS\xcc\xef|R\xee?'
p141
tp142
Rp143
ag50
(g54
S'a@\xba~\xb2\x90\xe7?'
p144
tp145
Rp146
ag50
(g54
S'\xc0\xfe\x1bZ\xa4\x9d\xeb?'
p147
tp148
Rp149
ag50
(g54
S'D^\x15\x1b\x90\xaa\xeb?'
p150
tp151
Rp152
ag50
(g54
S'%\xad\x91f[s\xd7?'
p153
tp154
Rp155
ag50
(g54
S'\xa84\n\x81\xd5\x8b\xe6?'
p156
tp157
Rp158
ag50
(g54
S"\x81u\x84'\xc9#\xe7?"
p159
tp160
Rp161
ag50
(g54
S'\x90"\x8e_\xa3\xe5\xdf?'
p162
tp163
Rp164
asS'sp'
p165
(lp166
(S'p0'
p167
I0
S'x'
p168
tp169
a(g167
I0
g168
tp170
a(S'p1'
p171
I0
g168
tp172
a(g171
I0
S'y'
p173
tp174
a(g171
I0
S't'
p175
tp176
a(g171
I0
g168
tp177
ag174
ag176
a(g171
I0
g173
tp178
a(g167
I0
g173
tp179
a(g167
I0
g173
tp180
a(g167
I0
g175
tp181
a(g167
I0
g168
tp182
ag172
ag174
ag179
ag169
ag172
ag174
a(g171
I0
g168
tp183
ag174
a(S'p2'
p184
I0
g173
tp185
a(g184
I0
g175
tp186
a(g184
F1.5707963267948966
g175
tp187
a(g184
F1.5707963267948966
g168
tp188
a(S'p3'
p189
F1.5707963267948966
g168
tp190
a(g189
F1.5707963267948966
g173
tp191
a(g189
F1.5707963267948966
g175
tp192
a(g189
F1.5707963267948966
g175
tp193
a(g189
F1.5707963267948966
g173
tp194
a(g184
F1.5707963267948966
g173
tp195
a(g184
F1.5707963267948966
g175
tp196
ag188
ag190
ag191
a(S'p4'
p197
F1.5707963267948966
g173
tp198
asS's'
p199
(lp200
(g167
I0
g22
tp201
ag169
ag170
ag172
ag174
ag176
ag177
ag174
ag176
ag178
ag179
ag180
ag181
ag182
ag172
ag174
ag179
ag169
ag172
ag174
ag183
ag174
ag185
ag186
ag187
ag188
ag190
ag191
ag192
ag193
ag194
ag195
ag196
ag188
ag190
ag191
asS'ui'
p202
(lp203
S'hs'
p204
ag165
ag165
ag204
aS'hp'
p205
ag165
ag205
ag205
ag204
ag204
ag165
ag204
ag205
ag165
ag205
ag205
ag205
ag165
ag205
ag165
ag165
aS'ss'
p206
ag165
ag165
ag205
ag165
ag204
ag204
ag165
ag165
ag165
ag205
ag205
ag205
ag204
ag206
asS'um_before'
p207
(lp208
g204
ag206
ag165
ag204
ag205
ag205
ag165
ag205
ag204
ag165
ag165
ag205
ag205
ag165
ag205
ag165
ag204
ag204
ag165
ag204
ag165
ag206
ag204
ag165
ag205
ag165
ag204
ag205
ag165
ag204
ag165
ag205
ag205
ag204
ag204
ag206
asS'um_after'
p209
(lp210
g204
ag206
ag165
ag205
ag205
ag205
ag205
ag205
ag204
ag165
ag165
ag205
ag205
ag165
ag205
ag165
ag204
ag165
ag205
ag204
ag205
ag206
ag205
ag165
ag205
ag165
ag205
ag205
ag165
ag204
ag165
ag205
ag205
ag165
ag205
ag206
asS'is_normalized_entropy_less_than_threshold'
p211
(lp212
g50
(g51
(S'b1'
p213
I0
I1
tp214
Rp215
(I3
S'|'
p216
NNNI-1
I-1
I0
tp217
bS'\x01'
p218
tp219
Rp220
ag220
ag220
ag220
ag50
(g215
S'\x00'
p221
tp222
Rp223
ag223
ag220
ag223
ag220
ag223
ag223
ag223
ag220
ag220
ag220
ag223
ag220
ag220
ag220
ag223
ag220
ag220
ag220
ag220
ag220
ag220
ag220
ag223
ag223
ag220
ag223
ag223
ag220
ag220
ag220
ag220
asaa(lp224
S'index'
p225
aI108580
aatp226
Rp227
.