ccollections
OrderedDict
p0
((lp1
(lp2
S'combination_dict'
p3
ag0
((lp4
(lp5
S'r_to_g_config'
p6
aS'tr'
p7
aa(lp8
S'num_turns'
p9
aI3
aa(lp10
S'start_direction'
p11
acutils_ms
StartDirection
p12
(I1
tp13
Rp14
aa(lp15
S'assistance_type'
p16
acutils_ms
AssistanceType
p17
(I1
tp18
Rp19
aa(lp20
S'start_mode'
p21
aS't'
p22
aa(lp23
S'ui_given_a_noise'
p24
aF0.5
aa(lp25
S'um_given_ui_noise'
p26
aF0.1
aa(lp27
S'entropy_threshold'
p28
aF0.9
aatp29
Rp30
aa(lp31
S'data'
p32
accollections
defaultdict
p33
(c__builtin__
list
p34
tp35
Rp36
S'a'
p37
(lp38
S'mode_l'
p39
aS'mode_r'
p40
ag39
aS'move_p'
p41
ag41
ag41
ag39
ag41
ag41
ag40
ag40
ag41
ag41
ag41
ag40
ag41
ag39
ag39
ag41
ag40
ag39
ag41
ag39
ag39
ag39
ag40
ag40
ag40
ag40
ag40
ag39
ag39
ag39
ag41
asS'assistance_match_with_ground_truth'
p42
(lp43
I00
aI00
aI01
aI00
aI00
aI00
aI01
aI00
aI01
aI00
aI01
aI00
aI00
aI01
aI01
aI00
aI00
aI01
aI01
aI00
aI01
aI01
aI00
aI00
aI00
aI00
aI00
aI00
aI00
aI00
aI00
aI00
aI01
aI01
asS'is_u_intended_equals_um'
p44
(lp45
I01
aI01
aI01
aI01
aI01
aI01
aI01
aI01
aI01
aI01
aI01
aI01
aI01
aI01
aI01
aI01
aI01
aI01
aI01
aI01
aI01
aI01
aI01
aI01
aI01
aI01
aI01
aI01
aI01
aI01
aI01
aI01
aI01
aI01
asS'total_steps'
p46
I34
sS'normalized_h_of_p_ui_given_um'
p47
(lp48
cnumpy.core.multiarray
scalar
p49
(cnumpy
dtype
p50
(S'f8'
p51
I0
I1
tp52
Rp53
(I3
S'<'
p54
NNNI-1
I-1
I0
tp55
bS'b#\xb6\xce\xc0\xc1\xdf?'
p56
tp57
Rp58
ag49
(g53
S'\x8e\xecX\xc4\x0e\x9a\xe0?'
p59
tp60
Rp61
ag49
(g53
S'$\x16!X[\x93\xcf?'
p62
tp63
Rp64
ag49
(g53
S'\x84d\xb5\x81&\xa4\xe4?'
p65
tp66
Rp67
ag49
(g53
S'\x84d\xb5\x81&\xa4\xe4?'
p68
tp69
Rp70
ag49
(g53
S'\x83j\xe0\x1a8\xab\xd4?'
p71
tp72
Rp73
ag49
(g53
S'$\x16!X[\x93\xcf?'
p74
tp75
Rp76
ag49
(g53
S'\x84d\xb5\x81&\xa4\xe4?'
p77
tp78
Rp79
ag49
(g53
S'\x8c\x0f\xec\x17O\xd7\xa5?'
p80
tp81
Rp82
ag49
(g53
S'3\xfb\x12\x0b\x81\xf1\xe2?'
p83
tp84
Rp85
ag49
(g53
S'Nwk\xd4\x89\xa8\xc8?'
p86
tp87
Rp88
ag49
(g53
S'\x84d\xb5\x81&\xa4\xe4?'
p89
tp90
Rp91
ag49
(g53
S'\x84d\xb5\x81&\xa4\xe4?'
p92
tp93
Rp94
ag49
(g53
S'\x8c\x0f\xec\x17O\xd7\xa5?'
p95
tp96
Rp97
ag49
(g53
S'Nwk\xd4\x89\xa8\xc8?'
p98
tp99
Rp100
ag49
(g53
S'\x83j\xe0\x1a8\xab\xd4?'
p101
tp102
Rp103
ag49
(g53
S'h7\xd2b\n\xd2\xd4?'
p104
tp105
Rp106
ag49
(g53
S'$\x16!X[\x93\xcf?'
p107
tp108
Rp109
ag49
(g53
S'\x8c\x0f\xec\x17O\xd7\xa5?'
p110
tp111
Rp112
ag49
(g53
S'\x8e\xecX\xc4\x0e\x9a\xe0?'
p113
tp114
Rp115
ag49
(g53
S'$\x16!X[\x93\xcf?'
p116
tp117
Rp118
ag49
(g53
S'\x8c\x0f\xec\x17O\xd7\xa5?'
p119
tp120
Rp121
ag49
(g53
S'\xe7\x99cg\x945\xe0?'
p122
tp123
Rp124
ag49
(g53
S'h7\xd2b\n\xd2\xd4?'
p125
tp126
Rp127
ag49
(g53
S'b#\xb6\xce\xc0\xc1\xdf?'
p128
tp129
Rp130
ag49
(g53
S'G\xb9\x00\xe1jh\xd4?'
p131
tp132
Rp133
ag49
(g53
S'G\xb9\x00\xe1jh\xd4?'
p134
tp135
Rp136
ag49
(g53
S'G\xb9\x00\xe1jh\xd4?'
p137
tp138
Rp139
ag49
(g53
S'G\xb9\x00\xe1jh\xd4?'
p140
tp141
Rp142
ag49
(g53
S'\x8e\xecX\xc4\x0e\x9a\xe0?'
p143
tp144
Rp145
ag49
(g53
S'h7\xd2b\n\xd2\xd4?'
p146
tp147
Rp148
ag49
(g53
S'h7\xd2b\n\xd2\xd4?'
p149
tp150
Rp151
ag49
(g53
S'$\x16!X[\x93\xcf?'
p152
tp153
Rp154
ag49
(g53
S'\x8c\x0f\xec\x17O\xd7\xa5?'
p155
tp156
Rp157
asS'sp'
p158
(lp159
(S'p0'
p160
I0
S'x'
p161
tp162
a(g160
I0
S't'
p163
tp164
a(g160
I0
S'y'
p165
tp166
a(g160
I0
g165
tp167
ag167
a(g160
I0
g163
tp168
ag166
ag167
a(S'p1'
p169
I0
g165
tp170
a(g169
I0
g165
tp171
a(g169
I0
g163
tp172
a(g169
I0
g163
tp173
ag173
a(g169
F1.5707963267948966
g163
tp174
a(g169
F1.5707963267948966
g161
tp175
a(g169
F1.5707963267948966
g165
tp176
a(g169
F1.5707963267948966
g165
tp177
a(g169
F1.5707963267948966
g161
tp178
a(S'p2'
p179
F1.5707963267948966
g161
tp180
a(g179
F1.5707963267948966
g163
tp181
a(g179
F1.5707963267948966
g165
tp182
a(S'p3'
p183
F1.5707963267948966
g165
tp184
a(g183
F1.5707963267948966
g165
tp185
a(g183
F1.5707963267948966
g165
tp186
a(g183
F1.5707963267948966
g163
tp187
a(g183
F1.5707963267948966
g163
tp188
ag188
ag188
ag188
a(g183
F1.5707963267948966
g165
tp189
ag186
ag186
a(g183
F1.5707963267948966
g161
tp190
a(S'p4'
p191
F1.5707963267948966
g161
tp192
asS's'
p193
(lp194
(g160
I0
g22
tp195
ag162
ag164
ag166
ag167
ag167
ag168
ag166
ag167
ag170
ag171
ag172
ag173
ag173
ag174
ag175
ag176
ag177
ag178
ag180
ag181
ag182
ag184
ag185
ag186
ag187
ag188
ag188
ag188
ag188
ag189
ag186
ag186
ag190
asS'ui'
p196
(lp197
S'hp'
p198
aS'hs'
p199
ag199
aS'ss'
p200
ag158
ag198
ag199
ag198
ag158
ag200
ag198
ag200
ag200
ag158
ag198
ag198
ag200
ag199
ag158
ag199
ag199
ag158
ag200
ag200
ag198
ag158
ag158
ag158
ag158
ag199
ag200
ag200
ag199
ag158
asS'um_before'
p201
(lp202
g198
ag199
ag199
ag200
ag200
ag198
ag199
ag200
ag158
ag200
ag198
ag200
ag200
ag158
ag198
ag198
ag200
ag199
ag158
ag199
ag199
ag158
ag158
ag200
ag198
ag158
ag158
ag158
ag158
ag199
ag200
ag200
ag199
ag158
asS'um_after'
p203
(lp204
g198
ag199
ag199
ag200
ag200
ag198
ag199
ag200
ag158
ag200
ag198
ag200
ag200
ag158
ag198
ag198
ag200
ag199
ag158
ag199
ag199
ag158
ag158
ag200
ag198
ag158
ag158
ag158
ag158
ag199
ag200
ag200
ag199
ag158
asS'is_normalized_entropy_less_than_threshold'
p205
(lp206
g49
(g50
(S'b1'
p207
I0
I1
tp208
Rp209
(I3
S'|'
p210
NNNI-1
I-1
I0
tp211
bS'\x01'
p212
tp213
Rp214
ag214
ag214
ag214
ag214
ag214
ag214
ag214
ag214
ag214
ag214
ag214
ag214
ag214
ag214
ag214
ag214
ag214
ag214
ag214
ag214
ag214
ag214
ag214
ag214
ag214
ag214
ag214
ag214
ag214
ag214
ag214
ag214
ag214
asaa(lp215
S'index'
p216
aI26841
aatp217
Rp218
.