ccollections
OrderedDict
p0
((lp1
(lp2
S'combination_dict'
p3
ag0
((lp4
(lp5
S'r_to_g_config'
p6
aS'br'
p7
aa(lp8
S'num_turns'
p9
aI3
aa(lp10
S'start_direction'
p11
acutils_ms
StartDirection
p12
(I0
tp13
Rp14
aa(lp15
S'assistance_type'
p16
acutils_ms
AssistanceType
p17
(I0
tp18
Rp19
aa(lp20
S'start_mode'
p21
aS'y'
p22
aa(lp23
S'ui_given_a_noise'
p24
aF0.3
aa(lp25
S'um_given_ui_noise'
p26
aF0.7
aa(lp27
S'entropy_threshold'
p28
aF0.5
aatp29
Rp30
aa(lp31
S'data'
p32
accollections
defaultdict
p33
(c__builtin__
list
p34
tp35
Rp36
S'a'
p37
(lp38
S'mode_l'
p39
ag39
aS'move_p'
p40
ag39
ag39
ag39
ag40
ag40
aS'mode_r'
p41
ag40
ag40
ag39
ag39
ag41
ag41
aS'move_n'
p42
ag39
ag39
ag39
ag40
ag41
ag42
ag39
ag41
ag40
ag40
ag40
ag40
ag41
ag42
ag39
ag40
ag40
ag41
ag42
asS'assistance_match_with_ground_truth'
p43
(lp44
I00
aI01
aI01
aI00
aI00
aI01
aI00
aI00
aI01
aI00
aI01
aI00
aI00
aI00
aI01
aI01
aI00
aI00
aI01
aI01
aI01
aI00
aI00
aI01
aI00
aI00
aI00
aI01
aI01
aI00
aI01
aI00
aI01
aI01
aI01
asS'is_u_intended_equals_um'
p45
(lp46
I00
aI01
aI01
aI00
aI00
aI01
aI01
aI00
aI01
aI00
aI01
aI00
aI00
aI00
aI01
aI01
aI00
aI00
aI01
aI01
aI01
aI00
aI00
aI01
aI00
aI00
aI00
aI01
aI01
aI00
aI01
aI00
aI01
aI01
aI01
asS'total_steps'
p47
I35
sS'normalized_h_of_p_ui_given_um'
p48
(lp49
cnumpy.core.multiarray
scalar
p50
(cnumpy
dtype
p51
(S'f8'
p52
I0
I1
tp53
Rp54
(I3
S'<'
p55
NNNI-1
I-1
I0
tp56
bS'\xea8\xf8\xab\x8f\x82\xe9?'
p57
tp58
Rp59
ag50
(g54
S'\x99\x00\xc7\xa8\x06\x8c\xca?'
p60
tp61
Rp62
ag50
(g54
S'\xaa]\x96B\xa2\xde\xde?'
p63
tp64
Rp65
ag50
(g54
S'L\xc7\xbfe{(\xe5?'
p66
tp67
Rp68
ag50
(g54
S'L\xc7\xbfe{(\xe5?'
p69
tp70
Rp71
ag50
(g54
S'\x99\x00\xc7\xa8\x06\x8c\xca?'
p72
tp73
Rp74
ag50
(g54
S'\x06B0\xeaO\x89\xe5?'
p75
tp76
Rp77
ag50
(g54
S'%\x7f\x02~\xf1Q\xeb?'
p78
tp79
Rp80
ag50
(g54
S'b\xf4\xee\rz\xc6\xc3?'
p81
tp82
Rp83
ag50
(g54
S'\x10\x05\xb3\x87Mw\xdf?'
p84
tp85
Rp86
ag50
(g54
S'\xaa]\x96B\xa2\xde\xde?'
p87
tp88
Rp89
ag50
(g54
S'L\xc7\xbfe{(\xe5?'
p90
tp91
Rp92
ag50
(g54
S'\xaaL#\xffv\xc3\xe5?'
p93
tp94
Rp95
ag50
(g54
S'\xda?\xdf\xa8\x94\xa9\xdf?'
p96
tp97
Rp98
ag50
(g54
S'b\xf4\xee\rz\xc6\xc3?'
p99
tp100
Rp101
ag50
(g54
S'\x0b\xf2\x9f\xdae\x86\xd0?'
p102
tp103
Rp104
ag50
(g54
S'L\xc7\xbfe{(\xe5?'
p105
tp106
Rp107
ag50
(g54
S'L\xc7\xbfe{(\xe5?'
p108
tp109
Rp110
ag50
(g54
S'\x99\x00\xc7\xa8\x06\x8c\xca?'
p111
tp112
Rp113
ag50
(g54
S'\xaa]\x96B\xa2\xde\xde?'
p114
tp115
Rp116
ag50
(g54
S'b\xf4\xee\rz\xc6\xc3?'
p117
tp118
Rp119
ag50
(g54
S'"\r\xd2\x92\n0\xed?'
p120
tp121
Rp122
ag50
(g54
S'\xaaL#\xffv\xc3\xe5?'
p123
tp124
Rp125
ag50
(g54
S'b\xf4\xee\rz\xc6\xc3?'
p126
tp127
Rp128
ag50
(g54
S'\x10\x05\xb3\x87Mw\xdf?'
p129
tp130
Rp131
ag50
(g54
S'\x10\x05\xb3\x87Mw\xdf?'
p132
tp133
Rp134
ag50
(g54
S'\x10\x05\xb3\x87Mw\xdf?'
p135
tp136
Rp137
ag50
(g54
S'\xaa]\x96B\xa2\xde\xde?'
p138
tp139
Rp140
ag50
(g54
S'b\xf4\xee\rz\xc6\xc3?'
p141
tp142
Rp143
ag50
(g54
S'"\r\xd2\x92\n0\xed?'
p144
tp145
Rp146
ag50
(g54
S'\x99\x00\xc7\xa8\x06\x8c\xca?'
p147
tp148
Rp149
ag50
(g54
S'\x10\x05\xb3\x87Mw\xdf?'
p150
tp151
Rp152
ag50
(g54
S'\xaa]\x96B\xa2\xde\xde?'
p153
tp154
Rp155
ag50
(g54
S'b\xf4\xee\rz\xc6\xc3?'
p156
tp157
Rp158
ag50
(g54
S'\x0b\xf2\x9f\xdae\x86\xd0?'
p159
tp160
Rp161
asS'sp'
p162
(lp163
(S'p0'
p164
I0
S'y'
p165
tp166
a(g164
I0
S'x'
p167
tp168
a(S'p1'
p169
I0
g167
tp170
a(g169
I0
g167
tp171
ag171
a(g169
I0
S't'
p172
tp173
a(g169
I0
g172
tp174
a(g169
I0
g165
tp175
a(g169
I0
g172
tp176
ag176
a(g169
F1.5707963267948966
g172
tp177
a(g169
F1.5707963267948966
g172
tp178
a(g169
F1.5707963267948966
g167
tp179
ag179
a(g169
F1.5707963267948966
g165
tp180
a(S'p2'
p181
F1.5707963267948966
g165
tp182
a(g181
F1.5707963267948966
g165
tp183
ag183
a(g181
F1.5707963267948966
g167
tp184
a(S'p3'
p185
F1.5707963267948966
g167
tp186
a(g185
F1.5707963267948966
g165
tp187
a(g181
F1.5707963267948966
g165
tp188
a(g181
F1.5707963267948966
g172
tp189
a(g181
F1.5707963267948966
g167
tp190
ag190
ag190
ag190
ag186
ag187
ag188
ag184
ag184
ag186
ag187
a(S'p4'
p191
F1.5707963267948966
g165
tp192
asS's'
p193
(lp194
(g164
I0
g22
tp195
ag166
ag168
ag170
ag171
ag171
ag173
ag174
ag175
ag176
ag176
ag177
ag178
ag179
ag179
ag180
ag182
ag183
ag183
ag184
ag186
ag187
ag188
ag189
ag190
ag190
ag190
ag190
ag186
ag187
ag188
ag184
ag184
ag186
ag187
asS'ui'
p196
(lp197
S'hs'
p198
ag198
aS'hp'
p199
ag162
ag198
ag198
ag162
ag198
ag199
ag199
ag162
ag162
ag198
ag199
ag199
aS'ss'
p200
ag198
ag198
ag198
ag199
ag199
ag200
ag162
ag199
ag162
ag162
ag162
ag162
ag199
ag162
ag198
ag162
ag162
ag199
ag200
asS'um_before'
p201
(lp202
g200
ag198
ag162
ag162
ag162
ag198
ag200
ag198
ag199
ag199
ag162
ag162
ag199
ag162
ag199
ag200
ag162
ag162
ag198
ag162
ag199
ag162
ag199
ag199
ag199
ag199
ag199
ag162
ag199
ag162
ag198
ag199
ag162
ag199
ag200
asS'um_after'
p203
(lp204
g200
ag198
ag162
ag162
ag162
ag198
ag200
ag198
ag199
aNag162
ag162
ag199
aNag199
ag200
ag162
ag162
ag198
ag162
ag199
ag162
ag199
ag199
aNaNaNag162
ag199
ag162
ag198
aNag162
ag199
ag200
asS'is_normalized_entropy_less_than_threshold'
p205
(lp206
g50
(g51
(S'b1'
p207
I0
I1
tp208
Rp209
(I3
S'|'
p210
NNNI-1
I-1
I0
tp211
bS'\x00'
p212
tp213
Rp214
ag50
(g209
S'\x01'
p215
tp216
Rp217
ag217
ag214
ag214
ag217
ag214
ag214
ag217
ag217
ag217
ag214
ag214
ag217
ag217
ag217
ag214
ag214
ag217
ag217
ag217
ag214
ag214
ag217
ag217
ag217
ag217
ag217
ag217
ag214
ag217
ag217
ag217
ag217
ag217
asaa(lp218
S'index'
p219
aI106750
aatp220
Rp221
.