ccollections
OrderedDict
p0
((lp1
(lp2
S'combination_dict'
p3
ag0
((lp4
(lp5
S'r_to_g_config'
p6
aS'tr'
p7
aa(lp8
S'num_turns'
p9
aI3
aa(lp10
S'start_direction'
p11
acutils_ms
StartDirection
p12
(I0
tp13
Rp14
aa(lp15
S'assistance_type'
p16
acutils_ms
AssistanceType
p17
(I1
tp18
Rp19
aa(lp20
S'start_mode'
p21
aS'y'
p22
aa(lp23
S'ui_given_a_noise'
p24
aF0.7
aa(lp25
S'um_given_ui_noise'
p26
aF0.3
aa(lp27
S'entropy_threshold'
p28
aF0.7
aatp29
Rp30
aa(lp31
S'data'
p32
accollections
defaultdict
p33
(c__builtin__
list
p34
tp35
Rp36
S'a'
p37
(lp38
S'mode_l'
p39
ag39
ag39
ag39
ag39
aS'move_p'
p40
ag39
ag39
ag39
ag39
ag40
aS'mode_r'
p41
ag39
ag39
ag41
ag40
ag39
ag39
ag39
ag41
ag40
ag41
ag40
ag41
ag41
ag39
ag40
ag39
ag39
ag39
ag41
ag39
ag40
ag40
ag40
ag40
ag39
ag40
ag39
ag40
ag39
ag39
ag39
ag40
ag41
ag40
ag41
ag40
ag41
ag41
ag40
ag41
ag40
ag39
ag39
ag40
ag40
ag41
ag40
ag39
ag40
ag41
ag41
ag39
ag40
ag41
ag41
ag41
ag40
asS'assistance_match_with_ground_truth'
p42
(lp43
I00
aI00
aI00
aI00
aI01
aI00
aI00
aI00
aI00
aI01
aI00
aI00
aI00
aI00
aI01
aI00
aI00
aI00
aI00
aI01
aI00
aI01
aI00
aI00
aI00
aI01
aI00
aI00
aI00
aI00
aI00
aI01
aI00
aI00
aI00
aI01
aI01
aI01
aI01
aI00
aI00
aI00
aI01
aI00
aI01
aI01
aI01
aI00
aI00
aI01
aI00
aI01
aI00
aI00
aI01
aI00
aI01
aI01
aI01
aI01
aI00
aI00
aI00
aI01
aI01
aI00
aI00
aI01
aI01
asS'is_u_intended_equals_um'
p44
(lp45
I01
aI01
aI01
aI01
aI01
aI01
aI01
aI01
aI01
aI01
aI01
aI01
aI01
aI00
aI01
aI01
aI01
aI01
aI00
aI01
aI01
aI01
aI01
aI01
aI01
aI01
aI01
aI01
aI01
aI00
aI01
aI01
aI01
aI01
aI01
aI01
aI01
aI01
aI01
aI01
aI01
aI01
aI01
aI01
aI01
aI01
aI01
aI01
aI01
aI01
aI01
aI01
aI01
aI01
aI01
aI01
aI01
aI01
aI01
aI01
aI01
aI00
aI01
aI01
aI01
aI01
aI01
aI01
aI01
asS'total_steps'
p46
I69
sS'normalized_h_of_p_ui_given_um'
p47
(lp48
cnumpy.core.multiarray
scalar
p49
(cnumpy
dtype
p50
(S'f8'
p51
I0
I1
tp52
Rp53
(I3
S'<'
p54
NNNI-1
I-1
I0
tp55
bS'\xe5\x95i-\x9c+\xe6?'
p56
tp57
Rp58
ag49
(g53
S'\xe5\x95i-\x9c+\xe6?'
p59
tp60
Rp61
ag49
(g53
S'\xe5\x95i-\x9c+\xe6?'
p62
tp63
Rp64
ag49
(g53
S'9H\x9cL\xbfR\xe7?'
p65
tp66
Rp67
ag49
(g53
S'\xb9A\xaer\x8f\xf5\xd9?'
p68
tp69
Rp70
ag49
(g53
S'\xa6\xea\x859\xc4;\xee?'
p71
tp72
Rp73
ag49
(g53
S'9H\x9cL\xbfR\xe7?'
p74
tp75
Rp76
ag49
(g53
S'\xe5\x95i-\x9c+\xe6?'
p77
tp78
Rp79
ag49
(g53
S'9H\x9cL\xbfR\xe7?'
p80
tp81
Rp82
ag49
(g53
S'\xb9A\xaer\x8f\xf5\xd9?'
p83
tp84
Rp85
ag49
(g53
S'o\x06a\xa8 \x98\xe4?'
p86
tp87
Rp88
ag49
(g53
S'(\x8f\xf8?]B\xe6?'
p89
tp90
Rp91
ag49
(g53
S'9H\x9cL\xbfR\xe7?'
p92
tp93
Rp94
ag49
(g53
S'\xa3\x8a\xf3}%*\xec?'
p95
tp96
Rp97
ag49
(g53
S'\xfej\xd5\x16n\x08\xda?'
p98
tp99
Rp100
ag49
(g53
S'\xa6\xea\x859\xc4;\xee?'
p101
tp102
Rp103
ag49
(g53
S'\xe5\x95i-\x9c+\xe6?'
p104
tp105
Rp106
ag49
(g53
S'\xe5\x95i-\x9c+\xe6?'
p107
tp108
Rp109
ag49
(g53
S'\xa3\x8a\xf3}%*\xec?'
p110
tp111
Rp112
ag49
(g53
S'\xfej\xd5\x16n\x08\xda?'
p113
tp114
Rp115
ag49
(g53
S'o\x06a\xa8 \x98\xe4?'
p116
tp117
Rp118
ag49
(g53
S'\xfej\xd5\x16n\x08\xda?'
p119
tp120
Rp121
ag49
(g53
S'o\x06a\xa8 \x98\xe4?'
p122
tp123
Rp124
ag49
(g53
S'd\xb9\x82\xe8\xbe.\xe6?'
p125
tp126
Rp127
ag49
(g53
S'(\x8f\xf8?]B\xe6?'
p128
tp129
Rp130
ag49
(g53
S'\xb9A\xaer\x8f\xf5\xd9?'
p131
tp132
Rp133
ag49
(g53
S'\xa6\xea\x859\xc4;\xee?'
p134
tp135
Rp136
ag49
(g53
S'9H\x9cL\xbfR\xe7?'
p137
tp138
Rp139
ag49
(g53
S'9H\x9cL\xbfR\xe7?'
p140
tp141
Rp142
ag49
(g53
S'\xa3\x8a\xf3}%*\xec?'
p143
tp144
Rp145
ag49
(g53
S'(\x8f\xf8?]B\xe6?'
p146
tp147
Rp148
ag49
(g53
S'\xb9A\xaer\x8f\xf5\xd9?'
p149
tp150
Rp151
ag49
(g53
S'\x16\xae\xce\x06\xbb3\xe4?'
p152
tp153
Rp154
ag49
(g53
S'\x16\xae\xce\x06\xbb3\xe4?'
p155
tp156
Rp157
ag49
(g53
S'\x16\xae\xce\x06\xbb3\xe4?'
p158
tp159
Rp160
ag49
(g53
S'VHeZ\xc6J\xe2?'
p161
tp162
Rp163
ag49
(g53
S'\xb9A\xaer\x8f\xf5\xd9?'
p164
tp165
Rp166
ag49
(g53
S'VHeZ\xc6J\xe2?'
p167
tp168
Rp169
ag49
(g53
S'\xb9A\xaer\x8f\xf5\xd9?'
p170
tp171
Rp172
ag49
(g53
S'\x16\xae\xce\x06\xbb3\xe4?'
p173
tp174
Rp175
ag49
(g53
S'\xe5\x95i-\x9c+\xe6?'
p176
tp177
Rp178
ag49
(g53
S'9H\x9cL\xbfR\xe7?'
p179
tp180
Rp181
ag49
(g53
S'\xb9A\xaer\x8f\xf5\xd9?'
p182
tp183
Rp184
ag49
(g53
S'o\x06a\xa8 \x98\xe4?'
p185
tp186
Rp187
ag49
(g53
S'\xfej\xd5\x16n\x08\xda?'
p188
tp189
Rp190
ag49
(g53
S'VHeZ\xc6J\xe2?'
p191
tp192
Rp193
ag49
(g53
S'\xfej\xd5\x16n\x08\xda?'
p194
tp195
Rp196
ag49
(g53
S'o\x06a\xa8 \x98\xe4?'
p197
tp198
Rp199
ag49
(g53
S'd\xb9\x82\xe8\xbe.\xe6?'
p200
tp201
Rp202
ag49
(g53
S'\xfej\xd5\x16n\x08\xda?'
p203
tp204
Rp205
ag49
(g53
S'o\x06a\xa8 \x98\xe4?'
p206
tp207
Rp208
ag49
(g53
S'\xfej\xd5\x16n\x08\xda?'
p209
tp210
Rp211
ag49
(g53
S'\x16\xae\xce\x06\xbb3\xe4?'
p212
tp213
Rp214
ag49
(g53
S'9H\x9cL\xbfR\xe7?'
p215
tp216
Rp217
ag49
(g53
S'\xb9A\xaer\x8f\xf5\xd9?'
p218
tp219
Rp220
ag49
(g53
S'\x16\xae\xce\x06\xbb3\xe4?'
p221
tp222
Rp223
ag49
(g53
S'VHeZ\xc6J\xe2?'
p224
tp225
Rp226
ag49
(g53
S'\xfej\xd5\x16n\x08\xda?'
p227
tp228
Rp229
ag49
(g53
S'VHeZ\xc6J\xe2?'
p230
tp231
Rp232
ag49
(g53
S'\xb9A\xaer\x8f\xf5\xd9?'
p233
tp234
Rp235
ag49
(g53
S'o\x06a\xa8 \x98\xe4?'
p236
tp237
Rp238
ag49
(g53
S'\xc6\xa2sm\xb6}\xe9?'
p239
tp240
Rp241
ag49
(g53
S'(\x8f\xf8?]B\xe6?'
p242
tp243
Rp244
ag49
(g53
S'\xb9A\xaer\x8f\xf5\xd9?'
p245
tp246
Rp247
ag49
(g53
S'VHeZ\xc6J\xe2?'
p248
tp249
Rp250
ag49
(g53
S'd\xb9\x82\xe8\xbe.\xe6?'
p251
tp252
Rp253
ag49
(g53
S'd\xb9\x82\xe8\xbe.\xe6?'
p254
tp255
Rp256
ag49
(g53
S'\xfej\xd5\x16n\x08\xda?'
p257
tp258
Rp259
ag49
(g53
S'VHeZ\xc6J\xe2?'
p260
tp261
Rp262
asS'sp'
p263
(lp264
(S'p0'
p265
I0
S'y'
p266
tp267
ag267
ag267
a(g265
I0
g266
tp268
a(g265
I0
S'x'
p269
tp270
a(g265
I0
g266
tp271
ag268
ag267
ag268
ag270
a(g265
I0
S't'
p272
tp273
a(g265
I0
g266
tp274
ag268
a(g265
I0
g272
tp275
a(g265
I0
g269
tp276
ag271
ag267
ag267
ag275
ag276
ag273
ag276
ag273
a(g265
I0
g272
tp277
ag274
ag270
ag271
ag268
ag268
ag275
ag274
ag270
a(g265
I0
g269
tp278
ag278
ag278
a(S'p1'
p279
I0
g269
tp280
a(g279
I0
g272
tp281
a(g279
F1.5707963267948966
g272
tp282
a(g279
F1.5707963267948966
g266
tp283
a(g265
F1.5707963267948966
g266
tp284
a(g265
F1.5707963267948966
g266
tp285
a(g265
F1.5707963267948966
g266
tp286
a(g265
F1.5707963267948966
g269
tp287
a(g265
F1.5707963267948966
g272
tp288
a(g265
F1.5707963267948966
g269
tp289
a(g279
F1.5707963267948966
g269
tp290
a(g279
F1.5707963267948966
g266
tp291
a(g279
F1.5707963267948966
g269
tp292
a(g279
F1.5707963267948966
g269
tp293
ag291
ag292
ag291
ag284
ag286
ag287
a(g265
F1.5707963267948966
g269
tp294
ag290
ag291
a(S'p2'
p295
F1.5707963267948966
g266
tp296
a(g295
F1.5707963267948966
g269
tp297
a(g295
F1.5707963267948966
g272
tp298
a(g295
F1.5707963267948966
g272
tp299
a(g295
F1.5707963267948966
g266
tp300
ag297
a(S'p3'
p301
F1.5707963267948966
g269
tp302
a(g301
F1.5707963267948966
g269
tp303
ag303
a(g301
F1.5707963267948966
g266
tp304
a(S'p4'
p305
F1.5707963267948966
g266
tp306
asS's'
p307
(lp308
(g265
I0
g22
tp309
ag267
ag267
ag267
ag268
ag270
ag271
ag268
ag267
ag268
ag270
ag273
ag274
ag268
ag275
ag276
ag271
ag267
ag267
ag275
ag276
ag273
ag276
ag273
ag277
ag274
ag270
ag271
ag268
ag268
ag275
ag274
ag270
ag278
ag278
ag278
ag280
ag281
ag282
ag283
ag284
ag285
ag286
ag287
ag288
ag289
ag290
ag291
ag292
ag293
ag291
ag292
ag291
ag284
ag286
ag287
ag294
ag290
ag291
ag296
ag297
ag298
ag299
ag300
ag297
ag302
ag303
ag303
ag304
asS'ui'
p310
(lp311
S'hp'
p312
aS'ss'
p313
ag313
ag263
aS'hs'
p314
ag312
ag263
ag313
ag263
ag263
ag314
ag314
ag313
ag314
ag312
ag312
ag313
ag313
ag314
ag312
ag314
ag312
ag314
ag263
ag314
ag314
ag313
ag263
ag263
ag312
ag263
ag263
ag313
ag263
ag313
ag263
ag314
ag263
ag314
ag313
ag313
ag263
ag314
ag312
ag312
ag263
ag312
ag314
ag263
ag312
ag314
ag263
ag313
ag314
ag314
ag313
ag312
ag312
ag263
ag314
ag314
ag263
ag314
ag314
ag312
ag263
ag263
ag312
ag263
asS'um_before'
p315
(lp316
g313
ag313
ag313
ag263
ag314
ag312
ag263
ag313
ag263
ag314
ag314
ag314
ag263
ag312
ag312
ag312
ag313
ag313
ag312
ag312
ag314
ag312
ag314
ag263
ag314
ag314
ag312
ag263
ag263
ag312
ag314
ag314
ag313
ag313
ag313
ag263
ag314
ag263
ag314
ag313
ag313
ag263
ag314
ag314
ag312
ag263
ag312
ag314
ag263
ag312
ag314
ag312
ag313
ag263
ag314
ag313
ag263
ag312
ag263
ag314
ag314
ag313
ag314
ag314
ag263
ag263
ag263
ag312
ag263
asS'um_after'
p317
(lp318
g313
ag313
ag313
ag263
ag314
ag312
ag263
ag313
ag263
ag314
ag314
ag314
ag263
ag312
ag312
ag312
ag313
ag313
ag312
ag312
ag314
ag312
ag314
ag263
ag314
ag314
ag312
ag263
ag263
ag312
ag314
ag314
ag313
ag313
ag313
ag263
ag314
ag263
ag314
ag313
ag313
ag263
ag314
ag314
ag312
ag263
ag312
ag314
ag263
ag312
ag314
ag312
ag313
ag263
ag314
ag313
ag263
ag312
ag263
ag314
ag314
ag313
ag314
ag314
ag263
ag263
ag263
ag312
ag263
asS'is_normalized_entropy_less_than_threshold'
p319
(lp320
g49
(g50
(S'b1'
p321
I0
I1
tp322
Rp323
(I3
S'|'
p324
NNNI-1
I-1
I0
tp325
bS'\x01'
p326
tp327
Rp328
ag328
ag328
ag49
(g323
S'\x00'
p329
tp330
Rp331
ag328
ag331
ag331
ag328
ag331
ag328
ag328
ag328
ag331
ag331
ag328
ag331
ag328
ag328
ag331
ag328
ag328
ag328
ag328
ag328
ag328
ag328
ag331
ag331
ag331
ag331
ag328
ag328
ag328
ag328
ag328
ag328
ag328
ag328
ag328
ag328
ag328
ag331
ag328
ag328
ag328
ag328
ag328
ag328
ag328
ag328
ag328
ag328
ag328
ag331
ag328
ag328
ag328
ag328
ag328
ag328
ag328
ag331
ag328
ag328
ag328
ag328
ag328
ag328
ag328
asaa(lp332
S'index'
p333
aI22274
aatp334
Rp335
.