ccollections
OrderedDict
p0
((lp1
(lp2
S'combination_dict'
p3
ag0
((lp4
(lp5
S'r_to_g_config'
p6
aS'tl'
p7
aa(lp8
S'num_turns'
p9
aI3
aa(lp10
S'start_direction'
p11
acutils_ms
StartDirection
p12
(I0
tp13
Rp14
aa(lp15
S'assistance_type'
p16
acutils_ms
AssistanceType
p17
(I1
tp18
Rp19
aa(lp20
S'start_mode'
p21
aS't'
p22
aa(lp23
S'ui_given_a_noise'
p24
aF0.7
aa(lp25
S'um_given_ui_noise'
p26
aF0.7
aa(lp27
S'entropy_threshold'
p28
aF0.7
aatp29
Rp30
aa(lp31
S'data'
p32
accollections
defaultdict
p33
(c__builtin__
list
p34
tp35
Rp36
S'a'
p37
(lp38
S'mode_r'
p39
aS'move_n'
p40
ag39
ag40
ag39
ag40
aS'mode_l'
p41
ag40
ag40
ag39
ag40
ag41
ag41
ag41
ag41
ag41
ag40
ag39
ag39
ag40
ag41
ag41
ag39
ag39
ag40
ag41
ag41
aS'move_p'
p42
ag41
ag41
ag39
ag42
ag41
ag39
ag40
ag39
ag42
ag41
ag40
ag41
ag40
ag41
ag39
ag40
ag39
ag42
ag41
ag41
ag40
ag39
ag40
ag41
ag41
ag41
ag39
ag39
ag40
ag39
ag42
ag39
ag42
ag41
ag40
ag39
ag42
ag41
ag40
ag39
ag42
ag41
ag41
ag39
ag42
ag39
ag42
asS'assistance_match_with_ground_truth'
p43
(lp44
I01
aI00
aI01
aI00
aI01
aI00
aI01
aI00
aI00
aI01
aI00
aI00
aI00
aI00
aI00
aI01
aI00
aI00
aI01
aI00
aI00
aI00
aI00
aI01
aI01
aI00
aI01
aI01
aI00
aI00
aI01
aI00
aI00
aI01
aI01
aI01
aI01
aI01
aI00
aI01
aI00
aI00
aI01
aI01
aI01
aI00
aI00
aI01
aI00
aI01
aI00
aI00
aI00
aI00
aI00
aI01
aI00
aI01
aI00
aI01
aI00
aI01
aI01
aI01
aI01
aI01
aI01
aI01
aI00
aI00
aI00
aI01
aI00
aI01
aI01
asS'is_u_intended_equals_um'
p45
(lp46
I01
aI01
aI01
aI01
aI00
aI01
aI01
aI00
aI01
aI01
aI01
aI01
aI00
aI01
aI00
aI01
aI01
aI00
aI01
aI01
aI00
aI01
aI00
aI01
aI01
aI01
aI01
aI01
aI01
aI01
aI00
aI01
aI01
aI00
aI01
aI00
aI01
aI01
aI01
aI01
aI01
aI01
aI01
aI01
aI01
aI01
aI01
aI01
aI01
aI00
aI01
aI00
aI00
aI01
aI00
aI00
aI00
aI01
aI00
aI01
aI01
aI01
aI01
aI01
aI01
aI01
aI01
aI01
aI01
aI00
aI01
aI00
aI00
aI01
aI01
asS'total_steps'
p47
I75
sS'normalized_h_of_p_ui_given_um'
p48
(lp49
cnumpy.core.multiarray
scalar
p50
(cnumpy
dtype
p51
(S'f8'
p52
I0
I1
tp53
Rp54
(I3
S'<'
p55
NNNI-1
I-1
I0
tp56
bS'\x19\xff\x8a\x02\x15\xc1\xc6?'
p57
tp58
Rp59
ag50
(g54
S'\xb5\x0e\xf5Y\x1f\xff\xec?'
p60
tp61
Rp62
ag50
(g54
S'\x19\xff\x8a\x02\x15\xc1\xc6?'
p63
tp64
Rp65
ag50
(g54
S'\xb5\x0e\xf5Y\x1f\xff\xec?'
p66
tp67
Rp68
ag50
(g54
S'\xfe\x0e[E|\x10\xd6?'
p69
tp70
Rp71
ag50
(g54
S'P\x99\x87\x10\xec\xbb\xe8?'
p72
tp73
Rp74
ag50
(g54
S'\xda57\x0e_\x15\xe8?'
p75
tp76
Rp77
ag50
(g54
S'\xd0\xf6\xa5\tQ=\xe7?'
p78
tp79
Rp80
ag50
(g54
S'\xb5\x0e\xf5Y\x1f\xff\xec?'
p81
tp82
Rp83
ag50
(g54
S'\x19\xff\x8a\x02\x15\xc1\xc6?'
p84
tp85
Rp86
ag50
(g54
S'P\x99\x87\x10\xec\xbb\xe8?'
p87
tp88
Rp89
ag50
(g54
S'P\x9e\xb0=\x82\x00\xe2?'
p90
tp91
Rp92
ag50
(g54
S'\x04:D\xd2\x90Z\xe5?'
p93
tp94
Rp95
ag50
(g54
S'P\x9e\xb0=\x82\x00\xe2?'
p96
tp97
Rp98
ag50
(g54
S'\x04:D\xd2\x90Z\xe5?'
p99
tp100
Rp101
ag50
(g54
S'\xda57\x0e_\x15\xe8?'
p102
tp103
Rp104
ag50
(g54
S'\xb5\x0e\xf5Y\x1f\xff\xec?'
p105
tp106
Rp107
ag50
(g54
S"\xcc\xe1'\xefI:\xed?"
p108
tp109
Rp110
ag50
(g54
S'\x19\xff\x8a\x02\x15\xc1\xc6?'
p111
tp112
Rp113
ag50
(g54
S'P\x99\x87\x10\xec\xbb\xe8?'
p114
tp115
Rp116
ag50
(g54
S'\x04:D\xd2\x90Z\xe5?'
p117
tp118
Rp119
ag50
(g54
S'#\x96\xaa\x06\xd4\xa6\xe3?'
p120
tp121
Rp122
ag50
(g54
S"\xcc\xe1'\xefI:\xed?"
p123
tp124
Rp125
ag50
(g54
S'\x19\xff\x8a\x02\x15\xc1\xc6?'
p126
tp127
Rp128
ag50
(g54
S'V[N\x8dp\xb7\xe2?'
p129
tp130
Rp131
ag50
(g54
S'P\x9e\xb0=\x82\x00\xe2?'
p132
tp133
Rp134
ag50
(g54
S'\xda57\x0e_\x15\xe8?'
p135
tp136
Rp137
ag50
(g54
S'v\x91vl\xf3\xbc\xd7?'
p138
tp139
Rp140
ag50
(g54
S'P\x9e\xb0=\x82\x00\xe2?'
p141
tp142
Rp143
ag50
(g54
S'#\x96\xaa\x06\xd4\xa6\xe3?'
p144
tp145
Rp146
ag50
(g54
S'\xfe\x0e[E|\x10\xd6?'
p147
tp148
Rp149
ag50
(g54
S'~\x87\x90\xcc\x9c\x06\xe6?'
p150
tp151
Rp152
ag50
(g54
S'#\x96\xaa\x06\xd4\xa6\xe3?'
p153
tp154
Rp155
ag50
(g54
S'\xfe\x0e[E|\x10\xd6?'
p156
tp157
Rp158
ag50
(g54
S'V[N\x8dp\xb7\xe2?'
p159
tp160
Rp161
ag50
(g54
S'\xfe\x0e[E|\x10\xd6?'
p162
tp163
Rp164
ag50
(g54
S'v\x91vl\xf3\xbc\xd7?'
p165
tp166
Rp167
ag50
(g54
S'\xda57\x0e_\x15\xe8?'
p168
tp169
Rp170
ag50
(g54
S'P\x99\x87\x10\xec\xbb\xe8?'
p171
tp172
Rp173
ag50
(g54
S'\xda57\x0e_\x15\xe8?'
p174
tp175
Rp176
ag50
(g54
S'P\x99\x87\x10\xec\xbb\xe8?'
p177
tp178
Rp179
ag50
(g54
S'#\x96\xaa\x06\xd4\xa6\xe3?'
p180
tp181
Rp182
ag50
(g54
S'\x19\xff\x8a\x02\x15\xc1\xc6?'
p183
tp184
Rp185
ag50
(g54
S'V[N\x8dp\xb7\xe2?'
p186
tp187
Rp188
ag50
(g54
S'\x19\xff\x8a\x02\x15\xc1\xc6?'
p189
tp190
Rp191
ag50
(g54
S'~\x87\x90\xcc\x9c\x06\xe6?'
p192
tp193
Rp194
ag50
(g54
S'P\x9e\xb0=\x82\x00\xe2?'
p195
tp196
Rp197
ag50
(g54
S'\xda57\x0e_\x15\xe8?'
p198
tp199
Rp200
ag50
(g54
S'\xb5\x0e\xf5Y\x1f\xff\xec?'
p201
tp202
Rp203
ag50
(g54
S'\xfe\x0e[E|\x10\xd6?'
p204
tp205
Rp206
ag50
(g54
S'P\x99\x87\x10\xec\xbb\xe8?'
p207
tp208
Rp209
ag50
(g54
S'\x04:D\xd2\x90Z\xe5?'
p210
tp211
Rp212
ag50
(g54
S'\x04:D\xd2\x90Z\xe5?'
p213
tp214
Rp215
ag50
(g54
S'#\x96\xaa\x06\xd4\xa6\xe3?'
p216
tp217
Rp218
ag50
(g54
S'E\x8b"\xc2\x8f\xf6\xe7?'
p219
tp220
Rp221
ag50
(g54
S'\xfe\x0e[E|\x10\xd6?'
p222
tp223
Rp224
ag50
(g54
S'\xd0\xf6\xa5\tQ=\xe7?'
p225
tp226
Rp227
ag50
(g54
S'\x19\xff\x8a\x02\x15\xc1\xc6?'
p228
tp229
Rp230
ag50
(g54
S'u\x1d\xd7\x88w\xf4\xee?'
p231
tp232
Rp233
ag50
(g54
S'\x19\xff\x8a\x02\x15\xc1\xc6?'
p234
tp235
Rp236
ag50
(g54
S'~\x87\x90\xcc\x9c\x06\xe6?'
p237
tp238
Rp239
ag50
(g54
S'\xda57\x0e_\x15\xe8?'
p240
tp241
Rp242
ag50
(g54
S'V[N\x8dp\xb7\xe2?'
p243
tp244
Rp245
ag50
(g54
S'\x19\xff\x8a\x02\x15\xc1\xc6?'
p246
tp247
Rp248
ag50
(g54
S'v\x91vl\xf3\xbc\xd7?'
p249
tp250
Rp251
ag50
(g54
S'\xda57\x0e_\x15\xe8?'
p252
tp253
Rp254
ag50
(g54
S'V[N\x8dp\xb7\xe2?'
p255
tp256
Rp257
ag50
(g54
S'\x19\xff\x8a\x02\x15\xc1\xc6?'
p258
tp259
Rp260
ag50
(g54
S'G\xe2\xe5\xc8\x81q\xe8?'
p261
tp262
Rp263
ag50
(g54
S'\x04:D\xd2\x90Z\xe5?'
p264
tp265
Rp266
ag50
(g54
S'#\x96\xaa\x06\xd4\xa6\xe3?'
p267
tp268
Rp269
ag50
(g54
S'\xfe\x0e[E|\x10\xd6?'
p270
tp271
Rp272
ag50
(g54
S'u\x1d\xd7\x88w\xf4\xee?'
p273
tp274
Rp275
ag50
(g54
S'\x19\xff\x8a\x02\x15\xc1\xc6?'
p276
tp277
Rp278
ag50
(g54
S'v\x91vl\xf3\xbc\xd7?'
p279
tp280
Rp281
asS'sp'
p282
(lp283
(S'p0'
p284
I0
S'x'
p285
tp286
a(g284
I0
S't'
p287
tp288
ag286
ag288
ag286
a(g284
I0
S'y'
p289
tp290
a(g284
I0
g285
tp291
a(g284
I0
g285
tp292
ag288
ag286
ag290
a(g284
I0
g289
tp293
ag293
ag293
ag293
ag291
ag288
a(g284
I0
g287
tp294
ag286
ag290
ag293
a(g284
I0
g287
tp295
ag294
ag286
a(S'p1'
p296
I0
g285
tp297
a(g296
I0
g285
tp298
a(g296
I0
g287
tp299
a(g296
F1.5707963267948966
g287
tp300
a(g296
F1.5707963267948966
g287
tp301
a(g296
F1.5707963267948966
g285
tp302
a(g296
F1.5707963267948966
g289
tp303
a(g284
F1.5707963267948966
g289
tp304
a(g284
F1.5707963267948966
g287
tp305
a(g284
F1.5707963267948966
g285
tp306
a(g296
F1.5707963267948966
g285
tp307
ag303
a(S'p2'
p308
F1.5707963267948966
g289
tp309
a(g308
F1.5707963267948966
g285
tp310
a(g308
F1.5707963267948966
g289
tp311
ag310
ag311
a(g308
F1.5707963267948966
g287
tp312
a(g308
F1.5707963267948966
g285
tp313
a(S'p3'
p314
F1.5707963267948966
g285
tp315
a(g314
F1.5707963267948966
g289
tp316
a(g308
F1.5707963267948966
g289
tp317
a(g308
F1.5707963267948966
g289
tp318
ag310
a(g308
F1.5707963267948966
g287
tp319
ag313
ag311
ag318
ag318
ag312
a(g308
F1.5707963267948966
g287
tp320
ag313
a(g296
F1.5707963267948966
g285
tp321
ag303
a(g296
F1.5707963267948966
g285
tp322
ag303
ag304
a(g284
F1.5707963267948966
g285
tp323
ag307
ag303
ag309
ag310
ag315
ag316
a(g314
F1.5707963267948966
g287
tp324
a(g314
F1.5707963267948966
g287
tp325
a(g314
F1.5707963267948966
g285
tp326
ag316
a(g314
F1.5707963267948966
g285
tp327
ag316
a(S'p4'
p328
F1.5707963267948966
g289
tp329
asS's'
p330
(lp331
(g284
I0
g22
tp332
ag286
ag288
ag286
ag288
ag286
ag290
ag291
ag292
ag288
ag286
ag290
ag293
ag293
ag293
ag293
ag291
ag288
ag294
ag286
ag290
ag293
ag295
ag294
ag286
ag297
ag298
ag299
ag300
ag301
ag302
ag303
ag304
ag305
ag306
ag307
ag303
ag309
ag310
ag311
ag310
ag311
ag312
ag313
ag315
ag316
ag317
ag318
ag310
ag319
ag313
ag311
ag318
ag318
ag312
ag320
ag313
ag321
ag303
ag322
ag303
ag304
ag323
ag307
ag303
ag309
ag310
ag315
ag316
ag324
ag325
ag326
ag316
ag327
ag316
asS'ui'
p333
(lp334
S'hp'
p335
aS'hs'
p336
ag335
aS'ss'
p337
ag335
ag335
ag335
ag336
ag337
ag335
ag337
ag336
ag282
ag282
ag282
ag336
ag336
ag337
ag335
ag337
ag282
ag335
ag337
ag335
ag337
ag336
ag336
ag282
ag336
ag335
ag335
ag282
ag335
ag335
ag337
ag336
ag282
ag336
ag335
ag336
ag337
ag335
ag335
ag337
ag335
ag337
ag282
ag336
ag336
ag335
ag335
ag336
ag282
ag335
ag335
ag335
ag336
ag335
ag335
ag335
ag335
ag336
ag282
ag335
ag282
ag336
ag337
ag335
ag335
ag282
ag335
ag335
ag282
ag335
ag282
asS'um_before'
p338
(lp339
g335
ag336
ag335
ag336
ag336
ag335
ag336
ag282
ag336
ag335
ag335
ag282
ag337
ag282
ag337
ag336
ag336
ag337
ag335
ag335
ag337
ag335
ag337
ag335
ag337
ag282
ag336
ag282
ag282
ag335
ag336
ag337
ag335
ag336
ag337
ag336
ag282
ag336
ag335
ag336
ag335
ag335
ag335
ag337
ag335
ag337
ag282
ag336
ag336
ag336
ag335
ag337
ag337
ag335
ag282
ag336
ag282
ag335
ag336
ag335
ag337
ag336
ag337
ag335
ag282
ag336
ag337
ag335
ag335
ag337
ag335
ag336
ag336
ag335
ag282
asS'um_after'
p340
(lp341
g335
ag336
ag335
ag336
ag335
ag335
ag336
ag282
ag336
ag335
ag335
ag282
ag282
ag282
ag282
ag336
ag336
ag337
ag335
ag335
ag282
ag335
ag337
ag335
ag337
ag282
ag336
ag282
ag282
ag335
ag335
ag337
ag335
ag335
ag337
ag335
ag282
ag336
ag335
ag336
ag335
ag335
ag335
ag337
ag335
ag337
ag282
ag336
ag336
ag335
ag335
ag282
ag282
ag335
ag282
ag335
ag282
ag335
ag336
ag335
ag337
ag336
ag337
ag335
ag282
ag336
ag337
ag335
ag335
ag282
ag335
ag335
ag336
ag335
ag282
asS'is_normalized_entropy_less_than_threshold'
p342
(lp343
g50
(g51
(S'b1'
p344
I0
I1
tp345
Rp346
(I3
S'|'
p347
NNNI-1
I-1
I0
tp348
bS'\x01'
p349
tp350
Rp351
ag50
(g346
S'\x00'
p352
tp353
Rp354
ag351
ag354
ag351
ag354
ag354
ag354
ag354
ag351
ag354
ag351
ag351
ag351
ag351
ag354
ag354
ag354
ag351
ag354
ag351
ag351
ag354
ag351
ag351
ag351
ag354
ag351
ag351
ag351
ag351
ag351
ag351
ag351
ag351
ag351
ag351
ag354
ag354
ag354
ag354
ag351
ag351
ag351
ag351
ag351
ag351
ag354
ag354
ag351
ag354
ag351
ag351
ag351
ag354
ag351
ag354
ag351
ag354
ag351
ag351
ag354
ag351
ag351
ag351
ag354
ag351
ag351
ag354
ag351
ag351
ag351
ag354
ag351
ag351
asaa(lp355
S'index'
p356
aI50370
aatp357
Rp358
.