ccollections
OrderedDict
p0
((lp1
(lp2
S'combination_dict'
p3
ag0
((lp4
(lp5
S'r_to_g_config'
p6
aS'br'
p7
aa(lp8
S'num_turns'
p9
aI3
aa(lp10
S'start_direction'
p11
acutils_ms
StartDirection
p12
(I0
tp13
Rp14
aa(lp15
S'assistance_type'
p16
acutils_ms
AssistanceType
p17
(I0
tp18
Rp19
aa(lp20
S'start_mode'
p21
aS't'
p22
aa(lp23
S'ui_given_a_noise'
p24
aF0.1
aa(lp25
S'um_given_ui_noise'
p26
aF0.3
aa(lp27
S'entropy_threshold'
p28
aF0.9
aatp29
Rp30
aa(lp31
S'data'
p32
accollections
defaultdict
p33
(c__builtin__
list
p34
tp35
Rp36
S'a'
p37
(lp38
S'mode_r'
p39
ag39
ag39
ag39
ag39
aS'move_p'
p40
aS'mode_l'
p41
ag40
ag41
aS'move_n'
p42
ag42
ag41
ag40
ag39
ag42
asS'assistance_match_with_ground_truth'
p43
(lp44
I00
aI00
aI00
aI00
aI01
aI01
aI01
aI01
aI01
aI00
aI01
aI01
aI01
aI01
aI01
asS'is_u_intended_equals_um'
p45
(lp46
I00
aI00
aI00
aI00
aI01
aI01
aI01
aI01
aI01
aI00
aI01
aI01
aI01
aI01
aI01
asS'total_steps'
p47
I15
sS'normalized_h_of_p_ui_given_um'
p48
(lp49
cnumpy.core.multiarray
scalar
p50
(cnumpy
dtype
p51
(S'f8'
p52
I0
I1
tp53
Rp54
(I3
S'<'
p55
NNNI-1
I-1
I0
tp56
bS'\x92\x95\xd0\xcc=I\xde?'
p57
tp58
Rp59
ag50
(g54
S'\x92\x95\xd0\xcc=I\xde?'
p60
tp61
Rp62
ag50
(g54
S'\x92\x95\xd0\xcc=I\xde?'
p63
tp64
Rp65
ag50
(g54
S'\x92\x95\xd0\xcc=I\xde?'
p66
tp67
Rp68
ag50
(g54
S'\x9dP\xba.k\xe2\xb6?'
p69
tp70
Rp71
ag50
(g54
S'\xc2\x0c\xf4\xe3\xf67\xc1?'
p72
tp73
Rp74
ag50
(g54
S'\xf1\xc9O\xe2\x9b@\xa4?'
p75
tp76
Rp77
ag50
(g54
S'\xc2\x0c\xf4\xe3\xf67\xc1?'
p78
tp79
Rp80
ag50
(g54
S'\xf1\xc9O\xe2\x9b@\xa4?'
p81
tp82
Rp83
ag50
(g54
S'\x16e7\xb7\x0e\x1d\xdd?'
p84
tp85
Rp86
ag50
(g54
S'\xd6\xf4\xc4N\t\x8d\xb2?'
p87
tp88
Rp89
ag50
(g54
S'\xf1\xc9O\xe2\x9b@\xa4?'
p90
tp91
Rp92
ag50
(g54
S'\xc2\x0c\xf4\xe3\xf67\xc1?'
p93
tp94
Rp95
ag50
(g54
S'\x9dP\xba.k\xe2\xb6?'
p96
tp97
Rp98
ag50
(g54
S'\xd6\xf4\xc4N\t\x8d\xb2?'
p99
tp100
Rp101
asS'sp'
p102
(lp103
(S'p0'
p104
I0
g22
tp105
ag105
ag105
ag105
a(g104
I0
S'x'
p106
tp107
a(S'p1'
p108
I0
g106
tp109
a(g108
I0
S't'
p110
tp111
a(g108
F1.5707963267948966
g110
tp112
a(g108
F1.5707963267948966
S'y'
p113
tp114
ag114
a(S'p2'
p115
F1.5707963267948966
g113
tp116
a(g115
F1.5707963267948966
g106
tp117
a(S'p3'
p118
F1.5707963267948966
g106
tp119
a(g118
F1.5707963267948966
g113
tp120
a(S'p4'
p121
F1.5707963267948966
g113
tp122
asS's'
p123
(lp124
g105
ag105
ag105
ag105
ag105
ag107
ag109
ag111
ag112
ag114
ag114
ag116
ag117
ag119
ag120
asS'ui'
p125
(lp126
S'hs'
p127
aS'hp'
p128
ag128
ag128
ag127
ag102
ag127
ag102
ag127
aS'ss'
p129
ag129
ag127
ag102
ag128
ag129
asS'um_before'
p130
(lp131
g102
ag102
ag102
ag102
ag128
ag102
ag127
ag102
ag127
ag128
ag129
ag127
ag102
ag128
ag129
asS'um_after'
p132
(lp133
NaNaNaNag128
ag102
ag127
ag102
ag127
aNag129
ag127
ag102
ag128
ag129
asS'is_normalized_entropy_less_than_threshold'
p134
(lp135
g50
(g51
(S'b1'
p136
I0
I1
tp137
Rp138
(I3
S'|'
p139
NNNI-1
I-1
I0
tp140
bS'\x01'
p141
tp142
Rp143
ag143
ag143
ag143
ag143
ag143
ag143
ag143
ag143
ag143
ag143
ag143
ag143
ag143
ag143
asaa(lp144
S'index'
p145
aI105690
aatp146
Rp147
.