ccollections
OrderedDict
p0
((lp1
(lp2
S'combination_dict'
p3
ag0
((lp4
(lp5
S'r_to_g_config'
p6
aS'bl'
p7
aa(lp8
S'num_turns'
p9
aI3
aa(lp10
S'start_direction'
p11
acutils_ms
StartDirection
p12
(I1
tp13
Rp14
aa(lp15
S'assistance_type'
p16
acutils_ms
AssistanceType
p17
(I0
tp18
Rp19
aa(lp20
S'start_mode'
p21
aS'x'
p22
aa(lp23
S'ui_given_a_noise'
p24
aF0.5
aa(lp25
S'um_given_ui_noise'
p26
aF0.3
aa(lp27
S'entropy_threshold'
p28
aF0.5
aatp29
Rp30
aa(lp31
S'data'
p32
accollections
defaultdict
p33
(c__builtin__
list
p34
tp35
Rp36
S'a'
p37
(lp38
S'mode_r'
p39
aS'move_n'
p40
aS'mode_l'
p41
ag41
ag41
ag41
ag40
ag41
ag41
ag40
ag39
ag41
ag40
ag39
ag39
ag40
ag41
ag41
ag39
ag39
ag40
ag39
ag40
ag41
ag41
ag41
ag41
ag41
ag41
ag40
ag41
ag40
ag41
ag41
ag41
ag41
ag40
ag39
ag40
ag41
ag40
ag39
ag39
ag39
ag39
ag39
ag40
ag41
ag40
ag39
ag39
ag40
ag41
ag40
ag39
ag41
ag40
ag39
aS'move_p'
p42
ag42
ag39
ag42
ag42
ag39
ag42
ag39
ag39
ag41
ag41
ag41
ag40
asS'assistance_match_with_ground_truth'
p43
(lp44
I01
aI01
aI00
aI00
aI00
aI01
aI00
aI00
aI01
aI00
aI00
aI01
aI00
aI00
aI01
aI00
aI00
aI00
aI00
aI01
aI00
aI01
aI01
aI00
aI00
aI00
aI00
aI00
aI01
aI00
aI01
aI00
aI00
aI00
aI00
aI01
aI00
aI01
aI01
aI01
aI01
aI00
aI00
aI00
aI00
aI01
aI00
aI01
aI00
aI00
aI01
aI01
aI01
aI01
aI00
aI01
aI01
aI01
aI00
aI01
aI00
aI00
aI01
aI00
aI01
aI00
aI00
aI00
aI00
aI01
aI01
asS'is_u_intended_equals_um'
p45
(lp46
I01
aI01
aI01
aI01
aI01
aI01
aI01
aI01
aI01
aI01
aI00
aI01
aI01
aI00
aI01
aI01
aI01
aI00
aI00
aI01
aI01
aI01
aI01
aI01
aI01
aI01
aI01
aI01
aI01
aI01
aI01
aI01
aI01
aI01
aI01
aI01
aI01
aI01
aI01
aI01
aI01
aI00
aI01
aI01
aI01
aI01
aI01
aI01
aI01
aI00
aI01
aI01
aI01
aI01
aI00
aI01
aI01
aI01
aI01
aI01
aI00
aI01
aI01
aI00
aI01
aI01
aI00
aI01
aI01
aI01
aI01
asS'total_steps'
p47
I71
sS'normalized_h_of_p_ui_given_um'
p48
(lp49
cnumpy.core.multiarray
scalar
p50
(cnumpy
dtype
p51
(S'f8'
p52
I0
I1
tp53
Rp54
(I3
S'<'
p55
NNNI-1
I-1
I0
tp56
bS'\xbct\x91\x99d\xd2\xc7?'
p57
tp58
Rp59
ag50
(g54
S'E<\xa3\x90q.\xdd?'
p60
tp61
Rp62
ag50
(g54
S'\xff"Z\xd0^\xaf\xe4?'
p63
tp64
Rp65
ag50
(g54
S'\x8f2z\x92\x9e\xde\xe2?'
p66
tp67
Rp68
ag50
(g54
S'\xff"Z\xd0^\xaf\xe4?'
p69
tp70
Rp71
ag50
(g54
S'\xc2\t\xb1(\x1b2\xd2?'
p72
tp73
Rp74
ag50
(g54
S'\xf6bH\x05\x80F\xe7?'
p75
tp76
Rp77
ag50
(g54
S'\x8f2z\x92\x9e\xde\xe2?'
p78
tp79
Rp80
ag50
(g54
S'\xc2\t\xb1(\x1b2\xd2?'
p81
tp82
Rp83
ag50
(g54
S'\x8c\xed\xd0b\xb8\x80\xe1?'
p84
tp85
Rp86
ag50
(g54
S'\xde\xb1\xa4\x0b\n\xb4\xea?'
p87
tp88
Rp89
ag50
(g54
S'\xc2\t\xb1(\x1b2\xd2?'
p90
tp91
Rp92
ag50
(g54
S'\x8c\xed\xd0b\xb8\x80\xe1?'
p93
tp94
Rp95
ag50
(g54
S'{\xabz\x9c\x11p\xe5?'
p96
tp97
Rp98
ag50
(g54
S'\xbct\x91\x99d\xd2\xc7?'
p99
tp100
Rp101
ag50
(g54
S'\xf6bH\x05\x80F\xe7?'
p102
tp103
Rp104
ag50
(g54
S'\x8f2z\x92\x9e\xde\xe2?'
p105
tp106
Rp107
ag50
(g54
S'\xc2\xa00\xf9\x96\x86\xe9?'
p108
tp109
Rp110
ag50
(g54
S'{\xabz\x9c\x11p\xe5?'
p111
tp112
Rp113
ag50
(g54
S'\xbct\x91\x99d\xd2\xc7?'
p114
tp115
Rp116
ag50
(g54
S'x\x18@J9?\xe6?'
p117
tp118
Rp119
ag50
(g54
S'\xbct\x91\x99d\xd2\xc7?'
p120
tp121
Rp122
ag50
(g54
S'E<\xa3\x90q.\xdd?'
p123
tp124
Rp125
ag50
(g54
S'\xff"Z\xd0^\xaf\xe4?'
p126
tp127
Rp128
ag50
(g54
S'\xff"Z\xd0^\xaf\xe4?'
p129
tp130
Rp131
ag50
(g54
S'\x8f2z\x92\x9e\xde\xe2?'
p132
tp133
Rp134
ag50
(g54
S'\x8f2z\x92\x9e\xde\xe2?'
p135
tp136
Rp137
ag50
(g54
S'\x8f2z\x92\x9e\xde\xe2?'
p138
tp139
Rp140
ag50
(g54
S'\xc2\t\xb1(\x1b2\xd2?'
p141
tp142
Rp143
ag50
(g54
S'\xf6bH\x05\x80F\xe7?'
p144
tp145
Rp146
ag50
(g54
S'\xc2\t\xb1(\x1b2\xd2?'
p147
tp148
Rp149
ag50
(g54
S'\xf6bH\x05\x80F\xe7?'
p150
tp151
Rp152
ag50
(g54
S'\x8f2z\x92\x9e\xde\xe2?'
p153
tp154
Rp155
ag50
(g54
S'\xff"Z\xd0^\xaf\xe4?'
p156
tp157
Rp158
ag50
(g54
S'\x8f2z\x92\x9e\xde\xe2?'
p159
tp160
Rp161
ag50
(g54
S'\xc2\t\xb1(\x1b2\xd2?'
p162
tp163
Rp164
ag50
(g54
S'x\x18@J9?\xe6?'
p165
tp166
Rp167
ag50
(g54
S'\xbct\x91\x99d\xd2\xc7?'
p168
tp169
Rp170
ag50
(g54
S'E<\xa3\x90q.\xdd?'
p171
tp172
Rp173
ag50
(g54
S'\xc2\t\xb1(\x1b2\xd2?'
p174
tp175
Rp176
ag50
(g54
S'E<\xa3\x90q.\xdd?'
p177
tp178
Rp179
ag50
(g54
S'{\xabz\x9c\x11p\xe5?'
p180
tp181
Rp182
ag50
(g54
S'6\x12Nz\xcf:\xdd?'
p183
tp184
Rp185
ag50
(g54
S'6\x12Nz\xcf:\xdd?'
p186
tp187
Rp188
ag50
(g54
S'6\x12Nz\xcf:\xdd?'
p189
tp190
Rp191
ag50
(g54
S'\xbct\x91\x99d\xd2\xc7?'
p192
tp193
Rp194
ag50
(g54
S'x\x18@J9?\xe6?'
p195
tp196
Rp197
ag50
(g54
S'\xc2\t\xb1(\x1b2\xd2?'
p198
tp199
Rp200
ag50
(g54
S'x\x18@J9?\xe6?'
p201
tp202
Rp203
ag50
(g54
S'{\xabz\x9c\x11p\xe5?'
p204
tp205
Rp206
ag50
(g54
S'\xbct\x91\x99d\xd2\xc7?'
p207
tp208
Rp209
ag50
(g54
S'E<\xa3\x90q.\xdd?'
p210
tp211
Rp212
ag50
(g54
S'\xc2\t\xb1(\x1b2\xd2?'
p213
tp214
Rp215
ag50
(g54
S'E<\xa3\x90q.\xdd?'
p216
tp217
Rp218
ag50
(g54
S'\xde\xb1\xa4\x0b\n\xb4\xea?'
p219
tp220
Rp221
ag50
(g54
S'\xc2\t\xb1(\x1b2\xd2?'
p222
tp223
Rp224
ag50
(g54
S'E<\xa3\x90q.\xdd?'
p225
tp226
Rp227
ag50
(g54
S'\xbct\x91\x99d\xd2\xc7?'
p228
tp229
Rp230
ag50
(g54
S'\xf8\x9f\x90uK>\xe6?'
p231
tp232
Rp233
ag50
(g54
S'\x00\x9f\x82df\xc4\xca?'
p234
tp235
Rp236
ag50
(g54
S'{\xabz\x9c\x11p\xe5?'
p237
tp238
Rp239
ag50
(g54
S'\xf8\x9f\x90uK>\xe6?'
p240
tp241
Rp242
ag50
(g54
S'\x00\x9f\x82df\xc4\xca?'
p243
tp244
Rp245
ag50
(g54
S'{\xabz\x9c\x11p\xe5?'
p246
tp247
Rp248
ag50
(g54
S'\x00\x9f\x82df\xc4\xca?'
p249
tp250
Rp251
ag50
(g54
S'6\x12Nz\xcf:\xdd?'
p252
tp253
Rp254
ag50
(g54
S'\xde\xb1\xa4\x0b\n\xb4\xea?'
p255
tp256
Rp257
ag50
(g54
S'\x8f2z\x92\x9e\xde\xe2?'
p258
tp259
Rp260
ag50
(g54
S'\x8f2z\x92\x9e\xde\xe2?'
p261
tp262
Rp263
ag50
(g54
S'\xc2\t\xb1(\x1b2\xd2?'
p264
tp265
Rp266
ag50
(g54
S'E<\xa3\x90q.\xdd?'
p267
tp268
Rp269
asS'sp'
p270
(lp271
(S'p0'
p272
I0
S'y'
p273
tp274
a(S'p1'
p275
I0
g273
tp276
a(g275
I0
g273
tp277
a(g275
I0
g273
tp278
ag277
a(g275
I0
S'x'
p279
tp280
a(g275
I0
g273
tp281
ag278
ag280
a(g275
I0
S't'
p282
tp283
a(g275
I0
g273
tp284
ag280
ag283
a(g275
I0
g282
tp285
a(g275
I0
g279
tp286
ag281
ag278
a(g275
I0
g282
tp287
ag285
ag286
a(g272
I0
g279
tp288
ag274
ag276
ag277
ag277
ag278
ag278
ag278
ag280
ag281
ag280
ag281
ag278
ag277
ag278
ag280
ag288
ag274
ag276
ag280
a(S'p2'
p289
I0
g279
tp290
a(g289
I0
g279
tp291
a(g289
I0
g279
tp292
ag292
ag292
a(g289
I0
g273
tp293
a(g275
I0
g273
tp294
ag280
ag288
a(g272
I0
g279
tp295
ag274
ag276
ag280
ag290
a(g289
I0
g282
tp296
a(g289
I0
g273
tp297
a(S'p3'
p298
I0
g273
tp299
a(g298
I0
g282
tp300
a(g298
I0
g282
tp301
a(g298
F1.5707963267948966
g282
tp302
a(g298
I0
g282
tp303
ag301
ag302
ag303
ag302
a(g298
F1.5707963267948966
g282
tp304
a(g298
F1.5707963267948966
g273
tp305
a(g298
F1.5707963267948966
g273
tp306
ag306
a(g298
F1.5707963267948966
g279
tp307
a(S'p4'
p308
F1.5707963267948966
g279
tp309
asS's'
p310
(lp311
(g272
I0
g22
tp312
ag274
ag276
ag277
ag278
ag277
ag280
ag281
ag278
ag280
ag283
ag284
ag280
ag283
ag285
ag286
ag281
ag278
ag287
ag285
ag286
ag288
ag274
ag276
ag277
ag277
ag278
ag278
ag278
ag280
ag281
ag280
ag281
ag278
ag277
ag278
ag280
ag288
ag274
ag276
ag280
ag290
ag291
ag292
ag292
ag292
ag293
ag294
ag280
ag288
ag295
ag274
ag276
ag280
ag290
ag296
ag297
ag299
ag300
ag301
ag302
ag303
ag301
ag302
ag303
ag302
ag304
ag305
ag306
ag306
ag307
asS'ui'
p313
(lp314
S'hp'
p315
ag315
ag270
aS'hs'
p316
ag270
ag316
ag315
aS'ss'
p317
ag316
ag315
ag316
ag270
ag316
ag315
ag315
ag315
ag317
ag316
ag270
ag270
ag270
ag315
ag317
ag270
ag270
ag317
ag316
ag317
ag316
ag315
ag316
ag315
ag317
ag317
ag317
ag316
ag317
ag316
ag317
ag316
ag317
ag317
ag270
ag270
ag270
ag315
ag270
ag316
ag317
ag315
ag315
ag317
ag270
ag317
ag315
ag316
ag317
ag315
ag316
ag270
ag315
ag317
ag270
ag317
ag270
ag270
ag315
ag317
ag316
ag316
ag316
asS'um_before'
p318
(lp319
g315
ag317
ag270
ag317
ag270
ag316
ag315
ag317
ag316
ag316
ag316
ag316
ag316
ag317
ag315
ag315
ag317
ag315
ag317
ag315
ag270
ag315
ag317
ag270
ag270
ag317
ag317
ag317
ag316
ag315
ag316
ag315
ag317
ag270
ag317
ag316
ag270
ag315
ag317
ag316
ag317
ag317
ag270
ag270
ag270
ag315
ag270
ag316
ag270
ag317
ag315
ag317
ag316
ag317
ag316
ag316
ag317
ag315
ag317
ag270
ag317
ag317
ag270
ag317
ag270
ag270
ag316
ag317
ag317
ag316
ag317
asS'um_after'
p320
(lp321
g315
ag317
ag270
ag317
ag270
ag316
ag315
ag317
ag316
ag316
ag316
ag316
ag316
ag317
ag315
ag315
ag317
ag315
ag317
ag315
ag270
ag315
ag317
ag270
ag270
ag317
ag317
ag317
ag316
ag315
ag316
ag315
ag317
ag270
ag317
ag316
ag270
ag315
ag317
ag316
ag317
ag317
ag270
ag270
ag270
ag315
ag270
ag316
ag270
ag317
ag315
ag317
ag316
ag317
ag316
ag316
ag317
ag315
ag317
ag270
ag317
ag317
ag270
ag317
ag270
ag270
ag316
ag317
ag317
ag316
ag317
asS'is_normalized_entropy_less_than_threshold'
p322
(lp323
g50
(g51
(S'b1'
p324
I0
I1
tp325
Rp326
(I3
S'|'
p327
NNNI-1
I-1
I0
tp328
bS'\x01'
p329
tp330
Rp331
ag331
ag50
(g326
S'\x00'
p332
tp333
Rp334
ag334
ag334
ag331
ag334
ag334
ag331
ag334
ag334
ag331
ag334
ag334
ag331
ag334
ag334
ag334
ag334
ag331
ag334
ag331
ag331
ag334
ag334
ag334
ag334
ag334
ag331
ag334
ag331
ag334
ag334
ag334
ag334
ag331
ag334
ag331
ag331
ag331
ag331
ag334
ag331
ag331
ag331
ag331
ag334
ag331
ag334
ag334
ag331
ag331
ag331
ag331
ag334
ag331
ag331
ag331
ag334
ag331
ag334
ag334
ag331
ag334
ag331
ag331
ag334
ag334
ag334
ag331
ag331
asaa(lp335
S'index'
p336
aI82054
aatp337
Rp338
.