ccollections
OrderedDict
p0
((lp1
(lp2
S'combination_dict'
p3
ag0
((lp4
(lp5
S'r_to_g_config'
p6
aS'tr'
p7
aa(lp8
S'num_turns'
p9
aI1
aa(lp10
S'start_direction'
p11
acutils_ms
StartDirection
p12
(I0
tp13
Rp14
aa(lp15
S'assistance_type'
p16
acutils_ms
AssistanceType
p17
(I0
tp18
Rp19
aa(lp20
S'start_mode'
p21
aS'y'
p22
aa(lp23
S'ui_given_a_noise'
p24
aF0.3
aa(lp25
S'um_given_ui_noise'
p26
aF0.5
aa(lp27
S'entropy_threshold'
p28
aF0.8
aatp29
Rp30
aa(lp31
S'data'
p32
accollections
defaultdict
p33
(c__builtin__
list
p34
tp35
Rp36
S'a'
p37
(lp38
S'mode_l'
p39
ag39
ag39
ag39
ag39
ag39
ag39
aS'move_p'
p40
ag39
ag40
ag39
ag40
asS'assistance_match_with_ground_truth'
p41
(lp42
I00
aI00
aI00
aI00
aI00
aI00
aI01
aI01
aI01
aI01
aI01
aI01
asS'is_u_intended_equals_um'
p43
(lp44
I00
aI01
aI01
aI00
aI00
aI00
aI01
aI01
aI01
aI01
aI01
aI01
asS'total_steps'
p45
I12
sS'normalized_h_of_p_ui_given_um'
p46
(lp47
cnumpy.core.multiarray
scalar
p48
(cnumpy
dtype
p49
(S'f8'
p50
I0
I1
tp51
Rp52
(I3
S'<'
p53
NNNI-1
I-1
I0
tp54
bS'\xb6\xac\xea/p\xaf\xe4?'
p55
tp56
Rp57
ag48
(g52
S'\xc7WfH\xc7\xb1\xe1?'
p58
tp59
Rp60
ag48
(g52
S'\xc7WfH\xc7\xb1\xe1?'
p61
tp62
Rp63
ag48
(g52
S'\xb6\xac\xea/p\xaf\xe4?'
p64
tp65
Rp66
ag48
(g52
S'\xb6\xac\xea/p\xaf\xe4?'
p67
tp68
Rp69
ag48
(g52
S'h\x8b\x13\x1f\xc1\x16\xe5?'
p70
tp71
Rp72
ag48
(g52
S'nm\xa3\xa1\xcf\xc8\xcf?'
p73
tp74
Rp75
ag48
(g52
S'\xa1\xa3\xba\x10\xb8\xf7\xb9?'
p76
tp77
Rp78
ag48
(g52
S'nm\xa3\xa1\xcf\xc8\xcf?'
p79
tp80
Rp81
ag48
(g52
S'\xa1\xa3\xba\x10\xb8\xf7\xb9?'
p82
tp83
Rp84
ag48
(g52
S'nm\xa3\xa1\xcf\xc8\xcf?'
p85
tp86
Rp87
ag48
(g52
S'\xa1\xa3\xba\x10\xb8\xf7\xb9?'
p88
tp89
Rp90
asS'sp'
p91
(lp92
(S'p0'
p93
I0
g22
tp94
a(g93
I0
S'y'
p95
tp96
ag96
ag96
ag96
ag96
a(g93
I0
S'x'
p97
tp98
a(S'p1'
p99
I0
g97
tp100
a(g99
I0
S't'
p101
tp102
a(g99
F1.5707963267948966
g101
tp103
a(g99
F1.5707963267948966
g95
tp104
a(S'p2'
p105
F1.5707963267948966
g95
tp106
asS's'
p107
(lp108
g94
ag94
ag96
ag96
ag96
ag96
ag96
ag98
ag100
ag102
ag103
ag104
asS'ui'
p109
(lp110
g91
ag91
ag91
aS'hp'
p111
ag91
aS'ss'
p112
aS'hs'
p113
ag91
ag113
ag91
ag113
ag91
asS'um_before'
p114
(lp115
g111
ag91
ag91
ag111
ag111
ag112
ag113
ag91
ag113
ag91
ag113
ag91
asS'um_after'
p116
(lp117
Nag91
ag91
aNaNaNag113
ag91
ag113
ag91
ag113
ag91
asS'is_normalized_entropy_less_than_threshold'
p118
(lp119
g48
(g49
(S'b1'
p120
I0
I1
tp121
Rp122
(I3
S'|'
p123
NNNI-1
I-1
I0
tp124
bS'\x01'
p125
tp126
Rp127
ag127
ag127
ag127
ag127
ag127
ag127
ag127
ag127
ag127
ag127
ag127
asaa(lp128
S'index'
p129
aI1138
aatp130
Rp131
.