ccollections
OrderedDict
p0
((lp1
(lp2
S'combination_dict'
p3
ag0
((lp4
(lp5
S'r_to_g_config'
p6
aS'tr'
p7
aa(lp8
S'num_turns'
p9
aI3
aa(lp10
S'start_direction'
p11
acutils_ms
StartDirection
p12
(I0
tp13
Rp14
aa(lp15
S'assistance_type'
p16
acutils_ms
AssistanceType
p17
(I0
tp18
Rp19
aa(lp20
S'start_mode'
p21
aS'y'
p22
aa(lp23
S'ui_given_a_noise'
p24
aF0.3
aa(lp25
S'um_given_ui_noise'
p26
aF0.3
aa(lp27
S'entropy_threshold'
p28
aF0.5
aatp29
Rp30
aa(lp31
S'data'
p32
accollections
defaultdict
p33
(c__builtin__
list
p34
tp35
Rp36
S'a'
p37
(lp38
S'mode_l'
p39
aS'mode_r'
p40
aS'move_p'
p41
ag40
ag41
ag40
ag41
ag40
ag41
ag40
ag41
ag40
ag41
ag40
ag41
ag40
ag40
ag39
ag41
ag39
ag41
ag40
ag41
asS'assistance_match_with_ground_truth'
p42
(lp43
I00
aI01
aI01
aI01
aI01
aI01
aI01
aI01
aI00
aI00
aI00
aI01
aI01
aI01
aI00
aI00
aI00
aI01
aI00
aI01
aI01
aI01
aI01
asS'is_u_intended_equals_um'
p44
(lp45
I01
aI01
aI01
aI01
aI01
aI01
aI01
aI01
aI00
aI00
aI00
aI01
aI01
aI01
aI00
aI00
aI00
aI01
aI01
aI01
aI01
aI01
aI01
asS'total_steps'
p46
I23
sS'normalized_h_of_p_ui_given_um'
p47
(lp48
cnumpy.core.multiarray
scalar
p49
(cnumpy
dtype
p50
(S'f8'
p51
I0
I1
tp52
Rp53
(I3
S'<'
p54
NNNI-1
I-1
I0
tp55
bS'\xb6\x81\x1eGd\x9d\xe7?'
p56
tp57
Rp58
ag49
(g53
S'f1\xd39\xecm\xca?'
p59
tp60
Rp61
ag49
(g53
S'\x06\xeeM\x9bb\xa1\xcd?'
p62
tp63
Rp64
ag49
(g53
S'f1\xd39\xecm\xca?'
p65
tp66
Rp67
ag49
(g53
S'\x06\xeeM\x9bb\xa1\xcd?'
p68
tp69
Rp70
ag49
(g53
S'f1\xd39\xecm\xca?'
p71
tp72
Rp73
ag49
(g53
S'\x06\xeeM\x9bb\xa1\xcd?'
p74
tp75
Rp76
ag49
(g53
S'f1\xd39\xecm\xca?'
p77
tp78
Rp79
ag49
(g53
S'\x88JUR\x83b\xe9?'
p80
tp81
Rp82
ag49
(g53
S'\x02\xb3c0e\xd8\xe4?'
p83
tp84
Rp85
ag49
(g53
S'\x88JUR\x83b\xe9?'
p86
tp87
Rp88
ag49
(g53
S'f1\xd39\xecm\xca?'
p89
tp90
Rp91
ag49
(g53
S'\x06\xeeM\x9bb\xa1\xcd?'
p92
tp93
Rp94
ag49
(g53
S'f1\xd39\xecm\xca?'
p95
tp96
Rp97
ag49
(g53
S'\x88JUR\x83b\xe9?'
p98
tp99
Rp100
ag49
(g53
S'\xbcp\x80\xc8\x18\xaf\xe8?'
p101
tp102
Rp103
ag49
(g53
S'\xb0\x1e\xde\xfc;J\xe6?'
p104
tp105
Rp106
ag49
(g53
S'v\xb0\xaf\xdc\x07\x80\xd5?'
p107
tp108
Rp109
ag49
(g53
S'I\xa9\xf1\xc9\x179\xe2?'
p110
tp111
Rp112
ag49
(g53
S'v\xb0\xaf\xdc\x07\x80\xd5?'
p113
tp114
Rp115
ag49
(g53
S'\x06\xeeM\x9bb\xa1\xcd?'
p116
tp117
Rp118
ag49
(g53
S'f1\xd39\xecm\xca?'
p119
tp120
Rp121
ag49
(g53
S'\x06\xeeM\x9bb\xa1\xcd?'
p122
tp123
Rp124
asS'sp'
p125
(lp126
(S'p0'
p127
I0
S't'
p128
tp129
a(g127
I0
S'x'
p130
tp131
a(S'p1'
p132
I0
g130
tp133
a(g132
I0
S'y'
p134
tp135
a(S'p2'
p136
I0
g134
tp137
a(g136
I0
g128
tp138
a(g136
F1.5707963267948966
g128
tp139
a(g136
F1.5707963267948966
g130
tp140
a(g136
F1.5707963267948966
g128
tp141
a(g136
I0
g128
tp142
a(g136
I0
g134
tp143
ag138
ag139
ag140
ag141
a(g136
F1.5707963267948966
g128
tp144
a(g136
F1.5707963267948966
g134
tp145
a(g136
F1.5707963267948966
g130
tp146
a(g136
F1.5707963267948966
g134
tp147
ag146
a(S'p3'
p148
F1.5707963267948966
g130
tp149
a(g148
F1.5707963267948966
g134
tp150
a(S'p4'
p151
F1.5707963267948966
g134
tp152
asS's'
p153
(lp154
(g127
I0
g22
tp155
ag129
ag131
ag133
ag135
ag137
ag138
ag139
ag140
ag141
ag142
ag143
ag138
ag139
ag140
ag141
ag144
ag145
ag146
ag147
ag146
ag149
ag150
asS'ui'
p156
(lp157
S'ss'
p158
aS'hp'
p159
ag125
ag159
ag125
ag159
ag125
ag159
ag125
ag159
aS'hs'
p160
ag159
ag125
ag159
ag160
ag158
ag159
ag160
ag159
ag160
ag125
ag159
ag125
asS'um_before'
p161
(lp162
g159
ag159
ag125
ag159
ag125
ag159
ag125
ag159
ag160
ag158
ag160
ag159
ag125
ag159
ag160
ag125
ag160
ag160
ag159
ag160
ag125
ag159
ag125
asS'um_after'
p163
(lp164
g159
ag159
ag125
ag159
ag125
ag159
ag125
ag159
ag160
ag158
ag160
ag159
ag125
ag159
ag160
ag125
ag160
ag160
ag159
ag160
ag125
ag159
ag125
asS'is_normalized_entropy_less_than_threshold'
p165
(lp166
g49
(g50
(S'b1'
p167
I0
I1
tp168
Rp169
(I3
S'|'
p170
NNNI-1
I-1
I0
tp171
bS'\x00'
p172
tp173
Rp174
ag49
(g169
S'\x01'
p175
tp176
Rp177
ag177
ag177
ag177
ag177
ag177
ag177
ag174
ag174
ag174
ag177
ag177
ag177
ag174
ag174
ag174
ag177
ag174
ag177
ag177
ag177
ag177
asaa(lp178
S'index'
p179
aI20257
aatp180
Rp181
.