ccollections
OrderedDict
p0
((lp1
(lp2
S'combination_dict'
p3
ag0
((lp4
(lp5
S'r_to_g_config'
p6
aS'bl'
p7
aa(lp8
S'num_turns'
p9
aI2
aa(lp10
S'start_direction'
p11
acutils_ms
StartDirection
p12
(I1
tp13
Rp14
aa(lp15
S'assistance_type'
p16
acutils_ms
AssistanceType
p17
(I0
tp18
Rp19
aa(lp20
S'start_mode'
p21
aS'x'
p22
aa(lp23
S'ui_given_a_noise'
p24
aF0.3
aa(lp25
S'um_given_ui_noise'
p26
aF0.7
aa(lp27
S'entropy_threshold'
p28
aF0.9
aatp29
Rp30
aa(lp31
S'data'
p32
accollections
defaultdict
p33
(c__builtin__
list
p34
tp35
Rp36
S'a'
p37
(lp38
S'mode_r'
p39
ag39
ag39
ag39
aS'move_n'
p40
ag40
ag40
ag39
aS'move_p'
p41
ag41
ag41
ag39
ag39
ag40
ag40
ag40
ag39
ag39
ag40
asS'assistance_match_with_ground_truth'
p42
(lp43
I00
aI00
aI00
aI01
aI00
aI00
aI01
aI01
aI00
aI00
aI01
aI00
aI01
aI00
aI00
aI01
aI00
aI01
aI01
asS'is_u_intended_equals_um'
p44
(lp45
I00
aI00
aI00
aI01
aI00
aI00
aI01
aI01
aI00
aI00
aI01
aI00
aI01
aI00
aI00
aI01
aI00
aI01
aI01
asS'total_steps'
p46
I19
sS'normalized_h_of_p_ui_given_um'
p47
(lp48
cnumpy.core.multiarray
scalar
p49
(cnumpy
dtype
p50
(S'f8'
p51
I0
I1
tp52
Rp53
(I3
S'<'
p54
NNNI-1
I-1
I0
tp55
bS'\xb4"\x1eo%G\xe1?'
p56
tp57
Rp58
ag49
(g53
S'\xb4"\x1eo%G\xe1?'
p59
tp60
Rp61
ag49
(g53
S'\xb4"\x1eo%G\xe1?'
p62
tp63
Rp64
ag49
(g53
S'Gf\xdd\x14?:\xd3?'
p65
tp66
Rp67
ag49
(g53
S'\xa1+hZ\x9b0\xed?'
p68
tp69
Rp70
ag49
(g53
S'\x17\xe6-\x9ef/\xe6?'
p71
tp72
Rp73
ag49
(g53
S",'\x95\x9e\xfa\x08\xd7?"
p74
tp75
Rp76
ag49
(g53
S'Gf\xdd\x14?:\xd3?'
p77
tp78
Rp79
ag49
(g53
S'6\xf9mD\x9e\xda\xe6?'
p80
tp81
Rp82
ag49
(g53
S'6\xf9mD\x9e\xda\xe6?'
p83
tp84
Rp85
ag49
(g53
S'0\xde\xda\xe0\x14/\xd6?'
p86
tp87
Rp88
ag49
(g53
S'\xb4"\x1eo%G\xe1?'
p89
tp90
Rp91
ag49
(g53
S'Gf\xdd\x14?:\xd3?'
p92
tp93
Rp94
ag49
(g53
S'\x17\xe6-\x9ef/\xe6?'
p95
tp96
Rp97
ag49
(g53
S'\x17\xe6-\x9ef/\xe6?'
p98
tp99
Rp100
ag49
(g53
S",'\x95\x9e\xfa\x08\xd7?"
p101
tp102
Rp103
ag49
(g53
S'\xb4"\x1eo%G\xe1?'
p104
tp105
Rp106
ag49
(g53
S'Gf\xdd\x14?:\xd3?'
p107
tp108
Rp109
ag49
(g53
S",'\x95\x9e\xfa\x08\xd7?"
p110
tp111
Rp112
asS'sp'
p113
(lp114
(S'p0'
p115
I0
g22
tp116
ag116
ag116
a(g115
I0
S'y'
p117
tp118
a(g115
I0
g117
tp119
ag119
a(S'p1'
p120
I0
g117
tp121
a(g120
I0
S't'
p122
tp123
ag123
ag123
a(g120
F1.5707963267948966
g122
tp124
ag124
a(g120
F1.5707963267948966
S'x'
p125
tp126
ag126
ag126
a(S'p2'
p127
F1.5707963267948966
g125
tp128
ag128
a(g127
F1.5707963267948966
g117
tp129
a(S'p3'
p130
F1.5707963267948966
g117
tp131
asS's'
p132
(lp133
g116
ag116
ag116
ag116
ag118
ag119
ag119
ag121
ag123
ag123
ag123
ag124
ag124
ag126
ag126
ag126
ag128
ag128
ag129
asS'ui'
p134
(lp135
S'hp'
p136
ag113
ag113
ag113
ag136
ag136
aS'ss'
p137
ag136
ag137
ag137
ag113
ag136
ag137
aS'hs'
p138
ag138
ag136
ag136
ag136
ag137
asS'um_before'
p139
(lp140
g113
ag113
ag113
ag136
ag113
ag136
ag137
ag136
ag137
ag137
ag113
ag113
ag136
ag136
ag136
ag137
ag113
ag136
ag137
asS'um_after'
p141
(lp142
NaNaNag136
ag113
aNag137
ag136
aNaNag113
aNag136
aNaNag137
aNag136
ag137
asS'is_normalized_entropy_less_than_threshold'
p143
(lp144
g49
(g50
(S'b1'
p145
I0
I1
tp146
Rp147
(I3
S'|'
p148
NNNI-1
I-1
I0
tp149
bS'\x01'
p150
tp151
Rp152
ag152
ag152
ag152
ag49
(g147
S'\x00'
p153
tp154
Rp155
ag152
ag152
ag152
ag152
ag152
ag152
ag152
ag152
ag152
ag152
ag152
ag152
ag152
ag152
asaa(lp156
S'index'
p157
aI72396
aatp158
Rp159
.