ccollections
OrderedDict
p0
((lp1
(lp2
S'combination_dict'
p3
ag0
((lp4
(lp5
S'r_to_g_config'
p6
aS'tl'
p7
aa(lp8
S'num_turns'
p9
aI1
aa(lp10
S'start_direction'
p11
acutils_ms
StartDirection
p12
(I1
tp13
Rp14
aa(lp15
S'assistance_type'
p16
acutils_ms
AssistanceType
p17
(I0
tp18
Rp19
aa(lp20
S'start_mode'
p21
aS't'
p22
aa(lp23
S'ui_given_a_noise'
p24
aF0.5
aa(lp25
S'um_given_ui_noise'
p26
aF0.3
aa(lp27
S'entropy_threshold'
p28
aF0.8
aatp29
Rp30
aa(lp31
S'data'
p32
accollections
defaultdict
p33
(c__builtin__
list
p34
tp35
Rp36
S'a'
p37
(lp38
S'mode_l'
p39
ag39
aS'move_p'
p40
aS'mode_r'
p41
ag40
ag41
ag40
ag39
ag39
ag39
ag39
ag40
ag40
ag41
ag39
ag40
ag39
ag39
ag40
ag41
aS'move_n'
p42
ag39
ag41
ag42
ag39
ag42
ag41
ag42
asS'assistance_match_with_ground_truth'
p43
(lp44
I00
aI01
aI00
aI01
aI00
aI01
aI00
aI00
aI00
aI00
aI01
aI00
aI01
aI00
aI01
aI00
aI00
aI01
aI01
aI01
aI00
aI00
aI01
aI00
aI01
aI00
aI01
aI01
asS'is_u_intended_equals_um'
p45
(lp46
I00
aI01
aI01
aI01
aI01
aI01
aI01
aI00
aI00
aI00
aI01
aI01
aI01
aI01
aI01
aI01
aI00
aI01
aI01
aI01
aI01
aI01
aI01
aI01
aI01
aI01
aI01
aI01
asS'total_steps'
p47
I28
sS'normalized_h_of_p_ui_given_um'
p48
(lp49
cnumpy.core.multiarray
scalar
p50
(cnumpy
dtype
p51
(S'f8'
p52
I0
I1
tp53
Rp54
(I3
S'<'
p55
NNNI-1
I-1
I0
tp56
bS'\xa6\x9bg\xcd\x18\x1a\xe7?'
p57
tp58
Rp59
ag50
(g54
S'R\x83\xa3\x7f\t\xc7\xad?'
p60
tp61
Rp62
ag50
(g54
S'\x19\n4 \x9c\xba\xe4?'
p63
tp64
Rp65
ag50
(g54
S'T(\x1co5\xab\xd9?'
p66
tp67
Rp68
ag50
(g54
S'\x19\n4 \x9c\xba\xe4?'
p69
tp70
Rp71
ag50
(g54
S'T(\x1co5\xab\xd9?'
p72
tp73
Rp74
ag50
(g54
S'\x14\xc8\xd37\xfe\xdb\xe7?'
p75
tp76
Rp77
ag50
(g54
S'\x16\xa3\xbe\\J\x15\xe0?'
p78
tp79
Rp80
ag50
(g54
S'\xa6\x9bg\xcd\x18\x1a\xe7?'
p81
tp82
Rp83
ag50
(g54
S'\x16\xa3\xbe\\J\x15\xe0?'
p84
tp85
Rp86
ag50
(g54
S'R\x83\xa3\x7f\t\xc7\xad?'
p87
tp88
Rp89
ag50
(g54
S'\xe3n\x94\xf0\xcev\xe8?'
p90
tp91
Rp92
ag50
(g54
S'\xab\x12\x03\x8e,\x92\xda?'
p93
tp94
Rp95
ag50
(g54
S'\x12~\xb2h1\x8e\xe8?'
p96
tp97
Rp98
ag50
(g54
S'R\x83\xa3\x7f\t\xc7\xad?'
p99
tp100
Rp101
ag50
(g54
S'\x14\xc8\xd37\xfe\xdb\xe7?'
p102
tp103
Rp104
ag50
(g54
S'\xa6\x9bg\xcd\x18\x1a\xe7?'
p105
tp106
Rp107
ag50
(g54
S'R\x83\xa3\x7f\t\xc7\xad?'
p108
tp109
Rp110
ag50
(g54
S'\xab\x12\x03\x8e,\x92\xda?'
p111
tp112
Rp113
ag50
(g54
S'T(\x1co5\xab\xd9?'
p114
tp115
Rp116
ag50
(g54
S'(\xe6n\x9c\xdd\xd9\xe8?'
p117
tp118
Rp119
ag50
(g54
S'9[\xcdT3\xe9\xe1?'
p120
tp121
Rp122
ag50
(g54
S'T(\x1co5\xab\xd9?'
p123
tp124
Rp125
ag50
(g54
S'(\xe6n\x9c\xdd\xd9\xe8?'
p126
tp127
Rp128
ag50
(g54
S'R\x83\xa3\x7f\t\xc7\xad?'
p129
tp130
Rp131
ag50
(g54
S"q'\xb6=\xbf\xf4\xe5?"
p132
tp133
Rp134
ag50
(g54
S'T(\x1co5\xab\xd9?'
p135
tp136
Rp137
ag50
(g54
S'w\xb9f@oU\xd1?'
p138
tp139
Rp140
asS'sp'
p141
(lp142
(S'p0'
p143
I0
g22
tp144
a(g143
I0
S'y'
p145
tp146
a(g143
I0
S'x'
p147
tp148
a(g143
I0
g145
tp149
ag148
ag149
a(g143
I0
S't'
p150
tp151
ag151
ag151
ag151
ag146
a(g143
I0
g145
tp152
a(S'p1'
p153
I0
g145
tp154
a(g153
I0
g147
tp155
a(g153
I0
g150
tp156
a(g153
I0
g147
tp157
ag157
ag156
a(g153
F1.5707963267948966
g150
tp158
a(g153
F1.5707963267948966
g147
tp159
a(g153
F1.5707963267948966
g145
tp160
a(g153
F1.5707963267948966
g150
tp161
ag159
ag160
a(g153
F1.5707963267948966
g147
tp162
a(g153
F1.5707963267948966
g150
tp163
ag159
a(S'p2'
p164
F1.5707963267948966
g147
tp165
asS's'
p166
(lp167
g144
ag144
ag146
ag148
ag149
ag148
ag149
ag151
ag151
ag151
ag151
ag146
ag152
ag154
ag155
ag156
ag157
ag157
ag156
ag158
ag159
ag160
ag161
ag159
ag160
ag162
ag163
ag159
asS'ui'
p168
(lp169
S'hs'
p170
ag170
ag170
aS'hp'
p171
ag170
ag171
ag171
ag170
ag171
ag170
ag170
aS'ss'
p172
ag171
ag172
ag170
ag171
ag170
ag170
ag141
ag171
ag172
ag170
ag171
ag172
ag170
ag170
ag141
ag141
asS'um_before'
p173
(lp174
g141
ag170
ag170
ag171
ag170
ag171
ag171
ag172
ag141
ag172
ag170
ag172
ag141
ag170
ag170
ag171
ag141
ag170
ag141
ag171
ag171
ag171
ag171
ag171
ag170
ag170
ag171
ag172
asS'um_after'
p175
(lp176
Nag170
ag170
ag171
ag170
ag171
ag171
aNaNaNag170
ag172
ag141
ag170
ag170
ag171
aNag170
ag141
ag171
ag171
ag171
ag171
ag171
ag170
ag170
ag171
ag172
asS'is_normalized_entropy_less_than_threshold'
p177
(lp178
g50
(g51
(S'b1'
p179
I0
I1
tp180
Rp181
(I3
S'|'
p182
NNNI-1
I-1
I0
tp183
bS'\x01'
p184
tp185
Rp186
ag186
ag186
ag186
ag186
ag186
ag186
ag186
ag186
ag186
ag186
ag186
ag186
ag186
ag186
ag186
ag186
ag186
ag186
ag186
ag186
ag186
ag186
ag186
ag186
ag186
ag186
ag186
asaa(lp187
S'index'
p188
aI34886
aatp189
Rp190
.