ccollections
OrderedDict
p0
((lp1
(lp2
S'combination_dict'
p3
ag0
((lp4
(lp5
S'r_to_g_config'
p6
aS'br'
p7
aa(lp8
S'num_turns'
p9
aI1
aa(lp10
S'start_direction'
p11
acutils_ms
StartDirection
p12
(I0
tp13
Rp14
aa(lp15
S'assistance_type'
p16
acutils_ms
AssistanceType
p17
(I1
tp18
Rp19
aa(lp20
S'start_mode'
p21
aS't'
p22
aa(lp23
S'ui_given_a_noise'
p24
aF0.3
aa(lp25
S'um_given_ui_noise'
p26
aF0.1
aa(lp27
S'entropy_threshold'
p28
aF0.5
aatp29
Rp30
aa(lp31
S'data'
p32
accollections
defaultdict
p33
(c__builtin__
list
p34
tp35
Rp36
S'a'
p37
(lp38
S'mode_r'
p39
aS'move_p'
p40
aS'mode_l'
p41
ag40
ag41
ag41
ag40
ag40
ag41
ag40
ag41
aS'move_n'
p42
ag41
ag40
ag40
ag39
ag42
asS'assistance_match_with_ground_truth'
p43
(lp44
I01
aI00
aI01
aI01
aI00
aI01
aI00
aI00
aI01
aI01
aI01
aI00
aI01
aI00
aI01
aI01
aI01
asS'is_u_intended_equals_um'
p45
(lp46
I01
aI01
aI01
aI01
aI01
aI01
aI01
aI01
aI01
aI01
aI01
aI00
aI01
aI01
aI01
aI01
aI01
asS'total_steps'
p47
I17
sS'normalized_h_of_p_ui_given_um'
p48
(lp49
cnumpy.core.multiarray
scalar
p50
(cnumpy
dtype
p51
(S'f8'
p52
I0
I1
tp53
Rp54
(I3
S'<'
p55
NNNI-1
I-1
I0
tp56
bS'XS\xdb\xba\x94v\xab?'
p57
tp58
Rp59
ag50
(g54
S'\xa4fO;\xb6\x15\xe0?'
p60
tp61
Rp62
ag50
(g54
S'\xd074+\x95\x0c\xc0?'
p63
tp64
Rp65
ag50
(g54
S'y\xf4\x8a\xe7\xeb\x92\xca?'
p66
tp67
Rp68
ag50
(g54
S'J\xf7\x81e\xa7~\xe6?'
p69
tp70
Rp71
ag50
(g54
S'\xd074+\x95\x0c\xc0?'
p72
tp73
Rp74
ag50
(g54
S'\xaa]\tD`\xc7\xdd?'
p75
tp76
Rp77
ag50
(g54
S'\xa4fO;\xb6\x15\xe0?'
p78
tp79
Rp80
ag50
(g54
S'\xd074+\x95\x0c\xc0?'
p81
tp82
Rp83
ag50
(g54
S'y\xf4\x8a\xe7\xeb\x92\xca?'
p84
tp85
Rp86
ag50
(g54
S'\xd074+\x95\x0c\xc0?'
p87
tp88
Rp89
ag50
(g54
S'\x80WW\r\x06M\xe8?'
p90
tp91
Rp92
ag50
(g54
S'\xd074+\x95\x0c\xc0?'
p93
tp94
Rp95
ag50
(g54
S'\xaa]\tD`\xc7\xdd?'
p96
tp97
Rp98
ag50
(g54
S'y\xf4\x8a\xe7\xeb\x92\xca?'
p99
tp100
Rp101
ag50
(g54
S'XS\xdb\xba\x94v\xab?'
p102
tp103
Rp104
ag50
(g54
S'\xb3\xfd%\x07\xb8\x96\xa4?'
p105
tp106
Rp107
asS'sp'
p108
(lp109
(S'p0'
p110
I0
S'x'
p111
tp112
a(g110
I0
S'y'
p113
tp114
a(g110
I0
g111
tp115
a(S'p1'
p116
I0
g111
tp117
a(g116
I0
g111
tp118
a(g116
I0
S't'
p119
tp120
a(g116
I0
g119
tp121
a(g116
I0
g111
tp122
ag120
a(g116
F1.5707963267948966
g119
tp123
a(g116
F1.5707963267948966
g113
tp124
a(g110
F1.5707963267948966
g113
tp125
a(g110
F1.5707963267948966
g111
tp126
a(g110
F1.5707963267948966
g111
tp127
a(g116
F1.5707963267948966
g111
tp128
a(g116
F1.5707963267948966
g113
tp129
a(S'p2'
p130
F1.5707963267948966
g113
tp131
asS's'
p132
(lp133
(g110
I0
g22
tp134
ag112
ag114
ag115
ag117
ag118
ag120
ag121
ag122
ag120
ag123
ag124
ag125
ag126
ag127
ag128
ag129
asS'ui'
p135
(lp136
S'hp'
p137
ag137
aS'hs'
p138
ag108
ag138
ag138
aS'ss'
p139
ag137
ag138
ag138
ag138
ag138
ag138
ag139
ag108
ag137
ag139
asS'um_before'
p140
(lp141
g137
ag137
ag138
ag108
ag108
ag138
ag139
ag137
ag138
ag108
ag138
ag108
ag138
ag139
ag108
ag137
ag139
asS'um_after'
p142
(lp143
g137
ag137
ag138
ag108
ag108
ag138
ag139
ag137
ag138
ag108
ag138
ag108
ag138
ag139
ag108
ag137
ag139
asS'is_normalized_entropy_less_than_threshold'
p144
(lp145
g50
(g51
(S'b1'
p146
I0
I1
tp147
Rp148
(I3
S'|'
p149
NNNI-1
I-1
I0
tp150
bS'\x01'
p151
tp152
Rp153
ag50
(g148
S'\x00'
p154
tp155
Rp156
ag153
ag153
ag156
ag153
ag153
ag156
ag153
ag153
ag153
ag156
ag153
ag153
ag153
ag153
ag153
asaa(lp157
S'index'
p158
aI88207
aatp159
Rp160
.