ccollections
OrderedDict
p0
((lp1
(lp2
S'combination_dict'
p3
ag0
((lp4
(lp5
S'r_to_g_config'
p6
aS'tl'
p7
aa(lp8
S'num_turns'
p9
aI3
aa(lp10
S'start_direction'
p11
acutils_ms
StartDirection
p12
(I1
tp13
Rp14
aa(lp15
S'assistance_type'
p16
acutils_ms
AssistanceType
p17
(I1
tp18
Rp19
aa(lp20
S'start_mode'
p21
aS't'
p22
aa(lp23
S'ui_given_a_noise'
p24
aF0.5
aa(lp25
S'um_given_ui_noise'
p26
aF0.7
aa(lp27
S'entropy_threshold'
p28
aF0.6
aatp29
Rp30
aa(lp31
S'data'
p32
accollections
defaultdict
p33
(c__builtin__
list
p34
tp35
Rp36
S'a'
p37
(lp38
S'mode_l'
p39
ag39
ag39
ag39
aS'move_p'
p40
ag40
aS'mode_r'
p41
ag41
ag40
ag41
ag40
ag39
aS'move_n'
p42
ag41
ag39
ag41
ag39
ag40
ag39
ag39
ag42
ag41
ag40
ag39
ag40
ag39
ag39
ag42
ag41
ag40
ag39
ag42
ag41
ag40
ag40
ag39
ag40
ag39
ag42
ag41
ag39
ag39
ag39
ag40
ag41
ag39
ag40
ag39
asS'assistance_match_with_ground_truth'
p43
(lp44
I00
aI00
aI00
aI01
aI00
aI00
aI00
aI01
aI00
aI01
aI01
aI01
aI01
aI00
aI00
aI00
aI01
aI00
aI00
aI01
aI00
aI01
aI00
aI01
aI01
aI00
aI01
aI01
aI01
aI00
aI01
aI00
aI01
aI00
aI00
aI01
aI01
aI01
aI01
aI00
aI00
aI00
aI01
aI01
aI00
aI01
aI00
aI00
asS'is_u_intended_equals_um'
p45
(lp46
I00
aI00
aI01
aI01
aI00
aI01
aI00
aI01
aI01
aI01
aI01
aI01
aI01
aI01
aI00
aI01
aI01
aI00
aI00
aI01
aI00
aI01
aI01
aI01
aI01
aI00
aI01
aI01
aI01
aI00
aI01
aI00
aI01
aI00
aI01
aI01
aI01
aI01
aI01
aI01
aI00
aI00
aI01
aI01
aI01
aI01
aI01
aI00
asS'total_steps'
p47
I48
sS'normalized_h_of_p_ui_given_um'
p48
(lp49
cnumpy.core.multiarray
scalar
p50
(cnumpy
dtype
p51
(S'f8'
p52
I0
I1
tp53
Rp54
(I3
S'<'
p55
NNNI-1
I-1
I0
tp56
bS'\x8d\tn\r\x8d)\xe9?'
p57
tp58
Rp59
ag50
(g54
S'\x8d\tn\r\x8d)\xe9?'
p60
tp61
Rp62
ag50
(g54
S'\x1b\xe6\x9a"/E\xea?'
p63
tp64
Rp65
ag50
(g54
S'\xf9\x8bd*B\xee\xd1?'
p66
tp67
Rp68
ag50
(g54
S'$i\xf4[`$\xeb?'
p69
tp70
Rp71
ag50
(g54
S'\xe0\xf3\xee\xf4g>\xe6?'
p72
tp73
Rp74
ag50
(g54
S'\xa2\xb6\x9e3?\xe4\xe4?'
p75
tp76
Rp77
ag50
(g54
S'U\nc\xa2\xa9\xc1\xc1?'
p78
tp79
Rp80
ag50
(g54
S'\xe0\xf3\xee\xf4g>\xe6?'
p81
tp82
Rp83
ag50
(g54
S'U\nc\xa2\xa9\xc1\xc1?'
p84
tp85
Rp86
ag50
(g54
S'bnO\x9f\x83)\xe5?'
p87
tp88
Rp89
ag50
(g54
S'\xf9\x8bd*B\xee\xd1?'
p90
tp91
Rp92
ag50
(g54
S'\xa2)W\x19Y\xb3\xdf?'
p93
tp94
Rp95
ag50
(g54
S'<<\x1f\x8c\xdeM\xe1?'
p96
tp97
Rp98
ag50
(g54
S'\xcb\xa8\xa9;\xe5f\xec?'
p99
tp100
Rp101
ag50
(g54
S'<<\x1f\x8c\xdeM\xe1?'
p102
tp103
Rp104
ag50
(g54
S'\xf9\x8bd*B\xee\xd1?'
p105
tp106
Rp107
ag50
(g54
S'$i\xf4[`$\xeb?'
p108
tp109
Rp110
ag50
(g54
S'\x8d\tn\r\x8d)\xe9?'
p111
tp112
Rp113
ag50
(g54
S'\xf9\x8bd*B\xee\xd1?'
p114
tp115
Rp116
ag50
(g54
S'\x14k\x18>U\xea\xe9?'
p117
tp118
Rp119
ag50
(g54
S'U\nc\xa2\xa9\xc1\xc1?'
p120
tp121
Rp122
ag50
(g54
S'\xc5Ce\xc7\x8b\x98\xe4?'
p123
tp124
Rp125
ag50
(g54
S'\xf9\x8bd*B\xee\xd1?'
p126
tp127
Rp128
ag50
(g54
S'bnO\x9f\x83)\xe5?'
p129
tp130
Rp131
ag50
(g54
S'\x8d\tn\r\x8d)\xe9?'
p132
tp133
Rp134
ag50
(g54
S'\xf9\x8bd*B\xee\xd1?'
p135
tp136
Rp137
ag50
(g54
S'\xa2)W\x19Y\xb3\xdf?'
p138
tp139
Rp140
ag50
(g54
S'U\nc\xa2\xa9\xc1\xc1?'
p141
tp142
Rp143
ag50
(g54
S'$i\xf4[`$\xeb?'
p144
tp145
Rp146
ag50
(g54
S'\xf9\x8bd*B\xee\xd1?'
p147
tp148
Rp149
ag50
(g54
S'\x14k\x18>U\xea\xe9?'
p150
tp151
Rp152
ag50
(g54
S'U\nc\xa2\xa9\xc1\xc1?'
p153
tp154
Rp155
ag50
(g54
S'$i\xf4[`$\xeb?'
p156
tp157
Rp158
ag50
(g54
S'\xc5Ce\xc7\x8b\x98\xe4?'
p159
tp160
Rp161
ag50
(g54
S'\xf9\x8bd*B\xee\xd1?'
p162
tp163
Rp164
ag50
(g54
S'bnO\x9f\x83)\xe5?'
p165
tp166
Rp167
ag50
(g54
S'\xf9\x8bd*B\xee\xd1?'
p168
tp169
Rp170
ag50
(g54
S'\xa2)W\x19Y\xb3\xdf?'
p171
tp172
Rp173
ag50
(g54
S'<<\x1f\x8c\xdeM\xe1?'
p174
tp175
Rp176
ag50
(g54
S'\x8d\tn\r\x8d)\xe9?'
p177
tp178
Rp179
ag50
(g54
S'\x8d\tn\r\x8d)\xe9?'
p180
tp181
Rp182
ag50
(g54
S'\xf9\x8bd*B\xee\xd1?'
p183
tp184
Rp185
ag50
(g54
S'bnO\x9f\x83)\xe5?'
p186
tp187
Rp188
ag50
(g54
S'<<\x1f\x8c\xdeM\xe1?'
p189
tp190
Rp191
ag50
(g54
S'\xf9\x8bd*B\xee\xd1?'
p192
tp193
Rp194
ag50
(g54
S'\xc5Ce\xc7\x8b\x98\xe4?'
p195
tp196
Rp197
ag50
(g54
S'\x8d\tn\r\x8d)\xe9?'
p198
tp199
Rp200
asS'sp'
p201
(lp202
(S'p0'
p203
I0
S't'
p204
tp205
ag205
a(g203
I0
g204
tp206
a(g203
I0
S'y'
p207
tp208
a(g203
I0
g207
tp209
a(g203
I0
S'x'
p210
tp211
a(g203
I0
g210
tp212
a(g203
I0
g207
tp213
ag211
ag213
a(S'p1'
p214
I0
g207
tp215
a(g214
I0
g210
tp216
a(S'p2'
p217
I0
g210
tp218
a(g217
I0
g204
tp219
a(g217
I0
g210
tp220
ag219
a(g217
I0
g207
tp221
a(g214
I0
g207
tp222
a(g214
I0
g207
tp223
ag216
a(g203
I0
g210
tp224
ag213
a(g203
I0
g204
tp225
ag208
ag215
ag223
ag216
ag218
a(g217
I0
g207
tp226
ag222
ag216
ag224
ag213
ag209
ag225
ag208
ag215
ag216
ag218
ag219
a(g217
I0
g204
tp227
ag227
ag221
a(S'p3'
p228
I0
g207
tp229
a(g228
I0
g210
tp230
a(g228
I0
g204
tp231
a(g228
I0
g210
tp232
a(S'p4'
p233
I0
g210
tp234
asS's'
p235
(lp236
(g203
I0
g22
tp237
ag205
ag205
ag206
ag208
ag209
ag211
ag212
ag213
ag211
ag213
ag215
ag216
ag218
ag219
ag220
ag219
ag221
ag222
ag223
ag216
ag224
ag213
ag225
ag208
ag215
ag223
ag216
ag218
ag226
ag222
ag216
ag224
ag213
ag209
ag225
ag208
ag215
ag216
ag218
ag219
ag227
ag227
ag221
ag229
ag230
ag231
ag232
asS'ui'
p238
(lp239
S'hs'
p240
ag240
ag201
ag240
aS'ss'
p241
ag240
aS'hp'
p242
ag242
ag240
ag242
ag201
ag240
ag241
ag240
ag242
ag240
ag240
ag201
ag241
ag240
ag241
ag242
ag242
ag241
ag241
ag241
ag240
ag201
ag242
ag241
ag240
ag241
ag242
ag201
ag242
ag240
ag201
ag240
ag241
ag240
ag240
ag201
ag240
ag201
ag240
ag240
ag242
ag240
asS'um_before'
p243
(lp244
g241
ag241
ag201
ag240
ag241
ag240
ag201
ag242
ag240
ag242
ag201
ag240
ag241
ag240
ag242
ag240
ag240
ag241
ag241
ag240
ag201
ag242
ag242
ag240
ag201
ag241
ag240
ag241
ag242
ag241
ag240
ag201
ag242
ag241
ag242
ag240
ag201
ag240
ag241
ag240
ag241
ag241
ag240
ag201
ag240
ag240
ag242
ag241
asS'um_after'
p245
(lp246
g241
ag241
ag201
ag240
ag241
ag240
ag201
ag242
ag240
ag242
ag201
ag240
ag241
ag240
ag242
ag240
ag240
ag241
ag241
ag240
ag201
ag242
ag242
ag240
ag201
ag241
ag240
ag241
ag242
ag241
ag240
ag201
ag242
ag241
ag242
ag240
ag201
ag240
ag241
ag240
ag241
ag241
ag240
ag201
ag240
ag240
ag242
ag241
asS'is_normalized_entropy_less_than_threshold'
p247
(lp248
g50
(g51
(S'b1'
p249
I0
I1
tp250
Rp251
(I3
S'|'
p252
NNNI-1
I-1
I0
tp253
bS'\x00'
p254
tp255
Rp256
ag256
ag256
ag50
(g251
S'\x01'
p257
tp258
Rp259
ag256
ag256
ag256
ag259
ag256
ag259
ag256
ag259
ag259
ag259
ag256
ag259
ag259
ag256
ag256
ag259
ag256
ag259
ag256
ag259
ag256
ag256
ag259
ag259
ag259
ag256
ag259
ag256
ag259
ag256
ag256
ag259
ag256
ag259
ag259
ag259
ag256
ag256
ag259
ag256
ag259
ag259
ag256
ag256
asaa(lp260
S'index'
p261
aI55763
aatp262
Rp263
.