ccollections
OrderedDict
p0
((lp1
(lp2
S'combination_dict'
p3
ag0
((lp4
(lp5
S'r_to_g_config'
p6
aS'tl'
p7
aa(lp8
S'num_turns'
p9
aI3
aa(lp10
S'start_direction'
p11
acutils_ms
StartDirection
p12
(I1
tp13
Rp14
aa(lp15
S'assistance_type'
p16
acutils_ms
AssistanceType
p17
(I2
tp18
Rp19
aa(lp20
S'start_mode'
p21
aS'x'
p22
aa(lp23
S'ui_given_a_noise'
p24
aF0.3
aa(lp25
S'um_given_ui_noise'
p26
aF0.7
aa(lp27
S'entropy_threshold'
p28
aF0.6
aatp29
Rp30
aa(lp31
S'data'
p32
accollections
defaultdict
p33
(c__builtin__
list
p34
tp35
Rp36
S'a'
p37
(lp38
S'mode_r'
p39
aS'mode_l'
p40
ag40
aS'move_p'
p41
ag40
aS'move_n'
p42
ag39
ag39
ag39
ag41
ag40
ag40
ag40
ag40
ag39
ag39
ag41
ag40
ag42
ag40
ag41
ag40
ag41
ag41
ag41
ag40
ag41
ag40
ag41
ag40
ag39
ag41
ag39
ag39
ag39
ag41
ag40
ag40
ag42
ag39
ag40
ag41
ag40
ag39
ag41
ag40
ag39
ag40
ag42
asS'assistance_match_with_ground_truth'
p43
(lp44
I00
aI00
aI01
aI01
aI01
aI00
aI00
aI00
aI01
aI00
aI00
aI00
aI00
aI00
aI00
aI01
aI01
aI01
aI01
aI01
aI00
aI01
aI00
aI00
aI01
aI00
aI01
aI01
aI00
aI00
aI01
aI00
aI00
aI00
aI01
aI01
aI00
aI01
aI00
aI00
aI00
aI00
aI00
aI01
aI00
aI00
aI00
aI01
aI01
asS'is_u_intended_equals_um'
p45
(lp46
I01
aI01
aI01
aI01
aI01
aI01
aI01
aI01
aI01
aI01
aI01
aI01
aI01
aI01
aI01
aI01
aI01
aI01
aI01
aI01
aI01
aI01
aI01
aI01
aI01
aI01
aI01
aI01
aI01
aI01
aI01
aI01
aI01
aI01
aI01
aI01
aI01
aI01
aI01
aI01
aI01
aI01
aI01
aI01
aI01
aI01
aI01
aI01
aI01
asS'total_steps'
p47
I49
sS'normalized_h_of_p_ui_given_um'
p48
(lp49
cnumpy.core.multiarray
scalar
p50
(cnumpy
dtype
p51
(S'f8'
p52
I0
I1
tp53
Rp54
(I3
S'<'
p55
NNNI-1
I-1
I0
tp56
bS'\x05n\x9b\xd5\xce\xb4\xe5?'
p57
tp58
Rp59
ag59
ag59
ag59
ag59
ag59
ag59
ag59
ag59
ag59
ag59
ag59
ag59
ag59
ag59
ag59
ag59
ag59
ag59
ag59
ag59
ag59
ag59
ag59
ag59
ag59
ag59
ag59
ag59
ag59
ag59
ag59
ag59
ag59
ag59
ag59
ag59
ag59
ag59
ag59
ag59
ag59
ag59
ag59
ag59
ag59
ag59
ag59
ag59
asS'sp'
p60
(lp61
(S'p0'
p62
I0
S't'
p63
tp64
a(g62
I0
g63
tp65
a(g62
I0
S'y'
p66
tp67
a(S'p1'
p68
I0
g66
tp69
a(g68
I0
S'x'
p70
tp71
a(g62
I0
g70
tp72
a(g62
I0
g70
tp73
a(g62
I0
g70
tp74
a(g62
I0
g66
tp75
a(g62
I0
g63
tp76
ag65
a(g62
I0
g63
tp77
ag77
a(g62
I0
g70
tp78
ag74
ag75
ag69
ag71
a(S'p2'
p79
I0
g70
tp80
a(g79
I0
g63
tp81
a(g79
I0
g70
tp82
ag81
a(g79
I0
g63
tp83
ag83
a(g79
F1.5707963267948966
g63
tp84
a(g79
I0
g63
tp85
ag84
a(g79
F1.5707963267948966
g66
tp86
a(g79
F1.5707963267948966
g63
tp87
a(g79
F1.5707963267948966
g70
tp88
a(g79
F1.5707963267948966
g66
tp89
a(g79
F1.5707963267948966
g70
tp90
a(g79
F1.5707963267948966
g70
tp91
ag91
ag89
a(S'p3'
p92
F1.5707963267948966
g66
tp93
a(g92
F1.5707963267948966
g66
tp94
a(g92
F1.5707963267948966
g70
tp95
a(g79
F1.5707963267948966
g70
tp96
a(g79
F1.5707963267948966
g63
tp97
ag85
ag82
a(g79
I0
g66
tp98
a(g79
I0
g63
tp99
ag82
ag98
a(g92
I0
g66
tp100
a(g92
I0
g70
tp101
a(S'p4'
p102
I0
g70
tp103
asS's'
p104
(lp105
(g62
I0
g22
tp106
ag64
ag65
ag67
ag69
ag71
ag72
ag73
ag74
ag75
ag76
ag65
ag77
ag77
ag78
ag74
ag75
ag69
ag71
ag80
ag81
ag82
ag81
ag83
ag83
ag84
ag85
ag84
ag86
ag87
ag88
ag89
ag90
ag91
ag91
ag89
ag93
ag94
ag95
ag96
ag97
ag85
ag82
ag98
ag99
ag82
ag98
ag100
ag101
asS'ui'
p107
(lp108
S'hp'
p109
aS'hs'
p110
ag110
ag60
aS'ss'
p111
ag111
ag109
ag109
ag109
ag60
ag109
ag111
ag111
ag109
ag111
ag109
ag60
ag110
ag111
ag110
ag60
ag110
ag111
ag111
ag110
ag111
ag60
ag110
ag109
ag110
ag109
ag60
ag109
ag109
ag109
ag60
ag110
ag110
ag111
ag109
ag111
ag110
ag110
ag109
ag60
ag110
ag109
ag110
ag111
asS'um_before'
p112
(lp113
g110
ag60
ag110
ag60
ag110
ag60
ag60
ag111
ag109
ag109
ag60
ag111
ag111
ag109
ag111
ag109
ag60
ag110
ag111
ag110
ag109
ag110
ag111
ag111
ag60
ag111
ag60
ag110
ag109
ag109
ag109
ag110
ag60
ag60
ag109
ag60
ag111
ag110
ag60
ag110
ag111
ag109
ag109
ag109
ag109
ag109
ag60
ag110
ag111
asS'um_after'
p114
(lp115
g110
ag60
ag110
ag60
ag110
ag60
ag60
ag111
ag109
ag109
ag60
ag111
ag111
ag109
ag111
ag109
ag60
ag110
ag111
ag110
ag109
ag110
ag111
ag111
ag60
ag111
ag60
ag110
ag109
ag109
ag109
ag110
ag60
ag60
ag109
ag60
ag111
ag110
ag60
ag110
ag111
ag109
ag109
ag109
ag109
ag109
ag60
ag110
ag111
asS'is_normalized_entropy_less_than_threshold'
p116
(lp117
g50
(g51
(S'b1'
p118
I0
I1
tp119
Rp120
(I3
S'|'
p121
NNNI-1
I-1
I0
tp122
bS'\x01'
p123
tp124
Rp125
ag125
ag125
ag125
ag125
ag125
ag125
ag125
ag125
ag125
ag125
ag125
ag125
ag125
ag125
ag125
ag125
ag125
ag125
ag125
ag125
ag125
ag125
ag125
ag125
ag125
ag125
ag125
ag125
ag125
ag125
ag125
ag125
ag125
ag125
ag125
ag125
ag125
ag125
ag125
ag125
ag125
ag125
ag125
ag125
ag125
ag125
ag125
ag125
asaa(lp126
S'index'
p127
aI56365
aatp128
Rp129
.