ccollections
OrderedDict
p0
((lp1
(lp2
S'combination_dict'
p3
ag0
((lp4
(lp5
S'r_to_g_config'
p6
aS'tr'
p7
aa(lp8
S'num_turns'
p9
aI3
aa(lp10
S'start_direction'
p11
acutils_ms
StartDirection
p12
(I1
tp13
Rp14
aa(lp15
S'assistance_type'
p16
acutils_ms
AssistanceType
p17
(I0
tp18
Rp19
aa(lp20
S'start_mode'
p21
aS'x'
p22
aa(lp23
S'ui_given_a_noise'
p24
aF0.7
aa(lp25
S'um_given_ui_noise'
p26
aF0.1
aa(lp27
S'entropy_threshold'
p28
aF0.5
aatp29
Rp30
aa(lp31
S'data'
p32
accollections
defaultdict
p33
(c__builtin__
list
p34
tp35
Rp36
S'a'
p37
(lp38
S'mode_r'
p39
ag39
aS'move_p'
p40
aS'mode_l'
p41
ag40
ag41
ag41
ag40
ag41
ag40
ag41
ag40
ag41
ag41
ag41
ag40
ag41
ag41
ag41
ag39
ag41
ag41
ag40
ag41
ag41
ag40
ag41
ag40
ag41
ag41
ag40
ag41
ag39
ag41
ag41
ag40
ag39
ag39
ag40
ag41
ag40
ag39
ag40
ag41
ag41
ag40
ag41
ag41
ag40
ag41
ag40
ag39
ag40
ag41
ag40
ag41
ag40
ag41
ag41
ag41
ag41
ag40
ag39
ag39
ag41
ag41
ag40
ag41
ag41
ag40
ag39
ag40
ag41
ag40
ag39
ag40
ag41
ag40
ag39
ag41
ag40
asS'assistance_match_with_ground_truth'
p42
(lp43
I00
aI01
aI00
aI01
aI00
aI00
aI01
aI01
aI01
aI00
aI01
aI00
aI00
aI00
aI01
aI00
aI00
aI00
aI00
aI00
aI00
aI01
aI01
aI00
aI01
aI00
aI01
aI00
aI00
aI01
aI01
aI00
aI00
aI00
aI01
aI00
aI00
aI01
aI00
aI01
aI00
aI01
aI01
aI00
aI01
aI00
aI00
aI01
aI00
aI01
aI00
aI01
aI00
aI01
aI00
aI01
aI00
aI00
aI00
aI00
aI01
aI00
aI00
aI00
aI00
aI01
aI01
aI00
aI01
aI01
aI01
aI00
aI01
aI00
aI01
aI01
aI01
aI00
aI00
aI01
aI01
asS'is_u_intended_equals_um'
p44
(lp45
I01
aI01
aI01
aI01
aI01
aI01
aI01
aI01
aI01
aI01
aI01
aI01
aI01
aI01
aI01
aI01
aI01
aI01
aI01
aI01
aI01
aI01
aI01
aI01
aI01
aI01
aI01
aI01
aI01
aI01
aI01
aI01
aI01
aI01
aI01
aI01
aI01
aI01
aI01
aI01
aI01
aI01
aI01
aI01
aI01
aI01
aI01
aI01
aI01
aI01
aI01
aI01
aI01
aI01
aI01
aI01
aI01
aI01
aI01
aI01
aI01
aI01
aI01
aI01
aI01
aI01
aI01
aI01
aI01
aI01
aI01
aI01
aI01
aI01
aI01
aI01
aI01
aI01
aI01
aI01
aI01
asS'total_steps'
p46
I81
sS'normalized_h_of_p_ui_given_um'
p47
(lp48
cnumpy.core.multiarray
scalar
p49
(cnumpy
dtype
p50
(S'f8'
p51
I0
I1
tp52
Rp53
(I3
S'<'
p54
NNNI-1
I-1
I0
tp55
bS'W\xc2\xbc\x83\x1e_\xe1?'
p56
tp57
Rp58
ag49
(g53
S't\x02\x9f\xd85\xa3\xc4?'
p59
tp60
Rp61
ag49
(g53
S'"\x9e\x08\x1a\x88?\xd6?'
p62
tp63
Rp64
ag49
(g53
S'\xfb\x05Mw\xd0l\xcf?'
p65
tp66
Rp67
ag49
(g53
S'"\x9e\x08\x1a\x88?\xd6?'
p68
tp69
Rp70
ag49
(g53
S'\xf4R\x07\xc6-)\xce?'
p71
tp72
Rp73
ag49
(g53
S'\xfb\x05Mw\xd0l\xcf?'
p74
tp75
Rp76
ag49
(g53
S'\x13\x06U\x91\x08\xf0\xb1?'
p77
tp78
Rp79
ag49
(g53
S'\xfb\x05Mw\xd0l\xcf?'
p80
tp81
Rp82
ag49
(g53
S'"\x9e\x08\x1a\x88?\xd6?'
p83
tp84
Rp85
ag49
(g53
S'\xfb\x05Mw\xd0l\xcf?'
p86
tp87
Rp88
ag49
(g53
S'"\x9e\x08\x1a\x88?\xd6?'
p89
tp90
Rp91
ag49
(g53
S'\xf2\xe7,22\x90\xd9?'
p92
tp93
Rp94
ag49
(g53
S'\xf4R\x07\xc6-)\xce?'
p95
tp96
Rp97
ag49
(g53
S'\xfb\x05Mw\xd0l\xcf?'
p98
tp99
Rp100
ag49
(g53
S'"\x9e\x08\x1a\x88?\xd6?'
p101
tp102
Rp103
ag49
(g53
S'\xf4R\x07\xc6-)\xce?'
p104
tp105
Rp106
ag49
(g53
S'\xf4R\x07\xc6-)\xce?'
p107
tp108
Rp109
ag49
(g53
S'\xe2\xa4\x08A\x12\x1b\xdc?'
p110
tp111
Rp112
ag49
(g53
S'\xb9\xaeU\xdb\x1c\x88\xcf?'
p113
tp114
Rp115
ag49
(g53
S'\xf2\xe7,22\x90\xd9?'
p116
tp117
Rp118
ag49
(g53
S'\xfb\x05Mw\xd0l\xcf?'
p119
tp120
Rp121
ag49
(g53
S'\x13\x06U\x91\x08\xf0\xb1?'
p122
tp123
Rp124
ag49
(g53
S'\xf4R\x07\xc6-)\xce?'
p125
tp126
Rp127
ag49
(g53
S'\xfb\x05Mw\xd0l\xcf?'
p128
tp129
Rp130
ag49
(g53
S'"\x9e\x08\x1a\x88?\xd6?'
p131
tp132
Rp133
ag49
(g53
S'\xfb\x05Mw\xd0l\xcf?'
p134
tp135
Rp136
ag49
(g53
S'"\x9e\x08\x1a\x88?\xd6?'
p137
tp138
Rp139
ag49
(g53
S'\xf4R\x07\xc6-)\xce?'
p140
tp141
Rp142
ag49
(g53
S'\xfb\x05Mw\xd0l\xcf?'
p143
tp144
Rp145
ag49
(g53
S'\x13\x06U\x91\x08\xf0\xb1?'
p146
tp147
Rp148
ag49
(g53
S'\xe2\xa4\x08A\x12\x1b\xdc?'
p149
tp150
Rp151
ag49
(g53
S'\xb9\xaeU\xdb\x1c\x88\xcf?'
p152
tp153
Rp154
ag49
(g53
S'\xf4R\x07\xc6-)\xce?'
p155
tp156
Rp157
ag49
(g53
S'\xfb\x05Mw\xd0l\xcf?'
p158
tp159
Rp160
ag49
(g53
S'\xa0l=\xb8*\x1a\xe4?'
p161
tp162
Rp163
ag49
(g53
S'W\xc2\xbc\x83\x1e_\xe1?'
p164
tp165
Rp166
ag49
(g53
S't\x02\x9f\xd85\xa3\xc4?'
p167
tp168
Rp169
ag49
(g53
S'\xc2\x19=p\x00r\xe7?'
p170
tp171
Rp172
ag49
(g53
S'\xfb\x05Mw\xd0l\xcf?'
p173
tp174
Rp175
ag49
(g53
S'\xc2\x19=p\x00r\xe7?'
p176
tp177
Rp178
ag49
(g53
S't\x02\x9f\xd85\xa3\xc4?'
p179
tp180
Rp181
ag49
(g53
S'\x13\x06U\x91\x08\xf0\xb1?'
p182
tp183
Rp184
ag49
(g53
S'\xf4R\x07\xc6-)\xce?'
p185
tp186
Rp187
ag49
(g53
S'\xfb\x05Mw\xd0l\xcf?'
p188
tp189
Rp190
ag49
(g53
S'"\x9e\x08\x1a\x88?\xd6?'
p191
tp192
Rp193
ag49
(g53
S'\xf2\xe7,22\x90\xd9?'
p194
tp195
Rp196
ag49
(g53
S'\xfb\x05Mw\xd0l\xcf?'
p197
tp198
Rp199
ag49
(g53
S'"\x9e\x08\x1a\x88?\xd6?'
p200
tp201
Rp202
ag49
(g53
S'\xfb\x05Mw\xd0l\xcf?'
p203
tp204
Rp205
ag49
(g53
S'\xa0l=\xb8*\x1a\xe4?'
p206
tp207
Rp208
ag49
(g53
S't\x02\x9f\xd85\xa3\xc4?'
p209
tp210
Rp211
ag49
(g53
S'"\x9e\x08\x1a\x88?\xd6?'
p212
tp213
Rp214
ag49
(g53
S'\xfb\x05Mw\xd0l\xcf?'
p215
tp216
Rp217
ag49
(g53
S'"\x9e\x08\x1a\x88?\xd6?'
p218
tp219
Rp220
ag49
(g53
S'\xfb\x05Mw\xd0l\xcf?'
p221
tp222
Rp223
ag49
(g53
S'"\x9e\x08\x1a\x88?\xd6?'
p224
tp225
Rp226
ag49
(g53
S'\xf2\xe7,22\x90\xd9?'
p227
tp228
Rp229
ag49
(g53
S'\xf4R\x07\xc6-)\xce?'
p230
tp231
Rp232
ag49
(g53
S'\xf2\xe7,22\x90\xd9?'
p233
tp234
Rp235
ag49
(g53
S'\xfb\x05Mw\xd0l\xcf?'
p236
tp237
Rp238
ag49
(g53
S'\xc2\x19=p\x00r\xe7?'
p239
tp240
Rp241
ag49
(g53
S'W\xc2\xbc\x83\x1e_\xe1?'
p242
tp243
Rp244
ag49
(g53
S'\xb9\xaeU\xdb\x1c\x88\xcf?'
p245
tp246
Rp247
ag49
(g53
S'\xf4R\x07\xc6-)\xce?'
p248
tp249
Rp250
ag49
(g53
S'\xfb\x05Mw\xd0l\xcf?'
p251
tp252
Rp253
ag49
(g53
S'\x13\x06U\x91\x08\xf0\xb1?'
p254
tp255
Rp256
ag49
(g53
S'\xf2\xe7,22\x90\xd9?'
p257
tp258
Rp259
ag49
(g53
S'\xfb\x05Mw\xd0l\xcf?'
p260
tp261
Rp262
ag49
(g53
S'\x13\x06U\x91\x08\xf0\xb1?'
p263
tp264
Rp265
ag49
(g53
S't\x02\x9f\xd85\xa3\xc4?'
p266
tp267
Rp268
ag49
(g53
S'"\x9e\x08\x1a\x88?\xd6?'
p269
tp270
Rp271
ag49
(g53
S'\xfb\x05Mw\xd0l\xcf?'
p272
tp273
Rp274
ag49
(g53
S'\xa0l=\xb8*\x1a\xe4?'
p275
tp276
Rp277
ag49
(g53
S't\x02\x9f\xd85\xa3\xc4?'
p278
tp279
Rp280
ag49
(g53
S'\x13\x06U\x91\x08\xf0\xb1?'
p281
tp282
Rp283
ag49
(g53
S'\xfb\x05Mw\xd0l\xcf?'
p284
tp285
Rp286
ag49
(g53
S'\xa0l=\xb8*\x1a\xe4?'
p287
tp288
Rp289
ag49
(g53
S'\xb9\xaeU\xdb\x1c\x88\xcf?'
p290
tp291
Rp292
ag49
(g53
S'\xfb\x05Mw\xd0l\xcf?'
p293
tp294
Rp295
ag49
(g53
S'\x13\x06U\x91\x08\xf0\xb1?'
p296
tp297
Rp298
asS'sp'
p299
(lp300
(S'p0'
p301
I0
S'x'
p302
tp303
a(g301
I0
S'y'
p304
tp305
a(g301
I0
S't'
p306
tp307
a(g301
I0
g304
tp308
ag307
a(g301
I0
g306
tp309
ag308
a(S'p1'
p310
I0
g304
tp311
a(g310
I0
g302
tp312
a(g310
I0
g304
tp313
ag312
ag313
a(g310
I0
g304
tp314
a(g310
I0
g304
tp315
ag312
ag313
ag315
ag315
a(g310
I0
g306
tp316
a(g310
I0
g304
tp317
ag314
ag312
a(S'p2'
p318
I0
g302
tp319
a(g318
I0
g302
tp320
a(g318
I0
g306
tp321
a(g318
I0
g302
tp322
ag321
ag322
ag320
ag321
a(g318
F1.5707963267948966
g306
tp323
a(g318
F1.5707963267948966
g302
tp324
a(g318
F1.5707963267948966
g306
tp325
a(g318
F1.5707963267948966
g306
tp326
a(g318
F1.5707963267948966
g304
tp327
a(g318
F1.5707963267948966
g302
tp328
a(g318
F1.5707963267948966
g302
tp329
a(g318
F1.5707963267948966
g304
tp330
a(g310
F1.5707963267948966
g304
tp331
a(g310
F1.5707963267948966
g302
tp332
a(g301
F1.5707963267948966
g302
tp333
a(g301
F1.5707963267948966
g304
tp334
a(g310
F1.5707963267948966
g304
tp335
a(g310
F1.5707963267948966
g304
tp336
ag332
a(g310
F1.5707963267948966
g304
tp337
a(g310
F1.5707963267948966
g304
tp338
ag332
ag337
ag332
a(g310
F1.5707963267948966
g306
tp339
a(g310
F1.5707963267948966
g302
tp340
ag337
ag332
ag337
ag332
ag337
ag338
ag336
ag338
ag332
ag333
a(g301
F1.5707963267948966
g302
tp341
a(g301
F1.5707963267948966
g306
tp342
a(g301
F1.5707963267948966
g306
tp343
a(g301
F1.5707963267948966
g304
tp344
ag335
ag338
ag332
a(g318
F1.5707963267948966
g302
tp345
ag330
a(g318
F1.5707963267948966
g306
tp346
ag327
ag328
ag330
a(S'p3'
p347
F1.5707963267948966
g304
tp348
a(g347
F1.5707963267948966
g302
tp349
a(g347
F1.5707963267948966
g306
tp350
a(g347
F1.5707963267948966
g304
tp351
ag349
a(S'p4'
p352
F1.5707963267948966
g302
tp353
asS's'
p354
(lp355
(g301
I0
g22
tp356
ag303
ag305
ag307
ag308
ag307
ag309
ag308
ag311
ag312
ag313
ag312
ag313
ag314
ag315
ag312
ag313
ag315
ag315
ag316
ag317
ag314
ag312
ag319
ag320
ag321
ag322
ag321
ag322
ag320
ag321
ag323
ag324
ag325
ag326
ag327
ag328
ag329
ag330
ag331
ag332
ag333
ag334
ag335
ag336
ag332
ag337
ag338
ag332
ag337
ag332
ag339
ag340
ag337
ag332
ag337
ag332
ag337
ag338
ag336
ag338
ag332
ag333
ag341
ag342
ag343
ag344
ag335
ag338
ag332
ag345
ag330
ag346
ag327
ag328
ag330
ag348
ag349
ag350
ag351
ag349
asS'ui'
p357
(lp358
S'ss'
p359
aS'hp'
p360
ag360
aS'hs'
p361
ag360
ag299
ag361
ag299
ag361
ag360
ag361
ag360
ag299
ag299
ag361
ag360
ag299
ag299
ag299
ag361
ag359
ag361
ag299
ag299
ag361
ag360
ag361
ag299
ag299
ag361
ag299
ag360
ag361
ag299
ag361
ag299
ag359
ag360
ag359
ag361
ag359
ag360
ag299
ag299
ag361
ag360
ag359
ag361
ag360
ag361
ag361
ag360
ag360
ag361
ag360
ag361
ag359
ag359
ag299
ag299
ag361
ag359
ag359
ag361
ag299
ag361
ag299
ag359
ag361
ag299
ag360
ag360
ag361
ag361
ag360
ag299
ag361
ag361
ag361
ag361
ag299
asS'um_before'
p362
(lp363
g359
ag360
ag360
ag361
ag360
ag299
ag361
ag299
ag361
ag360
ag361
ag360
ag359
ag299
ag361
ag360
ag299
ag299
ag360
ag361
ag359
ag361
ag299
ag299
ag361
ag360
ag361
ag360
ag299
ag361
ag299
ag360
ag361
ag299
ag361
ag361
ag359
ag360
ag359
ag361
ag359
ag360
ag299
ag299
ag361
ag360
ag359
ag361
ag360
ag361
ag361
ag360
ag360
ag361
ag360
ag361
ag360
ag359
ag299
ag359
ag361
ag359
ag359
ag361
ag299
ag361
ag299
ag359
ag361
ag299
ag360
ag360
ag361
ag361
ag360
ag299
ag361
ag361
ag361
ag361
ag299
asS'um_after'
p364
(lp365
g359
ag360
ag360
ag361
ag360
ag299
ag361
ag299
ag361
ag360
ag361
ag360
ag359
ag299
ag361
ag360
ag299
ag299
ag360
ag361
ag359
ag361
ag299
ag299
ag361
ag360
ag361
ag360
ag299
ag361
ag299
ag360
ag361
ag299
ag361
ag361
ag359
ag360
ag359
ag361
ag359
ag360
ag299
ag299
ag361
ag360
ag359
ag361
ag360
ag361
ag361
ag360
ag360
ag361
ag360
ag361
ag360
ag359
ag299
ag359
ag361
ag359
ag359
ag361
ag299
ag361
ag299
ag359
ag361
ag299
ag360
ag360
ag361
ag361
ag360
ag299
ag361
ag361
ag361
ag361
ag299
asS'is_normalized_entropy_less_than_threshold'
p366
(lp367
g49
(g50
(S'b1'
p368
I0
I1
tp369
Rp370
(I3
S'|'
p371
NNNI-1
I-1
I0
tp372
bS'\x00'
p373
tp374
Rp375
ag49
(g370
S'\x01'
p376
tp377
Rp378
ag378
ag378
ag378
ag378
ag378
ag378
ag378
ag378
ag378
ag378
ag378
ag378
ag378
ag378
ag378
ag378
ag378
ag378
ag378
ag378
ag378
ag378
ag378
ag378
ag378
ag378
ag378
ag378
ag378
ag378
ag378
ag378
ag378
ag375
ag375
ag378
ag375
ag378
ag375
ag378
ag378
ag378
ag378
ag378
ag378
ag378
ag378
ag378
ag375
ag378
ag378
ag378
ag378
ag378
ag378
ag378
ag378
ag378
ag378
ag375
ag375
ag378
ag378
ag378
ag378
ag378
ag378
ag378
ag378
ag378
ag378
ag375
ag378
ag378
ag378
ag375
ag378
ag378
ag378
asaa(lp379
S'index'
p380
aI24607
aatp381
Rp382
.