ccollections
OrderedDict
p0
((lp1
(lp2
S'combination_dict'
p3
ag0
((lp4
(lp5
S'r_to_g_config'
p6
aS'tl'
p7
aa(lp8
S'num_turns'
p9
aI2
aa(lp10
S'start_direction'
p11
acutils_ms
StartDirection
p12
(I0
tp13
Rp14
aa(lp15
S'assistance_type'
p16
acutils_ms
AssistanceType
p17
(I0
tp18
Rp19
aa(lp20
S'start_mode'
p21
aS't'
p22
aa(lp23
S'ui_given_a_noise'
p24
aF0.3
aa(lp25
S'um_given_ui_noise'
p26
aF0.3
aa(lp27
S'entropy_threshold'
p28
aF0.8
aatp29
Rp30
aa(lp31
S'data'
p32
accollections
defaultdict
p33
(c__builtin__
list
p34
tp35
Rp36
S'a'
p37
(lp38
S'mode_r'
p39
ag39
ag39
ag39
ag39
ag39
ag39
ag39
ag39
ag39
ag39
ag39
ag39
ag39
ag39
ag39
ag39
ag39
ag39
ag39
ag39
ag39
ag39
ag39
ag39
aS'move_n'
p40
ag40
aS'mode_l'
p41
ag41
aS'move_p'
p42
ag41
ag41
ag41
ag42
ag41
ag40
ag40
ag40
asS'assistance_match_with_ground_truth'
p43
(lp44
I00
aI00
aI00
aI00
aI00
aI00
aI00
aI00
aI00
aI00
aI00
aI00
aI00
aI00
aI00
aI00
aI00
aI00
aI00
aI00
aI00
aI00
aI00
aI00
aI01
aI00
aI01
aI00
aI01
aI01
aI00
aI00
aI01
aI01
aI01
aI00
aI00
aI01
asS'is_u_intended_equals_um'
p45
(lp46
I01
aI01
aI01
aI00
aI01
aI00
aI01
aI01
aI01
aI01
aI01
aI00
aI01
aI01
aI01
aI01
aI00
aI00
aI00
aI01
aI01
aI01
aI01
aI01
aI01
aI01
aI01
aI00
aI01
aI01
aI01
aI01
aI01
aI01
aI01
aI00
aI00
aI01
asS'total_steps'
p47
I38
sS'normalized_h_of_p_ui_given_um'
p48
(lp49
cnumpy.core.multiarray
scalar
p50
(cnumpy
dtype
p51
(S'f8'
p52
I0
I1
tp53
Rp54
(I3
S'<'
p55
NNNI-1
I-1
I0
tp56
bS'dq\xbbZ\x9c8\xe6?'
p57
tp58
Rp59
ag50
(g54
S'@X\xe5m\xa3O\xe4?'
p60
tp61
Rp62
ag50
(g54
S'@X\xe5m\xa3O\xe4?'
p63
tp64
Rp65
ag50
(g54
S'?t&\x16\x11\xff\xe1?'
p66
tp67
Rp68
ag50
(g54
S'dq\xbbZ\x9c8\xe6?'
p69
tp70
Rp71
ag50
(g54
S'?t&\x16\x11\xff\xe1?'
p72
tp73
Rp74
ag50
(g54
S'dq\xbbZ\x9c8\xe6?'
p75
tp76
Rp77
ag50
(g54
S'dq\xbbZ\x9c8\xe6?'
p78
tp79
Rp80
ag50
(g54
S'@X\xe5m\xa3O\xe4?'
p81
tp82
Rp83
ag50
(g54
S'@X\xe5m\xa3O\xe4?'
p84
tp85
Rp86
ag50
(g54
S'dq\xbbZ\x9c8\xe6?'
p87
tp88
Rp89
ag50
(g54
S'?t&\x16\x11\xff\xe1?'
p90
tp91
Rp92
ag50
(g54
S'@X\xe5m\xa3O\xe4?'
p93
tp94
Rp95
ag50
(g54
S'dq\xbbZ\x9c8\xe6?'
p96
tp97
Rp98
ag50
(g54
S'dq\xbbZ\x9c8\xe6?'
p99
tp100
Rp101
ag50
(g54
S'@X\xe5m\xa3O\xe4?'
p102
tp103
Rp104
ag50
(g54
S'?t&\x16\x11\xff\xe1?'
p105
tp106
Rp107
ag50
(g54
S'?t&\x16\x11\xff\xe1?'
p108
tp109
Rp110
ag50
(g54
S'?t&\x16\x11\xff\xe1?'
p111
tp112
Rp113
ag50
(g54
S'@X\xe5m\xa3O\xe4?'
p114
tp115
Rp116
ag50
(g54
S'@X\xe5m\xa3O\xe4?'
p117
tp118
Rp119
ag50
(g54
S'dq\xbbZ\x9c8\xe6?'
p120
tp121
Rp122
ag50
(g54
S'dq\xbbZ\x9c8\xe6?'
p123
tp124
Rp125
ag50
(g54
S'dq\xbbZ\x9c8\xe6?'
p126
tp127
Rp128
ag50
(g54
S'B\x01\x13G\xa5\\\xd1?'
p129
tp130
Rp131
ag50
(g54
S'\x9a!\xf6\x836\x8f\xe7?'
p132
tp133
Rp134
ag50
(g54
S'\xa1\x97\xef\xa9\xbb\xcd\xce?'
p135
tp136
Rp137
ag50
(g54
S'\xaf\xc3Y\x88Go\xe6?'
p138
tp139
Rp140
ag50
(g54
S'\x0e\x03\xae:i\x82\xc4?'
p141
tp142
Rp143
ag50
(g54
S'\x8e\xd5X}\x06Z\xbd?'
p144
tp145
Rp146
ag50
(g54
S'\tg\xf9\x01H\x98\xe1?'
p147
tp148
Rp149
ag50
(g54
S'\tg\xf9\x01H\x98\xe1?'
p150
tp151
Rp152
ag50
(g54
S'\x0e\x03\xae:i\x82\xc4?'
p153
tp154
Rp155
ag50
(g54
S'\x8e\xd5X}\x06Z\xbd?'
p156
tp157
Rp158
ag50
(g54
S'\x0e\x03\xae:i\x82\xc4?'
p159
tp160
Rp161
ag50
(g54
S'\x8e\x9dz\xebR\xd6\xe1?'
p162
tp163
Rp164
ag50
(g54
S'\x8e\x9dz\xebR\xd6\xe1?'
p165
tp166
Rp167
ag50
(g54
S'\xa1\x97\xef\xa9\xbb\xcd\xce?'
p168
tp169
Rp170
asS'sp'
p171
(lp172
(S'p0'
p173
I0
S't'
p174
tp175
a(g173
I0
g174
tp176
ag176
ag176
ag175
ag175
ag175
ag175
ag176
ag176
ag175
ag175
ag176
ag175
ag175
ag176
ag176
ag176
ag176
ag176
ag176
ag175
ag175
ag175
a(g173
I0
S'x'
p177
tp178
a(g173
I0
g177
tp179
a(S'p1'
p180
I0
g177
tp181
ag181
a(g180
I0
g174
tp182
a(g180
F1.5707963267948966
g174
tp183
a(g180
F1.5707963267948966
g174
tp184
ag184
a(g180
F1.5707963267948966
S'y'
p185
tp186
a(S'p2'
p187
F1.5707963267948966
g185
tp188
a(g187
F1.5707963267948966
g177
tp189
ag189
ag189
a(S'p3'
p190
F1.5707963267948966
g177
tp191
asS's'
p192
(lp193
(g173
I0
g22
tp194
ag175
ag176
ag176
ag176
ag175
ag175
ag175
ag175
ag176
ag176
ag175
ag175
ag176
ag175
ag175
ag176
ag176
ag176
ag176
ag176
ag176
ag175
ag175
ag175
ag178
ag179
ag181
ag181
ag182
ag183
ag184
ag184
ag186
ag188
ag189
ag189
ag189
asS'ui'
p195
(lp196
S'hp'
p197
ag171
ag197
ag197
aS'ss'
p198
ag197
ag197
ag198
ag197
ag197
ag198
ag197
ag171
ag197
ag198
ag171
ag197
ag197
ag197
ag171
ag197
ag198
ag197
ag197
ag197
ag198
ag198
aS'hs'
p199
ag199
ag171
ag171
ag171
ag199
ag171
ag199
ag198
ag198
ag198
asS'um_before'
p200
(lp201
g198
ag171
ag171
ag199
ag198
ag199
ag198
ag198
ag171
ag171
ag198
ag199
ag171
ag198
ag198
ag171
ag199
ag199
ag199
ag171
ag171
ag198
ag198
ag198
ag197
ag171
ag198
ag198
ag199
ag171
ag171
ag171
ag199
ag171
ag199
ag197
ag197
ag198
asS'um_after'
p202
(lp203
g198
ag171
ag171
aNag198
aNag198
ag198
ag171
ag171
ag198
aNag171
ag198
ag198
ag171
aNaNaNag171
ag171
ag198
ag198
ag198
ag197
ag171
ag198
aNag199
ag171
ag171
ag171
ag199
ag171
ag199
aNaNag198
asS'is_normalized_entropy_less_than_threshold'
p204
(lp205
g50
(g51
(S'b1'
p206
I0
I1
tp207
Rp208
(I3
S'|'
p209
NNNI-1
I-1
I0
tp210
bS'\x01'
p211
tp212
Rp213
ag213
ag213
ag213
ag213
ag213
ag213
ag213
ag213
ag213
ag213
ag213
ag213
ag213
ag213
ag213
ag213
ag213
ag213
ag213
ag213
ag213
ag213
ag213
ag213
ag213
ag213
ag213
ag213
ag213
ag213
ag213
ag213
ag213
ag213
ag213
ag213
ag213
asaa(lp214
S'index'
p215
aI38680
aatp216
Rp217
.