ccollections
OrderedDict
p0
((lp1
(lp2
S'combination_dict'
p3
ag0
((lp4
(lp5
S'r_to_g_config'
p6
aS'tr'
p7
aa(lp8
S'num_turns'
p9
aI2
aa(lp10
S'start_direction'
p11
acutils_ms
StartDirection
p12
(I0
tp13
Rp14
aa(lp15
S'assistance_type'
p16
acutils_ms
AssistanceType
p17
(I0
tp18
Rp19
aa(lp20
S'start_mode'
p21
aS'y'
p22
aa(lp23
S'ui_given_a_noise'
p24
aF0.1
aa(lp25
S'um_given_ui_noise'
p26
aF0.7
aa(lp27
S'entropy_threshold'
p28
aF0.7
aatp29
Rp30
aa(lp31
S'data'
p32
accollections
defaultdict
p33
(c__builtin__
list
p34
tp35
Rp36
S'a'
p37
(lp38
S'mode_l'
p39
aS'move_p'
p40
ag40
ag39
ag40
ag40
ag40
ag39
ag40
ag40
ag40
ag40
ag39
ag40
ag40
asS'assistance_match_with_ground_truth'
p41
(lp42
I01
aI00
aI01
aI01
aI00
aI00
aI01
aI01
aI00
aI00
aI00
aI01
aI01
aI00
aI01
asS'is_u_intended_equals_um'
p43
(lp44
I01
aI00
aI01
aI01
aI00
aI00
aI01
aI01
aI00
aI00
aI00
aI01
aI01
aI00
aI01
asS'total_steps'
p45
I15
sS'normalized_h_of_p_ui_given_um'
p46
(lp47
cnumpy.core.multiarray
scalar
p48
(cnumpy
dtype
p49
(S'f8'
p50
I0
I1
tp51
Rp52
(I3
S'<'
p53
NNNI-1
I-1
I0
tp54
bS'\xacZ\xe9 \x98U\xd0?'
p55
tp56
Rp57
ag48
(g52
S'@\x8c\xfd\xc8\x84L\xc6?'
p58
tp59
Rp60
ag48
(g52
S'\x04\x97v\x10\rA\xbb?'
p61
tp62
Rp63
ag48
(g52
S'\xacZ\xe9 \x98U\xd0?'
p64
tp65
Rp66
ag48
(g52
S'F\xd4m\\\x04.\xd2?'
p67
tp68
Rp69
ag48
(g52
S'@\x8c\xfd\xc8\x84L\xc6?'
p70
tp71
Rp72
ag48
(g52
S'\x04\x97v\x10\rA\xbb?'
p73
tp74
Rp75
ag48
(g52
S'\xacZ\xe9 \x98U\xd0?'
p76
tp77
Rp78
ag48
(g52
S'@\x8c\xfd\xc8\x84L\xc6?'
p79
tp80
Rp81
ag48
(g52
S'F\xd4m\\\x04.\xd2?'
p82
tp83
Rp84
ag48
(g52
S'@\x8c\xfd\xc8\x84L\xc6?'
p85
tp86
Rp87
ag48
(g52
S'\x04\x97v\x10\rA\xbb?'
p88
tp89
Rp90
ag48
(g52
S'\xacZ\xe9 \x98U\xd0?'
p91
tp92
Rp93
ag48
(g52
S'@\x8c\xfd\xc8\x84L\xc6?'
p94
tp95
Rp96
ag48
(g52
S'\x04\x97v\x10\rA\xbb?'
p97
tp98
Rp99
asS'sp'
p100
(lp101
(S'p0'
p102
I0
S'x'
p103
tp104
ag104
a(S'p1'
p105
I0
g103
tp106
a(g105
I0
S't'
p107
tp108
ag108
ag108
a(g105
F1.5707963267948966
g107
tp109
a(g105
F1.5707963267948966
S'y'
p110
tp111
ag111
ag111
ag111
a(S'p2'
p112
F1.5707963267948966
g110
tp113
a(g112
F1.5707963267948966
g103
tp114
ag114
a(S'p3'
p115
F1.5707963267948966
g103
tp116
asS's'
p117
(lp118
(g102
I0
g22
tp119
ag104
ag104
ag106
ag108
ag108
ag108
ag109
ag111
ag111
ag111
ag111
ag113
ag114
ag114
asS'ui'
p120
(lp121
S'hs'
p122
ag100
ag100
ag122
ag100
aS'ss'
p123
ag100
ag122
ag123
ag100
ag100
ag100
ag122
ag100
ag100
asS'um_before'
p124
(lp125
g122
ag122
ag100
ag122
ag123
ag122
ag100
ag122
ag122
ag123
ag122
ag100
ag122
ag122
ag100
asS'um_after'
p126
(lp127
g122
aNag100
ag122
aNaNag100
ag122
aNaNaNag100
ag122
aNag100
asS'is_normalized_entropy_less_than_threshold'
p128
(lp129
g48
(g49
(S'b1'
p130
I0
I1
tp131
Rp132
(I3
S'|'
p133
NNNI-1
I-1
I0
tp134
bS'\x01'
p135
tp136
Rp137
ag137
ag137
ag137
ag137
ag137
ag137
ag137
ag137
ag137
ag137
ag137
ag137
ag137
ag137
asaa(lp138
S'index'
p139
aI10578
aatp140
Rp141
.