ccollections
OrderedDict
p0
((lp1
(lp2
S'combination_dict'
p3
ag0
((lp4
(lp5
S'r_to_g_config'
p6
aS'bl'
p7
aa(lp8
S'num_turns'
p9
aI3
aa(lp10
S'start_direction'
p11
acutils_ms
StartDirection
p12
(I1
tp13
Rp14
aa(lp15
S'assistance_type'
p16
acutils_ms
AssistanceType
p17
(I0
tp18
Rp19
aa(lp20
S'start_mode'
p21
aS'x'
p22
aa(lp23
S'ui_given_a_noise'
p24
aF0.7
aa(lp25
S'um_given_ui_noise'
p26
aF0.7
aa(lp27
S'entropy_threshold'
p28
aF0.9
aatp29
Rp30
aa(lp31
S'data'
p32
accollections
defaultdict
p33
(c__builtin__
list
p34
tp35
Rp36
S'a'
p37
(lp38
S'mode_r'
p39
aS'move_n'
p40
ag39
aS'move_p'
p41
ag39
ag39
aS'mode_l'
p42
ag39
ag40
ag39
ag39
ag39
ag40
ag42
ag39
ag39
ag40
ag39
ag40
ag42
ag42
ag39
ag40
ag39
ag40
ag42
ag40
ag39
ag39
ag39
ag42
ag42
ag39
ag42
ag42
ag42
ag42
ag40
ag40
ag39
ag40
ag42
ag40
ag40
asS'assistance_match_with_ground_truth'
p43
(lp44
I01
aI01
aI01
aI01
aI00
aI00
aI00
aI01
aI01
aI00
aI00
aI01
aI01
aI00
aI00
aI01
aI00
aI01
aI00
aI00
aI00
aI01
aI01
aI01
aI00
aI01
aI01
aI00
aI00
aI00
aI00
aI00
aI00
aI00
aI00
aI00
aI01
aI00
aI00
aI01
aI01
aI01
aI00
aI01
asS'is_u_intended_equals_um'
p45
(lp46
I01
aI01
aI01
aI01
aI00
aI01
aI01
aI01
aI01
aI00
aI00
aI01
aI01
aI01
aI00
aI01
aI01
aI01
aI01
aI00
aI01
aI01
aI01
aI01
aI01
aI01
aI01
aI00
aI00
aI01
aI01
aI01
aI01
aI01
aI01
aI00
aI01
aI00
aI01
aI01
aI01
aI01
aI00
aI01
asS'total_steps'
p47
I44
sS'normalized_h_of_p_ui_given_um'
p48
(lp49
cnumpy.core.multiarray
scalar
p50
(cnumpy
dtype
p51
(S'f8'
p52
I0
I1
tp53
Rp54
(I3
S'<'
p55
NNNI-1
I-1
I0
tp56
bS'x\xdf#\xb7\x8cT\xd8?'
p57
tp58
Rp59
ag50
(g54
S'\xc3\xaf\x82x\xa9\x8a\xe0?'
p60
tp61
Rp62
ag50
(g54
S'x\xdf#\xb7\x8cT\xd8?'
p63
tp64
Rp65
ag50
(g54
S'\xae$\x99\x08S%\xda?'
p66
tp67
Rp68
ag50
(g54
S'\xecnt\x7fg(\xea?'
p69
tp70
Rp71
ag50
(g54
S'\x93\xd4\x15\x88E\xfb\xe0?'
p72
tp73
Rp74
ag50
(g54
S'*\xf4\xaf\x888\xfc\xe9?'
p75
tp76
Rp77
ag50
(g54
S'x\xdf#\xb7\x8cT\xd8?'
p78
tp79
Rp80
ag50
(g54
S'\xc3\xaf\x82x\xa9\x8a\xe0?'
p81
tp82
Rp83
ag50
(g54
S'\xecnt\x7fg(\xea?'
p84
tp85
Rp86
ag50
(g54
S'$\x9f\xe3G)\xca\xe0?'
p87
tp88
Rp89
ag50
(g54
S'x\xdf#\xb7\x8cT\xd8?'
p90
tp91
Rp92
ag50
(g54
S'\xc3\xaf\x82x\xa9\x8a\xe0?'
p93
tp94
Rp95
ag50
(g54
S'*\xf4\xaf\x888\xfc\xe9?'
p96
tp97
Rp98
ag50
(g54
S'\xecnt\x7fg(\xea?'
p99
tp100
Rp101
ag50
(g54
S'x\xdf#\xb7\x8cT\xd8?'
p102
tp103
Rp104
ag50
(g54
S'\xfe\xd8\xb2\xb4\xcd_\xeb?'
p105
tp106
Rp107
ag50
(g54
S'x\xdf#\xb7\x8cT\xd8?'
p108
tp109
Rp110
ag50
(g54
S'\xfe\xd8\xb2\xb4\xcd_\xeb?'
p111
tp112
Rp113
ag50
(g54
S')\xac\xdc\xd5\xe0?\xea?'
p114
tp115
Rp116
ag50
(g54
S'*\xf4\xaf\x888\xfc\xe9?'
p117
tp118
Rp119
ag50
(g54
S'x\xdf#\xb7\x8cT\xd8?'
p120
tp121
Rp122
ag50
(g54
S'\xc3\xaf\x82x\xa9\x8a\xe0?'
p123
tp124
Rp125
ag50
(g54
S'x\xdf#\xb7\x8cT\xd8?'
p126
tp127
Rp128
ag50
(g54
S'\xfe\xd8\xb2\xb4\xcd_\xeb?'
p129
tp130
Rp131
ag50
(g54
S'\xfc\x83\xfc\x1c\xb42\xd6?'
p132
tp133
Rp134
ag50
(g54
S'\xc3\xaf\x82x\xa9\x8a\xe0?'
p135
tp136
Rp137
ag50
(g54
S'$\x9f\xe3G)\xca\xe0?'
p138
tp139
Rp140
ag50
(g54
S'$\x9f\xe3G)\xca\xe0?'
p141
tp142
Rp143
ag50
(g54
S'\x93\xd4\x15\x88E\xfb\xe0?'
p144
tp145
Rp146
ag50
(g54
S'\x8c\xc5\x04\xe5\xafG\xe6?'
p147
tp148
Rp149
ag50
(g54
S'*\xf4\xaf\x888\xfc\xe9?'
p150
tp151
Rp152
ag50
(g54
S'\x93\xd4\x15\x88E\xfb\xe0?'
p153
tp154
Rp155
ag50
(g54
S'\x8c\xc5\x04\xe5\xafG\xe6?'
p156
tp157
Rp158
ag50
(g54
S'\x8c\xc5\x04\xe5\xafG\xe6?'
p159
tp160
Rp161
ag50
(g54
S')\xac\xdc\xd5\xe0?\xea?'
p162
tp163
Rp164
ag50
(g54
S'\xfc\x83\xfc\x1c\xb42\xd6?'
p165
tp166
Rp167
ag50
(g54
S'\xa0p\x17\xc07u\xeb?'
p168
tp169
Rp170
ag50
(g54
S'6\xb590\x19u\xe7?'
p171
tp172
Rp173
ag50
(g54
S'x\xdf#\xb7\x8cT\xd8?'
p174
tp175
Rp176
ag50
(g54
S'\xc3\xaf\x82x\xa9\x8a\xe0?'
p177
tp178
Rp179
ag50
(g54
S'\xfc\x83\xfc\x1c\xb42\xd6?'
p180
tp181
Rp182
ag50
(g54
S'\xa0p\x17\xc07u\xeb?'
p183
tp184
Rp185
ag50
(g54
S'\xc3\xaf\x82x\xa9\x8a\xe0?'
p186
tp187
Rp188
asS'sp'
p189
(lp190
(S'p0'
p191
I0
S'y'
p192
tp193
a(S'p1'
p194
I0
g192
tp195
a(g194
I0
S't'
p196
tp197
a(g194
F1.5707963267948966
g196
tp198
ag198
a(g194
F1.5707963267948966
g192
tp199
a(g194
F1.5707963267948966
g196
tp200
a(g194
F1.5707963267948966
S'x'
p201
tp202
a(S'p2'
p203
F1.5707963267948966
g201
tp204
ag204
ag204
a(g203
F1.5707963267948966
g192
tp205
a(S'p3'
p206
F1.5707963267948966
g192
tp207
a(g206
F1.5707963267948966
g196
tp208
ag208
a(g206
F1.5707963267948966
g201
tp209
a(g203
F1.5707963267948966
g201
tp210
ag205
a(g194
F1.5707963267948966
g192
tp211
ag211
ag200
ag202
ag204
ag205
ag211
a(g194
F1.5707963267948966
g201
tp212
ag204
ag204
ag204
a(g203
F1.5707963267948966
g196
tp213
a(g203
F1.5707963267948966
g196
tp214
a(g203
F1.5707963267948966
g201
tp215
ag213
ag214
ag214
ag214
a(g203
F1.5707963267948966
g192
tp216
ag216
a(g203
F1.5707963267948966
g201
tp217
ag205
ag207
a(g206
F1.5707963267948966
g201
tp218
ag218
a(S'p4'
p219
F1.5707963267948966
g201
tp220
asS's'
p221
(lp222
(g191
I0
g22
tp223
ag193
ag195
ag197
ag198
ag198
ag199
ag200
ag202
ag204
ag204
ag204
ag205
ag207
ag208
ag208
ag209
ag210
ag205
ag211
ag211
ag200
ag202
ag204
ag205
ag211
ag212
ag204
ag204
ag204
ag213
ag214
ag215
ag213
ag214
ag214
ag214
ag216
ag216
ag217
ag205
ag207
ag218
ag218
asS'ui'
p224
(lp225
S'hp'
p226
aS'ss'
p227
ag189
ag189
ag227
aS'hs'
p228
ag228
ag226
ag227
ag226
ag226
ag226
ag226
ag228
ag227
ag226
ag189
ag226
ag189
ag227
ag228
ag226
ag227
ag226
ag228
ag228
ag227
ag189
ag226
ag228
ag227
ag227
ag226
ag227
ag227
ag226
ag228
ag227
ag228
ag228
ag227
ag228
ag226
ag227
asS'um_before'
p229
(lp230
g226
ag227
ag226
ag189
ag227
ag228
ag226
ag226
ag227
ag227
ag189
ag226
ag227
ag226
ag227
ag226
ag189
ag226
ag189
ag189
ag226
ag226
ag227
ag226
ag189
ag228
ag227
ag189
ag189
ag228
ag227
ag226
ag228
ag227
ag227
ag189
ag228
ag226
ag228
ag226
ag227
ag228
ag226
ag227
asS'um_after'
p231
(lp232
g226
ag227
ag226
ag189
aNag228
ag226
ag226
ag227
aNaNag226
ag227
ag226
aNag226
ag189
ag226
ag189
aNag226
ag226
ag227
ag226
ag189
ag228
ag227
aNaNag228
ag227
ag226
ag228
ag227
ag227
aNag228
aNag228
ag226
ag227
ag228
aNag227
asS'is_normalized_entropy_less_than_threshold'
p233
(lp234
g50
(g51
(S'b1'
p235
I0
I1
tp236
Rp237
(I3
S'|'
p238
NNNI-1
I-1
I0
tp239
bS'\x01'
p240
tp241
Rp242
ag242
ag242
ag242
ag242
ag242
ag242
ag242
ag242
ag242
ag242
ag242
ag242
ag242
ag242
ag242
ag242
ag242
ag242
ag242
ag242
ag242
ag242
ag242
ag242
ag242
ag242
ag242
ag242
ag242
ag242
ag242
ag242
ag242
ag242
ag242
ag242
ag242
ag242
ag242
ag242
ag242
ag242
ag242
asaa(lp243
S'index'
p244
aI82394
aatp245
Rp246
.