ccollections
OrderedDict
p0
((lp1
(lp2
S'combination_dict'
p3
ag0
((lp4
(lp5
S'r_to_g_config'
p6
aS'br'
p7
aa(lp8
S'num_turns'
p9
aI2
aa(lp10
S'start_direction'
p11
acutils_ms
StartDirection
p12
(I1
tp13
Rp14
aa(lp15
S'assistance_type'
p16
acutils_ms
AssistanceType
p17
(I1
tp18
Rp19
aa(lp20
S'start_mode'
p21
aS't'
p22
aa(lp23
S'ui_given_a_noise'
p24
aF0.5
aa(lp25
S'um_given_ui_noise'
p26
aF0.7
aa(lp27
S'entropy_threshold'
p28
aF0.5
aatp29
Rp30
aa(lp31
S'data'
p32
accollections
defaultdict
p33
(c__builtin__
list
p34
tp35
Rp36
S'a'
p37
(lp38
S'mode_l'
p39
aS'mode_r'
p40
ag40
ag40
aS'move_n'
p41
ag41
ag39
ag39
ag39
ag40
ag40
aS'move_p'
p42
ag39
ag40
ag40
ag39
ag39
ag40
ag40
ag40
ag40
ag40
ag42
ag39
ag39
ag40
ag39
ag40
ag40
ag40
ag40
ag42
ag39
ag39
ag40
ag39
ag40
ag39
ag42
ag39
ag40
asS'assistance_match_with_ground_truth'
p43
(lp44
I00
aI00
aI00
aI01
aI00
aI01
aI00
aI00
aI00
aI00
aI01
aI00
aI00
aI00
aI00
aI00
aI00
aI00
aI00
aI00
aI00
aI01
aI01
aI00
aI00
aI00
aI00
aI00
aI00
aI00
aI01
aI01
aI00
aI00
aI00
aI00
aI00
aI01
aI00
aI00
aI00
asS'is_u_intended_equals_um'
p45
(lp46
I00
aI01
aI01
aI01
aI00
aI01
aI00
aI00
aI00
aI01
aI01
aI01
aI00
aI01
aI00
aI00
aI00
aI01
aI01
aI01
aI01
aI01
aI01
aI00
aI00
aI01
aI00
aI01
aI01
aI01
aI01
aI01
aI00
aI00
aI00
aI00
aI00
aI01
aI01
aI00
aI01
asS'total_steps'
p47
I41
sS'normalized_h_of_p_ui_given_um'
p48
(lp49
cnumpy.core.multiarray
scalar
p50
(cnumpy
dtype
p51
(S'f8'
p52
I0
I1
tp53
Rp54
(I3
S'<'
p55
NNNI-1
I-1
I0
tp56
bS'\x8b\x97\xef\xa3\x9b\xf0\xe7?'
p57
tp58
Rp59
ag50
(g54
S'\xe6=A\xad\x83N\xed?'
p60
tp61
Rp62
ag50
(g54
S'\xe6=A\xad\x83N\xed?'
p63
tp64
Rp65
ag50
(g54
S'\x1c\x99O\xee\xd8\xcf\xe1?'
p66
tp67
Rp68
ag50
(g54
S'\xc9\xd6\xc1/\x02r\xe5?'
p69
tp70
Rp71
ag50
(g54
S'\x1fU\xfb\xc4@\xdd\xd0?'
p72
tp73
Rp74
ag50
(g54
S'\xa8\xe6\xc3`p\xb6\xe4?'
p75
tp76
Rp77
ag50
(g54
S'\xa8\xe6\xc3`p\xb6\xe4?'
p78
tp79
Rp80
ag50
(g54
S'\x8b\x97\xef\xa3\x9b\xf0\xe7?'
p81
tp82
Rp83
ag50
(g54
S'\xe6=A\xad\x83N\xed?'
p84
tp85
Rp86
ag50
(g54
S'\x1c\x99O\xee\xd8\xcf\xe1?'
p87
tp88
Rp89
ag50
(g54
S'\x01\xc9\xa2\nN\xee\xe8?'
p90
tp91
Rp92
ag50
(g54
S'\x8b\x97\xef\xa3\x9b\xf0\xe7?'
p93
tp94
Rp95
ag50
(g54
S'\xe6=A\xad\x83N\xed?'
p96
tp97
Rp98
ag50
(g54
S'u)O\x9b\xceE\xed?'
p99
tp100
Rp101
ag50
(g54
S'\xa8\xe6\xc3`p\xb6\xe4?'
p102
tp103
Rp104
ag50
(g54
S'\x8b\x97\xef\xa3\x9b\xf0\xe7?'
p105
tp106
Rp107
ag50
(g54
S'\xcc{\xfaD\xf6\xac\xec?'
p108
tp109
Rp110
ag50
(g54
S'\xe6=A\xad\x83N\xed?'
p111
tp112
Rp113
ag50
(g54
S'\xcc{\xfaD\xf6\xac\xec?'
p114
tp115
Rp116
ag50
(g54
S'\xe6=A\xad\x83N\xed?'
p117
tp118
Rp119
ag50
(g54
S'\x1c\x99O\xee\xd8\xcf\xe1?'
p120
tp121
Rp122
ag50
(g54
S'\x9d\xb9\x86\xebV\x9e\xe1?'
p123
tp124
Rp125
ag50
(g54
S'\xa8\xe6\xc3`p\xb6\xe4?'
p126
tp127
Rp128
ag50
(g54
S'\x8b\x97\xef\xa3\x9b\xf0\xe7?'
p129
tp130
Rp131
ag50
(g54
S'\xe6=A\xad\x83N\xed?'
p132
tp133
Rp134
ag50
(g54
S'\x8b\x97\xef\xa3\x9b\xf0\xe7?'
p135
tp136
Rp137
ag50
(g54
S'\xe6=A\xad\x83N\xed?'
p138
tp139
Rp140
ag50
(g54
S'\xcc{\xfaD\xf6\xac\xec?'
p141
tp142
Rp143
ag50
(g54
S'\xe6=A\xad\x83N\xed?'
p144
tp145
Rp146
ag50
(g54
S'\x1c\x99O\xee\xd8\xcf\xe1?'
p147
tp148
Rp149
ag50
(g54
S'\x9d\xb9\x86\xebV\x9e\xe1?'
p150
tp151
Rp152
ag50
(g54
S'\xa8\xe6\xc3`p\xb6\xe4?'
p153
tp154
Rp155
ag50
(g54
S'\x8b\x97\xef\xa3\x9b\xf0\xe7?'
p156
tp157
Rp158
ag50
(g54
S'u)O\x9b\xceE\xed?'
p159
tp160
Rp161
ag50
(g54
S'\x8b\x97\xef\xa3\x9b\xf0\xe7?'
p162
tp163
Rp164
ag50
(g54
S'u)O\x9b\xceE\xed?'
p165
tp166
Rp167
ag50
(g54
S'\xce\xc3+6\x8c:\xdd?'
p168
tp169
Rp170
ag50
(g54
S'\x01\xc9\xa2\nN\xee\xe8?'
p171
tp172
Rp173
ag50
(g54
S'\x8b\x97\xef\xa3\x9b\xf0\xe7?'
p174
tp175
Rp176
ag50
(g54
S'\xcc{\xfaD\xf6\xac\xec?'
p177
tp178
Rp179
asS'sp'
p180
(lp181
(S'p0'
p182
I0
S'x'
p183
tp184
a(g182
I0
g183
tp185
ag185
a(g182
I0
S'y'
p186
tp187
a(g182
I0
g186
tp188
a(S'p1'
p189
I0
g186
tp190
a(g189
I0
g186
tp191
ag191
a(g189
I0
S't'
p192
tp193
a(g189
I0
g192
tp194
a(g189
I0
g183
tp195
a(g189
I0
g186
tp196
ag193
ag194
a(g189
I0
g186
tp197
ag191
ag193
a(g189
I0
g192
tp198
ag194
ag198
ag194
ag195
a(S'p2'
p199
I0
g183
tp200
a(g199
I0
g183
tp201
a(g199
I0
g186
tp202
a(g189
I0
g186
tp203
ag193
ag194
ag198
ag194
ag195
ag200
ag201
ag202
a(g199
I0
g183
tp204
ag202
ag204
a(g199
I0
g192
tp205
a(g199
I0
g183
tp206
ag202
a(S'p3'
p207
I0
g186
tp208
asS's'
p209
(lp210
(g182
I0
g22
tp211
ag184
ag185
ag185
ag187
ag188
ag190
ag191
ag191
ag193
ag194
ag195
ag196
ag193
ag194
ag197
ag191
ag193
ag198
ag194
ag198
ag194
ag195
ag200
ag201
ag202
ag203
ag193
ag194
ag198
ag194
ag195
ag200
ag201
ag202
ag204
ag202
ag204
ag205
ag206
ag202
asS'ui'
p212
(lp213
S'hs'
p214
aS'hp'
p215
ag180
ag215
aS'ss'
p216
ag216
ag216
ag216
ag215
ag180
ag215
ag180
ag214
ag180
ag214
ag214
ag214
ag216
ag180
ag216
ag216
ag180
ag180
ag216
ag214
ag180
ag214
ag180
ag216
ag215
ag215
ag180
ag214
ag214
ag215
ag214
ag214
ag214
ag215
ag214
ag216
asS'um_before'
p217
(lp218
g215
ag180
ag180
ag215
ag180
ag216
ag216
ag216
ag215
ag180
ag215
ag215
ag215
ag180
ag214
ag216
ag215
ag216
ag180
ag216
ag180
ag215
ag180
ag216
ag215
ag180
ag215
ag180
ag216
ag180
ag215
ag180
ag216
ag215
ag214
ag215
ag214
ag214
ag215
ag215
ag216
asS'um_after'
p219
(lp220
g215
ag180
ag180
ag215
ag180
ag216
ag216
ag216
ag215
ag180
ag215
ag215
ag215
ag180
ag214
ag216
ag215
ag216
ag180
ag216
ag180
ag215
ag180
ag216
ag215
ag180
ag215
ag180
ag216
ag180
ag215
ag180
ag216
ag215
ag214
ag215
ag214
ag214
ag215
ag215
ag216
asS'is_normalized_entropy_less_than_threshold'
p221
(lp222
g50
(g51
(S'b1'
p223
I0
I1
tp224
Rp225
(I3
S'|'
p226
NNNI-1
I-1
I0
tp227
bS'\x00'
p228
tp229
Rp230
ag230
ag230
ag230
ag230
ag50
(g225
S'\x01'
p231
tp232
Rp233
ag230
ag230
ag230
ag230
ag230
ag230
ag230
ag230
ag230
ag230
ag230
ag230
ag230
ag230
ag230
ag230
ag230
ag230
ag230
ag230
ag230
ag230
ag230
ag230
ag230
ag230
ag230
ag230
ag230
ag230
ag230
ag233
ag230
ag230
ag230
asaa(lp234
S'index'
p235
aI103752
aatp236
Rp237
.