ccollections
OrderedDict
p0
((lp1
(lp2
S'combination_dict'
p3
ag0
((lp4
(lp5
S'r_to_g_config'
p6
aS'tl'
p7
aa(lp8
S'num_turns'
p9
aI3
aa(lp10
S'start_direction'
p11
acutils_ms
StartDirection
p12
(I1
tp13
Rp14
aa(lp15
S'assistance_type'
p16
acutils_ms
AssistanceType
p17
(I0
tp18
Rp19
aa(lp20
S'start_mode'
p21
aS'x'
p22
aa(lp23
S'ui_given_a_noise'
p24
aF0.7
aa(lp25
S'um_given_ui_noise'
p26
aF0.7
aa(lp27
S'entropy_threshold'
p28
aF0.7
aatp29
Rp30
aa(lp31
S'data'
p32
accollections
defaultdict
p33
(c__builtin__
list
p34
tp35
Rp36
S'a'
p37
(lp38
S'mode_r'
p39
aS'move_p'
p40
aS'mode_l'
p41
ag41
ag39
ag41
ag39
aS'move_n'
p42
ag39
ag40
ag41
ag39
ag39
ag40
ag41
ag42
ag39
ag40
ag39
ag40
ag40
ag41
ag42
ag39
ag41
ag40
ag40
ag41
ag40
ag41
ag39
ag39
ag39
ag41
ag41
ag40
ag41
ag41
ag40
ag39
ag39
ag39
ag39
ag41
ag39
ag41
ag40
ag39
ag39
ag39
ag40
ag39
ag40
ag41
ag41
ag41
ag39
ag39
ag41
ag40
ag41
ag39
ag42
ag39
ag40
ag41
ag39
ag40
ag40
ag41
ag42
ag41
ag41
ag39
ag42
ag39
ag41
ag42
ag41
ag40
ag39
ag41
ag40
ag40
ag41
ag41
ag40
ag41
ag40
ag39
ag41
ag41
ag41
ag40
ag40
ag41
ag41
ag41
ag39
ag41
ag40
ag41
ag42
ag39
ag39
ag42
asS'assistance_match_with_ground_truth'
p43
(lp44
I01
aI01
aI00
aI00
aI00
aI00
aI01
aI00
aI01
aI00
aI00
aI00
aI01
aI01
aI01
aI00
aI01
aI00
aI01
aI00
aI01
aI01
aI00
aI00
aI01
aI00
aI00
aI01
aI00
aI00
aI00
aI00
aI00
aI00
aI01
aI00
aI00
aI01
aI00
aI00
aI00
aI00
aI00
aI00
aI00
aI01
aI00
aI00
aI00
aI01
aI00
aI01
aI00
aI00
aI00
aI00
aI00
aI00
aI01
aI01
aI00
aI01
aI00
aI01
aI00
aI00
aI01
aI00
aI01
aI01
aI00
aI00
aI00
aI01
aI00
aI00
aI01
aI01
aI01
aI00
aI00
aI01
aI00
aI01
aI00
aI00
aI00
aI01
aI00
aI00
aI00
aI00
aI01
aI00
aI01
aI00
aI00
aI00
aI00
aI01
aI01
aI01
aI00
aI00
aI01
aI01
asS'is_u_intended_equals_um'
p45
(lp46
I01
aI01
aI01
aI00
aI00
aI00
aI01
aI00
aI01
aI00
aI00
aI00
aI01
aI01
aI01
aI00
aI01
aI00
aI01
aI01
aI01
aI01
aI00
aI00
aI01
aI01
aI00
aI01
aI00
aI00
aI00
aI00
aI00
aI01
aI01
aI00
aI01
aI01
aI00
aI00
aI01
aI00
aI00
aI00
aI00
aI01
aI00
aI00
aI01
aI01
aI00
aI01
aI00
aI01
aI01
aI00
aI00
aI00
aI01
aI01
aI00
aI01
aI00
aI01
aI00
aI00
aI01
aI01
aI01
aI01
aI01
aI01
aI00
aI01
aI00
aI00
aI01
aI01
aI01
aI00
aI00
aI01
aI01
aI01
aI01
aI01
aI00
aI01
aI00
aI00
aI01
aI01
aI01
aI01
aI01
aI01
aI01
aI00
aI00
aI01
aI01
aI01
aI00
aI00
aI01
aI01
asS'total_steps'
p47
I106
sS'normalized_h_of_p_ui_given_um'
p48
(lp49
cnumpy.core.multiarray
scalar
p50
(cnumpy
dtype
p51
(S'f8'
p52
I0
I1
tp53
Rp54
(I3
S'<'
p55
NNNI-1
I-1
I0
tp56
bS'MF\x08\x11\xf5\xd7\xe4?'
p57
tp58
Rp59
ag50
(g54
S'\xb4\xb9\x16\xbc0Q\xe6?'
p60
tp61
Rp62
ag50
(g54
S'2\x9a\xc0\xd0H\xca\xed?'
p63
tp64
Rp65
ag50
(g54
S'\xcdc\xf3\x81\xe6\xf9\xeb?'
p66
tp67
Rp68
ag50
(g54
S'\x89\xa0\x8b\xc2\xf1B\xeb?'
p69
tp70
Rp71
ag50
(g54
S'\xcdc\xf3\x81\xe6\xf9\xeb?'
p72
tp73
Rp74
ag50
(g54
S'MF\x08\x11\xf5\xd7\xe4?'
p75
tp76
Rp77
ag50
(g54
S'8\x8e{+\t\\\xe7?'
p78
tp79
Rp80
ag50
(g54
S'MF\x08\x11\xf5\xd7\xe4?'
p81
tp82
Rp83
ag50
(g54
S'\xde\x1cs\x8dZ\x10\xee?'
p84
tp85
Rp86
ag50
(g54
S'\xcdc\xf3\x81\xe6\xf9\xeb?'
p87
tp88
Rp89
ag50
(g54
S'"\xcb\xc0\xeb\xe2\xe5\xe9?'
p90
tp91
Rp92
ag50
(g54
S'MF\x08\x11\xf5\xd7\xe4?'
p93
tp94
Rp95
ag50
(g54
S'\xb4\xb9\x16\xbc0Q\xe6?'
p96
tp97
Rp98
ag50
(g54
S'\xc9\xcdw\x10c\xd3\xe9?'
p99
tp100
Rp101
ag50
(g54
S'8\x8e{+\t\\\xe7?'
p102
tp103
Rp104
ag50
(g54
S'MF\x08\x11\xf5\xd7\xe4?'
p105
tp106
Rp107
ag50
(g54
S'^]\xd0L:5\xee?'
p108
tp109
Rp110
ag50
(g54
S'MF\x08\x11\xf5\xd7\xe4?'
p111
tp112
Rp113
ag50
(g54
S'Fu64\x80\xa0\xeb?'
p114
tp115
Rp116
ag50
(g54
S'\xb4\xb9\x16\xbc0Q\xe6?'
p117
tp118
Rp119
ag50
(g54
S'\xc9\xcdw\x10c\xd3\xe9?'
p120
tp121
Rp122
ag50
(g54
S'8\x8e{+\t\\\xe7?'
p123
tp124
Rp125
ag50
(g54
S'\x89\xa0\x8b\xc2\xf1B\xeb?'
p126
tp127
Rp128
ag50
(g54
S'\xc9\xcdw\x10c\xd3\xe9?'
p129
tp130
Rp131
ag50
(g54
S'Fu64\x80\xa0\xeb?'
p132
tp133
Rp134
ag50
(g54
S'\xde\x1cs\x8dZ\x10\xee?'
p135
tp136
Rp137
ag50
(g54
S'\xc9\xcdw\x10c\xd3\xe9?'
p138
tp139
Rp140
ag50
(g54
S'\xde\x1cs\x8dZ\x10\xee?'
p141
tp142
Rp143
ag50
(g54
S'\xcdc\xf3\x81\xe6\xf9\xeb?'
p144
tp145
Rp146
ag50
(g54
S'"\xcb\xc0\xeb\xe2\xe5\xe9?'
p147
tp148
Rp149
ag50
(g54
S'"\xcb\xc0\xeb\xe2\xe5\xe9?'
p150
tp151
Rp152
ag50
(g54
S'\x89\xa0\x8b\xc2\xf1B\xeb?'
p153
tp154
Rp155
ag50
(g54
S'\xe0&\x08w":\xeb?'
p156
tp157
Rp158
ag50
(g54
S'\xc9\xcdw\x10c\xd3\xe9?'
p159
tp160
Rp161
ag50
(g54
S'\xde\x1cs\x8dZ\x10\xee?'
p162
tp163
Rp164
ag50
(g54
S'2\x9a\xc0\xd0H\xca\xed?'
p165
tp166
Rp167
ag50
(g54
S'\xc9\xcdw\x10c\xd3\xe9?'
p168
tp169
Rp170
ag50
(g54
S'^]\xd0L:5\xee?'
p171
tp172
Rp173
ag50
(g54
S'"\xcb\xc0\xeb\xe2\xe5\xe9?'
p174
tp175
Rp176
ag50
(g54
S'j(rg\x18\xf9\xeb?'
p177
tp178
Rp179
ag50
(g54
S'"\xcb\xc0\xeb\xe2\xe5\xe9?'
p180
tp181
Rp182
ag50
(g54
S'\x89\xa0\x8b\xc2\xf1B\xeb?'
p183
tp184
Rp185
ag50
(g54
S'\xcdc\xf3\x81\xe6\xf9\xeb?'
p186
tp187
Rp188
ag50
(g54
S'\x89\xa0\x8b\xc2\xf1B\xeb?'
p189
tp190
Rp191
ag50
(g54
S'\xc9\xcdw\x10c\xd3\xe9?'
p192
tp193
Rp194
ag50
(g54
S'^]\xd0L:5\xee?'
p195
tp196
Rp197
ag50
(g54
S'"\xcb\xc0\xeb\xe2\xe5\xe9?'
p198
tp199
Rp200
ag50
(g54
S'j(rg\x18\xf9\xeb?'
p201
tp202
Rp203
ag50
(g54
S'MF\x08\x11\xf5\xd7\xe4?'
p204
tp205
Rp206
ag50
(g54
S'^]\xd0L:5\xee?'
p207
tp208
Rp209
ag50
(g54
S'MF\x08\x11\xf5\xd7\xe4?'
p210
tp211
Rp212
ag50
(g54
S'\xde\x1cs\x8dZ\x10\xee?'
p213
tp214
Rp215
ag50
(g54
S'\xe0&\x08w":\xeb?'
p216
tp217
Rp218
ag50
(g54
S'\xe0&\x08w":\xeb?'
p219
tp220
Rp221
ag50
(g54
S'\xcdc\xf3\x81\xe6\xf9\xeb?'
p222
tp223
Rp224
ag50
(g54
S'"\xcb\xc0\xeb\xe2\xe5\xe9?'
p225
tp226
Rp227
ag50
(g54
S'\x89\xa0\x8b\xc2\xf1B\xeb?'
p228
tp229
Rp230
ag50
(g54
S'\xc9\xcdw\x10c\xd3\xe9?'
p231
tp232
Rp233
ag50
(g54
S'\xb4\xb9\x16\xbc0Q\xe6?'
p234
tp235
Rp236
ag50
(g54
S'\xcdc\xf3\x81\xe6\xf9\xeb?'
p237
tp238
Rp239
ag50
(g54
S'MF\x08\x11\xf5\xd7\xe4?'
p240
tp241
Rp242
ag50
(g54
S'8\x8e{+\t\\\xe7?'
p243
tp244
Rp245
ag50
(g54
S'MF\x08\x11\xf5\xd7\xe4?'
p246
tp247
Rp248
ag50
(g54
S'\xde\x1cs\x8dZ\x10\xee?'
p249
tp250
Rp251
ag50
(g54
S'\xcdc\xf3\x81\xe6\xf9\xeb?'
p252
tp253
Rp254
ag50
(g54
S'MF\x08\x11\xf5\xd7\xe4?'
p255
tp256
Rp257
ag50
(g54
S'Fu64\x80\xa0\xeb?'
p258
tp259
Rp260
ag50
(g54
S'\xb4\xb9\x16\xbc0Q\xe6?'
p261
tp262
Rp263
ag50
(g54
S'\xc9\xcdw\x10c\xd3\xe9?'
p264
tp265
Rp266
ag50
(g54
S'r\xf8r\xdfV\xe8\xeb?'
p267
tp268
Rp269
ag50
(g54
S'\xe0&\x08w":\xeb?'
p270
tp271
Rp272
ag50
(g54
S'\xcdc\xf3\x81\xe6\xf9\xeb?'
p273
tp274
Rp275
ag50
(g54
S'MF\x08\x11\xf5\xd7\xe4?'
p276
tp277
Rp278
ag50
(g54
S'\xd4\x1c\x0c@yu\xeb?'
p279
tp280
Rp281
ag50
(g54
S'\x89\xa0\x8b\xc2\xf1B\xeb?'
p282
tp283
Rp284
ag50
(g54
S'\xc9\xcdw\x10c\xd3\xe9?'
p285
tp286
Rp287
ag50
(g54
S'\xeb!-\xf6G\xa1\xe0?'
p288
tp289
Rp290
ag50
(g54
S'\xc9\xcdw\x10c\xd3\xe9?'
p291
tp292
Rp293
ag50
(g54
S'^]\xd0L:5\xee?'
p294
tp295
Rp296
ag50
(g54
S'\x89\xa0\x8b\xc2\xf1B\xeb?'
p297
tp298
Rp299
ag50
(g54
S'\xc9\xcdw\x10c\xd3\xe9?'
p300
tp301
Rp302
ag50
(g54
S'Fu64\x80\xa0\xeb?'
p303
tp304
Rp305
ag50
(g54
S'\xb4\xb9\x16\xbc0Q\xe6?'
p306
tp307
Rp308
ag50
(g54
S'2\x9a\xc0\xd0H\xca\xed?'
p309
tp310
Rp311
ag50
(g54
S'\xe0&\x08w":\xeb?'
p312
tp313
Rp314
ag50
(g54
S'\xde\x1cs\x8dZ\x10\xee?'
p315
tp316
Rp317
ag50
(g54
S'\xc9\xcdw\x10c\xd3\xe9?'
p318
tp319
Rp320
ag50
(g54
S'^]\xd0L:5\xee?'
p321
tp322
Rp323
ag50
(g54
S'\x89\xa0\x8b\xc2\xf1B\xeb?'
p324
tp325
Rp326
ag50
(g54
S'\xe0&\x08w":\xeb?'
p327
tp328
Rp329
ag50
(g54
S'2\x9a\xc0\xd0H\xca\xed?'
p330
tp331
Rp332
ag50
(g54
S'\xc9\xcdw\x10c\xd3\xe9?'
p333
tp334
Rp335
ag50
(g54
S'Fu64\x80\xa0\xeb?'
p336
tp337
Rp338
ag50
(g54
S'\xb4\xb9\x16\xbc0Q\xe6?'
p339
tp340
Rp341
ag50
(g54
S'2\x9a\xc0\xd0H\xca\xed?'
p342
tp343
Rp344
ag50
(g54
S'2\x9a\xc0\xd0H\xca\xed?'
p345
tp346
Rp347
ag50
(g54
S'\xcdc\xf3\x81\xe6\xf9\xeb?'
p348
tp349
Rp350
ag50
(g54
S'\x89\xa0\x8b\xc2\xf1B\xeb?'
p351
tp352
Rp353
ag50
(g54
S'\xc9\xcdw\x10c\xd3\xe9?'
p354
tp355
Rp356
ag50
(g54
S'\xb4\xb9\x16\xbc0Q\xe6?'
p357
tp358
Rp359
ag50
(g54
S'\xc9\xcdw\x10c\xd3\xe9?'
p360
tp361
Rp362
ag50
(g54
S'\xd4\x1c\x0c@yu\xeb?'
p363
tp364
Rp365
ag50
(g54
S'"\xcb\xc0\xeb\xe2\xe5\xe9?'
p366
tp367
Rp368
ag50
(g54
S'MF\x08\x11\xf5\xd7\xe4?'
p369
tp370
Rp371
ag50
(g54
S'\xeb!-\xf6G\xa1\xe0?'
p372
tp373
Rp374
asS'sp'
p375
(lp376
(S'p0'
p377
I0
S'y'
p378
tp379
a(S'p1'
p380
I0
g378
tp381
a(g380
I0
g378
tp382
a(g380
I0
S't'
p383
tp384
a(g380
I0
g378
tp385
ag384
a(g380
I0
S'x'
p386
tp387
a(g377
I0
g386
tp388
ag379
a(g377
I0
g383
tp389
a(g377
I0
g386
tp390
a(g377
I0
g386
tp391
ag379
ag381
a(g380
I0
g386
tp392
ag388
ag379
a(g377
I0
g386
tp393
ag379
a(g377
I0
g378
tp394
ag381
ag392
ag388
a(g377
I0
g383
tp395
a(g377
I0
g378
tp396
ag394
ag389
ag396
ag389
ag390
ag391
ag391
ag395
a(g377
I0
g383
tp397
ag396
ag389
a(g377
I0
g383
tp398
ag396
ag393
ag391
a(g377
I0
g386
tp399
ag391
ag395
ag390
ag395
ag396
ag393
ag391
ag399
ag379
ag393
ag379
ag389
ag397
ag397
ag390
ag391
ag395
ag396
ag381
ag384
ag387
ag388
ag379
ag389
ag390
ag379
ag394
ag381
ag392
a(g380
I0
g378
tp400
a(g380
I0
g378
tp401
ag384
ag387
a(g380
I0
g383
tp402
ag385
ag392
a(S'p2'
p403
I0
g386
tp404
a(g403
I0
g383
tp405
a(g403
I0
g378
tp406
a(g403
I0
g386
tp407
ag405
a(g403
I0
g383
tp408
a(g403
F1.5707963267948966
g383
tp409
a(g403
F1.5707963267948966
g383
tp410
a(g403
I0
g383
tp411
a(g403
I0
g386
tp412
ag405
ag406
ag407
a(g403
I0
g386
tp413
a(g403
I0
g386
tp414
ag405
ag408
ag409
ag410
ag410
a(g403
F1.5707963267948966
g386
tp415
a(g403
F1.5707963267948966
g383
tp416
a(g403
F1.5707963267948966
g378
tp417
a(S'p3'
p418
F1.5707963267948966
g378
tp419
a(g418
F1.5707963267948966
g386
tp420
a(g418
F1.5707963267948966
g383
tp421
a(g418
F1.5707963267948966
g383
tp422
a(g418
F1.5707963267948966
g386
tp423
a(S'p4'
p424
F1.5707963267948966
g386
tp425
asS's'
p426
(lp427
(g377
I0
g22
tp428
ag379
ag381
ag382
ag384
ag385
ag384
ag387
ag388
ag379
ag389
ag390
ag391
ag379
ag381
ag392
ag388
ag379
ag393
ag379
ag394
ag381
ag392
ag388
ag395
ag396
ag394
ag389
ag396
ag389
ag390
ag391
ag391
ag395
ag397
ag396
ag389
ag398
ag396
ag393
ag391
ag399
ag391
ag395
ag390
ag395
ag396
ag393
ag391
ag399
ag379
ag393
ag379
ag389
ag397
ag397
ag390
ag391
ag395
ag396
ag381
ag384
ag387
ag388
ag379
ag389
ag390
ag379
ag394
ag381
ag392
ag400
ag401
ag384
ag387
ag402
ag385
ag392
ag404
ag405
ag406
ag407
ag405
ag408
ag409
ag410
ag411
ag412
ag405
ag406
ag407
ag413
ag414
ag405
ag408
ag409
ag410
ag410
ag415
ag416
ag417
ag419
ag420
ag421
ag422
ag423
asS'ui'
p429
(lp430
g375
ag375
aS'ss'
p431
aS'hs'
p432
ag432
ag375
aS'hp'
p433
ag433
ag433
ag431
ag432
ag433
ag433
ag431
ag432
ag433
ag375
ag375
ag433
ag432
ag375
ag433
ag432
ag433
ag432
ag432
ag375
ag375
ag375
ag433
ag433
ag433
ag433
ag433
ag433
ag432
ag433
ag432
ag433
ag431
ag375
ag431
ag433
ag431
ag433
ag433
ag432
ag375
ag431
ag433
ag432
ag375
ag375
ag375
ag433
ag432
ag375
ag433
ag432
ag433
ag432
ag433
ag431
ag431
ag431
ag433
ag433
ag431
ag375
ag432
ag432
ag431
ag432
ag433
ag431
ag432
ag431
ag375
ag431
ag431
ag433
ag432
ag375
ag375
ag375
ag431
ag433
ag432
ag375
ag431
ag432
ag431
ag432
ag431
ag431
ag431
ag431
ag433
ag433
ag432
ag375
ag432
ag431
ag433
ag433
ag431
asS'um_before'
p434
(lp435
g433
ag375
ag375
ag433
ag432
ag433
ag433
ag375
ag433
ag433
ag433
ag375
ag433
ag375
ag432
ag375
ag433
ag432
ag433
ag431
ag375
ag432
ag375
ag432
ag432
ag431
ag433
ag432
ag433
ag433
ag375
ag375
ag432
ag431
ag432
ag433
ag375
ag432
ag432
ag375
ag431
ag375
ag432
ag433
ag432
ag432
ag432
ag375
ag431
ag433
ag432
ag433
ag433
ag431
ag431
ag433
ag375
ag432
ag432
ag375
ag433
ag433
ag375
ag433
ag433
ag433
ag433
ag431
ag375
ag432
ag433
ag431
ag433
ag433
ag432
ag432
ag432
ag431
ag432
ag432
ag432
ag432
ag431
ag375
ag375
ag431
ag433
ag432
ag432
ag432
ag431
ag375
ag432
ag431
ag375
ag375
ag375
ag433
ag432
ag432
ag375
ag432
ag432
ag375
ag433
ag431
asS'um_after'
p436
(lp437
g433
ag375
ag375
ag433
ag432
ag433
ag433
ag375
ag433
ag433
ag433
ag375
ag433
ag375
ag432
ag375
ag433
ag432
ag433
ag431
ag375
ag432
ag375
ag432
ag432
ag431
ag433
ag432
ag433
ag433
ag375
ag375
ag432
ag431
ag432
ag433
ag375
ag432
ag432
ag375
ag431
ag375
ag432
ag433
ag432
ag432
ag432
ag375
ag431
ag433
ag432
ag433
ag433
ag431
ag431
ag433
ag375
ag432
ag432
ag375
ag433
ag433
ag375
ag433
ag433
ag433
ag433
ag431
ag375
ag432
ag433
ag431
ag433
ag433
ag432
ag432
ag432
ag431
ag432
ag432
ag432
ag432
ag431
ag375
ag375
ag431
ag433
ag432
ag432
ag432
ag431
ag375
ag432
ag431
ag375
ag375
ag375
ag433
ag432
ag432
ag375
ag432
ag432
ag375
ag433
ag431
asS'is_normalized_entropy_less_than_threshold'
p438
(lp439
g50
(g51
(S'b1'
p440
I0
I1
tp441
Rp442
(I3
S'|'
p443
NNNI-1
I-1
I0
tp444
bS'\x01'
p445
tp446
Rp447
ag447
ag50
(g442
S'\x00'
p448
tp449
Rp450
ag450
ag450
ag450
ag447
ag450
ag447
ag450
ag450
ag450
ag447
ag447
ag450
ag450
ag447
ag450
ag447
ag450
ag447
ag450
ag450
ag450
ag450
ag450
ag450
ag450
ag450
ag450
ag450
ag450
ag450
ag450
ag450
ag450
ag450
ag450
ag450
ag450
ag450
ag450
ag450
ag450
ag450
ag450
ag450
ag450
ag450
ag447
ag450
ag447
ag450
ag450
ag450
ag450
ag450
ag450
ag450
ag447
ag450
ag447
ag450
ag447
ag450
ag450
ag447
ag450
ag447
ag450
ag450
ag450
ag450
ag447
ag450
ag450
ag450
ag447
ag450
ag450
ag450
ag450
ag450
ag447
ag450
ag450
ag450
ag450
ag450
ag450
ag450
ag450
ag450
ag450
ag447
ag450
ag450
ag450
ag450
ag450
ag447
ag450
ag450
ag450
ag447
ag447
asaa(lp451
S'index'
p452
aI53570
aatp453
Rp454
.