ccollections
OrderedDict
p0
((lp1
(lp2
S'combination_dict'
p3
ag0
((lp4
(lp5
S'r_to_g_config'
p6
aS'tr'
p7
aa(lp8
S'num_turns'
p9
aI3
aa(lp10
S'start_direction'
p11
acutils_ms
StartDirection
p12
(I1
tp13
Rp14
aa(lp15
S'assistance_type'
p16
acutils_ms
AssistanceType
p17
(I0
tp18
Rp19
aa(lp20
S'start_mode'
p21
aS'x'
p22
aa(lp23
S'ui_given_a_noise'
p24
aF0.7
aa(lp25
S'um_given_ui_noise'
p26
aF0.7
aa(lp27
S'entropy_threshold'
p28
aF0.8
aatp29
Rp30
aa(lp31
S'data'
p32
accollections
defaultdict
p33
(c__builtin__
list
p34
tp35
Rp36
S'a'
p37
(lp38
S'mode_r'
p39
aS'move_p'
p40
ag40
ag39
ag39
ag40
aS'mode_l'
p41
ag39
ag39
ag39
ag41
ag39
ag40
ag41
ag39
ag41
ag41
ag39
ag39
ag39
ag39
ag39
ag39
ag40
ag41
ag39
ag39
ag39
ag41
ag39
ag39
ag41
ag40
asS'assistance_match_with_ground_truth'
p42
(lp43
I01
aI00
aI01
aI00
aI01
aI00
aI00
aI00
aI00
aI00
aI00
aI01
aI00
aI00
aI00
aI00
aI00
aI00
aI00
aI00
aI00
aI00
aI01
aI01
aI00
aI00
aI00
aI00
aI00
aI00
aI00
aI01
aI01
asS'is_u_intended_equals_um'
p44
(lp45
I01
aI01
aI01
aI01
aI01
aI01
aI00
aI01
aI01
aI01
aI00
aI01
aI01
aI01
aI01
aI00
aI00
aI01
aI01
aI01
aI01
aI01
aI01
aI01
aI00
aI01
aI01
aI01
aI00
aI01
aI01
aI01
aI01
asS'total_steps'
p46
I33
sS'normalized_h_of_p_ui_given_um'
p47
(lp48
cnumpy.core.multiarray
scalar
p49
(cnumpy
dtype
p50
(S'f8'
p51
I0
I1
tp52
Rp53
(I3
S'<'
p54
NNNI-1
I-1
I0
tp55
bS'h\xf8\xf2\xa56\x08\xe6?'
p56
tp57
Rp58
ag49
(g53
S'F\x16\xc8R7\x11\xe9?'
p59
tp60
Rp61
ag49
(g53
S'\xbe\x08F~\xcc\x1f\xe9?'
p62
tp63
Rp64
ag49
(g53
S'\x15\xe4\xdb\x02\xdc\xdf\xeb?'
p65
tp66
Rp67
ag49
(g53
S'h\xf8\xf2\xa56\x08\xe6?'
p68
tp69
Rp70
ag49
(g53
S'=\xe7\xf9r\xb6\xeb\xeb?'
p71
tp72
Rp73
ag49
(g53
S'<\xfa\xc5\x19\xd3\xd6\xeb?'
p74
tp75
Rp76
ag49
(g53
S'\x15\xe4\xdb\x02\xdc\xdf\xeb?'
p77
tp78
Rp79
ag49
(g53
S'\xfe\x8b8$X\xff\xee?'
p80
tp81
Rp82
ag49
(g53
S'"\x1dV=\xf0\x97\xed?'
p83
tp84
Rp85
ag49
(g53
S'<\xfa\xc5\x19\xd3\xd6\xeb?'
p86
tp87
Rp88
ag49
(g53
S'h\xf8\xf2\xa56\x08\xe6?'
p89
tp90
Rp91
ag49
(g53
S'=\xe7\xf9r\xb6\xeb\xeb?'
p92
tp93
Rp94
ag49
(g53
S'=\x1a\x9c+\t\x0e\xe9?'
p95
tp96
Rp97
ag49
(g53
S'"\x1dV=\xf0\x97\xed?'
p98
tp99
Rp100
ag49
(g53
S'\xa7\x1fD\x80f\xf8\xe8?'
p101
tp102
Rp103
ag49
(g53
S'<\xfa\xc5\x19\xd3\xd6\xeb?'
p104
tp105
Rp106
ag49
(g53
S'\xfe\x8b8$X\xff\xee?'
p107
tp108
Rp109
ag49
(g53
S'\x15\xe4\xdb\x02\xdc\xdf\xeb?'
p110
tp111
Rp112
ag49
(g53
S'\x15\xe4\xdb\x02\xdc\xdf\xeb?'
p113
tp114
Rp115
ag49
(g53
S'\xfe\x8b8$X\xff\xee?'
p116
tp117
Rp118
ag49
(g53
S'\x15\xe4\xdb\x02\xdc\xdf\xeb?'
p119
tp120
Rp121
ag49
(g53
S'h\xf8\xf2\xa56\x08\xe6?'
p122
tp123
Rp124
ag49
(g53
S'\xbe\x08F~\xcc\x1f\xe9?'
p125
tp126
Rp127
ag49
(g53
S'<\xfa\xc5\x19\xd3\xd6\xeb?'
p128
tp129
Rp130
ag49
(g53
S'\x15\xe4\xdb\x02\xdc\xdf\xeb?'
p131
tp132
Rp133
ag49
(g53
S'\x15\xe4\xdb\x02\xdc\xdf\xeb?'
p134
tp135
Rp136
ag49
(g53
S'"\x1dV=\xf0\x97\xed?'
p137
tp138
Rp139
ag49
(g53
S'<\xfa\xc5\x19\xd3\xd6\xeb?'
p140
tp141
Rp142
ag49
(g53
S'\x15\xe4\xdb\x02\xdc\xdf\xeb?'
p143
tp144
Rp145
ag49
(g53
S'"\x1dV=\xf0\x97\xed?'
p146
tp147
Rp148
ag49
(g53
S'\xc6\xe6\x96\xfdO\x91\xda?'
p149
tp150
Rp151
ag49
(g53
S'\xbe\x08F~\xcc\x1f\xe9?'
p152
tp153
Rp154
asS'sp'
p155
(lp156
(S'p0'
p157
I0
S'y'
p158
tp159
a(g157
I0
g158
tp160
a(S'p1'
p161
I0
g158
tp162
a(g161
I0
g158
tp163
a(g161
I0
S't'
p164
tp165
a(g161
I0
S'x'
p166
tp167
a(g161
I0
g158
tp168
ag163
a(g161
I0
g158
tp169
a(g161
I0
g166
tp170
ag168
ag165
ag167
a(S'p2'
p171
I0
g166
tp172
a(g171
I0
g164
tp173
ag173
a(g171
I0
g166
tp174
a(g171
I0
g166
tp175
a(g171
I0
g166
tp176
ag176
ag175
ag176
a(g171
I0
g158
tp177
a(S'p3'
p178
I0
g158
tp179
a(g178
I0
g164
tp180
a(g178
I0
g164
tp181
ag181
a(g178
I0
g158
tp182
ag180
ag181
ag182
a(g178
I0
g166
tp183
a(S'p4'
p184
I0
g166
tp185
asS's'
p186
(lp187
(g157
I0
g22
tp188
ag159
ag160
ag162
ag163
ag165
ag167
ag168
ag163
ag169
ag170
ag168
ag165
ag167
ag172
ag173
ag173
ag174
ag175
ag176
ag176
ag175
ag176
ag177
ag179
ag180
ag181
ag181
ag182
ag180
ag181
ag182
ag183
asS'ui'
p189
(lp190
S'ss'
p191
ag191
ag155
aS'hp'
p192
ag192
ag155
aS'hs'
p193
ag192
ag191
ag193
ag193
ag192
ag192
ag155
ag192
ag193
ag193
ag192
ag192
ag193
ag191
ag192
ag192
ag155
ag193
ag192
ag192
ag191
ag193
ag193
ag191
ag193
ag191
asS'um_before'
p194
(lp195
g192
ag191
ag155
ag155
ag192
ag192
ag192
ag155
ag191
ag193
ag192
ag192
ag192
ag155
ag193
ag191
ag192
ag191
ag155
ag155
ag191
ag155
ag192
ag155
ag192
ag155
ag155
ag193
ag192
ag155
ag193
ag193
ag155
asS'um_after'
p196
(lp197
g192
ag191
ag155
ag155
ag192
ag192
ag192
ag155
ag191
ag193
ag192
ag192
ag192
ag155
ag193
aNag192
ag191
ag155
ag155
ag191
ag155
ag192
ag155
ag192
ag155
ag155
ag193
ag192
ag155
ag193
ag193
ag155
asS'is_normalized_entropy_less_than_threshold'
p198
(lp199
g49
(g50
(S'b1'
p200
I0
I1
tp201
Rp202
(I3
S'|'
p203
NNNI-1
I-1
I0
tp204
bS'\x01'
p205
tp206
Rp207
ag207
ag207
ag49
(g202
S'\x00'
p208
tp209
Rp210
ag207
ag210
ag210
ag210
ag210
ag210
ag210
ag207
ag210
ag207
ag210
ag207
ag210
ag210
ag210
ag210
ag210
ag210
ag207
ag207
ag210
ag210
ag210
ag210
ag210
ag210
ag210
ag207
ag207
asaa(lp211
S'index'
p212
aI24784
aatp213
Rp214
.