ccollections
OrderedDict
p0
((lp1
(lp2
S'combination_dict'
p3
ag0
((lp4
(lp5
S'r_to_g_config'
p6
aS'tr'
p7
aa(lp8
S'num_turns'
p9
aI3
aa(lp10
S'start_direction'
p11
acutils_ms
StartDirection
p12
(I1
tp13
Rp14
aa(lp15
S'assistance_type'
p16
acutils_ms
AssistanceType
p17
(I0
tp18
Rp19
aa(lp20
S'start_mode'
p21
aS'x'
p22
aa(lp23
S'ui_given_a_noise'
p24
aF0.7
aa(lp25
S'um_given_ui_noise'
p26
aF0.5
aa(lp27
S'entropy_threshold'
p28
aF0.5
aatp29
Rp30
aa(lp31
S'data'
p32
accollections
defaultdict
p33
(c__builtin__
list
p34
tp35
Rp36
S'a'
p37
(lp38
S'mode_r'
p39
aS'move_p'
p40
ag39
ag39
aS'mode_l'
p41
ag40
ag41
ag40
ag41
ag40
ag39
ag40
ag41
ag40
ag41
ag41
ag40
ag39
ag40
ag39
ag40
ag39
ag40
ag39
ag41
ag40
ag39
ag39
ag41
ag40
ag40
ag39
ag39
ag41
ag39
ag39
ag41
ag40
ag39
ag40
ag41
ag40
ag40
ag40
ag41
ag40
ag39
ag39
ag40
ag40
ag41
ag40
ag39
ag40
ag41
ag40
ag39
ag40
ag41
ag40
ag39
ag40
ag41
ag39
ag40
ag39
ag39
ag39
ag41
ag40
ag41
ag41
ag41
ag40
ag41
ag41
ag39
ag39
ag41
ag40
ag39
ag39
ag39
ag41
ag40
ag39
ag41
ag40
ag41
ag41
ag41
ag39
ag41
ag41
ag40
ag39
ag40
ag41
ag41
ag40
ag39
ag39
ag40
ag41
ag40
ag41
ag40
ag39
ag40
ag39
ag41
ag39
ag40
ag41
ag41
ag41
ag41
ag40
asS'assistance_match_with_ground_truth'
p42
(lp43
I01
aI00
aI00
aI00
aI01
aI00
aI01
aI00
aI01
aI00
aI01
aI00
aI01
aI00
aI00
aI01
aI01
aI01
aI00
aI01
aI01
aI01
aI00
aI00
aI01
aI00
aI00
aI00
aI01
aI00
aI00
aI00
aI00
aI00
aI00
aI00
aI01
aI00
aI01
aI00
aI01
aI00
aI00
aI01
aI01
aI00
aI00
aI01
aI00
aI01
aI01
aI00
aI01
aI01
aI01
aI00
aI01
aI01
aI01
aI00
aI00
aI00
aI00
aI01
aI00
aI00
aI00
aI00
aI01
aI00
aI00
aI00
aI01
aI00
aI00
aI00
aI00
aI00
aI01
aI00
aI00
aI00
aI00
aI01
aI01
aI00
aI01
aI00
aI00
aI00
aI00
aI00
aI00
aI01
aI01
aI01
aI00
aI00
aI01
aI00
aI00
aI01
aI01
aI01
aI00
aI01
aI01
aI01
aI00
aI00
aI00
aI01
aI01
aI00
aI00
aI00
aI01
aI01
asS'is_u_intended_equals_um'
p44
(lp45
I01
aI00
aI01
aI01
aI01
aI00
aI01
aI00
aI01
aI00
aI01
aI00
aI01
aI00
aI00
aI01
aI01
aI01
aI00
aI01
aI01
aI01
aI00
aI01
aI01
aI01
aI01
aI01
aI01
aI01
aI00
aI01
aI01
aI00
aI01
aI01
aI01
aI00
aI01
aI00
aI01
aI01
aI01
aI01
aI01
aI01
aI01
aI01
aI01
aI01
aI01
aI01
aI01
aI01
aI01
aI01
aI01
aI01
aI01
aI00
aI01
aI00
aI00
aI01
aI00
aI01
aI01
aI01
aI01
aI00
aI00
aI00
aI01
aI00
aI00
aI00
aI01
aI01
aI01
aI00
aI01
aI01
aI01
aI01
aI01
aI01
aI01
aI00
aI00
aI00
aI00
aI01
aI00
aI01
aI01
aI01
aI01
aI00
aI01
aI01
aI01
aI01
aI01
aI01
aI00
aI01
aI01
aI01
aI00
aI01
aI00
aI01
aI01
aI00
aI00
aI00
aI01
aI01
asS'total_steps'
p46
I118
sS'normalized_h_of_p_ui_given_um'
p47
(lp48
cnumpy.core.multiarray
scalar
p49
(cnumpy
dtype
p50
(S'f8'
p51
I0
I1
tp52
Rp53
(I3
S'<'
p54
NNNI-1
I-1
I0
tp55
bS'\xba1\xe3\xe8=M\xe0?'
p56
tp57
Rp58
ag49
(g53
S'\x90p\xbb\xab\xfa\xd0\xeb?'
p59
tp60
Rp61
ag49
(g53
S'I\xe6dS\xc1\xeb\xe9?'
p62
tp63
Rp64
ag49
(g53
S'\x8a\xc8\xc1\xb5\xe56\xe9?'
p65
tp66
Rp67
ag49
(g53
S'la\x14\xf2m\xa4\xcb?'
p68
tp69
Rp70
ag49
(g53
S'\xde\tLU\xd3\x86\xe6?'
p71
tp72
Rp73
ag49
(g53
S'la\x14\xf2m\xa4\xcb?'
p74
tp75
Rp76
ag49
(g53
S'\xde\tLU\xd3\x86\xe6?'
p77
tp78
Rp79
ag49
(g53
S'la\x14\xf2m\xa4\xcb?'
p80
tp81
Rp82
ag49
(g53
S'\x90p\xbb\xab\xfa\xd0\xeb?'
p83
tp84
Rp85
ag49
(g53
S'\xba1\xe3\xe8=M\xe0?'
p86
tp87
Rp88
ag49
(g53
S'\xde\tLU\xd3\x86\xe6?'
p89
tp90
Rp91
ag49
(g53
S'la\x14\xf2m\xa4\xcb?'
p92
tp93
Rp94
ag49
(g53
S'\xde\tLU\xd3\x86\xe6?'
p95
tp96
Rp97
ag49
(g53
S'\xb6C\xd6@\xb3-\xe7?'
p98
tp99
Rp100
ag49
(g53
S'la\x14\xf2m\xa4\xcb?'
p101
tp102
Rp103
ag49
(g53
S'\x1c[J\xc13}\xe1?'
p104
tp105
Rp106
ag49
(g53
S'\xba1\xe3\xe8=M\xe0?'
p107
tp108
Rp109
ag49
(g53
S'\x90p\xbb\xab\xfa\xd0\xeb?'
p110
tp111
Rp112
ag49
(g53
S'\xba1\xe3\xe8=M\xe0?'
p113
tp114
Rp115
ag49
(g53
S'\x1c[J\xc13}\xe1?'
p116
tp117
Rp118
ag49
(g53
S'\xba1\xe3\xe8=M\xe0?'
p119
tp120
Rp121
ag49
(g53
S'\x90p\xbb\xab\xfa\xd0\xeb?'
p122
tp123
Rp124
ag49
(g53
S'\x8a\xc8\xc1\xb5\xe56\xe9?'
p125
tp126
Rp127
ag49
(g53
S'la\x14\xf2m\xa4\xcb?'
p128
tp129
Rp130
ag49
(g53
S'&\xef\xec\x1dK\x98\xe5?'
p131
tp132
Rp133
ag49
(g53
S'I\xe6dS\xc1\xeb\xe9?'
p134
tp135
Rp136
ag49
(g53
S'\x8a\xc8\xc1\xb5\xe56\xe9?'
p137
tp138
Rp139
ag49
(g53
S'la\x14\xf2m\xa4\xcb?'
p140
tp141
Rp142
ag49
(g53
S'&\xef\xec\x1dK\x98\xe5?'
p143
tp144
Rp145
ag49
(g53
S'\x90p\xbb\xab\xfa\xd0\xeb?'
p146
tp147
Rp148
ag49
(g53
S'I\xe6dS\xc1\xeb\xe9?'
p149
tp150
Rp151
ag49
(g53
S'\x8a\xc8\xc1\xb5\xe56\xe9?'
p152
tp153
Rp154
ag49
(g53
S'\xf3Sr\x043f\xe4?'
p155
tp156
Rp157
ag49
(g53
S'L\x058H\x13\xd3\xed?'
p158
tp159
Rp160
ag49
(g53
S'\x8a\xc8\xc1\xb5\xe56\xe9?'
p161
tp162
Rp163
ag49
(g53
S'la\x14\xf2m\xa4\xcb?'
p164
tp165
Rp166
ag49
(g53
S'\x90p\xbb\xab\xfa\xd0\xeb?'
p167
tp168
Rp169
ag49
(g53
S'\xba1\xe3\xe8=M\xe0?'
p170
tp171
Rp172
ag49
(g53
S'\xde\tLU\xd3\x86\xe6?'
p173
tp174
Rp175
ag49
(g53
S'la\x14\xf2m\xa4\xcb?'
p176
tp177
Rp178
ag49
(g53
S'&\xef\xec\x1dK\x98\xe5?'
p179
tp180
Rp181
ag49
(g53
S'&\xef\xec\x1dK\x98\xe5?'
p182
tp183
Rp184
ag49
(g53
S'\x1c[J\xc13}\xe1?'
p185
tp186
Rp187
ag49
(g53
S'la\x14\xf2m\xa4\xcb?'
p188
tp189
Rp190
ag49
(g53
S'&\xef\xec\x1dK\x98\xe5?'
p191
tp192
Rp193
ag49
(g53
S'L\x058H\x13\xd3\xed?'
p194
tp195
Rp196
ag49
(g53
S'\xba1\xe3\xe8=M\xe0?'
p197
tp198
Rp199
ag49
(g53
S'&\xef\xec\x1dK\x98\xe5?'
p200
tp201
Rp202
ag49
(g53
S'\x1c[J\xc13}\xe1?'
p203
tp204
Rp205
ag49
(g53
S'la\x14\xf2m\xa4\xcb?'
p206
tp207
Rp208
ag49
(g53
S'&\xef\xec\x1dK\x98\xe5?'
p209
tp210
Rp211
ag49
(g53
S'\xba1\xe3\xe8=M\xe0?'
p212
tp213
Rp214
ag49
(g53
S'\x1c[J\xc13}\xe1?'
p215
tp216
Rp217
ag49
(g53
S'la\x14\xf2m\xa4\xcb?'
p218
tp219
Rp220
ag49
(g53
S'&\xef\xec\x1dK\x98\xe5?'
p221
tp222
Rp223
ag49
(g53
S'\xba1\xe3\xe8=M\xe0?'
p224
tp225
Rp226
ag49
(g53
S'\x1c[J\xc13}\xe1?'
p227
tp228
Rp229
ag49
(g53
S'la\x14\xf2m\xa4\xcb?'
p230
tp231
Rp232
ag49
(g53
S'\x90p\xbb\xab\xfa\xd0\xeb?'
p233
tp234
Rp235
ag49
(g53
S'L\x058H\x13\xd3\xed?'
p236
tp237
Rp238
ag49
(g53
S'\xde\tLU\xd3\x86\xe6?'
p239
tp240
Rp241
ag49
(g53
S'\xf3Sr\x043f\xe4?'
p242
tp243
Rp244
ag49
(g53
S'\xba1\xe3\xe8=M\xe0?'
p245
tp246
Rp247
ag49
(g53
S'\x90p\xbb\xab\xfa\xd0\xeb?'
p248
tp249
Rp250
ag49
(g53
S'I\xe6dS\xc1\xeb\xe9?'
p251
tp252
Rp253
ag49
(g53
S'I\xe6dS\xc1\xeb\xe9?'
p254
tp255
Rp256
ag49
(g53
S'\x8a\xc8\xc1\xb5\xe56\xe9?'
p257
tp258
Rp259
ag49
(g53
S'la\x14\xf2m\xa4\xcb?'
p260
tp261
Rp262
ag49
(g53
S'\xde\tLU\xd3\x86\xe6?'
p263
tp264
Rp265
ag49
(g53
S'\x1a7\xedJ\x7f\x97\xdf?'
p266
tp267
Rp268
ag49
(g53
S'\x1a7\xedJ\x7f\x97\xdf?'
p269
tp270
Rp271
ag49
(g53
S'la\x14\xf2m\xa4\xcb?'
p272
tp273
Rp274
ag49
(g53
S'\xde\tLU\xd3\x86\xe6?'
p275
tp276
Rp277
ag49
(g53
S'\x1a7\xedJ\x7f\x97\xdf?'
p278
tp279
Rp280
ag49
(g53
S'\xf3Sr\x043f\xe4?'
p281
tp282
Rp283
ag49
(g53
S'I\xe6dS\xc1\xeb\xe9?'
p284
tp285
Rp286
ag49
(g53
S'\x8a\xc8\xc1\xb5\xe56\xe9?'
p287
tp288
Rp289
ag49
(g53
S'la\x14\xf2m\xa4\xcb?'
p290
tp291
Rp292
ag49
(g53
S'\x90p\xbb\xab\xfa\xd0\xeb?'
p293
tp294
Rp295
ag49
(g53
S'I\xe6dS\xc1\xeb\xe9?'
p296
tp297
Rp298
ag49
(g53
S'I\xe6dS\xc1\xeb\xe9?'
p299
tp300
Rp301
ag49
(g53
S'\x8a\xc8\xc1\xb5\xe56\xe9?'
p302
tp303
Rp304
ag49
(g53
S'la\x14\xf2m\xa4\xcb?'
p305
tp306
Rp307
ag49
(g53
S'\x1c[J\xc13}\xe1?'
p308
tp309
Rp310
ag49
(g53
S'\x8a\xc8\xc1\xb5\xe56\xe9?'
p311
tp312
Rp313
ag49
(g53
S'la\x14\xf2m\xa4\xcb?'
p314
tp315
Rp316
ag49
(g53
S'\xde\tLU\xd3\x86\xe6?'
p317
tp318
Rp319
ag49
(g53
S'\xb6C\xd6@\xb3-\xe7?'
p320
tp321
Rp322
ag49
(g53
S'\xb6C\xd6@\xb3-\xe7?'
p323
tp324
Rp325
ag49
(g53
S'\xf3Sr\x043f\xe4?'
p326
tp327
Rp328
ag49
(g53
S'\x8a\xc8\xc1\xb5\xe56\xe9?'
p329
tp330
Rp331
ag49
(g53
S'\xb6C\xd6@\xb3-\xe7?'
p332
tp333
Rp334
ag49
(g53
S'la\x14\xf2m\xa4\xcb?'
p335
tp336
Rp337
ag49
(g53
S'\x1c[J\xc13}\xe1?'
p338
tp339
Rp340
ag49
(g53
S'\xba1\xe3\xe8=M\xe0?'
p341
tp342
Rp343
ag49
(g53
S'&\xef\xec\x1dK\x98\xe5?'
p344
tp345
Rp346
ag49
(g53
S'\xb6C\xd6@\xb3-\xe7?'
p347
tp348
Rp349
ag49
(g53
S'la\x14\xf2m\xa4\xcb?'
p350
tp351
Rp352
ag49
(g53
S'&\xef\xec\x1dK\x98\xe5?'
p353
tp354
Rp355
ag49
(g53
S'I\xe6dS\xc1\xeb\xe9?'
p356
tp357
Rp358
ag49
(g53
S'\xba1\xe3\xe8=M\xe0?'
p359
tp360
Rp361
ag49
(g53
S'\x1c[J\xc13}\xe1?'
p362
tp363
Rp364
ag49
(g53
S'la\x14\xf2m\xa4\xcb?'
p365
tp366
Rp367
ag49
(g53
S'\xde\tLU\xd3\x86\xe6?'
p368
tp369
Rp370
ag49
(g53
S'la\x14\xf2m\xa4\xcb?'
p371
tp372
Rp373
ag49
(g53
S'\x1c[J\xc13}\xe1?'
p374
tp375
Rp376
ag49
(g53
S'\xba1\xe3\xe8=M\xe0?'
p377
tp378
Rp379
ag49
(g53
S'\x90p\xbb\xab\xfa\xd0\xeb?'
p380
tp381
Rp382
ag49
(g53
S'\x8a\xc8\xc1\xb5\xe56\xe9?'
p383
tp384
Rp385
ag49
(g53
S'\xf3Sr\x043f\xe4?'
p386
tp387
Rp388
ag49
(g53
S'\xba1\xe3\xe8=M\xe0?'
p389
tp390
Rp391
ag49
(g53
S'\x1c[J\xc13}\xe1?'
p392
tp393
Rp394
ag49
(g53
S'\xb6C\xd6@\xb3-\xe7?'
p395
tp396
Rp397
ag49
(g53
S'\x1a7\xedJ\x7f\x97\xdf?'
p398
tp399
Rp400
ag49
(g53
S'\x1a7\xedJ\x7f\x97\xdf?'
p401
tp402
Rp403
ag49
(g53
S'la\x14\xf2m\xa4\xcb?'
p404
tp405
Rp406
ag49
(g53
S'\x1c[J\xc13}\xe1?'
p407
tp408
Rp409
asS'sp'
p410
(lp411
(S'p0'
p412
I0
S'y'
p413
tp414
a(g412
I0
S'x'
p415
tp416
a(g412
I0
g415
tp417
a(g412
I0
S't'
p418
tp419
a(g412
I0
g413
tp420
a(g412
I0
g418
tp421
ag420
ag421
ag420
ag416
ag414
ag421
ag420
ag421
a(g412
I0
g418
tp422
ag420
a(S'p1'
p423
I0
g413
tp424
a(g423
I0
g418
tp425
a(g423
I0
g413
tp426
ag425
a(g423
F1.5707963267948966
g418
tp427
a(g423
F1.5707963267948966
g415
tp428
a(g423
F1.5707963267948966
g418
tp429
a(g423
F1.5707963267948966
g413
tp430
a(g423
F1.5707963267948966
g415
tp431
a(g412
F1.5707963267948966
g415
tp432
a(g412
F1.5707963267948966
g415
tp433
a(g412
F1.5707963267948966
g418
tp434
a(g412
F1.5707963267948966
g413
tp435
a(g412
F1.5707963267948966
g413
tp436
a(g412
F1.5707963267948966
g415
tp437
ag433
ag434
a(g412
F1.5707963267948966
g415
tp438
a(g412
F1.5707963267948966
g415
tp439
ag434
ag435
ag437
a(g412
F1.5707963267948966
g413
tp440
a(g412
F1.5707963267948966
g418
tp441
ag435
ag436
ag436
a(g423
F1.5707963267948966
g413
tp442
ag431
ag432
ag439
ag440
ag436
ag442
ag431
ag432
ag440
ag442
ag431
ag432
ag440
ag442
ag431
ag429
a(g423
I0
g418
tp443
a(g423
I0
g415
tp444
a(g423
I0
g413
tp445
ag425
ag426
a(g423
I0
g413
tp446
ag446
a(g423
I0
g415
tp447
a(g423
I0
g418
tp448
ag444
ag444
ag444
ag448
ag444
ag444
ag445
ag446
ag447
ag448
ag426
ag446
ag446
ag447
ag448
ag427
ag430
ag431
a(g423
F1.5707963267948966
g413
tp449
a(g423
F1.5707963267948966
g413
tp450
ag450
a(g423
F1.5707963267948966
g418
tp451
ag430
ag450
ag431
a(S'p2'
p452
F1.5707963267948966
g415
tp453
a(g452
F1.5707963267948966
g413
tp454
a(g423
F1.5707963267948966
g413
tp455
ag450
ag431
ag432
ag433
ag440
ag442
ag431
ag449
ag431
ag453
ag454
a(g452
F1.5707963267948966
g415
tp456
a(g452
F1.5707963267948966
g418
tp457
a(g452
F1.5707963267948966
g415
tp458
ag454
a(S'p3'
p459
F1.5707963267948966
g413
tp460
a(g459
F1.5707963267948966
g413
tp461
ag461
ag461
a(g459
F1.5707963267948966
g415
tp462
a(S'p4'
p463
F1.5707963267948966
g415
tp464
asS's'
p465
(lp466
(g412
I0
g22
tp467
ag414
ag416
ag417
ag419
ag420
ag421
ag420
ag421
ag420
ag416
ag414
ag421
ag420
ag421
ag422
ag420
ag424
ag425
ag426
ag425
ag427
ag428
ag429
ag430
ag431
ag432
ag433
ag434
ag435
ag436
ag437
ag433
ag434
ag438
ag439
ag434
ag435
ag437
ag440
ag441
ag435
ag436
ag436
ag442
ag431
ag432
ag439
ag440
ag436
ag442
ag431
ag432
ag440
ag442
ag431
ag432
ag440
ag442
ag431
ag429
ag443
ag444
ag445
ag425
ag426
ag446
ag446
ag447
ag448
ag444
ag444
ag444
ag448
ag444
ag444
ag445
ag446
ag447
ag448
ag426
ag446
ag446
ag447
ag448
ag427
ag430
ag431
ag449
ag450
ag450
ag451
ag430
ag450
ag431
ag453
ag454
ag455
ag450
ag431
ag432
ag433
ag440
ag442
ag431
ag449
ag431
ag453
ag454
ag456
ag457
ag458
ag454
ag460
ag461
ag461
ag461
ag462
asS'ui'
p468
(lp469
g410
aS'hs'
p470
ag410
ag470
ag470
aS'hp'
p471
ag470
ag410
ag470
ag471
ag410
ag471
ag470
ag410
ag470
ag470
ag471
ag471
aS'ss'
p472
ag471
ag410
ag471
ag410
ag470
ag470
ag472
ag410
ag470
ag470
ag472
ag470
ag470
ag471
ag470
ag410
ag470
ag470
ag472
ag471
ag410
ag470
ag472
ag471
ag410
ag470
ag410
ag472
ag471
ag410
ag472
ag470
ag410
ag471
ag410
ag470
ag472
ag471
ag472
ag470
ag472
ag472
ag471
ag471
ag471
ag472
ag410
ag470
ag470
ag470
ag471
ag410
ag470
ag470
ag410
ag470
ag470
ag410
ag472
ag470
ag471
ag471
ag471
ag471
ag470
ag410
ag472
ag470
ag410
ag472
ag472
ag470
ag470
ag470
ag470
ag410
ag471
ag472
ag472
ag470
ag410
ag410
ag470
ag410
ag470
ag410
ag470
ag410
ag410
ag471
ag470
ag471
ag471
ag410
ag470
ag410
ag470
ag472
ag470
asS'um_before'
p473
(lp474
g471
ag470
ag410
ag470
ag470
ag471
ag470
ag471
ag470
ag470
ag471
ag471
ag470
ag471
ag472
ag470
ag410
ag471
ag470
ag471
ag410
ag471
ag470
ag470
ag470
ag472
ag410
ag470
ag470
ag472
ag470
ag410
ag470
ag471
ag472
ag470
ag470
ag470
ag471
ag471
ag470
ag472
ag472
ag410
ag470
ag472
ag472
ag471
ag472
ag410
ag470
ag472
ag471
ag410
ag470
ag472
ag471
ag410
ag470
ag470
ag472
ag471
ag471
ag471
ag470
ag410
ag410
ag470
ag470
ag471
ag410
ag410
ag470
ag471
ag410
ag471
ag410
ag470
ag470
ag470
ag410
ag410
ag470
ag470
ag410
ag470
ag470
ag471
ag472
ag472
ag471
ag470
ag472
ag470
ag410
ag471
ag472
ag472
ag470
ag472
ag410
ag471
ag410
ag470
ag471
ag470
ag410
ag471
ag470
ag470
ag471
ag471
ag410
ag472
ag410
ag410
ag470
ag410
asS'um_after'
p475
(lp476
g471
ag470
ag410
ag470
ag470
ag471
ag470
ag471
ag470
ag470
ag471
ag471
ag470
ag471
ag472
ag470
ag410
ag471
ag470
ag471
ag410
ag471
ag470
ag470
ag470
ag472
ag410
ag470
ag470
ag472
ag470
ag410
ag470
ag471
ag472
ag470
ag470
ag470
ag471
ag471
ag470
ag472
ag472
ag410
ag470
ag472
ag472
ag471
ag472
ag410
ag470
ag472
ag471
ag410
ag470
ag472
ag471
ag410
ag470
ag470
ag472
ag471
ag471
ag471
ag470
ag410
ag410
ag470
ag470
ag471
aNaNag470
ag471
aNag471
ag410
ag470
ag470
ag470
ag410
ag410
ag470
ag470
ag410
ag470
ag470
ag471
ag472
ag472
ag471
ag470
ag472
ag470
ag410
ag471
ag472
ag472
ag470
ag472
ag410
ag471
ag410
ag470
ag471
ag470
ag410
ag471
ag470
ag470
ag471
ag471
ag410
ag472
aNaNag470
ag410
asS'is_normalized_entropy_less_than_threshold'
p477
(lp478
g49
(g50
(S'b1'
p479
I0
I1
tp480
Rp481
(I3
S'|'
p482
NNNI-1
I-1
I0
tp483
bS'\x00'
p484
tp485
Rp486
ag486
ag486
ag486
ag49
(g481
S'\x01'
p487
tp488
Rp489
ag486
ag489
ag486
ag489
ag486
ag486
ag486
ag489
ag486
ag486
ag489
ag486
ag486
ag486
ag486
ag486
ag486
ag486
ag486
ag489
ag486
ag486
ag486
ag489
ag486
ag486
ag486
ag486
ag486
ag486
ag486
ag489
ag486
ag486
ag486
ag489
ag486
ag486
ag486
ag489
ag486
ag486
ag486
ag486
ag486
ag489
ag486
ag486
ag486
ag489
ag486
ag486
ag486
ag489
ag486
ag486
ag486
ag486
ag486
ag486
ag486
ag486
ag486
ag489
ag486
ag489
ag489
ag489
ag486
ag489
ag486
ag486
ag486
ag489
ag486
ag486
ag486
ag486
ag489
ag486
ag486
ag489
ag486
ag486
ag486
ag486
ag486
ag486
ag489
ag486
ag486
ag486
ag486
ag489
ag486
ag486
ag486
ag486
ag489
ag486
ag489
ag486
ag486
ag486
ag486
ag486
ag486
ag486
ag486
ag489
ag489
ag489
ag486
asaa(lp490
S'index'
p491
aI24707
aatp492
Rp493
.