ccollections
OrderedDict
p0
((lp1
(lp2
S'combination_dict'
p3
ag0
((lp4
(lp5
S'r_to_g_config'
p6
aS'bl'
p7
aa(lp8
S'num_turns'
p9
aI1
aa(lp10
S'start_direction'
p11
acutils_ms
StartDirection
p12
(I1
tp13
Rp14
aa(lp15
S'assistance_type'
p16
acutils_ms
AssistanceType
p17
(I1
tp18
Rp19
aa(lp20
S'start_mode'
p21
aS'x'
p22
aa(lp23
S'ui_given_a_noise'
p24
aF0.5
aa(lp25
S'um_given_ui_noise'
p26
aF0.3
aa(lp27
S'entropy_threshold'
p28
aF0.6
aatp29
Rp30
aa(lp31
S'data'
p32
accollections
defaultdict
p33
(c__builtin__
list
p34
tp35
Rp36
S'a'
p37
(lp38
S'mode_r'
p39
ag39
aS'move_n'
p40
ag39
ag39
ag40
ag39
ag40
ag40
ag39
aS'move_p'
p41
aS'mode_l'
p42
ag41
ag39
ag39
ag39
ag39
ag41
ag39
ag39
ag40
asS'assistance_match_with_ground_truth'
p43
(lp44
I00
aI01
aI00
aI00
aI01
aI00
aI01
aI00
aI01
aI01
aI00
aI01
aI00
aI00
aI00
aI00
aI01
aI01
aI00
aI01
aI01
asS'is_u_intended_equals_um'
p45
(lp46
I01
aI01
aI01
aI01
aI01
aI01
aI01
aI01
aI01
aI01
aI00
aI01
aI01
aI01
aI01
aI01
aI01
aI01
aI01
aI01
aI01
asS'total_steps'
p47
I21
sS'normalized_h_of_p_ui_given_um'
p48
(lp49
cnumpy.core.multiarray
scalar
p50
(cnumpy
dtype
p51
(S'f8'
p52
I0
I1
tp53
Rp54
(I3
S'<'
p55
NNNI-1
I-1
I0
tp56
bS'\xf8\xabQu\xbca\xe2?'
p57
tp58
Rp59
ag50
(g54
S'\xe0x\xbe\x1eI\xfe\xd3?'
p60
tp61
Rp62
ag50
(g54
S'\x05P\x9b\x15\xab\x07\xe4?'
p63
tp64
Rp65
ag50
(g54
S'<D>\x9e\x18\x15\xe6?'
p66
tp67
Rp68
ag50
(g54
S'\xe0x\xbe\x1eI\xfe\xd3?'
p69
tp70
Rp71
ag50
(g54
S'\x05P\x9b\x15\xab\x07\xe4?'
p72
tp73
Rp74
ag50
(g54
S'\xe0x\xbe\x1eI\xfe\xd3?'
p75
tp76
Rp77
ag50
(g54
S'\xca\xbc\xdcY\xc6\x8d\xe5?'
p78
tp79
Rp80
ag50
(g54
S'\xe4\nk\rl\x1d\xc8?'
p81
tp82
Rp83
ag50
(g54
S'\xe0x\xbe\x1eI\xfe\xd3?'
p84
tp85
Rp86
ag50
(g54
S'\xec\xa2\x1d\xaa\xcbC\xea?'
p87
tp88
Rp89
ag50
(g54
S'o\x1e\x87\xb4\xfa\xba\xca?'
p90
tp91
Rp92
ag50
(g54
S'\x98]\x9e.1)\xe4?'
p93
tp94
Rp95
ag50
(g54
S'<D>\x9e\x18\x15\xe6?'
p96
tp97
Rp98
ag50
(g54
S'<D>\x9e\x18\x15\xe6?'
p99
tp100
Rp101
ag50
(g54
S'\xf8\xabQu\xbca\xe2?'
p102
tp103
Rp104
ag50
(g54
S'\xe0x\xbe\x1eI\xfe\xd3?'
p105
tp106
Rp107
ag50
(g54
S'\xf6\xc2e}\xdf\xb0\xd2?'
p108
tp109
Rp110
ag50
(g54
S'<D>\x9e\x18\x15\xe6?'
p111
tp112
Rp113
ag50
(g54
S'\xe0x\xbe\x1eI\xfe\xd3?'
p114
tp115
Rp116
ag50
(g54
S'\xe4\nk\rl\x1d\xc8?'
p117
tp118
Rp119
asS'sp'
p120
(lp121
(S'p0'
p122
I0
S'x'
p123
tp124
a(g122
I0
S'y'
p125
tp126
a(g122
I0
g123
tp127
a(g122
I0
g123
tp128
ag126
ag127
ag126
a(g122
I0
g125
tp129
a(S'p1'
p130
I0
g125
tp131
a(g130
I0
S't'
p132
tp133
a(g130
I0
g123
tp134
a(g130
I0
g132
tp135
a(g130
I0
g125
tp136
a(g130
I0
g125
tp137
ag137
a(g130
I0
g125
tp138
ag133
a(g130
F1.5707963267948966
g132
tp139
a(g130
F1.5707963267948966
g132
tp140
a(g130
F1.5707963267948966
g123
tp141
a(S'p2'
p142
F1.5707963267948966
g123
tp143
asS's'
p144
(lp145
(g122
I0
g22
tp146
ag124
ag126
ag127
ag128
ag126
ag127
ag126
ag129
ag131
ag133
ag134
ag135
ag136
ag137
ag137
ag138
ag133
ag139
ag140
ag141
asS'ui'
p147
(lp148
S'ss'
p149
aS'hp'
p150
aS'hs'
p151
ag150
ag150
ag151
ag150
ag120
ag149
ag150
ag150
ag151
ag120
ag120
ag151
ag149
ag150
ag120
ag120
ag150
ag149
asS'um_before'
p152
(lp153
g149
ag150
ag151
ag120
ag150
ag151
ag150
ag120
ag149
ag150
ag150
ag151
ag151
ag120
ag120
ag149
ag150
ag120
ag120
ag150
ag149
asS'um_after'
p154
(lp155
g149
ag150
ag151
ag120
ag150
ag151
ag150
ag120
ag149
ag150
ag150
ag151
ag151
ag120
ag120
ag149
ag150
ag120
ag120
ag150
ag149
asS'is_normalized_entropy_less_than_threshold'
p156
(lp157
g50
(g51
(S'b1'
p158
I0
I1
tp159
Rp160
(I3
S'|'
p161
NNNI-1
I-1
I0
tp162
bS'\x01'
p163
tp164
Rp165
ag165
ag50
(g160
S'\x00'
p166
tp167
Rp168
ag168
ag165
ag168
ag165
ag168
ag165
ag165
ag168
ag165
ag168
ag168
ag168
ag165
ag165
ag165
ag168
ag165
ag165
asaa(lp169
S'index'
p170
aI64468
aatp171
Rp172
.