ccollections
OrderedDict
p0
((lp1
(lp2
S'combination_dict'
p3
ag0
((lp4
(lp5
S'r_to_g_config'
p6
aS'tr'
p7
aa(lp8
S'num_turns'
p9
aI3
aa(lp10
S'start_direction'
p11
acutils_ms
StartDirection
p12
(I1
tp13
Rp14
aa(lp15
S'assistance_type'
p16
acutils_ms
AssistanceType
p17
(I1
tp18
Rp19
aa(lp20
S'start_mode'
p21
aS't'
p22
aa(lp23
S'ui_given_a_noise'
p24
aF0.1
aa(lp25
S'um_given_ui_noise'
p26
aF0.1
aa(lp27
S'entropy_threshold'
p28
aF0.9
aatp29
Rp30
aa(lp31
S'data'
p32
accollections
defaultdict
p33
(c__builtin__
list
p34
tp35
Rp36
S'a'
p37
(lp38
S'mode_l'
p39
aS'move_p'
p40
ag39
ag40
ag39
ag40
ag39
ag40
ag39
ag39
ag40
asS'assistance_match_with_ground_truth'
p41
(lp42
I01
aI01
aI01
aI01
aI01
aI01
aI01
aI01
aI00
aI01
aI01
asS'is_u_intended_equals_um'
p43
(lp44
I01
aI00
aI00
aI01
aI01
aI01
aI01
aI01
aI01
aI01
aI01
asS'total_steps'
p45
I11
sS'normalized_h_of_p_ui_given_um'
p46
(lp47
cnumpy.core.multiarray
scalar
p48
(cnumpy
dtype
p49
(S'f8'
p50
I0
I1
tp51
Rp52
(I3
S'<'
p53
NNNI-1
I-1
I0
tp54
bS'<\xeb\xff\xa8:,\x93?'
p55
tp56
Rp57
ag48
(g52
S'\xfdA\x11\x9a\t\xba\xe2?'
p58
tp59
Rp60
ag48
(g52
S'\xfbF\xb1n\xbc}\xe2?'
p61
tp62
Rp63
ag48
(g52
S'FKW\x94o\xfe\xa2?'
p64
tp65
Rp66
ag48
(g52
S'<\xeb\xff\xa8:,\x93?'
p67
tp68
Rp69
ag48
(g52
S'FKW\x94o\xfe\xa2?'
p70
tp71
Rp72
ag48
(g52
S'<\xeb\xff\xa8:,\x93?'
p73
tp74
Rp75
ag48
(g52
S'FKW\x94o\xfe\xa2?'
p76
tp77
Rp78
ag48
(g52
S'\xe6\xe7\x1an\xd4\x13\xe0?'
p79
tp80
Rp81
ag48
(g52
S'<\xeb\xff\xa8:,\x93?'
p82
tp83
Rp84
ag48
(g52
S'FKW\x94o\xfe\xa2?'
p85
tp86
Rp87
asS'sp'
p88
(lp89
(S'p0'
p90
I0
S'y'
p91
tp92
a(S'p1'
p93
I0
g91
tp94
a(g93
I0
S'x'
p95
tp96
a(S'p2'
p97
I0
g95
tp98
a(g97
I0
S't'
p99
tp100
a(g97
F1.5707963267948966
g99
tp101
a(g97
F1.5707963267948966
g91
tp102
a(S'p3'
p103
F1.5707963267948966
g91
tp104
a(g103
F1.5707963267948966
g91
tp105
a(g103
F1.5707963267948966
g95
tp106
a(S'p4'
p107
F1.5707963267948966
g95
tp108
asS's'
p109
(lp110
(g90
I0
g22
tp111
ag92
ag94
ag96
ag98
ag100
ag101
ag102
ag104
ag105
ag106
asS'ui'
p112
(lp113
S'hs'
p114
ag114
ag114
ag88
ag114
ag88
ag114
ag88
aS'ss'
p115
ag114
ag88
asS'um_before'
p116
(lp117
g114
ag114
ag88
ag88
ag114
ag88
ag114
ag88
ag115
ag114
ag88
asS'um_after'
p118
(lp119
g114
ag88
ag114
ag88
ag114
ag88
ag114
ag88
ag115
ag114
ag88
asS'is_normalized_entropy_less_than_threshold'
p120
(lp121
g48
(g49
(S'b1'
p122
I0
I1
tp123
Rp124
(I3
S'|'
p125
NNNI-1
I-1
I0
tp126
bS'\x01'
p127
tp128
Rp129
ag129
ag129
ag129
ag129
ag129
ag129
ag129
ag129
ag129
ag129
asaa(lp130
S'index'
p131
aI26441
aatp132
Rp133
.