ccollections
OrderedDict
p0
((lp1
(lp2
S'combination_dict'
p3
ag0
((lp4
(lp5
S'r_to_g_config'
p6
aS'bl'
p7
aa(lp8
S'num_turns'
p9
aI2
aa(lp10
S'start_direction'
p11
acutils_ms
StartDirection
p12
(I1
tp13
Rp14
aa(lp15
S'assistance_type'
p16
acutils_ms
AssistanceType
p17
(I0
tp18
Rp19
aa(lp20
S'start_mode'
p21
aS't'
p22
aa(lp23
S'ui_given_a_noise'
p24
aF0.5
aa(lp25
S'um_given_ui_noise'
p26
aF0.1
aa(lp27
S'entropy_threshold'
p28
aF0.8
aatp29
Rp30
aa(lp31
S'data'
p32
accollections
defaultdict
p33
(c__builtin__
list
p34
tp35
Rp36
S'a'
p37
(lp38
S'mode_l'
p39
ag39
ag39
aS'mode_r'
p40
aS'move_n'
p41
ag40
aS'move_p'
p42
ag42
ag42
ag40
ag41
ag40
ag41
asS'assistance_match_with_ground_truth'
p43
(lp44
I00
aI00
aI00
aI01
aI01
aI01
aI00
aI00
aI01
aI01
aI01
aI01
aI01
asS'is_u_intended_equals_um'
p45
(lp46
I01
aI01
aI01
aI01
aI01
aI01
aI01
aI01
aI01
aI01
aI01
aI01
aI01
asS'total_steps'
p47
I13
sS'normalized_h_of_p_ui_given_um'
p48
(lp49
cnumpy.core.multiarray
scalar
p50
(cnumpy
dtype
p51
(S'f8'
p52
I0
I1
tp53
Rp54
(I3
S'<'
p55
NNNI-1
I-1
I0
tp56
bS'\reS\\\xf8^\xd8?'
p57
tp58
Rp59
ag50
(g54
S'\reS\\\xf8^\xd8?'
p60
tp61
Rp62
ag50
(g54
S'\x89\xa3\xaf\x83^\xf9\xe2?'
p63
tp64
Rp65
ag50
(g54
S'\x8dS\xb1\xca\x05\xc0\xc2?'
p66
tp67
Rp68
ag50
(g54
S'\x00\xe67n\x80\xa8\xa3?'
p69
tp70
Rp71
ag50
(g54
S'\x8dS\xb1\xca\x05\xc0\xc2?'
p72
tp73
Rp74
ag50
(g54
S'4\xac\x0c|\x02\x7f\xcf?'
p75
tp76
Rp77
ag50
(g54
S'4\xac\x0c|\x02\x7f\xcf?'
p78
tp79
Rp80
ag50
(g54
S'\x03{\xa8\xd6DO\xbb?'
p81
tp82
Rp83
ag50
(g54
S'\x8dS\xb1\xca\x05\xc0\xc2?'
p84
tp85
Rp86
ag50
(g54
S'\x00\xe67n\x80\xa8\xa3?'
p87
tp88
Rp89
ag50
(g54
S'\x8dS\xb1\xca\x05\xc0\xc2?'
p90
tp91
Rp92
ag50
(g54
S'\x00\xe67n\x80\xa8\xa3?'
p93
tp94
Rp95
asS'sp'
p96
(lp97
(S'p0'
p98
I0
S't'
p99
tp100
ag100
a(g98
I0
S'x'
p101
tp102
a(g98
I0
S'y'
p103
tp104
a(S'p1'
p105
I0
g103
tp106
a(g105
I0
g99
tp107
a(g105
I0
g99
tp108
ag108
a(g105
F1.5707963267948966
g99
tp109
a(g105
F1.5707963267948966
g101
tp110
a(S'p2'
p111
F1.5707963267948966
g101
tp112
a(g111
F1.5707963267948966
g103
tp113
a(S'p3'
p114
F1.5707963267948966
g103
tp115
asS's'
p116
(lp117
(g98
I0
g22
tp118
ag100
ag100
ag102
ag104
ag106
ag107
ag108
ag108
ag109
ag110
ag112
ag113
asS'ui'
p119
(lp120
S'ss'
p121
ag121
aS'hp'
p122
ag122
ag121
ag122
ag121
ag121
ag96
ag122
ag121
ag122
ag121
asS'um_before'
p123
(lp124
g121
ag121
ag122
ag122
ag121
ag122
ag121
ag121
ag96
ag122
ag121
ag122
ag121
asS'um_after'
p125
(lp126
g121
ag121
ag122
ag122
ag121
ag122
ag121
ag121
ag96
ag122
ag121
ag122
ag121
asS'is_normalized_entropy_less_than_threshold'
p127
(lp128
g50
(g51
(S'b1'
p129
I0
I1
tp130
Rp131
(I3
S'|'
p132
NNNI-1
I-1
I0
tp133
bS'\x01'
p134
tp135
Rp136
ag136
ag136
ag136
ag136
ag136
ag136
ag136
ag136
ag136
ag136
ag136
ag136
asaa(lp137
S'index'
p138
aI73235
aatp139
Rp140
.