ccollections
OrderedDict
p0
((lp1
(lp2
S'combination_dict'
p3
ag0
((lp4
(lp5
S'r_to_g_config'
p6
aS'tl'
p7
aa(lp8
S'num_turns'
p9
aI1
aa(lp10
S'start_direction'
p11
acutils_ms
StartDirection
p12
(I0
tp13
Rp14
aa(lp15
S'assistance_type'
p16
acutils_ms
AssistanceType
p17
(I0
tp18
Rp19
aa(lp20
S'start_mode'
p21
aS't'
p22
aa(lp23
S'ui_given_a_noise'
p24
aF0.5
aa(lp25
S'um_given_ui_noise'
p26
aF0.1
aa(lp27
S'entropy_threshold'
p28
aF0.9
aatp29
Rp30
aa(lp31
S'data'
p32
accollections
defaultdict
p33
(c__builtin__
list
p34
tp35
Rp36
S'a'
p37
(lp38
S'mode_r'
p39
ag39
aS'mode_l'
p40
aS'move_n'
p41
ag40
ag40
ag40
ag40
ag39
ag39
ag39
ag40
ag40
ag40
ag41
ag40
ag40
ag39
aS'move_p'
p42
ag42
ag42
ag39
ag39
ag42
ag40
ag39
ag40
ag40
ag42
ag39
ag40
ag42
ag40
ag41
ag40
ag40
ag41
ag39
ag42
ag40
ag40
ag41
ag39
ag42
asS'assistance_match_with_ground_truth'
p43
(lp44
I00
aI00
aI01
aI00
aI00
aI00
aI00
aI00
aI00
aI00
aI00
aI00
aI00
aI01
aI01
aI00
aI00
aI01
aI00
aI00
aI00
aI00
aI01
aI01
aI00
aI00
aI00
aI01
aI00
aI00
aI01
aI00
aI01
aI00
aI00
aI01
aI01
aI01
aI00
aI00
aI01
aI01
aI01
aI01
asS'is_u_intended_equals_um'
p45
(lp46
I01
aI01
aI01
aI01
aI01
aI01
aI01
aI01
aI01
aI01
aI01
aI01
aI01
aI01
aI01
aI01
aI01
aI01
aI01
aI01
aI01
aI00
aI01
aI01
aI01
aI01
aI01
aI01
aI01
aI01
aI01
aI01
aI01
aI01
aI01
aI01
aI01
aI01
aI01
aI01
aI01
aI01
aI01
aI01
asS'total_steps'
p47
I44
sS'normalized_h_of_p_ui_given_um'
p48
(lp49
cnumpy.core.multiarray
scalar
p50
(cnumpy
dtype
p51
(S'f8'
p52
I0
I1
tp53
Rp54
(I3
S'<'
p55
NNNI-1
I-1
I0
tp56
bS'P\xb12\x82\xf9?\xdd?'
p57
tp58
Rp59
ag50
(g54
S'\x8cV\xca\x04@\xa5\xd9?'
p60
tp61
Rp62
ag50
(g54
S'\xbcW\xba\xb3\xb8\xb2\xc9?'
p63
tp64
Rp65
ag50
(g54
S'\xc5h\xc5[\xfd\x03\xd5?'
p66
tp67
Rp68
ag50
(g54
S']\xeb\x9ej\xe3t\xd2?'
p69
tp70
Rp71
ag50
(g54
S'\xce\xde\x1a\x96ON\xd8?'
p72
tp73
Rp74
ag50
(g54
S'\xce\xde\x1a\x96ON\xd8?'
p75
tp76
Rp77
ag50
(g54
S'\x80\xe0[#\x1c:\xda?'
p78
tp79
Rp80
ag50
(g54
S'P\xb12\x82\xf9?\xdd?'
p81
tp82
Rp83
ag50
(g54
S'P\xb12\x82\xf9?\xdd?'
p84
tp85
Rp86
ag50
(g54
S'\x8cV\xca\x04@\xa5\xd9?'
p87
tp88
Rp89
ag50
(g54
S'\xce\xde\x1a\x96ON\xd8?'
p90
tp91
Rp92
ag50
(g54
S'\xce\xde\x1a\x96ON\xd8?'
p93
tp94
Rp95
ag50
(g54
S'\xbcW\xba\xb3\xb8\xb2\xc9?'
p96
tp97
Rp98
ag50
(g54
S'\xb44~\xe14\x0f\xb8?'
p99
tp100
Rp101
ag50
(g54
S']\xeb\x9ej\xe3t\xd2?'
p102
tp103
Rp104
ag50
(g54
S'\x80\xe0[#\x1c:\xda?'
p105
tp106
Rp107
ag50
(g54
S'P\x0b\x82RJ\x0f\xb1?'
p108
tp109
Rp110
ag50
(g54
S'Qc\xff\x03\xee\xb4\xc9?'
p111
tp112
Rp113
ag50
(g54
S'Qc\xff\x03\xee\xb4\xc9?'
p114
tp115
Rp116
ag50
(g54
S'J\xc9T\x82\xd5\xf5\xe7?'
p117
tp118
Rp119
ag50
(g54
S'Bmm\x9dGo\xe4?'
p120
tp121
Rp122
ag50
(g54
S'P\x0b\x82RJ\x0f\xb1?'
p123
tp124
Rp125
ag50
(g54
S'\x06\xc5y0\xc7t\xb5?'
p126
tp127
Rp128
ag50
(g54
S'\x80\xe0[#\x1c:\xda?'
p129
tp130
Rp131
ag50
(g54
S'\x8cV\xca\x04@\xa5\xd9?'
p132
tp133
Rp134
ag50
(g54
S']\xeb\x9ej\xe3t\xd2?'
p135
tp136
Rp137
ag50
(g54
S'\xbcW\xba\xb3\xb8\xb2\xc9?'
p138
tp139
Rp140
ag50
(g54
S'J\xc9T\x82\xd5\xf5\xe7?'
p141
tp142
Rp143
ag50
(g54
S'\x8cV\xca\x04@\xa5\xd9?'
p144
tp145
Rp146
ag50
(g54
S'\xbcW\xba\xb3\xb8\xb2\xc9?'
p147
tp148
Rp149
ag50
(g54
S'Qc\xff\x03\xee\xb4\xc9?'
p150
tp151
Rp152
ag50
(g54
S'\xbcW\xba\xb3\xb8\xb2\xc9?'
p153
tp154
Rp155
ag50
(g54
S'\xc5h\xc5[\xfd\x03\xd5?'
p156
tp157
Rp158
ag50
(g54
S'\xce\xde\x1a\x96ON\xd8?'
p159
tp160
Rp161
ag50
(g54
S'\xbcW\xba\xb3\xb8\xb2\xc9?'
p162
tp163
Rp164
ag50
(g54
S'\xb44~\xe14\x0f\xb8?'
p165
tp166
Rp167
ag50
(g54
S'P\x0b\x82RJ\x0f\xb1?'
p168
tp169
Rp170
ag50
(g54
S'Qc\xff\x03\xee\xb4\xc9?'
p171
tp172
Rp173
ag50
(g54
S'\xce\xde\x1a\x96ON\xd8?'
p174
tp175
Rp176
ag50
(g54
S'\xbcW\xba\xb3\xb8\xb2\xc9?'
p177
tp178
Rp179
ag50
(g54
S'\xb44~\xe14\x0f\xb8?'
p180
tp181
Rp182
ag50
(g54
S'P\x0b\x82RJ\x0f\xb1?'
p183
tp184
Rp185
ag50
(g54
S'\x06\xc5y0\xc7t\xb5?'
p186
tp187
Rp188
asS'sp'
p189
(lp190
(S'p0'
p191
I0
S't'
p192
tp193
a(g191
I0
S'y'
p194
tp195
a(g191
I0
S'x'
p196
tp197
a(g191
I0
g194
tp198
a(g191
I0
g194
tp199
a(g191
I0
g194
tp200
ag200
a(g191
I0
g192
tp201
ag193
ag193
ag195
ag200
ag200
ag197
a(S'p1'
p202
I0
g196
tp203
a(g202
I0
g196
tp204
a(g202
I0
g194
tp205
a(g202
I0
g192
tp206
a(g202
I0
g192
tp207
ag207
a(g202
I0
g194
tp208
ag208
ag206
a(g202
F1.5707963267948966
g192
tp209
a(g202
F1.5707963267948966
g196
tp210
a(g202
F1.5707963267948966
g192
tp211
a(g202
F1.5707963267948966
g192
tp212
a(g202
F1.5707963267948966
g194
tp213
a(g202
F1.5707963267948966
g196
tp214
ag211
ag213
a(g191
F1.5707963267948966
g194
tp215
a(g191
F1.5707963267948966
g196
tp216
a(g191
F1.5707963267948966
g194
tp217
a(g191
F1.5707963267948966
g194
tp218
ag216
a(g202
F1.5707963267948966
g196
tp219
a(g202
F1.5707963267948966
g194
tp220
ag215
ag218
ag216
ag219
ag220
a(S'p2'
p221
F1.5707963267948966
g194
tp222
asS's'
p223
(lp224
(g191
I0
g22
tp225
ag193
ag195
ag197
ag198
ag199
ag200
ag200
ag201
ag193
ag193
ag195
ag200
ag200
ag197
ag203
ag204
ag205
ag206
ag207
ag207
ag208
ag208
ag206
ag209
ag210
ag211
ag212
ag213
ag214
ag211
ag213
ag215
ag216
ag217
ag218
ag216
ag219
ag220
ag215
ag218
ag216
ag219
ag220
asS'ui'
p226
(lp227
S'ss'
p228
aS'hs'
p229
ag229
aS'hp'
p230
ag228
ag228
ag228
ag230
ag228
ag228
ag229
ag228
ag228
ag229
ag228
ag189
ag230
ag230
ag228
ag228
ag189
ag230
ag230
ag189
ag230
ag230
ag230
ag229
ag229
ag229
ag229
ag228
ag229
ag230
ag228
ag229
ag230
ag230
ag228
ag228
ag229
ag228
ag230
ag189
asS'um_before'
p231
(lp232
g228
ag229
ag229
ag230
ag189
ag228
ag228
ag230
ag228
ag228
ag229
ag228
ag228
ag229
ag228
ag189
ag230
ag230
ag228
ag228
ag229
ag189
ag230
ag189
ag230
ag229
ag189
ag229
ag229
ag229
ag229
ag228
ag229
ag230
ag228
ag229
ag228
ag230
ag228
ag228
ag229
ag228
ag230
ag189
asS'um_after'
p233
(lp234
g228
ag229
ag229
ag230
ag189
ag228
ag228
ag230
ag228
ag228
ag229
ag228
ag228
ag229
ag228
ag189
ag230
ag230
ag228
ag228
ag229
aNag230
ag189
ag230
ag229
ag189
ag229
ag229
ag229
ag229
ag228
ag229
ag230
ag228
ag229
ag228
ag230
ag228
ag228
ag229
ag228
ag230
ag189
asS'is_normalized_entropy_less_than_threshold'
p235
(lp236
g50
(g51
(S'b1'
p237
I0
I1
tp238
Rp239
(I3
S'|'
p240
NNNI-1
I-1
I0
tp241
bS'\x01'
p242
tp243
Rp244
ag244
ag244
ag244
ag244
ag244
ag244
ag244
ag244
ag244
ag244
ag244
ag244
ag244
ag244
ag244
ag244
ag244
ag244
ag244
ag244
ag244
ag244
ag244
ag244
ag244
ag244
ag244
ag244
ag244
ag244
ag244
ag244
ag244
ag244
ag244
ag244
ag244
ag244
ag244
ag244
ag244
ag244
ag244
asaa(lp245
S'index'
p246
aI29243
aatp247
Rp248
.