ccollections
OrderedDict
p0
((lp1
(lp2
S'combination_dict'
p3
ag0
((lp4
(lp5
S'r_to_g_config'
p6
aS'tr'
p7
aa(lp8
S'num_turns'
p9
aI2
aa(lp10
S'start_direction'
p11
acutils_ms
StartDirection
p12
(I1
tp13
Rp14
aa(lp15
S'assistance_type'
p16
acutils_ms
AssistanceType
p17
(I0
tp18
Rp19
aa(lp20
S'start_mode'
p21
aS'x'
p22
aa(lp23
S'ui_given_a_noise'
p24
aF0.7
aa(lp25
S'um_given_ui_noise'
p26
aF0.5
aa(lp27
S'entropy_threshold'
p28
aF0.7
aatp29
Rp30
aa(lp31
S'data'
p32
accollections
defaultdict
p33
(c__builtin__
list
p34
tp35
Rp36
S'a'
p37
(lp38
S'mode_r'
p39
aS'mode_l'
p40
ag39
aS'move_p'
p41
ag39
ag41
ag39
ag41
ag39
ag41
ag39
ag39
ag39
ag39
ag41
ag39
ag39
ag41
ag40
ag39
ag40
ag40
ag40
ag40
ag40
ag40
ag39
ag39
ag39
ag40
ag41
ag39
ag41
asS'assistance_match_with_ground_truth'
p42
(lp43
I00
aI00
aI01
aI01
aI01
aI01
aI01
aI00
aI01
aI00
aI00
aI00
aI00
aI01
aI01
aI00
aI01
aI00
aI00
aI00
aI00
aI00
aI00
aI00
aI00
aI00
aI00
aI00
aI00
aI01
aI01
aI01
aI01
asS'is_u_intended_equals_um'
p44
(lp45
I01
aI00
aI01
aI01
aI01
aI01
aI01
aI01
aI01
aI01
aI00
aI00
aI00
aI01
aI01
aI00
aI01
aI00
aI00
aI01
aI01
aI01
aI01
aI01
aI01
aI00
aI00
aI00
aI01
aI01
aI01
aI01
aI01
asS'total_steps'
p46
I33
sS'normalized_h_of_p_ui_given_um'
p47
(lp48
cnumpy.core.multiarray
scalar
p49
(cnumpy
dtype
p50
(S'f8'
p51
I0
I1
tp52
Rp53
(I3
S'<'
p54
NNNI-1
I-1
I0
tp55
bS'\x96s\x00\xfe<m\xef?'
p56
tp57
Rp58
ag49
(g53
S'\x84n,)\xb9h\xea?'
p59
tp60
Rp61
ag49
(g53
S'*\x82\xbe\x11\xff3\xd8?'
p62
tp63
Rp64
ag49
(g53
S'\x88X\x1fq\xe4%\xd8?'
p65
tp66
Rp67
ag49
(g53
S'*\x82\xbe\x11\xff3\xd8?'
p68
tp69
Rp70
ag49
(g53
S'\x88X\x1fq\xe4%\xd8?'
p71
tp72
Rp73
ag49
(g53
S'*\x82\xbe\x11\xff3\xd8?'
p74
tp75
Rp76
ag49
(g53
S'\xa73l\xe7&\x0c\xe3?'
p77
tp78
Rp79
ag49
(g53
S'*\x82\xbe\x11\xff3\xd8?'
p80
tp81
Rp82
ag49
(g53
S'\xa73l\xe7&\x0c\xe3?'
p83
tp84
Rp85
ag49
(g53
S'\x8f\xf3\xc8Id<\xea?'
p86
tp87
Rp88
ag49
(g53
S"\x04\x91\xf5'\xc5\x1b\xe4?"
p89
tp90
Rp91
ag49
(g53
S"\x04\x91\xf5'\xc5\x1b\xe4?"
p92
tp93
Rp94
ag49
(g53
S'*\x82\xbe\x11\xff3\xd8?'
p95
tp96
Rp97
ag49
(g53
S'\x88X\x1fq\xe4%\xd8?'
p98
tp99
Rp100
ag49
(g53
S"\x04\x91\xf5'\xc5\x1b\xe4?"
p101
tp102
Rp103
ag49
(g53
S'*\x82\xbe\x11\xff3\xd8?'
p104
tp105
Rp106
ag49
(g53
S'\xack\xf8\xe1\xec;\xee?'
p107
tp108
Rp109
ag49
(g53
S'\x84n,)\xb9h\xea?'
p110
tp111
Rp112
ag49
(g53
S'\x96s\x00\xfe<m\xef?'
p113
tp114
Rp115
ag49
(g53
S'\xe2\xabbQ\xd2\x1d\xe8?'
p116
tp117
Rp118
ag49
(g53
S'(\xde\x11\xb9Q\x96\xec?'
p119
tp120
Rp121
ag49
(g53
S'(\xde\x11\xb9Q\x96\xec?'
p122
tp123
Rp124
ag49
(g53
S'(\xde\x11\xb9Q\x96\xec?'
p125
tp126
Rp127
ag49
(g53
S'\xe2\xabbQ\xd2\x1d\xe8?'
p128
tp129
Rp130
ag49
(g53
S'\x84n,)\xb9h\xea?'
p131
tp132
Rp133
ag49
(g53
S'\x8f\xf3\xc8Id<\xea?'
p134
tp135
Rp136
ag49
(g53
S"\x04\x91\xf5'\xc5\x1b\xe4?"
p137
tp138
Rp139
ag49
(g53
S'\x96s\x00\xfe<m\xef?'
p140
tp141
Rp142
ag49
(g53
S'\xfah\xc3\x89\x0b\xd3\xe0?'
p143
tp144
Rp145
ag49
(g53
S'\x88X\x1fq\xe4%\xd8?'
p146
tp147
Rp148
ag49
(g53
S'*\x82\xbe\x11\xff3\xd8?'
p149
tp150
Rp151
ag49
(g53
S'\x88X\x1fq\xe4%\xd8?'
p152
tp153
Rp154
asS'sp'
p155
(lp156
(S'p0'
p157
I0
S't'
p158
tp159
a(g157
I0
S'x'
p160
tp161
a(g157
I0
S'y'
p162
tp163
a(S'p1'
p164
I0
g162
tp165
a(g164
I0
g158
tp166
a(g164
F1.5707963267948966
g158
tp167
a(g164
F1.5707963267948966
g160
tp168
a(g164
F1.5707963267948966
g158
tp169
ag168
ag169
a(g164
F1.5707963267948966
g158
tp170
ag170
ag170
ag168
a(S'p2'
p171
F1.5707963267948966
g160
tp172
ag172
a(g171
F1.5707963267948966
g162
tp173
a(g164
F1.5707963267948966
g162
tp174
a(g164
F1.5707963267948966
g158
tp175
a(g164
F1.5707963267948966
g162
tp176
a(g164
F1.5707963267948966
g162
tp177
a(g164
F1.5707963267948966
g162
tp178
ag178
ag178
ag177
ag175
ag170
ag170
ag176
a(g164
F1.5707963267948966
g160
tp179
ag172
ag173
a(S'p3'
p180
F1.5707963267948966
g162
tp181
asS's'
p182
(lp183
(g157
I0
g22
tp184
ag159
ag161
ag163
ag165
ag166
ag167
ag168
ag169
ag168
ag169
ag170
ag170
ag170
ag168
ag172
ag172
ag173
ag174
ag175
ag176
ag177
ag178
ag178
ag178
ag177
ag175
ag170
ag170
ag176
ag179
ag172
ag173
asS'ui'
p185
(lp186
S'hs'
p187
ag187
aS'hp'
p188
ag155
ag188
ag155
ag188
ag187
ag188
ag187
aS'ss'
p189
ag188
ag189
ag188
ag155
ag188
ag188
ag188
ag187
ag187
ag189
ag188
ag155
ag188
ag189
ag189
ag188
ag188
ag187
ag187
ag188
ag188
ag155
asS'um_before'
p190
(lp191
g187
ag188
ag188
ag155
ag188
ag155
ag188
ag187
ag188
ag187
ag155
ag189
ag189
ag188
ag155
ag189
ag188
ag189
ag188
ag187
ag189
ag155
ag155
ag155
ag189
ag188
ag155
ag189
ag187
ag187
ag155
ag188
ag155
asS'um_after'
p192
(lp193
g187
ag188
ag188
ag155
ag188
ag155
ag188
ag187
ag188
ag187
ag155
aNaNag188
ag155
aNag188
ag189
ag188
ag187
ag189
ag155
ag155
ag155
ag189
ag188
ag155
aNag187
ag187
ag155
ag188
ag155
asS'is_normalized_entropy_less_than_threshold'
p194
(lp195
g49
(g50
(S'b1'
p196
I0
I1
tp197
Rp198
(I3
S'|'
p199
NNNI-1
I-1
I0
tp200
bS'\x00'
p201
tp202
Rp203
ag203
ag49
(g198
S'\x01'
p204
tp205
Rp206
ag206
ag206
ag206
ag206
ag206
ag206
ag206
ag203
ag206
ag206
ag206
ag206
ag206
ag206
ag203
ag203
ag203
ag203
ag203
ag203
ag203
ag203
ag203
ag203
ag206
ag203
ag206
ag206
ag206
ag206
asaa(lp207
S'index'
p208
aI15127
aatp209
Rp210
.