ccollections
OrderedDict
p0
((lp1
(lp2
S'combination_dict'
p3
ag0
((lp4
(lp5
S'r_to_g_config'
p6
aS'bl'
p7
aa(lp8
S'num_turns'
p9
aI2
aa(lp10
S'start_direction'
p11
acutils_ms
StartDirection
p12
(I0
tp13
Rp14
aa(lp15
S'assistance_type'
p16
acutils_ms
AssistanceType
p17
(I1
tp18
Rp19
aa(lp20
S'start_mode'
p21
aS'y'
p22
aa(lp23
S'ui_given_a_noise'
p24
aF0.5
aa(lp25
S'um_given_ui_noise'
p26
aF0.7
aa(lp27
S'entropy_threshold'
p28
aF0.9
aatp29
Rp30
aa(lp31
S'data'
p32
accollections
defaultdict
p33
(c__builtin__
list
p34
tp35
Rp36
S'a'
p37
(lp38
S'mode_l'
p39
aS'mode_r'
p40
ag39
ag39
ag39
ag39
aS'move_n'
p41
ag40
ag41
ag40
ag40
aS'move_p'
p42
ag40
ag42
ag40
ag42
ag40
ag41
asS'assistance_match_with_ground_truth'
p43
(lp44
I00
aI00
aI00
aI00
aI00
aI01
aI01
aI01
aI01
aI00
aI01
aI01
aI00
aI01
aI00
aI01
aI01
aI01
asS'is_u_intended_equals_um'
p45
(lp46
I01
aI00
aI00
aI00
aI00
aI01
aI00
aI01
aI00
aI01
aI00
aI01
aI01
aI01
aI01
aI01
aI00
aI01
asS'total_steps'
p47
I18
sS'normalized_h_of_p_ui_given_um'
p48
(lp49
cnumpy.core.multiarray
scalar
p50
(cnumpy
dtype
p51
(S'f8'
p52
I0
I1
tp53
Rp54
(I3
S'<'
p55
NNNI-1
I-1
I0
tp56
bS'\xfcQ\x9f\xbb\xf9\x03\xec?'
p57
tp58
Rp59
ag50
(g54
S'\x93[\xae"\xcf\x1b\xed?'
p60
tp61
Rp62
ag50
(g54
S'+\xa0k\x05\xfa\xdf\xef?'
p63
tp64
Rp65
ag50
(g54
S"\xeb'\xf2\xe7\xc1\xe4\xec?"
p66
tp67
Rp68
ag50
(g54
S'+\xa0k\x05\xfa\xdf\xef?'
p69
tp70
Rp71
ag50
(g54
S'\xb8\x80\x7f]\x8c#\xe3?'
p72
tp73
Rp74
ag50
(g54
S'\xd4r]\xad\xf1z\xe7?'
p75
tp76
Rp77
ag50
(g54
S'\xb6\x1c!N\xe1\x08\xe4?'
p78
tp79
Rp80
ag50
(g54
S'\xd4r]\xad\xf1z\xe7?'
p81
tp82
Rp83
ag50
(g54
S'\xb2\x14\\\xfbX\x8c\xea?'
p84
tp85
Rp86
ag50
(g54
S'\x126\xbe\x07MM\xeb?'
p87
tp88
Rp89
ag50
(g54
S'^S\x00\x1c\xe7(\xe8?'
p90
tp91
Rp92
ag50
(g54
S'\xb2\x14\\\xfbX\x8c\xea?'
p93
tp94
Rp95
ag50
(g54
S'^S\x00\x1c\xe7(\xe8?'
p96
tp97
Rp98
ag50
(g54
S'\xb2\x14\\\xfbX\x8c\xea?'
p99
tp100
Rp101
ag50
(g54
S'^S\x00\x1c\xe7(\xe8?'
p102
tp103
Rp104
ag50
(g54
S'\x126\xbe\x07MM\xeb?'
p105
tp106
Rp107
ag50
(g54
S'\xd8\xb1q\x19\x1a\xbb\xdb?'
p108
tp109
Rp110
asS'sp'
p111
(lp112
(S'p0'
p113
I0
S't'
p114
tp115
a(g113
I0
S'y'
p116
tp117
a(g113
I0
g116
tp118
a(g113
I0
g116
tp119
ag118
a(g113
I0
S'x'
p120
tp121
a(S'p1'
p122
I0
g120
tp123
a(g122
I0
g116
tp124
a(S'p2'
p125
I0
g116
tp126
a(g125
I0
g116
tp127
a(g125
I0
g114
tp128
a(g125
F1.5707963267948966
g114
tp129
a(g125
I0
g114
tp130
ag129
ag130
ag129
a(g125
F1.5707963267948966
g120
tp131
a(S'p3'
p132
F1.5707963267948966
g120
tp133
asS's'
p134
(lp135
(g113
I0
g22
tp136
ag115
ag117
ag118
ag119
ag118
ag121
ag123
ag124
ag126
ag127
ag128
ag129
ag130
ag129
ag130
ag129
ag131
asS'ui'
p137
(lp138
S'hs'
p139
ag111
ag139
aS'ss'
p140
aS'hp'
p141
ag139
ag140
ag141
ag140
ag141
ag139
ag111
ag111
ag141
ag140
ag111
ag139
ag140
asS'um_before'
p142
(lp143
g141
ag139
ag111
ag140
ag111
ag139
ag141
ag141
ag141
ag140
ag111
ag111
ag140
ag111
ag140
ag111
ag111
ag140
asS'um_after'
p144
(lp145
g141
ag139
ag111
ag140
ag111
ag139
ag140
ag141
ag140
ag140
ag141
ag111
ag140
ag111
ag140
ag111
ag141
ag140
asS'is_normalized_entropy_less_than_threshold'
p146
(lp147
g50
(g51
(S'b1'
p148
I0
I1
tp149
Rp150
(I3
S'|'
p151
NNNI-1
I-1
I0
tp152
bS'\x01'
p153
tp154
Rp155
ag50
(g150
S'\x00'
p156
tp157
Rp158
ag158
ag158
ag158
ag155
ag155
ag155
ag155
ag155
ag155
ag155
ag155
ag155
ag155
ag155
ag155
ag155
asaa(lp159
S'index'
p160
aI70197
aatp161
Rp162
.