ccollections
OrderedDict
p0
((lp1
(lp2
S'combination_dict'
p3
ag0
((lp4
(lp5
S'r_to_g_config'
p6
aS'tl'
p7
aa(lp8
S'num_turns'
p9
aI2
aa(lp10
S'start_direction'
p11
acutils_ms
StartDirection
p12
(I1
tp13
Rp14
aa(lp15
S'assistance_type'
p16
acutils_ms
AssistanceType
p17
(I1
tp18
Rp19
aa(lp20
S'start_mode'
p21
aS't'
p22
aa(lp23
S'ui_given_a_noise'
p24
aF0.3
aa(lp25
S'um_given_ui_noise'
p26
aF0.7
aa(lp27
S'entropy_threshold'
p28
aF0.5
aatp29
Rp30
aa(lp31
S'data'
p32
accollections
defaultdict
p33
(c__builtin__
list
p34
tp35
Rp36
S'a'
p37
(lp38
S'mode_l'
p39
ag39
aS'move_p'
p40
ag40
ag39
ag40
ag40
ag39
aS'move_n'
p41
ag39
ag39
ag39
ag39
ag41
ag39
ag39
aS'mode_r'
p42
ag40
ag42
ag40
ag40
ag42
ag39
ag39
ag41
ag42
ag42
ag41
ag39
ag39
ag40
ag39
ag42
ag42
ag42
ag40
asS'assistance_match_with_ground_truth'
p43
(lp44
I00
aI01
aI00
aI00
aI01
aI00
aI01
aI01
aI00
aI00
aI00
aI00
aI01
aI01
aI00
aI00
aI01
aI00
aI01
aI00
aI00
aI00
aI00
aI01
aI00
aI00
aI01
aI01
aI00
aI01
aI01
aI00
aI00
aI00
aI01
aI01
asS'is_u_intended_equals_um'
p45
(lp46
I00
aI01
aI01
aI00
aI01
aI01
aI01
aI01
aI00
aI00
aI01
aI01
aI01
aI01
aI01
aI00
aI01
aI01
aI01
aI01
aI01
aI00
aI00
aI01
aI01
aI00
aI01
aI01
aI01
aI01
aI01
aI00
aI00
aI00
aI01
aI01
asS'total_steps'
p47
I36
sS'normalized_h_of_p_ui_given_um'
p48
(lp49
cnumpy.core.multiarray
scalar
p50
(cnumpy
dtype
p51
(S'f8'
p52
I0
I1
tp53
Rp54
(I3
S'<'
p55
NNNI-1
I-1
I0
tp56
bS'<\xf50l\x94\xc7\xe7?'
p57
tp58
Rp59
ag50
(g54
S'\xde\xc5;\xaac(\xd2?'
p60
tp61
Rp62
ag50
(g54
S'\x8c\x87K|\xad\xd3\xee?'
p63
tp64
Rp65
ag50
(g54
S'\xf0\x04<^a\xbc\xe9?'
p66
tp67
Rp68
ag50
(g54
S'\xde\xc5;\xaac(\xd2?'
p69
tp70
Rp71
ag50
(g54
S'\x8c\x87K|\xad\xd3\xee?'
p72
tp73
Rp74
ag50
(g54
S'\xe2\x06\xf3x\x16\xa7\xd6?'
p75
tp76
Rp77
ag50
(g54
S'\xde\xc5;\xaac(\xd2?'
p78
tp79
Rp80
ag50
(g54
S'Z\x9b\xee\xc5\x8c!\xe0?'
p81
tp82
Rp83
ag50
(g54
S'<\xf50l\x94\xc7\xe7?'
p84
tp85
Rp86
ag50
(g54
S'\x84\x7f\xbe\x97\x19%\xe8?'
p87
tp88
Rp89
ag50
(g54
S'\x84\x7f\xbe\x97\x19%\xe8?'
p90
tp91
Rp92
ag50
(g54
S'\xde\xc5;\xaac(\xd2?'
p93
tp94
Rp95
ag50
(g54
S'\xc4\x02u\xbc\x0c\xa2\xd3?'
p96
tp97
Rp98
ag50
(g54
S'\x84\x7f\xbe\x97\x19%\xe8?'
p99
tp100
Rp101
ag50
(g54
S'\xaaR\x8d\xe2\xe7\xa4\xef?'
p102
tp103
Rp104
ag50
(g54
S'b\x9b\xa7\xf92f\xe2?'
p105
tp106
Rp107
ag50
(g54
S'\xceyv5\x8c\x18\xe9?'
p108
tp109
Rp110
ag50
(g54
S'b\x9b\xa7\xf92f\xe2?'
p111
tp112
Rp113
ag50
(g54
S'\x8c\x87K|\xad\xd3\xee?'
p114
tp115
Rp116
ag50
(g54
S'\xceyv5\x8c\x18\xe9?'
p117
tp118
Rp119
ag50
(g54
S')\xda:\x0b\x03\x13\xe9?'
p120
tp121
Rp122
ag50
(g54
S'<\xf50l\x94\xc7\xe7?'
p123
tp124
Rp125
ag50
(g54
S'\xde\xc5;\xaac(\xd2?'
p126
tp127
Rp128
ag50
(g54
S'^\xc5\x9ao\xa2m\xe6?'
p129
tp130
Rp131
ag50
(g54
S')\xda:\x0b\x03\x13\xe9?'
p132
tp133
Rp134
ag50
(g54
S'b\x9b\xa7\xf92f\xe2?'
p135
tp136
Rp137
ag50
(g54
S'\xc4\x02u\xbc\x0c\xa2\xd3?'
p138
tp139
Rp140
ag50
(g54
S'\x84\x7f\xbe\x97\x19%\xe8?'
p141
tp142
Rp143
ag50
(g54
S'\xde\xc5;\xaac(\xd2?'
p144
tp145
Rp146
ag50
(g54
S'\xe2\x06\xf3x\x16\xa7\xd6?'
p147
tp148
Rp149
ag50
(g54
S'\xaaR\x8d\xe2\xe7\xa4\xef?'
p150
tp151
Rp152
ag50
(g54
S')\xda:\x0b\x03\x13\xe9?'
p153
tp154
Rp155
ag50
(g54
S')\xda:\x0b\x03\x13\xe9?'
p156
tp157
Rp158
ag50
(g54
S'b\x9b\xa7\xf92f\xe2?'
p159
tp160
Rp161
ag50
(g54
S'\xe2\x06\xf3x\x16\xa7\xd6?'
p162
tp163
Rp164
asS'sp'
p165
(lp166
(S'p0'
p167
I0
S't'
p168
tp169
a(g167
I0
S'y'
p170
tp171
a(g167
I0
g170
tp172
a(g167
I0
g168
tp173
ag171
ag172
a(S'p1'
p174
I0
g170
tp175
a(g174
I0
S'x'
p176
tp177
a(g174
I0
g170
tp178
a(g174
I0
g170
tp179
a(g174
I0
g170
tp180
ag180
ag177
a(S'p2'
p181
I0
g176
tp182
a(g181
I0
g176
tp183
a(g181
I0
g170
tp184
a(g181
I0
g168
tp185
a(g181
I0
g170
tp186
ag185
a(g181
I0
g168
tp187
ag186
a(g174
I0
g170
tp188
ag179
ag177
a(g174
I0
g168
tp189
a(g174
I0
g168
tp190
a(g174
I0
g176
tp191
ag182
ag183
a(g181
I0
g168
tp192
a(g181
F1.5707963267948966
g168
tp193
a(g181
F1.5707963267948966
g176
tp194
a(g181
F1.5707963267948966
g176
tp195
ag195
a(g181
F1.5707963267948966
g170
tp196
a(S'p3'
p197
F1.5707963267948966
g170
tp198
asS's'
p199
(lp200
(g167
I0
g22
tp201
ag169
ag171
ag172
ag173
ag171
ag172
ag175
ag177
ag178
ag179
ag180
ag180
ag177
ag182
ag183
ag184
ag185
ag186
ag185
ag187
ag186
ag188
ag179
ag177
ag189
ag190
ag191
ag182
ag183
ag192
ag193
ag194
ag195
ag195
ag196
asS'ui'
p202
(lp203
S'hs'
p204
ag204
aS'hp'
p205
ag205
ag204
aS'ss'
p206
ag165
ag204
ag206
ag206
ag204
ag204
ag204
ag206
ag204
ag205
ag205
ag205
ag205
ag206
ag204
ag206
ag204
ag204
ag204
ag205
ag205
ag206
ag204
ag204
ag165
ag204
ag165
ag205
ag205
ag165
asS'um_before'
p207
(lp208
g206
ag204
ag206
ag205
ag204
ag206
ag165
ag204
ag205
ag206
ag165
ag165
ag204
ag206
ag165
ag205
ag205
ag204
ag205
ag206
ag204
ag206
ag206
ag204
ag204
ag206
ag205
ag206
ag165
ag204
ag165
ag205
ag206
ag206
ag205
ag165
asS'um_after'
p209
(lp210
g206
ag204
ag206
ag205
ag204
ag206
ag165
ag204
ag205
ag206
ag165
ag165
ag204
ag206
ag165
ag205
ag205
ag204
ag205
ag206
ag204
ag206
ag206
ag204
ag204
ag206
ag205
ag206
ag165
ag204
ag165
ag205
ag206
ag206
ag205
ag165
asS'is_normalized_entropy_less_than_threshold'
p211
(lp212
g50
(g51
(S'b1'
p213
I0
I1
tp214
Rp215
(I3
S'|'
p216
NNNI-1
I-1
I0
tp217
bS'\x00'
p218
tp219
Rp220
ag50
(g215
S'\x01'
p221
tp222
Rp223
ag220
ag220
ag223
ag220
ag223
ag223
ag220
ag220
ag220
ag220
ag223
ag223
ag220
ag220
ag220
ag220
ag220
ag220
ag220
ag220
ag220
ag223
ag220
ag220
ag220
ag223
ag220
ag223
ag223
ag220
ag220
ag220
ag220
ag223
asaa(lp224
S'index'
p225
aI45952
aatp226
Rp227
.