ccollections
OrderedDict
p0
((lp1
(lp2
S'combination_dict'
p3
ag0
((lp4
(lp5
S'r_to_g_config'
p6
aS'tr'
p7
aa(lp8
S'num_turns'
p9
aI1
aa(lp10
S'start_direction'
p11
acutils_ms
StartDirection
p12
(I0
tp13
Rp14
aa(lp15
S'assistance_type'
p16
acutils_ms
AssistanceType
p17
(I1
tp18
Rp19
aa(lp20
S'start_mode'
p21
aS'y'
p22
aa(lp23
S'ui_given_a_noise'
p24
aF0.3
aa(lp25
S'um_given_ui_noise'
p26
aF0.7
aa(lp27
S'entropy_threshold'
p28
aF0.5
aatp29
Rp30
aa(lp31
S'data'
p32
accollections
defaultdict
p33
(c__builtin__
list
p34
tp35
Rp36
S'a'
p37
(lp38
S'mode_l'
p39
aS'move_p'
p40
ag40
ag39
ag40
ag40
ag39
ag40
ag39
aS'mode_r'
p41
ag40
ag39
ag40
ag41
ag39
ag40
ag39
ag41
ag40
ag39
ag40
ag39
ag40
ag41
ag40
asS'assistance_match_with_ground_truth'
p42
(lp43
I01
aI00
aI01
aI01
aI00
aI00
aI01
aI01
aI00
aI01
aI00
aI01
aI00
aI00
aI01
aI00
aI00
aI01
aI00
aI01
aI00
aI01
aI01
aI01
aI01
asS'is_u_intended_equals_um'
p44
(lp45
I00
aI00
aI01
aI01
aI00
aI00
aI00
aI01
aI01
aI01
aI00
aI01
aI01
aI00
aI01
aI00
aI01
aI01
aI00
aI00
aI00
aI00
aI01
aI01
aI01
asS'total_steps'
p46
I25
sS'normalized_h_of_p_ui_given_um'
p47
(lp48
cnumpy.core.multiarray
scalar
p49
(cnumpy
dtype
p50
(S'f8'
p51
I0
I1
tp52
Rp53
(I3
S'<'
p54
NNNI-1
I-1
I0
tp55
bS'\xb3\x87\x8f=\x8d\xe0\xde?'
p56
tp57
Rp58
ag49
(g53
S'\xf6\x8b\x03\x07\xcc\x96\xe1?'
p59
tp60
Rp61
ag49
(g53
S'H\x18\x1aF\xdd\xba\xd6?'
p62
tp63
Rp64
ag49
(g53
S'\xb7\xae\xe0\xb4\xcc\xab\xd9?'
p65
tp66
Rp67
ag49
(g53
S'\xf6\x8b\x03\x07\xcc\x96\xe1?'
p68
tp69
Rp70
ag49
(g53
S'\xd7\x9a\xe5\xdf\xf5N\xed?'
p71
tp72
Rp73
ag49
(g53
S'\xb3\x87\x8f=\x8d\xe0\xde?'
p74
tp75
Rp76
ag49
(g53
S'H\x18\x1aF\xdd\xba\xd6?'
p77
tp78
Rp79
ag49
(g53
S'q\x0b=ED\x9e\xe9?'
p80
tp81
Rp82
ag49
(g53
S'\xab\xc3\xa6\xb4\x0e\x19\xd1?'
p83
tp84
Rp85
ag49
(g53
S'\xd7\x9a\xe5\xdf\xf5N\xed?'
p86
tp87
Rp88
ag49
(g53
S'\xb7\xae\xe0\xb4\xcc\xab\xd9?'
p89
tp90
Rp91
ag49
(g53
S'\x97\xa0\xeb\x9bZ\x07\xe9?'
p92
tp93
Rp94
ag49
(g53
S'pIe\xc5\xdf\x13\xe3?'
p95
tp96
Rp97
ag49
(g53
S'\xb7\xae\xe0\xb4\xcc\xab\xd9?'
p98
tp99
Rp100
ag49
(g53
S'\xd7\x9a\xe5\xdf\xf5N\xed?'
p101
tp102
Rp103
ag49
(g53
S'q\x0b=ED\x9e\xe9?'
p104
tp105
Rp106
ag49
(g53
S'\xab\xc3\xa6\xb4\x0e\x19\xd1?'
p107
tp108
Rp109
ag49
(g53
S'\xd7\x9a\xe5\xdf\xf5N\xed?'
p110
tp111
Rp112
ag49
(g53
S'\xb3\x87\x8f=\x8d\xe0\xde?'
p113
tp114
Rp115
ag49
(g53
S'\xf6\x8b\x03\x07\xcc\x96\xe1?'
p116
tp117
Rp118
ag49
(g53
S'\xb3\x87\x8f=\x8d\xe0\xde?'
p119
tp120
Rp121
ag49
(g53
S'H\x18\x1aF\xdd\xba\xd6?'
p122
tp123
Rp124
ag49
(g53
S'\xab\xc3\xa6\xb4\x0e\x19\xd1?'
p125
tp126
Rp127
ag49
(g53
S'H\x18\x1aF\xdd\xba\xd6?'
p128
tp129
Rp130
asS'sp'
p131
(lp132
(S'p0'
p133
I0
S'x'
p134
tp135
a(g133
I0
g134
tp136
a(S'p1'
p137
I0
g134
tp138
a(g137
I0
S't'
p139
tp140
a(g137
I0
g139
tp141
a(g137
I0
g134
tp142
ag140
a(g137
F1.5707963267948966
g139
tp143
a(g137
F1.5707963267948966
g134
tp144
a(g137
F1.5707963267948966
S'y'
p145
tp146
a(g137
F1.5707963267948966
g139
tp147
a(g137
F1.5707963267948966
g145
tp148
a(g137
F1.5707963267948966
g134
tp149
a(g137
F1.5707963267948966
g139
tp150
ag148
ag147
ag144
ag146
ag147
ag148
a(g133
F1.5707963267948966
g145
tp151
a(g133
F1.5707963267948966
g134
tp152
a(g137
F1.5707963267948966
g134
tp153
ag146
a(S'p2'
p154
F1.5707963267948966
g145
tp155
asS's'
p156
(lp157
(g133
I0
g22
tp158
ag135
ag136
ag138
ag140
ag141
ag142
ag140
ag143
ag144
ag146
ag147
ag148
ag149
ag150
ag148
ag147
ag144
ag146
ag147
ag148
ag151
ag152
ag153
ag146
asS'ui'
p159
(lp160
S'hs'
p161
ag131
ag131
ag161
ag131
ag131
ag161
ag131
aS'hp'
p162
ag162
ag131
ag161
ag131
ag131
ag161
ag162
ag161
ag162
ag162
ag161
ag131
aS'ss'
p163
ag131
ag131
ag131
asS'um_before'
p164
(lp165
g131
ag163
ag131
ag161
ag163
ag162
ag131
ag131
ag162
ag162
ag162
ag161
ag161
ag161
ag161
ag162
ag162
ag162
ag162
ag131
ag163
ag131
ag131
ag162
ag131
asS'um_after'
p166
(lp167
g161
ag163
ag131
ag161
ag163
ag162
ag161
ag131
ag162
ag162
ag162
ag161
ag161
ag161
ag161
ag162
ag162
ag162
ag162
ag161
ag163
ag161
ag131
ag162
ag131
asS'is_normalized_entropy_less_than_threshold'
p168
(lp169
g49
(g50
(S'b1'
p170
I0
I1
tp171
Rp172
(I3
S'|'
p173
NNNI-1
I-1
I0
tp174
bS'\x01'
p175
tp176
Rp177
ag49
(g172
S'\x00'
p178
tp179
Rp180
ag177
ag177
ag180
ag180
ag177
ag177
ag180
ag177
ag180
ag177
ag180
ag180
ag177
ag180
ag180
ag177
ag180
ag177
ag180
ag177
ag177
ag177
ag177
asaa(lp181
S'index'
p182
aI2759
aatp183
Rp184
.