ccollections
OrderedDict
p0
((lp1
(lp2
S'combination_dict'
p3
ag0
((lp4
(lp5
S'r_to_g_config'
p6
aS'tr'
p7
aa(lp8
S'num_turns'
p9
aI2
aa(lp10
S'start_direction'
p11
acutils_ms
StartDirection
p12
(I0
tp13
Rp14
aa(lp15
S'assistance_type'
p16
acutils_ms
AssistanceType
p17
(I1
tp18
Rp19
aa(lp20
S'start_mode'
p21
aS'y'
p22
aa(lp23
S'ui_given_a_noise'
p24
aF0.3
aa(lp25
S'um_given_ui_noise'
p26
aF0.7
aa(lp27
S'entropy_threshold'
p28
aF0.5
aatp29
Rp30
aa(lp31
S'data'
p32
accollections
defaultdict
p33
(c__builtin__
list
p34
tp35
Rp36
S'a'
p37
(lp38
S'mode_l'
p39
ag39
aS'move_p'
p40
ag39
aS'mode_r'
p41
ag39
ag40
ag41
ag40
ag41
ag39
ag40
ag41
ag40
ag40
ag41
ag40
ag39
ag41
ag40
ag39
ag40
ag41
ag40
ag41
ag40
ag41
ag40
ag41
ag40
ag41
ag39
ag40
ag41
ag39
ag41
ag40
ag39
ag39
ag39
ag41
ag40
ag41
ag40
ag40
ag41
ag40
ag41
ag39
ag40
ag39
ag39
ag40
ag41
ag39
ag39
ag39
ag40
ag39
ag40
ag39
ag39
ag39
ag41
ag40
ag41
ag39
ag39
ag39
ag40
ag41
ag40
ag41
ag40
ag39
ag39
ag40
ag41
ag39
ag40
ag41
ag40
ag39
ag39
ag39
ag39
ag39
ag39
ag39
ag39
ag39
ag39
ag40
ag41
ag40
ag39
ag40
ag41
ag40
ag39
ag40
asS'assistance_match_with_ground_truth'
p42
(lp43
I00
aI01
aI00
aI00
aI00
aI01
aI00
aI01
aI00
aI00
aI01
aI00
aI01
aI00
aI01
aI01
aI00
aI00
aI01
aI00
aI01
aI00
aI01
aI01
aI01
aI01
aI01
aI00
aI01
aI00
aI00
aI01
aI00
aI00
aI00
aI01
aI00
aI00
aI00
aI00
aI01
aI01
aI01
aI00
aI01
aI01
aI00
aI00
aI01
aI00
aI00
aI01
aI01
aI00
aI00
aI00
aI01
aI00
aI01
aI00
aI00
aI00
aI00
aI01
aI00
aI00
aI00
aI00
aI01
aI00
aI01
aI01
aI01
aI01
aI00
aI01
aI00
aI00
aI01
aI00
aI01
aI01
aI00
aI00
aI00
aI00
aI00
aI00
aI00
aI00
aI00
aI01
aI00
aI01
aI00
aI01
aI00
aI01
aI01
aI01
aI01
asS'is_u_intended_equals_um'
p44
(lp45
I00
aI01
aI00
aI00
aI01
aI01
aI01
aI00
aI01
aI01
aI01
aI01
aI00
aI00
aI01
aI00
aI00
aI00
aI01
aI00
aI01
aI01
aI01
aI01
aI00
aI01
aI01
aI01
aI01
aI01
aI01
aI01
aI01
aI01
aI00
aI00
aI00
aI00
aI00
aI00
aI01
aI01
aI01
aI00
aI01
aI01
aI00
aI01
aI01
aI00
aI00
aI01
aI01
aI01
aI00
aI00
aI01
aI00
aI01
aI00
aI00
aI00
aI00
aI01
aI01
aI01
aI00
aI00
aI01
aI01
aI01
aI01
aI00
aI01
aI00
aI01
aI01
aI01
aI01
aI00
aI00
aI01
aI00
aI00
aI00
aI00
aI00
aI00
aI00
aI00
aI00
aI01
aI01
aI01
aI00
aI01
aI00
aI00
aI01
aI01
aI01
asS'total_steps'
p46
I101
sS'normalized_h_of_p_ui_given_um'
p47
(lp48
cnumpy.core.multiarray
scalar
p49
(cnumpy
dtype
p50
(S'f8'
p51
I0
I1
tp52
Rp53
(I3
S'<'
p54
NNNI-1
I-1
I0
tp55
bS'\xdfR\xff\xb0x\xb2\xec?'
p56
tp57
Rp58
ag49
(g53
S'\xfd\xcc\x1a^\xa8e\xc8?'
p59
tp60
Rp61
ag49
(g53
S'nb\x0e\xe7\x0c\x19\xea?'
p62
tp63
Rp64
ag49
(g53
S'\x84\xe7\xa8$\xff\x9a\xea?'
p65
tp66
Rp67
ag49
(g53
S'\x1a\x9d\xc0-\x96\xb3\xe1?'
p68
tp69
Rp70
ag49
(g53
S'\xfd\xcc\x1a^\xa8e\xc8?'
p71
tp72
Rp73
ag49
(g53
S'\xb8\xdcC\xc8\xd1\xef\xe6?'
p74
tp75
Rp76
ag49
(g53
S'd\x06*\x02\x1bF\xdd?'
p77
tp78
Rp79
ag49
(g53
S'\xb8\xdcC\xc8\xd1\xef\xe6?'
p80
tp81
Rp82
ag49
(g53
S'\x1a\x9d\xc0-\x96\xb3\xe1?'
p83
tp84
Rp85
ag49
(g53
S'\xfd\xcc\x1a^\xa8e\xc8?'
p86
tp87
Rp88
ag49
(g53
S'\xb8\xdcC\xc8\xd1\xef\xe6?'
p89
tp90
Rp91
ag49
(g53
S'd\x06*\x02\x1bF\xdd?'
p92
tp93
Rp94
ag49
(g53
S'\x06\x14\xa1\x97/\x86\xe2?'
p95
tp96
Rp97
ag49
(g53
S'\x86\x96e%uh\xdd?'
p98
tp99
Rp100
ag49
(g53
S'd\x06*\x02\x1bF\xdd?'
p101
tp102
Rp103
ag49
(g53
S'nb\x0e\xe7\x0c\x19\xea?'
p104
tp105
Rp106
ag49
(g53
S'\x84\xe7\xa8$\xff\x9a\xea?'
p107
tp108
Rp109
ag49
(g53
S'\x02\x08m\x90\x91\xa0\xcb?'
p110
tp111
Rp112
ag49
(g53
S'\x06\x14\xa1\x97/\x86\xe2?'
p113
tp114
Rp115
ag49
(g53
S'\xfd\xcc\x1a^\xa8e\xc8?'
p116
tp117
Rp118
ag49
(g53
S'\xb8\xdcC\xc8\xd1\xef\xe6?'
p119
tp120
Rp121
ag49
(g53
S'\x02\x08m\x90\x91\xa0\xcb?'
p122
tp123
Rp124
ag49
(g53
S'\x86\x96e%uh\xdd?'
p125
tp126
Rp127
ag49
(g53
S'd\x06*\x02\x1bF\xdd?'
p128
tp129
Rp130
ag49
(g53
S'\x86\x96e%uh\xdd?'
p131
tp132
Rp133
ag49
(g53
S'\x02\x08m\x90\x91\xa0\xcb?'
p134
tp135
Rp136
ag49
(g53
S'\xb8\xdcC\xc8\xd1\xef\xe6?'
p137
tp138
Rp139
ag49
(g53
S'\x02\x08m\x90\x91\xa0\xcb?'
p140
tp141
Rp142
ag49
(g53
S'\xb8\xdcC\xc8\xd1\xef\xe6?'
p143
tp144
Rp145
ag49
(g53
S'\x1a\x9d\xc0-\x96\xb3\xe1?'
p146
tp147
Rp148
ag49
(g53
S'\xfd\xcc\x1a^\xa8e\xc8?'
p149
tp150
Rp151
ag49
(g53
S'\xb8\xdcC\xc8\xd1\xef\xe6?'
p152
tp153
Rp154
ag49
(g53
S'\x1a\x9d\xc0-\x96\xb3\xe1?'
p155
tp156
Rp157
ag49
(g53
S'\xdfR\xff\xb0x\xb2\xec?'
p158
tp159
Rp160
ag49
(g53
S'\xae]n\x17\xff\xa3\xdf?'
p161
tp162
Rp163
ag49
(g53
S'nb\x0e\xe7\x0c\x19\xea?'
p164
tp165
Rp166
ag49
(g53
S'#\xf3 ~i*\xe7?'
p167
tp168
Rp169
ag49
(g53
S'#\xf3 ~i*\xe7?'
p170
tp171
Rp172
ag49
(g53
S'\x84\xe7\xa8$\xff\x9a\xea?'
p173
tp174
Rp175
ag49
(g53
S'\x02\x08m\x90\x91\xa0\xcb?'
p176
tp177
Rp178
ag49
(g53
S'\x86\x96e%uh\xdd?'
p179
tp180
Rp181
ag49
(g53
S'\x02\x08m\x90\x91\xa0\xcb?'
p182
tp183
Rp184
ag49
(g53
S'\x06\x14\xa1\x97/\x86\xe2?'
p185
tp186
Rp187
ag49
(g53
S'\x86\x96e%uh\xdd?'
p188
tp189
Rp190
ag49
(g53
S'\x02\x08m\x90\x91\xa0\xcb?'
p191
tp192
Rp193
ag49
(g53
S'\x06\x14\xa1\x97/\x86\xe2?'
p194
tp195
Rp196
ag49
(g53
S'\x1a\x9d\xc0-\x96\xb3\xe1?'
p197
tp198
Rp199
ag49
(g53
S'\xfd\xcc\x1a^\xa8e\xc8?'
p200
tp201
Rp202
ag49
(g53
S'\x06\x14\xa1\x97/\x86\xe2?'
p203
tp204
Rp205
ag49
(g53
S'#\xf3 ~i*\xe7?'
p206
tp207
Rp208
ag49
(g53
S'\xfd\xcc\x1a^\xa8e\xc8?'
p209
tp210
Rp211
ag49
(g53
S'\x86\x96e%uh\xdd?'
p212
tp213
Rp214
ag49
(g53
S'\x1a\x9d\xc0-\x96\xb3\xe1?'
p215
tp216
Rp217
ag49
(g53
S'\xdfR\xff\xb0x\xb2\xec?'
p218
tp219
Rp220
ag49
(g53
S'\xdfR\xff\xb0x\xb2\xec?'
p221
tp222
Rp223
ag49
(g53
S'\xfd\xcc\x1a^\xa8e\xc8?'
p224
tp225
Rp226
ag49
(g53
S'\x06\x14\xa1\x97/\x86\xe2?'
p227
tp228
Rp229
ag49
(g53
S'\xfd\xcc\x1a^\xa8e\xc8?'
p230
tp231
Rp232
ag49
(g53
S'nb\x0e\xe7\x0c\x19\xea?'
p233
tp234
Rp235
ag49
(g53
S'#\xf3 ~i*\xe7?'
p236
tp237
Rp238
ag49
(g53
S'#\xf3 ~i*\xe7?'
p239
tp240
Rp241
ag49
(g53
S'\x84\xe7\xa8$\xff\x9a\xea?'
p242
tp243
Rp244
ag49
(g53
S'\x02\x08m\x90\x91\xa0\xcb?'
p245
tp246
Rp247
ag49
(g53
S'\xb8\xdcC\xc8\xd1\xef\xe6?'
p248
tp249
Rp250
ag49
(g53
S'\x1a\x9d\xc0-\x96\xb3\xe1?'
p251
tp252
Rp253
ag49
(g53
S'\xdfR\xff\xb0x\xb2\xec?'
p254
tp255
Rp256
ag49
(g53
S'#\xf3 ~i*\xe7?'
p257
tp258
Rp259
ag49
(g53
S'\xfd\xcc\x1a^\xa8e\xc8?'
p260
tp261
Rp262
ag49
(g53
S'\xb8\xdcC\xc8\xd1\xef\xe6?'
p263
tp264
Rp265
ag49
(g53
S'\x02\x08m\x90\x91\xa0\xcb?'
p266
tp267
Rp268
ag49
(g53
S'\x86\x96e%uh\xdd?'
p269
tp270
Rp271
ag49
(g53
S'\xae]n\x17\xff\xa3\xdf?'
p272
tp273
Rp274
ag49
(g53
S'\x86\x96e%uh\xdd?'
p275
tp276
Rp277
ag49
(g53
S'#\xf3 ~i*\xe7?'
p278
tp279
Rp280
ag49
(g53
S'\xfd\xcc\x1a^\xa8e\xc8?'
p281
tp282
Rp283
ag49
(g53
S'\xb8\xdcC\xc8\xd1\xef\xe6?'
p284
tp285
Rp286
ag49
(g53
S'\x1a\x9d\xc0-\x96\xb3\xe1?'
p287
tp288
Rp289
ag49
(g53
S'\xfd\xcc\x1a^\xa8e\xc8?'
p290
tp291
Rp292
ag49
(g53
S'\x06\x14\xa1\x97/\x86\xe2?'
p293
tp294
Rp295
ag49
(g53
S'\xae]n\x17\xff\xa3\xdf?'
p296
tp297
Rp298
ag49
(g53
S'\x86\x96e%uh\xdd?'
p299
tp300
Rp301
ag49
(g53
S'#\xf3 ~i*\xe7?'
p302
tp303
Rp304
ag49
(g53
S'#\xf3 ~i*\xe7?'
p305
tp306
Rp307
ag49
(g53
S'#\xf3 ~i*\xe7?'
p308
tp309
Rp310
ag49
(g53
S'\xdfR\xff\xb0x\xb2\xec?'
p311
tp312
Rp313
ag49
(g53
S'#\xf3 ~i*\xe7?'
p314
tp315
Rp316
ag49
(g53
S'\xdfR\xff\xb0x\xb2\xec?'
p317
tp318
Rp319
ag49
(g53
S'#\xf3 ~i*\xe7?'
p320
tp321
Rp322
ag49
(g53
S'\xdfR\xff\xb0x\xb2\xec?'
p323
tp324
Rp325
ag49
(g53
S'#\xf3 ~i*\xe7?'
p326
tp327
Rp328
ag49
(g53
S'\xfd\xcc\x1a^\xa8e\xc8?'
p329
tp330
Rp331
ag49
(g53
S'\xb8\xdcC\xc8\xd1\xef\xe6?'
p332
tp333
Rp334
ag49
(g53
S'\x02\x08m\x90\x91\xa0\xcb?'
p335
tp336
Rp337
ag49
(g53
S'nb\x0e\xe7\x0c\x19\xea?'
p338
tp339
Rp340
ag49
(g53
S'\xfd\xcc\x1a^\xa8e\xc8?'
p341
tp342
Rp343
ag49
(g53
S'\x06\x14\xa1\x97/\x86\xe2?'
p344
tp345
Rp346
ag49
(g53
S'\xae]n\x17\xff\xa3\xdf?'
p347
tp348
Rp349
ag49
(g53
S'\x86\x96e%uh\xdd?'
p350
tp351
Rp352
ag49
(g53
S'\xfd\xcc\x1a^\xa8e\xc8?'
p353
tp354
Rp355
ag49
(g53
S'\x86\x96e%uh\xdd?'
p356
tp357
Rp358
asS'sp'
p359
(lp360
(S'p0'
p361
I0
S'y'
p362
tp363
a(g361
I0
S'x'
p364
tp365
a(g361
I0
g362
tp366
a(g361
I0
S't'
p367
tp368
a(g361
I0
g362
tp369
ag365
a(g361
I0
g367
tp370
a(g361
I0
g364
tp371
ag370
ag369
ag365
ag370
ag371
a(g361
I0
g364
tp372
a(S'p1'
p373
I0
g364
tp374
a(g373
I0
g362
tp375
a(g373
I0
g367
tp376
a(g373
I0
g364
tp377
ag375
a(g361
I0
g362
tp378
ag365
ag370
ag371
ag374
ag375
a(S'p2'
p379
I0
g362
tp380
a(g379
I0
g367
tp381
a(g379
I0
g362
tp382
ag381
ag382
a(g379
I0
g364
tp383
a(g379
I0
g367
tp384
ag382
ag383
a(g373
I0
g364
tp385
ag375
ag376
a(g373
I0
g367
tp386
ag386
ag377
ag375
ag380
ag381
a(g379
I0
g367
tp387
a(g379
F1.5707963267948966
g367
tp388
a(g379
F1.5707963267948966
g364
tp389
a(g373
F1.5707963267948966
g364
tp390
a(g373
F1.5707963267948966
g367
tp391
a(g373
F1.5707963267948966
g362
tp392
a(g361
F1.5707963267948966
g362
tp393
a(g361
F1.5707963267948966
g362
tp394
a(g361
F1.5707963267948966
g364
tp395
a(g373
F1.5707963267948966
g364
tp396
ag391
a(g373
F1.5707963267948966
g367
tp397
ag397
ag392
ag393
ag395
a(g361
F1.5707963267948966
g362
tp398
ag394
ag394
a(g361
F1.5707963267948966
g367
tp399
a(g361
F1.5707963267948966
g364
tp400
a(g361
F1.5707963267948966
g367
tp401
a(g361
F1.5707963267948966
g362
tp402
a(g361
F1.5707963267948966
g362
tp403
ag394
ag395
ag401
ag400
ag396
a(g373
F1.5707963267948966
g362
tp404
a(g379
F1.5707963267948966
g362
tp405
a(g379
F1.5707963267948966
g362
tp406
a(g379
F1.5707963267948966
g364
tp407
a(g379
F1.5707963267948966
g367
tp408
a(g379
F1.5707963267948966
g362
tp409
ag407
ag390
ag404
ag405
ag406
ag406
ag406
a(g379
F1.5707963267948966
g362
tp410
ag406
ag410
ag406
ag410
ag406
ag407
ag408
ag389
a(g379
F1.5707963267948966
g362
tp411
ag407
ag390
ag404
ag405
ag407
a(S'p3'
p412
F1.5707963267948966
g364
tp413
asS's'
p414
(lp415
(g361
I0
g22
tp416
ag363
ag365
ag366
ag368
ag369
ag365
ag370
ag371
ag370
ag369
ag365
ag370
ag371
ag372
ag374
ag375
ag376
ag377
ag375
ag378
ag365
ag370
ag371
ag374
ag375
ag380
ag381
ag382
ag381
ag382
ag383
ag384
ag382
ag383
ag385
ag375
ag376
ag386
ag386
ag377
ag375
ag380
ag381
ag387
ag388
ag389
ag390
ag391
ag392
ag393
ag394
ag395
ag396
ag391
ag397
ag397
ag392
ag393
ag395
ag398
ag394
ag394
ag399
ag400
ag401
ag402
ag403
ag394
ag395
ag401
ag400
ag396
ag404
ag405
ag406
ag407
ag408
ag409
ag407
ag390
ag404
ag405
ag406
ag406
ag406
ag410
ag406
ag410
ag406
ag410
ag406
ag407
ag408
ag389
ag411
ag407
ag390
ag404
ag405
ag407
asS'ui'
p417
(lp418
g359
aS'hs'
p419
ag359
ag359
aS'hp'
p420
ag419
ag359
ag419
ag419
ag419
ag419
ag419
ag420
ag359
ag359
aS'ss'
p421
ag421
ag420
ag420
ag359
ag419
ag419
ag420
ag359
ag420
ag419
ag420
ag421
ag420
ag419
ag420
ag419
ag419
ag420
ag359
ag420
ag359
ag419
ag419
ag420
ag420
ag359
ag420
ag359
ag359
ag420
ag359
ag419
ag419
ag421
ag359
ag419
ag359
ag419
ag359
ag419
ag419
ag359
ag419
ag359
ag419
ag420
ag420
ag420
ag419
ag420
ag421
ag419
ag419
ag359
ag419
ag419
ag419
ag359
ag359
ag419
ag419
ag419
ag419
ag359
ag420
ag359
ag419
ag419
ag419
ag359
ag419
ag419
ag419
ag419
ag359
ag419
ag359
ag420
ag359
ag419
ag359
ag420
ag359
ag419
ag421
asS'um_before'
p422
(lp423
g421
ag419
ag420
ag420
ag419
ag419
ag419
ag421
ag419
ag419
ag419
ag419
ag421
ag421
ag359
ag421
ag420
ag420
ag420
ag421
ag419
ag419
ag420
ag359
ag421
ag359
ag420
ag419
ag420
ag419
ag419
ag419
ag419
ag419
ag421
ag359
ag420
ag359
ag359
ag420
ag420
ag359
ag420
ag421
ag359
ag420
ag421
ag419
ag419
ag421
ag359
ag419
ag359
ag419
ag421
ag421
ag419
ag421
ag419
ag420
ag359
ag359
ag420
ag420
ag419
ag419
ag421
ag359
ag419
ag419
ag420
ag359
ag359
ag359
ag359
ag419
ag419
ag419
ag419
ag421
ag359
ag359
ag359
ag359
ag359
ag421
ag359
ag421
ag359
ag421
ag359
ag419
ag419
ag420
ag420
ag419
ag421
ag359
ag359
ag419
ag359
asS'um_after'
p424
(lp425
g421
ag419
ag420
ag420
ag419
ag419
ag419
ag420
ag419
ag419
ag419
ag419
ag420
ag421
ag359
ag420
ag420
ag420
ag420
ag421
ag419
ag419
ag420
ag359
ag420
ag359
ag420
ag419
ag420
ag419
ag419
ag419
ag419
ag419
ag421
ag420
ag420
ag359
ag359
ag420
ag420
ag359
ag420
ag421
ag359
ag420
ag421
ag419
ag419
ag421
ag359
ag419
ag359
ag419
ag421
ag421
ag419
ag421
ag419
ag420
ag359
ag359
ag420
ag420
ag419
ag419
ag421
ag359
ag419
ag419
ag420
ag359
ag420
ag359
ag359
ag419
ag419
ag419
ag419
ag421
ag420
ag359
ag359
ag359
ag359
ag421
ag359
ag421
ag359
ag421
ag359
ag419
ag419
ag420
ag420
ag419
ag421
ag420
ag359
ag419
ag359
asS'is_normalized_entropy_less_than_threshold'
p426
(lp427
g49
(g50
(S'b1'
p428
I0
I1
tp429
Rp430
(I3
S'|'
p431
NNNI-1
I-1
I0
tp432
bS'\x00'
p433
tp434
Rp435
ag49
(g430
S'\x01'
p436
tp437
Rp438
ag435
ag435
ag435
ag438
ag435
ag438
ag435
ag435
ag438
ag435
ag438
ag435
ag438
ag438
ag435
ag435
ag438
ag435
ag438
ag435
ag438
ag438
ag438
ag438
ag438
ag435
ag438
ag435
ag435
ag438
ag435
ag435
ag435
ag438
ag435
ag435
ag435
ag435
ag438
ag438
ag438
ag435
ag438
ag438
ag435
ag435
ag438
ag435
ag435
ag438
ag438
ag435
ag435
ag435
ag438
ag435
ag438
ag435
ag435
ag435
ag435
ag438
ag435
ag435
ag435
ag435
ag438
ag435
ag438
ag438
ag438
ag438
ag435
ag438
ag435
ag435
ag438
ag435
ag438
ag438
ag435
ag435
ag435
ag435
ag435
ag435
ag435
ag435
ag435
ag438
ag435
ag438
ag435
ag438
ag435
ag438
ag438
ag438
ag438
asaa(lp439
S'index'
p440
aI12358
aatp441
Rp442
.