ccollections
OrderedDict
p0
((lp1
(lp2
S'combination_dict'
p3
ag0
((lp4
(lp5
S'r_to_g_config'
p6
aS'br'
p7
aa(lp8
S'num_turns'
p9
aI2
aa(lp10
S'start_direction'
p11
acutils_ms
StartDirection
p12
(I1
tp13
Rp14
aa(lp15
S'assistance_type'
p16
acutils_ms
AssistanceType
p17
(I0
tp18
Rp19
aa(lp20
S'start_mode'
p21
aS't'
p22
aa(lp23
S'ui_given_a_noise'
p24
aF0.3
aa(lp25
S'um_given_ui_noise'
p26
aF0.5
aa(lp27
S'entropy_threshold'
p28
aF0.9
aatp29
Rp30
aa(lp31
S'data'
p32
accollections
defaultdict
p33
(c__builtin__
list
p34
tp35
Rp36
S'a'
p37
(lp38
S'mode_l'
p39
aS'move_n'
p40
ag40
ag40
ag40
ag39
aS'move_p'
p41
aS'mode_r'
p42
ag42
ag42
ag42
ag42
ag42
ag42
ag42
ag40
ag39
ag41
ag42
ag41
ag41
ag39
ag41
ag41
ag41
ag39
ag39
ag42
ag42
ag42
ag40
ag40
asS'assistance_match_with_ground_truth'
p43
(lp44
I01
aI00
aI00
aI00
aI01
aI01
aI00
aI00
aI00
aI00
aI00
aI00
aI00
aI00
aI01
aI01
aI01
aI00
aI01
aI00
aI01
aI01
aI00
aI00
aI01
aI00
aI00
aI00
aI00
aI01
aI00
aI01
asS'is_u_intended_equals_um'
p45
(lp46
I01
aI00
aI00
aI00
aI01
aI01
aI01
aI00
aI00
aI00
aI00
aI00
aI00
aI00
aI01
aI01
aI01
aI01
aI01
aI00
aI01
aI01
aI01
aI00
aI01
aI00
aI01
aI00
aI00
aI01
aI00
aI01
asS'total_steps'
p47
I32
sS'normalized_h_of_p_ui_given_um'
p48
(lp49
cnumpy.core.multiarray
scalar
p50
(cnumpy
dtype
p51
(S'f8'
p52
I0
I1
tp53
Rp54
(I3
S'<'
p55
NNNI-1
I-1
I0
tp56
bS'\xda\xd0\x97\xa0q3\xd2?'
p57
tp58
Rp59
ag50
(g54
S'1\xa4@\x84\x83f\xeb?'
p60
tp61
Rp62
ag50
(g54
S'\x96\xfd\xb4\xa6\xbc^\xe1?'
p63
tp64
Rp65
ag50
(g54
S'1\xa4@\x84\x83f\xeb?'
p66
tp67
Rp68
ag50
(g54
S'a\x1a\x81\xbe@\xca\xbd?'
p69
tp70
Rp71
ag50
(g54
S'\xda\xd0\x97\xa0q3\xd2?'
p72
tp73
Rp74
ag50
(g54
S'\xea\xd2\xbe+\xd5F\xea?'
p75
tp76
Rp77
ag50
(g54
S'\xc2"B\xe6\xf1\xb8\xe0?'
p78
tp79
Rp80
ag50
(g54
S'\xc7\x16|\xbc\xbe\x96\xe1?'
p81
tp82
Rp83
ag50
(g54
S"\xeat\xbc'\xf3\xff\xe3?"
p84
tp85
Rp86
ag50
(g54
S'\xc2"B\xe6\xf1\xb8\xe0?'
p87
tp88
Rp89
ag50
(g54
S'\xc2"B\xe6\xf1\xb8\xe0?'
p90
tp91
Rp92
ag50
(g54
S'\xc2"B\xe6\xf1\xb8\xe0?'
p93
tp94
Rp95
ag50
(g54
S"\xeat\xbc'\xf3\xff\xe3?"
p96
tp97
Rp98
ag50
(g54
S'\x9cYv}\x1aP\xc5?'
p99
tp100
Rp101
ag50
(g54
S'a\x1a\x81\xbe@\xca\xbd?'
p102
tp103
Rp104
ag50
(g54
S'\xda\xd0\x97\xa0q3\xd2?'
p105
tp106
Rp107
ag50
(g54
S'\x05\xd9\x1b\x036\x0b\xe8?'
p108
tp109
Rp110
ag50
(g54
S'\x9cYv}\x1aP\xc5?'
p111
tp112
Rp113
ag50
(g54
S'\xa4F\xef.\x9di\xe5?'
p114
tp115
Rp116
ag50
(g54
S'\xc4\x05\xb3\xf7\x10?\xdf?'
p117
tp118
Rp119
ag50
(g54
S'\xda\xd0\x97\xa0q3\xd2?'
p120
tp121
Rp122
ag50
(g54
S'\xea\xd2\xbe+\xd5F\xea?'
p123
tp124
Rp125
ag50
(g54
S'\xa4F\xef.\x9di\xe5?'
p126
tp127
Rp128
ag50
(g54
S'\xc4\x05\xb3\xf7\x10?\xdf?'
p129
tp130
Rp131
ag50
(g54
S'`\xe2/\x8fx#\xeb?'
p132
tp133
Rp134
ag50
(g54
S'\xd4(\x03\xa6?\xc6\xe7?'
p135
tp136
Rp137
ag50
(g54
S'\xc2"B\xe6\xf1\xb8\xe0?'
p138
tp139
Rp140
ag50
(g54
S"\xeat\xbc'\xf3\xff\xe3?"
p141
tp142
Rp143
ag50
(g54
S'\x9cYv}\x1aP\xc5?'
p144
tp145
Rp146
ag50
(g54
S"\x07%\xea\xe8'%\xd5?"
p147
tp148
Rp149
ag50
(g54
S'a\x1a\x81\xbe@\xca\xbd?'
p150
tp151
Rp152
asS'sp'
p153
(lp154
(S'p0'
p155
I0
S'y'
p156
tp157
ag157
ag157
ag157
a(S'p1'
p158
I0
g156
tp159
a(g158
I0
S'x'
p160
tp161
a(g155
I0
g160
tp162
ag162
ag162
ag162
ag162
ag162
ag162
ag162
a(g155
I0
g156
tp163
ag159
ag161
a(g158
I0
S't'
p164
tp165
a(g158
I0
g160
tp166
ag166
a(S'p2'
p167
I0
g160
tp168
a(g167
I0
g164
tp169
a(g167
I0
g164
tp170
ag170
a(g167
F1.5707963267948966
g164
tp171
ag171
a(g167
F1.5707963267948966
g160
tp172
ag172
ag172
a(g167
F1.5707963267948966
g156
tp173
ag173
a(S'p3'
p174
F1.5707963267948966
g156
tp175
asS's'
p176
(lp177
(g155
I0
g22
tp178
ag157
ag157
ag157
ag157
ag159
ag161
ag162
ag162
ag162
ag162
ag162
ag162
ag162
ag162
ag163
ag159
ag161
ag165
ag166
ag166
ag168
ag169
ag170
ag170
ag171
ag171
ag172
ag172
ag172
ag173
ag173
asS'ui'
p179
(lp180
S'hs'
p181
aS'ss'
p182
ag182
ag182
ag182
ag153
ag153
aS'hp'
p183
ag183
ag182
ag183
ag183
ag183
ag183
ag183
ag182
ag181
ag181
ag183
ag182
ag182
ag181
ag182
ag183
ag153
ag181
ag181
ag183
ag182
ag183
ag182
ag182
asS'um_before'
p184
(lp185
g181
ag181
ag183
ag181
ag182
ag181
ag182
ag153
ag181
ag182
ag153
ag153
ag153
ag182
ag183
ag182
ag181
ag181
ag183
ag183
ag153
ag181
ag182
ag183
ag153
ag182
ag183
ag153
ag182
ag183
ag153
ag182
asS'um_after'
p186
(lp187
g181
aNaNaNag182
ag181
ag182
aNaNaNaNaNaNaNag183
ag182
ag181
ag181
ag183
aNag153
ag181
ag182
aNag153
aNag183
aNaNag183
aNag182
asS'is_normalized_entropy_less_than_threshold'
p188
(lp189
g50
(g51
(S'b1'
p190
I0
I1
tp191
Rp192
(I3
S'|'
p193
NNNI-1
I-1
I0
tp194
bS'\x01'
p195
tp196
Rp197
ag197
ag197
ag197
ag197
ag197
ag197
ag197
ag197
ag197
ag197
ag197
ag197
ag197
ag197
ag197
ag197
ag197
ag197
ag197
ag197
ag197
ag197
ag197
ag197
ag197
ag197
ag197
ag197
ag197
ag197
ag197
asaa(lp198
S'index'
p199
aI101947
aatp200
Rp201
.