ccollections
OrderedDict
p0
((lp1
(lp2
S'combination_dict'
p3
ag0
((lp4
(lp5
S'r_to_g_config'
p6
aS'tr'
p7
aa(lp8
S'num_turns'
p9
aI3
aa(lp10
S'start_direction'
p11
acutils_ms
StartDirection
p12
(I1
tp13
Rp14
aa(lp15
S'assistance_type'
p16
acutils_ms
AssistanceType
p17
(I0
tp18
Rp19
aa(lp20
S'start_mode'
p21
aS'x'
p22
aa(lp23
S'ui_given_a_noise'
p24
aF0.3
aa(lp25
S'um_given_ui_noise'
p26
aF0.5
aa(lp27
S'entropy_threshold'
p28
aF0.7
aatp29
Rp30
aa(lp31
S'data'
p32
accollections
defaultdict
p33
(c__builtin__
list
p34
tp35
Rp36
S'a'
p37
(lp38
S'mode_r'
p39
aS'move_p'
p40
ag40
aS'mode_l'
p41
ag40
ag41
ag39
ag39
ag40
ag40
ag40
ag40
ag40
ag39
ag39
ag40
ag39
ag39
ag39
ag40
ag40
ag40
ag41
ag40
ag39
ag40
ag39
ag40
ag39
ag40
ag41
ag40
ag40
ag40
ag41
ag40
ag41
ag39
ag39
ag40
ag40
asS'assistance_match_with_ground_truth'
p42
(lp43
I01
aI00
aI01
aI01
aI01
aI00
aI00
aI01
aI00
aI00
aI00
aI00
aI00
aI00
aI01
aI00
aI00
aI00
aI01
aI00
aI00
aI01
aI01
aI00
aI01
aI00
aI01
aI00
aI01
aI01
aI01
aI00
aI00
aI00
aI01
aI00
aI00
aI00
aI01
aI00
aI01
asS'is_u_intended_equals_um'
p44
(lp45
I01
aI00
aI01
aI01
aI01
aI00
aI00
aI01
aI00
aI00
aI00
aI00
aI01
aI00
aI01
aI01
aI00
aI00
aI01
aI00
aI00
aI01
aI01
aI01
aI01
aI01
aI01
aI01
aI01
aI01
aI01
aI00
aI00
aI00
aI01
aI00
aI00
aI00
aI01
aI00
aI01
asS'total_steps'
p46
I41
sS'normalized_h_of_p_ui_given_um'
p47
(lp48
cnumpy.core.multiarray
scalar
p49
(cnumpy
dtype
p50
(S'f8'
p51
I0
I1
tp52
Rp53
(I3
S'<'
p54
NNNI-1
I-1
I0
tp55
bS'\xb6\x8a\xc9\x87pu\xce?'
p56
tp57
Rp58
ag49
(g53
S'|\x19M\x85o\x88\xe4?'
p59
tp60
Rp61
ag49
(g53
S'\xcb>\x19\xae\xea\x95\xc2?'
p62
tp63
Rp64
ag49
(g53
S'h\x9c+\x89V\x94\xc1?'
p65
tp66
Rp67
ag49
(g53
S'\xcb>\x19\xae\xea\x95\xc2?'
p68
tp69
Rp70
ag49
(g53
S'\xce`\xa4\x01/\x9f\xe6?'
p71
tp72
Rp73
ag49
(g53
S'\xb0\r\xc7\xbeB\xad\xe4?'
p74
tp75
Rp76
ag49
(g53
S'\xb6\x8a\xc9\x87pu\xce?'
p77
tp78
Rp79
ag49
(g53
S'|\x19M\x85o\x88\xe4?'
p80
tp81
Rp82
ag49
(g53
S'|\x19M\x85o\x88\xe4?'
p83
tp84
Rp85
ag49
(g53
S'|\x19M\x85o\x88\xe4?'
p86
tp87
Rp88
ag49
(g53
S'|\x19M\x85o\x88\xe4?'
p89
tp90
Rp91
ag49
(g53
S"\x83\xd7\xe9H\xce'\xe4?"
p92
tp93
Rp94
ag49
(g53
S'\xd5\xdbH\x8f~r\xe4?'
p95
tp96
Rp97
ag49
(g53
S'\xb6\x8a\xc9\x87pu\xce?'
p98
tp99
Rp100
ag49
(g53
S"\x83\xd7\xe9H\xce'\xe4?"
p101
tp102
Rp103
ag49
(g53
S'\xd5\xdbH\x8f~r\xe4?'
p104
tp105
Rp106
ag49
(g53
S'R+J\xcf\xf1 \xe6?'
p107
tp108
Rp109
ag49
(g53
S'\xb6\x8a\xc9\x87pu\xce?'
p110
tp111
Rp112
ag49
(g53
S'|\x19M\x85o\x88\xe4?'
p113
tp114
Rp115
ag49
(g53
S'|\x19M\x85o\x88\xe4?'
p116
tp117
Rp118
ag49
(g53
S'\xcb>\x19\xae\xea\x95\xc2?'
p119
tp120
Rp121
ag49
(g53
S'h\x9c+\x89V\x94\xc1?'
p122
tp123
Rp124
ag49
(g53
S"\x83\xd7\xe9H\xce'\xe4?"
p125
tp126
Rp127
ag49
(g53
S'\xb6\x8a\xc9\x87pu\xce?'
p128
tp129
Rp130
ag49
(g53
S"\x83\xd7\xe9H\xce'\xe4?"
p131
tp132
Rp133
ag49
(g53
S'\xb6\x8a\xc9\x87pu\xce?'
p134
tp135
Rp136
ag49
(g53
S"\x83\xd7\xe9H\xce'\xe4?"
p137
tp138
Rp139
ag49
(g53
S'\xb6\x8a\xc9\x87pu\xce?'
p140
tp141
Rp142
ag49
(g53
S'\xcb>\x19\xae\xea\x95\xc2?'
p143
tp144
Rp145
ag49
(g53
S'h\x9c+\x89V\x94\xc1?'
p146
tp147
Rp148
ag49
(g53
S'|\x19M\x85o\x88\xe4?'
p149
tp150
Rp151
ag49
(g53
S'|\x19M\x85o\x88\xe4?'
p152
tp153
Rp154
ag49
(g53
S'\xee{\xe8\x19R\xb2\xea?'
p155
tp156
Rp157
ag49
(g53
S'h\x9c+\x89V\x94\xc1?'
p158
tp159
Rp160
ag49
(g53
S'\xee{\xe8\x19R\xb2\xea?'
p161
tp162
Rp163
ag49
(g53
S'\xce`\xa4\x01/\x9f\xe6?'
p164
tp165
Rp166
ag49
(g53
S'\xd5\xdbH\x8f~r\xe4?'
p167
tp168
Rp169
ag49
(g53
S'\xb6\x8a\xc9\x87pu\xce?'
p170
tp171
Rp172
ag49
(g53
S'|\x19M\x85o\x88\xe4?'
p173
tp174
Rp175
ag49
(g53
S'\xcb>\x19\xae\xea\x95\xc2?'
p176
tp177
Rp178
asS'sp'
p179
(lp180
(S'p0'
p181
I0
S'y'
p182
tp183
ag183
a(S'p1'
p184
I0
g182
tp185
a(g184
I0
S'x'
p186
tp187
a(S'p2'
p188
I0
g186
tp189
a(g188
I0
g182
tp190
ag190
a(g188
I0
S't'
p191
tp192
ag192
ag192
ag192
ag192
a(g188
I0
g182
tp193
ag193
ag192
ag193
ag193
ag193
ag192
ag192
ag192
a(g188
F1.5707963267948966
g191
tp194
a(g188
F1.5707963267948966
g182
tp195
a(g188
F1.5707963267948966
g186
tp196
a(g188
F1.5707963267948966
g182
tp197
ag196
ag197
ag196
ag197
a(S'p3'
p198
F1.5707963267948966
g182
tp199
a(g198
F1.5707963267948966
g186
tp200
ag200
ag200
a(g198
F1.5707963267948966
g182
tp201
ag200
ag201
a(g198
F1.5707963267948966
g191
tp202
ag202
a(g198
F1.5707963267948966
g186
tp203
ag203
a(S'p4'
p204
F1.5707963267948966
g186
tp205
asS's'
p206
(lp207
(g181
I0
g22
tp208
ag183
ag183
ag185
ag187
ag189
ag190
ag190
ag192
ag192
ag192
ag192
ag192
ag193
ag193
ag192
ag193
ag193
ag193
ag192
ag192
ag192
ag194
ag195
ag196
ag197
ag196
ag197
ag196
ag197
ag199
ag200
ag200
ag200
ag201
ag200
ag201
ag202
ag202
ag203
ag203
asS'ui'
p209
(lp210
S'hp'
p211
aS'hs'
p212
aS'ss'
p213
ag212
ag179
ag211
ag211
ag211
ag213
ag179
ag179
ag179
ag212
ag211
ag211
ag179
ag179
ag212
ag211
ag213
ag212
ag179
ag212
ag179
ag211
ag212
ag211
ag212
ag211
ag179
ag212
ag211
ag179
ag179
ag212
ag179
ag212
ag179
ag211
ag179
ag179
asS'um_before'
p214
(lp215
g211
ag213
ag179
ag212
ag179
ag211
ag213
ag211
ag213
ag213
ag213
ag213
ag212
ag179
ag211
ag212
ag179
ag212
ag211
ag213
ag213
ag179
ag212
ag212
ag211
ag212
ag211
ag212
ag211
ag179
ag212
ag213
ag213
ag211
ag212
ag211
ag211
ag179
ag211
ag213
ag179
asS'um_after'
p216
(lp217
g211
aNag179
ag212
ag179
ag211
aNag211
aNaNaNaNag212
aNag211
ag212
aNaNag211
aNaNag179
ag212
ag212
ag211
ag212
ag211
ag212
ag211
ag179
ag212
aNaNag211
ag212
ag211
ag211
aNag211
aNag179
asS'is_normalized_entropy_less_than_threshold'
p218
(lp219
g49
(g50
(S'b1'
p220
I0
I1
tp221
Rp222
(I3
S'|'
p223
NNNI-1
I-1
I0
tp224
bS'\x01'
p225
tp226
Rp227
ag227
ag227
ag227
ag227
ag49
(g222
S'\x00'
p228
tp229
Rp230
ag227
ag227
ag227
ag227
ag227
ag227
ag227
ag227
ag227
ag227
ag227
ag227
ag227
ag227
ag227
ag227
ag227
ag227
ag227
ag227
ag227
ag227
ag227
ag227
ag227
ag227
ag227
ag230
ag227
ag230
ag230
ag227
ag227
ag227
ag227
asaa(lp231
S'index'
p232
aI24329
aatp233
Rp234
.