ccollections
OrderedDict
p0
((lp1
(lp2
S'combination_dict'
p3
ag0
((lp4
(lp5
S'r_to_g_config'
p6
aS'tl'
p7
aa(lp8
S'num_turns'
p9
aI2
aa(lp10
S'start_direction'
p11
acutils_ms
StartDirection
p12
(I0
tp13
Rp14
aa(lp15
S'assistance_type'
p16
acutils_ms
AssistanceType
p17
(I0
tp18
Rp19
aa(lp20
S'start_mode'
p21
aS't'
p22
aa(lp23
S'ui_given_a_noise'
p24
aF0.7
aa(lp25
S'um_given_ui_noise'
p26
aF0.7
aa(lp27
S'entropy_threshold'
p28
aF0.6
aatp29
Rp30
aa(lp31
S'data'
p32
accollections
defaultdict
p33
(c__builtin__
list
p34
tp35
Rp36
S'a'
p37
(lp38
S'mode_r'
p39
ag39
aS'mode_l'
p40
ag40
ag40
ag40
aS'move_n'
p41
ag41
ag40
ag40
ag40
ag40
ag40
ag40
ag40
ag40
ag41
ag40
aS'move_p'
p42
ag40
ag40
ag40
ag40
ag40
ag40
ag40
ag40
ag40
ag40
ag42
ag40
ag40
ag42
ag40
ag40
ag40
ag41
asS'assistance_match_with_ground_truth'
p43
(lp44
I00
aI00
aI00
aI00
aI00
aI01
aI00
aI00
aI00
aI00
aI00
aI00
aI00
aI00
aI00
aI01
aI01
aI01
aI00
aI00
aI00
aI00
aI00
aI00
aI00
aI00
aI00
aI00
aI01
aI01
aI00
aI01
aI01
aI00
aI00
aI01
aI01
asS'is_u_intended_equals_um'
p45
(lp46
I00
aI01
aI00
aI01
aI00
aI01
aI00
aI00
aI01
aI01
aI01
aI01
aI00
aI00
aI00
aI01
aI01
aI01
aI00
aI00
aI01
aI00
aI01
aI01
aI01
aI01
aI01
aI00
aI01
aI01
aI00
aI01
aI01
aI00
aI00
aI01
aI01
asS'total_steps'
p47
I37
sS'normalized_h_of_p_ui_given_um'
p48
(lp49
cnumpy.core.multiarray
scalar
p50
(cnumpy
dtype
p51
(S'f8'
p52
I0
I1
tp53
Rp54
(I3
S'<'
p55
NNNI-1
I-1
I0
tp56
bS'dQ5CKn\xec?'
p57
tp58
Rp59
ag50
(g54
S"\x04\xd4'\x9dfD\xeb?"
p60
tp61
Rp62
ag50
(g54
S'\x86\xe3\xb3fm\xee\xe0?'
p63
tp64
Rp65
ag50
(g54
S'\x02\xf3a\xb2\x9c\x06\xd1?'
p66
tp67
Rp68
ag50
(g54
S'\x86\xe3\xb3fm\xee\xe0?'
p69
tp70
Rp71
ag50
(g54
S'\xc41\xde\xa1S4\xd1?'
p72
tp73
Rp74
ag50
(g54
S'}h\xff\xa5\x9a\xc1\xef?'
p75
tp76
Rp77
ag50
(g54
S'2\xf7|0TX\xeb?'
p78
tp79
Rp80
ag50
(g54
S'\x02\xf3a\xb2\x9c\x06\xd1?'
p81
tp82
Rp83
ag50
(g54
S'\x02\xf3a\xb2\x9c\x06\xd1?'
p84
tp85
Rp86
ag50
(g54
S'\x02\xf3a\xb2\x9c\x06\xd1?'
p87
tp88
Rp89
ag50
(g54
S'\x02\xf3a\xb2\x9c\x06\xd1?'
p90
tp91
Rp92
ag50
(g54
S'\xde+\x9b\x98\xb2$\xdf?'
p93
tp94
Rp95
ag50
(g54
S'\x86\xe3\xb3fm\xee\xe0?'
p96
tp97
Rp98
ag50
(g54
S'\xde+\x9b\x98\xb2$\xdf?'
p99
tp100
Rp101
ag50
(g54
S'\xc41\xde\xa1S4\xd1?'
p102
tp103
Rp104
ag50
(g54
S'x\xa9\xb0\xb1\xf02\xd6?'
p105
tp106
Rp107
ag50
(g54
S'\xc41\xde\xa1S4\xd1?'
p108
tp109
Rp110
ag50
(g54
S'\xdc\xde0\xe8;\xc6\xec?'
p111
tp112
Rp113
ag50
(g54
S'\xde+\x9b\x98\xb2$\xdf?'
p114
tp115
Rp116
ag50
(g54
S'\x02\xf3a\xb2\x9c\x06\xd1?'
p117
tp118
Rp119
ag50
(g54
S'\x86\xe3\xb3fm\xee\xe0?'
p120
tp121
Rp122
ag50
(g54
S'\x02\xf3a\xb2\x9c\x06\xd1?'
p123
tp124
Rp125
ag50
(g54
S'\x02\xf3a\xb2\x9c\x06\xd1?'
p126
tp127
Rp128
ag50
(g54
S'\x02\xf3a\xb2\x9c\x06\xd1?'
p129
tp130
Rp131
ag50
(g54
S'\x02\xf3a\xb2\x9c\x06\xd1?'
p132
tp133
Rp134
ag50
(g54
S'\x02\xf3a\xb2\x9c\x06\xd1?'
p135
tp136
Rp137
ag50
(g54
S'\x86\xe3\xb3fm\xee\xe0?'
p138
tp139
Rp140
ag50
(g54
S'\xc41\xde\xa1S4\xd1?'
p141
tp142
Rp143
ag50
(g54
S'?T\xa1\x08\xb1\xcb\xda?'
p144
tp145
Rp146
ag50
(g54
S'\x86\xe3\xb3fm\xee\xe0?'
p147
tp148
Rp149
ag50
(g54
S'\xc41\xde\xa1S4\xd1?'
p150
tp151
Rp152
ag50
(g54
S'?T\xa1\x08\xb1\xcb\xda?'
p153
tp154
Rp155
ag50
(g54
S'\xde+\x9b\x98\xb2$\xdf?'
p156
tp157
Rp158
ag50
(g54
S'\xde+\x9b\x98\xb2$\xdf?'
p159
tp160
Rp161
ag50
(g54
S'\xc41\xde\xa1S4\xd1?'
p162
tp163
Rp164
ag50
(g54
S'x\xa9\xb0\xb1\xf02\xd6?'
p165
tp166
Rp167
asS'sp'
p168
(lp169
(S'p0'
p170
I0
S't'
p171
tp172
a(g170
I0
S'y'
p173
tp174
ag174
a(g170
I0
g173
tp175
ag175
a(g170
I0
S'x'
p176
tp177
a(g170
I0
g176
tp178
a(g170
I0
g173
tp179
ag175
ag175
ag175
ag175
ag175
ag175
ag175
ag177
a(S'p1'
p180
I0
g176
tp181
a(g180
I0
g171
tp182
a(g180
I0
g176
tp183
ag183
a(g180
I0
g176
tp184
ag184
ag184
ag184
ag184
ag184
ag184
ag184
ag182
a(g180
F1.5707963267948966
g171
tp185
ag185
a(g180
F1.5707963267948966
g173
tp186
a(S'p2'
p187
F1.5707963267948966
g173
tp188
ag188
ag188
a(g187
F1.5707963267948966
g176
tp189
a(S'p3'
p190
F1.5707963267948966
g176
tp191
asS's'
p192
(lp193
(g170
I0
g22
tp194
ag172
ag174
ag174
ag175
ag175
ag177
ag178
ag179
ag175
ag175
ag175
ag175
ag175
ag175
ag175
ag177
ag181
ag182
ag183
ag183
ag184
ag184
ag184
ag184
ag184
ag184
ag184
ag184
ag182
ag185
ag185
ag186
ag188
ag188
ag188
ag189
asS'ui'
p195
(lp196
g168
aS'hp'
p197
aS'hs'
p198
aS'ss'
p199
ag198
ag198
ag168
ag199
ag199
ag199
ag199
ag199
ag198
ag198
ag198
ag199
ag168
ag198
ag198
ag198
ag199
ag198
ag199
ag199
ag199
ag199
ag199
ag199
ag198
ag198
ag199
ag198
ag168
ag198
ag198
ag198
ag199
asS'um_before'
p200
(lp201
g168
ag198
ag197
ag199
ag197
ag198
ag168
ag197
ag199
ag199
ag199
ag199
ag168
ag197
ag168
ag198
ag199
ag198
ag197
ag168
ag199
ag197
ag199
ag199
ag199
ag199
ag199
ag197
ag198
ag168
ag197
ag198
ag168
ag168
ag168
ag198
ag199
asS'um_after'
p202
(lp203
g168
ag198
aNag199
aNag198
ag168
ag197
ag199
ag199
ag199
ag199
aNaNaNag198
ag199
ag198
ag197
aNag199
aNag199
ag199
ag199
ag199
ag199
aNag198
ag168
aNag198
ag168
aNaNag198
ag199
asS'is_normalized_entropy_less_than_threshold'
p204
(lp205
g50
(g51
(S'b1'
p206
I0
I1
tp207
Rp208
(I3
S'|'
p209
NNNI-1
I-1
I0
tp210
bS'\x00'
p211
tp212
Rp213
ag213
ag50
(g208
S'\x01'
p214
tp215
Rp216
ag216
ag216
ag216
ag213
ag213
ag216
ag216
ag216
ag216
ag216
ag216
ag216
ag216
ag216
ag216
ag213
ag216
ag216
ag216
ag216
ag216
ag216
ag216
ag216
ag216
ag216
ag216
ag216
ag216
ag216
ag216
ag216
ag216
ag216
asaa(lp217
S'index'
p218
aI39167
aatp219
Rp220
.