ccollections
OrderedDict
p0
((lp1
(lp2
S'combination_dict'
p3
ag0
((lp4
(lp5
S'r_to_g_config'
p6
aS'tr'
p7
aa(lp8
S'num_turns'
p9
aI3
aa(lp10
S'start_direction'
p11
acutils_ms
StartDirection
p12
(I0
tp13
Rp14
aa(lp15
S'assistance_type'
p16
acutils_ms
AssistanceType
p17
(I2
tp18
Rp19
aa(lp20
S'start_mode'
p21
aS'y'
p22
aa(lp23
S'ui_given_a_noise'
p24
aF0.5
aa(lp25
S'um_given_ui_noise'
p26
aF0.3
aa(lp27
S'entropy_threshold'
p28
aF0.7
aatp29
Rp30
aa(lp31
S'data'
p32
accollections
defaultdict
p33
(c__builtin__
list
p34
tp35
Rp36
S'a'
p37
(lp38
S'mode_l'
p39
aS'move_p'
p40
ag40
aS'mode_r'
p41
ag41
ag39
ag39
ag39
ag39
ag39
ag39
ag40
ag41
ag39
ag40
ag41
ag40
ag39
ag40
ag39
ag40
ag39
ag41
ag41
ag40
ag41
ag39
ag40
ag39
ag40
ag41
ag40
ag41
ag39
ag41
ag40
ag41
ag40
ag39
ag41
ag39
ag40
ag41
ag39
ag39
ag40
ag41
ag40
ag39
ag41
ag41
ag41
ag41
ag40
ag41
ag41
ag41
ag39
ag39
ag41
ag41
ag40
ag41
ag40
ag39
ag40
ag41
ag39
ag40
ag39
ag39
ag39
ag40
ag41
ag39
ag40
ag39
ag40
ag39
ag40
ag40
ag39
ag41
ag39
ag39
ag40
ag39
ag40
ag39
ag40
ag41
ag40
ag39
ag41
ag40
asS'assistance_match_with_ground_truth'
p42
(lp43
I01
aI00
aI00
aI00
aI00
aI00
aI00
aI00
aI00
aI00
aI01
aI00
aI00
aI01
aI00
aI01
aI01
aI01
aI01
aI01
aI00
aI00
aI00
aI01
aI01
aI00
aI01
aI01
aI01
aI00
aI01
aI00
aI00
aI00
aI01
aI00
aI01
aI00
aI00
aI00
aI01
aI00
aI00
aI00
aI01
aI00
aI01
aI01
aI00
aI00
aI00
aI00
aI01
aI00
aI00
aI00
aI00
aI00
aI00
aI00
aI01
aI00
aI01
aI00
aI01
aI01
aI00
aI01
aI00
aI00
aI00
aI01
aI00
aI00
aI00
aI00
aI01
aI00
aI01
aI00
aI01
aI00
aI00
aI00
aI00
aI01
aI01
aI01
aI01
aI01
aI01
aI00
aI00
aI01
aI01
asS'is_u_intended_equals_um'
p44
(lp45
I00
aI00
aI00
aI00
aI00
aI00
aI00
aI00
aI00
aI00
aI00
aI00
aI00
aI00
aI00
aI00
aI00
aI00
aI00
aI00
aI00
aI00
aI00
aI00
aI00
aI00
aI00
aI00
aI00
aI00
aI00
aI00
aI00
aI00
aI00
aI00
aI00
aI00
aI00
aI00
aI00
aI00
aI00
aI00
aI00
aI00
aI00
aI00
aI00
aI00
aI00
aI00
aI00
aI00
aI00
aI00
aI00
aI00
aI00
aI00
aI00
aI00
aI00
aI00
aI00
aI00
aI00
aI00
aI00
aI00
aI00
aI00
aI00
aI00
aI00
aI00
aI00
aI00
aI00
aI00
aI00
aI00
aI00
aI00
aI00
aI00
aI00
aI00
aI00
aI00
aI00
aI00
aI00
aI00
aI00
asS'total_steps'
p46
I95
sS'normalized_h_of_p_ui_given_um'
p47
(lp48
cnumpy.core.multiarray
scalar
p49
(cnumpy
dtype
p50
(S'f8'
p51
I0
I1
tp52
Rp53
(I3
S'<'
p54
NNNI-1
I-1
I0
tp55
bS'B\x8a\xfd\x06]\x97\xe3?'
p56
tp57
Rp58
ag58
ag58
ag58
ag58
ag58
ag58
ag58
ag58
ag58
ag58
ag58
ag58
ag58
ag58
ag58
ag58
ag58
ag58
ag58
ag58
ag58
ag58
ag58
ag58
ag58
ag58
ag58
ag58
ag58
ag58
ag58
ag58
ag58
ag58
ag58
ag58
ag58
ag58
ag58
ag58
ag58
ag58
ag58
ag58
ag58
ag58
ag58
ag58
ag58
ag58
ag58
ag58
ag58
ag58
ag58
ag58
ag58
ag58
ag58
ag58
ag58
ag58
ag58
ag58
ag58
ag58
ag58
ag58
ag58
ag58
ag58
ag58
ag58
ag58
ag58
ag58
ag58
ag58
ag58
ag58
ag58
ag58
ag58
ag58
ag58
ag58
ag58
ag58
ag58
ag58
ag58
ag58
ag58
ag58
asS'sp'
p59
(lp60
(S'p0'
p61
I0
S'x'
p62
tp63
a(g61
I0
g62
tp64
a(g61
I0
S't'
p65
tp66
a(g61
I0
g65
tp67
a(g61
I0
S'y'
p68
tp69
a(g61
I0
g68
tp70
ag70
a(g61
I0
g68
tp71
ag70
ag70
ag63
ag66
ag69
ag63
ag66
a(g61
I0
g62
tp72
a(S'p1'
p73
I0
g62
tp74
a(g73
I0
g65
tp75
a(g73
F1.5707963267948966
g65
tp76
a(g73
F1.5707963267948966
g68
tp77
a(g61
F1.5707963267948966
g68
tp78
a(g61
F1.5707963267948966
g65
tp79
a(g61
F1.5707963267948966
g65
tp80
a(g61
F1.5707963267948966
g62
tp81
a(g73
F1.5707963267948966
g62
tp82
a(g73
F1.5707963267948966
g65
tp83
ag77
a(S'p2'
p84
F1.5707963267948966
g68
tp85
a(g84
F1.5707963267948966
g62
tp86
a(g84
F1.5707963267948966
g65
tp87
a(g84
F1.5707963267948966
g62
tp88
a(g73
F1.5707963267948966
g62
tp89
ag83
a(g73
F1.5707963267948966
g62
tp90
a(g73
F1.5707963267948966
g68
tp91
a(g73
F1.5707963267948966
g62
tp92
ag91
a(g73
F1.5707963267948966
g65
tp93
ag90
ag83
ag77
ag92
ag83
a(g73
F1.5707963267948966
g65
tp94
ag77
ag92
ag91
ag85
a(g84
F1.5707963267948966
g65
tp95
a(g84
F1.5707963267948966
g65
tp96
a(g84
F1.5707963267948966
g65
tp97
ag96
ag88
ag87
ag97
ag96
a(g84
F1.5707963267948966
g68
tp98
a(g84
F1.5707963267948966
g68
tp99
ag95
ag97
ag88
ag87
ag88
a(g84
F1.5707963267948966
g68
tp100
ag86
a(S'p3'
p101
F1.5707963267948966
g62
tp102
a(g101
F1.5707963267948966
g65
tp103
a(g101
F1.5707963267948966
g68
tp104
a(g84
F1.5707963267948966
g68
tp105
a(g84
F1.5707963267948966
g68
tp106
ag99
ag86
ag89
ag83
a(g73
I0
g65
tp107
a(g73
I0
g62
tp108
ag75
ag108
ag75
a(g73
I0
g65
tp109
ag76
ag90
ag83
ag94
ag107
ag76
ag77
ag85
ag86
ag102
a(g101
F1.5707963267948966
g68
tp110
a(g101
F1.5707963267948966
g65
tp111
a(g101
F1.5707963267948966
g62
tp112
ag110
a(S'p4'
p113
F1.5707963267948966
g68
tp114
asS's'
p115
(lp116
(g61
I0
g22
tp117
ag63
ag64
ag66
ag67
ag69
ag70
ag70
ag71
ag70
ag70
ag63
ag66
ag69
ag63
ag66
ag72
ag74
ag75
ag76
ag77
ag78
ag79
ag80
ag81
ag82
ag83
ag77
ag85
ag86
ag87
ag88
ag89
ag83
ag90
ag91
ag92
ag91
ag93
ag90
ag83
ag77
ag92
ag83
ag94
ag77
ag92
ag91
ag85
ag95
ag96
ag97
ag96
ag88
ag87
ag97
ag96
ag98
ag99
ag95
ag97
ag88
ag87
ag88
ag100
ag86
ag102
ag103
ag104
ag105
ag106
ag99
ag86
ag89
ag83
ag107
ag108
ag75
ag108
ag75
ag109
ag76
ag90
ag83
ag94
ag107
ag76
ag77
ag85
ag86
ag102
ag110
ag111
ag112
ag110
asS'ui'
p118
(lp119
S'hs'
p120
ag59
ag120
ag59
ag120
aS'hp'
p121
aS'ss'
p122
ag122
ag120
ag120
ag120
ag59
ag120
ag120
ag120
ag121
ag59
ag120
ag59
ag120
ag59
ag120
ag120
ag121
ag59
ag121
ag120
ag59
ag120
ag120
ag121
ag59
ag59
ag121
ag121
ag120
ag121
ag121
ag121
ag121
ag120
ag120
ag121
ag59
ag120
ag120
ag121
ag59
ag121
ag59
ag120
ag121
ag121
ag59
ag122
ag121
ag120
ag122
ag121
ag121
ag121
ag120
ag121
ag121
ag120
ag59
ag121
ag120
ag59
ag122
ag122
ag120
ag59
ag120
ag122
ag59
ag120
ag59
ag120
ag122
ag59
ag121
ag120
ag59
ag122
ag59
ag120
ag59
ag120
ag120
ag121
ag121
ag121
ag121
ag120
asS'um_before'
p123
(lp124
g120
ag122
ag120
ag59
ag120
ag59
ag59
ag122
ag59
ag59
ag120
ag120
ag120
ag120
ag120
ag121
ag59
ag120
ag59
ag120
ag122
ag121
ag59
ag121
ag59
ag120
ag120
ag59
ag120
ag120
ag121
ag122
ag120
ag121
ag121
ag120
ag121
ag121
ag121
ag120
ag120
ag120
ag120
ag59
ag120
ag120
ag121
ag59
ag121
ag59
ag122
ag59
ag121
ag120
ag122
ag59
ag120
ag122
ag121
ag122
ag121
ag120
ag121
ag121
ag120
ag59
ag120
ag120
ag122
ag59
ag122
ag120
ag122
ag120
ag122
ag121
ag120
ag121
ag120
ag122
ag59
ag121
ag120
ag59
ag122
ag59
ag120
ag59
ag120
ag59
ag121
ag121
ag121
ag121
ag59
asS'um_after'
p125
(lp126
g120
ag122
ag120
ag59
ag120
ag59
ag59
ag122
ag59
ag59
ag120
ag120
ag120
ag120
ag120
ag121
ag59
ag120
ag59
ag120
ag122
ag121
ag59
ag121
ag59
ag120
ag120
ag59
ag120
ag120
ag121
ag122
ag120
ag121
ag121
ag120
ag121
ag121
ag121
ag120
ag120
ag120
ag120
ag59
ag120
ag120
ag121
ag59
ag121
ag59
ag122
ag59
ag121
ag120
ag122
ag59
ag120
ag122
ag121
ag122
ag121
ag120
ag121
ag121
ag120
ag59
ag120
ag120
ag122
ag59
ag122
ag120
ag122
ag120
ag122
ag121
ag120
ag121
ag120
ag122
ag59
ag121
ag120
ag59
ag122
ag59
ag120
ag59
ag120
ag59
ag121
ag121
ag121
ag121
ag59
asS'is_normalized_entropy_less_than_threshold'
p127
(lp128
g49
(g50
(S'b1'
p129
I0
I1
tp130
Rp131
(I3
S'|'
p132
NNNI-1
I-1
I0
tp133
bS'\x01'
p134
tp135
Rp136
ag136
ag136
ag136
ag136
ag136
ag136
ag136
ag136
ag136
ag136
ag136
ag136
ag136
ag136
ag136
ag136
ag136
ag136
ag136
ag136
ag136
ag136
ag136
ag136
ag136
ag136
ag136
ag136
ag136
ag136
ag136
ag136
ag136
ag136
ag136
ag136
ag136
ag136
ag136
ag136
ag136
ag136
ag136
ag136
ag136
ag136
ag136
ag136
ag136
ag136
ag136
ag136
ag136
ag136
ag136
ag136
ag136
ag136
ag136
ag136
ag136
ag136
ag136
ag136
ag136
ag136
ag136
ag136
ag136
ag136
ag136
ag136
ag136
ag136
ag136
ag136
ag136
ag136
ag136
ag136
ag136
ag136
ag136
ag136
ag136
ag136
ag136
ag136
ag136
ag136
ag136
ag136
ag136
ag136
asaa(lp137
S'index'
p138
aI23670
aatp139
Rp140
.