ccollections
OrderedDict
p0
((lp1
(lp2
S'combination_dict'
p3
ag0
((lp4
(lp5
S'r_to_g_config'
p6
aS'tr'
p7
aa(lp8
S'num_turns'
p9
aI2
aa(lp10
S'start_direction'
p11
acutils_ms
StartDirection
p12
(I0
tp13
Rp14
aa(lp15
S'assistance_type'
p16
acutils_ms
AssistanceType
p17
(I0
tp18
Rp19
aa(lp20
S'start_mode'
p21
aS'y'
p22
aa(lp23
S'ui_given_a_noise'
p24
aF0.5
aa(lp25
S'um_given_ui_noise'
p26
aF0.3
aa(lp27
S'entropy_threshold'
p28
aF0.9
aatp29
Rp30
aa(lp31
S'data'
p32
accollections
defaultdict
p33
(c__builtin__
list
p34
tp35
Rp36
S'a'
p37
(lp38
S'mode_l'
p39
aS'move_p'
p40
ag40
ag40
ag40
ag40
ag40
ag40
ag39
ag40
ag39
ag39
ag40
ag39
ag40
ag40
ag40
ag39
ag40
ag39
ag40
ag39
ag40
ag40
ag39
ag40
asS'assistance_match_with_ground_truth'
p41
(lp42
I01
aI00
aI00
aI00
aI00
aI00
aI00
aI01
aI01
aI00
aI00
aI01
aI01
aI01
aI00
aI00
aI01
aI01
aI00
aI01
aI00
aI01
aI00
aI00
aI01
aI01
asS'is_u_intended_equals_um'
p43
(lp44
I01
aI00
aI00
aI00
aI00
aI00
aI00
aI01
aI01
aI01
aI01
aI01
aI01
aI01
aI00
aI00
aI01
aI01
aI01
aI01
aI01
aI01
aI00
aI01
aI01
aI01
asS'total_steps'
p45
I26
sS'normalized_h_of_p_ui_given_um'
p46
(lp47
cnumpy.core.multiarray
scalar
p48
(cnumpy
dtype
p49
(S'f8'
p50
I0
I1
tp51
Rp52
(I3
S'<'
p53
NNNI-1
I-1
I0
tp54
bS'\xed\x9e-y\xfb\x83\xd8?'
p55
tp56
Rp57
ag48
(g52
S'\xbb\xae\x0e\x91\xab\xe7\xea?'
p58
tp59
Rp60
ag48
(g52
S'\xbb\xae\x0e\x91\xab\xe7\xea?'
p61
tp62
Rp63
ag48
(g52
S'U\x1f\t\x083\x93\xe9?'
p64
tp65
Rp66
ag48
(g52
S'\xbb\xae\x0e\x91\xab\xe7\xea?'
p67
tp68
Rp69
ag48
(g52
S'\xbb\xae\x0e\x91\xab\xe7\xea?'
p70
tp71
Rp72
ag48
(g52
S'U\x1f\t\x083\x93\xe9?'
p73
tp74
Rp75
ag48
(g52
S'~\xad\xc6(\xfb~\xd3?'
p76
tp77
Rp78
ag48
(g52
S'\xed\x9e-y\xfb\x83\xd8?'
p79
tp80
Rp81
ag48
(g52
S'\r\xa9\xa4\x82G(\xde?'
p82
tp83
Rp84
ag48
(g52
S'\x9c\xf4\xa7\x03QR\xe0?'
p85
tp86
Rp87
ag48
(g52
S'\xed\x9e-y\xfb\x83\xd8?'
p88
tp89
Rp90
ag48
(g52
S'~\xad\xc6(\xfb~\xd3?'
p91
tp92
Rp93
ag48
(g52
S'\xed\x9e-y\xfb\x83\xd8?'
p94
tp95
Rp96
ag48
(g52
S'\xbb\xae\x0e\x91\xab\xe7\xea?'
p97
tp98
Rp99
ag48
(g52
S'\xbb\xae\x0e\x91\xab\xe7\xea?'
p100
tp101
Rp102
ag48
(g52
S'~\xad\xc6(\xfb~\xd3?'
p103
tp104
Rp105
ag48
(g52
S'\xed\x9e-y\xfb\x83\xd8?'
p106
tp107
Rp108
ag48
(g52
S'\r\xa9\xa4\x82G(\xde?'
p109
tp110
Rp111
ag48
(g52
S'\xed\x9e-y\xfb\x83\xd8?'
p112
tp113
Rp114
ag48
(g52
S'\r\xa9\xa4\x82G(\xde?'
p115
tp116
Rp117
ag48
(g52
S'\xed\x9e-y\xfb\x83\xd8?'
p118
tp119
Rp120
ag48
(g52
S'\xbb\xae\x0e\x91\xab\xe7\xea?'
p121
tp122
Rp123
ag48
(g52
S'\r\xa9\xa4\x82G(\xde?'
p124
tp125
Rp126
ag48
(g52
S'\xed\x9e-y\xfb\x83\xd8?'
p127
tp128
Rp129
ag48
(g52
S'~\xad\xc6(\xfb~\xd3?'
p130
tp131
Rp132
asS'sp'
p133
(lp134
(S'p0'
p135
I0
S'x'
p136
tp137
ag137
ag137
ag137
ag137
ag137
ag137
a(S'p1'
p138
I0
g136
tp139
a(g138
I0
S't'
p140
tp141
a(g138
I0
g136
tp142
a(g138
I0
g136
tp143
ag141
a(g138
F1.5707963267948966
g140
tp144
a(g138
F1.5707963267948966
S'y'
p145
tp146
ag146
ag146
a(S'p2'
p147
F1.5707963267948966
g145
tp148
a(g147
F1.5707963267948966
g136
tp149
a(g147
F1.5707963267948966
g145
tp150
ag149
ag150
ag149
ag149
ag150
ag149
a(S'p3'
p151
F1.5707963267948966
g136
tp152
asS's'
p153
(lp154
(g135
I0
g22
tp155
ag137
ag137
ag137
ag137
ag137
ag137
ag137
ag139
ag141
ag142
ag143
ag141
ag144
ag146
ag146
ag146
ag148
ag149
ag150
ag149
ag150
ag149
ag149
ag150
ag149
asS'ui'
p156
(lp157
S'hs'
p158
aS'ss'
p159
aS'hp'
p160
ag133
ag133
ag133
ag158
ag133
ag158
ag158
ag133
ag158
ag133
ag159
ag133
ag159
ag133
ag158
ag160
ag158
ag160
ag133
ag133
ag160
ag158
ag133
asS'um_before'
p161
(lp162
g158
ag159
ag159
ag158
ag159
ag159
ag158
ag133
ag158
ag160
ag133
ag158
ag133
ag158
ag159
ag159
ag133
ag158
ag160
ag158
ag160
ag158
ag159
ag160
ag158
ag133
asS'um_after'
p163
(lp164
g158
aNaNaNaNaNaNag133
ag158
ag160
ag133
ag158
ag133
ag158
aNaNag133
ag158
ag160
ag158
ag160
ag158
aNag160
ag158
ag133
asS'is_normalized_entropy_less_than_threshold'
p165
(lp166
g48
(g49
(S'b1'
p167
I0
I1
tp168
Rp169
(I3
S'|'
p170
NNNI-1
I-1
I0
tp171
bS'\x01'
p172
tp173
Rp174
ag174
ag174
ag174
ag174
ag174
ag174
ag174
ag174
ag174
ag174
ag174
ag174
ag174
ag174
ag174
ag174
ag174
ag174
ag174
ag174
ag174
ag174
ag174
ag174
ag174
asaa(lp175
S'index'
p176
aI10892
aatp177
Rp178
.