ccollections
OrderedDict
p0
((lp1
(lp2
S'combination_dict'
p3
ag0
((lp4
(lp5
S'r_to_g_config'
p6
aS'tl'
p7
aa(lp8
S'num_turns'
p9
aI3
aa(lp10
S'start_direction'
p11
acutils_ms
StartDirection
p12
(I1
tp13
Rp14
aa(lp15
S'assistance_type'
p16
acutils_ms
AssistanceType
p17
(I1
tp18
Rp19
aa(lp20
S'start_mode'
p21
aS't'
p22
aa(lp23
S'ui_given_a_noise'
p24
aF0.5
aa(lp25
S'um_given_ui_noise'
p26
aF0.3
aa(lp27
S'entropy_threshold'
p28
aF0.7
aatp29
Rp30
aa(lp31
S'data'
p32
accollections
defaultdict
p33
(c__builtin__
list
p34
tp35
Rp36
S'a'
p37
(lp38
S'mode_l'
p39
ag39
aS'move_p'
p40
aS'mode_r'
p41
ag39
ag41
ag40
ag39
aS'move_n'
p42
ag41
ag41
ag41
ag39
ag41
ag42
asS'assistance_match_with_ground_truth'
p43
(lp44
I00
aI01
aI01
aI00
aI00
aI01
aI01
aI01
aI00
aI00
aI00
aI00
aI00
aI01
aI01
asS'is_u_intended_equals_um'
p45
(lp46
I01
aI01
aI00
aI01
aI01
aI01
aI01
aI01
aI00
aI00
aI00
aI01
aI01
aI01
aI01
asS'total_steps'
p47
I15
sS'normalized_h_of_p_ui_given_um'
p48
(lp49
cnumpy.core.multiarray
scalar
p50
(cnumpy
dtype
p51
(S'f8'
p52
I0
I1
tp53
Rp54
(I3
S'<'
p55
NNNI-1
I-1
I0
tp56
bS'v5.\xde\xff\x8e\xeb?'
p57
tp58
Rp59
ag50
(g54
S'n\x01g\x89EJ\xcc?'
p60
tp61
Rp62
ag50
(g54
S'Q\x96oU\xfe\x1b\xe4?'
p63
tp64
Rp65
ag50
(g54
S'W\xc19^\xd8U\xd6?'
p66
tp67
Rp68
ag50
(g54
S'v5.\xde\xff\x8e\xeb?'
p69
tp70
Rp71
ag50
(g54
S'\x1b\x99\xa6`\x0bt\xd2?'
p72
tp73
Rp74
ag50
(g54
S'\xf3\x91\xc35v\xdb\xcc?'
p75
tp76
Rp77
ag50
(g54
S'n\x01g\x89EJ\xcc?'
p78
tp79
Rp80
ag50
(g54
S'\xe6l\x87\xc8PS\xe7?'
p81
tp82
Rp83
ag50
(g54
S'Z\xcb6|UN\xeb?'
p84
tp85
Rp86
ag50
(g54
S'Z\xcb6|UN\xeb?'
p87
tp88
Rp89
ag50
(g54
S'W\xc19^\xd8U\xd6?'
p90
tp91
Rp92
ag50
(g54
S'\xef\xeeRZ\xfd\xf1\xe2?'
p93
tp94
Rp95
ag50
(g54
S'\x1b\x99\xa6`\x0bt\xd2?'
p96
tp97
Rp98
ag50
(g54
S'4\xa3\xd0\xfc\xf0\xa3\xcc?'
p99
tp100
Rp101
asS'sp'
p102
(lp103
(S'p0'
p104
I0
S't'
p105
tp106
a(g104
I0
S'y'
p107
tp108
a(S'p1'
p109
I0
g107
tp110
a(g109
I0
S'x'
p111
tp112
a(S'p2'
p113
I0
g111
tp114
a(g113
I0
g107
tp115
a(S'p3'
p116
I0
g107
tp117
a(g116
I0
g111
tp118
a(g116
I0
g105
tp119
a(g116
I0
g105
tp120
ag120
a(g116
I0
g107
tp121
a(g116
I0
g105
tp122
a(g116
I0
g111
tp123
a(S'p4'
p124
I0
g111
tp125
asS's'
p126
(lp127
(g104
I0
g22
tp128
ag106
ag108
ag110
ag112
ag114
ag115
ag117
ag118
ag119
ag120
ag120
ag121
ag122
ag123
asS'ui'
p129
(lp130
S'hp'
p131
aS'hs'
p132
aS'ss'
p133
ag132
ag133
ag131
ag102
ag132
ag133
ag132
ag133
ag132
ag131
ag131
ag133
asS'um_before'
p134
(lp135
g133
ag132
ag132
ag132
ag133
ag131
ag102
ag132
ag132
ag102
ag102
ag132
ag131
ag131
ag133
asS'um_after'
p136
(lp137
g133
ag132
ag102
ag132
ag133
ag131
ag102
ag132
ag132
ag102
ag102
ag132
ag131
ag131
ag133
asS'is_normalized_entropy_less_than_threshold'
p138
(lp139
g50
(g51
(S'b1'
p140
I0
I1
tp141
Rp142
(I3
S'|'
p143
NNNI-1
I-1
I0
tp144
bS'\x00'
p145
tp146
Rp147
ag50
(g142
S'\x01'
p148
tp149
Rp150
ag150
ag150
ag147
ag150
ag150
ag150
ag147
ag147
ag147
ag150
ag150
ag150
ag150
asaa(lp151
S'index'
p152
aI55671
aatp153
Rp154
.