ccollections
OrderedDict
p0
((lp1
(lp2
S'combination_dict'
p3
ag0
((lp4
(lp5
S'r_to_g_config'
p6
aS'br'
p7
aa(lp8
S'num_turns'
p9
aI2
aa(lp10
S'start_direction'
p11
acutils_ms
StartDirection
p12
(I0
tp13
Rp14
aa(lp15
S'assistance_type'
p16
acutils_ms
AssistanceType
p17
(I0
tp18
Rp19
aa(lp20
S'start_mode'
p21
aS't'
p22
aa(lp23
S'ui_given_a_noise'
p24
aF0.5
aa(lp25
S'um_given_ui_noise'
p26
aF0.7
aa(lp27
S'entropy_threshold'
p28
aF0.7
aatp29
Rp30
aa(lp31
S'data'
p32
accollections
defaultdict
p33
(c__builtin__
list
p34
tp35
Rp36
S'a'
p37
(lp38
S'mode_r'
p39
aS'mode_l'
p40
ag39
aS'move_p'
p41
ag40
ag40
ag40
ag40
ag40
ag40
ag40
ag40
ag40
ag41
ag40
ag39
ag39
ag39
ag40
ag41
ag41
ag41
ag39
ag40
ag40
ag39
ag41
ag41
ag40
ag41
ag40
ag40
ag40
ag41
ag39
ag40
ag39
ag41
ag40
ag39
ag40
ag40
ag40
ag40
ag39
ag41
ag40
aS'move_n'
p42
ag40
ag40
ag41
ag39
ag42
ag42
ag40
ag40
ag40
ag41
asS'assistance_match_with_ground_truth'
p43
(lp44
I00
aI00
aI01
aI00
aI00
aI00
aI00
aI00
aI00
aI00
aI00
aI00
aI01
aI00
aI00
aI00
aI00
aI00
aI01
aI00
aI00
aI00
aI00
aI00
aI00
aI01
aI00
aI00
aI01
aI01
aI00
aI00
aI01
aI00
aI00
aI00
aI01
aI00
aI00
aI00
aI00
aI00
aI00
aI00
aI01
aI01
aI01
aI01
aI00
aI01
aI00
aI01
aI00
aI01
aI00
aI00
aI01
aI01
asS'is_u_intended_equals_um'
p45
(lp46
I00
aI00
aI01
aI00
aI00
aI00
aI00
aI00
aI00
aI00
aI00
aI00
aI01
aI00
aI00
aI00
aI00
aI00
aI01
aI00
aI00
aI00
aI00
aI00
aI00
aI01
aI00
aI00
aI01
aI01
aI00
aI00
aI01
aI00
aI00
aI00
aI01
aI00
aI00
aI00
aI00
aI00
aI00
aI00
aI01
aI01
aI01
aI01
aI00
aI01
aI00
aI01
aI00
aI01
aI00
aI00
aI01
aI01
asS'total_steps'
p47
I58
sS'normalized_h_of_p_ui_given_um'
p48
(lp49
cnumpy.core.multiarray
scalar
p50
(cnumpy
dtype
p51
(S'f8'
p52
I0
I1
tp53
Rp54
(I3
S'<'
p55
NNNI-1
I-1
I0
tp56
bS'\xdac\x9e\x90`\x13\xe8?'
p57
tp58
Rp59
ag50
(g54
S'\x158\xb8\x1a\xea:\xe7?'
p60
tp61
Rp62
ag50
(g54
S'k\x9f\x85\x9bE\x80\xc9?'
p63
tp64
Rp65
ag50
(g54
S'\xb6\x9f\xf8\x11K\xf9\xe7?'
p66
tp67
Rp68
ag50
(g54
S'O[jj2\xaa\xe4?'
p69
tp70
Rp71
ag50
(g54
S'\xca|iG\x98k\xe9?'
p72
tp73
Rp74
ag50
(g54
S'\xca|iG\x98k\xe9?'
p75
tp76
Rp77
ag50
(g54
S'\xca|iG\x98k\xe9?'
p78
tp79
Rp80
ag50
(g54
S'O[jj2\xaa\xe4?'
p81
tp82
Rp83
ag50
(g54
S'O[jj2\xaa\xe4?'
p84
tp85
Rp86
ag50
(g54
S'O[jj2\xaa\xe4?'
p87
tp88
Rp89
ag50
(g54
S'\xca|iG\x98k\xe9?'
p90
tp91
Rp92
ag50
(g54
S'\xfe\r\xb9\xac\x0br\xe4?'
p93
tp94
Rp95
ag50
(g54
S'\xb6\x9f\xf8\x11K\xf9\xe7?'
p96
tp97
Rp98
ag50
(g54
S'\x158\xb8\x1a\xea:\xe7?'
p99
tp100
Rp101
ag50
(g54
S'0O\xbc\xe7\xb8\xa7\xe9?'
p102
tp103
Rp104
ag50
(g54
S'\xfc\xb4\xef\xe6\x7f\xb0\xdb?'
p105
tp106
Rp107
ag50
(g54
S'\xdac\x9e\x90`\x13\xe8?'
p108
tp109
Rp110
ag50
(g54
S'\xfe\r\xb9\xac\x0br\xe4?'
p111
tp112
Rp113
ag50
(g54
S'\x8a\x18d`\x9a|\xe9?'
p114
tp115
Rp116
ag50
(g54
S'\x8a\x18d`\x9a|\xe9?'
p117
tp118
Rp119
ag50
(g54
S'\xe2\xe6Z\x90p\xea\xec?'
p120
tp121
Rp122
ag50
(g54
S'\xdac\x9e\x90`\x13\xe8?'
p123
tp124
Rp125
ag50
(g54
S'\xca|iG\x98k\xe9?'
p126
tp127
Rp128
ag50
(g54
S'\x158\xb8\x1a\xea:\xe7?'
p129
tp130
Rp131
ag50
(g54
S'k\x9f\x85\x9bE\x80\xc9?'
p132
tp133
Rp134
ag50
(g54
S'\x8a\x18d`\x9a|\xe9?'
p135
tp136
Rp137
ag50
(g54
S'\xb6\x9f\xf8\x11K\xf9\xe7?'
p138
tp139
Rp140
ag50
(g54
S'\xfe\r\xb9\xac\x0br\xe4?'
p141
tp142
Rp143
ag50
(g54
S'l\x9cXr\xb2\xbf\xe0?'
p144
tp145
Rp146
ag50
(g54
S'O[jj2\xaa\xe4?'
p147
tp148
Rp149
ag50
(g54
S'O[jj2\xaa\xe4?'
p150
tp151
Rp152
ag50
(g54
S'\xfe\r\xb9\xac\x0br\xe4?'
p153
tp154
Rp155
ag50
(g54
S'\xe2\xe6Z\x90p\xea\xec?'
p156
tp157
Rp158
ag50
(g54
S'\xdac\x9e\x90`\x13\xe8?'
p159
tp160
Rp161
ag50
(g54
S'\x158\xb8\x1a\xea:\xe7?'
p162
tp163
Rp164
ag50
(g54
S'k\x9f\x85\x9bE\x80\xc9?'
p165
tp166
Rp167
ag50
(g54
S'\xb6\x9f\xf8\x11K\xf9\xe7?'
p168
tp169
Rp170
ag50
(g54
S'\x158\xb8\x1a\xea:\xe7?'
p171
tp172
Rp173
ag50
(g54
S'\xdac\x9e\x90`\x13\xe8?'
p174
tp175
Rp176
ag50
(g54
S'O[jj2\xaa\xe4?'
p177
tp178
Rp179
ag50
(g54
S'\xca|iG\x98k\xe9?'
p180
tp181
Rp182
ag50
(g54
S'O[jj2\xaa\xe4?'
p183
tp184
Rp185
ag50
(g54
S'\x158\xb8\x1a\xea:\xe7?'
p186
tp187
Rp188
ag50
(g54
S'k\x9f\x85\x9bE\x80\xc9?'
p189
tp190
Rp191
ag50
(g54
S'l\x9cXr\xb2\xbf\xe0?'
p192
tp193
Rp194
ag50
(g54
S'\xfe\r\xb9\xac\x0br\xe4?'
p195
tp196
Rp197
ag50
(g54
S'\x18\xe9\xabi.\xb4\xdf?'
p198
tp199
Rp200
ag50
(g54
S'\xca|iG\x98k\xe9?'
p201
tp202
Rp203
ag50
(g54
S'\xfe\r\xb9\xac\x0br\xe4?'
p204
tp205
Rp206
ag50
(g54
S'\x8a\x18d`\x9a|\xe9?'
p207
tp208
Rp209
ag50
(g54
S'k\x9f\x85\x9bE\x80\xc9?'
p210
tp211
Rp212
ag50
(g54
S'\xfd\nZ\x7fo\xef\xe4?'
p213
tp214
Rp215
ag50
(g54
S'\x18\xe9\xabi.\xb4\xdf?'
p216
tp217
Rp218
ag50
(g54
S'\xca|iG\x98k\xe9?'
p219
tp220
Rp221
ag50
(g54
S'\xca|iG\x98k\xe9?'
p222
tp223
Rp224
ag50
(g54
S'\xfe\r\xb9\xac\x0br\xe4?'
p225
tp226
Rp227
ag50
(g54
S'l\x9cXr\xb2\xbf\xe0?'
p228
tp229
Rp230
asS'sp'
p231
(lp232
(S'p0'
p233
I0
S'y'
p234
tp235
a(g233
I0
S't'
p236
tp237
a(g233
I0
S'x'
p238
tp239
a(g233
I0
g234
tp240
ag240
a(g233
I0
g234
tp241
ag241
ag241
ag241
ag241
ag241
ag241
a(g233
I0
g238
tp242
ag240
ag237
a(g233
I0
g236
tp243
ag243
ag235
ag242
a(g233
I0
g238
tp244
ag244
a(g233
I0
g236
tp245
ag235
ag241
ag237
ag239
ag244
ag240
ag242
a(S'p1'
p246
I0
g238
tp247
ag247
ag247
a(g246
I0
g236
tp248
a(g246
I0
g234
tp249
a(g246
I0
g238
tp250
a(g246
I0
g234
tp251
a(g246
I0
g236
tp252
a(g246
I0
g238
tp253
ag251
ag250
ag250
a(g246
I0
g238
tp254
ag254
ag251
ag252
a(g246
F1.5707963267948966
g236
tp255
a(g246
F1.5707963267948966
g234
tp256
a(S'p2'
p257
F1.5707963267948966
g234
tp258
a(g257
F1.5707963267948966
g234
tp259
a(g257
F1.5707963267948966
g238
tp260
a(g246
F1.5707963267948966
g238
tp261
a(g246
F1.5707963267948966
g234
tp262
ag262
ag258
ag259
ag259
ag260
a(S'p3'
p263
F1.5707963267948966
g238
tp264
asS's'
p265
(lp266
(g233
I0
g22
tp267
ag235
ag237
ag239
ag240
ag240
ag241
ag241
ag241
ag241
ag241
ag241
ag241
ag242
ag240
ag237
ag243
ag243
ag235
ag242
ag244
ag244
ag245
ag235
ag241
ag237
ag239
ag244
ag240
ag242
ag247
ag247
ag247
ag248
ag249
ag250
ag251
ag252
ag253
ag251
ag250
ag250
ag254
ag254
ag251
ag252
ag255
ag256
ag258
ag259
ag260
ag261
ag262
ag262
ag258
ag259
ag259
ag260
asS'ui'
p268
(lp269
S'hs'
p270
ag231
aS'hp'
p271
ag270
ag270
ag270
ag270
ag231
ag271
ag270
ag270
ag270
ag270
ag270
ag270
aS'ss'
p272
ag271
ag271
ag270
ag272
ag231
ag272
ag271
ag270
ag270
ag271
ag231
ag231
ag231
ag231
ag231
ag231
ag272
ag231
ag271
ag270
ag270
ag231
ag231
ag271
ag270
ag231
ag270
ag271
ag271
ag270
ag231
ag272
ag272
ag270
ag231
ag271
ag272
ag272
ag272
ag270
ag270
ag231
asS'um_before'
p273
(lp274
g270
ag271
ag271
ag271
ag231
ag272
ag272
ag272
ag231
ag231
ag231
ag272
ag270
ag271
ag271
ag272
ag231
ag270
ag270
ag272
ag272
ag270
ag270
ag272
ag271
ag271
ag272
ag271
ag270
ag231
ag231
ag231
ag270
ag270
ag270
ag271
ag271
ag271
ag271
ag270
ag231
ag272
ag231
ag271
ag271
ag231
ag270
ag272
ag272
ag270
ag272
ag271
ag270
ag272
ag272
ag272
ag270
ag231
asS'um_after'
p275
(lp276
g270
ag271
ag271
ag271
aNag272
ag272
ag272
aNaNaNag272
ag270
ag271
ag271
ag272
aNag270
ag270
ag272
ag272
ag270
ag270
ag272
ag271
ag271
ag272
ag271
ag270
ag231
aNaNag270
ag270
ag270
ag271
ag271
ag271
ag271
ag270
aNag272
aNag271
ag271
ag231
ag270
ag272
ag272
ag270
ag272
ag271
aNag272
ag272
ag272
ag270
ag231
asS'is_normalized_entropy_less_than_threshold'
p277
(lp278
g50
(g51
(S'b1'
p279
I0
I1
tp280
Rp281
(I3
S'|'
p282
NNNI-1
I-1
I0
tp283
bS'\x00'
p284
tp285
Rp286
ag286
ag50
(g281
S'\x01'
p287
tp288
Rp289
ag286
ag289
ag286
ag286
ag286
ag289
ag289
ag289
ag286
ag289
ag286
ag286
ag286
ag289
ag286
ag289
ag286
ag286
ag286
ag286
ag286
ag286
ag289
ag286
ag286
ag289
ag289
ag289
ag289
ag289
ag286
ag286
ag286
ag289
ag286
ag286
ag286
ag289
ag286
ag289
ag286
ag289
ag289
ag289
ag289
ag286
ag289
ag286
ag289
ag289
ag289
ag286
ag286
ag289
ag289
asaa(lp290
S'index'
p291
aI96571
aatp292
Rp293
.