ccollections
OrderedDict
p0
((lp1
(lp2
S'combination_dict'
p3
ag0
((lp4
(lp5
S'r_to_g_config'
p6
aS'tr'
p7
aa(lp8
S'num_turns'
p9
aI1
aa(lp10
S'start_direction'
p11
acutils_ms
StartDirection
p12
(I1
tp13
Rp14
aa(lp15
S'assistance_type'
p16
acutils_ms
AssistanceType
p17
(I1
tp18
Rp19
aa(lp20
S'start_mode'
p21
aS't'
p22
aa(lp23
S'ui_given_a_noise'
p24
aF0.3
aa(lp25
S'um_given_ui_noise'
p26
aF0.3
aa(lp27
S'entropy_threshold'
p28
aF0.5
aatp29
Rp30
aa(lp31
S'data'
p32
accollections
defaultdict
p33
(c__builtin__
list
p34
tp35
Rp36
S'a'
p37
(lp38
S'mode_l'
p39
aS'mode_r'
p40
ag40
aS'move_p'
p41
ag40
ag40
ag41
ag39
ag40
ag41
ag40
ag41
ag41
ag40
ag41
ag39
ag41
ag41
ag40
ag41
ag39
ag40
ag41
ag40
ag41
asS'assistance_match_with_ground_truth'
p42
(lp43
I00
aI00
aI01
aI01
aI00
aI01
aI00
aI00
aI01
aI01
aI01
aI00
aI01
aI00
aI00
aI01
aI00
aI01
aI01
aI00
aI00
aI01
aI00
aI01
aI01
asS'is_u_intended_equals_um'
p44
(lp45
I00
aI00
aI01
aI01
aI01
aI01
aI01
aI00
aI01
aI01
aI01
aI00
aI01
aI00
aI01
aI01
aI00
aI01
aI01
aI01
aI00
aI01
aI00
aI01
aI01
asS'total_steps'
p46
I25
sS'normalized_h_of_p_ui_given_um'
p47
(lp48
cnumpy.core.multiarray
scalar
p49
(cnumpy
dtype
p50
(S'f8'
p51
I0
I1
tp52
Rp53
(I3
S'<'
p54
NNNI-1
I-1
I0
tp55
bS'\xdeg\x88\x8fM\xe6\xe0?'
p56
tp57
Rp58
ag49
(g53
S'\x86\x12$T-\x14\xed?'
p59
tp60
Rp61
ag49
(g53
S'v\xba>|C\x0e\xd3?'
p62
tp63
Rp64
ag49
(g53
S'\x16\xa7\xe7\xfa\xfd\xc1\xc3?'
p65
tp66
Rp67
ag49
(g53
S'c\xe2\x89!t\x87\xe8?'
p68
tp69
Rp70
ag49
(g53
S'v\xba>|C\x0e\xd3?'
p71
tp72
Rp73
ag49
(g53
S'\x1b\\\xb6Q\x9b\xf4\xe4?'
p74
tp75
Rp76
ag49
(g53
S'R\xc9fDIV\xe2?'
p77
tp78
Rp79
ag49
(g53
S'v\xba>|C\x0e\xd3?'
p80
tp81
Rp82
ag49
(g53
S'\x16\xa7\xe7\xfa\xfd\xc1\xc3?'
p83
tp84
Rp85
ag49
(g53
S'v\xba>|C\x0e\xd3?'
p86
tp87
Rp88
ag49
(g53
S'\x88\x80;\x1cG\xa1\xe6?'
p89
tp90
Rp91
ag49
(g53
S'\x16\xa7\xe7\xfa\xfd\xc1\xc3?'
p92
tp93
Rp94
ag49
(g53
S'\x86\x12$T-\x14\xed?'
p95
tp96
Rp97
ag49
(g53
S'\x1b\\\xb6Q\x9b\xf4\xe4?'
p98
tp99
Rp100
ag49
(g53
S'#\xfe\xb1\xffS)\xb9?'
p101
tp102
Rp103
ag49
(g53
S'\x88\x80;\x1cG\xa1\xe6?'
p104
tp105
Rp106
ag49
(g53
S'\x16\xa7\xe7\xfa\xfd\xc1\xc3?'
p107
tp108
Rp109
ag49
(g53
S'v\xba>|C\x0e\xd3?'
p110
tp111
Rp112
ag49
(g53
S'\x1b\\\xb6Q\x9b\xf4\xe4?'
p113
tp114
Rp115
ag49
(g53
S'\xdeg\x88\x8fM\xe6\xe0?'
p116
tp117
Rp118
ag49
(g53
S'v\xba>|C\x0e\xd3?'
p119
tp120
Rp121
ag49
(g53
S'i\x8fV \t\x08\xe8?'
p122
tp123
Rp124
ag49
(g53
S'v\xba>|C\x0e\xd3?'
p125
tp126
Rp127
ag49
(g53
S'\x16\xa7\xe7\xfa\xfd\xc1\xc3?'
p128
tp129
Rp130
asS'sp'
p131
(lp132
(S'p0'
p133
I0
S'x'
p134
tp135
a(g133
I0
g134
tp136
a(g133
I0
S'y'
p137
tp138
a(S'p1'
p139
I0
g137
tp140
a(g139
I0
g137
tp141
a(g139
I0
S't'
p142
tp143
a(g139
I0
g134
tp144
a(g133
I0
g134
tp145
ag138
ag140
ag143
a(g139
I0
g142
tp146
a(g139
F1.5707963267948966
g142
tp147
a(g139
I0
g142
tp148
ag144
a(g139
I0
g142
tp149
ag146
ag147
a(g139
F1.5707963267948966
g134
tp150
a(g139
F1.5707963267948966
g137
tp151
a(g139
F1.5707963267948966
g142
tp152
ag150
a(g139
F1.5707963267948966
g142
tp153
ag150
a(S'p2'
p154
F1.5707963267948966
g134
tp155
asS's'
p156
(lp157
(g133
I0
g22
tp158
ag135
ag136
ag138
ag140
ag141
ag143
ag144
ag145
ag138
ag140
ag143
ag146
ag147
ag148
ag144
ag149
ag146
ag147
ag150
ag151
ag152
ag150
ag153
ag150
asS'ui'
p159
(lp160
S'hs'
p161
ag131
ag131
ag131
ag131
aS'hp'
p162
ag162
ag161
ag162
ag131
ag162
aS'ss'
p163
ag131
ag162
ag131
ag161
ag163
ag131
ag162
ag162
ag161
ag162
ag162
ag162
ag131
asS'um_before'
p164
(lp165
g162
ag163
ag162
ag131
ag131
ag162
ag162
ag163
ag162
ag131
ag162
ag163
ag131
ag163
ag162
ag161
ag163
ag131
ag162
ag162
ag162
ag162
ag161
ag162
ag131
asS'um_after'
p166
(lp167
g162
ag163
ag162
ag131
ag131
ag162
ag162
ag163
ag162
ag131
ag162
ag163
ag131
ag163
ag162
ag161
ag163
ag131
ag162
ag162
ag162
ag162
ag161
ag162
ag131
asS'is_normalized_entropy_less_than_threshold'
p168
(lp169
g49
(g50
(S'b1'
p170
I0
I1
tp171
Rp172
(I3
S'|'
p173
NNNI-1
I-1
I0
tp174
bS'\x00'
p175
tp176
Rp177
ag177
ag49
(g172
S'\x01'
p178
tp179
Rp180
ag180
ag177
ag180
ag177
ag177
ag180
ag180
ag180
ag177
ag180
ag177
ag177
ag180
ag177
ag180
ag180
ag177
ag177
ag180
ag177
ag180
ag180
asaa(lp181
S'index'
p182
aI7456
aatp183
Rp184
.