ccollections
OrderedDict
p0
((lp1
(lp2
S'combination_dict'
p3
ag0
((lp4
(lp5
S'r_to_g_config'
p6
aS'tr'
p7
aa(lp8
S'num_turns'
p9
aI1
aa(lp10
S'start_direction'
p11
acutils_ms
StartDirection
p12
(I1
tp13
Rp14
aa(lp15
S'assistance_type'
p16
acutils_ms
AssistanceType
p17
(I0
tp18
Rp19
aa(lp20
S'start_mode'
p21
aS'x'
p22
aa(lp23
S'ui_given_a_noise'
p24
aF0.7
aa(lp25
S'um_given_ui_noise'
p26
aF0.5
aa(lp27
S'entropy_threshold'
p28
aF0.7
aatp29
Rp30
aa(lp31
S'data'
p32
accollections
defaultdict
p33
(c__builtin__
list
p34
tp35
Rp36
S'a'
p37
(lp38
S'mode_r'
p39
ag39
aS'mode_l'
p40
aS'move_p'
p41
ag39
ag40
ag39
ag41
ag41
ag41
ag40
ag41
ag39
ag39
ag41
asS'assistance_match_with_ground_truth'
p42
(lp43
I00
aI00
aI01
aI01
aI00
aI00
aI01
aI00
aI00
aI00
aI01
aI01
aI00
aI01
aI01
asS'is_u_intended_equals_um'
p44
(lp45
I01
aI00
aI01
aI01
aI00
aI01
aI01
aI00
aI00
aI01
aI01
aI01
aI01
aI01
aI01
asS'total_steps'
p46
I15
sS'normalized_h_of_p_ui_given_um'
p47
(lp48
cnumpy.core.multiarray
scalar
p49
(cnumpy
dtype
p50
(S'f8'
p51
I0
I1
tp52
Rp53
(I3
S'<'
p54
NNNI-1
I-1
I0
tp55
bS'\xa4\x0eZ\xc7\xe0=\xe9?'
p56
tp57
Rp58
ag49
(g53
S'\x0e\xce\xad\x97\xc0\x00\xec?'
p59
tp60
Rp61
ag49
(g53
S'P%\x911\x01\x83\xe4?'
p62
tp63
Rp64
ag49
(g53
S's\xc7}[\x1b\x17\xdb?'
p65
tp66
Rp67
ag49
(g53
S'\x0e\xce\xad\x97\xc0\x00\xec?'
p68
tp69
Rp70
ag49
(g53
S't\x16\xbf\x9c\xea\x89\xe6?'
p71
tp72
Rp73
ag49
(g53
S'R\xbd7\x86\xdb\xf2\xd7?'
p74
tp75
Rp76
ag49
(g53
S'\x93\xee\xef\xb3k\x10\xe8?'
p77
tp78
Rp79
ag49
(g53
S'\x93\xee\xef\xb3k\x10\xe8?'
p80
tp81
Rp82
ag49
(g53
S'FD\xe9!\xa3]\xea?'
p83
tp84
Rp85
ag49
(g53
S'P%\x911\x01\x83\xe4?'
p86
tp87
Rp88
ag49
(g53
S's\xc7}[\x1b\x17\xdb?'
p89
tp90
Rp91
ag49
(g53
S'{\xe4\x7f:\xa4\xca\xe5?'
p92
tp93
Rp94
ag49
(g53
S'R\xbd7\x86\xdb\xf2\xd7?'
p95
tp96
Rp97
ag49
(g53
S's\xc7}[\x1b\x17\xdb?'
p98
tp99
Rp100
asS'sp'
p101
(lp102
(S'p0'
p103
I0
S'x'
p104
tp105
a(g103
I0
S't'
p106
tp107
a(g103
I0
S'y'
p108
tp109
a(S'p1'
p110
I0
g108
tp111
a(g110
I0
g104
tp112
a(g110
I0
g108
tp113
a(g110
I0
g106
tp114
a(g110
I0
g106
tp115
ag115
a(g110
I0
g104
tp116
a(g110
I0
g106
tp117
a(g110
F1.5707963267948966
g106
tp118
a(g110
F1.5707963267948966
g106
tp119
a(g110
F1.5707963267948966
g104
tp120
a(S'p2'
p121
F1.5707963267948966
g104
tp122
asS's'
p123
(lp124
(g103
I0
g22
tp125
ag105
ag107
ag109
ag111
ag112
ag113
ag114
ag115
ag115
ag116
ag117
ag118
ag119
ag120
asS'ui'
p126
(lp127
S'hp'
p128
ag101
aS'hs'
p129
ag101
ag128
ag128
ag128
aS'ss'
p130
ag130
ag128
ag101
ag101
ag101
ag128
ag101
asS'um_before'
p131
(lp132
g130
ag129
ag129
ag101
ag129
ag128
ag128
ag130
ag130
ag128
ag129
ag101
ag101
ag128
ag101
asS'um_after'
p133
(lp134
g130
ag129
ag129
ag101
ag129
ag128
ag128
ag130
ag130
ag128
ag129
ag101
ag101
ag128
ag101
asS'is_normalized_entropy_less_than_threshold'
p135
(lp136
g49
(g50
(S'b1'
p137
I0
I1
tp138
Rp139
(I3
S'|'
p140
NNNI-1
I-1
I0
tp141
bS'\x00'
p142
tp143
Rp144
ag144
ag49
(g139
S'\x01'
p145
tp146
Rp147
ag147
ag144
ag144
ag147
ag144
ag144
ag144
ag147
ag147
ag147
ag147
ag147
asaa(lp148
S'index'
p149
aI5523
aatp150
Rp151
.