ccollections
OrderedDict
p0
((lp1
(lp2
S'combination_dict'
p3
ag0
((lp4
(lp5
S'r_to_g_config'
p6
aS'br'
p7
aa(lp8
S'num_turns'
p9
aI3
aa(lp10
S'start_direction'
p11
acutils_ms
StartDirection
p12
(I1
tp13
Rp14
aa(lp15
S'assistance_type'
p16
acutils_ms
AssistanceType
p17
(I1
tp18
Rp19
aa(lp20
S'start_mode'
p21
aS't'
p22
aa(lp23
S'ui_given_a_noise'
p24
aF0.3
aa(lp25
S'um_given_ui_noise'
p26
aF0.5
aa(lp27
S'entropy_threshold'
p28
aF0.8
aatp29
Rp30
aa(lp31
S'data'
p32
accollections
defaultdict
p33
(c__builtin__
list
p34
tp35
Rp36
S'a'
p37
(lp38
S'mode_l'
p39
aS'move_n'
p40
aS'mode_r'
p41
aS'move_p'
p42
ag41
ag39
ag42
ag41
ag42
ag41
ag42
ag41
ag41
ag39
ag42
ag41
ag42
ag41
ag40
ag39
ag42
ag41
ag42
asS'assistance_match_with_ground_truth'
p43
(lp44
I01
aI01
aI01
aI00
aI00
aI01
aI01
aI01
aI00
aI00
aI01
aI00
aI00
aI01
aI00
aI01
aI01
aI01
aI01
aI01
aI00
aI01
aI01
asS'is_u_intended_equals_um'
p45
(lp46
I00
aI01
aI01
aI00
aI00
aI00
aI01
aI01
aI00
aI01
aI00
aI01
aI00
aI00
aI00
aI01
aI01
aI01
aI00
aI01
aI00
aI01
aI00
asS'total_steps'
p47
I23
sS'normalized_h_of_p_ui_given_um'
p48
(lp49
cnumpy.core.multiarray
scalar
p50
(cnumpy
dtype
p51
(S'f8'
p52
I0
I1
tp53
Rp54
(I3
S'<'
p55
NNNI-1
I-1
I0
tp56
bS'D\xeeo\xf3)\x92\xe8?'
p57
tp58
Rp59
ag50
(g54
S'F>\xf5e\x1a\x12\xdc?'
p60
tp61
Rp62
ag50
(g54
S'\xc6\xff\xf6\x92\x11\x82\xd2?'
p63
tp64
Rp65
ag50
(g54
S'\xfa7\x89\xeex\n\xeb?'
p66
tp67
Rp68
ag50
(g54
S'F\t\x9aU>-\xeb?'
p69
tp70
Rp71
ag50
(g54
S'D\xeeo\xf3)\x92\xe8?'
p72
tp73
Rp74
ag50
(g54
S'$3\xa9.\x9e\x8b\xd1?'
p75
tp76
Rp77
ag50
(g54
S'\xc6\xff\xf6\x92\x11\x82\xd2?'
p78
tp79
Rp80
ag50
(g54
S'\xfa7\x89\xeex\n\xeb?'
p81
tp82
Rp83
ag50
(g54
S'\x7f|\\\x99\xe0\xa4\xea?'
p84
tp85
Rp86
ag50
(g54
S'Q\xd4\xe4\xc3\x08}\xe2?'
p87
tp88
Rp89
ag50
(g54
S'A\xb29\xa4EJ\xea?'
p90
tp91
Rp92
ag50
(g54
S'F\t\x9aU>-\xeb?'
p93
tp94
Rp95
ag50
(g54
S'|jL\r\x06t\xe6?'
p96
tp97
Rp98
ag50
(g54
S'\xfa7\x89\xeex\n\xeb?'
p99
tp100
Rp101
ag50
(g54
S'\xc6\xff\xf6\x92\x11\x82\xd2?'
p102
tp103
Rp104
ag50
(g54
S'$3\xa9.\x9e\x8b\xd1?'
p105
tp106
Rp107
ag50
(g54
S'\xc6\xff\xf6\x92\x11\x82\xd2?'
p108
tp109
Rp110
ag50
(g54
S'\x9c2|\xe3\xce\xf7\xe8?'
p111
tp112
Rp113
ag50
(g54
S'V\xd2\xfb\x9c\x95Y\xdb?'
p114
tp115
Rp116
ag50
(g54
S'\xfa7\x89\xeex\n\xeb?'
p117
tp118
Rp119
ag50
(g54
S'\xc6\xff\xf6\x92\x11\x82\xd2?'
p120
tp121
Rp122
ag50
(g54
S'\xc3G\n\xf2Q\x1d\xe5?'
p123
tp124
Rp125
asS'sp'
p126
(lp127
(S'p0'
p128
I0
S'y'
p129
tp130
a(S'p1'
p131
I0
g129
tp132
a(g131
I0
S't'
p133
tp134
a(g131
I0
g129
tp135
a(g131
I0
S'x'
p136
tp137
a(g131
I0
g133
tp138
a(g131
F1.5707963267948966
g133
tp139
a(g131
F1.5707963267948966
g136
tp140
a(g131
F1.5707963267948966
g133
tp141
a(g131
I0
g133
tp142
ag139
a(g131
F1.5707963267948966
g133
tp143
a(g131
F1.5707963267948966
g129
tp144
a(g131
F1.5707963267948966
g136
tp145
ag141
ag140
a(S'p2'
p146
F1.5707963267948966
g136
tp147
a(g146
F1.5707963267948966
g129
tp148
a(S'p3'
p149
F1.5707963267948966
g129
tp150
a(g149
F1.5707963267948966
g136
tp151
a(g149
F1.5707963267948966
g133
tp152
a(g149
F1.5707963267948966
g136
tp153
a(S'p4'
p154
F1.5707963267948966
g136
tp155
asS's'
p156
(lp157
(g128
I0
g22
tp158
ag130
ag132
ag134
ag135
ag137
ag138
ag139
ag140
ag141
ag142
ag139
ag143
ag144
ag145
ag141
ag140
ag147
ag148
ag150
ag151
ag152
ag153
asS'ui'
p159
(lp160
S'hs'
p161
ag126
aS'hp'
p162
ag126
ag162
ag126
ag126
ag162
ag126
ag161
ag126
ag162
ag161
ag161
ag162
ag162
ag126
ag162
aS'ss'
p163
ag161
ag162
ag162
ag162
asS'um_before'
p164
(lp165
g126
ag163
ag162
ag161
ag161
ag126
ag126
ag162
ag161
ag163
ag163
ag126
ag161
ag163
ag161
ag162
ag126
ag162
ag161
ag161
ag161
ag162
ag162
asS'um_after'
p166
(lp167
g161
ag163
ag162
ag161
ag161
ag161
ag126
ag162
ag161
ag163
ag126
ag126
ag161
ag161
ag161
ag162
ag126
ag162
ag163
ag161
ag161
ag162
ag126
asS'is_normalized_entropy_less_than_threshold'
p168
(lp169
g50
(g51
(S'b1'
p170
I0
I1
tp171
Rp172
(I3
S'|'
p173
NNNI-1
I-1
I0
tp174
bS'\x01'
p175
tp176
Rp177
ag177
ag177
ag50
(g172
S'\x00'
p178
tp179
Rp180
ag180
ag177
ag177
ag177
ag180
ag180
ag177
ag180
ag180
ag177
ag180
ag177
ag177
ag177
ag177
ag177
ag180
ag177
ag177
asaa(lp181
S'index'
p182
aI113134
aatp183
Rp184
.