ccollections
OrderedDict
p0
((lp1
(lp2
S'combination_dict'
p3
ag0
((lp4
(lp5
S'r_to_g_config'
p6
aS'tr'
p7
aa(lp8
S'num_turns'
p9
aI2
aa(lp10
S'start_direction'
p11
acutils_ms
StartDirection
p12
(I0
tp13
Rp14
aa(lp15
S'assistance_type'
p16
acutils_ms
AssistanceType
p17
(I0
tp18
Rp19
aa(lp20
S'start_mode'
p21
aS'y'
p22
aa(lp23
S'ui_given_a_noise'
p24
aF0.7
aa(lp25
S'um_given_ui_noise'
p26
aF0.1
aa(lp27
S'entropy_threshold'
p28
aF0.7
aatp29
Rp30
aa(lp31
S'data'
p32
accollections
defaultdict
p33
(c__builtin__
list
p34
tp35
Rp36
S'a'
p37
(lp38
S'mode_l'
p39
ag39
ag39
aS'mode_r'
p40
ag39
aS'move_p'
p41
ag39
ag41
ag39
ag41
ag40
ag41
ag41
ag40
ag39
ag40
ag40
ag41
ag40
ag41
asS'assistance_match_with_ground_truth'
p42
(lp43
I00
aI00
aI00
aI00
aI01
aI00
aI01
aI01
aI01
aI00
aI01
aI00
aI00
aI00
aI00
aI00
aI01
aI00
aI01
aI01
asS'is_u_intended_equals_um'
p44
(lp45
I01
aI01
aI01
aI01
aI01
aI01
aI01
aI01
aI01
aI01
aI01
aI01
aI01
aI01
aI01
aI01
aI01
aI01
aI01
aI01
asS'total_steps'
p46
I20
sS'normalized_h_of_p_ui_given_um'
p47
(lp48
cnumpy.core.multiarray
scalar
p49
(cnumpy
dtype
p50
(S'f8'
p51
I0
I1
tp52
Rp53
(I3
S'<'
p54
NNNI-1
I-1
I0
tp55
bS'\xf3\x16^\x8b\x82\xfc\xe4?'
p56
tp57
Rp58
ag49
(g53
S'\xb0\xb8\xc2\xe8&F\xdb?'
p59
tp60
Rp61
ag49
(g53
S'\x9b\xb81\x1e$\xcf\xdc?'
p62
tp63
Rp64
ag49
(g53
S'\xea\xf3\x0e\xb3\xfb\xca\xe7?'
p65
tp66
Rp67
ag49
(g53
S'\xee\xe9_pr \xc8?'
p68
tp69
Rp70
ag49
(g53
S'_\xef(\xad\xd5\x9e\xe3?'
p71
tp72
Rp73
ag49
(g53
S'\xee\xe9_pr \xc8?'
p74
tp75
Rp76
ag49
(g53
S'\x97hlhb\xcf\xc6?'
p77
tp78
Rp79
ag49
(g53
S'\xee\xe9_pr \xc8?'
p80
tp81
Rp82
ag49
(g53
S'\xba\xdd\xa6\x13\x05\xd2\xd0?'
p83
tp84
Rp85
ag49
(g53
S'?\x96\xba\x9b"\xd4\xc3?'
p86
tp87
Rp88
ag49
(g53
S'|\x9a<\x06\xd4\xe2\xdc?'
p89
tp90
Rp91
ag49
(g53
S'\xba\xdd\xa6\x13\x05\xd2\xd0?'
p92
tp93
Rp94
ag49
(g53
S'`\x80\x97\x03\x82\xfa\xd4?'
p95
tp96
Rp97
ag49
(g53
S'\x9b\xb81\x1e$\xcf\xdc?'
p98
tp99
Rp100
ag49
(g53
S'\x163\x99E\x86\x15\xd1?'
p101
tp102
Rp103
ag49
(g53
S'?\x96\xba\x9b"\xd4\xc3?'
p104
tp105
Rp106
ag49
(g53
S'\xba\xdd\xa6\x13\x05\xd2\xd0?'
p107
tp108
Rp109
ag49
(g53
S'?\x96\xba\x9b"\xd4\xc3?'
p110
tp111
Rp112
ag49
(g53
S'\x97hlhb\xcf\xc6?'
p113
tp114
Rp115
asS'sp'
p116
(lp117
(S'p0'
p118
I0
S'y'
p119
tp120
a(g118
I0
g119
tp121
a(g118
I0
S't'
p122
tp123
a(g118
I0
g119
tp124
a(g118
I0
S'x'
p125
tp126
a(g118
I0
g119
tp127
ag126
a(S'p1'
p128
I0
g125
tp129
a(g128
I0
g122
tp130
a(g128
I0
g119
tp131
a(g128
I0
g122
tp132
a(g128
I0
g122
tp133
ag131
a(S'p2'
p134
I0
g119
tp135
a(g134
I0
g122
tp136
a(g134
I0
g122
tp137
a(g134
I0
g125
tp138
a(g134
I0
g122
tp139
ag138
a(S'p3'
p140
I0
g125
tp141
asS's'
p142
(lp143
(g118
I0
g22
tp144
ag120
ag121
ag123
ag124
ag126
ag127
ag126
ag129
ag130
ag131
ag132
ag133
ag131
ag135
ag136
ag137
ag138
ag139
ag138
asS'ui'
p145
(lp146
S'hs'
p147
aS'ss'
p148
aS'hp'
p149
ag147
ag147
ag147
ag149
ag116
ag147
ag147
ag149
ag147
ag147
ag116
ag149
ag148
ag149
ag147
ag149
ag116
asS'um_before'
p150
(lp151
g116
ag148
ag149
ag147
ag147
ag149
ag147
ag116
ag147
ag147
ag149
ag148
ag147
ag116
ag149
ag148
ag149
ag147
ag149
ag116
asS'um_after'
p152
(lp153
g116
ag148
ag149
ag147
ag147
ag149
ag147
ag116
ag147
ag147
ag149
ag148
ag147
ag116
ag149
ag148
ag149
ag147
ag149
ag116
asS'is_normalized_entropy_less_than_threshold'
p154
(lp155
g49
(g50
(S'b1'
p156
I0
I1
tp157
Rp158
(I3
S'|'
p159
NNNI-1
I-1
I0
tp160
bS'\x01'
p161
tp162
Rp163
ag163
ag163
ag49
(g158
S'\x00'
p164
tp165
Rp166
ag163
ag163
ag163
ag163
ag163
ag163
ag163
ag163
ag163
ag163
ag163
ag163
ag163
ag163
ag163
ag163
asaa(lp167
S'index'
p168
aI11023
aatp169
Rp170
.