ccollections
OrderedDict
p0
((lp1
(lp2
S'combination_dict'
p3
ag0
((lp4
(lp5
S'r_to_g_config'
p6
aS'tr'
p7
aa(lp8
S'num_turns'
p9
aI3
aa(lp10
S'start_direction'
p11
acutils_ms
StartDirection
p12
(I1
tp13
Rp14
aa(lp15
S'assistance_type'
p16
acutils_ms
AssistanceType
p17
(I0
tp18
Rp19
aa(lp20
S'start_mode'
p21
aS'x'
p22
aa(lp23
S'ui_given_a_noise'
p24
aF0.5
aa(lp25
S'um_given_ui_noise'
p26
aF0.1
aa(lp27
S'entropy_threshold'
p28
aF0.7
aatp29
Rp30
aa(lp31
S'data'
p32
accollections
defaultdict
p33
(c__builtin__
list
p34
tp35
Rp36
S'a'
p37
(lp38
S'mode_r'
p39
ag39
ag39
aS'move_p'
p40
ag40
aS'mode_l'
p41
ag40
ag41
ag41
ag39
ag40
ag41
ag40
ag41
ag41
ag41
ag40
ag41
ag40
ag39
ag40
ag39
ag39
ag40
ag41
ag40
ag39
ag40
ag41
ag41
ag40
ag39
ag41
ag40
ag41
ag41
ag41
ag40
ag41
ag39
ag40
asS'assistance_match_with_ground_truth'
p42
(lp43
I00
aI00
aI01
aI00
aI01
aI01
aI01
aI00
aI00
aI01
aI01
aI01
aI00
aI00
aI00
aI01
aI01
aI01
aI00
aI01
aI00
aI00
aI01
aI00
aI01
aI00
aI01
aI01
aI00
aI01
aI01
aI00
aI00
aI01
aI00
aI00
aI01
aI01
aI00
aI01
aI01
asS'is_u_intended_equals_um'
p44
(lp45
I01
aI01
aI01
aI01
aI01
aI01
aI01
aI01
aI01
aI01
aI01
aI01
aI01
aI01
aI01
aI01
aI01
aI01
aI01
aI01
aI01
aI01
aI01
aI01
aI01
aI01
aI01
aI01
aI01
aI01
aI01
aI01
aI01
aI01
aI01
aI01
aI01
aI01
aI01
aI01
aI01
asS'total_steps'
p46
I41
sS'normalized_h_of_p_ui_given_um'
p47
(lp48
cnumpy.core.multiarray
scalar
p49
(cnumpy
dtype
p50
(S'f8'
p51
I0
I1
tp52
Rp53
(I3
S'<'
p54
NNNI-1
I-1
I0
tp55
bS'\r\xac\r\x9c\x00\xe5\xd3?'
p56
tp57
Rp58
ag49
(g53
S'\xb2!k\x8b\xef\xe7\xe8?'
p59
tp60
Rp61
ag49
(g53
S'e\x98\xf5E\x8b\x9c\xc3?'
p62
tp63
Rp64
ag49
(g53
S'|.ig\xdbv\xe6?'
p65
tp66
Rp67
ag49
(g53
S'w\x8b+)\xe6D\xbc?'
p68
tp69
Rp70
ag49
(g53
S'F\x03\xc4u\xa3Q\xba?'
p71
tp72
Rp73
ag49
(g53
S'w\x8b+)\xe6D\xbc?'
p74
tp75
Rp76
ag49
(g53
S'\x9c\x1f\xf4-\x10H\xe2?'
p77
tp78
Rp79
ag49
(g53
S'7i\xb3\xce\xa1\xdd\xd1?'
p80
tp81
Rp82
ag49
(g53
S'e\x98\xf5E\x8b\x9c\xc3?'
p83
tp84
Rp85
ag49
(g53
S'w\x8b+)\xe6D\xbc?'
p86
tp87
Rp88
ag49
(g53
S'F\x03\xc4u\xa3Q\xba?'
p89
tp90
Rp91
ag49
(g53
S'\xffk\xb2\xb6\xc3\xf3\xe3?'
p92
tp93
Rp94
ag49
(g53
S'\x9c\x1f\xf4-\x10H\xe2?'
p95
tp96
Rp97
ag49
(g53
S'\x9c\x1f\xf4-\x10H\xe2?'
p98
tp99
Rp100
ag49
(g53
S'F\x03\xc4u\xa3Q\xba?'
p101
tp102
Rp103
ag49
(g53
S'w\x8b+)\xe6D\xbc?'
p104
tp105
Rp106
ag49
(g53
S'F\x03\xc4u\xa3Q\xba?'
p107
tp108
Rp109
ag49
(g53
S'\xbf\x18\xb4\t|\x9c\xca?'
p110
tp111
Rp112
ag49
(g53
S'e\x98\xf5E\x8b\x9c\xc3?'
p113
tp114
Rp115
ag49
(g53
S'|.ig\xdbv\xe6?'
p116
tp117
Rp118
ag49
(g53
S'\xb2!k\x8b\xef\xe7\xe8?'
p119
tp120
Rp121
ag49
(g53
S'e\x98\xf5E\x8b\x9c\xc3?'
p122
tp123
Rp124
ag49
(g53
S'|.ig\xdbv\xe6?'
p125
tp126
Rp127
ag49
(g53
S'F\x03\xc4u\xa3Q\xba?'
p128
tp129
Rp130
ag49
(g53
S'|.ig\xdbv\xe6?'
p131
tp132
Rp133
ag49
(g53
S'e\x98\xf5E\x8b\x9c\xc3?'
p134
tp135
Rp136
ag49
(g53
S'w\x8b+)\xe6D\xbc?'
p137
tp138
Rp139
ag49
(g53
S'\x9c\x1f\xf4-\x10H\xe2?'
p140
tp141
Rp142
ag49
(g53
S'F\x03\xc4u\xa3Q\xba?'
p143
tp144
Rp145
ag49
(g53
S'w\x8b+)\xe6D\xbc?'
p146
tp147
Rp148
ag49
(g53
S'3\xda\xfc,F\x0e\xde?'
p149
tp150
Rp151
ag49
(g53
S'\xab\n\x13\xfbY\x0b\xe9?'
p152
tp153
Rp154
ag49
(g53
S'w\x8b+)\xe6D\xbc?'
p155
tp156
Rp157
ag49
(g53
S'\x9c\x1f\xf4-\x10H\xe2?'
p158
tp159
Rp160
ag49
(g53
S'\x9c\x1f\xf4-\x10H\xe2?'
p161
tp162
Rp163
ag49
(g53
S'F\x03\xc4u\xa3Q\xba?'
p164
tp165
Rp166
ag49
(g53
S'w\x8b+)\xe6D\xbc?'
p167
tp168
Rp169
ag49
(g53
S'7i\xb3\xce\xa1\xdd\xd1?'
p170
tp171
Rp172
ag49
(g53
S'e\x98\xf5E\x8b\x9c\xc3?'
p173
tp174
Rp175
ag49
(g53
S'w\x8b+)\xe6D\xbc?'
p176
tp177
Rp178
asS'sp'
p179
(lp180
(S'p0'
p181
I0
S'x'
p182
tp183
a(g181
I0
g182
tp184
a(g181
I0
S'y'
p185
tp186
a(g181
I0
g185
tp187
a(S'p1'
p188
I0
g185
tp189
a(g188
I0
g182
tp190
a(S'p2'
p191
I0
g182
tp192
a(g191
I0
g182
tp193
a(g191
I0
g185
tp194
a(g191
I0
S't'
p195
tp196
a(g191
F1.5707963267948966
g195
tp197
a(g191
F1.5707963267948966
g185
tp198
a(g191
F1.5707963267948966
g195
tp199
a(g191
F1.5707963267948966
g195
tp200
ag200
ag198
a(S'p3'
p201
F1.5707963267948966
g185
tp202
a(g201
F1.5707963267948966
g182
tp203
a(g201
F1.5707963267948966
g195
tp204
a(g201
F1.5707963267948966
g182
tp205
a(g191
F1.5707963267948966
g182
tp206
a(g191
F1.5707963267948966
g182
tp207
a(g191
F1.5707963267948966
g185
tp208
a(g188
F1.5707963267948966
g185
tp209
a(g188
F1.5707963267948966
g182
tp210
a(g181
F1.5707963267948966
g182
tp211
a(g181
F1.5707963267948966
g185
tp212
a(g188
F1.5707963267948966
g185
tp213
a(g188
F1.5707963267948966
g185
tp214
ag210
a(g191
F1.5707963267948966
g182
tp215
a(g191
F1.5707963267948966
g195
tp216
a(g191
I0
g195
tp217
ag197
ag200
ag200
ag198
ag202
a(g201
F1.5707963267948966
g195
tp218
ag205
a(S'p4'
p219
F1.5707963267948966
g182
tp220
asS's'
p221
(lp222
(g181
I0
g22
tp223
ag183
ag184
ag186
ag187
ag189
ag190
ag192
ag193
ag194
ag196
ag197
ag198
ag199
ag200
ag200
ag198
ag202
ag203
ag204
ag205
ag206
ag207
ag208
ag209
ag210
ag211
ag212
ag213
ag214
ag210
ag215
ag216
ag217
ag197
ag200
ag200
ag198
ag202
ag218
ag205
asS'ui'
p224
(lp225
g179
ag179
aS'hp'
p226
aS'ss'
p227
ag179
aS'hs'
p228
ag179
ag179
ag226
ag226
ag179
ag228
ag226
ag228
ag179
ag228
ag179
ag228
ag228
ag226
ag179
ag179
ag226
ag179
ag228
ag227
ag226
ag179
ag179
ag228
ag179
ag228
ag227
ag179
ag179
ag179
ag228
ag179
ag226
ag226
ag179
asS'um_before'
p229
(lp230
g179
ag227
ag226
ag227
ag179
ag228
ag179
ag179
ag226
ag226
ag179
ag228
ag226
ag179
ag179
ag228
ag179
ag228
ag228
ag226
ag227
ag227
ag226
ag227
ag228
ag227
ag226
ag179
ag179
ag228
ag179
ag228
ag227
ag179
ag179
ag179
ag228
ag179
ag226
ag226
ag179
asS'um_after'
p231
(lp232
g179
ag227
ag226
ag227
ag179
ag228
ag179
ag179
ag226
ag226
ag179
ag228
ag226
ag179
ag179
ag228
ag179
ag228
ag228
ag226
ag227
ag227
ag226
ag227
ag228
ag227
ag226
ag179
ag179
ag228
ag179
ag228
ag227
ag179
ag179
ag179
ag228
ag179
ag226
ag226
ag179
asS'is_normalized_entropy_less_than_threshold'
p233
(lp234
g49
(g50
(S'b1'
p235
I0
I1
tp236
Rp237
(I3
S'|'
p238
NNNI-1
I-1
I0
tp239
bS'\x01'
p240
tp241
Rp242
ag49
(g237
S'\x00'
p243
tp244
Rp245
ag242
ag245
ag242
ag242
ag242
ag242
ag242
ag242
ag242
ag242
ag242
ag242
ag242
ag242
ag242
ag242
ag242
ag242
ag245
ag245
ag242
ag245
ag242
ag245
ag242
ag242
ag242
ag242
ag242
ag242
ag245
ag242
ag242
ag242
ag242
ag242
ag242
ag242
ag242
asaa(lp246
S'index'
p247
aI24426
aatp248
Rp249
.