ccollections
OrderedDict
p0
((lp1
(lp2
S'combination_dict'
p3
ag0
((lp4
(lp5
S'r_to_g_config'
p6
aS'tl'
p7
aa(lp8
S'num_turns'
p9
aI3
aa(lp10
S'start_direction'
p11
acutils_ms
StartDirection
p12
(I0
tp13
Rp14
aa(lp15
S'assistance_type'
p16
acutils_ms
AssistanceType
p17
(I0
tp18
Rp19
aa(lp20
S'start_mode'
p21
aS'y'
p22
aa(lp23
S'ui_given_a_noise'
p24
aF0.3
aa(lp25
S'um_given_ui_noise'
p26
aF0.3
aa(lp27
S'entropy_threshold'
p28
aF0.7
aatp29
Rp30
aa(lp31
S'data'
p32
accollections
defaultdict
p33
(c__builtin__
list
p34
tp35
Rp36
S'a'
p37
(lp38
S'mode_l'
p39
aS'move_n'
p40
ag39
ag39
ag40
aS'mode_r'
p41
aS'move_p'
p42
ag39
ag39
ag40
ag41
ag40
ag41
ag39
ag39
ag40
ag39
ag40
ag41
ag41
ag41
ag41
ag42
ag41
ag41
ag42
ag41
ag41
ag42
ag41
ag40
ag41
ag39
ag41
ag41
ag40
ag41
ag39
ag42
ag39
ag40
ag41
ag42
ag39
ag39
ag39
ag40
ag41
ag41
ag42
ag39
ag42
ag41
ag41
ag42
ag39
ag42
ag41
ag41
ag41
ag42
ag41
ag39
ag39
ag42
ag41
ag42
asS'assistance_match_with_ground_truth'
p43
(lp44
I01
aI00
aI00
aI01
aI01
aI01
aI00
aI00
aI01
aI00
aI01
aI00
aI00
aI00
aI01
aI00
aI01
aI01
aI00
aI00
aI00
aI01
aI01
aI00
aI01
aI00
aI00
aI01
aI01
aI01
aI00
aI00
aI00
aI00
aI01
aI01
aI00
aI01
aI00
aI01
aI01
aI01
aI00
aI00
aI00
aI01
aI01
aI00
aI01
aI00
aI01
aI00
aI00
aI01
aI00
aI01
aI00
aI00
aI00
aI01
aI00
aI00
aI00
aI01
aI00
aI01
aI01
asS'is_u_intended_equals_um'
p45
(lp46
I01
aI01
aI01
aI01
aI01
aI01
aI00
aI01
aI01
aI00
aI01
aI00
aI00
aI01
aI01
aI01
aI01
aI01
aI00
aI00
aI00
aI01
aI01
aI00
aI01
aI00
aI00
aI01
aI01
aI01
aI00
aI00
aI00
aI01
aI01
aI01
aI00
aI01
aI00
aI01
aI01
aI01
aI00
aI01
aI00
aI01
aI01
aI00
aI01
aI01
aI01
aI00
aI00
aI01
aI01
aI01
aI00
aI01
aI00
aI01
aI00
aI00
aI00
aI01
aI00
aI01
aI01
asS'total_steps'
p47
I67
sS'normalized_h_of_p_ui_given_um'
p48
(lp49
cnumpy.core.multiarray
scalar
p50
(cnumpy
dtype
p51
(S'f8'
p52
I0
I1
tp53
Rp54
(I3
S'<'
p55
NNNI-1
I-1
I0
tp56
bS'%\xb8\xec\x06aF\xce?'
p57
tp58
Rp59
ag50
(g54
S'\x85\xcc\x860\xdb8\xea?'
p60
tp61
Rp62
ag50
(g54
S'\x19\x95Tp\x0e\xf7\xe5?'
p63
tp64
Rp65
ag50
(g54
S'%\xb8\xec\x06aF\xce?'
p66
tp67
Rp68
ag50
(g54
S'\x9d\xdcl\xe6,\x07\xcc?'
p69
tp70
Rp71
ag50
(g54
S'Q%\xaes\xcdi\xc4?'
p72
tp73
Rp74
ag50
(g54
S'\x14\xf0LX\xdd{\xec?'
p75
tp76
Rp77
ag50
(g54
S'\x19\x95Tp\x0e\xf7\xe5?'
p78
tp79
Rp80
ag50
(g54
S'%\xb8\xec\x06aF\xce?'
p81
tp82
Rp83
ag50
(g54
S"S'\xff5\x94o\xe7?"
p84
tp85
Rp86
ag50
(g54
S'Q%\xaes\xcdi\xc4?'
p87
tp88
Rp89
ag50
(g54
S"S'\xff5\x94o\xe7?"
p90
tp91
Rp92
ag50
(g54
S'\x131\n\xa5\xcc\x1a\xeb?'
p93
tp94
Rp95
ag50
(g54
S'\x19\x95Tp\x0e\xf7\xe5?'
p96
tp97
Rp98
ag50
(g54
S'%\xb8\xec\x06aF\xce?'
p99
tp100
Rp101
ag50
(g54
S'\x85\xcc\x860\xdb8\xea?'
p102
tp103
Rp104
ag50
(g54
S'%\xb8\xec\x06aF\xce?'
p105
tp106
Rp107
ag50
(g54
S'\x9d\xdcl\xe6,\x07\xcc?'
p108
tp109
Rp110
ag50
(g54
S'\xa4h**\xf8\x90\xe7?'
p111
tp112
Rp113
ag50
(g54
S'\xa4h**\xf8\x90\xe7?'
p114
tp115
Rp116
ag50
(g54
S'\xa4h**\xf8\x90\xe7?'
p117
tp118
Rp119
ag50
(g54
S'Q%\xaes\xcdi\xc4?'
p120
tp121
Rp122
ag50
(g54
S' X\xaf\xd5\x90a\xbb?'
p123
tp124
Rp125
ag50
(g54
S'\xa4h**\xf8\x90\xe7?'
p126
tp127
Rp128
ag50
(g54
S'Q%\xaes\xcdi\xc4?'
p129
tp130
Rp131
ag50
(g54
S'\x14\x89pZ\x97h\xe7?'
p132
tp133
Rp134
ag50
(g54
S'\xa4h**\xf8\x90\xe7?'
p135
tp136
Rp137
ag50
(g54
S'Q%\xaes\xcdi\xc4?'
p138
tp139
Rp140
ag50
(g54
S' X\xaf\xd5\x90a\xbb?'
p141
tp142
Rp143
ag50
(g54
S'Q%\xaes\xcdi\xc4?'
p144
tp145
Rp146
ag50
(g54
S"S'\xff5\x94o\xe7?"
p147
tp148
Rp149
ag50
(g54
S'\x131\n\xa5\xcc\x1a\xeb?'
p150
tp151
Rp152
ag50
(g54
S'\x87M\x01\xe8\xe3\xc5\xec?'
p153
tp154
Rp155
ag50
(g54
S'\xd4\xfb\xe2^\xdb\xdf\xe5?'
p156
tp157
Rp158
ag50
(g54
S'Q%\xaes\xcdi\xc4?'
p159
tp160
Rp161
ag50
(g54
S'\x9d\xdcl\xe6,\x07\xcc?'
p162
tp163
Rp164
ag50
(g54
S'\x131\n\xa5\xcc\x1a\xeb?'
p165
tp166
Rp167
ag50
(g54
S'%\xb8\xec\x06aF\xce?'
p168
tp169
Rp170
ag50
(g54
S'\x14\xf0LX\xdd{\xec?'
p171
tp172
Rp173
ag50
(g54
S'%\xb8\xec\x06aF\xce?'
p174
tp175
Rp176
ag50
(g54
S'\x9d\xdcl\xe6,\x07\xcc?'
p177
tp178
Rp179
ag50
(g54
S'Q%\xaes\xcdi\xc4?'
p180
tp181
Rp182
ag50
(g54
S'\x14\xf0LX\xdd{\xec?'
p183
tp184
Rp185
ag50
(g54
S'\x19\x95Tp\x0e\xf7\xe5?'
p186
tp187
Rp188
ag50
(g54
S'\xc4\xad\xe6~\x0fZ\xe4?'
p189
tp190
Rp191
ag50
(g54
S'%\xb8\xec\x06aF\xce?'
p192
tp193
Rp194
ag50
(g54
S'\x9d\xdcl\xe6,\x07\xcc?'
p195
tp196
Rp197
ag50
(g54
S'\xa4h**\xf8\x90\xe7?'
p198
tp199
Rp200
ag50
(g54
S'Q%\xaes\xcdi\xc4?'
p201
tp202
Rp203
ag50
(g54
S'^/\xf0\x1a\xa5;\xe1?'
p204
tp205
Rp206
ag50
(g54
S'%\xb8\xec\x06aF\xce?'
p207
tp208
Rp209
ag50
(g54
S'\x14\x89pZ\x97h\xe7?'
p210
tp211
Rp212
ag50
(g54
S'\xa4h**\xf8\x90\xe7?'
p213
tp214
Rp215
ag50
(g54
S'Q%\xaes\xcdi\xc4?'
p216
tp217
Rp218
ag50
(g54
S'^/\xf0\x1a\xa5;\xe1?'
p219
tp220
Rp221
ag50
(g54
S'%\xb8\xec\x06aF\xce?'
p222
tp223
Rp224
ag50
(g54
S'\x14\x89pZ\x97h\xe7?'
p225
tp226
Rp227
ag50
(g54
S'\xd4\xfb\xe2^\xdb\xdf\xe5?'
p228
tp229
Rp230
ag50
(g54
S'\xa4h**\xf8\x90\xe7?'
p231
tp232
Rp233
ag50
(g54
S'Q%\xaes\xcdi\xc4?'
p234
tp235
Rp236
ag50
(g54
S'\x14\x89pZ\x97h\xe7?'
p237
tp238
Rp239
ag50
(g54
S'\x131\n\xa5\xcc\x1a\xeb?'
p240
tp241
Rp242
ag50
(g54
S'\xc4\xad\xe6~\x0fZ\xe4?'
p243
tp244
Rp245
ag50
(g54
S'%\xb8\xec\x06aF\xce?'
p246
tp247
Rp248
ag50
(g54
S'\x14\x89pZ\x97h\xe7?'
p249
tp250
Rp251
ag50
(g54
S'Q%\xaes\xcdi\xc4?'
p252
tp253
Rp254
ag50
(g54
S' X\xaf\xd5\x90a\xbb?'
p255
tp256
Rp257
asS'sp'
p258
(lp259
(S'p0'
p260
I0
S'x'
p261
tp262
a(g260
I0
S'y'
p263
tp264
a(g260
I0
g263
tp265
ag262
a(S'p1'
p266
I0
g261
tp267
a(g266
I0
g263
tp268
a(g260
I0
g263
tp269
ag265
ag262
a(g260
I0
S't'
p270
tp271
a(g260
I0
g261
tp272
ag271
a(g260
I0
g263
tp273
ag265
ag262
ag264
ag262
ag267
a(g266
I0
g261
tp274
ag274
ag274
ag268
a(S'p2'
p275
I0
g263
tp276
a(g275
I0
g263
tp277
a(g275
I0
g270
tp278
a(g275
I0
g263
tp279
ag277
ag278
a(g275
F1.5707963267948966
g270
tp280
a(g275
F1.5707963267948966
g261
tp281
a(g275
F1.5707963267948966
g270
tp282
a(g275
F1.5707963267948966
g263
tp283
a(g275
F1.5707963267948966
g270
tp284
a(g275
F1.5707963267948966
g270
tp285
ag281
a(S'p3'
p286
F1.5707963267948966
g261
tp287
a(g286
F1.5707963267948966
g270
tp288
a(g286
F1.5707963267948966
g263
tp289
a(g275
F1.5707963267948966
g263
tp290
a(g275
F1.5707963267948966
g261
tp291
ag287
a(g286
F1.5707963267948966
g263
tp292
ag290
a(g275
F1.5707963267948966
g263
tp293
ag293
ag291
ag287
a(g286
F1.5707963267948966
g261
tp294
ag292
a(g286
F1.5707963267948966
g270
tp295
ag289
a(g286
F1.5707963267948966
g261
tp296
ag294
ag292
ag295
ag289
ag296
a(g286
F1.5707963267948966
g261
tp297
ag294
ag292
ag296
ag288
ag288
ag289
ag296
ag292
a(S'p4'
p298
F1.5707963267948966
g263
tp299
asS's'
p300
(lp301
(g260
I0
g22
tp302
ag262
ag264
ag265
ag262
ag267
ag268
ag269
ag265
ag262
ag271
ag272
ag271
ag273
ag265
ag262
ag264
ag262
ag267
ag274
ag274
ag274
ag268
ag276
ag277
ag278
ag279
ag277
ag278
ag280
ag281
ag282
ag283
ag284
ag285
ag281
ag287
ag288
ag289
ag290
ag291
ag287
ag292
ag290
ag293
ag293
ag291
ag287
ag294
ag292
ag295
ag289
ag296
ag294
ag292
ag295
ag289
ag296
ag297
ag294
ag292
ag296
ag288
ag288
ag289
ag296
ag292
asS'ui'
p303
(lp304
S'hs'
p305
aS'hp'
p306
ag258
ag305
aS'ss'
p307
ag306
ag307
ag258
ag305
ag307
ag306
ag307
ag306
ag258
ag305
ag307
ag305
ag307
ag306
ag306
ag307
ag306
ag306
ag306
ag306
ag258
ag306
ag306
ag258
ag306
ag307
ag305
ag305
ag258
ag306
ag307
ag306
ag305
ag307
ag305
ag307
ag306
ag258
ag305
ag305
ag305
ag307
ag306
ag307
ag306
ag305
ag258
ag306
ag306
ag306
ag258
ag305
ag307
ag306
ag306
ag258
ag306
ag306
ag305
ag258
ag306
ag258
asS'um_before'
p308
(lp309
g305
ag306
ag258
ag305
ag307
ag306
ag307
ag258
ag305
ag305
ag306
ag305
ag305
ag258
ag305
ag306
ag305
ag307
ag307
ag307
ag307
ag306
ag258
ag307
ag306
ag305
ag307
ag306
ag258
ag306
ag305
ag305
ag306
ag258
ag306
ag307
ag305
ag305
ag307
ag305
ag307
ag306
ag307
ag258
ag307
ag305
ag307
ag307
ag306
ag306
ag305
ag305
ag307
ag306
ag306
ag305
ag305
ag258
ag307
ag306
ag305
ag305
ag307
ag305
ag305
ag306
ag258
asS'um_after'
p310
(lp311
g305
ag306
ag258
ag305
ag307
ag306
ag307
ag258
ag305
ag305
ag306
ag305
ag305
ag258
ag305
ag306
ag305
ag307
ag307
ag307
ag307
ag306
ag258
ag307
ag306
ag305
ag307
ag306
ag258
ag306
ag305
ag305
ag306
ag258
ag306
ag307
ag305
ag305
ag307
ag305
ag307
ag306
ag307
ag258
aNag305
ag307
ag307
ag306
ag306
ag305
ag305
ag307
ag306
ag306
ag305
ag305
ag258
ag307
ag306
ag305
ag305
aNag305
ag305
ag306
ag258
asS'is_normalized_entropy_less_than_threshold'
p312
(lp313
g50
(g51
(S'b1'
p314
I0
I1
tp315
Rp316
(I3
S'|'
p317
NNNI-1
I-1
I0
tp318
bS'\x01'
p319
tp320
Rp321
ag50
(g316
S'\x00'
p322
tp323
Rp324
ag321
ag321
ag321
ag321
ag324
ag321
ag321
ag324
ag321
ag324
ag324
ag321
ag321
ag324
ag321
ag321
ag324
ag324
ag324
ag321
ag321
ag324
ag321
ag324
ag324
ag321
ag321
ag321
ag324
ag324
ag324
ag321
ag321
ag321
ag324
ag321
ag324
ag321
ag321
ag321
ag324
ag321
ag321
ag321
ag321
ag324
ag321
ag321
ag321
ag324
ag324
ag321
ag321
ag321
ag324
ag321
ag324
ag321
ag324
ag324
ag321
ag321
ag324
ag321
ag321
asaa(lp325
S'index'
p326
aI49078
aatp327
Rp328
.