ccollections
OrderedDict
p0
((lp1
(lp2
S'combination_dict'
p3
ag0
((lp4
(lp5
S'r_to_g_config'
p6
aS'br'
p7
aa(lp8
S'num_turns'
p9
aI1
aa(lp10
S'start_direction'
p11
acutils_ms
StartDirection
p12
(I0
tp13
Rp14
aa(lp15
S'assistance_type'
p16
acutils_ms
AssistanceType
p17
(I0
tp18
Rp19
aa(lp20
S'start_mode'
p21
aS't'
p22
aa(lp23
S'ui_given_a_noise'
p24
aF0.5
aa(lp25
S'um_given_ui_noise'
p26
aF0.7
aa(lp27
S'entropy_threshold'
p28
aF0.9
aatp29
Rp30
aa(lp31
S'data'
p32
accollections
defaultdict
p33
(c__builtin__
list
p34
tp35
Rp36
S'a'
p37
(lp38
S'mode_r'
p39
aS'mode_l'
p40
ag39
aS'move_p'
p41
ag41
ag41
ag41
ag41
ag40
ag39
ag39
ag41
ag41
ag40
ag40
ag41
ag40
ag41
ag41
ag40
ag39
ag39
ag39
aS'move_n'
p42
ag42
ag42
asS'assistance_match_with_ground_truth'
p43
(lp44
I00
aI00
aI01
aI00
aI00
aI00
aI00
aI01
aI00
aI00
aI01
aI00
aI01
aI00
aI00
aI01
aI00
aI00
aI01
aI00
aI00
aI00
aI01
aI00
aI00
aI01
asS'is_u_intended_equals_um'
p45
(lp46
I01
aI01
aI01
aI00
aI00
aI00
aI00
aI01
aI01
aI00
aI01
aI00
aI01
aI00
aI01
aI01
aI01
aI00
aI01
aI01
aI00
aI00
aI01
aI00
aI00
aI01
asS'total_steps'
p47
I26
sS'normalized_h_of_p_ui_given_um'
p48
(lp49
cnumpy.core.multiarray
scalar
p50
(cnumpy
dtype
p51
(S'f8'
p52
I0
I1
tp53
Rp54
(I3
S'<'
p55
NNNI-1
I-1
I0
tp56
bS'\xd8\x06\xaa\x93@f\xea?'
p57
tp58
Rp59
ag50
(g54
S'M\x8cy\xa7\xaa\xdc\xe8?'
p60
tp61
Rp62
ag50
(g54
S'\xefus\xe3\x8fN\xe1?'
p63
tp64
Rp65
ag50
(g54
S'>\xdd\x11\xfe\xcf{\xe3?'
p66
tp67
Rp68
ag50
(g54
S'>\xdd\x11\xfe\xcf{\xe3?'
p69
tp70
Rp71
ag50
(g54
S'o\xd0\x07<\xb0\xa3\xe3?'
p72
tp73
Rp74
ag50
(g54
S'o\xd0\x07<\xb0\xa3\xe3?'
p75
tp76
Rp77
ag50
(g54
S'\xf9\xde\x86#\x17\x1b\xcf?'
p78
tp79
Rp80
ag50
(g54
S'M\x8cy\xa7\xaa\xdc\xe8?'
p81
tp82
Rp83
ag50
(g54
S'\xfc]`\xa9\x83L\xeb?'
p84
tp85
Rp86
ag50
(g54
S'\xefus\xe3\x8fN\xe1?'
p87
tp88
Rp89
ag50
(g54
S'>\xdd\x11\xfe\xcf{\xe3?'
p90
tp91
Rp92
ag50
(g54
S'\xf9\xde\x86#\x17\x1b\xcf?'
p93
tp94
Rp95
ag50
(g54
S'\xc6\xd0\xca\xc5\xcd\xdb\xee?'
p96
tp97
Rp98
ag50
(g54
S'\xa5\x06\x06s\x02\x80\xeb?'
p99
tp100
Rp101
ag50
(g54
S'\xf9\xde\x86#\x17\x1b\xcf?'
p102
tp103
Rp104
ag50
(g54
S'\xa5\x06\x06s\x02\x80\xeb?'
p105
tp106
Rp107
ag50
(g54
S'o\xd0\x07<\xb0\xa3\xe3?'
p108
tp109
Rp110
ag50
(g54
S'\xf9\xde\x86#\x17\x1b\xcf?'
p111
tp112
Rp113
ag50
(g54
S'M\x8cy\xa7\xaa\xdc\xe8?'
p114
tp115
Rp116
ag50
(g54
S'\xfc]`\xa9\x83L\xeb?'
p117
tp118
Rp119
ag50
(g54
S'\xfc]`\xa9\x83L\xeb?'
p120
tp121
Rp122
ag50
(g54
S'\xefus\xe3\x8fN\xe1?'
p123
tp124
Rp125
ag50
(g54
S'\xc0\x1b\x07\xfa\x9bI\xeb?'
p126
tp127
Rp128
ag50
(g54
S'\xcd9\xbe|\x9a\xf8\xe5?'
p129
tp130
Rp131
ag50
(g54
S'\n\xca=\x8c\x82\x12\xe6?'
p132
tp133
Rp134
asS'sp'
p135
(lp136
(S'p0'
p137
I0
S'y'
p138
tp139
a(g137
I0
S't'
p140
tp141
a(g137
I0
S'x'
p142
tp143
ag143
ag143
ag143
ag143
a(S'p1'
p144
I0
g142
tp145
a(g144
I0
g138
tp146
ag146
a(g144
I0
g140
tp147
ag147
a(g144
F1.5707963267948966
g140
tp148
a(g144
F1.5707963267948966
g140
tp149
a(g144
I0
g140
tp150
ag148
ag150
ag150
ag148
a(g144
F1.5707963267948966
g142
tp151
ag151
ag151
a(g144
F1.5707963267948966
g138
tp152
ag152
ag152
a(S'p2'
p153
F1.5707963267948966
g138
tp154
asS's'
p155
(lp156
(g137
I0
g22
tp157
ag139
ag141
ag143
ag143
ag143
ag143
ag143
ag145
ag146
ag146
ag147
ag147
ag148
ag149
ag150
ag148
ag150
ag150
ag148
ag151
ag151
ag151
ag152
ag152
ag152
asS'ui'
p158
(lp159
S'hs'
p160
aS'ss'
p161
aS'hp'
p162
ag162
ag162
ag135
ag135
ag135
ag160
ag161
ag162
ag162
ag135
ag160
ag161
ag135
ag161
ag135
ag135
ag160
ag162
ag160
ag162
ag161
ag161
ag135
asS'um_before'
p163
(lp164
g160
ag162
ag162
ag161
ag161
ag160
ag160
ag135
ag162
ag161
ag162
ag161
ag135
ag135
ag161
ag135
ag161
ag160
ag135
ag162
ag161
ag161
ag162
ag160
ag162
ag161
asS'um_after'
p165
(lp166
g160
ag162
ag162
aNaNaNaNag135
ag162
aNag162
aNag135
ag135
ag161
ag135
ag161
aNag135
ag162
aNaNag162
aNaNag161
asS'is_normalized_entropy_less_than_threshold'
p167
(lp168
g50
(g51
(S'b1'
p169
I0
I1
tp170
Rp171
(I3
S'|'
p172
NNNI-1
I-1
I0
tp173
bS'\x01'
p174
tp175
Rp176
ag176
ag176
ag176
ag176
ag176
ag176
ag176
ag176
ag176
ag176
ag176
ag176
ag50
(g171
S'\x00'
p177
tp178
Rp179
ag176
ag176
ag176
ag176
ag176
ag176
ag176
ag176
ag176
ag176
ag176
ag176
asaa(lp180
S'index'
p181
aI86999
aatp182
Rp183
.