ccollections
OrderedDict
p0
((lp1
(lp2
S'combination_dict'
p3
ag0
((lp4
(lp5
S'r_to_g_config'
p6
aS'bl'
p7
aa(lp8
S'num_turns'
p9
aI1
aa(lp10
S'start_direction'
p11
acutils_ms
StartDirection
p12
(I1
tp13
Rp14
aa(lp15
S'assistance_type'
p16
acutils_ms
AssistanceType
p17
(I1
tp18
Rp19
aa(lp20
S'start_mode'
p21
aS'x'
p22
aa(lp23
S'ui_given_a_noise'
p24
aF0.7
aa(lp25
S'um_given_ui_noise'
p26
aF0.1
aa(lp27
S'entropy_threshold'
p28
aF0.7
aatp29
Rp30
aa(lp31
S'data'
p32
accollections
defaultdict
p33
(c__builtin__
list
p34
tp35
Rp36
S'a'
p37
(lp38
S'mode_r'
p39
aS'move_n'
p40
ag39
ag40
ag40
ag40
aS'mode_l'
p41
ag41
ag41
ag41
ag40
ag40
ag39
ag41
asS'assistance_match_with_ground_truth'
p42
(lp43
I01
aI00
aI01
aI00
aI00
aI00
aI00
aI00
aI00
aI01
aI00
aI01
aI00
aI00
asS'is_u_intended_equals_um'
p44
(lp45
I01
aI01
aI01
aI01
aI01
aI01
aI01
aI01
aI01
aI01
aI01
aI01
aI01
aI01
asS'total_steps'
p46
I14
sS'normalized_h_of_p_ui_given_um'
p47
(lp48
cnumpy.core.multiarray
scalar
p49
(cnumpy
dtype
p50
(S'f8'
p51
I0
I1
tp52
Rp53
(I3
S'<'
p54
NNNI-1
I-1
I0
tp55
bS'\x07)\xd1\x9e\xee\x1a\xce?'
p56
tp57
Rp58
ag49
(g53
S'E|(\xcc\x7f,\xdb?'
p59
tp60
Rp61
ag49
(g53
S'\x07)\xd1\x9e\xee\x1a\xce?'
p62
tp63
Rp64
ag49
(g53
S'\xec\x0f\xaakM\x9b\xc9?'
p65
tp66
Rp67
ag49
(g53
S'\xec\x0f\xaakM\x9b\xc9?'
p68
tp69
Rp70
ag49
(g53
S'\x14j\xe8\x01\xfb\x85\xe6?'
p71
tp72
Rp73
ag49
(g53
S'Q\xa1M\xfc\x01g\xb8?'
p74
tp75
Rp76
ag49
(g53
S'Q\xa1M\xfc\x01g\xb8?'
p77
tp78
Rp79
ag49
(g53
S'Hz\xf5\xecr\xde\xe5?'
p80
tp81
Rp82
ag49
(g53
S'\xfe\xb0\xdfq\xe2\x90\xc0?'
p83
tp84
Rp85
ag49
(g53
S'\xec\x0f\xaakM\x9b\xc9?'
p86
tp87
Rp88
ag49
(g53
S'\xda\x8f\xdf\x8ec\xe7\xd0?'
p89
tp90
Rp91
ag49
(g53
S'og\xe1\xb5\xd9\xaa\xd4?'
p92
tp93
Rp94
ag49
(g53
S'Hz\xf5\xecr\xde\xe5?'
p95
tp96
Rp97
asS'sp'
p98
(lp99
(S'p0'
p100
I0
S'y'
p101
tp102
a(g100
I0
S'x'
p103
tp104
ag102
a(g100
I0
g101
tp105
ag105
a(g100
I0
S't'
p106
tp107
a(g100
I0
g106
tp108
ag108
a(g100
I0
g106
tp109
a(g100
I0
g101
tp110
ag105
a(S'p1'
p111
I0
g101
tp112
a(g111
I0
g103
tp113
a(S'p2'
p114
I0
g103
tp115
asS's'
p116
(lp117
(g100
I0
g22
tp118
ag102
ag104
ag102
ag105
ag105
ag107
ag108
ag108
ag109
ag110
ag105
ag112
ag113
asS'ui'
p119
(lp120
S'hp'
p121
aS'hs'
p122
ag121
ag98
ag98
ag121
ag98
ag98
aS'ss'
p123
ag122
ag98
ag123
ag122
ag123
asS'um_before'
p124
(lp125
g121
ag122
ag121
ag98
ag98
ag121
ag98
ag98
ag123
ag122
ag98
ag123
ag122
ag123
asS'um_after'
p126
(lp127
g121
ag122
ag121
ag98
ag98
ag121
ag98
ag98
ag123
ag122
ag98
ag123
ag122
ag123
asS'is_normalized_entropy_less_than_threshold'
p128
(lp129
g49
(g50
(S'b1'
p130
I0
I1
tp131
Rp132
(I3
S'|'
p133
NNNI-1
I-1
I0
tp134
bS'\x01'
p135
tp136
Rp137
ag137
ag137
ag137
ag137
ag49
(g132
S'\x00'
p138
tp139
Rp140
ag137
ag137
ag137
ag137
ag137
ag137
ag137
ag137
asaa(lp141
S'index'
p142
aI64623
aatp143
Rp144
.