ccollections
OrderedDict
p0
((lp1
(lp2
S'combination_dict'
p3
ag0
((lp4
(lp5
S'r_to_g_config'
p6
aS'tl'
p7
aa(lp8
S'num_turns'
p9
aI1
aa(lp10
S'start_direction'
p11
acutils_ms
StartDirection
p12
(I0
tp13
Rp14
aa(lp15
S'assistance_type'
p16
acutils_ms
AssistanceType
p17
(I0
tp18
Rp19
aa(lp20
S'start_mode'
p21
aS't'
p22
aa(lp23
S'ui_given_a_noise'
p24
aF0.5
aa(lp25
S'um_given_ui_noise'
p26
aF0.3
aa(lp27
S'entropy_threshold'
p28
aF0.5
aatp29
Rp30
aa(lp31
S'data'
p32
accollections
defaultdict
p33
(c__builtin__
list
p34
tp35
Rp36
S'a'
p37
(lp38
S'mode_r'
p39
aS'mode_l'
p40
ag40
ag39
ag39
aS'move_n'
p41
ag40
ag40
ag40
ag39
asS'assistance_match_with_ground_truth'
p42
(lp43
I00
aI00
aI00
aI00
aI01
aI01
aI00
aI00
aI00
aI00
asS'is_u_intended_equals_um'
p44
(lp45
I01
aI01
aI00
aI01
aI01
aI01
aI00
aI00
aI00
aI01
asS'total_steps'
p46
I10
sS'normalized_h_of_p_ui_given_um'
p47
(lp48
cnumpy.core.multiarray
scalar
p49
(cnumpy
dtype
p50
(S'f8'
p51
I0
I1
tp52
Rp53
(I3
S'<'
p54
NNNI-1
I-1
I0
tp55
bS'\xa2\xa4\x0c\x9f\x01\xfc\xe6?'
p56
tp57
Rp58
ag49
(g53
S'T<\x95\xd0^\x93\xe5?'
p59
tp60
Rp61
ag49
(g53
S'\x8c\x8a+-\x7fi\xe8?'
p62
tp63
Rp64
ag49
(g53
S"\xd90\xb6's\xa7\xe5?"
p65
tp66
Rp67
ag49
(g53
S'\xa8"\xf8\x92\t\x94\xdb?'
p68
tp69
Rp70
ag49
(g53
S'\xea\xe7\xd1\xd8\rr\xca?'
p71
tp72
Rp73
ag49
(g53
S'\xcc\x98G]z\xf8\xe8?'
p74
tp75
Rp76
ag49
(g53
S'\xcc\x98G]z\xf8\xe8?'
p77
tp78
Rp79
ag49
(g53
S'\x8c\x8a+-\x7fi\xe8?'
p80
tp81
Rp82
ag49
(g53
S'H\x8e\xaa\xd2\x03\xf7\xea?'
p83
tp84
Rp85
asS'sp'
p86
(lp87
(S'p0'
p88
I0
S'y'
p89
tp90
a(g88
I0
g89
tp91
a(g88
I0
S't'
p92
tp93
a(g88
I0
g92
tp94
a(g88
I0
S'x'
p95
tp96
a(S'p1'
p97
I0
g95
tp98
a(g97
I0
g95
tp99
ag99
a(g97
I0
g89
tp100
a(S'p2'
p101
I0
g89
tp102
asS's'
p103
(lp104
(g88
I0
g22
tp105
ag90
ag91
ag93
ag94
ag96
ag98
ag99
ag99
ag100
asS'ui'
p106
(lp107
S'ss'
p108
aS'hs'
p109
aS'hp'
p110
ag86
ag109
ag108
ag86
ag108
ag110
ag86
asS'um_before'
p111
(lp112
g109
ag86
ag110
ag108
ag110
ag108
ag108
ag108
ag110
ag86
asS'um_after'
p113
(lp114
g109
ag86
ag110
ag108
ag110
ag108
ag108
ag108
ag110
ag86
asS'is_normalized_entropy_less_than_threshold'
p115
(lp116
g49
(g50
(S'b1'
p117
I0
I1
tp118
Rp119
(I3
S'|'
p120
NNNI-1
I-1
I0
tp121
bS'\x00'
p122
tp123
Rp124
ag124
ag124
ag124
ag49
(g119
S'\x01'
p125
tp126
Rp127
ag127
ag124
ag124
ag124
ag124
asaa(lp128
S'index'
p129
aI29255
aatp130
Rp131
.