ccollections
OrderedDict
p0
((lp1
(lp2
S'combination_dict'
p3
ag0
((lp4
(lp5
S'r_to_g_config'
p6
aS'bl'
p7
aa(lp8
S'num_turns'
p9
aI2
aa(lp10
S'start_direction'
p11
acutils_ms
StartDirection
p12
(I0
tp13
Rp14
aa(lp15
S'assistance_type'
p16
acutils_ms
AssistanceType
p17
(I0
tp18
Rp19
aa(lp20
S'start_mode'
p21
aS'y'
p22
aa(lp23
S'ui_given_a_noise'
p24
aF0.7
aa(lp25
S'um_given_ui_noise'
p26
aF0.7
aa(lp27
S'entropy_threshold'
p28
aF0.8
aatp29
Rp30
aa(lp31
S'data'
p32
accollections
defaultdict
p33
(c__builtin__
list
p34
tp35
Rp36
S'a'
p37
(lp38
S'mode_l'
p39
aS'move_n'
p40
ag39
aS'mode_r'
p41
ag39
ag39
ag39
ag40
ag41
ag41
ag39
ag39
ag41
ag41
ag39
ag39
ag39
ag39
ag40
ag39
aS'move_p'
p42
ag39
ag39
ag40
ag41
ag39
ag41
ag40
ag41
ag40
ag39
ag41
ag41
ag41
ag41
ag41
ag41
ag39
ag39
ag39
ag39
ag41
ag40
asS'assistance_match_with_ground_truth'
p43
(lp44
I01
aI01
aI00
aI00
aI00
aI00
aI01
aI00
aI00
aI00
aI00
aI00
aI00
aI00
aI00
aI00
aI00
aI01
aI01
aI01
aI01
aI00
aI01
aI00
aI00
aI00
aI01
aI00
aI01
aI01
aI00
aI00
aI00
aI00
aI00
aI00
aI00
aI00
aI00
aI00
aI00
aI01
aI01
asS'is_u_intended_equals_um'
p45
(lp46
I01
aI01
aI01
aI01
aI00
aI00
aI01
aI01
aI01
aI01
aI00
aI01
aI01
aI01
aI00
aI00
aI00
aI01
aI01
aI01
aI01
aI00
aI01
aI01
aI01
aI01
aI01
aI01
aI01
aI01
aI01
aI01
aI00
aI00
aI01
aI00
aI01
aI00
aI00
aI00
aI01
aI01
aI01
asS'total_steps'
p47
I43
sS'normalized_h_of_p_ui_given_um'
p48
(lp49
cnumpy.core.multiarray
scalar
p50
(cnumpy
dtype
p51
(S'f8'
p52
I0
I1
tp53
Rp54
(I3
S'<'
p55
NNNI-1
I-1
I0
tp56
bS"\xf3\xfb\x9c\xca'\xa5\xdd?"
p57
tp58
Rp59
ag50
(g54
S'|\x7f\xbd\xc6M\x86\xe5?'
p60
tp61
Rp62
ag50
(g54
S'\x92>\x94\x1f\xb8\xb4\xdb?'
p63
tp64
Rp65
ag50
(g54
S'\xe8\\\xe9\xb7\xe90\xea?'
p66
tp67
Rp68
ag50
(g54
S'\x87\xf2@\x06R\xf0\xe8?'
p69
tp70
Rp71
ag50
(g54
S'\x87\xf2@\x06R\xf0\xe8?'
p72
tp73
Rp74
ag50
(g54
S"\xf3\xfb\x9c\xca'\xa5\xdd?"
p75
tp76
Rp77
ag50
(g54
S'\xe2V\x8dF\xa5!\xe7?'
p78
tp79
Rp80
ag50
(g54
S'\xe8\\\xe9\xb7\xe90\xea?'
p81
tp82
Rp83
ag50
(g54
S'\x98\r\xb3\xcf\x81t\xed?'
p84
tp85
Rp86
ag50
(g54
S'\x87\xf2@\x06R\xf0\xe8?'
p87
tp88
Rp89
ag50
(g54
S'\x92>\x94\x1f\xb8\xb4\xdb?'
p90
tp91
Rp92
ag50
(g54
S'\xe8\\\xe9\xb7\xe90\xea?'
p93
tp94
Rp95
ag50
(g54
S'\x98\r\xb3\xcf\x81t\xed?'
p96
tp97
Rp98
ag50
(g54
S'\x87\xf2@\x06R\xf0\xe8?'
p99
tp100
Rp101
ag50
(g54
S'c\x9e]q\x11h\xe5?'
p102
tp103
Rp104
ag50
(g54
S'\x87\xf2@\x06R\xf0\xe8?'
p105
tp106
Rp107
ag50
(g54
S"\xf3\xfb\x9c\xca'\xa5\xdd?"
p108
tp109
Rp110
ag50
(g54
S'|\x7f\xbd\xc6M\x86\xe5?'
p111
tp112
Rp113
ag50
(g54
S"\xf3\xfb\x9c\xca'\xa5\xdd?"
p114
tp115
Rp116
ag50
(g54
S'o\xfe\xf6(y\x01\xdc?'
p117
tp118
Rp119
ag50
(g54
S'\x87\xf2@\x06R\xf0\xe8?'
p120
tp121
Rp122
ag50
(g54
S"\xf3\xfb\x9c\xca'\xa5\xdd?"
p123
tp124
Rp125
ag50
(g54
S'\xe2V\x8dF\xa5!\xe7?'
p126
tp127
Rp128
ag50
(g54
S'\x98\r\xb3\xcf\x81t\xed?'
p129
tp130
Rp131
ag50
(g54
S'\x92>\x94\x1f\xb8\xb4\xdb?'
p132
tp133
Rp134
ag50
(g54
S'\x08!\xbfL\x89S\xe5?'
p135
tp136
Rp137
ag50
(g54
S'\xe2V\x8dF\xa5!\xe7?'
p138
tp139
Rp140
ag50
(g54
S'\x08!\xbfL\x89S\xe5?'
p141
tp142
Rp143
ag50
(g54
S'|\x7f\xbd\xc6M\x86\xe5?'
p144
tp145
Rp146
ag50
(g54
S'\x92>\x94\x1f\xb8\xb4\xdb?'
p147
tp148
Rp149
ag50
(g54
S'\xe8\\\xe9\xb7\xe90\xea?'
p150
tp151
Rp152
ag50
(g54
S'R2\xf8%\x0c\xfa\xed?'
p153
tp154
Rp155
ag50
(g54
S'R2\xf8%\x0c\xfa\xed?'
p156
tp157
Rp158
ag50
(g54
S'\xe8\\\xe9\xb7\xe90\xea?'
p159
tp160
Rp161
ag50
(g54
S'R2\xf8%\x0c\xfa\xed?'
p162
tp163
Rp164
ag50
(g54
S'\x98\r\xb3\xcf\x81t\xed?'
p165
tp166
Rp167
ag50
(g54
S'\x87\xf2@\x06R\xf0\xe8?'
p168
tp169
Rp170
ag50
(g54
S'c\x9e]q\x11h\xe5?'
p171
tp172
Rp173
ag50
(g54
S'\x87\xf2@\x06R\xf0\xe8?'
p174
tp175
Rp176
ag50
(g54
S'\x92>\x94\x1f\xb8\xb4\xdb?'
p177
tp178
Rp179
ag50
(g54
S'\x08!\xbfL\x89S\xe5?'
p180
tp181
Rp182
ag50
(g54
S'|\x7f\xbd\xc6M\x86\xe5?'
p183
tp184
Rp185
asS'sp'
p186
(lp187
(S'p0'
p188
I0
S'x'
p189
tp190
a(S'p1'
p191
I0
g189
tp192
a(g191
I0
S'y'
p193
tp194
a(g188
I0
g193
tp195
ag195
ag195
ag190
a(g188
I0
S't'
p196
tp197
a(g188
I0
g196
tp198
a(g188
I0
g193
tp199
ag199
a(g188
I0
g196
tp200
ag198
ag199
ag199
ag199
ag199
ag190
ag192
a(g191
I0
g196
tp201
a(g191
F1.5707963267948966
g196
tp202
ag202
a(g191
F1.5707963267948966
g193
tp203
a(g191
F1.5707963267948966
g189
tp204
a(g191
F1.5707963267948966
g196
tp205
a(g191
F1.5707963267948966
g189
tp206
a(g191
F1.5707963267948966
g193
tp207
ag204
ag207
a(S'p2'
p208
F1.5707963267948966
g193
tp209
a(g208
F1.5707963267948966
g196
tp210
a(g208
F1.5707963267948966
g196
tp211
a(g208
F1.5707963267948966
g196
tp212
ag212
ag211
ag212
a(g208
F1.5707963267948966
g193
tp213
ag213
ag213
ag213
ag210
a(g208
F1.5707963267948966
g189
tp214
a(S'p3'
p215
F1.5707963267948966
g189
tp216
asS's'
p217
(lp218
(g188
I0
g22
tp219
ag190
ag192
ag194
ag195
ag195
ag195
ag190
ag197
ag198
ag199
ag199
ag200
ag198
ag199
ag199
ag199
ag199
ag190
ag192
ag201
ag202
ag202
ag203
ag204
ag205
ag206
ag207
ag204
ag207
ag209
ag210
ag211
ag212
ag212
ag211
ag212
ag213
ag213
ag213
ag213
ag210
ag214
asS'ui'
p220
(lp221
S'hp'
p222
aS'hs'
p223
ag222
ag222
ag223
ag186
ag223
aS'ss'
p224
ag186
ag224
ag186
ag222
ag186
ag223
ag186
ag222
ag186
ag223
ag224
ag186
ag186
ag186
ag223
ag224
ag186
ag222
ag222
ag223
ag222
ag224
ag222
ag186
ag224
ag222
ag186
ag186
ag224
ag186
ag223
ag222
ag222
ag222
ag224
asS'um_before'
p225
(lp226
g223
ag224
ag222
ag186
ag186
ag186
ag223
ag223
ag186
ag223
ag186
ag222
ag186
ag223
ag186
ag224
ag186
ag223
ag224
ag223
ag186
ag186
ag223
ag223
ag223
ag222
ag222
ag223
ag222
ag224
ag222
ag186
ag224
ag224
ag186
ag224
ag223
ag186
ag224
ag186
ag222
ag222
ag224
asS'um_after'
p227
(lp228
g223
ag224
ag222
ag186
aNaNag223
ag223
ag186
ag223
aNag222
ag186
ag223
aNaNaNag223
ag224
ag223
ag186
aNag223
ag223
ag223
ag222
ag222
ag223
ag222
ag224
ag222
ag186
ag224
ag224
ag186
ag224
ag223
aNaNaNag222
ag222
ag224
asS'is_normalized_entropy_less_than_threshold'
p229
(lp230
g50
(g51
(S'b1'
p231
I0
I1
tp232
Rp233
(I3
S'|'
p234
NNNI-1
I-1
I0
tp235
bS'\x01'
p236
tp237
Rp238
ag238
ag238
ag50
(g233
S'\x00'
p239
tp240
Rp241
ag238
ag238
ag238
ag238
ag241
ag241
ag238
ag238
ag241
ag241
ag238
ag238
ag238
ag238
ag238
ag238
ag238
ag238
ag238
ag238
ag241
ag238
ag238
ag238
ag238
ag238
ag238
ag241
ag241
ag241
ag241
ag241
ag241
ag238
ag238
ag238
ag238
ag238
ag238
asaa(lp242
S'index'
p243
aI68782
aatp244
Rp245
.