ccollections
OrderedDict
p0
((lp1
(lp2
S'combination_dict'
p3
ag0
((lp4
(lp5
S'r_to_g_config'
p6
aS'tr'
p7
aa(lp8
S'num_turns'
p9
aI1
aa(lp10
S'start_direction'
p11
acutils_ms
StartDirection
p12
(I1
tp13
Rp14
aa(lp15
S'assistance_type'
p16
acutils_ms
AssistanceType
p17
(I1
tp18
Rp19
aa(lp20
S'start_mode'
p21
aS'x'
p22
aa(lp23
S'ui_given_a_noise'
p24
aF0.5
aa(lp25
S'um_given_ui_noise'
p26
aF0.5
aa(lp27
S'entropy_threshold'
p28
aF0.7
aatp29
Rp30
aa(lp31
S'data'
p32
accollections
defaultdict
p33
(c__builtin__
list
p34
tp35
Rp36
S'a'
p37
(lp38
S'mode_r'
p39
aS'move_p'
p40
ag39
ag39
ag40
aS'mode_l'
p41
ag39
ag40
ag40
ag39
ag39
ag40
ag39
ag40
ag39
ag39
ag40
ag39
ag40
ag41
ag39
ag41
ag40
asS'assistance_match_with_ground_truth'
p42
(lp43
I01
aI01
aI00
aI01
aI00
aI00
aI01
aI00
aI00
aI00
aI01
aI00
aI01
aI00
aI00
aI01
aI01
aI01
aI00
aI00
aI00
aI01
aI01
asS'is_u_intended_equals_um'
p44
(lp45
I01
aI01
aI01
aI01
aI01
aI01
aI01
aI01
aI00
aI00
aI01
aI00
aI01
aI00
aI00
aI01
aI01
aI01
aI01
aI01
aI00
aI01
aI01
asS'total_steps'
p46
I23
sS'normalized_h_of_p_ui_given_um'
p47
(lp48
cnumpy.core.multiarray
scalar
p49
(cnumpy
dtype
p50
(S'f8'
p51
I0
I1
tp52
Rp53
(I3
S'<'
p54
NNNI-1
I-1
I0
tp55
bS'\x93\x1e.m\xb2j\xe2?'
p56
tp57
Rp58
ag49
(g53
S'\x7fU,e\n\xda\xe4?'
p59
tp60
Rp61
ag49
(g53
S'\xe7\x8cS\xeah\xbb\xec?'
p62
tp63
Rp64
ag49
(g53
S'\x93\x1e.m\xb2j\xe2?'
p65
tp66
Rp67
ag49
(g53
S'C\x15\xa7\x97\xde\xbd\xea?'
p68
tp69
Rp70
ag49
(g53
S'\x9b\x97\xc6\x06o\xe6\xea?'
p71
tp72
Rp73
ag49
(g53
S'\x93\x1e.m\xb2j\xe2?'
p74
tp75
Rp76
ag49
(g53
S'\xd45p\x18\xb3D\xee?'
p77
tp78
Rp79
ag49
(g53
S'\xb3\xa2rE\xfe\xad\xe9?'
p80
tp81
Rp82
ag49
(g53
S'\x082\x1a\xdbu\xd0\xe9?'
p83
tp84
Rp85
ag49
(g53
S'\x93\x1e.m\xb2j\xe2?'
p86
tp87
Rp88
ag49
(g53
S'\xb3\xa2rE\xfe\xad\xe9?'
p89
tp90
Rp91
ag49
(g53
S'\x93\x1e.m\xb2j\xe2?'
p92
tp93
Rp94
ag49
(g53
S'\xb3\xa2rE\xfe\xad\xe9?'
p95
tp96
Rp97
ag49
(g53
S'\x082\x1a\xdbu\xd0\xe9?'
p98
tp99
Rp100
ag49
(g53
S'\x93\x1e.m\xb2j\xe2?'
p101
tp102
Rp103
ag49
(g53
S'\x7fU,e\n\xda\xe4?'
p104
tp105
Rp106
ag49
(g53
S'\x93\x1e.m\xb2j\xe2?'
p107
tp108
Rp109
ag49
(g53
S'C\x15\xa7\x97\xde\xbd\xea?'
p110
tp111
Rp112
ag49
(g53
S'\x9b\x97\xc6\x06o\xe6\xea?'
p113
tp114
Rp115
ag49
(g53
S'\t\xc8z\xa0Q\xa5\xe9?'
p116
tp117
Rp118
ag49
(g53
S'sc.\xb1\x89\xb6\xe3?'
p119
tp120
Rp121
ag49
(g53
S'\x7fU,e\n\xda\xe4?'
p122
tp123
Rp124
asS'sp'
p125
(lp126
(S'p0'
p127
I0
S'y'
p128
tp129
a(S'p1'
p130
I0
g128
tp131
a(g130
I0
g128
tp132
a(g130
I0
S't'
p133
tp134
a(g130
I0
S'x'
p135
tp136
a(g130
I0
g128
tp137
ag134
a(g130
I0
g133
tp138
a(g130
I0
g128
tp139
a(g130
I0
g128
tp140
ag134
ag139
ag134
ag139
ag140
ag134
a(g130
F1.5707963267948966
g133
tp141
a(g130
F1.5707963267948966
g135
tp142
a(g130
F1.5707963267948966
g128
tp143
a(g130
F1.5707963267948966
g133
tp144
a(g130
F1.5707963267948966
g128
tp145
a(g130
F1.5707963267948966
g135
tp146
a(S'p2'
p147
F1.5707963267948966
g135
tp148
asS's'
p149
(lp150
(g127
I0
g22
tp151
ag129
ag131
ag132
ag134
ag136
ag137
ag134
ag138
ag139
ag140
ag134
ag139
ag134
ag139
ag140
ag134
ag141
ag142
ag143
ag144
ag145
ag146
asS'ui'
p152
(lp153
g125
ag125
ag125
aS'ss'
p154
ag125
aS'hs'
p155
aS'hp'
p156
ag154
ag125
ag125
ag156
ag125
ag156
ag125
ag154
ag156
ag125
ag125
ag125
ag155
ag125
ag156
ag154
asS'um_before'
p157
(lp158
g156
ag125
ag125
ag156
ag156
ag156
ag156
ag154
ag155
ag154
ag156
ag155
ag156
ag155
ag154
ag156
ag125
ag156
ag156
ag156
ag155
ag155
ag125
asS'um_after'
p159
(lp160
g156
ag125
ag125
ag156
ag156
ag156
ag156
ag154
ag155
ag154
ag156
ag155
ag156
ag155
ag154
ag156
ag125
ag156
ag156
ag156
ag155
ag155
ag125
asS'is_normalized_entropy_less_than_threshold'
p161
(lp162
g49
(g50
(S'b1'
p163
I0
I1
tp164
Rp165
(I3
S'|'
p166
NNNI-1
I-1
I0
tp167
bS'\x01'
p168
tp169
Rp170
ag170
ag49
(g165
S'\x00'
p171
tp172
Rp173
ag170
ag173
ag173
ag170
ag173
ag173
ag173
ag170
ag173
ag170
ag173
ag173
ag170
ag170
ag170
ag173
ag173
ag173
ag170
ag170
asaa(lp174
S'index'
p175
aI6921
aatp176
Rp177
.