ccollections
OrderedDict
p0
((lp1
(lp2
S'combination_dict'
p3
ag0
((lp4
(lp5
S'r_to_g_config'
p6
aS'tr'
p7
aa(lp8
S'num_turns'
p9
aI3
aa(lp10
S'start_direction'
p11
acutils_ms
StartDirection
p12
(I1
tp13
Rp14
aa(lp15
S'assistance_type'
p16
acutils_ms
AssistanceType
p17
(I0
tp18
Rp19
aa(lp20
S'start_mode'
p21
aS't'
p22
aa(lp23
S'ui_given_a_noise'
p24
aF0.5
aa(lp25
S'um_given_ui_noise'
p26
aF0.5
aa(lp27
S'entropy_threshold'
p28
aF0.9
aatp29
Rp30
aa(lp31
S'data'
p32
accollections
defaultdict
p33
(c__builtin__
list
p34
tp35
Rp36
S'a'
p37
(lp38
S'mode_l'
p39
ag39
aS'move_p'
p40
ag40
ag40
aS'mode_r'
p41
ag41
ag40
ag40
ag41
ag41
ag41
ag41
ag41
ag41
ag40
ag40
ag40
ag41
ag40
ag40
ag39
ag41
ag40
ag40
asS'assistance_match_with_ground_truth'
p42
(lp43
I00
aI01
aI00
aI00
aI01
aI00
aI01
aI00
aI01
aI00
aI00
aI00
aI00
aI00
aI01
aI00
aI00
aI01
aI01
aI00
aI01
aI00
aI01
aI00
aI01
asS'is_u_intended_equals_um'
p44
(lp45
I00
aI01
aI00
aI00
aI01
aI00
aI01
aI00
aI01
aI00
aI00
aI01
aI00
aI00
aI01
aI00
aI00
aI01
aI01
aI00
aI01
aI01
aI01
aI00
aI01
asS'total_steps'
p46
I25
sS'normalized_h_of_p_ui_given_um'
p47
(lp48
cnumpy.core.multiarray
scalar
p49
(cnumpy
dtype
p50
(S'f8'
p51
I0
I1
tp52
Rp53
(I3
S'<'
p54
NNNI-1
I-1
I0
tp55
bS'\x189$\xfe\x15\xac\xe4?'
p56
tp57
Rp58
ag49
(g53
S'\xa0i\x82\xc4u:\xd9?'
p59
tp60
Rp61
ag49
(g53
S'\xc9\xb9\xea:\xf3\x13\xe9?'
p62
tp63
Rp64
ag49
(g53
S'\xc9\xb9\xea:\xf3\x13\xe9?'
p65
tp66
Rp67
ag49
(g53
S'\xf0\x8a\x9a\xcafG\xd2?'
p68
tp69
Rp70
ag49
(g53
S'43\xe3A~\xa1\xeb?'
p71
tp72
Rp73
ag49
(g53
S'\x06C~aq\xcc\xde?'
p74
tp75
Rp76
ag49
(g53
S'\xc9\xb9\xea:\xf3\x13\xe9?'
p77
tp78
Rp79
ag49
(g53
S'\xf0\x8a\x9a\xcafG\xd2?'
p80
tp81
Rp82
ag49
(g53
S'43\xe3A~\xa1\xeb?'
p83
tp84
Rp85
ag49
(g53
S'43\xe3A~\xa1\xeb?'
p86
tp87
Rp88
ag49
(g53
S'\xb7\xad{D\x15"\xec?'
p89
tp90
Rp91
ag49
(g53
S'43\xe3A~\xa1\xeb?'
p92
tp93
Rp94
ag49
(g53
S'43\xe3A~\xa1\xeb?'
p95
tp96
Rp97
ag49
(g53
S'\x06C~aq\xcc\xde?'
p98
tp99
Rp100
ag49
(g53
S'\xc9\xb9\xea:\xf3\x13\xe9?'
p101
tp102
Rp103
ag49
(g53
S'\x92*\x9b\x90\xa2I\xeb?'
p104
tp105
Rp106
ag49
(g53
S'\xf0\x8a\x9a\xcafG\xd2?'
p107
tp108
Rp109
ag49
(g53
S'\x06C~aq\xcc\xde?'
p110
tp111
Rp112
ag49
(g53
S'\xc9\xb9\xea:\xf3\x13\xe9?'
p113
tp114
Rp115
ag49
(g53
S'\xf0\x8a\x9a\xcafG\xd2?'
p116
tp117
Rp118
ag49
(g53
S'%\xd5\xc8\x17\xf2c\xe9?'
p119
tp120
Rp121
ag49
(g53
S'\x06C~aq\xcc\xde?'
p122
tp123
Rp124
ag49
(g53
S'\xc9\xb9\xea:\xf3\x13\xe9?'
p125
tp126
Rp127
ag49
(g53
S'\xf0\x8a\x9a\xcafG\xd2?'
p128
tp129
Rp130
asS'sp'
p131
(lp132
(S'p0'
p133
I0
g22
tp134
a(g133
I0
S'y'
p135
tp136
ag136
ag136
a(S'p1'
p137
I0
g135
tp138
ag138
a(g137
I0
S't'
p139
tp140
ag140
a(g137
F1.5707963267948966
g139
tp141
ag141
ag141
a(g137
F1.5707963267948966
g139
tp142
ag142
ag142
a(g137
F1.5707963267948966
S'x'
p143
tp144
ag144
ag144
a(S'p2'
p145
F1.5707963267948966
g143
tp146
a(g145
F1.5707963267948966
g135
tp147
ag147
a(S'p3'
p148
F1.5707963267948966
g135
tp149
a(g148
F1.5707963267948966
g139
tp150
a(g148
F1.5707963267948966
g143
tp151
ag151
a(S'p4'
p152
F1.5707963267948966
g143
tp153
asS's'
p154
(lp155
g134
ag134
ag136
ag136
ag136
ag138
ag138
ag140
ag140
ag141
ag141
ag141
ag142
ag142
ag142
ag144
ag144
ag144
ag146
ag147
ag147
ag149
ag150
ag151
ag151
asS'ui'
p156
(lp157
S'hs'
p158
ag158
ag131
aS'hp'
p159
ag131
ag159
ag159
aS'ss'
p160
ag131
ag131
ag158
ag160
ag158
ag159
ag159
ag158
ag131
ag131
ag158
ag131
ag131
ag159
ag159
ag131
ag131
asS'um_before'
p161
(lp162
g160
ag158
ag159
ag159
ag131
ag158
ag159
ag159
ag131
ag158
ag158
ag131
ag158
ag158
ag159
ag159
ag158
ag131
ag159
ag159
ag131
ag159
ag159
ag159
ag131
asS'um_after'
p163
(lp164
Nag158
aNaNag131
aNag159
aNag131
aNaNag131
aNaNag159
aNaNag131
ag159
aNag131
ag159
ag159
aNag131
asS'is_normalized_entropy_less_than_threshold'
p165
(lp166
g49
(g50
(S'b1'
p167
I0
I1
tp168
Rp169
(I3
S'|'
p170
NNNI-1
I-1
I0
tp171
bS'\x01'
p172
tp173
Rp174
ag174
ag174
ag174
ag174
ag174
ag174
ag174
ag174
ag174
ag174
ag174
ag174
ag174
ag174
ag174
ag174
ag174
ag174
ag174
ag174
ag174
ag174
ag174
ag174
asaa(lp175
S'index'
p176
aI25342
aatp177
Rp178
.