ccollections
OrderedDict
p0
((lp1
(lp2
S'combination_dict'
p3
ag0
((lp4
(lp5
S'r_to_g_config'
p6
aS'bl'
p7
aa(lp8
S'num_turns'
p9
aI1
aa(lp10
S'start_direction'
p11
acutils_ms
StartDirection
p12
(I1
tp13
Rp14
aa(lp15
S'assistance_type'
p16
acutils_ms
AssistanceType
p17
(I2
tp18
Rp19
aa(lp20
S'start_mode'
p21
aS'x'
p22
aa(lp23
S'ui_given_a_noise'
p24
aF0.1
aa(lp25
S'um_given_ui_noise'
p26
aF0.1
aa(lp27
S'entropy_threshold'
p28
aF0.7
aatp29
Rp30
aa(lp31
S'data'
p32
accollections
defaultdict
p33
(c__builtin__
list
p34
tp35
Rp36
S'a'
p37
(lp38
S'mode_r'
p39
aS'move_n'
p40
ag39
aS'move_p'
p41
ag41
ag39
ag40
ag39
ag40
asS'assistance_match_with_ground_truth'
p42
(lp43
I01
aI01
aI01
aI00
aI01
aI01
aI00
aI01
aI01
asS'is_u_intended_equals_um'
p44
(lp45
I00
aI00
aI00
aI00
aI00
aI00
aI00
aI00
aI00
asS'total_steps'
p46
I9
sS'normalized_h_of_p_ui_given_um'
p47
(lp48
cnumpy.core.multiarray
scalar
p49
(cnumpy
dtype
p50
(S'f8'
p51
I0
I1
tp52
Rp53
(I3
S'<'
p54
NNNI-1
I-1
I0
tp55
bS'`\x0cv\xaf\x17*\xe4?'
p56
tp57
Rp58
ag58
ag58
ag58
ag58
ag58
ag58
ag58
ag58
asS'sp'
p59
(lp60
(S'p0'
p61
I0
S'y'
p62
tp63
a(S'p1'
p64
I0
g62
tp65
a(g64
I0
S't'
p66
tp67
a(g64
I0
g66
tp68
a(g64
F1.5707963267948966
g66
tp69
a(g64
F1.5707963267948966
S'x'
p70
tp71
a(g64
F1.5707963267948966
g66
tp72
ag71
a(S'p2'
p73
F1.5707963267948966
g70
tp74
asS's'
p75
(lp76
(g61
I0
g22
tp77
ag63
ag65
ag67
ag68
ag69
ag71
ag72
ag71
asS'ui'
p78
(lp79
S'hp'
p80
aS'ss'
p81
ag80
ag81
ag59
ag80
ag81
ag80
ag81
asS'um_before'
p82
(lp83
g80
ag81
ag80
ag81
ag59
ag80
aS'hs'
p84
ag80
ag81
asS'um_after'
p85
(lp86
g80
ag81
ag80
ag81
ag59
ag80
ag84
ag80
ag81
asS'is_normalized_entropy_less_than_threshold'
p87
(lp88
g49
(g50
(S'b1'
p89
I0
I1
tp90
Rp91
(I3
S'|'
p92
NNNI-1
I-1
I0
tp93
bS'\x01'
p94
tp95
Rp96
ag96
ag96
ag96
ag96
ag96
ag96
ag96
ag96
asaa(lp97
S'index'
p98
aI65627
aatp99
Rp100
.