ccollections
OrderedDict
p0
((lp1
(lp2
S'combination_dict'
p3
ag0
((lp4
(lp5
S'r_to_g_config'
p6
aS'br'
p7
aa(lp8
S'num_turns'
p9
aI1
aa(lp10
S'start_direction'
p11
acutils_ms
StartDirection
p12
(I1
tp13
Rp14
aa(lp15
S'assistance_type'
p16
acutils_ms
AssistanceType
p17
(I1
tp18
Rp19
aa(lp20
S'start_mode'
p21
aS'x'
p22
aa(lp23
S'ui_given_a_noise'
p24
aF0.7
aa(lp25
S'um_given_ui_noise'
p26
aF0.7
aa(lp27
S'entropy_threshold'
p28
aF0.6
aatp29
Rp30
aa(lp31
S'data'
p32
accollections
defaultdict
p33
(c__builtin__
list
p34
tp35
Rp36
S'a'
p37
(lp38
S'mode_r'
p39
ag39
aS'move_n'
p40
ag39
ag39
aS'mode_l'
p41
asS'assistance_match_with_ground_truth'
p42
(lp43
I00
aI01
aI01
aI00
aI00
aI00
asS'is_u_intended_equals_um'
p44
(lp45
I01
aI01
aI01
aI00
aI01
aI00
asS'total_steps'
p46
I6
sS'normalized_h_of_p_ui_given_um'
p47
(lp48
cnumpy.core.multiarray
scalar
p49
(cnumpy
dtype
p50
(S'f8'
p51
I0
I1
tp52
Rp53
(I3
S'<'
p54
NNNI-1
I-1
I0
tp55
bS'\x02vx!A6\xe9?'
p56
tp57
Rp58
ag49
(g53
S'S\xffR\x035\x83\xe4?'
p59
tp60
Rp61
ag49
(g53
S'\xaa\xdf\xe8\xae\x9f\x9e\xe1?'
p62
tp63
Rp64
ag49
(g53
S'\xae\x13\xd5\tt\xa1\xe9?'
p65
tp66
Rp67
ag49
(g53
S'\x85\xa0\xb7\xd4\xa8U\xe6?'
p68
tp69
Rp70
ag49
(g53
S'QlX,\x1b\x8e\xed?'
p71
tp72
Rp73
asS'sp'
p74
(lp75
(S'p0'
p76
I0
S'x'
p77
tp78
a(g76
I0
S'y'
p79
tp80
a(S'p1'
p81
I0
g79
tp82
a(g81
I0
g79
tp83
a(g81
I0
g77
tp84
a(S'p2'
p85
I0
g77
tp86
asS's'
p87
(lp88
(g76
I0
g22
tp89
ag78
ag80
ag82
ag83
ag84
asS'ui'
p90
(lp91
S'hs'
p92
ag92
aS'hp'
p93
ag93
aS'ss'
p94
ag92
asS'um_before'
p95
(lp96
g94
ag93
ag94
ag74
ag92
ag74
asS'um_after'
p97
(lp98
g94
ag93
ag94
ag74
ag92
ag74
asS'is_normalized_entropy_less_than_threshold'
p99
(lp100
g49
(g50
(S'b1'
p101
I0
I1
tp102
Rp103
(I3
S'|'
p104
NNNI-1
I-1
I0
tp105
bS'\x00'
p106
tp107
Rp108
ag108
ag49
(g103
S'\x01'
p109
tp110
Rp111
ag108
ag108
ag108
asaa(lp112
S'index'
p113
aI93566
aatp114
Rp115
.