ccollections
OrderedDict
p0
((lp1
(lp2
S'combination_dict'
p3
ag0
((lp4
(lp5
S'r_to_g_config'
p6
aS'tl'
p7
aa(lp8
S'num_turns'
p9
aI2
aa(lp10
S'start_direction'
p11
acutils_ms
StartDirection
p12
(I1
tp13
Rp14
aa(lp15
S'assistance_type'
p16
acutils_ms
AssistanceType
p17
(I0
tp18
Rp19
aa(lp20
S'start_mode'
p21
aS't'
p22
aa(lp23
S'ui_given_a_noise'
p24
aF0.3
aa(lp25
S'um_given_ui_noise'
p26
aF0.7
aa(lp27
S'entropy_threshold'
p28
aF0.5
aatp29
Rp30
aa(lp31
S'data'
p32
accollections
defaultdict
p33
(c__builtin__
list
p34
tp35
Rp36
S'a'
p37
(lp38
S'mode_l'
p39
aS'move_p'
p40
aS'mode_r'
p41
ag39
ag39
ag41
ag39
ag40
ag39
ag40
ag41
ag39
ag40
ag41
ag41
ag41
ag40
ag39
ag41
ag40
ag41
ag41
ag41
ag40
ag39
ag39
aS'move_n'
p42
ag41
ag40
ag39
ag42
ag39
ag40
ag39
ag40
ag39
ag40
ag39
ag40
ag39
ag40
ag39
ag40
ag39
ag40
ag40
ag41
asS'assistance_match_with_ground_truth'
p43
(lp44
I01
aI00
aI00
aI00
aI00
aI00
aI01
aI00
aI01
aI00
aI00
aI01
aI00
aI00
aI00
aI01
aI00
aI00
aI01
aI00
aI00
aI00
aI01
aI01
aI00
aI01
aI00
aI01
aI01
aI01
aI01
aI01
aI00
aI01
aI00
aI01
aI00
aI01
aI01
aI01
aI00
aI00
aI00
aI01
aI00
aI00
aI00
asS'is_u_intended_equals_um'
p45
(lp46
I01
aI00
aI00
aI00
aI00
aI00
aI01
aI00
aI01
aI00
aI00
aI01
aI00
aI00
aI01
aI01
aI00
aI00
aI01
aI00
aI01
aI00
aI01
aI01
aI01
aI01
aI00
aI01
aI01
aI01
aI01
aI01
aI00
aI01
aI00
aI01
aI00
aI01
aI01
aI01
aI00
aI00
aI00
aI01
aI00
aI00
aI01
asS'total_steps'
p47
I47
sS'normalized_h_of_p_ui_given_um'
p48
(lp49
cnumpy.core.multiarray
scalar
p50
(cnumpy
dtype
p51
(S'f8'
p52
I0
I1
tp53
Rp54
(I3
S'<'
p55
NNNI-1
I-1
I0
tp56
bS"'\x1dO\xee\xb5\x1a\xd2?"
p57
tp58
Rp59
ag50
(g54
S'\x1f\xe7\x89#\n\x16\xea?'
p60
tp61
Rp62
ag50
(g54
S'u\xd4\x92]A\r\xec?'
p63
tp64
Rp65
ag50
(g54
S'#\x05\x89\x83\x93>\xe6?'
p66
tp67
Rp68
ag50
(g54
S'\x8eS\xc5\x81\x08\x15\xe4?'
p69
tp70
Rp71
ag50
(g54
S'u\xd4\x92]A\r\xec?'
p72
tp73
Rp74
ag50
(g54
S"'\x1dO\xee\xb5\x1a\xd2?"
p75
tp76
Rp77
ag50
(g54
S'\x82\xd9\x04\xa3m\xb8\xe7?'
p78
tp79
Rp80
ag50
(g54
S"'\x1dO\xee\xb5\x1a\xd2?"
p81
tp82
Rp83
ag50
(g54
S'\x1f\xe7\x89#\n\x16\xea?'
p84
tp85
Rp86
ag50
(g54
S'u\xd4\x92]A\r\xec?'
p87
tp88
Rp89
ag50
(g54
S"'\x1dO\xee\xb5\x1a\xd2?"
p90
tp91
Rp92
ag50
(g54
S'\x1f\xe7\x89#\n\x16\xea?'
p93
tp94
Rp95
ag50
(g54
S'F\xc7\xc0E\xbf\xde\xe8?'
p96
tp97
Rp98
ag50
(g54
S'\xb5\x96,\xb0\x0b\xe4\xe9?'
p99
tp100
Rp101
ag50
(g54
S'\xc4Q\xd7\xcb}\x19\xe0?'
p102
tp103
Rp104
ag50
(g54
S'\x82\xd9\x04\xa3m\xb8\xe7?'
p105
tp106
Rp107
ag50
(g54
S'\x8eS\xc5\x81\x08\x15\xe4?'
p108
tp109
Rp110
ag50
(g54
S'\xc4Q\xd7\xcb}\x19\xe0?'
p111
tp112
Rp113
ag50
(g54
S'\x1f\xe7\x89#\n\x16\xea?'
p114
tp115
Rp116
ag50
(g54
S'\xb5\x96,\xb0\x0b\xe4\xe9?'
p117
tp118
Rp119
ag50
(g54
S'F\xc7\xc0E\xbf\xde\xe8?'
p120
tp121
Rp122
ag50
(g54
S'\xc4Q\xd7\xcb}\x19\xe0?'
p123
tp124
Rp125
ag50
(g54
S'\xf0\x8a\x00d\xc7;\xd6?'
p126
tp127
Rp128
ag50
(g54
S',1i\x08\x9dw\xe8?'
p129
tp130
Rp131
ag50
(g54
S"'\x1dO\xee\xb5\x1a\xd2?"
p132
tp133
Rp134
ag50
(g54
S'@%\xcf\x84\xf13\xe3?'
p135
tp136
Rp137
ag50
(g54
S'\xc4Q\xd7\xcb}\x19\xe0?'
p138
tp139
Rp140
ag50
(g54
S'\xf0\x8a\x00d\xc7;\xd6?'
p141
tp142
Rp143
ag50
(g54
S"'\x1dO\xee\xb5\x1a\xd2?"
p144
tp145
Rp146
ag50
(g54
S'\xee\x83\xac\x1e\x19\xcd\xcd?'
p147
tp148
Rp149
ag50
(g54
S"'\x1dO\xee\xb5\x1a\xd2?"
p150
tp151
Rp152
ag50
(g54
S'\x82\xd9\x04\xa3m\xb8\xe7?'
p153
tp154
Rp155
ag50
(g54
S"'\x1dO\xee\xb5\x1a\xd2?"
p156
tp157
Rp158
ag50
(g54
S'\x82\xd9\x04\xa3m\xb8\xe7?'
p159
tp160
Rp161
ag50
(g54
S"'\x1dO\xee\xb5\x1a\xd2?"
p162
tp163
Rp164
ag50
(g54
S'\x82\xd9\x04\xa3m\xb8\xe7?'
p165
tp166
Rp167
ag50
(g54
S"'\x1dO\xee\xb5\x1a\xd2?"
p168
tp169
Rp170
ag50
(g54
S'\xf0\x8a\x00d\xc7;\xd6?'
p171
tp172
Rp173
ag50
(g54
S"'\x1dO\xee\xb5\x1a\xd2?"
p174
tp175
Rp176
ag50
(g54
S'\x82\xd9\x04\xa3m\xb8\xe7?'
p177
tp178
Rp179
ag50
(g54
S'#\x05\x89\x83\x93>\xe6?'
p180
tp181
Rp182
ag50
(g54
S'\x82\xd9\x04\xa3m\xb8\xe7?'
p183
tp184
Rp185
ag50
(g54
S"'\x1dO\xee\xb5\x1a\xd2?"
p186
tp187
Rp188
ag50
(g54
S'\xff\x05XS\x97+\xed?'
p189
tp190
Rp191
ag50
(g54
S'\x1f\xe7\x89#\n\x16\xea?'
p192
tp193
Rp194
ag50
(g54
S'\xb5\x96,\xb0\x0b\xe4\xe9?'
p195
tp196
Rp197
asS'sp'
p198
(lp199
(S'p0'
p200
I0
S'y'
p201
tp202
a(g200
I0
S'x'
p203
tp204
a(g200
I0
S't'
p205
tp206
a(g200
I0
g205
tp207
a(g200
I0
g203
tp208
ag206
ag202
a(g200
I0
g205
tp209
ag202
ag204
ag206
ag202
ag204
a(g200
I0
g203
tp210
a(g200
I0
g203
tp211
a(g200
I0
g201
tp212
ag209
ag208
ag212
ag204
ag211
ag210
ag212
a(S'p1'
p213
I0
g201
tp214
a(g213
I0
g201
tp215
a(g213
I0
g203
tp216
a(g200
I0
g203
tp217
ag212
ag214
ag216
a(S'p2'
p218
I0
g203
tp219
a(g218
I0
g205
tp220
a(g218
I0
g203
tp221
ag220
ag221
ag220
ag221
ag220
a(g218
F1.5707963267948966
g205
tp222
a(g218
F1.5707963267948966
g201
tp223
a(g218
F1.5707963267948966
g205
tp224
a(g218
I0
g205
tp225
ag221
ag220
a(g218
I0
g205
tp226
a(g218
I0
g201
tp227
a(S'p3'
p228
I0
g201
tp229
asS's'
p230
(lp231
(g200
I0
g22
tp232
ag202
ag204
ag206
ag207
ag208
ag206
ag202
ag209
ag202
ag204
ag206
ag202
ag204
ag210
ag211
ag212
ag209
ag208
ag212
ag204
ag211
ag210
ag212
ag214
ag215
ag216
ag217
ag212
ag214
ag216
ag219
ag220
ag221
ag220
ag221
ag220
ag221
ag220
ag222
ag223
ag224
ag225
ag221
ag220
ag226
ag227
asS'ui'
p233
(lp234
S'hs'
p235
ag235
aS'ss'
p236
aS'hp'
p237
ag235
ag235
ag235
ag236
ag235
ag198
ag235
ag235
ag235
ag236
ag198
ag198
ag198
ag237
ag237
ag237
ag198
ag236
ag237
ag198
ag237
ag235
ag236
ag237
ag198
ag235
ag236
ag235
ag198
ag235
ag198
ag235
ag198
ag235
ag198
ag235
ag198
ag237
ag198
ag235
ag236
ag237
ag236
asS'um_before'
p238
(lp239
g235
ag235
ag235
ag236
ag237
ag235
ag235
ag237
ag235
ag235
ag235
ag235
ag235
ag236
ag198
ag237
ag237
ag237
ag237
ag235
ag198
ag236
ag237
ag198
ag198
ag235
ag198
ag237
ag198
ag235
ag236
ag235
ag237
ag235
ag237
ag235
ag237
ag235
ag198
ag235
ag237
ag236
ag237
ag235
ag236
ag235
ag198
asS'um_after'
p240
(lp241
g235
ag235
ag235
ag236
ag237
ag235
ag235
ag237
ag235
ag235
ag235
ag235
ag235
ag236
ag198
ag237
ag237
ag237
ag237
ag235
ag198
ag236
ag237
ag198
ag198
ag235
ag198
ag237
ag198
ag235
ag236
ag235
ag237
ag235
ag237
ag235
ag237
ag235
ag198
ag235
ag237
ag236
ag237
ag235
ag236
ag235
ag198
asS'is_normalized_entropy_less_than_threshold'
p242
(lp243
g50
(g51
(S'b1'
p244
I0
I1
tp245
Rp246
(I3
S'|'
p247
NNNI-1
I-1
I0
tp248
bS'\x01'
p249
tp250
Rp251
ag50
(g246
S'\x00'
p252
tp253
Rp254
ag254
ag254
ag254
ag254
ag251
ag254
ag251
ag254
ag254
ag251
ag254
ag254
ag254
ag254
ag254
ag254
ag254
ag254
ag254
ag254
ag254
ag251
ag254
ag251
ag254
ag254
ag251
ag251
ag251
ag251
ag254
ag251
ag254
ag251
ag254
ag251
ag251
ag251
ag254
ag254
ag254
ag251
ag254
ag254
ag254
asaa(lp255
S'index'
p256
aI44351
aatp257
Rp258
.