ccollections
OrderedDict
p0
((lp1
(lp2
S'combination_dict'
p3
ag0
((lp4
(lp5
S'r_to_g_config'
p6
aS'tr'
p7
aa(lp8
S'num_turns'
p9
aI1
aa(lp10
S'start_direction'
p11
acutils_ms
StartDirection
p12
(I1
tp13
Rp14
aa(lp15
S'assistance_type'
p16
acutils_ms
AssistanceType
p17
(I1
tp18
Rp19
aa(lp20
S'start_mode'
p21
aS't'
p22
aa(lp23
S'ui_given_a_noise'
p24
aF0.7
aa(lp25
S'um_given_ui_noise'
p26
aF0.7
aa(lp27
S'entropy_threshold'
p28
aF0.6
aatp29
Rp30
aa(lp31
S'data'
p32
accollections
defaultdict
p33
(c__builtin__
list
p34
tp35
Rp36
S'a'
p37
(lp38
S'mode_l'
p39
ag39
ag39
ag39
ag39
ag39
aS'mode_r'
p40
aS'move_p'
p41
ag40
ag41
ag40
ag40
ag40
ag41
ag41
ag40
ag40
ag41
ag39
ag41
ag39
ag40
ag40
ag41
ag40
ag40
ag40
ag40
ag39
asS'assistance_match_with_ground_truth'
p42
(lp43
I00
aI00
aI00
aI00
aI00
aI00
aI01
aI00
aI01
aI00
aI00
aI00
aI01
aI00
aI01
aI00
aI01
aI00
aI01
aI00
aI00
aI00
aI01
aI01
aI00
aI00
aI00
aI00
aI00
asS'is_u_intended_equals_um'
p44
(lp45
I00
aI01
aI01
aI01
aI01
aI00
aI01
aI01
aI01
aI01
aI01
aI01
aI01
aI00
aI01
aI01
aI01
aI01
aI01
aI01
aI01
aI01
aI01
aI01
aI01
aI01
aI01
aI00
aI00
asS'total_steps'
p46
I29
sS'normalized_h_of_p_ui_given_um'
p47
(lp48
cnumpy.core.multiarray
scalar
p49
(cnumpy
dtype
p50
(S'f8'
p51
I0
I1
tp52
Rp53
(I3
S'<'
p54
NNNI-1
I-1
I0
tp55
bS'K62\xc5\x1b\xb9\xe7?'
p56
tp57
Rp58
ag49
(g53
S'ra-\xa0\xd0[\xe3?'
p59
tp60
Rp61
ag49
(g53
S'ra-\xa0\xd0[\xe3?'
p62
tp63
Rp64
ag49
(g53
S'ra-\xa0\xd0[\xe3?'
p65
tp66
Rp67
ag49
(g53
S'ra-\xa0\xd0[\xe3?'
p68
tp69
Rp70
ag49
(g53
S'\x84\x9b\xfbHZ\xb5\xe4?'
p71
tp72
Rp73
ag49
(g53
S'\xc4\x0e\x08\xd4c\x95\xe8?'
p74
tp75
Rp76
ag49
(g53
S'P\xd6b\x98&\xea\xe9?'
p77
tp78
Rp79
ag49
(g53
S'\xc4\x0e\x08\xd4c\x95\xe8?'
p80
tp81
Rp82
ag49
(g53
S'P\xd6b\x98&\xea\xe9?'
p83
tp84
Rp85
ag49
(g53
S'*\x7fG\xb5 \xca\xeb?'
p86
tp87
Rp88
ag49
(g53
S'\x88\x7f\xfe"\xca\x88\xec?'
p89
tp90
Rp91
ag49
(g53
S'\xc4\x0e\x08\xd4c\x95\xe8?'
p92
tp93
Rp94
ag49
(g53
S'\x8c\xaa\xa5\xf8F\x1b\xeb?'
p95
tp96
Rp97
ag49
(g53
S'\x94\x81\xeb\x16\x17*\xd5?'
p98
tp99
Rp100
ag49
(g53
S'\x88\x7f\xfe"\xca\x88\xec?'
p101
tp102
Rp103
ag49
(g53
S'\xc4\x0e\x08\xd4c\x95\xe8?'
p104
tp105
Rp106
ag49
(g53
S'\x8a\x8d\xef~t\xae\xe8?'
p107
tp108
Rp109
ag49
(g53
S':3\x9d\x92\x1b;\xd2?'
p110
tp111
Rp112
ag49
(g53
S'\x8a\x8d\xef~t\xae\xe8?'
p113
tp114
Rp115
ag49
(g53
S'ra-\xa0\xd0[\xe3?'
p116
tp117
Rp118
ag49
(g53
S'\x88\x7f\xfe"\xca\x88\xec?'
p119
tp120
Rp121
ag49
(g53
S'\xc4\x0e\x08\xd4c\x95\xe8?'
p122
tp123
Rp124
ag49
(g53
S'\x94\x81\xeb\x16\x17*\xd5?'
p125
tp126
Rp127
ag49
(g53
S'\x88\x7f\xfe"\xca\x88\xec?'
p128
tp129
Rp130
ag49
(g53
S'*\x7fG\xb5 \xca\xeb?'
p131
tp132
Rp133
ag49
(g53
S'*\x7fG\xb5 \xca\xeb?'
p134
tp135
Rp136
ag49
(g53
S'\x0b\x9b\xacSY\x0e\xe9?'
p137
tp138
Rp139
ag49
(g53
S'K62\xc5\x1b\xb9\xe7?'
p140
tp141
Rp142
asS'sp'
p143
(lp144
(S'p0'
p145
I0
S't'
p146
tp147
a(g145
I0
g146
tp148
ag148
ag148
ag148
a(g145
I0
S'x'
p149
tp150
a(g145
I0
S'y'
p151
tp152
a(g145
I0
g149
tp153
ag152
ag153
a(g145
I0
g149
tp154
a(g145
I0
g149
tp155
ag152
a(g145
I0
g151
tp156
a(S'p1'
p157
I0
g151
tp158
a(g157
I0
g151
tp159
a(g157
I0
g146
tp160
a(g157
I0
g149
tp161
a(g157
I0
g146
tp162
ag161
a(g145
I0
g149
tp163
ag155
ag152
ag158
ag159
a(g157
I0
g151
tp164
ag164
a(g157
I0
g149
tp165
a(S'p2'
p166
I0
g149
tp167
asS's'
p168
(lp169
(g145
I0
g22
tp170
ag147
ag148
ag148
ag148
ag148
ag150
ag152
ag153
ag152
ag153
ag154
ag155
ag152
ag156
ag158
ag159
ag160
ag161
ag162
ag161
ag163
ag155
ag152
ag158
ag159
ag164
ag164
ag165
asS'ui'
p171
(lp172
S'hs'
p173
aS'ss'
p174
ag173
ag174
ag174
ag174
aS'hp'
p175
ag143
ag175
ag175
ag143
ag174
ag175
ag143
ag143
ag175
ag175
ag173
ag173
ag173
ag174
ag175
ag174
ag143
ag174
ag143
ag174
ag175
ag174
asS'um_before'
p176
(lp177
g143
ag174
ag174
ag174
ag174
ag175
ag175
ag173
ag175
ag173
ag143
ag174
ag175
ag174
ag143
ag174
ag175
ag175
ag173
ag175
ag174
ag174
ag175
ag143
ag174
ag143
ag143
ag173
ag143
asS'um_after'
p178
(lp179
g143
ag174
ag174
ag174
ag174
ag175
ag175
ag173
ag175
ag173
ag143
ag174
ag175
ag174
ag143
ag174
ag175
ag175
ag173
ag175
ag174
ag174
ag175
ag143
ag174
ag143
ag143
ag173
ag143
asS'is_normalized_entropy_less_than_threshold'
p180
(lp181
g49
(g50
(S'b1'
p182
I0
I1
tp183
Rp184
(I3
S'|'
p185
NNNI-1
I-1
I0
tp186
bS'\x00'
p187
tp188
Rp189
ag189
ag189
ag189
ag189
ag189
ag189
ag189
ag189
ag189
ag189
ag189
ag189
ag189
ag49
(g184
S'\x01'
p190
tp191
Rp192
ag189
ag189
ag189
ag192
ag189
ag189
ag189
ag189
ag192
ag189
ag189
ag189
ag189
ag189
asaa(lp193
S'index'
p194
aI7965
aatp195
Rp196
.