ccollections
OrderedDict
p0
((lp1
(lp2
S'combination_dict'
p3
ag0
((lp4
(lp5
S'r_to_g_config'
p6
aS'bl'
p7
aa(lp8
S'num_turns'
p9
aI3
aa(lp10
S'start_direction'
p11
acutils_ms
StartDirection
p12
(I0
tp13
Rp14
aa(lp15
S'assistance_type'
p16
acutils_ms
AssistanceType
p17
(I1
tp18
Rp19
aa(lp20
S'start_mode'
p21
aS'y'
p22
aa(lp23
S'ui_given_a_noise'
p24
aF0.5
aa(lp25
S'um_given_ui_noise'
p26
aF0.1
aa(lp27
S'entropy_threshold'
p28
aF0.8
aatp29
Rp30
aa(lp31
S'data'
p32
accollections
defaultdict
p33
(c__builtin__
list
p34
tp35
Rp36
S'a'
p37
(lp38
S'mode_l'
p39
aS'move_n'
p40
ag39
ag39
ag39
ag40
aS'mode_r'
p41
ag41
ag40
ag41
ag40
ag39
ag39
ag39
ag40
ag41
ag40
ag41
ag39
ag41
ag39
ag41
ag40
ag41
ag39
ag39
ag39
ag40
ag41
ag39
ag41
ag40
ag39
ag41
ag40
ag39
aS'move_p'
p42
ag42
ag39
ag39
ag40
asS'assistance_match_with_ground_truth'
p43
(lp44
I01
aI00
aI00
aI00
aI01
aI00
aI00
aI01
aI01
aI01
aI01
aI00
aI00
aI01
aI00
aI01
aI00
aI00
aI00
aI00
aI00
aI01
aI00
aI00
aI00
aI00
aI01
aI00
aI00
aI00
aI01
aI01
aI00
aI01
aI01
aI01
aI00
aI01
aI00
aI01
aI01
asS'is_u_intended_equals_um'
p45
(lp46
I01
aI01
aI01
aI01
aI01
aI01
aI01
aI01
aI01
aI01
aI01
aI01
aI01
aI01
aI01
aI01
aI01
aI01
aI01
aI01
aI01
aI01
aI01
aI01
aI01
aI01
aI01
aI01
aI01
aI01
aI01
aI01
aI01
aI01
aI01
aI01
aI01
aI01
aI01
aI01
aI01
asS'total_steps'
p47
I41
sS'normalized_h_of_p_ui_given_um'
p48
(lp49
cnumpy.core.multiarray
scalar
p50
(cnumpy
dtype
p51
(S'f8'
p52
I0
I1
tp53
Rp54
(I3
S'<'
p55
NNNI-1
I-1
I0
tp56
bS'\xf0\xae\xc8\x02\xaa\xf2\xc3?'
p57
tp58
Rp59
ag50
(g54
S'\xfc\xdf\x18\xb1=\x8f\xe7?'
p60
tp61
Rp62
ag50
(g54
S'\x13%"\x1c\xc9<\xe5?'
p63
tp64
Rp65
ag50
(g54
S'\xb7\x089G\xa5T\xd9?'
p66
tp67
Rp68
ag50
(g54
S'\xf0\xae\xc8\x02\xaa\xf2\xc3?'
p69
tp70
Rp71
ag50
(g54
S'\xf8j9\xf7\x0f\x94\xdb?'
p72
tp73
Rp74
ag50
(g54
S'\xce\xdf\x11\xc1KV\xe0?'
p75
tp76
Rp77
ag50
(g54
S'\x7f\xbfwM\xb6\xff\xc5?'
p78
tp79
Rp80
ag50
(g54
S'\xf2\x01\xc6\xed\xe3=\xc0?'
p81
tp82
Rp83
ag50
(g54
S'\x7f\xbfwM\xb6\xff\xc5?'
p84
tp85
Rp86
ag50
(g54
S'\xf2\x01\xc6\xed\xe3=\xc0?'
p87
tp88
Rp89
ag50
(g54
S'\xb7\x089G\xa5T\xd9?'
p90
tp91
Rp92
ag50
(g54
S'\x13%"\x1c\xc9<\xe5?'
p93
tp94
Rp95
ag50
(g54
S'\xf0\xae\xc8\x02\xaa\xf2\xc3?'
p96
tp97
Rp98
ag50
(g54
S'\xf8j9\xf7\x0f\x94\xdb?'
p99
tp100
Rp101
ag50
(g54
S'\x7f\xbfwM\xb6\xff\xc5?'
p102
tp103
Rp104
ag50
(g54
S'\xae\xa4\x9a\x8e\x07p\xd9?'
p105
tp106
Rp107
ag50
(g54
S'~\xc5\xe3\xaf\xac\x02\xd2?'
p108
tp109
Rp110
ag50
(g54
S'\x82l\xcb{}+\xde?'
p111
tp112
Rp113
ag50
(g54
S'~\xc5\xe3\xaf\xac\x02\xd2?'
p114
tp115
Rp116
ag50
(g54
S'\x82l\xcb{}+\xde?'
p117
tp118
Rp119
ag50
(g54
S'\x7f\xbfwM\xb6\xff\xc5?'
p120
tp121
Rp122
ag50
(g54
S'\xf8j9\xf7\x0f\x94\xdb?'
p123
tp124
Rp125
ag50
(g54
S'~\xc5\xe3\xaf\xac\x02\xd2?'
p126
tp127
Rp128
ag50
(g54
S'\xb7\x089G\xa5T\xd9?'
p129
tp130
Rp131
ag50
(g54
S'\xb7\x089G\xa5T\xd9?'
p132
tp133
Rp134
ag50
(g54
S'\xf0\xae\xc8\x02\xaa\xf2\xc3?'
p135
tp136
Rp137
ag50
(g54
S'\xf8j9\xf7\x0f\x94\xdb?'
p138
tp139
Rp140
ag50
(g54
S'~\xc5\xe3\xaf\xac\x02\xd2?'
p141
tp142
Rp143
ag50
(g54
S'\x82l\xcb{}+\xde?'
p144
tp145
Rp146
ag50
(g54
S'\x7f\xbfwM\xb6\xff\xc5?'
p147
tp148
Rp149
ag50
(g54
S'\xf2\x01\xc6\xed\xe3=\xc0?'
p150
tp151
Rp152
ag50
(g54
S'\x82l\xcb{}+\xde?'
p153
tp154
Rp155
ag50
(g54
S'\x7f\xbfwM\xb6\xff\xc5?'
p156
tp157
Rp158
ag50
(g54
S'\xf2\x01\xc6\xed\xe3=\xc0?'
p159
tp160
Rp161
ag50
(g54
S'\xf0\xae\xc8\x02\xaa\xf2\xc3?'
p162
tp163
Rp164
ag50
(g54
S'x\xf7\xdcNL\x1e\xde?'
p165
tp166
Rp167
ag50
(g54
S'v^\x04\x82\x9c\xce\xc1?'
p168
tp169
Rp170
ag50
(g54
S'\x13%"\x1c\xc9<\xe5?'
p171
tp172
Rp173
ag50
(g54
S'\xf0\xae\xc8\x02\xaa\xf2\xc3?'
p174
tp175
Rp176
ag50
(g54
S'\xf2\x01\xc6\xed\xe3=\xc0?'
p177
tp178
Rp179
asS'sp'
p180
(lp181
(S'p0'
p182
I0
S'x'
p183
tp184
a(g182
I0
S'y'
p185
tp186
a(g182
I0
g185
tp187
a(g182
I0
g185
tp188
ag184
a(g182
I0
S't'
p189
tp190
a(g182
I0
g189
tp191
a(g182
I0
g183
tp192
a(S'p1'
p193
I0
g183
tp194
a(g193
I0
g185
tp195
a(S'p2'
p196
I0
g185
tp197
a(g196
I0
g185
tp198
a(g196
I0
g185
tp199
a(g196
I0
g183
tp200
a(g196
I0
g189
tp201
a(g196
I0
g183
tp202
a(g193
I0
g183
tp203
a(g193
I0
g189
tp204
a(g193
I0
g183
tp205
ag204
ag205
ag195
a(g193
I0
g183
tp206
ag204
a(g193
I0
g189
tp207
ag207
a(g193
I0
g185
tp208
ag206
ag204
ag205
ag195
ag197
a(g196
I0
g189
tp209
ag202
a(S'p3'
p210
I0
g183
tp211
a(g210
I0
g189
tp212
a(g210
I0
g189
tp213
a(g210
F1.5707963267948966
g189
tp214
a(g210
F1.5707963267948966
g189
tp215
a(g210
F1.5707963267948966
g185
tp216
a(S'p4'
p217
F1.5707963267948966
g185
tp218
asS's'
p219
(lp220
(g182
I0
g22
tp221
ag184
ag186
ag187
ag188
ag184
ag190
ag191
ag192
ag194
ag195
ag197
ag198
ag199
ag200
ag201
ag202
ag203
ag204
ag205
ag204
ag205
ag195
ag206
ag204
ag207
ag207
ag208
ag206
ag204
ag205
ag195
ag197
ag209
ag202
ag211
ag212
ag213
ag214
ag215
ag216
asS'ui'
p222
(lp223
S'hs'
p224
aS'ss'
p225
ag180
ag225
ag224
ag224
ag225
aS'hp'
p226
ag225
ag226
ag225
ag225
ag224
ag224
ag224
ag226
ag224
ag224
ag226
ag224
ag226
ag226
ag224
ag224
ag225
ag225
ag224
ag224
ag224
ag226
ag226
ag225
ag224
ag226
ag225
ag224
ag225
ag180
ag180
ag224
ag225
asS'um_before'
p227
(lp228
g224
ag226
ag180
ag225
ag224
ag224
ag225
ag226
ag225
ag226
ag225
ag225
ag180
ag224
ag224
ag226
ag180
ag224
ag226
ag224
ag226
ag226
ag224
ag224
ag225
ag225
ag224
ag224
ag224
ag226
ag226
ag225
ag226
ag226
ag225
ag224
ag225
ag180
ag180
ag224
ag225
asS'um_after'
p229
(lp230
g224
ag226
ag180
ag225
ag224
ag224
ag225
ag226
ag225
ag226
ag225
ag225
ag180
ag224
ag224
ag226
ag180
ag224
ag226
ag224
ag226
ag226
ag224
ag224
ag225
ag225
ag224
ag224
ag224
ag226
ag226
ag225
ag226
ag226
ag225
ag224
ag225
ag180
ag180
ag224
ag225
asS'is_normalized_entropy_less_than_threshold'
p231
(lp232
g50
(g51
(S'b1'
p233
I0
I1
tp234
Rp235
(I3
S'|'
p236
NNNI-1
I-1
I0
tp237
bS'\x01'
p238
tp239
Rp240
ag240
ag240
ag240
ag240
ag240
ag240
ag240
ag240
ag240
ag240
ag240
ag240
ag240
ag240
ag240
ag240
ag240
ag240
ag240
ag240
ag240
ag240
ag240
ag240
ag240
ag240
ag240
ag240
ag240
ag240
ag240
ag240
ag240
ag240
ag240
ag240
ag240
ag240
ag240
ag240
asaa(lp241
S'index'
p242
aI79630
aatp243
Rp244
.