ccollections
OrderedDict
p0
((lp1
(lp2
S'combination_dict'
p3
ag0
((lp4
(lp5
S'r_to_g_config'
p6
aS'tl'
p7
aa(lp8
S'num_turns'
p9
aI3
aa(lp10
S'start_direction'
p11
acutils_ms
StartDirection
p12
(I1
tp13
Rp14
aa(lp15
S'assistance_type'
p16
acutils_ms
AssistanceType
p17
(I1
tp18
Rp19
aa(lp20
S'start_mode'
p21
aS'x'
p22
aa(lp23
S'ui_given_a_noise'
p24
aF0.7
aa(lp25
S'um_given_ui_noise'
p26
aF0.5
aa(lp27
S'entropy_threshold'
p28
aF0.9
aatp29
Rp30
aa(lp31
S'data'
p32
accollections
defaultdict
p33
(c__builtin__
list
p34
tp35
Rp36
S'a'
p37
(lp38
S'mode_r'
p39
aS'mode_l'
p40
aS'move_p'
p41
ag40
aS'move_n'
p42
ag39
ag41
ag39
ag39
ag40
ag41
ag39
ag40
ag42
ag39
ag42
asS'assistance_match_with_ground_truth'
p43
(lp44
I00
aI01
aI01
aI01
aI01
aI01
aI01
aI00
aI00
aI01
aI01
aI00
aI01
aI00
aI01
aI01
asS'is_u_intended_equals_um'
p45
(lp46
I01
aI01
aI01
aI01
aI01
aI01
aI01
aI01
aI01
aI00
aI01
aI01
aI01
aI01
aI01
aI01
asS'total_steps'
p47
I16
sS'normalized_h_of_p_ui_given_um'
p48
(lp49
cnumpy.core.multiarray
scalar
p50
(cnumpy
dtype
p51
(S'f8'
p52
I0
I1
tp53
Rp54
(I3
S'<'
p55
NNNI-1
I-1
I0
tp56
bS'dZ<\xc1\xc4*\xe9?'
p57
tp58
Rp59
ag50
(g54
S'\x9a#\xee\xdb\x07\xdc\xcd?'
p60
tp61
Rp62
ag50
(g54
S'\x08\x06\xf9\x1f-\xcf\xe1?'
p63
tp64
Rp65
ag50
(g54
S'\x9a#\xee\xdb\x07\xdc\xcd?'
p66
tp67
Rp68
ag50
(g54
S'\x04\xaa\xe1U\xfb\x90\xe1?'
p69
tp70
Rp71
ag50
(g54
S'\x88\xdd\xbe:\xde:\xdc?'
p72
tp73
Rp74
ag50
(g54
S'\x08\x06\xf9\x1f-\xcf\xe1?'
p75
tp76
Rp77
ag50
(g54
S'\xb8\x83\xd2\x00@\xf4\xe7?'
p78
tp79
Rp80
ag50
(g54
S'dZ<\xc1\xc4*\xe9?'
p81
tp82
Rp83
ag50
(g54
S'chi>\x14e\xe3?'
p84
tp85
Rp86
ag50
(g54
S'\x08\x06\xf9\x1f-\xcf\xe1?'
p87
tp88
Rp89
ag50
(g54
S'dZ<\xc1\xc4*\xe9?'
p90
tp91
Rp92
ag50
(g54
S'\x9a#\xee\xdb\x07\xdc\xcd?'
p93
tp94
Rp95
ag50
(g54
S'\x97G\x83\xc8D\xc3\xec?'
p96
tp97
Rp98
ag50
(g54
S'\x88\xdd\xbe:\xde:\xdc?'
p99
tp100
Rp101
ag50
(g54
S'\x04\xaa\xe1U\xfb\x90\xe1?'
p102
tp103
Rp104
asS'sp'
p105
(lp106
(S'p0'
p107
I0
S't'
p108
tp109
a(g107
I0
S'y'
p110
tp111
a(S'p1'
p112
I0
g110
tp113
a(g112
I0
S'x'
p114
tp115
a(S'p2'
p116
I0
g114
tp117
a(g116
I0
g110
tp118
a(S'p3'
p119
I0
g110
tp120
a(g119
I0
g110
tp121
a(g119
I0
g114
tp122
a(g119
I0
g108
tp123
a(g119
F1.5707963267948966
g108
tp124
a(g119
F1.5707963267948966
g110
tp125
a(g119
F1.5707963267948966
g114
tp126
a(g119
F1.5707963267948966
g108
tp127
a(g119
F1.5707963267948966
g114
tp128
a(S'p4'
p129
F1.5707963267948966
g114
tp130
asS's'
p131
(lp132
(g107
I0
g22
tp133
ag109
ag111
ag113
ag115
ag117
ag118
ag120
ag121
ag122
ag123
ag124
ag125
ag126
ag127
ag128
asS'ui'
p134
(lp135
S'hp'
p136
aS'hs'
p137
ag105
ag137
aS'ss'
p138
ag136
ag105
ag137
ag137
ag137
ag105
ag137
ag137
ag137
ag105
ag138
asS'um_before'
p139
(lp140
g137
ag137
ag105
ag137
ag138
ag136
ag105
ag105
ag137
ag105
ag105
ag137
ag137
ag137
ag136
ag138
asS'um_after'
p141
(lp142
g137
ag137
ag105
ag137
ag138
ag136
ag105
ag105
ag137
ag137
ag105
ag137
ag137
ag137
ag136
ag138
asS'is_normalized_entropy_less_than_threshold'
p143
(lp144
g50
(g51
(S'b1'
p145
I0
I1
tp146
Rp147
(I3
S'|'
p148
NNNI-1
I-1
I0
tp149
bS'\x01'
p150
tp151
Rp152
ag152
ag152
ag152
ag152
ag152
ag152
ag152
ag152
ag152
ag152
ag152
ag152
ag152
ag152
ag152
asaa(lp153
S'index'
p154
aI55142
aatp155
Rp156
.