ccollections
OrderedDict
p0
((lp1
(lp2
S'combination_dict'
p3
ag0
((lp4
(lp5
S'r_to_g_config'
p6
aS'bl'
p7
aa(lp8
S'num_turns'
p9
aI3
aa(lp10
S'start_direction'
p11
acutils_ms
StartDirection
p12
(I0
tp13
Rp14
aa(lp15
S'assistance_type'
p16
acutils_ms
AssistanceType
p17
(I1
tp18
Rp19
aa(lp20
S'start_mode'
p21
aS't'
p22
aa(lp23
S'ui_given_a_noise'
p24
aF0.7
aa(lp25
S'um_given_ui_noise'
p26
aF0.3
aa(lp27
S'entropy_threshold'
p28
aF0.6
aatp29
Rp30
aa(lp31
S'data'
p32
accollections
defaultdict
p33
(c__builtin__
list
p34
tp35
Rp36
S'a'
p37
(lp38
S'mode_r'
p39
ag39
ag39
ag39
ag39
ag39
aS'move_n'
p40
ag39
ag39
ag39
aS'mode_l'
p41
ag39
ag40
ag41
ag39
ag39
ag41
ag41
ag41
ag40
ag41
ag39
ag39
ag41
ag40
ag41
aS'move_p'
p42
ag41
ag41
ag41
ag40
asS'assistance_match_with_ground_truth'
p43
(lp44
I00
aI00
aI00
aI00
aI00
aI01
aI01
aI00
aI00
aI00
aI00
aI01
aI00
aI00
aI00
aI00
aI00
aI00
aI01
aI01
aI00
aI00
aI00
aI01
aI01
aI01
aI01
aI00
aI00
aI01
aI01
asS'is_u_intended_equals_um'
p45
(lp46
I01
aI00
aI01
aI00
aI01
aI01
aI01
aI01
aI01
aI01
aI01
aI01
aI01
aI01
aI01
aI01
aI01
aI01
aI01
aI01
aI01
aI00
aI01
aI01
aI01
aI01
aI01
aI01
aI01
aI01
aI01
asS'total_steps'
p47
I31
sS'normalized_h_of_p_ui_given_um'
p48
(lp49
cnumpy.core.multiarray
scalar
p50
(cnumpy
dtype
p51
(S'f8'
p52
I0
I1
tp53
Rp54
(I3
S'<'
p55
NNNI-1
I-1
I0
tp56
bS'6e\x90K?\xdc\xdf?'
p57
tp58
Rp59
ag50
(g54
S'\x84h\xf6\x9a\xe5S\xe6?'
p60
tp61
Rp62
ag50
(g54
S'6e\x90K?\xdc\xdf?'
p63
tp64
Rp65
ag50
(g54
S'\x84h\xf6\x9a\xe5S\xe6?'
p66
tp67
Rp68
ag50
(g54
S'6e\x90K?\xdc\xdf?'
p69
tp70
Rp71
ag50
(g54
S'\xc9\xfe\x15|\x82\x16\xd7?'
p72
tp73
Rp74
ag50
(g54
S':0\x11\x1f\xfc\xe7\xda?'
p75
tp76
Rp77
ag50
(g54
S'6e\x90K?\xdc\xdf?'
p78
tp79
Rp80
ag50
(g54
S'6e\x90K?\xdc\xdf?'
p81
tp82
Rp83
ag50
(g54
S'\xc68\xc7\xb0c\x9b\xe8?'
p84
tp85
Rp86
ag50
(g54
S'tY\x9b?\x92\xcd\xe6?'
p87
tp88
Rp89
ag50
(g54
S'\xc9\xfe\x15|\x82\x16\xd7?'
p90
tp91
Rp92
ag50
(g54
S'\xcf\xdf\xec\xc6S\xcd\xe4?'
p93
tp94
Rp95
ag50
(g54
S'tY\x9b?\x92\xcd\xe6?'
p96
tp97
Rp98
ag50
(g54
S'6e\x90K?\xdc\xdf?'
p99
tp100
Rp101
ag50
(g54
S'\xc68\xc7\xb0c\x9b\xe8?'
p102
tp103
Rp104
ag50
(g54
S'\xc0\xd4\xea)\n`\xe8?'
p105
tp106
Rp107
ag50
(g54
S'G\xfb\xed\xd4W\xe0\xe3?'
p108
tp109
Rp110
ag50
(g54
S'\x00\x12a\xa7p\xaf\xdc?'
p111
tp112
Rp113
ag50
(g54
S':0\x11\x1f\xfc\xe7\xda?'
p114
tp115
Rp116
ag50
(g54
S'tY\x9b?\x92\xcd\xe6?'
p117
tp118
Rp119
ag50
(g54
S'\x84h\xf6\x9a\xe5S\xe6?'
p120
tp121
Rp122
ag50
(g54
S'\xc68\xc7\xb0c\x9b\xe8?'
p123
tp124
Rp125
ag50
(g54
S'\x00\x12a\xa7p\xaf\xdc?'
p126
tp127
Rp128
ag50
(g54
S':0\x11\x1f\xfc\xe7\xda?'
p129
tp130
Rp131
ag50
(g54
S'\x00\x12a\xa7p\xaf\xdc?'
p132
tp133
Rp134
ag50
(g54
S'_\xf8\x91\x93\xdf.\xd5?'
p135
tp136
Rp137
ag50
(g54
S'G\xfb\xed\xd4W\xe0\xe3?'
p138
tp139
Rp140
ag50
(g54
S'G\xfb\xed\xd4W\xe0\xe3?'
p141
tp142
Rp143
ag50
(g54
S'\x00\x12a\xa7p\xaf\xdc?'
p144
tp145
Rp146
ag50
(g54
S':0\x11\x1f\xfc\xe7\xda?'
p147
tp148
Rp149
asS'sp'
p150
(lp151
(S'p0'
p152
I0
S't'
p153
tp154
a(g152
I0
g153
tp155
ag154
ag155
ag154
a(g152
I0
S'x'
p156
tp157
a(S'p1'
p158
I0
g156
tp159
a(g158
I0
g156
tp160
ag160
a(g158
I0
g153
tp161
a(g158
I0
g156
tp162
a(g158
I0
S'y'
p163
tp164
a(g158
I0
g153
tp165
ag162
ag160
ag161
a(g158
I0
g153
tp166
a(g158
I0
g153
tp167
a(g158
I0
g163
tp168
a(S'p2'
p169
I0
g163
tp170
a(g169
I0
g153
tp171
a(g169
I0
g153
tp172
a(g169
I0
g163
tp173
a(g169
I0
g156
tp174
a(S'p3'
p175
I0
g156
tp176
a(g175
I0
g153
tp177
a(g175
F1.5707963267948966
g153
tp178
a(g175
F1.5707963267948966
g153
tp179
ag179
a(g175
F1.5707963267948966
g163
tp180
a(S'p4'
p181
F1.5707963267948966
g163
tp182
asS's'
p183
(lp184
(g152
I0
g22
tp185
ag154
ag155
ag154
ag155
ag154
ag157
ag159
ag160
ag160
ag161
ag162
ag164
ag165
ag162
ag160
ag161
ag166
ag167
ag168
ag170
ag171
ag172
ag173
ag174
ag176
ag177
ag178
ag179
ag179
ag180
asS'ui'
p186
(lp187
S'hs'
p188
aS'hp'
p189
aS'ss'
p190
ag189
ag190
ag189
ag190
ag190
ag190
ag188
ag150
ag189
ag189
ag189
ag190
ag150
ag150
ag150
ag188
ag190
ag189
ag189
ag188
ag188
ag188
ag150
ag150
ag150
ag150
ag188
ag190
asS'um_before'
p191
(lp192
g190
ag150
ag190
ag150
ag190
ag189
ag190
ag190
ag190
ag188
ag189
ag189
ag189
ag189
ag190
ag188
ag190
ag150
ag188
ag190
ag189
ag150
ag188
ag188
ag190
ag188
ag150
ag150
ag150
ag188
ag190
asS'um_after'
p193
(lp194
g190
ag150
ag190
ag150
ag190
ag189
ag190
ag190
ag190
ag188
ag189
ag189
ag189
ag189
ag190
ag188
ag190
ag150
ag188
ag190
ag189
ag150
ag188
ag188
ag190
ag188
ag150
ag150
ag150
ag188
ag190
asS'is_normalized_entropy_less_than_threshold'
p195
(lp196
g50
(g51
(S'b1'
p197
I0
I1
tp198
Rp199
(I3
S'|'
p200
NNNI-1
I-1
I0
tp201
bS'\x01'
p202
tp203
Rp204
ag50
(g199
S'\x00'
p205
tp206
Rp207
ag204
ag207
ag204
ag204
ag204
ag204
ag204
ag207
ag207
ag204
ag207
ag207
ag204
ag207
ag207
ag207
ag204
ag204
ag207
ag207
ag207
ag204
ag204
ag204
ag204
ag207
ag207
ag204
ag204
asaa(lp208
S'index'
p209
aI79062
aatp210
Rp211
.