ccollections
OrderedDict
p0
((lp1
(lp2
S'combination_dict'
p3
ag0
((lp4
(lp5
S'r_to_g_config'
p6
aS'tl'
p7
aa(lp8
S'num_turns'
p9
aI3
aa(lp10
S'start_direction'
p11
acutils_ms
StartDirection
p12
(I0
tp13
Rp14
aa(lp15
S'assistance_type'
p16
acutils_ms
AssistanceType
p17
(I0
tp18
Rp19
aa(lp20
S'start_mode'
p21
aS'y'
p22
aa(lp23
S'ui_given_a_noise'
p24
aF0.5
aa(lp25
S'um_given_ui_noise'
p26
aF0.3
aa(lp27
S'entropy_threshold'
p28
aF0.8
aatp29
Rp30
aa(lp31
S'data'
p32
accollections
defaultdict
p33
(c__builtin__
list
p34
tp35
Rp36
S'a'
p37
(lp38
S'mode_l'
p39
ag39
aS'move_n'
p40
aS'mode_r'
p41
ag39
aS'move_p'
p42
ag39
ag41
ag39
ag40
ag41
ag39
ag42
ag39
ag40
ag41
ag41
ag40
ag40
ag41
ag39
ag42
ag41
ag39
ag41
ag41
ag41
ag42
ag42
ag42
ag41
ag42
ag41
ag40
ag39
ag40
ag41
ag41
ag41
ag42
ag39
ag42
ag39
ag40
ag41
ag42
ag39
ag40
ag39
ag40
ag39
ag41
ag42
ag42
ag41
ag41
ag39
ag41
ag40
ag41
ag42
ag39
ag41
ag40
ag41
ag42
ag41
ag42
asS'assistance_match_with_ground_truth'
p43
(lp44
I00
aI01
aI01
aI00
aI01
aI00
aI00
aI00
aI01
aI01
aI00
aI01
aI00
aI01
aI00
aI00
aI01
aI00
aI01
aI00
aI01
aI01
aI00
aI00
aI00
aI00
aI01
aI00
aI00
aI01
aI00
aI01
aI01
aI00
aI01
aI01
aI00
aI00
aI01
aI00
aI01
aI00
aI01
aI01
aI01
aI00
aI01
aI00
aI01
aI00
aI00
aI00
aI00
aI01
aI00
aI00
aI00
aI01
aI00
aI01
aI01
aI00
aI01
aI01
aI01
aI00
aI01
aI01
asS'is_u_intended_equals_um'
p45
(lp46
I01
aI01
aI01
aI01
aI01
aI01
aI01
aI01
aI01
aI01
aI01
aI01
aI01
aI01
aI01
aI00
aI01
aI01
aI01
aI01
aI01
aI01
aI01
aI01
aI01
aI00
aI01
aI01
aI01
aI01
aI00
aI01
aI01
aI01
aI01
aI01
aI01
aI01
aI01
aI01
aI01
aI01
aI01
aI01
aI01
aI01
aI01
aI01
aI01
aI01
aI01
aI00
aI01
aI01
aI01
aI01
aI01
aI01
aI01
aI01
aI01
aI01
aI01
aI01
aI01
aI01
aI01
aI01
asS'total_steps'
p47
I68
sS'normalized_h_of_p_ui_given_um'
p48
(lp49
cnumpy.core.multiarray
scalar
p50
(cnumpy
dtype
p51
(S'f8'
p52
I0
I1
tp53
Rp54
(I3
S'<'
p55
NNNI-1
I-1
I0
tp56
bS'g\x08 \xa6\x17n\xe8?'
p57
tp58
Rp59
ag50
(g54
S'h\x05\x14\x99Hm\xd8?'
p60
tp61
Rp62
ag50
(g54
S'\xb5\xdcu\xefU\xa2\xda?'
p63
tp64
Rp65
ag50
(g54
S'\xbd\x18\xea\xc9\xc2\x93\xe1?'
p66
tp67
Rp68
ag50
(g54
S'h\x05\x14\x99Hm\xd8?'
p69
tp70
Rp71
ag50
(g54
S'Q\xc4\xc7gY@\xea?'
p72
tp73
Rp74
ag50
(g54
S'\xd7`\xfd\xe7nb\xe0?'
p75
tp76
Rp77
ag50
(g54
S'\xbd\x18\xea\xc9\xc2\x93\xe1?'
p78
tp79
Rp80
ag50
(g54
S'h\x05\x14\x99Hm\xd8?'
p81
tp82
Rp83
ag50
(g54
S'\xb5\xdcu\xefU\xa2\xda?'
p84
tp85
Rp86
ag50
(g54
S'\xbd\x18\xea\xc9\xc2\x93\xe1?'
p87
tp88
Rp89
ag50
(g54
S'h\x05\x14\x99Hm\xd8?'
p90
tp91
Rp92
ag50
(g54
S'Q\xc4\xc7gY@\xea?'
p93
tp94
Rp95
ag50
(g54
S'h\x05\x14\x99Hm\xd8?'
p96
tp97
Rp98
ag50
(g54
S'~\x11\x04\xeb;c\xe9?'
p99
tp100
Rp101
ag50
(g54
S'\xea\x8e\xfa\xd18\xe9\xea?'
p102
tp103
Rp104
ag50
(g54
S'\xdbp#~\xed$\xcc?'
p105
tp106
Rp107
ag50
(g54
S'\xc1\xe0\xe3\xed\xee\x8e\xee?'
p108
tp109
Rp110
ag50
(g54
S'\xb5\xdcu\xefU\xa2\xda?'
p111
tp112
Rp113
ag50
(g54
S'\xbd\x18\xea\xc9\xc2\x93\xe1?'
p114
tp115
Rp116
ag50
(g54
S'h\x05\x14\x99Hm\xd8?'
p117
tp118
Rp119
ag50
(g54
S"\x80\xa5'\xc1\xd5\xb4\xd0?"
p120
tp121
Rp122
ag50
(g54
S'\xbd\x18\xea\xc9\xc2\x93\xe1?'
p123
tp124
Rp125
ag50
(g54
S'\xd7`\xfd\xe7nb\xe0?'
p126
tp127
Rp128
ag50
(g54
S'\x99\xe7\xf4\xefV\x97\xe7?'
p129
tp130
Rp131
ag50
(g54
S'\xea\x8e\xfa\xd18\xe9\xea?'
p132
tp133
Rp134
ag50
(g54
S'\xdbp#~\xed$\xcc?'
p135
tp136
Rp137
ag50
(g54
S'Q\xc4\xc7gY@\xea?'
p138
tp139
Rp140
ag50
(g54
S'Q\xc4\xc7gY@\xea?'
p141
tp142
Rp143
ag50
(g54
S"\x80\xa5'\xc1\xd5\xb4\xd0?"
p144
tp145
Rp146
ag50
(g54
S'\xea\x8e\xfa\xd18\xe9\xea?'
p147
tp148
Rp149
ag50
(g54
S"\x80\xa5'\xc1\xd5\xb4\xd0?"
p150
tp151
Rp152
ag50
(g54
S'\xdbp#~\xed$\xcc?'
p153
tp154
Rp155
ag50
(g54
S"\xd2e\xb8\x8e\xe4'\xe2?"
p156
tp157
Rp158
ag50
(g54
S'h\x05\x14\x99Hm\xd8?'
p159
tp160
Rp161
ag50
(g54
S'\xb5\xdcu\xefU\xa2\xda?'
p162
tp163
Rp164
ag50
(g54
S'\x99\xe7\xf4\xefV\x97\xe7?'
p165
tp166
Rp167
ag50
(g54
S'\x99\xe7\xf4\xefV\x97\xe7?'
p168
tp169
Rp170
ag50
(g54
S'\xdbp#~\xed$\xcc?'
p171
tp172
Rp173
ag50
(g54
S'\x1a\x0f\xf0\x919\xc3\xe5?'
p174
tp175
Rp176
ag50
(g54
S'h\x05\x14\x99Hm\xd8?'
p177
tp178
Rp179
ag50
(g54
S'Q\xc4\xc7gY@\xea?'
p180
tp181
Rp182
ag50
(g54
S'h\x05\x14\x99Hm\xd8?'
p183
tp184
Rp185
ag50
(g54
S'\xb5\xdcu\xefU\xa2\xda?'
p186
tp187
Rp188
ag50
(g54
S'\xdbp#~\xed$\xcc?'
p189
tp190
Rp191
ag50
(g54
S'Q\xc4\xc7gY@\xea?'
p192
tp193
Rp194
ag50
(g54
S'h\x05\x14\x99Hm\xd8?'
p195
tp196
Rp197
ag50
(g54
S"\xd2e\xb8\x8e\xe4'\xe2?"
p198
tp199
Rp200
ag50
(g54
S'h\x05\x14\x99Hm\xd8?'
p201
tp202
Rp203
ag50
(g54
S"\xd2e\xb8\x8e\xe4'\xe2?"
p204
tp205
Rp206
ag50
(g54
S'\xd7`\xfd\xe7nb\xe0?'
p207
tp208
Rp209
ag50
(g54
S'\xea\x8e\xfa\xd18\xe9\xea?'
p210
tp211
Rp212
ag50
(g54
S'Q\xc4\xc7gY@\xea?'
p213
tp214
Rp215
ag50
(g54
S"\x80\xa5'\xc1\xd5\xb4\xd0?"
p216
tp217
Rp218
ag50
(g54
S'\x99\xe7\xf4\xefV\x97\xe7?'
p219
tp220
Rp221
ag50
(g54
S'\xbd\x18\xea\xc9\xc2\x93\xe1?'
p222
tp223
Rp224
ag50
(g54
S'\xd7`\xfd\xe7nb\xe0?'
p225
tp226
Rp227
ag50
(g54
S'\xdbp#~\xed$\xcc?'
p228
tp229
Rp230
ag50
(g54
S'\xc1\xe0\xe3\xed\xee\x8e\xee?'
p231
tp232
Rp233
ag50
(g54
S'\xdbp#~\xed$\xcc?'
p234
tp235
Rp236
ag50
(g54
S"\x80\xa5'\xc1\xd5\xb4\xd0?"
p237
tp238
Rp239
ag50
(g54
S'\xd7`\xfd\xe7nb\xe0?'
p240
tp241
Rp242
ag50
(g54
S'\xdbp#~\xed$\xcc?'
p243
tp244
Rp245
ag50
(g54
S'\xb5\xdcu\xefU\xa2\xda?'
p246
tp247
Rp248
ag50
(g54
S'\xdbp#~\xed$\xcc?'
p249
tp250
Rp251
ag50
(g54
S'Kz\x95\xce\t\n\xef?'
p252
tp253
Rp254
ag50
(g54
S'\xdbp#~\xed$\xcc?'
p255
tp256
Rp257
ag50
(g54
S"\x80\xa5'\xc1\xd5\xb4\xd0?"
p258
tp259
Rp260
asS'sp'
p261
(lp262
(S'p0'
p263
I0
S'y'
p264
tp265
a(g263
I0
S'x'
p266
tp267
a(S'p1'
p268
I0
g266
tp269
a(g268
I0
S't'
p270
tp271
a(g268
I0
g264
tp272
a(g263
I0
g264
tp273
a(g263
I0
g270
tp274
a(g263
I0
g264
tp275
ag267
ag269
ag271
ag272
ag273
ag267
a(g263
I0
g270
tp276
a(g263
I0
g270
tp277
a(g263
I0
g266
tp278
a(g263
I0
g266
tp279
ag269
ag271
ag272
a(S'p2'
p280
I0
g264
tp281
a(g280
I0
g266
tp282
a(g280
I0
g264
tp283
a(g280
I0
g264
tp284
a(g280
I0
g264
tp285
a(g280
I0
g270
tp286
a(g280
I0
g270
tp287
ag287
a(g280
F1.5707963267948966
g270
tp288
a(g280
I0
g270
tp289
ag288
a(g280
F1.5707963267948966
g266
tp290
a(g280
F1.5707963267948966
g264
tp291
a(g280
F1.5707963267948966
g266
tp292
a(S'p3'
p293
F1.5707963267948966
g266
tp294
a(g293
F1.5707963267948966
g266
tp295
ag295
a(g293
F1.5707963267948966
g264
tp296
a(g293
F1.5707963267948966
g270
tp297
a(g293
F1.5707963267948966
g264
tp298
a(g280
F1.5707963267948966
g264
tp299
ag292
ag294
ag296
ag299
ag292
ag291
ag292
ag291
a(g280
F1.5707963267948966
g270
tp300
ag289
ag287
ag288
a(g280
F1.5707963267948966
g270
tp301
a(g280
F1.5707963267948966
g264
tp302
ag300
ag290
a(g268
F1.5707963267948966
g266
tp303
a(g268
F1.5707963267948966
g264
tp304
a(g280
F1.5707963267948966
g264
tp305
ag300
ag290
ag294
ag296
a(g293
F1.5707963267948966
g266
tp306
ag296
a(S'p4'
p307
F1.5707963267948966
g264
tp308
asS's'
p309
(lp310
(g263
I0
g22
tp311
ag265
ag267
ag269
ag271
ag272
ag273
ag274
ag275
ag267
ag269
ag271
ag272
ag273
ag267
ag276
ag277
ag278
ag279
ag269
ag271
ag272
ag281
ag282
ag283
ag284
ag285
ag286
ag287
ag287
ag288
ag289
ag288
ag290
ag291
ag292
ag294
ag295
ag295
ag296
ag297
ag298
ag299
ag292
ag294
ag296
ag299
ag292
ag291
ag292
ag291
ag300
ag289
ag287
ag288
ag301
ag302
ag300
ag290
ag303
ag304
ag305
ag300
ag290
ag294
ag296
ag306
ag296
asS'ui'
p312
(lp313
S'ss'
p314
aS'hs'
p315
ag314
ag315
ag315
ag261
aS'hp'
p316
ag315
ag315
ag314
ag315
ag315
ag314
ag315
ag314
ag316
ag316
ag316
ag314
ag261
ag315
ag261
ag315
ag316
ag261
ag261
ag316
ag261
ag261
ag261
ag315
ag261
ag316
ag314
ag315
ag315
ag261
ag315
ag316
ag314
ag315
ag316
ag315
ag314
ag316
ag314
ag315
ag316
ag315
ag316
ag316
ag315
ag261
ag261
ag261
ag315
ag316
ag316
ag315
ag316
ag261
ag316
ag316
ag314
ag316
ag315
ag316
ag261
asS'um_before'
p317
(lp318
g314
ag315
ag314
ag315
ag315
ag314
ag316
ag315
ag315
ag314
ag315
ag315
ag314
ag315
ag315
ag314
ag316
ag261
ag314
ag315
ag315
ag261
ag315
ag316
ag261
ag314
ag316
ag314
ag314
ag261
ag314
ag261
ag316
ag316
ag315
ag314
ag261
ag261
ag316
ag316
ag315
ag314
ag315
ag314
ag316
ag314
ag315
ag316
ag315
ag316
ag316
ag314
ag314
ag261
ag261
ag315
ag316
ag316
ag261
ag316
ag261
ag316
ag316
ag314
ag316
ag315
ag316
ag261
asS'um_after'
p319
(lp320
g314
ag315
ag314
ag315
ag315
ag314
ag316
ag315
ag315
ag314
ag315
ag315
ag314
ag315
ag315
ag314
ag316
ag261
ag314
ag315
ag315
ag261
ag315
ag316
ag261
ag314
ag316
ag314
ag314
ag261
ag314
ag261
ag316
ag316
ag315
ag314
ag261
ag261
ag316
ag316
ag315
ag314
ag315
ag314
ag316
ag314
ag315
ag316
ag315
ag316
ag316
ag314
ag314
ag261
ag261
ag315
ag316
ag316
ag261
ag316
ag261
ag316
ag316
ag314
ag316
ag315
ag316
ag261
asS'is_normalized_entropy_less_than_threshold'
p321
(lp322
g50
(g51
(S'b1'
p323
I0
I1
tp324
Rp325
(I3
S'|'
p326
NNNI-1
I-1
I0
tp327
bS'\x01'
p328
tp329
Rp330
ag330
ag330
ag330
ag330
ag50
(g325
S'\x00'
p331
tp332
Rp333
ag330
ag330
ag330
ag330
ag330
ag330
ag333
ag330
ag330
ag333
ag330
ag333
ag330
ag330
ag330
ag330
ag330
ag330
ag330
ag333
ag330
ag333
ag333
ag330
ag333
ag330
ag330
ag330
ag330
ag330
ag330
ag330
ag330
ag330
ag330
ag333
ag330
ag330
ag330
ag333
ag330
ag330
ag330
ag330
ag330
ag333
ag333
ag330
ag330
ag330
ag330
ag330
ag333
ag330
ag330
ag330
ag330
ag330
ag330
ag333
ag330
ag330
asaa(lp334
S'index'
p335
aI49287
aatp336
Rp337
.