ccollections
OrderedDict
p0
((lp1
(lp2
S'combination_dict'
p3
ag0
((lp4
(lp5
S'r_to_g_config'
p6
aS'bl'
p7
aa(lp8
S'num_turns'
p9
aI3
aa(lp10
S'start_direction'
p11
acutils_ms
StartDirection
p12
(I1
tp13
Rp14
aa(lp15
S'assistance_type'
p16
acutils_ms
AssistanceType
p17
(I2
tp18
Rp19
aa(lp20
S'start_mode'
p21
aS't'
p22
aa(lp23
S'ui_given_a_noise'
p24
aF0.7
aa(lp25
S'um_given_ui_noise'
p26
aF0.5
aa(lp27
S'entropy_threshold'
p28
aF0.5
aatp29
Rp30
aa(lp31
S'data'
p32
accollections
defaultdict
p33
(c__builtin__
list
p34
tp35
Rp36
S'a'
p37
(lp38
S'mode_l'
p39
aS'move_n'
p40
aS'mode_r'
p41
ag40
ag39
ag40
ag41
ag39
ag41
ag39
ag39
ag40
ag41
ag41
aS'move_p'
p42
ag42
ag39
ag42
ag39
ag41
ag41
ag41
ag40
ag41
ag40
ag41
ag40
ag41
ag42
ag39
ag41
ag40
ag41
ag42
ag42
ag41
ag39
ag41
ag41
ag41
ag40
ag41
ag39
ag39
ag40
ag41
ag41
ag42
ag39
ag41
ag40
ag40
ag41
ag40
ag41
ag41
ag42
ag39
ag41
ag39
ag41
ag40
ag41
ag39
ag40
ag39
ag41
ag41
ag41
ag39
ag40
ag40
ag41
ag41
ag39
ag40
ag41
ag40
ag41
ag41
ag40
ag41
ag39
ag40
ag40
ag41
ag41
ag41
ag42
ag41
ag40
ag39
ag40
ag39
ag40
ag41
ag41
ag41
ag39
ag41
ag40
ag40
ag40
ag41
ag41
ag40
ag39
ag39
ag40
ag41
ag39
ag41
ag41
ag41
ag40
ag39
ag40
ag40
ag41
ag41
ag40
ag41
ag39
ag39
ag40
ag40
ag41
ag40
ag39
ag39
ag39
ag39
ag39
ag40
ag41
ag40
ag39
ag39
ag41
ag41
ag41
ag41
ag39
ag40
ag41
ag41
ag40
ag39
ag41
ag41
ag40
ag41
ag40
ag41
ag40
ag39
ag41
ag40
ag41
ag41
ag41
ag41
ag40
ag41
ag41
ag39
ag41
ag41
ag40
ag41
ag41
ag39
ag40
ag41
ag40
ag39
ag41
ag41
ag40
asS'assistance_match_with_ground_truth'
p43
(lp44
I01
aI00
aI01
aI00
aI01
aI01
aI00
aI00
aI00
aI00
aI01
aI01
aI00
aI01
aI00
aI00
aI01
aI00
aI00
aI00
aI00
aI01
aI00
aI01
aI00
aI01
aI00
aI01
aI00
aI00
aI01
aI00
aI01
aI00
aI00
aI00
aI00
aI00
aI00
aI01
aI00
aI00
aI00
aI01
aI01
aI00
aI01
aI00
aI00
aI01
aI00
aI00
aI01
aI01
aI00
aI01
aI00
aI00
aI00
aI00
aI01
aI00
aI00
aI01
aI00
aI00
aI00
aI00
aI00
aI01
aI00
aI00
aI00
aI00
aI01
aI00
aI01
aI00
aI00
aI01
aI00
aI00
aI01
aI00
aI01
aI00
aI00
aI01
aI01
aI01
aI00
aI01
aI00
aI01
aI00
aI00
aI00
aI00
aI00
aI01
aI00
aI00
aI00
aI00
aI01
aI00
aI00
aI01
aI00
aI00
aI00
aI00
aI00
aI01
aI00
aI01
aI00
aI00
aI00
aI01
aI00
aI00
aI00
aI01
aI00
aI00
aI01
aI01
aI00
aI00
aI00
aI00
aI01
aI01
aI01
aI00
aI00
aI00
aI00
aI00
aI00
aI00
aI01
aI00
aI00
aI01
aI00
aI00
aI00
aI01
aI00
aI01
aI01
aI01
aI01
aI00
aI01
aI00
aI00
aI00
aI00
aI01
aI00
aI00
aI00
aI00
aI00
aI01
aI00
aI00
aI00
aI01
aI00
aI01
aI01
aI00
aI00
aI01
aI01
asS'is_u_intended_equals_um'
p45
(lp46
I00
aI00
aI00
aI00
aI00
aI00
aI00
aI00
aI00
aI00
aI00
aI00
aI00
aI00
aI00
aI00
aI00
aI00
aI00
aI00
aI00
aI00
aI00
aI00
aI00
aI00
aI00
aI00
aI00
aI00
aI00
aI00
aI00
aI00
aI00
aI00
aI00
aI00
aI00
aI00
aI00
aI00
aI00
aI00
aI00
aI00
aI00
aI00
aI00
aI00
aI00
aI00
aI00
aI00
aI00
aI00
aI00
aI00
aI00
aI00
aI00
aI00
aI00
aI00
aI00
aI00
aI00
aI00
aI00
aI00
aI00
aI00
aI00
aI00
aI00
aI00
aI00
aI00
aI00
aI00
aI00
aI00
aI00
aI00
aI00
aI00
aI00
aI00
aI00
aI00
aI00
aI00
aI00
aI00
aI00
aI00
aI00
aI00
aI00
aI00
aI00
aI00
aI00
aI00
aI00
aI00
aI00
aI00
aI00
aI00
aI00
aI00
aI00
aI00
aI00
aI00
aI00
aI00
aI00
aI00
aI00
aI00
aI00
aI00
aI00
aI00
aI00
aI00
aI00
aI00
aI00
aI00
aI00
aI00
aI00
aI00
aI00
aI00
aI00
aI00
aI00
aI00
aI00
aI00
aI00
aI00
aI00
aI00
aI00
aI00
aI00
aI00
aI00
aI00
aI00
aI00
aI00
aI00
aI00
aI00
aI00
aI00
aI00
aI00
aI00
aI00
aI00
aI00
aI00
aI00
aI00
aI00
aI00
aI00
aI00
aI00
aI00
aI00
aI00
asS'total_steps'
p47
I179
sS'normalized_h_of_p_ui_given_um'
p48
(lp49
cnumpy.core.multiarray
scalar
p50
(cnumpy
dtype
p51
(S'f8'
p52
I0
I1
tp53
Rp54
(I3
S'<'
p55
NNNI-1
I-1
I0
tp56
bS'Y\xc1\x03\x16\xe9-\xea?'
p57
tp58
Rp59
ag59
ag59
ag59
ag59
ag59
ag59
ag59
ag59
ag59
ag59
ag59
ag59
ag59
ag59
ag59
ag59
ag59
ag59
ag59
ag59
ag59
ag59
ag59
ag59
ag59
ag59
ag59
ag59
ag59
ag59
ag59
ag59
ag59
ag59
ag59
ag59
ag59
ag59
ag59
ag59
ag59
ag59
ag59
ag59
ag59
ag59
ag59
ag59
ag59
ag59
ag59
ag59
ag59
ag59
ag59
ag59
ag59
ag59
ag59
ag59
ag59
ag59
ag59
ag59
ag59
ag59
ag59
ag59
ag59
ag59
ag59
ag59
ag59
ag59
ag59
ag59
ag59
ag59
ag59
ag59
ag59
ag59
ag59
ag59
ag59
ag59
ag59
ag59
ag59
ag59
ag59
ag59
ag59
ag59
ag59
ag59
ag59
ag59
ag59
ag59
ag59
ag59
ag59
ag59
ag59
ag59
ag59
ag59
ag59
ag59
ag59
ag59
ag59
ag59
ag59
ag59
ag59
ag59
ag59
ag59
ag59
ag59
ag59
ag59
ag59
ag59
ag59
ag59
ag59
ag59
ag59
ag59
ag59
ag59
ag59
ag59
ag59
ag59
ag59
ag59
ag59
ag59
ag59
ag59
ag59
ag59
ag59
ag59
ag59
ag59
ag59
ag59
ag59
ag59
ag59
ag59
ag59
ag59
ag59
ag59
ag59
ag59
ag59
ag59
ag59
ag59
ag59
ag59
ag59
ag59
ag59
ag59
ag59
ag59
ag59
ag59
ag59
ag59
asS'sp'
p60
(lp61
(S'p0'
p62
I0
S'y'
p63
tp64
a(g62
I0
S'x'
p65
tp66
a(g62
I0
g63
tp67
a(g62
I0
S't'
p68
tp69
ag64
a(S'p1'
p70
I0
g63
tp71
a(g70
I0
g65
tp72
a(g62
I0
g65
tp73
a(g62
I0
g68
tp74
a(g62
I0
g68
tp75
ag64
ag71
a(g70
I0
g63
tp76
a(g70
I0
g68
tp77
a(g70
I0
g68
tp78
a(g70
I0
g65
tp79
a(g70
I0
g68
tp80
ag79
a(S'p2'
p81
I0
g65
tp82
a(g81
I0
g65
tp83
a(g81
I0
g65
tp84
a(g81
I0
g63
tp85
a(g81
I0
g65
tp86
ag85
ag86
ag85
a(g70
I0
g63
tp87
ag77
ag79
ag82
ag85
ag87
ag77
ag78
a(g70
I0
g63
tp88
ag72
ag73
a(g62
I0
g65
tp89
ag89
ag67
ag66
ag74
ag75
ag64
ag71
ag76
ag77
ag79
ag73
ag67
a(g62
I0
g63
tp90
ag66
ag67
ag71
ag76
ag77
ag79
a(g70
I0
g63
tp91
ag72
ag73
ag67
ag66
ag74
ag64
ag69
a(g62
I0
g65
tp92
ag89
a(g62
I0
g65
tp93
ag74
ag64
ag90
ag66
ag89
ag74
ag64
ag66
ag67
ag66
ag89
ag67
ag66
ag74
ag64
ag90
ag71
ag76
a(g70
I0
g63
tp94
ag77
a(g70
F1.5707963267948966
g68
tp95
a(g70
F1.5707963267948966
g65
tp96
a(g70
F1.5707963267948966
g63
tp97
a(g70
F1.5707963267948966
g65
tp98
ag97
ag98
a(g62
F1.5707963267948966
g65
tp99
a(g62
F1.5707963267948966
g65
tp100
a(g62
F1.5707963267948966
g65
tp101
a(g62
F1.5707963267948966
g68
tp102
a(g62
F1.5707963267948966
g65
tp103
a(g62
F1.5707963267948966
g63
tp104
a(g62
F1.5707963267948966
g63
tp105
ag105
a(g62
F1.5707963267948966
g65
tp106
ag100
ag104
a(g62
F1.5707963267948966
g68
tp107
a(g62
F1.5707963267948966
g68
tp108
a(g62
F1.5707963267948966
g63
tp109
ag106
ag102
ag103
ag101
ag100
ag104
ag107
ag109
ag105
ag106
ag101
ag104
ag106
ag102
ag108
ag109
ag105
ag106
ag104
a(g70
F1.5707963267948966
g63
tp110
a(g70
F1.5707963267948966
g63
tp111
a(g70
F1.5707963267948966
g63
tp112
ag112
ag112
ag98
a(g81
F1.5707963267948966
g65
tp113
a(g81
F1.5707963267948966
g63
tp114
a(g81
F1.5707963267948966
g68
tp115
a(g81
F1.5707963267948966
g68
tp116
a(g81
F1.5707963267948966
g65
tp117
a(g81
F1.5707963267948966
g65
tp118
a(g81
F1.5707963267948966
g65
tp119
ag118
a(g81
F1.5707963267948966
g68
tp120
a(g81
F1.5707963267948966
g63
tp121
a(g81
F1.5707963267948966
g65
tp122
ag119
ag114
a(g70
F1.5707963267948966
g63
tp123
a(g70
F1.5707963267948966
g68
tp124
a(g70
F1.5707963267948966
g68
tp125
ag96
a(g70
F1.5707963267948966
g68
tp126
ag96
ag113
ag114
a(S'p3'
p127
F1.5707963267948966
g63
tp128
a(g127
F1.5707963267948966
g68
tp129
a(g127
F1.5707963267948966
g65
tp130
a(g81
F1.5707963267948966
g65
tp131
ag119
ag119
ag119
ag114
ag122
ag119
ag120
ag117
ag119
ag114
ag122
ag119
ag120
ag121
ag122
ag114
ag128
ag129
a(g127
F1.5707963267948966
g68
tp132
ag130
a(S'p4'
p133
F1.5707963267948966
g65
tp134
asS's'
p135
(lp136
(g62
I0
g22
tp137
ag64
ag66
ag67
ag69
ag64
ag71
ag72
ag73
ag74
ag75
ag64
ag71
ag76
ag77
ag78
ag79
ag80
ag79
ag82
ag83
ag84
ag85
ag86
ag85
ag86
ag85
ag87
ag77
ag79
ag82
ag85
ag87
ag77
ag78
ag88
ag72
ag73
ag89
ag89
ag67
ag66
ag74
ag75
ag64
ag71
ag76
ag77
ag79
ag73
ag67
ag90
ag66
ag67
ag71
ag76
ag77
ag79
ag91
ag72
ag73
ag67
ag66
ag74
ag64
ag69
ag92
ag89
ag93
ag74
ag64
ag90
ag66
ag89
ag74
ag64
ag66
ag67
ag66
ag89
ag67
ag66
ag74
ag64
ag90
ag71
ag76
ag94
ag77
ag95
ag96
ag97
ag98
ag97
ag98
ag99
ag100
ag101
ag102
ag103
ag104
ag105
ag105
ag106
ag100
ag104
ag107
ag108
ag109
ag106
ag102
ag103
ag101
ag100
ag104
ag107
ag109
ag105
ag106
ag101
ag104
ag106
ag102
ag108
ag109
ag105
ag106
ag104
ag110
ag111
ag112
ag112
ag112
ag98
ag113
ag114
ag115
ag116
ag117
ag118
ag119
ag118
ag120
ag121
ag122
ag119
ag114
ag123
ag124
ag125
ag96
ag126
ag96
ag113
ag114
ag128
ag129
ag130
ag131
ag119
ag119
ag119
ag114
ag122
ag119
ag120
ag117
ag119
ag114
ag122
ag119
ag120
ag121
ag122
ag114
ag128
ag129
ag132
ag130
asS'ui'
p138
(lp139
S'hs'
p140
ag140
aS'ss'
p141
ag140
ag140
ag141
aS'hp'
p142
ag140
ag142
ag141
ag140
ag141
ag140
ag60
ag140
ag142
ag140
ag60
ag140
ag142
ag142
ag142
ag140
ag60
ag140
ag142
ag60
ag142
ag142
ag140
ag142
ag141
ag142
ag141
ag60
ag140
ag142
ag60
ag142
ag142
ag140
ag142
ag141
ag140
ag141
ag142
ag141
ag142
ag141
ag142
ag60
ag140
ag142
ag141
ag60
ag60
ag140
ag140
ag60
ag142
ag142
ag140
ag140
ag140
ag142
ag141
ag60
ag142
ag141
ag140
ag140
ag141
ag142
ag140
ag140
ag140
ag60
ag140
ag140
ag142
ag141
ag142
ag140
ag60
ag141
ag142
ag142
ag142
ag60
ag142
ag141
ag140
ag141
ag141
ag60
ag60
ag141
ag142
ag140
ag140
ag60
ag141
ag140
ag60
ag142
ag141
ag141
ag140
ag141
ag140
ag140
ag142
ag142
ag142
ag141
ag141
ag142
ag140
ag142
ag142
ag140
ag140
ag140
ag140
ag141
ag140
ag140
ag141
ag140
ag140
ag140
ag140
ag140
ag141
ag142
ag142
ag141
ag142
ag141
ag60
ag141
ag140
ag140
ag140
ag142
ag142
ag141
ag140
ag140
ag141
ag141
ag142
ag141
ag142
ag141
ag140
ag140
ag141
ag142
ag142
ag142
ag142
ag141
ag60
ag141
ag142
ag60
ag142
ag140
ag141
ag60
ag141
ag140
ag142
ag141
ag142
ag142
ag142
ag141
asS'um_before'
p143
(lp144
g140
ag140
ag142
ag142
ag140
ag141
ag140
ag60
ag140
ag141
ag140
ag141
ag60
ag142
ag141
ag142
ag140
ag142
ag141
ag60
ag141
ag142
ag140
ag142
ag140
ag142
ag60
ag142
ag142
ag141
ag142
ag60
ag142
ag141
ag140
ag140
ag60
ag60
ag60
ag142
ag140
ag140
ag141
ag140
ag141
ag60
ag142
ag142
ag60
ag142
ag60
ag140
ag142
ag141
ag60
ag142
ag142
ag142
ag140
ag60
ag142
ag140
ag140
ag140
ag142
ag142
ag60
ag141
ag140
ag140
ag60
ag140
ag60
ag140
ag140
ag140
ag142
ag140
ag60
ag142
ag140
ag140
ag140
ag60
ag141
ag60
ag141
ag142
ag60
ag142
ag142
ag140
ag142
ag140
ag60
ag60
ag141
ag140
ag142
ag142
ag60
ag60
ag140
ag60
ag142
ag142
ag141
ag140
ag140
ag140
ag142
ag141
ag60
ag142
ag142
ag140
ag60
ag140
ag141
ag142
ag140
ag140
ag141
ag140
ag60
ag140
ag142
ag141
ag141
ag60
ag60
ag60
ag140
ag141
ag142
ag142
ag60
ag142
ag141
ag60
ag141
ag140
ag140
ag140
ag60
ag142
ag60
ag142
ag60
ag142
ag140
ag142
ag141
ag142
ag141
ag142
ag142
ag60
ag60
ag60
ag60
ag142
ag140
ag60
ag140
ag142
ag60
ag142
ag140
ag60
ag140
ag140
ag140
ag142
ag141
ag142
ag60
ag142
ag141
asS'um_after'
p145
(lp146
g140
ag140
ag142
ag142
ag140
ag141
ag140
ag60
ag140
ag141
ag140
ag141
ag60
ag142
ag141
ag142
ag140
ag142
ag141
ag60
ag141
ag142
ag140
ag142
ag140
ag142
ag60
ag142
ag142
ag141
ag142
ag60
ag142
ag141
ag140
ag140
ag60
ag60
ag60
ag142
ag140
ag140
ag141
ag140
ag141
ag60
ag142
ag142
ag60
ag142
ag60
ag140
ag142
ag141
ag60
ag142
ag142
ag142
ag140
ag60
ag142
ag140
ag140
ag140
ag142
ag142
ag60
ag141
ag140
ag140
ag60
ag140
ag60
ag140
ag140
ag140
ag142
ag140
ag60
ag142
ag140
ag140
ag140
ag60
ag141
ag60
ag141
ag142
ag60
ag142
ag142
ag140
ag142
ag140
ag60
ag60
ag141
ag140
ag142
ag142
ag60
ag60
ag140
ag60
ag142
ag142
ag141
ag140
ag140
ag140
ag142
ag141
ag60
ag142
ag142
ag140
ag60
ag140
ag141
ag142
ag140
ag140
ag141
ag140
ag60
ag140
ag142
ag141
ag141
ag60
ag60
ag60
ag140
ag141
ag142
ag142
ag60
ag142
ag141
ag60
ag141
ag140
ag140
ag140
ag60
ag142
ag60
ag142
ag60
ag142
ag140
ag142
ag141
ag142
ag141
ag142
ag142
ag60
ag60
ag60
ag60
ag142
ag140
ag60
ag140
ag142
ag60
ag142
ag140
ag60
ag140
ag140
ag140
ag142
ag141
ag142
ag60
ag142
ag141
asS'is_normalized_entropy_less_than_threshold'
p147
(lp148
g50
(g51
(S'b1'
p149
I0
I1
tp150
Rp151
(I3
S'|'
p152
NNNI-1
I-1
I0
tp153
bS'\x01'
p154
tp155
Rp156
ag156
ag156
ag156
ag156
ag156
ag156
ag156
ag156
ag156
ag156
ag156
ag156
ag156
ag156
ag156
ag156
ag156
ag156
ag156
ag156
ag156
ag156
ag156
ag156
ag156
ag156
ag156
ag156
ag156
ag156
ag156
ag156
ag156
ag156
ag156
ag156
ag156
ag156
ag156
ag156
ag156
ag156
ag156
ag156
ag156
ag156
ag156
ag156
ag156
ag156
ag156
ag156
ag156
ag156
ag156
ag156
ag156
ag156
ag156
ag156
ag156
ag156
ag156
ag156
ag156
ag156
ag156
ag156
ag156
ag156
ag156
ag156
ag156
ag156
ag156
ag156
ag156
ag156
ag156
ag156
ag156
ag156
ag156
ag156
ag156
ag156
ag156
ag156
ag156
ag156
ag156
ag156
ag156
ag156
ag156
ag156
ag156
ag156
ag156
ag156
ag156
ag156
ag156
ag156
ag156
ag156
ag156
ag156
ag156
ag156
ag156
ag156
ag156
ag156
ag156
ag156
ag156
ag156
ag156
ag156
ag156
ag156
ag156
ag156
ag156
ag156
ag156
ag156
ag156
ag156
ag156
ag156
ag156
ag156
ag156
ag156
ag156
ag156
ag156
ag156
ag156
ag156
ag156
ag156
ag156
ag156
ag156
ag156
ag156
ag156
ag156
ag156
ag156
ag156
ag156
ag156
ag156
ag156
ag156
ag156
ag156
ag156
ag156
ag156
ag156
ag156
ag156
ag156
ag156
ag156
ag156
ag156
ag156
ag156
ag156
ag156
ag156
ag156
asaa(lp157
S'index'
p158
aI86307
aatp159
Rp160
.