ccollections
OrderedDict
p0
((lp1
(lp2
S'combination_dict'
p3
ag0
((lp4
(lp5
S'r_to_g_config'
p6
aS'bl'
p7
aa(lp8
S'num_turns'
p9
aI1
aa(lp10
S'start_direction'
p11
acutils_ms
StartDirection
p12
(I0
tp13
Rp14
aa(lp15
S'assistance_type'
p16
acutils_ms
AssistanceType
p17
(I0
tp18
Rp19
aa(lp20
S'start_mode'
p21
aS't'
p22
aa(lp23
S'ui_given_a_noise'
p24
aF0.7
aa(lp25
S'um_given_ui_noise'
p26
aF0.1
aa(lp27
S'entropy_threshold'
p28
aF0.6
aatp29
Rp30
aa(lp31
S'data'
p32
accollections
defaultdict
p33
(c__builtin__
list
p34
tp35
Rp36
S'a'
p37
(lp38
S'mode_r'
p39
ag39
aS'move_n'
p40
aS'mode_l'
p41
aS'move_p'
p42
ag41
ag41
ag40
ag41
ag39
ag40
ag40
ag39
ag41
ag42
ag41
ag41
ag41
ag39
ag41
ag40
ag41
ag41
ag41
ag39
asS'assistance_match_with_ground_truth'
p43
(lp44
I00
aI01
aI01
aI01
aI01
aI00
aI01
aI00
aI00
aI01
aI00
aI01
aI00
aI00
aI00
aI00
aI00
aI00
aI00
aI01
aI01
aI00
aI00
aI00
aI00
asS'is_u_intended_equals_um'
p45
(lp46
I01
aI01
aI01
aI01
aI01
aI01
aI01
aI01
aI01
aI01
aI01
aI01
aI01
aI01
aI01
aI01
aI01
aI01
aI01
aI01
aI01
aI01
aI01
aI01
aI01
asS'total_steps'
p47
I25
sS'normalized_h_of_p_ui_given_um'
p48
(lp49
cnumpy.core.multiarray
scalar
p50
(cnumpy
dtype
p51
(S'f8'
p52
I0
I1
tp53
Rp54
(I3
S'<'
p55
NNNI-1
I-1
I0
tp56
bS'[\xe8\x85\x94\x85\xfd\xd8?'
p57
tp58
Rp59
ag50
(g54
S'.\xf6u~A\n\xcc?'
p60
tp61
Rp62
ag50
(g54
S'\xdftE\x85\xda\x19\xc1?'
p63
tp64
Rp65
ag50
(g54
S'\x988\x1dU\xd2\xd9\xc1?'
p66
tp67
Rp68
ag50
(g54
S'D%x\xc2\x8e\x18\xc1?'
p69
tp70
Rp71
ag50
(g54
S'\xb4\x1b\xa1{\x11\xf7\xd7?'
p72
tp73
Rp74
ag50
(g54
S'\x988\x1dU\xd2\xd9\xc1?'
p75
tp76
Rp77
ag50
(g54
S')\xd9>Hqw\xdf?'
p78
tp79
Rp80
ag50
(g54
S'\xa4\x7f\x9a\xf5\xe4\x92\xd9?'
p81
tp82
Rp83
ag50
(g54
S'.\xf6u~A\n\xcc?'
p84
tp85
Rp86
ag50
(g54
S')\xd9>Hqw\xdf?'
p87
tp88
Rp89
ag50
(g54
S'\xdftE\x85\xda\x19\xc1?'
p90
tp91
Rp92
ag50
(g54
S'2\x82\xb1*\xe1\x04\xcc?'
p93
tp94
Rp95
ag50
(g54
S'\x88\xfb\xa7\x16\xb3\xa2\xe2?'
p96
tp97
Rp98
ag50
(g54
S'n\xf3\xaf\xe9\xbe\x1e\xda?'
p99
tp100
Rp101
ag50
(g54
S'\xb4\x1b\xa1{\x11\xf7\xd7?'
p102
tp103
Rp104
ag50
(g54
S'\xb4\x1b\xa1{\x11\xf7\xd7?'
p105
tp106
Rp107
ag50
(g54
S'\xa4\x7f\x9a\xf5\xe4\x92\xd9?'
p108
tp109
Rp110
ag50
(g54
S'%\xdcDB<\xa6\xe1?'
p111
tp112
Rp113
ag50
(g54
S'\x988\x1dU\xd2\xd9\xc1?'
p114
tp115
Rp116
ag50
(g54
S'\xdftE\x85\xda\x19\xc1?'
p117
tp118
Rp119
ag50
(g54
S'\xb4\x1b\xa1{\x11\xf7\xd7?'
p120
tp121
Rp122
ag50
(g54
S'\xb4\x1b\xa1{\x11\xf7\xd7?'
p123
tp124
Rp125
ag50
(g54
S'\xa4\x7f\x9a\xf5\xe4\x92\xd9?'
p126
tp127
Rp128
ag50
(g54
S'[\xe8\x85\x94\x85\xfd\xd8?'
p129
tp130
Rp131
asS'sp'
p132
(lp133
(S'p0'
p134
I0
S't'
p135
tp136
a(g134
I0
S'x'
p137
tp138
a(S'p1'
p139
I0
g137
tp140
a(g139
I0
g135
tp141
a(g139
F1.5707963267948966
g135
tp142
a(g139
F1.5707963267948966
g135
tp143
a(g139
F1.5707963267948966
S'y'
p144
tp145
a(g134
F1.5707963267948966
g144
tp146
a(g134
F1.5707963267948966
g135
tp147
a(g134
F1.5707963267948966
g137
tp148
a(g134
F1.5707963267948966
g137
tp149
a(g139
F1.5707963267948966
g137
tp150
a(g139
F1.5707963267948966
g135
tp151
a(g139
I0
g135
tp152
a(g139
I0
g137
tp153
a(g139
I0
g137
tp154
ag154
a(g139
I0
g144
tp155
a(g134
I0
g144
tp156
a(g134
I0
g137
tp157
ag140
ag154
ag154
ag155
a(S'p2'
p158
I0
g144
tp159
asS's'
p160
(lp161
(g134
I0
g22
tp162
ag136
ag138
ag140
ag141
ag142
ag143
ag145
ag146
ag147
ag148
ag149
ag150
ag151
ag152
ag153
ag154
ag154
ag155
ag156
ag157
ag140
ag154
ag154
ag155
asS'ui'
p163
(lp164
S'ss'
p165
aS'hp'
p166
ag165
aS'hs'
p167
ag132
ag166
ag167
ag132
ag166
ag166
ag132
ag165
ag167
ag167
ag166
ag132
ag132
ag166
ag166
ag167
ag165
ag132
ag167
ag166
ag165
asS'um_before'
p168
(lp169
g165
ag166
ag165
ag167
ag132
ag132
ag167
ag132
ag166
ag166
ag132
ag165
ag167
ag165
ag166
ag132
ag132
ag166
ag132
ag167
ag165
ag132
ag132
ag166
ag165
asS'um_after'
p170
(lp171
g165
ag166
ag165
ag167
ag132
ag132
ag167
ag132
ag166
ag166
ag132
ag165
ag167
ag165
ag166
ag132
ag132
ag166
ag132
ag167
ag165
ag132
ag132
ag166
ag165
asS'is_normalized_entropy_less_than_threshold'
p172
(lp173
g50
(g51
(S'b1'
p174
I0
I1
tp175
Rp176
(I3
S'|'
p177
NNNI-1
I-1
I0
tp178
bS'\x01'
p179
tp180
Rp181
ag181
ag181
ag181
ag181
ag181
ag181
ag181
ag181
ag181
ag181
ag181
ag181
ag181
ag181
ag181
ag181
ag181
ag181
ag181
ag181
ag181
ag181
ag181
ag181
asaa(lp182
S'index'
p183
aI58210
aatp184
Rp185
.