ccollections
OrderedDict
p0
((lp1
(lp2
S'combination_dict'
p3
ag0
((lp4
(lp5
S'r_to_g_config'
p6
aS'tl'
p7
aa(lp8
S'num_turns'
p9
aI3
aa(lp10
S'start_direction'
p11
acutils_ms
StartDirection
p12
(I0
tp13
Rp14
aa(lp15
S'assistance_type'
p16
acutils_ms
AssistanceType
p17
(I2
tp18
Rp19
aa(lp20
S'start_mode'
p21
aS'y'
p22
aa(lp23
S'ui_given_a_noise'
p24
aF0.5
aa(lp25
S'um_given_ui_noise'
p26
aF0.5
aa(lp27
S'entropy_threshold'
p28
aF0.5
aatp29
Rp30
aa(lp31
S'data'
p32
accollections
defaultdict
p33
(c__builtin__
list
p34
tp35
Rp36
S'a'
p37
(lp38
S'mode_l'
p39
ag39
ag39
ag39
ag39
ag39
aS'move_n'
p40
aS'mode_r'
p41
ag41
ag39
ag41
ag40
ag39
ag39
ag40
ag41
ag39
ag39
ag39
aS'move_p'
p42
ag39
ag40
ag41
ag41
ag41
ag42
ag39
ag42
ag39
ag42
ag41
ag39
ag41
ag42
ag41
ag39
ag41
ag39
ag41
ag41
ag42
ag39
ag39
ag39
ag39
ag39
ag42
ag39
ag39
ag42
ag39
ag40
ag41
ag39
ag39
ag39
ag40
ag40
ag40
ag41
ag41
ag42
ag41
ag42
ag41
ag42
ag41
ag39
ag39
ag40
ag41
ag41
ag42
ag39
ag40
ag41
ag41
ag41
ag42
ag39
ag40
ag39
ag41
ag40
ag41
ag42
ag39
ag40
ag39
ag39
ag39
ag40
ag41
ag39
ag39
ag40
ag41
ag42
ag39
ag39
ag40
ag41
ag41
ag41
ag41
ag42
ag41
ag39
ag39
ag42
asS'assistance_match_with_ground_truth'
p43
(lp44
I00
aI00
aI00
aI00
aI00
aI01
aI00
aI00
aI00
aI00
aI01
aI00
aI00
aI01
aI01
aI00
aI00
aI00
aI01
aI00
aI01
aI01
aI00
aI00
aI01
aI00
aI01
aI00
aI01
aI01
aI00
aI00
aI01
aI01
aI00
aI00
aI00
aI00
aI00
aI01
aI00
aI00
aI00
aI00
aI00
aI01
aI00
aI00
aI01
aI00
aI01
aI00
aI00
aI00
aI00
aI01
aI00
aI00
aI01
aI00
aI01
aI01
aI01
aI00
aI01
aI01
aI00
aI00
aI01
aI00
aI00
aI01
aI01
aI01
aI00
aI00
aI00
aI01
aI01
aI01
aI00
aI00
aI01
aI00
aI01
aI00
aI01
aI00
aI00
aI00
aI01
aI00
aI00
aI00
aI01
aI01
aI01
aI01
aI00
aI01
aI01
aI00
aI00
aI00
aI01
aI00
aI00
aI00
aI01
aI01
asS'is_u_intended_equals_um'
p45
(lp46
I00
aI00
aI00
aI00
aI00
aI00
aI00
aI00
aI00
aI00
aI00
aI00
aI00
aI00
aI00
aI00
aI00
aI00
aI00
aI00
aI00
aI00
aI00
aI00
aI00
aI00
aI00
aI00
aI00
aI00
aI00
aI00
aI00
aI00
aI00
aI00
aI00
aI00
aI00
aI00
aI00
aI00
aI00
aI00
aI00
aI00
aI00
aI00
aI00
aI00
aI00
aI00
aI00
aI00
aI00
aI00
aI00
aI00
aI00
aI00
aI00
aI00
aI00
aI00
aI00
aI00
aI00
aI00
aI00
aI00
aI00
aI00
aI00
aI00
aI00
aI00
aI00
aI00
aI00
aI00
aI00
aI00
aI00
aI00
aI00
aI00
aI00
aI00
aI00
aI00
aI00
aI00
aI00
aI00
aI00
aI00
aI00
aI00
aI00
aI00
aI00
aI00
aI00
aI00
aI00
aI00
aI00
aI00
aI00
aI00
asS'total_steps'
p47
I110
sS'normalized_h_of_p_ui_given_um'
p48
(lp49
cnumpy.core.multiarray
scalar
p50
(cnumpy
dtype
p51
(S'f8'
p52
I0
I1
tp53
Rp54
(I3
S'<'
p55
NNNI-1
I-1
I0
tp56
bS'a\xa3\x8e\xb0\xda\xdb\xe9?'
p57
tp58
Rp59
ag59
ag59
ag59
ag59
ag59
ag59
ag59
ag59
ag59
ag59
ag59
ag59
ag59
ag59
ag59
ag59
ag59
ag59
ag59
ag59
ag59
ag59
ag59
ag59
ag59
ag59
ag59
ag59
ag59
ag59
ag59
ag59
ag59
ag59
ag59
ag59
ag59
ag59
ag59
ag59
ag59
ag59
ag59
ag59
ag59
ag59
ag59
ag59
ag59
ag59
ag59
ag59
ag59
ag59
ag59
ag59
ag59
ag59
ag59
ag59
ag59
ag59
ag59
ag59
ag59
ag59
ag59
ag59
ag59
ag59
ag59
ag59
ag59
ag59
ag59
ag59
ag59
ag59
ag59
ag59
ag59
ag59
ag59
ag59
ag59
ag59
ag59
ag59
ag59
ag59
ag59
ag59
ag59
ag59
ag59
ag59
ag59
ag59
ag59
ag59
ag59
ag59
ag59
ag59
ag59
ag59
ag59
ag59
ag59
asS'sp'
p60
(lp61
(S'p0'
p62
I0
S'y'
p63
tp64
a(g62
I0
g63
tp65
ag64
ag65
ag65
a(g62
I0
S'x'
p66
tp67
a(g62
I0
S't'
p68
tp69
a(g62
I0
g68
tp70
a(g62
I0
g63
tp71
a(g62
I0
g68
tp72
a(g62
I0
g66
tp73
a(g62
I0
g63
tp74
ag64
ag67
a(S'p1'
p75
I0
g66
tp76
a(g75
I0
g68
tp77
a(g75
I0
g68
tp78
ag78
a(g75
I0
g63
tp79
a(g62
I0
g63
tp80
ag67
ag76
a(g75
I0
g66
tp81
a(g75
I0
g66
tp82
a(g75
I0
g63
tp83
a(g75
I0
g68
tp84
ag79
ag84
ag79
a(S'p2'
p85
I0
g63
tp86
a(g85
I0
g66
tp87
a(g75
I0
g66
tp88
ag83
ag86
ag87
ag88
ag77
a(g75
I0
g66
tp89
ag82
ag83
ag84
a(g75
I0
g68
tp90
ag78
ag90
ag90
ag79
ag84
ag78
ag79
ag80
ag67
ag69
ag71
ag65
ag64
ag67
a(g62
I0
g66
tp91
ag91
ag76
ag82
ag83
ag86
a(g85
I0
g68
tp92
a(g85
I0
g63
tp93
ag92
a(g85
F1.5707963267948966
g68
tp94
a(g85
F1.5707963267948966
g63
tp95
a(g85
F1.5707963267948966
g63
tp96
a(g85
F1.5707963267948966
g66
tp97
a(g75
F1.5707963267948966
g66
tp98
a(g75
F1.5707963267948966
g66
tp99
a(g75
F1.5707963267948966
g63
tp100
a(g85
F1.5707963267948966
g63
tp101
ag97
ag98
a(g75
F1.5707963267948966
g66
tp102
ag102
ag100
ag101
ag97
a(g85
F1.5707963267948966
g63
tp103
a(g85
F1.5707963267948966
g68
tp104
a(g85
F1.5707963267948966
g66
tp105
ag98
ag100
a(g62
F1.5707963267948966
g63
tp106
a(g62
F1.5707963267948966
g66
tp107
a(g62
F1.5707963267948966
g63
tp108
a(g62
F1.5707963267948966
g63
tp109
a(g62
F1.5707963267948966
g63
tp110
ag107
a(g62
F1.5707963267948966
g68
tp111
a(g62
F1.5707963267948966
g63
tp112
ag109
ag107
a(g75
F1.5707963267948966
g66
tp113
ag100
ag101
ag96
ag97
a(S'p3'
p114
F1.5707963267948966
g66
tp115
a(g114
F1.5707963267948966
g66
tp116
a(g114
F1.5707963267948966
g66
tp117
ag117
a(g114
F1.5707963267948966
g63
tp118
a(g114
F1.5707963267948966
g66
tp119
a(g114
F1.5707963267948966
g68
tp120
a(g114
F1.5707963267948966
g68
tp121
a(g114
F1.5707963267948966
g63
tp122
a(S'p4'
p123
F1.5707963267948966
g63
tp124
asS's'
p125
(lp126
(g62
I0
g22
tp127
ag64
ag65
ag64
ag65
ag65
ag67
ag69
ag70
ag71
ag72
ag73
ag74
ag64
ag67
ag76
ag77
ag78
ag78
ag79
ag80
ag67
ag76
ag81
ag82
ag83
ag84
ag79
ag84
ag79
ag86
ag87
ag88
ag83
ag86
ag87
ag88
ag77
ag89
ag82
ag83
ag84
ag90
ag78
ag90
ag90
ag79
ag84
ag78
ag79
ag80
ag67
ag69
ag71
ag65
ag64
ag67
ag91
ag91
ag76
ag82
ag83
ag86
ag92
ag93
ag92
ag94
ag95
ag96
ag97
ag98
ag99
ag100
ag101
ag97
ag98
ag102
ag102
ag100
ag101
ag97
ag103
ag104
ag105
ag98
ag100
ag106
ag107
ag108
ag109
ag110
ag107
ag111
ag112
ag109
ag107
ag113
ag100
ag101
ag96
ag97
ag115
ag116
ag117
ag117
ag118
ag119
ag120
ag121
ag122
asS'ui'
p128
(lp129
g60
aS'hs'
p130
ag60
ag130
ag130
ag130
aS'hp'
p131
ag131
ag130
ag130
ag131
ag130
ag131
aS'ss'
p132
ag132
ag131
ag60
ag60
ag130
ag130
ag130
ag132
ag130
ag130
ag131
ag60
ag130
ag131
ag130
ag60
ag131
ag131
ag131
ag60
ag131
ag130
ag130
ag130
ag131
ag131
ag60
ag132
ag130
ag130
ag60
ag130
ag60
ag130
ag130
ag132
ag130
ag130
ag131
ag132
ag60
ag130
ag60
ag131
ag132
ag131
ag131
ag60
ag130
ag132
ag131
ag130
ag131
ag130
ag130
ag60
ag131
ag131
ag60
ag130
ag60
ag131
ag130
ag131
ag60
ag130
ag130
ag130
ag131
ag132
ag131
ag60
ag130
ag131
ag130
ag130
ag130
ag132
ag131
ag132
ag130
ag132
ag131
ag60
ag60
ag131
ag132
ag131
ag130
ag131
ag131
ag130
ag130
ag60
ag130
ag60
asS'um_before'
p133
(lp134
g60
ag132
ag60
ag132
ag132
ag130
ag130
ag132
ag130
ag131
ag131
ag131
ag60
ag130
ag132
ag130
ag60
ag60
ag130
ag132
ag130
ag132
ag132
ag60
ag131
ag131
ag130
ag131
ag130
ag60
ag130
ag60
ag131
ag60
ag130
ag60
ag130
ag131
ag60
ag131
ag131
ag132
ag60
ag132
ag132
ag130
ag131
ag60
ag130
ag132
ag130
ag130
ag130
ag132
ag60
ag130
ag60
ag60
ag132
ag60
ag131
ag60
ag131
ag130
ag131
ag60
ag130
ag60
ag130
ag60
ag60
ag131
ag60
ag130
ag60
ag132
ag132
ag131
ag60
ag130
ag131
ag131
ag131
ag60
ag131
ag132
ag130
ag131
ag132
ag60
ag130
ag130
ag130
ag132
ag130
ag132
ag131
ag60
ag60
ag130
ag132
ag60
ag132
ag132
ag131
ag130
ag130
ag60
ag130
ag60
asS'um_after'
p135
(lp136
g60
ag132
ag60
ag132
ag132
ag130
ag130
ag132
ag130
ag131
ag131
ag131
ag60
ag130
ag132
ag130
ag60
ag60
ag130
ag132
ag130
ag132
ag132
ag60
ag131
ag131
ag130
ag131
ag130
ag60
ag130
ag60
ag131
ag60
ag130
ag60
ag130
ag131
ag60
ag131
ag131
ag132
ag60
ag132
ag132
ag130
ag131
ag60
ag130
ag132
ag130
ag130
ag130
ag132
ag60
ag130
ag60
ag60
ag132
ag60
ag131
ag60
ag131
ag130
ag131
ag60
ag130
ag60
ag130
ag60
ag60
ag131
ag60
ag130
ag60
ag132
ag132
ag131
ag60
ag130
ag131
ag131
ag131
ag60
ag131
ag132
ag130
ag131
ag132
ag60
ag130
ag130
ag130
ag132
ag130
ag132
ag131
ag60
ag60
ag130
ag132
ag60
ag132
ag132
ag131
ag130
ag130
ag60
ag130
ag60
asS'is_normalized_entropy_less_than_threshold'
p137
(lp138
g50
(g51
(S'b1'
p139
I0
I1
tp140
Rp141
(I3
S'|'
p142
NNNI-1
I-1
I0
tp143
bS'\x01'
p144
tp145
Rp146
ag146
ag146
ag146
ag146
ag146
ag146
ag146
ag146
ag146
ag146
ag146
ag146
ag146
ag146
ag146
ag146
ag146
ag146
ag146
ag146
ag146
ag146
ag146
ag146
ag146
ag146
ag146
ag146
ag146
ag146
ag146
ag146
ag146
ag146
ag146
ag146
ag146
ag146
ag146
ag146
ag146
ag146
ag146
ag146
ag146
ag146
ag146
ag146
ag146
ag146
ag146
ag146
ag146
ag146
ag146
ag146
ag146
ag146
ag146
ag146
ag146
ag146
ag146
ag146
ag146
ag146
ag146
ag146
ag146
ag146
ag146
ag146
ag146
ag146
ag146
ag146
ag146
ag146
ag146
ag146
ag146
ag146
ag146
ag146
ag146
ag146
ag146
ag146
ag146
ag146
ag146
ag146
ag146
ag146
ag146
ag146
ag146
ag146
ag146
ag146
ag146
ag146
ag146
ag146
ag146
ag146
ag146
ag146
ag146
asaa(lp147
S'index'
p148
aI52506
aatp149
Rp150
.