ccollections
OrderedDict
p0
((lp1
(lp2
S'combination_dict'
p3
ag0
((lp4
(lp5
S'r_to_g_config'
p6
aS'bl'
p7
aa(lp8
S'num_turns'
p9
aI3
aa(lp10
S'start_direction'
p11
acutils_ms
StartDirection
p12
(I0
tp13
Rp14
aa(lp15
S'assistance_type'
p16
acutils_ms
AssistanceType
p17
(I1
tp18
Rp19
aa(lp20
S'start_mode'
p21
aS't'
p22
aa(lp23
S'ui_given_a_noise'
p24
aF0.7
aa(lp25
S'um_given_ui_noise'
p26
aF0.1
aa(lp27
S'entropy_threshold'
p28
aF0.9
aatp29
Rp30
aa(lp31
S'data'
p32
accollections
defaultdict
p33
(c__builtin__
list
p34
tp35
Rp36
S'a'
p37
(lp38
S'mode_r'
p39
aS'move_n'
p40
ag40
ag39
ag39
ag40
aS'mode_l'
p41
ag39
ag40
ag41
ag41
ag40
ag40
ag39
ag39
ag40
ag39
ag40
ag39
ag40
ag39
ag40
ag39
aS'move_p'
p42
ag42
ag42
ag39
ag41
ag39
ag40
ag39
ag40
ag39
ag40
ag39
ag40
ag41
ag40
ag39
ag40
ag40
ag39
ag39
ag39
ag40
ag41
ag39
ag40
ag41
ag39
ag40
ag39
ag39
ag39
ag39
ag40
ag41
ag39
ag42
ag39
ag40
ag39
ag40
asS'assistance_match_with_ground_truth'
p43
(lp44
I01
aI00
aI01
aI00
aI01
aI00
aI00
aI01
aI00
aI00
aI01
aI00
aI01
aI00
aI01
aI00
aI01
aI00
aI01
aI00
aI01
aI01
aI01
aI00
aI00
aI01
aI00
aI00
aI01
aI00
aI01
aI00
aI01
aI00
aI01
aI00
aI01
aI00
aI01
aI00
aI01
aI00
aI00
aI01
aI00
aI00
aI01
aI01
aI00
aI01
aI00
aI00
aI00
aI00
aI01
aI01
aI00
aI00
aI01
aI01
aI01
aI01
aI01
asS'is_u_intended_equals_um'
p45
(lp46
I01
aI01
aI01
aI01
aI01
aI01
aI01
aI01
aI01
aI01
aI01
aI01
aI01
aI01
aI01
aI01
aI01
aI01
aI01
aI01
aI01
aI01
aI01
aI01
aI01
aI01
aI01
aI01
aI01
aI01
aI01
aI01
aI01
aI01
aI01
aI01
aI01
aI01
aI01
aI01
aI01
aI01
aI01
aI01
aI01
aI01
aI01
aI01
aI01
aI01
aI01
aI01
aI01
aI01
aI01
aI01
aI01
aI01
aI01
aI01
aI01
aI01
aI01
asS'total_steps'
p47
I63
sS'normalized_h_of_p_ui_given_um'
p48
(lp49
cnumpy.core.multiarray
scalar
p50
(cnumpy
dtype
p51
(S'f8'
p52
I0
I1
tp53
Rp54
(I3
S'<'
p55
NNNI-1
I-1
I0
tp56
bS'$\x80btz\x82\xba?'
p57
tp58
Rp59
ag50
(g54
S'\x98\xd6r\xa2\x10\xde\xd5?'
p60
tp61
Rp62
ag50
(g54
S'\x0fGg\xb8\xb6r\xc6?'
p63
tp64
Rp65
ag50
(g54
S'\xf5x\x1c\x01\xe8U\xdb?'
p66
tp67
Rp68
ag50
(g54
S'$\x80btz\x82\xba?'
p69
tp70
Rp71
ag50
(g54
S'\xbb\xdc\x03\xbd\xaaw\xea?'
p72
tp73
Rp74
ag50
(g54
S'\x86\xf0\x0f\x89^+\xdc?'
p75
tp76
Rp77
ag50
(g54
S'$\x80btz\x82\xba?'
p78
tp79
Rp80
ag50
(g54
S'\x98\xd6r\xa2\x10\xde\xd5?'
p81
tp82
Rp83
ag50
(g54
S'`\xac`@\xd1\xde\xe0?'
p84
tp85
Rp86
ag50
(g54
S'~\x1c\xc9\xe7\x00i\xcd?'
p87
tp88
Rp89
ag50
(g54
S'\x98\xd6r\xa2\x10\xde\xd5?'
p90
tp91
Rp92
ag50
(g54
S'\x0fGg\xb8\xb6r\xc6?'
p93
tp94
Rp95
ag50
(g54
S'\xf5x\x1c\x01\xe8U\xdb?'
p96
tp97
Rp98
ag50
(g54
S'$\x80btz\x82\xba?'
p99
tp100
Rp101
ag50
(g54
S'm_x$b\xa0\xdd?'
p102
tp103
Rp104
ag50
(g54
S'$\x80btz\x82\xba?'
p105
tp106
Rp107
ag50
(g54
S'm_x$b\xa0\xdd?'
p108
tp109
Rp110
ag50
(g54
S'$\x80btz\x82\xba?'
p111
tp112
Rp113
ag50
(g54
S'm_x$b\xa0\xdd?'
p114
tp115
Rp116
ag50
(g54
S'$\x80btz\x82\xba?'
p117
tp118
Rp119
ag50
(g54
S'\x0fGg\xb8\xb6r\xc6?'
p120
tp121
Rp122
ag50
(g54
S'$\x80btz\x82\xba?'
p123
tp124
Rp125
ag50
(g54
S'b\xb0z\xb1SX\xda?'
p126
tp127
Rp128
ag50
(g54
S'b\xb0z\xb1SX\xda?'
p129
tp130
Rp131
ag50
(g54
S'vl\\\x91@=\xc2?'
p132
tp133
Rp134
ag50
(g54
S'\xe2\xc1\x8c8q`\xe0?'
p135
tp136
Rp137
ag50
(g54
S'\x86\xf0\x0f\x89^+\xdc?'
p138
tp139
Rp140
ag50
(g54
S'$\x80btz\x82\xba?'
p141
tp142
Rp143
ag50
(g54
S'm_x$b\xa0\xdd?'
p144
tp145
Rp146
ag50
(g54
S'$\x80btz\x82\xba?'
p147
tp148
Rp149
ag50
(g54
S'\x98\xd6r\xa2\x10\xde\xd5?'
p150
tp151
Rp152
ag50
(g54
S'$\x80btz\x82\xba?'
p153
tp154
Rp155
ag50
(g54
S'm_x$b\xa0\xdd?'
p156
tp157
Rp158
ag50
(g54
S'$\x80btz\x82\xba?'
p159
tp160
Rp161
ag50
(g54
S'\x98\xd6r\xa2\x10\xde\xd5?'
p162
tp163
Rp164
ag50
(g54
S'~\x1c\xc9\xe7\x00i\xcd?'
p165
tp166
Rp167
ag50
(g54
S'm_x$b\xa0\xdd?'
p168
tp169
Rp170
ag50
(g54
S'$\x80btz\x82\xba?'
p171
tp172
Rp173
ag50
(g54
S'\x98\xd6r\xa2\x10\xde\xd5?'
p174
tp175
Rp176
ag50
(g54
S'\x0fGg\xb8\xb6r\xc6?'
p177
tp178
Rp179
ag50
(g54
S'\xf5x\x1c\x01\xe8U\xdb?'
p180
tp181
Rp182
ag50
(g54
S'\xf5x\x1c\x01\xe8U\xdb?'
p183
tp184
Rp185
ag50
(g54
S'$\x80btz\x82\xba?'
p186
tp187
Rp188
ag50
(g54
S'\xbb\xdc\x03\xbd\xaaw\xea?'
p189
tp190
Rp191
ag50
(g54
S'\x86\xf0\x0f\x89^+\xdc?'
p192
tp193
Rp194
ag50
(g54
S'$\x80btz\x82\xba?'
p195
tp196
Rp197
ag50
(g54
S'\x0fGg\xb8\xb6r\xc6?'
p198
tp199
Rp200
ag50
(g54
S'\x86\xf0\x0f\x89^+\xdc?'
p201
tp202
Rp203
ag50
(g54
S'$\x80btz\x82\xba?'
p204
tp205
Rp206
ag50
(g54
S'\x98\xd6r\xa2\x10\xde\xd5?'
p207
tp208
Rp209
ag50
(g54
S'x\x1c\x13\x8ez\xdb\xe7?'
p210
tp211
Rp212
ag50
(g54
S'x\x1c\x13\x8ez\xdb\xe7?'
p213
tp214
Rp215
ag50
(g54
S'x\x1c\x13\x8ez\xdb\xe7?'
p216
tp217
Rp218
ag50
(g54
S'$\x80btz\x82\xba?'
p219
tp220
Rp221
ag50
(g54
S'\x0fGg\xb8\xb6r\xc6?'
p222
tp223
Rp224
ag50
(g54
S'\x86\xf0\x0f\x89^+\xdc?'
p225
tp226
Rp227
ag50
(g54
S'\xf5x\x1c\x01\xe8U\xdb?'
p228
tp229
Rp230
ag50
(g54
S'vl\\\x91@=\xc2?'
p231
tp232
Rp233
ag50
(g54
S'$\x80btz\x82\xba?'
p234
tp235
Rp236
ag50
(g54
S'\x0fGg\xb8\xb6r\xc6?'
p237
tp238
Rp239
ag50
(g54
S'$\x80btz\x82\xba?'
p240
tp241
Rp242
ag50
(g54
S'\x0fGg\xb8\xb6r\xc6?'
p243
tp244
Rp245
asS'sp'
p246
(lp247
(S'p0'
p248
I0
S'x'
p249
tp250
a(g248
I0
g249
tp251
a(S'p1'
p252
I0
g249
tp253
a(g252
I0
g249
tp254
a(g252
I0
S'y'
p255
tp256
a(g252
I0
S't'
p257
tp258
a(g252
I0
g249
tp259
ag256
a(g248
I0
g255
tp260
a(g248
I0
g255
tp261
a(g248
I0
g249
tp262
ag251
ag253
ag254
ag256
a(g252
I0
g249
tp263
ag256
ag263
ag256
ag263
ag256
a(S'p2'
p264
I0
g255
tp265
a(g264
I0
g257
tp266
a(g264
I0
g257
tp267
ag267
a(g264
F1.5707963267948966
g257
tp268
a(g264
F1.5707963267948966
g255
tp269
a(g264
F1.5707963267948966
g257
tp270
a(g264
F1.5707963267948966
g249
tp271
a(g264
F1.5707963267948966
g257
tp272
ag271
a(g252
F1.5707963267948966
g249
tp273
a(g252
F1.5707963267948966
g255
tp274
a(g252
F1.5707963267948966
g249
tp275
ag274
a(g248
F1.5707963267948966
g255
tp276
a(g248
F1.5707963267948966
g249
tp277
a(g248
F1.5707963267948966
g257
tp278
a(g248
F1.5707963267948966
g249
tp279
a(g248
F1.5707963267948966
g249
tp280
a(g252
F1.5707963267948966
g249
tp281
a(g252
F1.5707963267948966
g249
tp282
ag282
ag274
a(g252
F1.5707963267948966
g257
tp283
a(g252
F1.5707963267948966
g249
tp284
ag274
a(g264
F1.5707963267948966
g255
tp285
ag270
ag271
ag273
a(g252
F1.5707963267948966
g249
tp286
ag286
ag286
ag274
ag285
ag270
a(g264
I0
g257
tp287
ag268
ag271
a(S'p3'
p288
F1.5707963267948966
g249
tp289
a(g288
F1.5707963267948966
g255
tp290
a(S'p4'
p291
F1.5707963267948966
g255
tp292
asS's'
p293
(lp294
(g248
I0
g22
tp295
ag250
ag251
ag253
ag254
ag256
ag258
ag259
ag256
ag260
ag261
ag262
ag251
ag253
ag254
ag256
ag263
ag256
ag263
ag256
ag263
ag256
ag265
ag266
ag267
ag267
ag268
ag269
ag270
ag271
ag272
ag271
ag273
ag274
ag275
ag274
ag276
ag277
ag278
ag279
ag280
ag281
ag282
ag282
ag274
ag283
ag284
ag274
ag285
ag270
ag271
ag273
ag286
ag286
ag286
ag274
ag285
ag270
ag287
ag268
ag271
ag289
ag290
asS'ui'
p296
(lp297
S'hp'
p298
ag246
aS'ss'
p299
ag299
ag298
ag298
aS'hs'
p300
ag298
ag246
ag299
ag300
ag246
ag299
ag299
ag298
ag300
ag298
ag300
ag298
ag300
ag298
ag299
ag298
ag299
ag246
ag246
ag298
ag298
ag298
ag300
ag298
ag246
ag298
ag246
ag298
ag246
ag300
ag300
ag298
ag246
ag299
ag299
ag299
ag298
ag246
ag298
ag298
ag299
ag298
ag298
ag246
ag246
ag298
ag299
ag298
ag299
ag298
ag299
ag246
ag298
ag299
ag298
ag299
asS'um_before'
p301
(lp302
g298
ag246
ag299
ag299
ag298
ag298
ag298
ag298
ag246
ag299
ag300
ag246
ag299
ag299
ag298
ag300
ag298
ag300
ag298
ag300
ag298
ag299
ag298
ag299
ag299
ag246
ag300
ag298
ag298
ag300
ag298
ag246
ag298
ag300
ag298
ag246
ag300
ag300
ag298
ag246
ag299
ag299
ag299
ag298
ag298
ag298
ag298
ag299
ag298
ag298
ag246
ag246
ag246
ag246
ag298
ag299
ag298
ag299
ag246
ag298
ag299
ag298
ag299
asS'um_after'
p303
(lp304
g298
ag246
ag299
ag299
ag298
ag298
ag298
ag298
ag246
ag299
ag300
ag246
ag299
ag299
ag298
ag300
ag298
ag300
ag298
ag300
ag298
ag299
ag298
ag299
ag299
ag246
ag300
ag298
ag298
ag300
ag298
ag246
ag298
ag300
ag298
ag246
ag300
ag300
ag298
ag246
ag299
ag299
ag299
ag298
ag298
ag298
ag298
ag299
ag298
ag298
ag246
ag246
ag246
ag246
ag298
ag299
ag298
ag299
ag246
ag298
ag299
ag298
ag299
asS'is_normalized_entropy_less_than_threshold'
p305
(lp306
g50
(g51
(S'b1'
p307
I0
I1
tp308
Rp309
(I3
S'|'
p310
NNNI-1
I-1
I0
tp311
bS'\x01'
p312
tp313
Rp314
ag314
ag314
ag314
ag314
ag314
ag314
ag314
ag314
ag314
ag314
ag314
ag314
ag314
ag314
ag314
ag314
ag314
ag314
ag314
ag314
ag314
ag314
ag314
ag314
ag314
ag314
ag314
ag314
ag314
ag314
ag314
ag314
ag314
ag314
ag314
ag314
ag314
ag314
ag314
ag314
ag314
ag314
ag314
ag314
ag314
ag314
ag314
ag314
ag314
ag314
ag314
ag314
ag314
ag314
ag314
ag314
ag314
ag314
ag314
ag314
ag314
ag314
asaa(lp315
S'index'
p316
aI79043
aatp317
Rp318
.