ccollections
OrderedDict
p0
((lp1
(lp2
S'combination_dict'
p3
ag0
((lp4
(lp5
S'r_to_g_config'
p6
aS'tl'
p7
aa(lp8
S'num_turns'
p9
aI2
aa(lp10
S'start_direction'
p11
acutils_ms
StartDirection
p12
(I1
tp13
Rp14
aa(lp15
S'assistance_type'
p16
acutils_ms
AssistanceType
p17
(I0
tp18
Rp19
aa(lp20
S'start_mode'
p21
aS'x'
p22
aa(lp23
S'ui_given_a_noise'
p24
aF0.5
aa(lp25
S'um_given_ui_noise'
p26
aF0.7
aa(lp27
S'entropy_threshold'
p28
aF0.7
aatp29
Rp30
aa(lp31
S'data'
p32
accollections
defaultdict
p33
(c__builtin__
list
p34
tp35
Rp36
S'a'
p37
(lp38
S'mode_r'
p39
aS'move_p'
p40
aS'mode_l'
p41
ag41
ag39
aS'move_n'
p42
ag41
ag41
ag41
ag39
ag40
ag41
ag41
ag41
ag41
ag41
ag41
ag40
asS'assistance_match_with_ground_truth'
p43
(lp44
I01
aI01
aI00
aI00
aI01
aI01
aI00
aI00
aI00
aI01
aI01
aI00
aI00
aI00
aI00
aI00
aI01
aI01
asS'is_u_intended_equals_um'
p45
(lp46
I01
aI01
aI00
aI01
aI01
aI01
aI00
aI00
aI01
aI01
aI01
aI00
aI00
aI00
aI00
aI00
aI01
aI01
asS'total_steps'
p47
I18
sS'normalized_h_of_p_ui_given_um'
p48
(lp49
cnumpy.core.multiarray
scalar
p50
(cnumpy
dtype
p51
(S'f8'
p52
I0
I1
tp53
Rp54
(I3
S'<'
p55
NNNI-1
I-1
I0
tp56
bS'L\x84G\xd9su\xe1?'
p57
tp58
Rp59
ag50
(g54
S'\xd87\xb8\xa2;f\xdf?'
p60
tp61
Rp62
ag50
(g54
S'\x08O\xc1d\x04p\xe3?'
p63
tp64
Rp65
ag50
(g54
S'q~\x86F\x7f9\xee?'
p66
tp67
Rp68
ag50
(g54
S'L\x84G\xd9su\xe1?'
p69
tp70
Rp71
ag50
(g54
S'\x9fx\x83\x1e\xbeb\xe1?'
p72
tp73
Rp74
ag50
(g54
S'\x08O\xc1d\x04p\xe3?'
p75
tp76
Rp77
ag50
(g54
S'\x08O\xc1d\x04p\xe3?'
p78
tp79
Rp80
ag50
(g54
S'q~\x86F\x7f9\xee?'
p81
tp82
Rp83
ag50
(g54
S'L\x84G\xd9su\xe1?'
p84
tp85
Rp86
ag50
(g54
S'\xd87\xb8\xa2;f\xdf?'
p87
tp88
Rp89
ag50
(g54
S'\xd2\x8f2\xc2\xc9\xad\xec?'
p90
tp91
Rp92
ag50
(g54
S'\x08O\xc1d\x04p\xe3?'
p93
tp94
Rp95
ag50
(g54
S'\xd2\x8f2\xc2\xc9\xad\xec?'
p96
tp97
Rp98
ag50
(g54
S'\x08O\xc1d\x04p\xe3?'
p99
tp100
Rp101
ag50
(g54
S'\x08O\xc1d\x04p\xe3?'
p102
tp103
Rp104
ag50
(g54
S'\xaa\x1d\xf1{\xf9z\xe0?'
p105
tp106
Rp107
ag50
(g54
S'\xd87\xb8\xa2;f\xdf?'
p108
tp109
Rp110
asS'sp'
p111
(lp112
(S'p0'
p113
I0
S'y'
p114
tp115
a(S'p1'
p116
I0
g114
tp117
ag117
a(g116
I0
S't'
p118
tp119
a(g116
I0
S'x'
p120
tp121
a(S'p2'
p122
I0
g120
tp123
ag123
ag123
a(g122
I0
g114
tp124
a(g122
I0
g118
tp125
a(g122
F1.5707963267948966
g118
tp126
a(g122
F1.5707963267948966
g118
tp127
ag127
ag127
ag127
ag127
a(g122
F1.5707963267948966
g114
tp128
a(S'p3'
p129
F1.5707963267948966
g114
tp130
asS's'
p131
(lp132
(g113
I0
g22
tp133
ag115
ag117
ag117
ag119
ag121
ag123
ag123
ag123
ag124
ag125
ag126
ag127
ag127
ag127
ag127
ag127
ag128
asS'ui'
p134
(lp135
S'hp'
p136
ag111
aS'ss'
p137
aS'hs'
p138
ag136
ag137
ag138
ag138
ag137
ag136
ag138
ag136
ag138
ag136
ag138
ag138
ag138
ag111
asS'um_before'
p139
(lp140
g136
ag111
ag137
ag136
ag136
ag137
ag137
ag137
ag136
ag136
ag111
ag111
ag137
ag111
ag137
ag137
ag138
ag111
asS'um_after'
p141
(lp142
g136
ag111
aNag136
ag136
ag137
aNaNag136
ag136
ag111
ag111
aNag111
aNaNag138
ag111
asS'is_normalized_entropy_less_than_threshold'
p143
(lp144
g50
(g51
(S'b1'
p145
I0
I1
tp146
Rp147
(I3
S'|'
p148
NNNI-1
I-1
I0
tp149
bS'\x01'
p150
tp151
Rp152
ag152
ag152
ag50
(g147
S'\x00'
p153
tp154
Rp155
ag152
ag152
ag152
ag152
ag155
ag152
ag152
ag155
ag152
ag155
ag152
ag152
ag152
ag152
asaa(lp156
S'index'
p157
aI43772
aatp158
Rp159
.