ccollections
OrderedDict
p0
((lp1
(lp2
S'combination_dict'
p3
ag0
((lp4
(lp5
S'r_to_g_config'
p6
aS'tl'
p7
aa(lp8
S'num_turns'
p9
aI3
aa(lp10
S'start_direction'
p11
acutils_ms
StartDirection
p12
(I1
tp13
Rp14
aa(lp15
S'assistance_type'
p16
acutils_ms
AssistanceType
p17
(I1
tp18
Rp19
aa(lp20
S'start_mode'
p21
aS'x'
p22
aa(lp23
S'ui_given_a_noise'
p24
aF0.3
aa(lp25
S'um_given_ui_noise'
p26
aF0.5
aa(lp27
S'entropy_threshold'
p28
aF0.8
aatp29
Rp30
aa(lp31
S'data'
p32
accollections
defaultdict
p33
(c__builtin__
list
p34
tp35
Rp36
S'a'
p37
(lp38
S'mode_r'
p39
aS'move_p'
p40
ag39
ag40
ag39
ag40
ag39
ag40
aS'mode_l'
p41
ag40
ag40
ag39
aS'move_n'
p42
ag39
ag40
ag41
ag42
asS'assistance_match_with_ground_truth'
p43
(lp44
I01
aI00
aI01
aI00
aI01
aI01
aI01
aI00
aI01
aI00
aI01
aI01
aI01
aI01
aI01
aI01
aI01
asS'is_u_intended_equals_um'
p45
(lp46
I00
aI01
aI01
aI01
aI01
aI01
aI00
aI01
aI01
aI00
aI01
aI01
aI00
aI00
aI01
aI00
aI00
asS'total_steps'
p47
I17
sS'normalized_h_of_p_ui_given_um'
p48
(lp49
cnumpy.core.multiarray
scalar
p50
(cnumpy
dtype
p51
(S'f8'
p52
I0
I1
tp53
Rp54
(I3
S'<'
p55
NNNI-1
I-1
I0
tp56
bS'\xc6uY\xceY\x87\xe7?'
p57
tp58
Rp59
ag50
(g54
S'\x98\xc6\t+\xb4W\xee?'
p60
tp61
Rp62
ag50
(g54
S'\x98t\x14Kb\xa2\xcc?'
p63
tp64
Rp65
ag50
(g54
S'\x98\xc6\t+\xb4W\xee?'
p66
tp67
Rp68
ag50
(g54
S'\x98t\x14Kb\xa2\xcc?'
p69
tp70
Rp71
ag50
(g54
S'E/\x85\xa86\xd1\xcf?'
p72
tp73
Rp74
ag50
(g54
S'\xc6uY\xceY\x87\xe7?'
p75
tp76
Rp77
ag50
(g54
S'#_\x9f\xbb\xfc\xde\xe6?'
p78
tp79
Rp80
ag50
(g54
S'\x86T\xdbk\xc7\xf0\xce?'
p81
tp82
Rp83
ag50
(g54
S'\xa2U\xc8\xd3/\x0e\xed?'
p84
tp85
Rp86
ag50
(g54
S'E/\x85\xa86\xd1\xcf?'
p87
tp88
Rp89
ag50
(g54
S'\x98t\x14Kb\xa2\xcc?'
p90
tp91
Rp92
ag50
(g54
S'\xbe\xf6\x08X\x9e\x08\xe6?'
p93
tp94
Rp95
ag50
(g54
S'\xe0\xb5\x1e\x91E\x86\xe8?'
p96
tp97
Rp98
ag50
(g54
S'E/\x85\xa86\xd1\xcf?'
p99
tp100
Rp101
ag50
(g54
S'P\r\x83\xa9\xa1&\xe8?'
p102
tp103
Rp104
ag50
(g54
S'*N\xd3\xf4Iw\xe5?'
p105
tp106
Rp107
asS'sp'
p108
(lp109
(S'p0'
p110
I0
S'y'
p111
tp112
a(g110
I0
S'x'
p113
tp114
ag112
ag114
ag112
a(S'p1'
p115
I0
g111
tp116
a(g115
I0
S't'
p117
tp118
a(g115
I0
g113
tp119
a(g115
I0
g117
tp120
a(g115
I0
g117
tp121
a(g115
F1.5707963267948966
g117
tp122
a(g115
F1.5707963267948966
g113
tp123
a(S'p2'
p124
F1.5707963267948966
g113
tp125
a(g124
F1.5707963267948966
g111
tp126
a(S'p3'
p127
F1.5707963267948966
g111
tp128
a(g127
F1.5707963267948966
g113
tp129
a(S'p4'
p130
F1.5707963267948966
g113
tp131
asS's'
p132
(lp133
(g110
I0
g22
tp134
ag112
ag114
ag112
ag114
ag112
ag116
ag118
ag119
ag120
ag121
ag122
ag123
ag125
ag126
ag128
ag129
asS'ui'
p135
(lp136
S'hp'
p137
aS'hs'
p138
ag137
ag137
ag137
ag108
ag137
ag108
ag138
aS'ss'
p139
ag108
ag137
ag139
ag138
ag108
ag138
ag108
asS'um_before'
p140
(lp141
g138
ag138
ag137
ag138
ag137
ag108
ag138
ag137
ag138
ag139
ag108
ag137
ag138
ag139
ag108
ag137
ag108
asS'um_after'
p142
(lp143
g137
ag138
ag137
ag138
ag137
ag108
ag137
ag137
ag138
ag139
ag108
ag137
ag139
ag137
ag108
ag138
ag139
asS'is_normalized_entropy_less_than_threshold'
p144
(lp145
g50
(g51
(S'b1'
p146
I0
I1
tp147
Rp148
(I3
S'|'
p149
NNNI-1
I-1
I0
tp150
bS'\x01'
p151
tp152
Rp153
ag50
(g148
S'\x00'
p154
tp155
Rp156
ag153
ag156
ag153
ag153
ag153
ag153
ag153
ag156
ag153
ag153
ag153
ag153
ag153
ag153
ag153
asaa(lp157
S'index'
p158
aI54736
aatp159
Rp160
.