ccollections
OrderedDict
p0
((lp1
(lp2
S'combination_dict'
p3
ag0
((lp4
(lp5
S'r_to_g_config'
p6
aS'bl'
p7
aa(lp8
S'num_turns'
p9
aI1
aa(lp10
S'start_direction'
p11
acutils_ms
StartDirection
p12
(I1
tp13
Rp14
aa(lp15
S'assistance_type'
p16
acutils_ms
AssistanceType
p17
(I1
tp18
Rp19
aa(lp20
S'start_mode'
p21
aS'x'
p22
aa(lp23
S'ui_given_a_noise'
p24
aF0.5
aa(lp25
S'um_given_ui_noise'
p26
aF0.5
aa(lp27
S'entropy_threshold'
p28
aF0.6
aatp29
Rp30
aa(lp31
S'data'
p32
accollections
defaultdict
p33
(c__builtin__
list
p34
tp35
Rp36
S'a'
p37
(lp38
S'mode_r'
p39
ag39
ag39
ag39
ag39
ag39
aS'mode_l'
p40
ag40
ag40
aS'move_n'
p41
ag39
aS'move_p'
p42
ag39
ag39
ag41
ag40
ag41
ag40
ag41
ag39
ag40
ag41
ag39
ag42
ag39
ag40
ag40
ag40
ag39
ag42
ag39
ag41
asS'assistance_match_with_ground_truth'
p43
(lp44
I00
aI00
aI00
aI00
aI00
aI00
aI00
aI00
aI01
aI01
aI01
aI01
aI00
aI01
aI00
aI01
aI00
aI01
aI00
aI00
aI01
aI00
aI00
aI01
aI00
aI00
aI00
aI00
aI00
aI01
aI01
aI01
asS'is_u_intended_equals_um'
p45
(lp46
I00
aI00
aI00
aI00
aI00
aI00
aI00
aI00
aI01
aI01
aI01
aI01
aI00
aI01
aI01
aI01
aI01
aI01
aI00
aI00
aI01
aI00
aI00
aI00
aI00
aI00
aI00
aI00
aI00
aI00
aI01
aI01
asS'total_steps'
p47
I32
sS'normalized_h_of_p_ui_given_um'
p48
(lp49
cnumpy.core.multiarray
scalar
p50
(cnumpy
dtype
p51
(S'f8'
p52
I0
I1
tp53
Rp54
(I3
S'<'
p55
NNNI-1
I-1
I0
tp56
bS'\r_\xfe\xfe\x96\x87\xe6?'
p57
tp58
Rp59
ag50
(g54
S'\r_\xfe\xfe\x96\x87\xe6?'
p60
tp61
Rp62
ag50
(g54
S'\xa7\x0b\xed\xa6\x96\x18\xe5?'
p63
tp64
Rp65
ag50
(g54
S'\r_\xfe\xfe\x96\x87\xe6?'
p66
tp67
Rp68
ag50
(g54
S'\xa7\x0b\xed\xa6\x96\x18\xe5?'
p69
tp70
Rp71
ag50
(g54
S'Yo\x05\xd8\xfa\xa3\xea?'
p72
tp73
Rp74
ag50
(g54
S'L\x9b\xe1\xb9\x19\x8a\xe8?'
p75
tp76
Rp77
ag50
(g54
S'L\x9b\xe1\xb9\x19\x8a\xe8?'
p78
tp79
Rp80
ag50
(g54
S'\xc2jQ\xc1P\x9f\xd9?'
p81
tp82
Rp83
ag50
(g54
S'<\xbf\x0c\x81H\xed\xe1?'
p84
tp85
Rp86
ag50
(g54
S'\\\xa5b\xe0\xcb\xa3\xd3?'
p87
tp88
Rp89
ag50
(g54
S'\xddA\xc8\xac\xc7\xdc\xd2?'
p90
tp91
Rp92
ag50
(g54
S'\xa7\x0b\xed\xa6\x96\x18\xe5?'
p93
tp94
Rp95
ag50
(g54
S'\\\xa5b\xe0\xcb\xa3\xd3?'
p96
tp97
Rp98
ag50
(g54
S'\x19\xe4\xb4Oa\x05\xe8?'
p99
tp100
Rp101
ag50
(g54
S'\xc2jQ\xc1P\x9f\xd9?'
p102
tp103
Rp104
ag50
(g54
S'\x19\xe4\xb4Oa\x05\xe8?'
p105
tp106
Rp107
ag50
(g54
S'\xc2jQ\xc1P\x9f\xd9?'
p108
tp109
Rp110
ag50
(g54
S'*hVHm\x06\xe7?'
p111
tp112
Rp113
ag50
(g54
S'Yo\x05\xd8\xfa\xa3\xea?'
p114
tp115
Rp116
ag50
(g54
S'\xc2jQ\xc1P\x9f\xd9?'
p117
tp118
Rp119
ag50
(g54
S'*hVHm\x06\xe7?'
p120
tp121
Rp122
ag50
(g54
S'\r_\xfe\xfe\x96\x87\xe6?'
p123
tp124
Rp125
ag50
(g54
S'\xcca|\xbe\x18\x8a\xe2?'
p126
tp127
Rp128
ag50
(g54
S'Yo\x05\xd8\xfa\xa3\xea?'
p129
tp130
Rp131
ag50
(g54
S'\x14\xbdZZ\xcb_\xe8?'
p132
tp133
Rp134
ag50
(g54
S'L\x9b\xe1\xb9\x19\x8a\xe8?'
p135
tp136
Rp137
ag50
(g54
S'jv]_\xacD\xef?'
p138
tp139
Rp140
ag50
(g54
S'\r_\xfe\xfe\x96\x87\xe6?'
p141
tp142
Rp143
ag50
(g54
S'\xcca|\xbe\x18\x8a\xe2?'
p144
tp145
Rp146
ag50
(g54
S'\\\xa5b\xe0\xcb\xa3\xd3?'
p147
tp148
Rp149
ag50
(g54
S'<\xbf\x0c\x81H\xed\xe1?'
p150
tp151
Rp152
asS'sp'
p153
(lp154
(S'p0'
p155
I0
S'x'
p156
tp157
ag157
a(g155
I0
g156
tp158
ag157
ag158
a(g155
I0
S't'
p159
tp160
a(g155
I0
g159
tp161
ag161
a(g155
I0
S'y'
p162
tp163
a(S'p1'
p164
I0
g162
tp165
a(g164
I0
g159
tp166
a(g164
F1.5707963267948966
g159
tp167
a(g164
F1.5707963267948966
g159
tp168
a(g164
F1.5707963267948966
g156
tp169
a(g164
F1.5707963267948966
g162
tp170
a(g164
F1.5707963267948966
g156
tp171
ag170
ag171
a(g164
F1.5707963267948966
g159
tp172
a(g164
F1.5707963267948966
g162
tp173
ag171
ag172
a(g164
I0
g159
tp174
ag167
ag173
a(g164
F1.5707963267948966
g162
tp175
a(g164
F1.5707963267948966
g162
tp176
a(g164
F1.5707963267948966
g159
tp177
ag174
ag167
ag169
a(S'p2'
p178
F1.5707963267948966
g156
tp179
asS's'
p180
(lp181
(g155
I0
g22
tp182
ag157
ag157
ag158
ag157
ag158
ag160
ag161
ag161
ag163
ag165
ag166
ag167
ag168
ag169
ag170
ag171
ag170
ag171
ag172
ag173
ag171
ag172
ag174
ag167
ag173
ag175
ag176
ag177
ag174
ag167
ag169
asS'ui'
p183
(lp184
S'hp'
p185
ag185
ag153
ag185
ag185
aS'hs'
p186
ag186
aS'ss'
p187
ag186
ag153
ag185
ag153
ag153
ag185
ag185
ag153
ag185
ag153
ag187
ag185
ag186
ag186
ag185
ag187
ag153
ag153
ag187
ag187
ag185
ag153
ag185
ag187
asS'um_before'
p188
(lp189
g187
ag187
ag153
ag187
ag153
ag186
ag187
ag187
ag186
ag187
ag185
ag153
ag153
ag185
ag185
ag186
ag185
ag186
ag186
ag186
ag186
ag186
ag187
ag185
ag186
ag153
ag187
ag185
ag187
ag185
ag185
ag187
asS'um_after'
p190
(lp191
g187
ag187
ag153
ag187
ag153
ag186
ag187
ag187
ag186
ag187
ag185
ag153
ag153
ag185
ag185
ag186
ag185
ag186
ag186
ag186
ag186
ag186
ag187
ag153
ag186
ag153
ag187
ag185
ag187
ag153
ag185
ag187
asS'is_normalized_entropy_less_than_threshold'
p192
(lp193
g50
(g51
(S'b1'
p194
I0
I1
tp195
Rp196
(I3
S'|'
p197
NNNI-1
I-1
I0
tp198
bS'\x00'
p199
tp200
Rp201
ag201
ag201
ag201
ag201
ag201
ag201
ag201
ag50
(g196
S'\x01'
p202
tp203
Rp204
ag204
ag204
ag204
ag201
ag204
ag201
ag204
ag201
ag204
ag201
ag201
ag204
ag201
ag201
ag204
ag201
ag201
ag201
ag201
ag201
ag204
ag204
ag204
asaa(lp205
S'index'
p206
aI64515
aatp207
Rp208
.