ccollections
OrderedDict
p0
((lp1
(lp2
S'combination_dict'
p3
ag0
((lp4
(lp5
S'r_to_g_config'
p6
aS'tr'
p7
aa(lp8
S'num_turns'
p9
aI2
aa(lp10
S'start_direction'
p11
acutils_ms
StartDirection
p12
(I1
tp13
Rp14
aa(lp15
S'assistance_type'
p16
acutils_ms
AssistanceType
p17
(I0
tp18
Rp19
aa(lp20
S'start_mode'
p21
aS't'
p22
aa(lp23
S'ui_given_a_noise'
p24
aF0.7
aa(lp25
S'um_given_ui_noise'
p26
aF0.5
aa(lp27
S'entropy_threshold'
p28
aF0.8
aatp29
Rp30
aa(lp31
S'data'
p32
accollections
defaultdict
p33
(c__builtin__
list
p34
tp35
Rp36
S'a'
p37
(lp38
S'mode_l'
p39
aS'move_p'
p40
ag40
ag39
ag40
ag39
ag40
ag39
ag39
ag40
ag39
ag40
asS'assistance_match_with_ground_truth'
p41
(lp42
I01
aI00
aI01
aI01
aI01
aI01
aI01
aI00
aI00
aI01
aI01
aI01
asS'is_u_intended_equals_um'
p43
(lp44
I01
aI00
aI01
aI01
aI01
aI01
aI01
aI00
aI01
aI01
aI01
aI01
asS'total_steps'
p45
I12
sS'normalized_h_of_p_ui_given_um'
p46
(lp47
cnumpy.core.multiarray
scalar
p48
(cnumpy
dtype
p49
(S'f8'
p50
I0
I1
tp51
Rp52
(I3
S'<'
p53
NNNI-1
I-1
I0
tp54
bS'l\xdc\xb9T&(\xde?'
p55
tp56
Rp57
ag48
(g52
S'\x1e\x8c$X\xa5}\xe9?'
p58
tp59
Rp60
ag48
(g52
S'Gyw*\xe2A\xd3?'
p61
tp62
Rp63
ag48
(g52
S'l\xdc\xb9T&(\xde?'
p64
tp65
Rp66
ag48
(g52
S'Gyw*\xe2A\xd3?'
p67
tp68
Rp69
ag48
(g52
S'l\xdc\xb9T&(\xde?'
p70
tp71
Rp72
ag48
(g52
S'Gyw*\xe2A\xd3?'
p73
tp74
Rp75
ag48
(g52
S'\x91\x1b4i*\x92\xe7?'
p76
tp77
Rp78
ag48
(g52
S'\x9c\xe3\xe1T\x8ee\xe6?'
p79
tp80
Rp81
ag48
(g52
S'Gyw*\xe2A\xd3?'
p82
tp83
Rp84
ag48
(g52
S'l\xdc\xb9T&(\xde?'
p85
tp86
Rp87
ag48
(g52
S'Gyw*\xe2A\xd3?'
p88
tp89
Rp90
asS'sp'
p91
(lp92
(S'p0'
p93
I0
S'y'
p94
tp95
ag95
a(S'p1'
p96
I0
g94
tp97
a(g96
I0
S'x'
p98
tp99
a(S'p2'
p100
I0
g98
tp101
a(g100
I0
S't'
p102
tp103
a(g100
F1.5707963267948966
g102
tp104
ag104
a(g100
I0
g102
tp105
ag104
a(g100
F1.5707963267948966
g94
tp106
a(S'p3'
p107
F1.5707963267948966
g94
tp108
asS's'
p109
(lp110
(g93
I0
g22
tp111
ag95
ag95
ag97
ag99
ag101
ag103
ag104
ag104
ag105
ag104
ag106
asS'ui'
p112
(lp113
S'hs'
p114
aS'ss'
p115
ag91
ag114
ag91
ag114
ag91
ag114
ag115
ag91
ag114
ag91
asS'um_before'
p116
(lp117
g114
ag114
ag91
ag114
ag91
ag114
ag91
ag91
ag115
ag91
ag114
ag91
asS'um_after'
p118
(lp119
g114
aNag91
ag114
ag91
ag114
ag91
aNag115
ag91
ag114
ag91
asS'is_normalized_entropy_less_than_threshold'
p120
(lp121
g48
(g49
(S'b1'
p122
I0
I1
tp123
Rp124
(I3
S'|'
p125
NNNI-1
I-1
I0
tp126
bS'\x01'
p127
tp128
Rp129
ag129
ag129
ag129
ag129
ag129
ag129
ag129
ag129
ag129
ag129
ag129
asaa(lp130
S'index'
p131
aI15930
aatp132
Rp133
.