ccollections
OrderedDict
p0
((lp1
(lp2
S'combination_dict'
p3
ag0
((lp4
(lp5
S'r_to_g_config'
p6
aS'tr'
p7
aa(lp8
S'num_turns'
p9
aI2
aa(lp10
S'start_direction'
p11
acutils_ms
StartDirection
p12
(I0
tp13
Rp14
aa(lp15
S'assistance_type'
p16
acutils_ms
AssistanceType
p17
(I0
tp18
Rp19
aa(lp20
S'start_mode'
p21
aS'y'
p22
aa(lp23
S'ui_given_a_noise'
p24
aF0.7
aa(lp25
S'um_given_ui_noise'
p26
aF0.7
aa(lp27
S'entropy_threshold'
p28
aF0.6
aatp29
Rp30
aa(lp31
S'data'
p32
accollections
defaultdict
p33
(c__builtin__
list
p34
tp35
Rp36
S'a'
p37
(lp38
S'mode_l'
p39
ag39
aS'move_p'
p40
aS'mode_r'
p41
ag40
ag41
ag39
ag40
ag41
ag39
ag40
ag40
ag39
ag41
ag40
ag39
ag40
ag41
ag39
ag39
ag39
ag40
ag41
ag41
ag41
ag40
ag40
ag41
ag39
ag40
ag41
ag41
ag40
ag39
ag40
ag41
ag41
ag41
ag39
ag39
ag41
ag41
ag41
ag41
ag41
ag41
ag41
ag41
ag41
ag41
ag39
ag40
ag39
ag41
ag41
ag39
ag39
ag39
ag39
ag39
ag40
ag39
ag39
ag40
ag40
ag39
ag39
ag39
ag39
ag40
ag41
ag40
ag41
ag41
ag41
ag39
ag39
ag39
ag40
ag39
ag39
ag41
ag40
ag41
ag41
ag41
ag41
ag39
ag39
ag40
asS'assistance_match_with_ground_truth'
p42
(lp43
I00
aI01
aI00
aI01
aI01
aI00
aI01
aI01
aI00
aI01
aI00
aI00
aI00
aI01
aI00
aI01
aI01
aI00
aI00
aI00
aI01
aI01
aI00
aI00
aI01
aI00
aI01
aI00
aI01
aI00
aI00
aI01
aI01
aI01
aI00
aI00
aI00
aI00
aI00
aI00
aI00
aI00
aI00
aI00
aI00
aI00
aI00
aI00
aI00
aI00
aI01
aI00
aI00
aI00
aI00
aI00
aI00
aI00
aI00
aI01
aI00
aI00
aI01
aI00
aI00
aI00
aI00
aI00
aI01
aI01
aI01
aI00
aI00
aI00
aI00
aI00
aI00
aI01
aI01
aI00
aI00
aI00
aI01
aI00
aI00
aI00
aI00
aI00
aI01
aI01
asS'is_u_intended_equals_um'
p44
(lp45
I01
aI01
aI01
aI01
aI01
aI01
aI01
aI01
aI01
aI01
aI00
aI01
aI01
aI01
aI00
aI01
aI01
aI01
aI00
aI01
aI01
aI01
aI01
aI00
aI01
aI00
aI01
aI01
aI01
aI00
aI00
aI01
aI01
aI01
aI00
aI00
aI00
aI01
aI01
aI00
aI01
aI00
aI01
aI01
aI01
aI01
aI01
aI01
aI00
aI01
aI01
aI01
aI00
aI01
aI01
aI01
aI01
aI00
aI00
aI01
aI00
aI00
aI01
aI00
aI01
aI01
aI00
aI00
aI01
aI01
aI01
aI01
aI00
aI01
aI01
aI01
aI01
aI01
aI01
aI01
aI00
aI01
aI01
aI00
aI00
aI00
aI01
aI01
aI01
aI01
asS'total_steps'
p46
I90
sS'normalized_h_of_p_ui_given_um'
p47
(lp48
cnumpy.core.multiarray
scalar
p49
(cnumpy
dtype
p50
(S'f8'
p51
I0
I1
tp52
Rp53
(I3
S'<'
p54
NNNI-1
I-1
I0
tp55
bS'\xce\xce\xaf\xffE\x95\xe4?'
p56
tp57
Rp58
ag49
(g53
S'\tC\xcb\xa4\x82k\xe1?'
p59
tp60
Rp61
ag49
(g53
S'\xd7\xe1)\x8b\xcf\xbf\xeb?'
p62
tp63
Rp64
ag49
(g53
S'n\x14\x9dz\x0c\xa2\xe3?'
p65
tp66
Rp67
ag49
(g53
S'\xbdV\xe2\xcc\xec\x9c\xe0?'
p68
tp69
Rp70
ag49
(g53
S'\xd2\x97\xd9%\xf7"\xea?'
p71
tp72
Rp73
ag49
(g53
S'\tC\xcb\xa4\x82k\xe1?'
p74
tp75
Rp76
ag49
(g53
S'\xbdV\xe2\xcc\xec\x9c\xe0?'
p77
tp78
Rp79
ag49
(g53
S'\xd2\x97\xd9%\xf7"\xea?'
p80
tp81
Rp82
ag49
(g53
S'\tC\xcb\xa4\x82k\xe1?'
p83
tp84
Rp85
ag49
(g53
S'\xcbV\xd46%H\xeb?'
p86
tp87
Rp88
ag49
(g53
S'\xb6Ea1\x08H\xe4?'
p89
tp90
Rp91
ag49
(g53
S'\xce\xce\xaf\xffE\x95\xe4?'
p92
tp93
Rp94
ag49
(g53
S'n\x14\x9dz\x0c\xa2\xe3?'
p95
tp96
Rp97
ag49
(g53
S'\xcbV\xd46%H\xeb?'
p98
tp99
Rp100
ag49
(g53
S'\tC\xcb\xa4\x82k\xe1?'
p101
tp102
Rp103
ag49
(g53
S'\xbdV\xe2\xcc\xec\x9c\xe0?'
p104
tp105
Rp106
ag49
(g53
S'\xd2\x97\xd9%\xf7"\xea?'
p107
tp108
Rp109
ag49
(g53
S'\xa8\xbd\x9b\xe5\xe6\xc1\xeb?'
p110
tp111
Rp112
ag49
(g53
S'\xce\xce\xaf\xffE\x95\xe4?'
p113
tp114
Rp115
ag49
(g53
S'\tC\xcb\xa4\x82k\xe1?'
p116
tp117
Rp118
ag49
(g53
S'\xbdV\xe2\xcc\xec\x9c\xe0?'
p119
tp120
Rp121
ag49
(g53
S'\xb8`\xf9]t\x83\xeb?'
p122
tp123
Rp124
ag49
(g53
S'\xb6\xebC\x14\xa3g\xed?'
p125
tp126
Rp127
ag49
(g53
S'n\x14\x9dz\x0c\xa2\xe3?'
p128
tp129
Rp130
ag49
(g53
S'\xcbV\xd46%H\xeb?'
p131
tp132
Rp133
ag49
(g53
S'\xbdV\xe2\xcc\xec\x9c\xe0?'
p134
tp135
Rp136
ag49
(g53
S'\xd2\x97\xd9%\xf7"\xea?'
p137
tp138
Rp139
ag49
(g53
S'\tC\xcb\xa4\x82k\xe1?'
p140
tp141
Rp142
ag49
(g53
S'\xcbV\xd46%H\xeb?'
p143
tp144
Rp145
ag49
(g53
S'\xb6\xebC\x14\xa3g\xed?'
p146
tp147
Rp148
ag49
(g53
S'n\x14\x9dz\x0c\xa2\xe3?'
p149
tp150
Rp151
ag49
(g53
S'\xbdV\xe2\xcc\xec\x9c\xe0?'
p152
tp153
Rp154
ag49
(g53
S'\tC\xcb\xa4\x82k\xe1?'
p155
tp156
Rp157
ag49
(g53
S'\xcbV\xd46%H\xeb?'
p158
tp159
Rp160
ag49
(g53
S'\xb6\xebC\x14\xa3g\xed?'
p161
tp162
Rp163
ag49
(g53
S'\xb6\xebC\x14\xa3g\xed?'
p164
tp165
Rp166
ag49
(g53
S'\xd2\x97\xd9%\xf7"\xea?'
p167
tp168
Rp169
ag49
(g53
S'\xce\xce\xaf\xffE\x95\xe4?'
p170
tp171
Rp172
ag49
(g53
S'\xe0\xeb\x97\xdd\xa4n\xe9?'
p173
tp174
Rp175
ag49
(g53
S'\xb8`\xf9]t\x83\xeb?'
p176
tp177
Rp178
ag49
(g53
S'\xb6\xebC\x14\xa3g\xed?'
p179
tp180
Rp181
ag49
(g53
S'\xb8`\xf9]t\x83\xeb?'
p182
tp183
Rp184
ag49
(g53
S'\xb8`\xf9]t\x83\xeb?'
p185
tp186
Rp187
ag49
(g53
S'\xb8`\xf9]t\x83\xeb?'
p188
tp189
Rp190
ag49
(g53
S'\xb8`\xf9]t\x83\xeb?'
p191
tp192
Rp193
ag49
(g53
S'\xb8`\xf9]t\x83\xeb?'
p194
tp195
Rp196
ag49
(g53
S'\xb8`\xf9]t\x83\xeb?'
p197
tp198
Rp199
ag49
(g53
S'\xb6\xebC\x14\xa3g\xed?'
p200
tp201
Rp202
ag49
(g53
S'\xd2\x97\xd9%\xf7"\xea?'
p203
tp204
Rp205
ag49
(g53
S'\tC\xcb\xa4\x82k\xe1?'
p206
tp207
Rp208
ag49
(g53
S'\xb6Ea1\x08H\xe4?'
p209
tp210
Rp211
ag49
(g53
S'\xe0\xeb\x97\xdd\xa4n\xe9?'
p212
tp213
Rp214
ag49
(g53
S'\xb8`\xf9]t\x83\xeb?'
p215
tp216
Rp217
ag49
(g53
S'\xd2\x97\xd9%\xf7"\xea?'
p218
tp219
Rp220
ag49
(g53
S'\xce\xce\xaf\xffE\x95\xe4?'
p221
tp222
Rp223
ag49
(g53
S'\xce\xce\xaf\xffE\x95\xe4?'
p224
tp225
Rp226
ag49
(g53
S'\xa8\xbd\x9b\xe5\xe6\xc1\xeb?'
p227
tp228
Rp229
ag49
(g53
S'\xa8\xbd\x9b\xe5\xe6\xc1\xeb?'
p230
tp231
Rp232
ag49
(g53
S'\tC\xcb\xa4\x82k\xe1?'
p233
tp234
Rp235
ag49
(g53
S'\xcbV\xd46%H\xeb?'
p236
tp237
Rp238
ag49
(g53
S'\xa8\xbd\x9b\xe5\xe6\xc1\xeb?'
p239
tp240
Rp241
ag49
(g53
S'\tC\xcb\xa4\x82k\xe1?'
p242
tp243
Rp244
ag49
(g53
S'\xcbV\xd46%H\xeb?'
p245
tp246
Rp247
ag49
(g53
S'\xb6Ea1\x08H\xe4?'
p248
tp249
Rp250
ag49
(g53
S'\xce\xce\xaf\xffE\x95\xe4?'
p251
tp252
Rp253
ag49
(g53
S'\xa8\xbd\x9b\xe5\xe6\xc1\xeb?'
p254
tp255
Rp256
ag49
(g53
S'\xa8\xbd\x9b\xe5\xe6\xc1\xeb?'
p257
tp258
Rp259
ag49
(g53
S'\tC\xcb\xa4\x82k\xe1?'
p260
tp261
Rp262
ag49
(g53
S'\xbdV\xe2\xcc\xec\x9c\xe0?'
p263
tp264
Rp265
ag49
(g53
S'n\x14\x9dz\x0c\xa2\xe3?'
p266
tp267
Rp268
ag49
(g53
S'\xd7\xe1)\x8b\xcf\xbf\xeb?'
p269
tp270
Rp271
ag49
(g53
S'\xb6\xebC\x14\xa3g\xed?'
p272
tp273
Rp274
ag49
(g53
S'\xb8`\xf9]t\x83\xeb?'
p275
tp276
Rp277
ag49
(g53
S'\xd2\x97\xd9%\xf7"\xea?'
p278
tp279
Rp280
ag49
(g53
S'\xce\xce\xaf\xffE\x95\xe4?'
p281
tp282
Rp283
ag49
(g53
S'\xce\xce\xaf\xffE\x95\xe4?'
p284
tp285
Rp286
ag49
(g53
S'\tC\xcb\xa4\x82k\xe1?'
p287
tp288
Rp289
ag49
(g53
S'\xbdV\xe2\xcc\xec\x9c\xe0?'
p290
tp291
Rp292
ag49
(g53
S'\xce\xce\xaf\xffE\x95\xe4?'
p293
tp294
Rp295
ag49
(g53
S'\xe0\xeb\x97\xdd\xa4n\xe9?'
p296
tp297
Rp298
ag49
(g53
S'\xb8`\xf9]t\x83\xeb?'
p299
tp300
Rp301
ag49
(g53
S'\xbdV\xe2\xcc\xec\x9c\xe0?'
p302
tp303
Rp304
ag49
(g53
S'\xb6\xebC\x14\xa3g\xed?'
p305
tp306
Rp307
ag49
(g53
S'\xb6\xebC\x14\xa3g\xed?'
p308
tp309
Rp310
ag49
(g53
S'\xb6\xebC\x14\xa3g\xed?'
p311
tp312
Rp313
ag49
(g53
S'\xd2\x97\xd9%\xf7"\xea?'
p314
tp315
Rp316
ag49
(g53
S'\xce\xce\xaf\xffE\x95\xe4?'
p317
tp318
Rp319
ag49
(g53
S'\tC\xcb\xa4\x82k\xe1?'
p320
tp321
Rp322
ag49
(g53
S'\xbdV\xe2\xcc\xec\x9c\xe0?'
p323
tp324
Rp325
asS'sp'
p326
(lp327
(S'p0'
p328
I0
S'y'
p329
tp330
a(g328
I0
S'x'
p331
tp332
a(g328
I0
S't'
p333
tp334
a(g328
I0
g331
tp335
a(S'p1'
p336
I0
g331
tp337
a(g336
I0
g333
tp338
a(g336
I0
g329
tp339
a(S'p2'
p340
I0
g329
tp341
a(g340
I0
g331
tp342
a(g340
I0
g333
tp343
a(g340
I0
g333
tp344
a(g340
I0
g331
tp345
a(g336
I0
g331
tp346
a(g336
I0
g329
tp347
a(g328
I0
g329
tp348
ag332
ag337
ag338
a(g336
I0
g333
tp349
a(g336
I0
g333
tp350
ag339
ag341
a(g340
I0
g329
tp351
a(g340
I0
g329
tp352
a(g340
I0
g333
tp353
ag344
a(g340
F1.5707963267948966
g333
tp354
a(g340
F1.5707963267948966
g329
tp355
a(g340
F1.5707963267948966
g331
tp356
a(g336
F1.5707963267948966
g331
tp357
a(g336
F1.5707963267948966
g331
tp358
a(g336
F1.5707963267948966
g329
tp359
a(g340
F1.5707963267948966
g329
tp360
ag356
ag357
ag358
ag358
a(g336
F1.5707963267948966
g333
tp361
a(g336
F1.5707963267948966
g333
tp362
a(g336
F1.5707963267948966
g331
tp363
a(g336
F1.5707963267948966
g331
tp364
ag358
ag364
ag364
ag364
ag364
ag364
ag364
ag358
ag361
a(g336
F1.5707963267948966
g329
tp365
a(g336
F1.5707963267948966
g333
tp366
ag363
ag364
ag361
ag362
ag362
a(g336
F1.5707963267948966
g333
tp367
ag367
ag365
a(g328
F1.5707963267948966
g329
tp368
a(g328
F1.5707963267948966
g329
tp369
a(g328
F1.5707963267948966
g331
tp370
a(g328
F1.5707963267948966
g331
tp371
a(g328
F1.5707963267948966
g329
tp372
a(g328
F1.5707963267948966
g329
tp373
ag369
ag369
ag370
a(g336
F1.5707963267948966
g331
tp374
ag359
a(g336
F1.5707963267948966
g331
tp375
ag358
ag364
ag361
ag362
ag362
ag365
ag360
a(g340
F1.5707963267948966
g329
tp376
a(g340
F1.5707963267948966
g333
tp377
a(g340
I0
g333
tp378
ag354
a(g340
F1.5707963267948966
g333
tp379
ag379
ag379
ag355
ag376
ag356
a(S'p3'
p380
F1.5707963267948966
g331
tp381
asS's'
p382
(lp383
(g328
I0
g22
tp384
ag330
ag332
ag334
ag335
ag337
ag338
ag339
ag341
ag342
ag343
ag344
ag345
ag346
ag347
ag348
ag332
ag337
ag338
ag349
ag350
ag339
ag341
ag351
ag352
ag353
ag344
ag354
ag355
ag356
ag357
ag358
ag359
ag360
ag356
ag357
ag358
ag358
ag361
ag362
ag363
ag364
ag358
ag364
ag364
ag364
ag364
ag364
ag364
ag358
ag361
ag365
ag366
ag363
ag364
ag361
ag362
ag362
ag367
ag367
ag365
ag368
ag369
ag370
ag371
ag372
ag373
ag369
ag369
ag370
ag374
ag359
ag375
ag358
ag364
ag361
ag362
ag362
ag365
ag360
ag376
ag377
ag378
ag354
ag379
ag379
ag379
ag355
ag376
ag356
asS'ui'
p385
(lp386
S'hs'
p387
ag387
ag387
aS'hp'
p388
ag326
ag388
ag387
ag326
ag388
ag387
ag326
ag388
ag326
ag388
ag326
ag387
ag326
aS'ss'
p389
ag387
ag389
ag387
ag326
ag389
ag326
ag388
ag326
ag326
ag388
ag387
ag326
ag388
ag388
ag326
ag389
ag326
ag326
ag388
ag387
ag389
ag388
ag389
ag389
ag389
ag389
ag388
ag389
ag388
ag389
ag326
ag387
ag387
ag388
ag388
ag388
ag387
ag389
ag389
ag326
ag389
ag387
ag389
ag387
ag387
ag387
ag388
ag388
ag388
ag389
ag387
ag326
ag388
ag326
ag388
ag389
ag387
ag387
ag389
ag387
ag326
ag389
ag389
ag388
ag387
ag389
ag389
ag388
ag388
ag389
ag387
ag388
asS'um_before'
p390
(lp391
g389
ag387
ag387
ag388
ag326
ag387
ag387
ag326
ag387
ag387
ag389
ag388
ag389
ag388
ag389
ag387
ag326
ag387
ag326
ag389
ag387
ag326
ag389
ag326
ag388
ag389
ag326
ag387
ag387
ag389
ag326
ag388
ag326
ag387
ag389
ag326
ag326
ag387
ag389
ag388
ag389
ag326
ag389
ag389
ag389
ag389
ag389
ag389
ag326
ag387
ag387
ag388
ag388
ag389
ag387
ag389
ag389
ag326
ag326
ag387
ag389
ag326
ag387
ag389
ag388
ag389
ag326
ag326
ag387
ag326
ag388
ag387
ag326
ag389
ag387
ag389
ag389
ag387
ag326
ag389
ag388
ag389
ag326
ag326
ag326
ag326
ag387
ag389
ag387
ag326
asS'um_after'
p392
(lp393
g389
ag387
ag387
ag388
ag326
ag387
ag387
ag326
ag387
ag387
ag389
ag388
ag389
ag388
ag389
ag387
ag326
ag387
ag326
ag389
ag387
ag326
ag389
ag326
ag388
ag389
ag326
ag387
ag387
ag389
ag326
ag388
ag326
ag387
ag389
ag326
ag326
ag387
ag389
ag388
ag389
ag326
ag389
ag389
ag389
ag389
ag389
ag389
ag326
ag387
ag387
ag388
ag388
ag389
ag387
ag389
ag389
ag326
ag326
ag387
ag389
ag326
ag387
ag389
ag388
ag389
ag326
ag326
ag387
ag326
ag388
ag387
ag326
ag389
ag387
ag389
ag389
ag387
ag326
ag389
ag388
ag389
ag326
ag326
ag326
ag326
ag387
ag389
ag387
ag326
asS'is_normalized_entropy_less_than_threshold'
p394
(lp395
g49
(g50
(S'b1'
p396
I0
I1
tp397
Rp398
(I3
S'|'
p399
NNNI-1
I-1
I0
tp400
bS'\x00'
p401
tp402
Rp403
ag49
(g398
S'\x01'
p404
tp405
Rp406
ag403
ag403
ag406
ag403
ag406
ag406
ag403
ag406
ag403
ag403
ag403
ag403
ag403
ag406
ag406
ag403
ag403
ag403
ag406
ag406
ag403
ag403
ag403
ag403
ag406
ag403
ag406
ag403
ag403
ag403
ag406
ag406
ag403
ag403
ag403
ag403
ag403
ag403
ag403
ag403
ag403
ag403
ag403
ag403
ag403
ag403
ag403
ag403
ag406
ag403
ag403
ag403
ag403
ag403
ag403
ag403
ag403
ag406
ag403
ag403
ag406
ag403
ag403
ag403
ag403
ag403
ag406
ag406
ag403
ag403
ag403
ag403
ag403
ag403
ag403
ag406
ag406
ag403
ag403
ag403
ag406
ag403
ag403
ag403
ag403
ag403
ag406
ag406
asaa(lp407
S'index'
p408
aI11167
aatp409
Rp410
.