ccollections
OrderedDict
p0
((lp1
(lp2
S'combination_dict'
p3
ag0
((lp4
(lp5
S'r_to_g_config'
p6
aS'bl'
p7
aa(lp8
S'num_turns'
p9
aI3
aa(lp10
S'start_direction'
p11
acutils_ms
StartDirection
p12
(I0
tp13
Rp14
aa(lp15
S'assistance_type'
p16
acutils_ms
AssistanceType
p17
(I0
tp18
Rp19
aa(lp20
S'start_mode'
p21
aS'y'
p22
aa(lp23
S'ui_given_a_noise'
p24
aF0.5
aa(lp25
S'um_given_ui_noise'
p26
aF0.1
aa(lp27
S'entropy_threshold'
p28
aF0.7
aatp29
Rp30
aa(lp31
S'data'
p32
accollections
defaultdict
p33
(c__builtin__
list
p34
tp35
Rp36
S'a'
p37
(lp38
S'mode_l'
p39
aS'mode_r'
p40
ag39
aS'move_n'
p41
ag41
ag40
ag41
ag40
ag41
ag39
ag39
ag39
ag41
ag39
ag40
ag41
ag39
ag39
aS'move_p'
p42
ag39
ag41
asS'assistance_match_with_ground_truth'
p43
(lp44
I00
aI00
aI01
aI00
aI01
aI01
aI00
aI01
aI01
aI00
aI00
aI01
aI00
aI00
aI01
aI01
aI00
aI01
aI01
aI01
aI01
asS'is_u_intended_equals_um'
p45
(lp46
I01
aI01
aI01
aI01
aI01
aI01
aI01
aI01
aI01
aI01
aI01
aI01
aI01
aI01
aI01
aI01
aI01
aI01
aI01
aI01
aI01
asS'total_steps'
p47
I21
sS'normalized_h_of_p_ui_given_um'
p48
(lp49
cnumpy.core.multiarray
scalar
p50
(cnumpy
dtype
p51
(S'f8'
p52
I0
I1
tp53
Rp54
(I3
S'<'
p55
NNNI-1
I-1
I0
tp56
bS'\x02\xe5\xed\x9e\x8dh\xd3?'
p57
tp58
Rp59
ag50
(g54
S'2\xf9\xc1\xc1\xbc\xe9\xdc?'
p60
tp61
Rp62
ag50
(g54
S'\xce\x98D\x12t\x88\xbc?'
p63
tp64
Rp65
ag50
(g54
S'\x8a\xcf\x17\x9e\x80\xc4\xd8?'
p66
tp67
Rp68
ag50
(g54
S'|\x8a]\x85\x0f\xf9\xc3?'
p69
tp70
Rp71
ag50
(g54
S'\x10v\xa8\xe2\xe1\xe3\xbb?'
p72
tp73
Rp74
ag50
(g54
S'\x95s\x92\xbf\x93|\xe5?'
p75
tp76
Rp77
ag50
(g54
S'\x10v\xa8\xe2\xe1\xe3\xbb?'
p78
tp79
Rp80
ag50
(g54
S'|\x8a]\x85\x0f\xf9\xc3?'
p81
tp82
Rp83
ag50
(g54
S'\x85\xd3,h\x9a\x16\xeb?'
p84
tp85
Rp86
ag50
(g54
S'\x85\xd3,h\x9a\x16\xeb?'
p87
tp88
Rp89
ag50
(g54
S'\xce\x98D\x12t\x88\xbc?'
p90
tp91
Rp92
ag50
(g54
S'\xc8\x94\xe3Gz\x83\xd0?'
p93
tp94
Rp95
ag50
(g54
S'\x02\xe5\xed\x9e\x8dh\xd3?'
p96
tp97
Rp98
ag50
(g54
S'\x10v\xa8\xe2\xe1\xe3\xbb?'
p99
tp100
Rp101
ag50
(g54
S'|\x8a]\x85\x0f\xf9\xc3?'
p102
tp103
Rp104
ag50
(g54
S'\x86\x00\xd7q\xf8%\xe0?'
p105
tp106
Rp107
ag50
(g54
S'\xce\x98D\x12t\x88\xbc?'
p108
tp109
Rp110
ag50
(g54
S'\x1b\xb2E\xbb\xa9F\xb5?'
p111
tp112
Rp113
ag50
(g54
S'\xce\x98D\x12t\x88\xbc?'
p114
tp115
Rp116
ag50
(g54
S'|\x8a]\x85\x0f\xf9\xc3?'
p117
tp118
Rp119
asS'sp'
p120
(lp121
(S'p0'
p122
I0
S't'
p123
tp124
a(g122
I0
S'y'
p125
tp126
a(g122
I0
S'x'
p127
tp128
a(g122
I0
g127
tp129
a(S'p1'
p130
I0
g127
tp131
a(g130
I0
g125
tp132
a(g130
I0
g127
tp133
ag132
a(S'p2'
p134
I0
g125
tp135
a(g134
I0
g125
tp136
ag136
a(g134
I0
g127
tp137
a(g134
I0
g125
tp138
a(g134
I0
g123
tp139
a(g134
I0
g127
tp140
a(S'p3'
p141
I0
g127
tp142
a(g141
I0
g127
tp143
a(g141
I0
g123
tp144
a(g141
F1.5707963267948966
g123
tp145
a(g141
F1.5707963267948966
g125
tp146
a(S'p4'
p147
F1.5707963267948966
g125
tp148
asS's'
p149
(lp150
(g122
I0
g22
tp151
ag124
ag126
ag128
ag129
ag131
ag132
ag133
ag132
ag135
ag136
ag136
ag137
ag138
ag139
ag140
ag142
ag143
ag144
ag145
ag146
asS'ui'
p152
(lp153
S'hp'
p154
aS'hs'
p155
ag155
ag120
aS'ss'
p156
ag154
ag155
ag154
ag156
ag155
ag120
ag155
ag154
ag154
ag154
ag156
ag156
ag155
ag120
ag155
ag156
asS'um_before'
p157
(lp158
g154
ag155
ag155
ag120
ag156
ag154
ag155
ag154
ag156
ag120
ag120
ag155
ag154
ag154
ag154
ag156
ag156
ag155
ag120
ag155
ag156
asS'um_after'
p159
(lp160
g154
ag155
ag155
ag120
ag156
ag154
ag155
ag154
ag156
ag120
ag120
ag155
ag154
ag154
ag154
ag156
ag156
ag155
ag120
ag155
ag156
asS'is_normalized_entropy_less_than_threshold'
p161
(lp162
g50
(g51
(S'b1'
p163
I0
I1
tp164
Rp165
(I3
S'|'
p166
NNNI-1
I-1
I0
tp167
bS'\x01'
p168
tp169
Rp170
ag170
ag170
ag170
ag170
ag170
ag170
ag170
ag170
ag50
(g165
S'\x00'
p171
tp172
Rp173
ag173
ag170
ag170
ag170
ag170
ag170
ag170
ag170
ag170
ag170
ag170
asaa(lp174
S'index'
p175
aI78028
aatp176
Rp177
.