ccollections
OrderedDict
p0
((lp1
(lp2
S'combination_dict'
p3
ag0
((lp4
(lp5
S'r_to_g_config'
p6
aS'br'
p7
aa(lp8
S'num_turns'
p9
aI3
aa(lp10
S'start_direction'
p11
acutils_ms
StartDirection
p12
(I1
tp13
Rp14
aa(lp15
S'assistance_type'
p16
acutils_ms
AssistanceType
p17
(I1
tp18
Rp19
aa(lp20
S'start_mode'
p21
aS't'
p22
aa(lp23
S'ui_given_a_noise'
p24
aF0.5
aa(lp25
S'um_given_ui_noise'
p26
aF0.7
aa(lp27
S'entropy_threshold'
p28
aF0.7
aatp29
Rp30
aa(lp31
S'data'
p32
accollections
defaultdict
p33
(c__builtin__
list
p34
tp35
Rp36
S'a'
p37
(lp38
S'mode_l'
p39
aS'mode_r'
p40
aS'move_n'
p41
ag39
ag39
ag39
ag40
aS'move_p'
p42
ag40
ag40
ag41
ag40
ag41
ag41
ag39
ag39
ag41
ag41
ag39
ag39
ag39
ag42
ag40
ag40
ag40
ag42
ag40
ag41
ag41
ag41
ag39
ag39
ag39
ag39
ag39
ag39
ag42
ag40
ag41
ag39
ag39
ag39
ag40
ag40
ag42
ag40
ag40
ag41
ag40
ag41
ag39
ag39
ag42
ag40
ag41
ag39
ag39
ag42
ag40
ag40
ag40
ag42
ag40
ag41
ag39
ag39
ag39
ag40
ag42
ag40
ag40
ag42
ag40
ag40
ag41
ag39
ag39
ag41
ag39
ag40
ag42
ag40
ag40
ag42
ag40
ag40
ag42
ag40
ag41
ag39
ag41
ag39
ag39
ag39
ag39
ag42
ag40
ag42
ag40
ag41
ag40
ag42
ag40
ag42
asS'assistance_match_with_ground_truth'
p43
(lp44
I00
aI01
aI01
aI00
aI00
aI00
aI01
aI00
aI00
aI01
aI00
aI01
aI00
aI00
aI00
aI01
aI00
aI01
aI00
aI00
aI01
aI00
aI00
aI00
aI01
aI00
aI01
aI00
aI00
aI01
aI00
aI00
aI00
aI00
aI00
aI01
aI00
aI01
aI01
aI00
aI00
aI00
aI00
aI01
aI00
aI00
aI01
aI00
aI01
aI01
aI00
aI01
aI01
aI01
aI00
aI00
aI01
aI00
aI00
aI00
aI01
aI00
aI01
aI01
aI00
aI00
aI00
aI01
aI00
aI00
aI01
aI00
aI00
aI01
aI00
aI00
aI01
aI01
aI00
aI01
aI00
aI00
aI01
aI00
aI00
aI01
aI01
aI01
aI00
aI01
aI00
aI00
aI00
aI00
aI01
aI00
aI01
aI01
aI01
aI01
aI01
aI01
aI01
aI01
asS'is_u_intended_equals_um'
p45
(lp46
I00
aI00
aI01
aI01
aI00
aI00
aI00
aI00
aI00
aI00
aI01
aI00
aI00
aI01
aI00
aI01
aI00
aI01
aI01
aI00
aI01
aI00
aI00
aI00
aI00
aI00
aI00
aI00
aI00
aI01
aI00
aI00
aI00
aI00
aI00
aI01
aI00
aI01
aI01
aI00
aI01
aI00
aI00
aI00
aI00
aI00
aI00
aI01
aI01
aI01
aI01
aI01
aI01
aI00
aI00
aI00
aI01
aI00
aI00
aI00
aI01
aI00
aI00
aI01
aI01
aI00
aI00
aI00
aI00
aI00
aI00
aI00
aI00
aI01
aI01
aI00
aI01
aI01
aI00
aI00
aI00
aI00
aI01
aI00
aI00
aI01
aI00
aI00
aI01
aI01
aI00
aI00
aI01
aI00
aI01
aI00
aI01
aI01
aI00
aI01
aI00
aI01
aI00
aI00
asS'total_steps'
p47
I104
sS'normalized_h_of_p_ui_given_um'
p48
(lp49
cnumpy.core.multiarray
scalar
p50
(cnumpy
dtype
p51
(S'f8'
p52
I0
I1
tp53
Rp54
(I3
S'<'
p55
NNNI-1
I-1
I0
tp56
bS'J\x1a$\xb5\x9b\x0f\xeb?'
p57
tp58
Rp59
ag50
(g54
S'4\xb2\x04W\xfe\x92\xdd?'
p60
tp61
Rp62
ag50
(g54
S'\x05\x8e\xbf\xcc!\xff\xe7?'
p63
tp64
Rp65
ag50
(g54
S'\x9aJ\t\x01\x8dA\xe4?'
p66
tp67
Rp68
ag50
(g54
S'n1F\x8a\xf6L\xe8?'
p69
tp70
Rp71
ag50
(g54
S'J\x1a$\xb5\x9b\x0f\xeb?'
p72
tp73
Rp74
ag50
(g54
S'4\xb2\x04W\xfe\x92\xdd?'
p75
tp76
Rp77
ag50
(g54
S"B9\x87'>*\xed?"
p78
tp79
Rp80
ag50
(g54
S'\xe6V\\\xae\xfc!\xe7?'
p81
tp82
Rp83
ag50
(g54
S'\x95\x8e*\x96\xf0^\xe5?'
p84
tp85
Rp86
ag50
(g54
S'|Z\x1a\xe7\x81\x9f\xeb?'
p87
tp88
Rp89
ag50
(g54
S'4\xb2\x04W\xfe\x92\xdd?'
p90
tp91
Rp92
ag50
(g54
S'\x12bP\x8f\x84\x87\xe6?'
p93
tp94
Rp95
ag50
(g54
S'\xee\xb4\xeb\xa4\x8d\xaf\xed?'
p96
tp97
Rp98
ag50
(g54
S'n1F\x8a\xf6L\xe8?'
p99
tp100
Rp101
ag50
(g54
S'\xc4\x97\x9bXT\xcb\xe1?'
p102
tp103
Rp104
ag50
(g54
S'\x12bP\x8f\x84\x87\xe6?'
p105
tp106
Rp107
ag50
(g54
S'\x05\x8e\xbf\xcc!\xff\xe7?'
p108
tp109
Rp110
ag50
(g54
S'\x9aJ\t\x01\x8dA\xe4?'
p111
tp112
Rp113
ag50
(g54
S'n1F\x8a\xf6L\xe8?'
p114
tp115
Rp116
ag50
(g54
S'\xc4\x97\x9bXT\xcb\xe1?'
p117
tp118
Rp119
ag50
(g54
S'\xba#DNf\xd8\xee?'
p120
tp121
Rp122
ag50
(g54
S'\xe6V\\\xae\xfc!\xe7?'
p123
tp124
Rp125
ag50
(g54
S'\xe6V\\\xae\xfc!\xe7?'
p126
tp127
Rp128
ag50
(g54
S'4\xb2\x04W\xfe\x92\xdd?'
p129
tp130
Rp131
ag50
(g54
S"B9\x87'>*\xed?"
p132
tp133
Rp134
ag50
(g54
S'4\xb2\x04W\xfe\x92\xdd?'
p135
tp136
Rp137
ag50
(g54
S'\x12bP\x8f\x84\x87\xe6?'
p138
tp139
Rp140
ag50
(g54
S'\x12bP\x8f\x84\x87\xe6?'
p141
tp142
Rp143
ag50
(g54
S'\x05\x8e\xbf\xcc!\xff\xe7?'
p144
tp145
Rp146
ag50
(g54
S'n1F\x8a\xf6L\xe8?'
p147
tp148
Rp149
ag50
(g54
S'n1F\x8a\xf6L\xe8?'
p150
tp151
Rp152
ag50
(g54
S'n1F\x8a\xf6L\xe8?'
p153
tp154
Rp155
ag50
(g54
S'n1F\x8a\xf6L\xe8?'
p156
tp157
Rp158
ag50
(g54
S'n1F\x8a\xf6L\xe8?'
p159
tp160
Rp161
ag50
(g54
S'\xc4\x97\x9bXT\xcb\xe1?'
p162
tp163
Rp164
ag50
(g54
S"B9\x87'>*\xed?"
p165
tp166
Rp167
ag50
(g54
S'\xdc\x0e88\xca4\xcb?'
p168
tp169
Rp170
ag50
(g54
S'\x05\x8e\xbf\xcc!\xff\xe7?'
p171
tp172
Rp173
ag50
(g54
S'n1F\x8a\xf6L\xe8?'
p174
tp175
Rp176
ag50
(g54
S'\x9aJ\t\x01\x8dA\xe4?'
p177
tp178
Rp179
ag50
(g54
S'J\x1a$\xb5\x9b\x0f\xeb?'
p180
tp181
Rp182
ag50
(g54
S'\xe6V\\\xae\xfc!\xe7?'
p183
tp184
Rp185
ag50
(g54
S'\x95\x8e*\x96\xf0^\xe5?'
p186
tp187
Rp188
ag50
(g54
S"B9\x87'>*\xed?"
p189
tp190
Rp191
ag50
(g54
S'\xe6V\\\xae\xfc!\xe7?'
p192
tp193
Rp194
ag50
(g54
S'\x95\x8e*\x96\xf0^\xe5?'
p195
tp196
Rp197
ag50
(g54
S'|Z\x1a\xe7\x81\x9f\xeb?'
p198
tp199
Rp200
ag50
(g54
S'\xdc\x0e88\xca4\xcb?'
p201
tp202
Rp203
ag50
(g54
S'\x05\x8e\xbf\xcc!\xff\xe7?'
p204
tp205
Rp206
ag50
(g54
S'\x9aJ\t\x01\x8dA\xe4?'
p207
tp208
Rp209
ag50
(g54
S'\xc4\x97\x9bXT\xcb\xe1?'
p210
tp211
Rp212
ag50
(g54
S'\xe6\xfa\xbc\xcc\xa9A\xe1?'
p213
tp214
Rp215
ag50
(g54
S'\x95\x8e*\x96\xf0^\xe5?'
p216
tp217
Rp218
ag50
(g54
S'\x12bP\x8f\x84\x87\xe6?'
p219
tp220
Rp221
ag50
(g54
S'n1F\x8a\xf6L\xe8?'
p222
tp223
Rp224
ag50
(g54
S'\xc4\x97\x9bXT\xcb\xe1?'
p225
tp226
Rp227
ag50
(g54
S'\xba#DNf\xd8\xee?'
p228
tp229
Rp230
ag50
(g54
S'\xe6V\\\xae\xfc!\xe7?'
p231
tp232
Rp233
ag50
(g54
S'\xe6V\\\xae\xfc!\xe7?'
p234
tp235
Rp236
ag50
(g54
S'\xdc\x0e88\xca4\xcb?'
p237
tp238
Rp239
ag50
(g54
S"B9\x87'>*\xed?"
p240
tp241
Rp242
ag50
(g54
S'\x95\x8e*\x96\xf0^\xe5?'
p243
tp244
Rp245
ag50
(g54
S'\x05\x8e\xbf\xcc!\xff\xe7?'
p246
tp247
Rp248
ag50
(g54
S'\x9aJ\t\x01\x8dA\xe4?'
p249
tp250
Rp251
ag50
(g54
S'n1F\x8a\xf6L\xe8?'
p252
tp253
Rp254
ag50
(g54
S'J\x1a$\xb5\x9b\x0f\xeb?'
p255
tp256
Rp257
ag50
(g54
S'\x95\x8e*\x96\xf0^\xe5?'
p258
tp259
Rp260
ag50
(g54
S'\xba#DNf\xd8\xee?'
p261
tp262
Rp263
ag50
(g54
S'\xe6V\\\xae\xfc!\xe7?'
p264
tp265
Rp266
ag50
(g54
S'4\xb2\x04W\xfe\x92\xdd?'
p267
tp268
Rp269
ag50
(g54
S"B9\x87'>*\xed?"
p270
tp271
Rp272
ag50
(g54
S'\xe6V\\\xae\xfc!\xe7?'
p273
tp274
Rp275
ag50
(g54
S'\xdc\x0e88\xca4\xcb?'
p276
tp277
Rp278
ag50
(g54
S'\xee\xb4\xeb\xa4\x8d\xaf\xed?'
p279
tp280
Rp281
ag50
(g54
S'n1F\x8a\xf6L\xe8?'
p282
tp283
Rp284
ag50
(g54
S'\xc4\x97\x9bXT\xcb\xe1?'
p285
tp286
Rp287
ag50
(g54
S'\x05\x8e\xbf\xcc!\xff\xe7?'
p288
tp289
Rp290
ag50
(g54
S'J\x1a$\xb5\x9b\x0f\xeb?'
p291
tp292
Rp293
ag50
(g54
S'4\xb2\x04W\xfe\x92\xdd?'
p294
tp295
Rp296
ag50
(g54
S'\xba#DNf\xd8\xee?'
p297
tp298
Rp299
ag50
(g54
S'\xe6V\\\xae\xfc!\xe7?'
p300
tp301
Rp302
ag50
(g54
S'\xdc\x0e88\xca4\xcb?'
p303
tp304
Rp305
ag50
(g54
S'\xba#DNf\xd8\xee?'
p306
tp307
Rp308
ag50
(g54
S'\xe6V\\\xae\xfc!\xe7?'
p309
tp310
Rp311
ag50
(g54
S'\xdc\x0e88\xca4\xcb?'
p312
tp313
Rp314
ag50
(g54
S'E\xa63\xef~8\xe4?'
p315
tp316
Rp317
ag50
(g54
S'4\xb2\x04W\xfe\x92\xdd?'
p318
tp319
Rp320
ag50
(g54
S'\xee\xb4\xeb\xa4\x8d\xaf\xed?'
p321
tp322
Rp323
ag50
(g54
S'\xc4\x97\x9bXT\xcb\xe1?'
p324
tp325
Rp326
ag50
(g54
S'\x12bP\x8f\x84\x87\xe6?'
p327
tp328
Rp329
ag50
(g54
S'n1F\x8a\xf6L\xe8?'
p330
tp331
Rp332
ag50
(g54
S'\x9aJ\t\x01\x8dA\xe4?'
p333
tp334
Rp335
ag50
(g54
S'n1F\x8a\xf6L\xe8?'
p336
tp337
Rp338
ag50
(g54
S'\xc4\x97\x9bXT\xcb\xe1?'
p339
tp340
Rp341
ag50
(g54
S'\xba#DNf\xd8\xee?'
p342
tp343
Rp344
ag50
(g54
S'\xdc\x0e88\xca4\xcb?'
p345
tp346
Rp347
ag50
(g54
S'\xe6\xfa\xbc\xcc\xa9A\xe1?'
p348
tp349
Rp350
ag50
(g54
S'\x95\x8e*\x96\xf0^\xe5?'
p351
tp352
Rp353
ag50
(g54
S'\x05\x8e\xbf\xcc!\xff\xe7?'
p354
tp355
Rp356
ag50
(g54
S'\x95\x8e*\x96\xf0^\xe5?'
p357
tp358
Rp359
ag50
(g54
S'\xe6\xfa\xbc\xcc\xa9A\xe1?'
p360
tp361
Rp362
ag50
(g54
S'4\xb2\x04W\xfe\x92\xdd?'
p363
tp364
Rp365
ag50
(g54
S'E\xa63\xef~8\xe4?'
p366
tp367
Rp368
asS'sp'
p369
(lp370
(S'p0'
p371
I0
S'x'
p372
tp373
a(g371
I0
S'y'
p374
tp375
a(S'p1'
p376
I0
g374
tp377
a(g376
I0
g374
tp378
a(g376
I0
g374
tp379
a(g376
I0
S't'
p380
tp381
a(g376
I0
g372
tp382
a(g371
I0
g372
tp383
a(g371
I0
g372
tp384
ag375
a(g371
I0
g372
tp385
ag375
a(g371
I0
g374
tp386
a(g371
I0
g380
tp387
a(g371
I0
g380
tp388
a(g371
I0
g374
tp389
ag386
ag377
ag378
ag379
a(g376
I0
g372
tp390
a(g376
I0
g380
tp391
a(g376
I0
g380
tp392
ag392
ag382
ag383
ag375
ag386
ag386
ag377
ag379
ag379
ag379
ag379
ag379
ag390
ag383
ag375
ag377
ag379
ag378
ag381
ag392
ag382
ag383
ag384
ag375
ag385
ag375
ag377
ag378
ag390
a(S'p2'
p393
I0
g372
tp394
a(g393
I0
g374
tp395
a(g376
I0
g374
tp396
ag379
ag390
ag391
ag392
ag392
ag382
ag383
ag375
ag377
ag378
ag379
ag381
ag382
ag391
ag392
ag382
ag383
ag384
ag375
ag387
ag388
ag389
ag377
ag381
ag382
ag391
ag392
ag382
ag391
ag392
ag382
ag394
ag395
a(g393
I0
g380
tp397
a(g393
I0
g374
tp398
ag396
ag379
ag378
ag379
ag390
ag391
ag382
ag394
ag395
a(S'p3'
p399
I0
g374
tp400
a(g399
I0
g380
tp401
a(g399
F1.5707963267948966
g380
tp402
a(g399
F1.5707963267948966
g372
tp403
a(S'p4'
p404
F1.5707963267948966
g372
tp405
asS's'
p406
(lp407
(g371
I0
g22
tp408
ag373
ag375
ag377
ag378
ag379
ag381
ag382
ag383
ag384
ag375
ag385
ag375
ag386
ag387
ag388
ag389
ag386
ag377
ag378
ag379
ag390
ag391
ag392
ag392
ag382
ag383
ag375
ag386
ag386
ag377
ag379
ag379
ag379
ag379
ag379
ag390
ag383
ag375
ag377
ag379
ag378
ag381
ag392
ag382
ag383
ag384
ag375
ag385
ag375
ag377
ag378
ag390
ag394
ag395
ag396
ag379
ag390
ag391
ag392
ag392
ag382
ag383
ag375
ag377
ag378
ag379
ag381
ag382
ag391
ag392
ag382
ag383
ag384
ag375
ag387
ag388
ag389
ag377
ag381
ag382
ag391
ag392
ag382
ag391
ag392
ag382
ag394
ag395
ag397
ag398
ag396
ag379
ag378
ag379
ag390
ag391
ag382
ag394
ag395
ag400
ag401
ag402
ag403
asS'ui'
p409
(lp410
g369
aS'hp'
p411
aS'hs'
p412
ag369
aS'ss'
p413
ag369
ag411
ag412
ag413
ag411
ag412
ag411
ag413
ag413
ag369
ag369
ag413
ag413
ag369
ag413
ag412
ag369
ag411
ag411
ag411
ag369
ag413
ag411
ag369
ag369
ag412
ag369
ag412
ag412
ag412
ag411
ag411
ag411
ag412
ag412
ag369
ag412
ag411
ag411
ag369
ag413
ag412
ag412
ag411
ag413
ag369
ag412
ag369
ag413
ag369
ag412
ag369
ag369
ag411
ag411
ag411
ag369
ag411
ag411
ag369
ag413
ag412
ag411
ag412
ag411
ag411
ag369
ag411
ag411
ag369
ag369
ag412
ag413
ag369
ag413
ag411
ag413
ag411
ag369
ag411
ag411
ag369
ag411
ag369
ag369
ag413
ag413
ag413
ag412
ag412
ag369
ag411
ag369
ag413
ag369
ag411
ag369
ag411
ag369
asS'um_before'
p414
(lp415
g411
ag369
ag413
ag369
ag413
ag411
ag369
ag413
ag413
ag412
ag412
ag369
ag369
ag411
ag413
ag412
ag369
ag413
ag369
ag413
ag412
ag412
ag413
ag413
ag369
ag413
ag369
ag369
ag369
ag413
ag413
ag413
ag413
ag413
ag413
ag412
ag413
ag411
ag413
ag413
ag369
ag411
ag413
ag412
ag413
ag413
ag412
ag412
ag411
ag413
ag369
ag412
ag369
ag412
ag369
ag413
ag412
ag412
ag413
ag413
ag411
ag413
ag412
ag413
ag369
ag413
ag411
ag412
ag412
ag413
ag369
ag413
ag413
ag411
ag411
ag413
ag412
ag413
ag411
ag369
ag412
ag413
ag411
ag412
ag413
ag411
ag411
ag369
ag411
ag412
ag369
ag413
ag369
ag413
ag412
ag412
ag411
ag369
ag412
ag413
ag412
ag369
ag369
ag411
asS'um_after'
p416
(lp417
g411
ag411
ag413
ag369
ag413
ag411
ag411
ag413
ag413
ag411
ag412
ag411
ag369
ag411
ag413
ag412
ag369
ag413
ag369
ag413
ag412
ag412
ag413
ag413
ag411
ag413
ag411
ag369
ag369
ag413
ag413
ag413
ag413
ag413
ag413
ag412
ag413
ag411
ag413
ag413
ag369
ag411
ag413
ag411
ag413
ag413
ag411
ag412
ag411
ag413
ag369
ag412
ag369
ag411
ag369
ag413
ag412
ag412
ag413
ag413
ag411
ag413
ag411
ag413
ag369
ag413
ag411
ag411
ag412
ag413
ag411
ag413
ag413
ag411
ag411
ag413
ag412
ag413
ag411
ag411
ag412
ag413
ag411
ag412
ag413
ag411
ag369
ag411
ag411
ag412
ag369
ag413
ag369
ag413
ag412
ag412
ag411
ag369
ag411
ag413
ag411
ag369
ag411
ag369
asS'is_normalized_entropy_less_than_threshold'
p418
(lp419
g50
(g51
(S'b1'
p420
I0
I1
tp421
Rp422
(I3
S'|'
p423
NNNI-1
I-1
I0
tp424
bS'\x00'
p425
tp426
Rp427
ag50
(g422
S'\x01'
p428
tp429
Rp430
ag427
ag430
ag427
ag427
ag430
ag427
ag427
ag430
ag427
ag430
ag427
ag427
ag427
ag430
ag427
ag427
ag430
ag427
ag430
ag427
ag427
ag427
ag430
ag427
ag430
ag427
ag427
ag427
ag427
ag427
ag427
ag427
ag427
ag430
ag427
ag430
ag427
ag427
ag430
ag427
ag427
ag430
ag427
ag427
ag430
ag427
ag430
ag427
ag430
ag430
ag430
ag430
ag427
ag427
ag430
ag427
ag427
ag427
ag430
ag427
ag430
ag427
ag430
ag427
ag427
ag430
ag427
ag427
ag430
ag427
ag427
ag430
ag427
ag427
ag430
ag427
ag427
ag430
ag427
ag427
ag430
ag427
ag427
ag430
ag430
ag430
ag427
ag430
ag427
ag427
ag430
ag427
ag430
ag427
ag430
ag430
ag430
ag427
ag430
ag430
ag430
ag430
asaa(lp431
S'index'
p432
aI113378
aatp433
Rp434
.