ccollections
OrderedDict
p0
((lp1
(lp2
S'combination_dict'
p3
ag0
((lp4
(lp5
S'r_to_g_config'
p6
aS'br'
p7
aa(lp8
S'num_turns'
p9
aI3
aa(lp10
S'start_direction'
p11
acutils_ms
StartDirection
p12
(I1
tp13
Rp14
aa(lp15
S'assistance_type'
p16
acutils_ms
AssistanceType
p17
(I2
tp18
Rp19
aa(lp20
S'start_mode'
p21
aS'x'
p22
aa(lp23
S'ui_given_a_noise'
p24
aF0.5
aa(lp25
S'um_given_ui_noise'
p26
aF0.7
aa(lp27
S'entropy_threshold'
p28
aF0.6
aatp29
Rp30
aa(lp31
S'data'
p32
accollections
defaultdict
p33
(c__builtin__
list
p34
tp35
Rp36
S'a'
p37
(lp38
S'mode_r'
p39
aS'move_n'
p40
ag39
aS'mode_l'
p41
ag41
ag39
ag39
ag39
ag39
ag41
ag41
ag40
ag39
ag41
ag41
ag41
ag40
ag40
ag39
ag39
ag40
ag41
ag41
aS'move_p'
p42
ag41
ag39
ag39
ag39
ag42
ag39
ag39
ag39
ag39
ag40
ag39
ag39
ag40
ag39
ag42
ag41
ag39
ag39
ag39
ag41
ag40
ag41
ag40
ag41
ag41
ag42
ag39
ag39
ag40
ag40
ag41
ag41
ag39
ag40
ag41
ag42
ag41
ag39
ag39
ag39
ag39
ag39
ag39
ag42
ag39
ag40
ag41
ag39
ag39
ag42
ag41
ag41
ag41
ag41
ag41
ag41
ag41
ag42
ag41
ag41
ag42
ag39
ag40
ag40
ag41
ag41
ag41
ag40
ag39
ag39
ag40
ag39
ag40
ag41
ag41
ag41
ag40
ag41
ag41
ag41
ag41
ag39
ag39
ag41
ag41
ag42
ag39
ag39
ag39
ag39
ag39
ag42
ag39
ag42
ag41
ag42
ag39
ag39
ag40
ag41
ag41
ag41
ag41
ag41
ag42
ag39
ag39
ag41
ag41
ag40
ag39
ag42
ag41
ag39
ag41
ag42
ag39
ag39
ag39
ag42
asS'assistance_match_with_ground_truth'
p43
(lp44
I01
aI00
aI00
aI00
aI00
aI00
aI00
aI00
aI00
aI00
aI01
aI00
aI00
aI00
aI00
aI01
aI00
aI00
aI00
aI01
aI01
aI00
aI01
aI00
aI00
aI00
aI00
aI01
aI01
aI00
aI00
aI00
aI01
aI00
aI00
aI01
aI01
aI01
aI00
aI00
aI00
aI00
aI00
aI01
aI00
aI01
aI00
aI00
aI01
aI00
aI00
aI01
aI00
aI00
aI00
aI00
aI01
aI01
aI01
aI00
aI00
aI00
aI00
aI00
aI00
aI00
aI01
aI01
aI01
aI00
aI00
aI00
aI01
aI00
aI00
aI00
aI00
aI00
aI00
aI00
aI01
aI00
aI00
aI01
aI00
aI01
aI00
aI00
aI00
aI00
aI01
aI00
aI00
aI01
aI00
aI01
aI00
aI00
aI00
aI01
aI01
aI00
aI00
aI00
aI00
aI00
aI00
aI00
aI01
aI00
aI00
aI00
aI00
aI00
aI01
aI00
aI01
aI00
aI01
aI00
aI00
aI01
aI01
aI00
aI00
aI00
aI00
aI01
aI01
aI00
aI00
aI00
aI01
aI01
aI01
aI00
aI00
aI00
aI01
aI01
aI00
aI00
aI01
aI01
asS'is_u_intended_equals_um'
p45
(lp46
I01
aI01
aI01
aI01
aI01
aI01
aI01
aI01
aI01
aI01
aI01
aI01
aI01
aI01
aI01
aI01
aI01
aI01
aI01
aI01
aI01
aI01
aI01
aI01
aI01
aI01
aI01
aI01
aI01
aI01
aI01
aI01
aI01
aI01
aI01
aI01
aI01
aI01
aI01
aI01
aI01
aI01
aI01
aI01
aI01
aI01
aI01
aI01
aI01
aI01
aI01
aI01
aI01
aI01
aI01
aI01
aI01
aI01
aI01
aI01
aI01
aI01
aI01
aI01
aI01
aI01
aI01
aI01
aI01
aI01
aI01
aI01
aI01
aI01
aI01
aI01
aI01
aI01
aI01
aI01
aI01
aI01
aI01
aI01
aI01
aI01
aI01
aI01
aI01
aI01
aI01
aI01
aI01
aI01
aI01
aI01
aI01
aI01
aI01
aI01
aI01
aI01
aI01
aI01
aI01
aI01
aI01
aI01
aI01
aI01
aI01
aI01
aI01
aI01
aI01
aI01
aI01
aI01
aI01
aI01
aI01
aI01
aI01
aI01
aI01
aI01
aI01
aI01
aI01
aI01
aI01
aI01
aI01
aI01
aI01
aI01
aI01
aI01
aI01
aI01
aI01
aI01
aI01
aI01
asS'total_steps'
p47
I144
sS'normalized_h_of_p_ui_given_um'
p48
(lp49
cnumpy.core.multiarray
scalar
p50
(cnumpy
dtype
p51
(S'f8'
p52
I0
I1
tp53
Rp54
(I3
S'<'
p55
NNNI-1
I-1
I0
tp56
bS'[Dj\xb2fs\xd9?'
p57
tp58
Rp59
ag59
ag59
ag59
ag59
ag59
ag59
ag59
ag59
ag59
ag59
ag59
ag59
ag59
ag59
ag59
ag59
ag59
ag59
ag59
ag59
ag59
ag59
ag59
ag59
ag59
ag59
ag59
ag59
ag59
ag59
ag59
ag59
ag59
ag59
ag59
ag59
ag59
ag59
ag59
ag59
ag59
ag59
ag59
ag59
ag59
ag59
ag59
ag59
ag59
ag59
ag59
ag59
ag59
ag59
ag59
ag59
ag59
ag59
ag59
ag59
ag59
ag59
ag59
ag59
ag59
ag59
ag59
ag59
ag59
ag59
ag59
ag59
ag59
ag59
ag59
ag59
ag59
ag59
ag59
ag59
ag59
ag59
ag59
ag59
ag59
ag59
ag59
ag59
ag59
ag59
ag59
ag59
ag59
ag59
ag59
ag59
ag59
ag59
ag59
ag59
ag59
ag59
ag59
ag59
ag59
ag59
ag59
ag59
ag59
ag59
ag59
ag59
ag59
ag59
ag59
ag59
ag59
ag59
ag59
ag59
ag59
ag59
ag59
ag59
ag59
ag59
ag59
ag59
ag59
ag59
ag59
ag59
ag59
ag59
ag59
ag59
ag59
ag59
ag59
ag59
ag59
ag59
ag59
asS'sp'
p60
(lp61
(S'p0'
p62
I0
S'y'
p63
tp64
a(g62
I0
S'x'
p65
tp66
a(g62
I0
S't'
p67
tp68
a(g62
I0
g67
tp69
a(g62
I0
g65
tp70
a(g62
I0
g65
tp71
a(g62
I0
g65
tp72
ag71
ag68
a(g62
I0
g67
tp73
a(g62
I0
g63
tp74
ag66
ag68
ag73
ag69
ag74
a(g62
I0
g63
tp75
ag66
ag71
ag64
a(S'p1'
p76
I0
g63
tp77
a(g76
I0
g63
tp78
a(g76
I0
g65
tp79
a(g76
I0
g63
tp80
a(g76
I0
g67
tp81
a(g76
I0
g67
tp82
a(g76
I0
g67
tp83
a(g76
I0
g65
tp84
a(S'p2'
p85
I0
g65
tp86
a(g85
I0
g65
tp87
a(g85
I0
g65
tp88
ag88
a(g85
I0
g63
tp89
a(g85
I0
g65
tp90
ag88
ag89
a(S'p3'
p91
I0
g63
tp92
a(g91
I0
g67
tp93
a(g91
I0
g65
tp94
a(g85
I0
g65
tp95
ag87
ag87
a(g85
I0
g67
tp96
a(g85
I0
g63
tp97
a(g85
I0
g67
tp98
ag97
a(g76
I0
g63
tp99
ag78
ag79
a(g62
I0
g65
tp100
ag71
ag64
ag75
a(g62
I0
g67
tp101
ag73
ag70
ag64
ag77
ag79
ag80
ag81
ag83
ag83
ag82
ag83
ag83
ag84
ag86
ag89
ag99
ag81
ag82
ag84
ag80
ag78
ag78
a(g76
I0
g63
tp102
ag78
ag78
ag102
ag79
ag80
ag102
ag79
ag100
ag64
ag75
ag101
ag73
ag69
ag74
ag66
ag71
ag64
ag66
ag64
ag101
ag69
ag73
ag74
ag77
ag102
ag78
ag78
ag81
ag83
a(g76
I0
g63
tp103
ag78
ag79
a(g76
I0
g67
tp104
ag83
ag83
ag83
ag82
ag84
ag104
ag84
ag80
ag79
ag100
ag72
ag64
ag77
ag102
ag102
ag102
ag102
ag79
ag86
ag88
ag96
a(g85
I0
g67
tp105
ag97
ag92
ag93
ag94
a(g91
I0
g63
tp106
a(g91
I0
g65
tp107
a(g91
I0
g67
tp108
a(g91
F1.5707963267948966
g67
tp109
a(g91
F1.5707963267948966
g67
tp110
ag110
a(g91
F1.5707963267948966
g65
tp111
a(S'p4'
p112
F1.5707963267948966
g65
tp113
asS's'
p114
(lp115
(g62
I0
g22
tp116
ag64
ag66
ag68
ag69
ag70
ag71
ag72
ag71
ag68
ag73
ag74
ag66
ag68
ag73
ag69
ag74
ag75
ag66
ag71
ag64
ag77
ag78
ag79
ag80
ag81
ag82
ag83
ag84
ag86
ag87
ag88
ag88
ag89
ag90
ag88
ag89
ag92
ag93
ag94
ag95
ag87
ag87
ag96
ag97
ag98
ag97
ag99
ag78
ag79
ag100
ag71
ag64
ag75
ag101
ag73
ag70
ag64
ag77
ag79
ag80
ag81
ag83
ag83
ag82
ag83
ag83
ag84
ag86
ag89
ag99
ag81
ag82
ag84
ag80
ag78
ag78
ag102
ag78
ag78
ag102
ag79
ag80
ag102
ag79
ag100
ag64
ag75
ag101
ag73
ag69
ag74
ag66
ag71
ag64
ag66
ag64
ag101
ag69
ag73
ag74
ag77
ag102
ag78
ag78
ag81
ag83
ag103
ag78
ag79
ag104
ag83
ag83
ag83
ag82
ag84
ag104
ag84
ag80
ag79
ag100
ag72
ag64
ag77
ag102
ag102
ag102
ag102
ag79
ag86
ag88
ag96
ag105
ag97
ag92
ag93
ag94
ag106
ag107
ag108
ag109
ag110
ag110
ag111
asS'ui'
p117
(lp118
S'hp'
p119
ag119
ag119
aS'hs'
p120
ag119
ag60
ag60
ag120
ag119
ag120
ag120
ag60
ag60
ag120
ag120
ag120
ag60
aS'ss'
p121
ag119
ag119
ag121
ag121
ag119
ag119
ag120
ag60
ag119
ag119
ag60
ag119
ag60
ag119
ag119
ag120
ag121
ag119
ag121
ag119
ag60
ag120
ag119
ag119
ag60
ag120
ag121
ag120
ag119
ag120
ag121
ag119
ag119
ag119
ag121
ag119
ag120
ag120
ag119
ag121
ag120
ag119
ag119
ag121
ag119
ag119
ag121
ag121
ag119
ag60
ag121
ag119
ag120
ag119
ag119
ag119
ag120
ag60
ag60
ag121
ag120
ag119
ag60
ag119
ag119
ag119
ag60
ag121
ag119
ag121
ag120
ag120
ag119
ag119
ag119
ag119
ag121
ag121
ag121
ag119
ag119
ag120
ag121
ag120
ag120
ag121
ag119
ag119
ag60
ag120
ag120
ag60
ag119
ag121
ag121
ag119
ag119
ag60
ag121
ag119
ag120
ag60
ag119
ag119
ag121
ag120
ag120
ag119
ag120
ag120
ag60
ag120
ag119
ag119
ag120
ag121
ag119
ag121
ag120
ag60
ag120
ag60
ag121
ag119
ag119
ag60
asS'um_before'
p122
(lp123
g119
ag120
ag120
ag121
ag119
ag60
ag121
ag60
ag120
ag60
ag120
ag120
ag120
ag60
ag121
ag120
ag60
ag120
ag60
ag119
ag121
ag121
ag120
ag119
ag119
ag60
ag121
ag119
ag60
ag60
ag121
ag121
ag119
ag120
ag121
ag119
ag121
ag119
ag119
ag121
ag60
ag60
ag120
ag120
ag119
ag120
ag60
ag121
ag120
ag121
ag60
ag119
ag60
ag119
ag60
ag119
ag119
ag121
ag120
ag119
ag119
ag121
ag121
ag60
ag121
ag121
ag119
ag60
ag119
ag60
ag119
ag60
ag119
ag119
ag121
ag121
ag60
ag121
ag121
ag60
ag120
ag119
ag60
ag120
ag121
ag119
ag60
ag119
ag60
ag121
ag120
ag120
ag60
ag119
ag120
ag119
ag119
ag121
ag60
ag120
ag121
ag60
ag121
ag121
ag119
ag121
ag120
ag121
ag120
ag120
ag121
ag121
ag121
ag60
ag119
ag120
ag119
ag119
ag120
ag121
ag121
ag119
ag121
ag60
ag60
ag60
ag60
ag120
ag60
ag121
ag120
ag60
ag120
ag121
ag119
ag119
ag119
ag120
ag120
ag60
ag60
ag60
ag119
ag60
asS'um_after'
p124
(lp125
g119
ag120
ag120
ag121
ag119
ag60
ag121
ag60
ag120
ag60
ag120
ag120
ag120
ag60
ag121
ag120
ag60
ag120
ag60
ag119
ag121
ag121
ag120
ag119
ag119
ag60
ag121
ag119
ag60
ag60
ag121
ag121
ag119
ag120
ag121
ag119
ag121
ag119
ag119
ag121
ag60
ag60
ag120
ag120
ag119
ag120
ag60
ag121
ag120
ag121
ag60
ag119
ag60
ag119
ag60
ag119
ag119
ag121
ag120
ag119
ag119
ag121
ag121
ag60
ag121
ag121
ag119
ag60
ag119
ag60
ag119
ag60
ag119
ag119
ag121
ag121
ag60
ag121
ag121
ag60
ag120
ag119
ag60
ag120
ag121
ag119
ag60
ag119
ag60
ag121
ag120
ag120
ag60
ag119
ag120
ag119
ag119
ag121
ag60
ag120
ag121
ag60
ag121
ag121
ag119
ag121
ag120
ag121
ag120
ag120
ag121
ag121
ag121
ag60
ag119
ag120
ag119
ag119
ag120
ag121
ag121
ag119
ag121
ag60
ag60
ag60
ag60
ag120
ag60
ag121
ag120
ag60
ag120
ag121
ag119
ag119
ag119
ag120
ag120
ag60
ag60
ag60
ag119
ag60
asS'is_normalized_entropy_less_than_threshold'
p126
(lp127
g50
(g51
(S'b1'
p128
I0
I1
tp129
Rp130
(I3
S'|'
p131
NNNI-1
I-1
I0
tp132
bS'\x01'
p133
tp134
Rp135
ag135
ag135
ag135
ag135
ag135
ag135
ag135
ag135
ag135
ag135
ag135
ag135
ag135
ag135
ag135
ag135
ag135
ag135
ag135
ag135
ag135
ag135
ag135
ag135
ag135
ag135
ag135
ag135
ag135
ag135
ag135
ag135
ag135
ag135
ag135
ag135
ag135
ag135
ag135
ag135
ag135
ag135
ag135
ag135
ag135
ag135
ag135
ag135
ag135
ag135
ag135
ag135
ag135
ag135
ag135
ag135
ag135
ag135
ag135
ag135
ag135
ag135
ag135
ag135
ag135
ag135
ag135
ag135
ag135
ag135
ag135
ag135
ag135
ag135
ag135
ag135
ag135
ag135
ag135
ag135
ag135
ag135
ag135
ag135
ag135
ag135
ag135
ag135
ag135
ag135
ag135
ag135
ag135
ag135
ag135
ag135
ag135
ag135
ag135
ag135
ag135
ag135
ag135
ag135
ag135
ag135
ag135
ag135
ag135
ag135
ag135
ag135
ag135
ag135
ag135
ag135
ag135
ag135
ag135
ag135
ag135
ag135
ag135
ag135
ag135
ag135
ag135
ag135
ag135
ag135
ag135
ag135
ag135
ag135
ag135
ag135
ag135
ag135
ag135
ag135
ag135
ag135
ag135
asaa(lp136
S'index'
p137
aI114169
aatp138
Rp139
.