ccollections
OrderedDict
p0
((lp1
(lp2
S'combination_dict'
p3
ag0
((lp4
(lp5
S'r_to_g_config'
p6
aS'tr'
p7
aa(lp8
S'num_turns'
p9
aI1
aa(lp10
S'start_direction'
p11
acutils_ms
StartDirection
p12
(I0
tp13
Rp14
aa(lp15
S'assistance_type'
p16
acutils_ms
AssistanceType
p17
(I0
tp18
Rp19
aa(lp20
S'start_mode'
p21
aS't'
p22
aa(lp23
S'ui_given_a_noise'
p24
aF0.7
aa(lp25
S'um_given_ui_noise'
p26
aF0.5
aa(lp27
S'entropy_threshold'
p28
aF0.7
aatp29
Rp30
aa(lp31
S'data'
p32
accollections
defaultdict
p33
(c__builtin__
list
p34
tp35
Rp36
S'a'
p37
(lp38
S'mode_r'
p39
ag39
ag39
ag39
aS'mode_l'
p40
ag40
aS'move_p'
p41
ag39
ag41
ag40
ag40
ag41
ag41
ag40
ag40
ag40
ag40
ag40
ag40
ag41
ag41
ag39
ag40
ag41
ag40
ag39
ag41
ag39
ag40
ag40
ag40
ag39
ag40
ag39
ag39
ag39
ag40
ag39
ag41
ag40
ag41
ag39
ag39
ag39
ag39
ag41
ag39
ag41
ag40
ag41
ag39
ag40
ag39
ag40
ag40
ag41
ag40
ag40
ag40
ag41
ag40
ag41
ag41
ag39
ag40
ag39
ag40
ag40
ag41
ag40
ag41
asS'assistance_match_with_ground_truth'
p42
(lp43
I00
aI00
aI00
aI00
aI00
aI01
aI00
aI01
aI00
aI00
aI01
aI00
aI01
aI00
aI00
aI00
aI00
aI00
aI01
aI00
aI00
aI00
aI01
aI01
aI00
aI01
aI00
aI00
aI00
aI00
aI00
aI00
aI00
aI00
aI00
aI00
aI00
aI01
aI00
aI01
aI00
aI00
aI00
aI00
aI01
aI00
aI01
aI01
aI01
aI00
aI00
aI00
aI00
aI00
aI01
aI00
aI00
aI00
aI01
aI01
aI01
aI00
aI00
aI00
aI00
aI00
aI00
aI01
aI01
aI01
aI01
asS'is_u_intended_equals_um'
p44
(lp45
I01
aI01
aI01
aI00
aI01
aI01
aI01
aI01
aI00
aI01
aI01
aI01
aI01
aI00
aI01
aI00
aI00
aI00
aI01
aI01
aI01
aI01
aI01
aI01
aI01
aI01
aI01
aI01
aI00
aI01
aI01
aI00
aI01
aI01
aI01
aI00
aI01
aI01
aI00
aI01
aI01
aI01
aI01
aI01
aI01
aI01
aI01
aI01
aI01
aI01
aI01
aI01
aI00
aI01
aI01
aI00
aI01
aI01
aI01
aI01
aI01
aI01
aI01
aI00
aI01
aI00
aI01
aI01
aI01
aI01
aI01
asS'total_steps'
p46
I71
sS'normalized_h_of_p_ui_given_um'
p47
(lp48
cnumpy.core.multiarray
scalar
p49
(cnumpy
dtype
p50
(S'f8'
p51
I0
I1
tp52
Rp53
(I3
S'<'
p54
NNNI-1
I-1
I0
tp55
bS'\xbb,\xd8^\x97\x82\xea?'
p56
tp57
Rp58
ag49
(g53
S'\xbb,\xd8^\x97\x82\xea?'
p59
tp60
Rp61
ag49
(g53
S'\xbb,\xd8^\x97\x82\xea?'
p62
tp63
Rp64
ag49
(g53
S'\x97\xfa\x9d\xee\xb0K\xe7?'
p65
tp66
Rp67
ag49
(g53
S'C\xb5r6\xd2\x16\xe9?'
p68
tp69
Rp70
ag49
(g53
S'\x9c4\xb8^\x81\xf4\xdf?'
p71
tp72
Rp73
ag49
(g53
S'O\xed\xbb:h9\xe7?'
p74
tp75
Rp76
ag49
(g53
S'U\xc7*D}\x16\xe0?'
p77
tp78
Rp79
ag49
(g53
S'1-\r\x1f\x15s\xea?'
p80
tp81
Rp82
ag49
(g53
S'C\xb5r6\xd2\x16\xe9?'
p83
tp84
Rp85
ag49
(g53
S'\x9c4\xb8^\x81\xf4\xdf?'
p86
tp87
Rp88
ag49
(g53
S'\xa2x\xdc\t]\xc1\xe9?'
p89
tp90
Rp91
ag49
(g53
S'o5S\x90\xa7\xd1\xe2?'
p92
tp93
Rp94
ag49
(g53
S"\xafm\x86'\xcf\xc2\xe6?"
p95
tp96
Rp97
ag49
(g53
S'C\xb5r6\xd2\x16\xe9?'
p98
tp99
Rp100
ag49
(g53
S"\xafm\x86'\xcf\xc2\xe6?"
p101
tp102
Rp103
ag49
(g53
S"\xafm\x86'\xcf\xc2\xe6?"
p104
tp105
Rp106
ag49
(g53
S"\xafm\x86'\xcf\xc2\xe6?"
p107
tp108
Rp109
ag49
(g53
S'\x9c4\xb8^\x81\xf4\xdf?'
p110
tp111
Rp112
ag49
(g53
S'\xa2x\xdc\t]\xc1\xe9?'
p113
tp114
Rp115
ag49
(g53
S'O\xed\xbb:h9\xe7?'
p116
tp117
Rp118
ag49
(g53
S'\xbb,\xd8^\x97\x82\xea?'
p119
tp120
Rp121
ag49
(g53
S'\x9c4\xb8^\x81\xf4\xdf?'
p122
tp123
Rp124
ag49
(g53
S'o5S\x90\xa7\xd1\xe2?'
p125
tp126
Rp127
ag49
(g53
S' \xea\xda\xb6\x17\x10\xed?'
p128
tp129
Rp130
ag49
(g53
S'U\xc7*D}\x16\xe0?'
p131
tp132
Rp133
ag49
(g53
S'O\xed\xbb:h9\xe7?'
p134
tp135
Rp136
ag49
(g53
S'\xbb,\xd8^\x97\x82\xea?'
p137
tp138
Rp139
ag49
(g53
S"\xafm\x86'\xcf\xc2\xe6?"
p140
tp141
Rp142
ag49
(g53
S'C\xb5r6\xd2\x16\xe9?'
p143
tp144
Rp145
ag49
(g53
S' \xea\xda\xb6\x17\x10\xed?'
p146
tp147
Rp148
ag49
(g53
S'\x97\xfa\x9d\xee\xb0K\xe7?'
p149
tp150
Rp151
ag49
(g53
S' \xea\xda\xb6\x17\x10\xed?'
p152
tp153
Rp154
ag49
(g53
S'\xbb,\xd8^\x97\x82\xea?'
p155
tp156
Rp157
ag49
(g53
S'\xbb,\xd8^\x97\x82\xea?'
p158
tp159
Rp160
ag49
(g53
S'\x97\xfa\x9d\xee\xb0K\xe7?'
p161
tp162
Rp163
ag49
(g53
S' \xea\xda\xb6\x17\x10\xed?'
p164
tp165
Rp166
ag49
(g53
S'U\xc7*D}\x16\xe0?'
p167
tp168
Rp169
ag49
(g53
S'1-\r\x1f\x15s\xea?'
p170
tp171
Rp172
ag49
(g53
S'\x9c4\xb8^\x81\xf4\xdf?'
p173
tp174
Rp175
ag49
(g53
S'O\xed\xbb:h9\xe7?'
p176
tp177
Rp178
ag49
(g53
S'y3e\xbb\x9b^\xe8?'
p179
tp180
Rp181
ag49
(g53
S'y3e\xbb\x9b^\xe8?'
p182
tp183
Rp184
ag49
(g53
S'y3e\xbb\x9b^\xe8?'
p185
tp186
Rp187
ag49
(g53
S'U\xc7*D}\x16\xe0?'
p188
tp189
Rp190
ag49
(g53
S'O\xed\xbb:h9\xe7?'
p191
tp192
Rp193
ag49
(g53
S'U\xc7*D}\x16\xe0?'
p194
tp195
Rp196
ag49
(g53
S'o5S\x90\xa7\xd1\xe2?'
p197
tp198
Rp199
ag49
(g53
S'\x9c4\xb8^\x81\xf4\xdf?'
p200
tp201
Rp202
ag49
(g53
S'O\xed\xbb:h9\xe7?'
p203
tp204
Rp205
ag49
(g53
S'\xbb,\xd8^\x97\x82\xea?'
p206
tp207
Rp208
ag49
(g53
S' \xea\xda\xb6\x17\x10\xed?'
p209
tp210
Rp211
ag49
(g53
S'\x97\xfa\x9d\xee\xb0K\xe7?'
p212
tp213
Rp214
ag49
(g53
S'C\xb5r6\xd2\x16\xe9?'
p215
tp216
Rp217
ag49
(g53
S'\x9c4\xb8^\x81\xf4\xdf?'
p218
tp219
Rp220
ag49
(g53
S'1-\r\x1f\x15s\xea?'
p221
tp222
Rp223
ag49
(g53
S'C\xb5r6\xd2\x16\xe9?'
p224
tp225
Rp226
ag49
(g53
S'C\xb5r6\xd2\x16\xe9?'
p227
tp228
Rp229
ag49
(g53
S'\x9c4\xb8^\x81\xf4\xdf?'
p230
tp231
Rp232
ag49
(g53
S'o5S\x90\xa7\xd1\xe2?'
p233
tp234
Rp235
ag49
(g53
S'\x9c4\xb8^\x81\xf4\xdf?'
p236
tp237
Rp238
ag49
(g53
S'\xa2x\xdc\t]\xc1\xe9?'
p239
tp240
Rp241
ag49
(g53
S'O\xed\xbb:h9\xe7?'
p242
tp243
Rp244
ag49
(g53
S'\x97\xfa\x9d\xee\xb0K\xe7?'
p245
tp246
Rp247
ag49
(g53
S' \xea\xda\xb6\x17\x10\xed?'
p248
tp249
Rp250
ag49
(g53
S'\x97\xfa\x9d\xee\xb0K\xe7?'
p251
tp252
Rp253
ag49
(g53
S'C\xb5r6\xd2\x16\xe9?'
p254
tp255
Rp256
ag49
(g53
S'\x9c4\xb8^\x81\xf4\xdf?'
p257
tp258
Rp259
ag49
(g53
S'o5S\x90\xa7\xd1\xe2?'
p260
tp261
Rp262
ag49
(g53
S'\x9c4\xb8^\x81\xf4\xdf?'
p263
tp264
Rp265
ag49
(g53
S'o5S\x90\xa7\xd1\xe2?'
p266
tp267
Rp268
asS'sp'
p269
(lp270
(S'p0'
p271
I0
S't'
p272
tp273
ag273
ag273
a(g271
I0
S'y'
p274
tp275
a(g271
I0
g274
tp276
a(g271
I0
S'x'
p277
tp278
a(g271
I0
g272
tp279
a(g271
I0
g277
tp280
a(g271
I0
g274
tp281
ag276
ag278
a(g271
I0
g277
tp282
a(S'p1'
p283
I0
g277
tp284
a(g283
I0
g277
tp285
a(g283
I0
g277
tp286
ag285
ag285
ag285
a(g283
I0
g272
tp287
a(g283
I0
g272
tp288
a(g283
I0
g274
tp289
a(g271
I0
g274
tp290
ag278
ag284
a(g283
I0
g274
tp291
a(g283
I0
g272
tp292
ag289
ag290
a(g271
I0
g274
tp293
ag276
a(g271
I0
g272
tp294
ag275
ag294
ag273
ag273
ag275
ag294
ag280
ag281
ag278
ag279
a(g271
I0
g272
tp295
ag295
ag295
ag280
ag279
ag280
ag284
ag287
ag289
ag290
ag294
ag275
ag276
ag278
ag281
ag276
ag276
ag278
ag284
ag287
ag288
ag289
a(g283
I0
g277
tp296
ag291
ag296
ag286
ag287
a(g283
F1.5707963267948966
g272
tp297
a(g283
F1.5707963267948966
g274
tp298
a(S'p2'
p299
F1.5707963267948966
g274
tp300
asS's'
p301
(lp302
(g271
I0
g22
tp303
ag273
ag273
ag273
ag275
ag276
ag278
ag279
ag280
ag281
ag276
ag278
ag282
ag284
ag285
ag286
ag285
ag285
ag285
ag287
ag288
ag289
ag290
ag278
ag284
ag291
ag292
ag289
ag290
ag293
ag276
ag294
ag275
ag294
ag273
ag273
ag275
ag294
ag280
ag281
ag278
ag279
ag295
ag295
ag295
ag280
ag279
ag280
ag284
ag287
ag289
ag290
ag294
ag275
ag276
ag278
ag281
ag276
ag276
ag278
ag284
ag287
ag288
ag289
ag296
ag291
ag296
ag286
ag287
ag297
ag298
asS'ui'
p304
(lp305
S'ss'
p306
aS'hp'
p307
ag306
ag307
aS'hs'
p308
ag308
ag308
ag307
ag269
ag308
ag308
ag308
ag269
ag306
ag269
ag308
ag308
ag307
ag307
ag306
ag269
ag269
ag308
ag269
ag308
ag269
ag308
ag307
ag306
ag308
ag307
ag307
ag269
ag306
ag306
ag307
ag308
ag307
ag306
ag308
ag269
ag307
ag307
ag307
ag307
ag308
ag307
ag269
ag308
ag308
ag307
ag308
ag307
ag269
ag308
ag307
ag269
ag269
ag308
ag269
ag308
ag308
ag308
ag307
ag308
ag308
ag269
ag308
ag269
ag308
ag269
asS'um_before'
p309
(lp310
g306
ag306
ag306
ag308
ag269
ag308
ag308
ag307
ag307
ag269
ag308
ag306
ag269
ag306
ag269
ag306
ag306
ag306
ag308
ag306
ag308
ag306
ag308
ag269
ag307
ag307
ag308
ag306
ag306
ag269
ag307
ag308
ag307
ag306
ag306
ag308
ag307
ag307
ag307
ag308
ag308
ag269
ag269
ag269
ag307
ag308
ag307
ag269
ag308
ag308
ag306
ag307
ag308
ag269
ag308
ag307
ag269
ag269
ag308
ag269
ag308
ag306
ag308
ag308
ag307
ag308
ag269
ag308
ag269
ag308
ag269
asS'um_after'
p311
(lp312
g306
ag306
ag306
ag308
ag269
ag308
ag308
ag307
ag307
ag269
ag308
ag306
ag269
ag306
ag269
ag306
ag306
ag306
ag308
ag306
ag308
ag306
ag308
ag269
ag307
ag307
ag308
ag306
ag306
ag269
ag307
ag308
ag307
ag306
ag306
ag308
ag307
ag307
ag307
ag308
ag308
ag269
ag269
ag269
ag307
ag308
ag307
ag269
ag308
ag308
ag306
ag307
ag308
ag269
ag308
ag307
ag269
ag269
ag308
ag269
ag308
ag306
ag308
ag308
ag307
ag308
ag269
ag308
ag269
ag308
ag269
asS'is_normalized_entropy_less_than_threshold'
p313
(lp314
g49
(g50
(S'b1'
p315
I0
I1
tp316
Rp317
(I3
S'|'
p318
NNNI-1
I-1
I0
tp319
bS'\x00'
p320
tp321
Rp322
ag322
ag322
ag322
ag322
ag49
(g317
S'\x01'
p323
tp324
Rp325
ag322
ag325
ag322
ag322
ag325
ag322
ag325
ag322
ag322
ag322
ag322
ag322
ag325
ag322
ag322
ag322
ag325
ag325
ag322
ag325
ag322
ag322
ag322
ag322
ag322
ag322
ag322
ag322
ag322
ag322
ag322
ag325
ag322
ag325
ag322
ag322
ag322
ag322
ag325
ag322
ag325
ag325
ag325
ag322
ag322
ag322
ag322
ag322
ag325
ag322
ag322
ag322
ag325
ag325
ag325
ag322
ag322
ag322
ag322
ag322
ag322
ag325
ag325
ag325
ag325
asaa(lp326
S'index'
p327
aI723
aatp328
Rp329
.