ccollections
OrderedDict
p0
((lp1
(lp2
S'combination_dict'
p3
ag0
((lp4
(lp5
S'r_to_g_config'
p6
aS'tl'
p7
aa(lp8
S'num_turns'
p9
aI2
aa(lp10
S'start_direction'
p11
acutils_ms
StartDirection
p12
(I1
tp13
Rp14
aa(lp15
S'assistance_type'
p16
acutils_ms
AssistanceType
p17
(I1
tp18
Rp19
aa(lp20
S'start_mode'
p21
aS't'
p22
aa(lp23
S'ui_given_a_noise'
p24
aF0.7
aa(lp25
S'um_given_ui_noise'
p26
aF0.1
aa(lp27
S'entropy_threshold'
p28
aF0.8
aatp29
Rp30
aa(lp31
S'data'
p32
accollections
defaultdict
p33
(c__builtin__
list
p34
tp35
Rp36
S'a'
p37
(lp38
S'mode_l'
p39
aS'move_p'
p40
ag40
aS'mode_r'
p41
ag40
ag41
ag41
ag40
ag41
ag39
ag40
ag41
ag40
ag40
ag41
ag41
ag40
ag41
ag39
ag41
ag40
ag41
aS'move_n'
p42
ag41
ag41
ag41
ag41
ag41
ag41
ag41
ag41
ag41
ag39
ag41
ag41
ag41
ag39
ag41
ag40
ag39
ag42
ag41
ag41
ag40
ag39
ag42
ag39
ag42
ag41
ag40
asS'assistance_match_with_ground_truth'
p43
(lp44
I01
aI00
aI00
aI01
aI01
aI00
aI01
aI00
aI00
aI01
aI01
aI00
aI00
aI00
aI00
aI01
aI01
aI00
aI00
aI00
aI01
aI01
aI01
aI00
aI00
aI00
aI00
aI00
aI00
aI00
aI00
aI00
aI00
aI00
aI00
aI00
aI00
aI01
aI00
aI01
aI00
aI00
aI01
aI01
aI01
aI00
aI01
aI01
aI01
aI01
asS'is_u_intended_equals_um'
p45
(lp46
I01
aI01
aI01
aI01
aI01
aI01
aI01
aI01
aI01
aI01
aI01
aI01
aI01
aI01
aI01
aI01
aI01
aI01
aI01
aI01
aI01
aI01
aI01
aI01
aI01
aI01
aI01
aI01
aI01
aI01
aI01
aI01
aI01
aI01
aI01
aI01
aI01
aI01
aI01
aI01
aI01
aI01
aI01
aI01
aI01
aI01
aI01
aI01
aI01
aI01
asS'total_steps'
p47
I50
sS'normalized_h_of_p_ui_given_um'
p48
(lp49
cnumpy.core.multiarray
scalar
p50
(cnumpy
dtype
p51
(S'f8'
p52
I0
I1
tp53
Rp54
(I3
S'<'
p55
NNNI-1
I-1
I0
tp56
bS'\x9d_\xc36x\x8a\xc2?'
p57
tp58
Rp59
ag50
(g54
S'\xfa\x99\xe0L\xce\xcc\xca?'
p60
tp61
Rp62
ag50
(g54
S'v\xa79n\x0f\xa3\xe5?'
p63
tp64
Rp65
ag50
(g54
S'\xf2\x97\x1c\xebgr\xcc?'
p66
tp67
Rp68
ag50
(g54
S'\xa6k\x83\xe2EE\xca?'
p69
tp70
Rp71
ag50
(g54
S'\x16Q\x83F\x87\x19\xdd?'
p72
tp73
Rp74
ag50
(g54
S'\xf2\x97\x1c\xebgr\xcc?'
p75
tp76
Rp77
ag50
(g54
S'v\xa79n\x0f\xa3\xe5?'
p78
tp79
Rp80
ag50
(g54
S'\xb8YP1.Q\xe7?'
p81
tp82
Rp83
ag50
(g54
S'\x9d_\xc36x\x8a\xc2?'
p84
tp85
Rp86
ag50
(g54
S'\xa6k\x83\xe2EE\xca?'
p87
tp88
Rp89
ag50
(g54
S'\xaeda{9>\xd4?'
p90
tp91
Rp92
ag50
(g54
S'\xfa\x99\xe0L\xce\xcc\xca?'
p93
tp94
Rp95
ag50
(g54
S'v\xa79n\x0f\xa3\xe5?'
p96
tp97
Rp98
ag50
(g54
S'\x16Q\x83F\x87\x19\xdd?'
p99
tp100
Rp101
ag50
(g54
S'\xf2\x97\x1c\xebgr\xcc?'
p102
tp103
Rp104
ag50
(g54
S'\xa6k\x83\xe2EE\xca?'
p105
tp106
Rp107
ag50
(g54
S'\xb8YP1.Q\xe7?'
p108
tp109
Rp110
ag50
(g54
S'\xcf\xd9\xb4\x04\x90\x1b\xdb?'
p111
tp112
Rp113
ag50
(g54
S'\xaeda{9>\xd4?'
p114
tp115
Rp116
ag50
(g54
S'\xa6k\x83\xe2EE\xca?'
p117
tp118
Rp119
ag50
(g54
S'\xf2\x97\x1c\xebgr\xcc?'
p120
tp121
Rp122
ag50
(g54
S'@\xcc\x9ep\x85\x1c\xc2?'
p123
tp124
Rp125
ag50
(g54
S'\x16Q\x83F\x87\x19\xdd?'
p126
tp127
Rp128
ag50
(g54
S'\x16Q\x83F\x87\x19\xdd?'
p129
tp130
Rp131
ag50
(g54
S'\x16Q\x83F\x87\x19\xdd?'
p132
tp133
Rp134
ag50
(g54
S'\xaeda{9>\xd4?'
p135
tp136
Rp137
ag50
(g54
S'\xaeda{9>\xd4?'
p138
tp139
Rp140
ag50
(g54
S'\x16Q\x83F\x87\x19\xdd?'
p141
tp142
Rp143
ag50
(g54
S'\x16Q\x83F\x87\x19\xdd?'
p144
tp145
Rp146
ag50
(g54
S'\xaeda{9>\xd4?'
p147
tp148
Rp149
ag50
(g54
S'\xb8YP1.Q\xe7?'
p150
tp151
Rp152
ag50
(g54
S'\xcf\xd9\xb4\x04\x90\x1b\xdb?'
p153
tp154
Rp155
ag50
(g54
S'\xaeda{9>\xd4?'
p156
tp157
Rp158
ag50
(g54
S'\x16Q\x83F\x87\x19\xdd?'
p159
tp160
Rp161
ag50
(g54
S'\xb8YP1.Q\xe7?'
p162
tp163
Rp164
ag50
(g54
S'\xcf\xd9\xb4\x04\x90\x1b\xdb?'
p165
tp166
Rp167
ag50
(g54
S'\xf2\x97\x1c\xebgr\xcc?'
p168
tp169
Rp170
ag50
(g54
S'\xfa\x99\xe0L\xce\xcc\xca?'
p171
tp172
Rp173
ag50
(g54
S'\x9d_\xc36x\x8a\xc2?'
p174
tp175
Rp176
ag50
(g54
S'W$B=\xd2\xbe\xe2?'
p177
tp178
Rp179
ag50
(g54
S'\x16Q\x83F\x87\x19\xdd?'
p180
tp181
Rp182
ag50
(g54
S'\xf2\x97\x1c\xebgr\xcc?'
p183
tp184
Rp185
ag50
(g54
S'\xa6k\x83\xe2EE\xca?'
p186
tp187
Rp188
ag50
(g54
S'\x9d_\xc36x\x8a\xc2?'
p189
tp190
Rp191
ag50
(g54
S'\x16\xeeo\xcc\xb2\x02\xd5?'
p192
tp193
Rp194
ag50
(g54
S'\x9d_\xc36x\x8a\xc2?'
p195
tp196
Rp197
ag50
(g54
S'@\xcc\x9ep\x85\x1c\xc2?'
p198
tp199
Rp200
ag50
(g54
S'\xf2\x97\x1c\xebgr\xcc?'
p201
tp202
Rp203
ag50
(g54
S'\xa6k\x83\xe2EE\xca?'
p204
tp205
Rp206
asS'sp'
p207
(lp208
(S'p0'
p209
I0
S'y'
p210
tp211
a(g209
I0
g210
tp212
a(g209
I0
S'x'
p213
tp214
a(g209
I0
g210
tp215
a(S'p1'
p216
I0
g210
tp217
a(g216
I0
g210
tp218
a(g216
I0
S't'
p219
tp220
a(g216
I0
g210
tp221
a(g216
I0
g213
tp222
a(g216
I0
g219
tp223
a(g216
F1.5707963267948966
g219
tp224
a(g216
I0
g219
tp225
a(g216
I0
g219
tp226
ag221
ag218
ag220
ag224
a(g216
F1.5707963267948966
g210
tp227
a(g216
F1.5707963267948966
g219
tp228
ag225
ag224
a(g216
F1.5707963267948966
g213
tp229
a(S'p2'
p230
F1.5707963267948966
g213
tp231
a(g230
F1.5707963267948966
g213
tp232
ag232
ag232
a(g230
F1.5707963267948966
g213
tp233
ag233
ag232
ag232
ag233
a(g230
F1.5707963267948966
g219
tp234
a(g230
F1.5707963267948966
g213
tp235
ag233
ag232
ag234
ag235
a(g230
F1.5707963267948966
g210
tp236
a(g216
F1.5707963267948966
g210
tp237
a(g216
F1.5707963267948966
g213
tp238
a(g209
F1.5707963267948966
g213
tp239
a(g209
F1.5707963267948966
g213
tp240
a(g209
F1.5707963267948966
g210
tp241
a(g216
F1.5707963267948966
g210
tp242
ag238
a(g216
F1.5707963267948966
g210
tp243
ag238
ag231
ag236
a(S'p3'
p244
F1.5707963267948966
g210
tp245
asS's'
p246
(lp247
(g209
I0
g22
tp248
ag211
ag212
ag214
ag215
ag217
ag218
ag220
ag221
ag222
ag223
ag224
ag225
ag226
ag221
ag218
ag220
ag224
ag227
ag228
ag225
ag224
ag229
ag231
ag232
ag232
ag232
ag233
ag233
ag232
ag232
ag233
ag234
ag235
ag233
ag232
ag234
ag235
ag236
ag237
ag238
ag239
ag240
ag241
ag242
ag238
ag243
ag238
ag231
ag236
asS'ui'
p249
(lp250
S'hs'
p251
aS'ss'
p252
ag207
aS'hp'
p253
ag252
ag207
ag253
ag251
ag251
ag251
ag207
ag252
ag252
ag251
ag207
ag253
ag252
ag207
ag253
ag252
ag207
ag251
ag252
ag207
ag207
ag207
ag252
ag252
ag207
ag207
ag252
ag251
ag253
ag252
ag207
ag251
ag253
ag207
ag252
ag251
ag207
ag207
ag253
ag207
ag251
ag253
ag251
ag252
ag253
ag207
asS'um_before'
p254
(lp255
g251
ag252
ag251
ag253
ag207
ag207
ag253
ag251
ag251
ag251
ag207
ag252
ag252
ag251
ag207
ag253
ag207
ag251
ag253
ag252
ag207
ag253
ag252
ag207
ag207
ag207
ag252
ag252
ag207
ag207
ag252
ag251
ag253
ag252
ag207
ag251
ag253
ag253
ag252
ag251
ag207
ag207
ag253
ag207
ag251
ag253
ag251
ag252
ag253
ag207
asS'um_after'
p256
(lp257
g251
ag252
ag251
ag253
ag207
ag207
ag253
ag251
ag251
ag251
ag207
ag252
ag252
ag251
ag207
ag253
ag207
ag251
ag253
ag252
ag207
ag253
ag252
ag207
ag207
ag207
ag252
ag252
ag207
ag207
ag252
ag251
ag253
ag252
ag207
ag251
ag253
ag253
ag252
ag251
ag207
ag207
ag253
ag207
ag251
ag253
ag251
ag252
ag253
ag207
asS'is_normalized_entropy_less_than_threshold'
p258
(lp259
g50
(g51
(S'b1'
p260
I0
I1
tp261
Rp262
(I3
S'|'
p263
NNNI-1
I-1
I0
tp264
bS'\x01'
p265
tp266
Rp267
ag267
ag267
ag267
ag267
ag267
ag267
ag267
ag267
ag267
ag267
ag267
ag267
ag267
ag267
ag267
ag267
ag267
ag267
ag267
ag267
ag267
ag267
ag267
ag267
ag267
ag267
ag267
ag267
ag267
ag267
ag267
ag267
ag267
ag267
ag267
ag267
ag267
ag267
ag267
ag267
ag267
ag267
ag267
ag267
ag267
ag267
ag267
ag267
ag267
asaa(lp268
S'index'
p269
aI46232
aatp270
Rp271
.