ccollections
OrderedDict
p0
((lp1
(lp2
S'combination_dict'
p3
ag0
((lp4
(lp5
S'r_to_g_config'
p6
aS'tl'
p7
aa(lp8
S'num_turns'
p9
aI3
aa(lp10
S'start_direction'
p11
acutils_ms
StartDirection
p12
(I1
tp13
Rp14
aa(lp15
S'assistance_type'
p16
acutils_ms
AssistanceType
p17
(I0
tp18
Rp19
aa(lp20
S'start_mode'
p21
aS'x'
p22
aa(lp23
S'ui_given_a_noise'
p24
aF0.7
aa(lp25
S'um_given_ui_noise'
p26
aF0.1
aa(lp27
S'entropy_threshold'
p28
aF0.7
aatp29
Rp30
aa(lp31
S'data'
p32
accollections
defaultdict
p33
(c__builtin__
list
p34
tp35
Rp36
S'a'
p37
(lp38
S'mode_r'
p39
aS'move_p'
p40
ag40
ag39
ag39
ag40
ag39
ag40
aS'mode_l'
p41
ag39
ag39
ag41
ag40
ag39
aS'move_n'
p42
ag41
ag42
ag39
ag40
ag39
ag40
ag41
ag41
ag42
ag39
ag39
ag39
ag40
ag41
ag40
ag41
ag42
ag39
ag40
ag41
ag41
ag42
ag39
ag39
ag40
ag41
ag40
ag41
ag39
ag42
ag39
ag40
ag41
ag42
ag39
ag40
ag41
ag42
ag41
ag42
asS'assistance_match_with_ground_truth'
p43
(lp44
I01
aI00
aI01
aI00
aI01
aI01
aI00
aI00
aI00
aI00
aI00
aI01
aI01
aI01
aI00
aI01
aI01
aI01
aI00
aI01
aI01
aI00
aI01
aI00
aI00
aI00
aI01
aI00
aI01
aI01
aI01
aI00
aI01
aI01
aI00
aI01
aI00
aI00
aI01
aI00
aI01
aI01
aI00
aI01
aI00
aI01
aI01
aI01
aI00
aI01
aI01
aI01
aI00
aI01
aI01
asS'is_u_intended_equals_um'
p45
(lp46
I01
aI01
aI01
aI01
aI01
aI01
aI01
aI01
aI01
aI01
aI01
aI01
aI01
aI01
aI01
aI01
aI01
aI01
aI01
aI01
aI01
aI01
aI01
aI01
aI01
aI01
aI01
aI01
aI01
aI01
aI01
aI01
aI01
aI01
aI01
aI01
aI01
aI01
aI01
aI01
aI01
aI01
aI01
aI01
aI01
aI01
aI01
aI01
aI01
aI01
aI01
aI01
aI01
aI01
aI01
asS'total_steps'
p47
I55
sS'normalized_h_of_p_ui_given_um'
p48
(lp49
cnumpy.core.multiarray
scalar
p50
(cnumpy
dtype
p51
(S'f8'
p52
I0
I1
tp53
Rp54
(I3
S'<'
p55
NNNI-1
I-1
I0
tp56
bS'\xda\xfe\xae]\xbeQ\xca?'
p57
tp58
Rp59
ag50
(g54
S'J\xa3\xd3pT\x91\xcd?'
p60
tp61
Rp62
ag50
(g54
S'6\xc3\xc3\xcd\xa8"\xc2?'
p63
tp64
Rp65
ag50
(g54
S'\x9c\xfd\x96sJ\xc8\xe2?'
p66
tp67
Rp68
ag50
(g54
S'\xda\xfe\xae]\xbeQ\xca?'
p69
tp70
Rp71
ag50
(g54
S'6\xc3\xc3\xcd\xa8"\xc2?'
p72
tp73
Rp74
ag50
(g54
S'\xe4\x1b\xb7\xcfv\x93\xda?'
p75
tp76
Rp77
ag50
(g54
S'\xa0\x19)5LH\xea?'
p78
tp79
Rp80
ag50
(g54
S'&\xbb\x9f3\x9bi\xeb?'
p81
tp82
Rp83
ag50
(g54
S'\xe4\x1b\xb7\xcfv\x93\xda?'
p84
tp85
Rp86
ag50
(g54
S'\x89\xdd\x11\x90\x8d\xfa\xe3?'
p87
tp88
Rp89
ag50
(g54
S'V1\xe8\x9d\xa8Y\xbd?'
p90
tp91
Rp92
ag50
(g54
S'6\xc3\xc3\xcd\xa8"\xc2?'
p93
tp94
Rp95
ag50
(g54
S'\xda\xfe\xae]\xbeQ\xca?'
p96
tp97
Rp98
ag50
(g54
S'g\xe4\xfbz\xd6t\xe4?'
p99
tp100
Rp101
ag50
(g54
S'V1\xe8\x9d\xa8Y\xbd?'
p102
tp103
Rp104
ag50
(g54
S'\xcc\xa7\x95\x973U\xc5?'
p105
tp106
Rp107
ag50
(g54
S'\xda\xfe\xae]\xbeQ\xca?'
p108
tp109
Rp110
ag50
(g54
S'\x81O\x98*\xa7y\xea?'
p111
tp112
Rp113
ag50
(g54
S'\xda\xfe\xae]\xbeQ\xca?'
p114
tp115
Rp116
ag50
(g54
S'6\xc3\xc3\xcd\xa8"\xc2?'
p117
tp118
Rp119
ag50
(g54
S'^\xae`\x87\x07c\xda?'
p120
tp121
Rp122
ag50
(g54
S'V1\xe8\x9d\xa8Y\xbd?'
p123
tp124
Rp125
ag50
(g54
S'\xd4\xa5f\xbaX\x94\xd3?'
p126
tp127
Rp128
ag50
(g54
S'\xe4\x1b\xb7\xcfv\x93\xda?'
p129
tp130
Rp131
ag50
(g54
S'\x9c\xfd\x96sJ\xc8\xe2?'
p132
tp133
Rp134
ag50
(g54
S'\xda\xfe\xae]\xbeQ\xca?'
p135
tp136
Rp137
ag50
(g54
S'\xa0\x19)5LH\xea?'
p138
tp139
Rp140
ag50
(g54
S'V1\xe8\x9d\xa8Y\xbd?'
p141
tp142
Rp143
ag50
(g54
S'6\xc3\xc3\xcd\xa8"\xc2?'
p144
tp145
Rp146
ag50
(g54
S'V1\xe8\x9d\xa8Y\xbd?'
p147
tp148
Rp149
ag50
(g54
S'\xd4\xa5f\xbaX\x94\xd3?'
p150
tp151
Rp152
ag50
(g54
S'\xda\xfe\xae]\xbeQ\xca?'
p153
tp154
Rp155
ag50
(g54
S'6\xc3\xc3\xcd\xa8"\xc2?'
p156
tp157
Rp158
ag50
(g54
S'^\xae`\x87\x07c\xda?'
p159
tp160
Rp161
ag50
(g54
S'V1\xe8\x9d\xa8Y\xbd?'
p162
tp163
Rp164
ag50
(g54
S'\xd4\xa5f\xbaX\x94\xd3?'
p165
tp166
Rp167
ag50
(g54
S'\x9c\xfd\x96sJ\xc8\xe2?'
p168
tp169
Rp170
ag50
(g54
S'\xda\xfe\xae]\xbeQ\xca?'
p171
tp172
Rp173
ag50
(g54
S'\xa0\x19)5LH\xea?'
p174
tp175
Rp176
ag50
(g54
S'V1\xe8\x9d\xa8Y\xbd?'
p177
tp178
Rp179
ag50
(g54
S'6\xc3\xc3\xcd\xa8"\xc2?'
p180
tp181
Rp182
ag50
(g54
S'&\xbb\x9f3\x9bi\xeb?'
p183
tp184
Rp185
ag50
(g54
S'\xda\xfe\xae]\xbeQ\xca?'
p186
tp187
Rp188
ag50
(g54
S'\xd4\xa5f\xbaX\x94\xd3?'
p189
tp190
Rp191
ag50
(g54
S'\xda\xfe\xae]\xbeQ\xca?'
p192
tp193
Rp194
ag50
(g54
S'6\xc3\xc3\xcd\xa8"\xc2?'
p195
tp196
Rp197
ag50
(g54
S'V1\xe8\x9d\xa8Y\xbd?'
p198
tp199
Rp200
ag50
(g54
S'\xd4\xa5f\xbaX\x94\xd3?'
p201
tp202
Rp203
ag50
(g54
S'\xda\xfe\xae]\xbeQ\xca?'
p204
tp205
Rp206
ag50
(g54
S'6\xc3\xc3\xcd\xa8"\xc2?'
p207
tp208
Rp209
ag50
(g54
S'V1\xe8\x9d\xa8Y\xbd?'
p210
tp211
Rp212
ag50
(g54
S'g\xe4\xfbz\xd6t\xe4?'
p213
tp214
Rp215
ag50
(g54
S'V1\xe8\x9d\xa8Y\xbd?'
p216
tp217
Rp218
ag50
(g54
S'\xcc\xa7\x95\x973U\xc5?'
p219
tp220
Rp221
asS'sp'
p222
(lp223
(S'p0'
p224
I0
S'y'
p225
tp226
a(g224
I0
g225
tp227
a(S'p1'
p228
I0
g225
tp229
a(g228
I0
g225
tp230
a(g228
I0
S't'
p231
tp232
a(g228
F1.5707963267948966
g231
tp233
a(g228
I0
g231
tp234
a(g228
I0
S'x'
p235
tp236
a(g228
I0
g225
tp237
a(g228
I0
g225
tp238
a(g228
I0
g235
tp239
a(g228
I0
g231
tp240
ag233
a(g228
F1.5707963267948966
g235
tp241
a(g228
F1.5707963267948966
g225
tp242
a(g228
F1.5707963267948966
g235
tp243
a(S'p2'
p244
F1.5707963267948966
g235
tp245
a(g244
F1.5707963267948966
g225
tp246
a(g244
F1.5707963267948966
g235
tp247
ag246
a(S'p3'
p248
F1.5707963267948966
g225
tp249
a(g248
F1.5707963267948966
g225
tp250
a(g248
F1.5707963267948966
g235
tp251
a(g244
F1.5707963267948966
g235
tp252
a(g244
F1.5707963267948966
g235
tp253
a(g244
F1.5707963267948966
g235
tp254
ag246
a(g244
F1.5707963267948966
g231
tp255
a(g244
F1.5707963267948966
g225
tp256
ag249
ag251
ag252
ag246
ag249
ag250
ag251
ag252
ag254
ag246
ag255
ag256
ag249
a(g248
F1.5707963267948966
g231
tp257
a(g248
F1.5707963267948966
g235
tp258
ag252
ag246
ag249
ag251
ag252
ag246
ag249
ag251
a(g248
F1.5707963267948966
g225
tp259
ag251
a(S'p4'
p260
F1.5707963267948966
g235
tp261
asS's'
p262
(lp263
(g224
I0
g22
tp264
ag226
ag227
ag229
ag230
ag232
ag233
ag234
ag236
ag237
ag238
ag239
ag240
ag233
ag241
ag242
ag243
ag245
ag246
ag247
ag246
ag249
ag250
ag251
ag252
ag253
ag254
ag246
ag255
ag256
ag249
ag251
ag252
ag246
ag249
ag250
ag251
ag252
ag254
ag246
ag255
ag256
ag249
ag257
ag258
ag252
ag246
ag249
ag251
ag252
ag246
ag249
ag251
ag259
ag251
asS'ui'
p265
(lp266
S'hp'
p267
ag222
ag222
aS'ss'
p268
ag267
ag222
ag222
ag267
ag267
ag222
ag222
aS'hs'
p269
ag222
ag267
ag222
ag269
ag268
ag267
ag222
ag267
ag222
ag268
ag269
ag222
ag268
ag222
ag267
ag267
ag269
ag222
ag269
ag222
ag267
ag222
ag269
ag269
ag222
ag222
ag267
ag268
ag269
ag222
ag267
ag267
ag222
ag267
ag222
ag269
ag222
ag267
ag222
ag269
ag267
ag269
ag268
asS'um_before'
p270
(lp271
g267
ag268
ag222
ag222
ag267
ag222
ag268
ag267
ag267
ag268
ag269
ag269
ag222
ag267
ag267
ag269
ag268
ag267
ag269
ag267
ag222
ag268
ag269
ag222
ag268
ag222
ag267
ag267
ag269
ag222
ag269
ag222
ag267
ag222
ag268
ag269
ag222
ag222
ag267
ag267
ag269
ag222
ag267
ag267
ag222
ag267
ag222
ag269
ag222
ag267
ag222
ag269
ag267
ag269
ag268
asS'um_after'
p272
(lp273
g267
ag268
ag222
ag222
ag267
ag222
ag268
ag267
ag267
ag268
ag269
ag269
ag222
ag267
ag267
ag269
ag268
ag267
ag269
ag267
ag222
ag268
ag269
ag222
ag268
ag222
ag267
ag267
ag269
ag222
ag269
ag222
ag267
ag222
ag268
ag269
ag222
ag222
ag267
ag267
ag269
ag222
ag267
ag267
ag222
ag267
ag222
ag269
ag222
ag267
ag222
ag269
ag267
ag269
ag268
asS'is_normalized_entropy_less_than_threshold'
p274
(lp275
g50
(g51
(S'b1'
p276
I0
I1
tp277
Rp278
(I3
S'|'
p279
NNNI-1
I-1
I0
tp280
bS'\x01'
p281
tp282
Rp283
ag283
ag283
ag283
ag283
ag283
ag283
ag50
(g278
S'\x00'
p284
tp285
Rp286
ag286
ag283
ag283
ag283
ag283
ag283
ag283
ag283
ag283
ag283
ag286
ag283
ag283
ag283
ag283
ag283
ag283
ag283
ag283
ag286
ag283
ag283
ag283
ag283
ag283
ag283
ag283
ag283
ag283
ag283
ag283
ag286
ag283
ag283
ag286
ag283
ag283
ag283
ag283
ag283
ag283
ag283
ag283
ag283
ag283
ag283
ag283
asaa(lp287
S'index'
p288
aI53424
aatp289
Rp290
.