ccollections
OrderedDict
p0
((lp1
(lp2
S'combination_dict'
p3
ag0
((lp4
(lp5
S'r_to_g_config'
p6
aS'tr'
p7
aa(lp8
S'num_turns'
p9
aI3
aa(lp10
S'start_direction'
p11
acutils_ms
StartDirection
p12
(I0
tp13
Rp14
aa(lp15
S'assistance_type'
p16
acutils_ms
AssistanceType
p17
(I0
tp18
Rp19
aa(lp20
S'start_mode'
p21
aS'y'
p22
aa(lp23
S'ui_given_a_noise'
p24
aF0.7
aa(lp25
S'um_given_ui_noise'
p26
aF0.7
aa(lp27
S'entropy_threshold'
p28
aF0.7
aatp29
Rp30
aa(lp31
S'data'
p32
accollections
defaultdict
p33
(c__builtin__
list
p34
tp35
Rp36
S'a'
p37
(lp38
S'mode_l'
p39
aS'mode_r'
p40
ag40
ag40
ag40
aS'move_p'
p41
ag40
ag39
ag39
ag40
ag41
ag40
ag41
ag41
ag39
ag41
ag41
ag39
ag40
ag39
ag39
ag40
ag41
ag41
ag39
ag40
ag40
ag39
ag39
ag39
ag39
ag39
ag39
ag39
ag40
ag40
ag41
ag39
ag39
ag40
ag41
ag39
ag40
ag40
ag41
ag39
ag40
ag40
ag41
ag41
ag40
ag40
ag40
ag40
ag40
ag41
ag39
ag41
ag39
ag39
ag41
ag40
ag40
ag41
ag40
ag40
ag41
ag39
ag39
ag39
ag40
ag40
ag41
ag39
ag41
ag40
ag39
ag40
ag40
ag40
ag40
ag40
ag41
ag39
ag41
ag40
ag40
ag40
ag41
ag39
ag41
ag39
ag40
ag40
ag41
ag39
ag41
ag40
ag41
asS'assistance_match_with_ground_truth'
p42
(lp43
I00
aI00
aI00
aI00
aI01
aI00
aI00
aI00
aI00
aI01
aI00
aI01
aI00
aI00
aI01
aI00
aI01
aI00
aI00
aI00
aI00
aI01
aI00
aI00
aI00
aI00
aI00
aI00
aI00
aI00
aI00
aI00
aI00
aI00
aI00
aI01
aI01
aI00
aI00
aI01
aI01
aI00
aI00
aI01
aI00
aI00
aI00
aI01
aI00
aI01
aI00
aI00
aI00
aI00
aI01
aI00
aI01
aI00
aI00
aI01
aI01
aI00
aI01
aI00
aI00
aI01
aI00
aI00
aI00
aI00
aI00
aI01
aI00
aI01
aI01
aI00
aI00
aI00
aI00
aI00
aI00
aI01
aI01
aI01
aI01
aI00
aI00
aI01
aI00
aI01
aI00
aI00
aI00
aI01
aI00
aI01
aI00
aI01
aI01
asS'is_u_intended_equals_um'
p44
(lp45
I01
aI00
aI00
aI00
aI01
aI01
aI00
aI01
aI01
aI01
aI01
aI01
aI01
aI00
aI01
aI01
aI01
aI01
aI00
aI01
aI01
aI01
aI01
aI00
aI01
aI00
aI00
aI01
aI00
aI00
aI00
aI00
aI01
aI01
aI00
aI01
aI01
aI00
aI01
aI01
aI01
aI01
aI00
aI01
aI01
aI01
aI00
aI01
aI01
aI01
aI00
aI00
aI00
aI00
aI01
aI00
aI01
aI01
aI01
aI01
aI01
aI00
aI01
aI01
aI00
aI01
aI00
aI01
aI01
aI01
aI00
aI01
aI01
aI01
aI01
aI00
aI01
aI00
aI00
aI00
aI00
aI01
aI01
aI01
aI01
aI00
aI00
aI01
aI00
aI01
aI00
aI01
aI00
aI01
aI00
aI01
aI01
aI01
aI01
asS'total_steps'
p46
I99
sS'normalized_h_of_p_ui_given_um'
p47
(lp48
cnumpy.core.multiarray
scalar
p49
(cnumpy
dtype
p50
(S'f8'
p51
I0
I1
tp52
Rp53
(I3
S'<'
p54
NNNI-1
I-1
I0
tp55
bS'\xc2:jm\x95\xb9\xed?'
p56
tp57
Rp58
ag49
(g53
S'\xa2-\x8e\x16X\x99\xe2?'
p59
tp60
Rp61
ag49
(g53
S'\xa2-\x8e\x16X\x99\xe2?'
p62
tp63
Rp64
ag49
(g53
S'\xa2-\x8e\x16X\x99\xe2?'
p65
tp66
Rp67
ag49
(g53
S'\x95Hb\xfak~\xe2?'
p68
tp69
Rp70
ag49
(g53
S'F\x8c?\x08$\xbb\xea?'
p71
tp72
Rp73
ag49
(g53
S'&8\xbc\xe2\x9f\xbc\xe9?'
p74
tp75
Rp76
ag49
(g53
S'Kn\xff\xe1+D\xe8?'
p77
tp78
Rp79
ag49
(g53
S'\xc2:jm\x95\xb9\xed?'
p80
tp81
Rp82
ag49
(g53
S'\x95Hb\xfak~\xe2?'
p83
tp84
Rp85
ag49
(g53
S'F\x8c?\x08$\xbb\xea?'
p86
tp87
Rp88
ag49
(g53
S'\x95Hb\xfak~\xe2?'
p89
tp90
Rp91
ag49
(g53
S'dV2\xf2\xbe\x1c\xee?'
p92
tp93
Rp94
ag49
(g53
S'\x04\x83\x16e\x9a\xe3\xea?'
p95
tp96
Rp97
ag49
(g53
S'z\xf7f\xd9\xce\xeb\xdf?'
p98
tp99
Rp100
ag49
(g53
S'dV2\xf2\xbe\x1c\xee?'
p101
tp102
Rp103
ag49
(g53
S'j\x91=<=\xae\xe1?'
p104
tp105
Rp106
ag49
(g53
S'\xc2:jm\x95\xb9\xed?'
p107
tp108
Rp109
ag49
(g53
S'&8\xbc\xe2\x9f\xbc\xe9?'
p110
tp111
Rp112
ag49
(g53
S'Kn\xff\xe1+D\xe8?'
p113
tp114
Rp115
ag49
(g53
S'\xc2:jm\x95\xb9\xed?'
p116
tp117
Rp118
ag49
(g53
S'\x95Hb\xfak~\xe2?'
p119
tp120
Rp121
ag49
(g53
S'dV2\xf2\xbe\x1c\xee?'
p122
tp123
Rp124
ag49
(g53
S'\x04\x83\x16e\x9a\xe3\xea?'
p125
tp126
Rp127
ag49
(g53
S'\xc2:jm\x95\xb9\xed?'
p128
tp129
Rp130
ag49
(g53
S'\xa2-\x8e\x16X\x99\xe2?'
p131
tp132
Rp133
ag49
(g53
S'Cw\x9e\xdc\xda5\xe8?'
p134
tp135
Rp136
ag49
(g53
S'Kn\xff\xe1+D\xe8?'
p137
tp138
Rp139
ag49
(g53
S'o\xd7a\xba\xd8\xdc\xee?'
p140
tp141
Rp142
ag49
(g53
S'o\xd7a\xba\xd8\xdc\xee?'
p143
tp144
Rp145
ag49
(g53
S'o\xd7a\xba\xd8\xdc\xee?'
p146
tp147
Rp148
ag49
(g53
S'o\xd7a\xba\xd8\xdc\xee?'
p149
tp150
Rp151
ag49
(g53
S'Kn\xff\xe1+D\xe8?'
p152
tp153
Rp154
ag49
(g53
S'\xc2:jm\x95\xb9\xed?'
p155
tp156
Rp157
ag49
(g53
S'\xa2-\x8e\x16X\x99\xe2?'
p158
tp159
Rp160
ag49
(g53
S'\x95Hb\xfak~\xe2?'
p161
tp162
Rp163
ag49
(g53
S'j\x91=<=\xae\xe1?'
p164
tp165
Rp166
ag49
(g53
S'o\xd7a\xba\xd8\xdc\xee?'
p167
tp168
Rp169
ag49
(g53
S'\xc2:jm\x95\xb9\xed?'
p170
tp171
Rp172
ag49
(g53
S'\x95Hb\xfak~\xe2?'
p173
tp174
Rp175
ag49
(g53
S'j\x91=<=\xae\xe1?'
p176
tp177
Rp178
ag49
(g53
S'\xc2:jm\x95\xb9\xed?'
p179
tp180
Rp181
ag49
(g53
S'Cw\x9e\xdc\xda5\xe8?'
p182
tp183
Rp184
ag49
(g53
S'\x95Hb\xfak~\xe2?'
p185
tp186
Rp187
ag49
(g53
S'dV2\xf2\xbe\x1c\xee?'
p188
tp189
Rp190
ag49
(g53
S'\xc2:jm\x95\xb9\xed?'
p191
tp192
Rp193
ag49
(g53
S'Cw\x9e\xdc\xda5\xe8?'
p194
tp195
Rp196
ag49
(g53
S'\x95Hb\xfak~\xe2?'
p197
tp198
Rp199
ag49
(g53
S'dV2\xf2\xbe\x1c\xee?'
p200
tp201
Rp202
ag49
(g53
S'j\x91=<=\xae\xe1?'
p203
tp204
Rp205
ag49
(g53
S'\xa2-\x8e\x16X\x99\xe2?'
p206
tp207
Rp208
ag49
(g53
S'Cw\x9e\xdc\xda5\xe8?'
p209
tp210
Rp211
ag49
(g53
S'Cw\x9e\xdc\xda5\xe8?'
p212
tp213
Rp214
ag49
(g53
S'\xa2-\x8e\x16X\x99\xe2?'
p215
tp216
Rp217
ag49
(g53
S'\x95Hb\xfak~\xe2?'
p218
tp219
Rp220
ag49
(g53
S'\x04\x83\x16e\x9a\xe3\xea?'
p221
tp222
Rp223
ag49
(g53
S'z\xf7f\xd9\xce\xeb\xdf?'
p224
tp225
Rp226
ag49
(g53
S'dV2\xf2\xbe\x1c\xee?'
p227
tp228
Rp229
ag49
(g53
S'Kn\xff\xe1+D\xe8?'
p230
tp231
Rp232
ag49
(g53
S'z\xf7f\xd9\xce\xeb\xdf?'
p233
tp234
Rp235
ag49
(g53
S'j\x91=<=\xae\xe1?'
p236
tp237
Rp238
ag49
(g53
S'\xa2-\x8e\x16X\x99\xe2?'
p239
tp240
Rp241
ag49
(g53
S'\x95Hb\xfak~\xe2?'
p242
tp243
Rp244
ag49
(g53
S'F\x8c?\x08$\xbb\xea?'
p245
tp246
Rp247
ag49
(g53
S'Cw\x9e\xdc\xda5\xe8?'
p248
tp249
Rp250
ag49
(g53
S'\x95Hb\xfak~\xe2?'
p251
tp252
Rp253
ag49
(g53
S'\x04\x83\x16e\x9a\xe3\xea?'
p254
tp255
Rp256
ag49
(g53
S'Kn\xff\xe1+D\xe8?'
p257
tp258
Rp259
ag49
(g53
S'Kn\xff\xe1+D\xe8?'
p260
tp261
Rp262
ag49
(g53
S'\xc2:jm\x95\xb9\xed?'
p263
tp264
Rp265
ag49
(g53
S'Cw\x9e\xdc\xda5\xe8?'
p266
tp267
Rp268
ag49
(g53
S'\x95Hb\xfak~\xe2?'
p269
tp270
Rp271
ag49
(g53
S'dV2\xf2\xbe\x1c\xee?'
p272
tp273
Rp274
ag49
(g53
S'z\xf7f\xd9\xce\xeb\xdf?'
p275
tp276
Rp277
ag49
(g53
S'j\x91=<=\xae\xe1?'
p278
tp279
Rp280
ag49
(g53
S'&8\xbc\xe2\x9f\xbc\xe9?'
p281
tp282
Rp283
ag49
(g53
S'\xc2:jm\x95\xb9\xed?'
p284
tp285
Rp286
ag49
(g53
S'Cw\x9e\xdc\xda5\xe8?'
p287
tp288
Rp289
ag49
(g53
S'Cw\x9e\xdc\xda5\xe8?'
p290
tp291
Rp292
ag49
(g53
S'\xa2-\x8e\x16X\x99\xe2?'
p293
tp294
Rp295
ag49
(g53
S'Cw\x9e\xdc\xda5\xe8?'
p296
tp297
Rp298
ag49
(g53
S'\x95Hb\xfak~\xe2?'
p299
tp300
Rp301
ag49
(g53
S'j\x91=<=\xae\xe1?'
p302
tp303
Rp304
ag49
(g53
S'z\xf7f\xd9\xce\xeb\xdf?'
p305
tp306
Rp307
ag49
(g53
S'j\x91=<=\xae\xe1?'
p308
tp309
Rp310
ag49
(g53
S'\xa2-\x8e\x16X\x99\xe2?'
p311
tp312
Rp313
ag49
(g53
S'\xa2-\x8e\x16X\x99\xe2?'
p314
tp315
Rp316
ag49
(g53
S'\x95Hb\xfak~\xe2?'
p317
tp318
Rp319
ag49
(g53
S'\x04\x83\x16e\x9a\xe3\xea?'
p320
tp321
Rp322
ag49
(g53
S'z\xf7f\xd9\xce\xeb\xdf?'
p323
tp324
Rp325
ag49
(g53
S'\x04\x83\x16e\x9a\xe3\xea?'
p326
tp327
Rp328
ag49
(g53
S'\xc2:jm\x95\xb9\xed?'
p329
tp330
Rp331
ag49
(g53
S'\xa2-\x8e\x16X\x99\xe2?'
p332
tp333
Rp334
ag49
(g53
S'\x95Hb\xfak~\xe2?'
p335
tp336
Rp337
ag49
(g53
S'\x04\x83\x16e\x9a\xe3\xea?'
p338
tp339
Rp340
ag49
(g53
S'z\xf7f\xd9\xce\xeb\xdf?'
p341
tp342
Rp343
ag49
(g53
S'F\x8c?\x08$\xbb\xea?'
p344
tp345
Rp346
ag49
(g53
S'\x95Hb\xfak~\xe2?'
p347
tp348
Rp349
ag49
(g53
S'j\x91=<=\xae\xe1?'
p350
tp351
Rp352
asS'sp'
p353
(lp354
(S'p0'
p355
I0
S't'
p356
tp357
ag357
ag357
ag357
a(g355
I0
S'x'
p358
tp359
a(g355
I0
g356
tp360
a(g355
I0
S'y'
p361
tp362
a(g355
I0
g361
tp363
ag357
ag359
ag360
ag359
a(g355
I0
g358
tp364
a(g355
I0
g361
tp365
a(g355
I0
g358
tp366
ag364
a(S'p1'
p367
I0
g358
tp368
a(g367
I0
g361
tp369
a(g367
I0
g358
tp370
a(g367
I0
g358
tp371
ag369
a(g367
I0
g356
tp372
a(g367
I0
g356
tp373
a(g367
I0
g358
tp374
ag369
ag369
a(g355
I0
g361
tp375
ag363
a(g355
I0
g361
tp376
ag376
ag376
ag376
ag363
ag357
ag357
ag359
ag368
a(g367
I0
g358
tp377
ag369
ag372
a(g367
F1.5707963267948966
g356
tp378
a(g367
F1.5707963267948966
g358
tp379
a(g367
F1.5707963267948966
g358
tp380
a(g367
F1.5707963267948966
g361
tp381
a(g355
F1.5707963267948966
g361
tp382
a(g355
F1.5707963267948966
g356
tp383
a(g355
F1.5707963267948966
g356
tp384
a(g355
F1.5707963267948966
g358
tp385
a(g355
F1.5707963267948966
g358
tp386
a(g367
F1.5707963267948966
g358
tp387
ag387
ag380
ag380
ag380
ag381
a(g367
F1.5707963267948966
g356
tp388
a(g367
F1.5707963267948966
g361
tp389
ag382
a(g355
F1.5707963267948966
g361
tp390
a(g355
F1.5707963267948966
g358
tp391
ag387
ag387
ag381
a(g367
F1.5707963267948966
g358
tp392
ag380
ag381
ag388
a(g367
F1.5707963267948966
g356
tp393
ag393
ag379
ag380
ag381
ag382
ag391
ag387
a(g367
F1.5707963267948966
g356
tp394
ag379
ag380
ag380
ag380
ag380
ag381
a(S'p2'
p395
F1.5707963267948966
g361
tp396
a(g395
F1.5707963267948966
g358
tp397
a(S'p3'
p398
F1.5707963267948966
g358
tp399
ag399
ag399
a(g398
F1.5707963267948966
g361
tp400
a(g398
F1.5707963267948966
g356
tp401
a(g398
F1.5707963267948966
g361
tp402
ag401
a(g398
F1.5707963267948966
g358
tp403
ag403
ag400
ag401
ag402
a(g398
F1.5707963267948966
g358
tp404
ag400
a(S'p4'
p405
F1.5707963267948966
g361
tp406
asS's'
p407
(lp408
(g355
I0
g22
tp409
ag357
ag357
ag357
ag357
ag359
ag360
ag362
ag363
ag357
ag359
ag360
ag359
ag364
ag365
ag366
ag364
ag368
ag369
ag370
ag371
ag369
ag372
ag373
ag374
ag369
ag369
ag375
ag363
ag376
ag376
ag376
ag376
ag363
ag357
ag357
ag359
ag368
ag377
ag369
ag372
ag378
ag379
ag380
ag381
ag382
ag383
ag384
ag385
ag386
ag387
ag387
ag380
ag380
ag380
ag381
ag388
ag389
ag382
ag390
ag391
ag387
ag387
ag381
ag392
ag380
ag381
ag388
ag393
ag393
ag379
ag380
ag381
ag382
ag391
ag387
ag394
ag379
ag380
ag380
ag380
ag380
ag381
ag396
ag397
ag399
ag399
ag399
ag400
ag401
ag402
ag401
ag403
ag403
ag400
ag401
ag402
ag404
ag400
asS'ui'
p410
(lp411
S'ss'
p412
aS'hp'
p413
ag413
ag413
ag412
ag353
ag412
aS'hs'
p414
ag413
ag413
ag414
ag413
ag413
ag353
ag414
ag412
ag353
ag413
ag412
ag353
ag353
ag412
ag412
ag353
ag353
ag413
ag413
ag353
ag414
ag412
ag353
ag414
ag413
ag413
ag413
ag413
ag353
ag413
ag414
ag413
ag414
ag414
ag412
ag412
ag414
ag413
ag413
ag413
ag412
ag353
ag353
ag412
ag353
ag414
ag412
ag413
ag353
ag353
ag414
ag412
ag353
ag413
ag413
ag412
ag413
ag413
ag413
ag353
ag413
ag413
ag412
ag353
ag412
ag414
ag413
ag413
ag412
ag413
ag412
ag353
ag412
ag413
ag353
ag414
ag353
ag413
ag413
ag413
ag413
ag414
ag413
ag353
ag353
ag413
ag353
ag414
ag414
ag412
ag353
asS'um_before'
p415
(lp416
g413
ag353
ag353
ag353
ag413
ag414
ag414
ag353
ag413
ag413
ag414
ag413
ag412
ag413
ag414
ag412
ag353
ag413
ag414
ag353
ag413
ag413
ag412
ag413
ag413
ag353
ag412
ag353
ag412
ag412
ag412
ag412
ag353
ag413
ag353
ag413
ag353
ag412
ag413
ag413
ag353
ag413
ag412
ag413
ag412
ag413
ag412
ag413
ag412
ag353
ag353
ag412
ag412
ag353
ag413
ag413
ag414
ag412
ag353
ag414
ag353
ag353
ag413
ag414
ag412
ag413
ag413
ag353
ag353
ag413
ag412
ag413
ag412
ag414
ag353
ag414
ag413
ag412
ag412
ag353
ag412
ag413
ag353
ag414
ag353
ag353
ag353
ag413
ag413
ag414
ag413
ag413
ag353
ag413
ag413
ag414
ag414
ag413
ag353
asS'um_after'
p417
(lp418
g413
aNaNaNag413
ag414
ag414
ag353
ag413
ag413
ag414
ag413
ag412
ag413
ag414
ag412
ag353
ag413
ag414
ag353
ag413
ag413
ag412
ag413
ag413
aNag412
ag353
ag412
ag412
ag412
ag412
ag353
ag413
aNag413
ag353
ag412
ag413
ag413
ag353
ag413
ag412
ag413
ag412
ag413
ag412
ag413
ag412
ag353
aNag412
ag412
aNag413
ag413
ag414
ag412
ag353
ag414
ag353
aNag413
ag414
ag412
ag413
ag413
ag353
ag353
ag413
ag412
ag413
ag412
ag414
ag353
ag414
ag413
ag412
ag412
aNag412
ag413
ag353
ag414
ag353
aNaNag413
ag413
ag414
ag413
ag413
aNag413
ag413
ag414
ag414
ag413
ag353
asS'is_normalized_entropy_less_than_threshold'
p419
(lp420
g49
(g50
(S'b1'
p421
I0
I1
tp422
Rp423
(I3
S'|'
p424
NNNI-1
I-1
I0
tp425
bS'\x00'
p426
tp427
Rp428
ag49
(g423
S'\x01'
p429
tp430
Rp431
ag431
ag431
ag431
ag428
ag428
ag428
ag428
ag431
ag428
ag431
ag428
ag428
ag431
ag428
ag431
ag428
ag428
ag428
ag428
ag431
ag428
ag428
ag428
ag431
ag428
ag428
ag428
ag428
ag428
ag428
ag428
ag428
ag431
ag431
ag431
ag428
ag428
ag431
ag431
ag428
ag428
ag431
ag428
ag428
ag428
ag431
ag428
ag431
ag431
ag428
ag428
ag431
ag431
ag428
ag431
ag428
ag428
ag431
ag431
ag431
ag431
ag428
ag428
ag431
ag428
ag428
ag428
ag428
ag428
ag431
ag428
ag431
ag431
ag428
ag428
ag428
ag428
ag431
ag428
ag431
ag431
ag431
ag431
ag431
ag431
ag431
ag428
ag431
ag428
ag428
ag431
ag431
ag428
ag431
ag428
ag431
ag431
asaa(lp432
S'index'
p433
aI20779
aatp434
Rp435
.