ccollections
OrderedDict
p0
((lp1
(lp2
S'combination_dict'
p3
ag0
((lp4
(lp5
S'r_to_g_config'
p6
aS'bl'
p7
aa(lp8
S'num_turns'
p9
aI3
aa(lp10
S'start_direction'
p11
acutils_ms
StartDirection
p12
(I0
tp13
Rp14
aa(lp15
S'assistance_type'
p16
acutils_ms
AssistanceType
p17
(I0
tp18
Rp19
aa(lp20
S'start_mode'
p21
aS't'
p22
aa(lp23
S'ui_given_a_noise'
p24
aF0.1
aa(lp25
S'um_given_ui_noise'
p26
aF0.7
aa(lp27
S'entropy_threshold'
p28
aF0.5
aatp29
Rp30
aa(lp31
S'data'
p32
accollections
defaultdict
p33
(c__builtin__
list
p34
tp35
Rp36
S'a'
p37
(lp38
S'mode_r'
p39
aS'move_n'
p40
ag40
aS'mode_l'
p41
ag40
ag40
ag39
ag40
ag41
ag40
ag40
ag41
ag40
ag41
aS'move_p'
p42
ag39
ag42
ag39
ag42
ag42
ag42
ag42
ag41
ag40
asS'assistance_match_with_ground_truth'
p43
(lp44
I01
aI00
aI00
aI01
aI00
aI01
aI01
aI01
aI01
aI00
aI00
aI01
aI01
aI01
aI00
aI01
aI00
aI01
aI00
aI00
aI00
aI01
aI01
aI01
asS'is_u_intended_equals_um'
p45
(lp46
I01
aI00
aI00
aI01
aI00
aI01
aI01
aI01
aI01
aI00
aI00
aI01
aI01
aI01
aI00
aI01
aI00
aI01
aI00
aI00
aI00
aI01
aI01
aI01
asS'total_steps'
p47
I24
sS'normalized_h_of_p_ui_given_um'
p48
(lp49
cnumpy.core.multiarray
scalar
p50
(cnumpy
dtype
p51
(S'f8'
p52
I0
I1
tp53
Rp54
(I3
S'<'
p55
NNNI-1
I-1
I0
tp56
bS'\xb5Oe\xf9\x97\xd3\xc2?'
p57
tp58
Rp59
ag50
(g54
S'\x9a\xbc\xd7`\xf0\x92\xeb?'
p60
tp61
Rp62
ag50
(g54
S'\xa7\x90A\xf5\x89\x91\xe0?'
p63
tp64
Rp65
ag50
(g54
S'\xca\xe4qYH\xf2\xaf?'
p66
tp67
Rp68
ag50
(g54
S'M\x0f{\xe5\x1cZ\xdd?'
p69
tp70
Rp71
ag50
(g54
S'PmYW\xa9~\xc5?'
p72
tp73
Rp74
ag50
(g54
S'\xb5Oe\xf9\x97\xd3\xc2?'
p75
tp76
Rp77
ag50
(g54
S'PmYW\xa9~\xc5?'
p78
tp79
Rp80
ag50
(g54
S'\xca\xe4qYH\xf2\xaf?'
p81
tp82
Rp83
ag50
(g54
S'M\x0f{\xe5\x1cZ\xdd?'
p84
tp85
Rp86
ag50
(g54
S'\xa7\x90A\xf5\x89\x91\xe0?'
p87
tp88
Rp89
ag50
(g54
S'\xca\xe4qYH\xf2\xaf?'
p90
tp91
Rp92
ag50
(g54
S'PmYW\xa9~\xc5?'
p93
tp94
Rp95
ag50
(g54
S'\xca\xe4qYH\xf2\xaf?'
p96
tp97
Rp98
ag50
(g54
S'\xe2\x7f\x9b\xcf\xc3\x06\xe1?'
p99
tp100
Rp101
ag50
(g54
S'\xb5Oe\xf9\x97\xd3\xc2?'
p102
tp103
Rp104
ag50
(g54
S'\xe2\x7f\x9b\xcf\xc3\x06\xe1?'
p105
tp106
Rp107
ag50
(g54
S'\xb5Oe\xf9\x97\xd3\xc2?'
p108
tp109
Rp110
ag50
(g54
S'\x13b\xbd\x8b\xc3\x80\xd0?'
p111
tp112
Rp113
ag50
(g54
S'\x13b\xbd\x8b\xc3\x80\xd0?'
p114
tp115
Rp116
ag50
(g54
S'\x13b\xbd\x8b\xc3\x80\xd0?'
p117
tp118
Rp119
ag50
(g54
S';\xf1\x82\xf4g\xf7\xaf?'
p120
tp121
Rp122
ag50
(g54
S'\xca\xe4qYH\xf2\xaf?'
p123
tp124
Rp125
ag50
(g54
S'PmYW\xa9~\xc5?'
p126
tp127
Rp128
asS'sp'
p129
(lp130
(S'p0'
p131
I0
S'x'
p132
tp133
a(g131
I0
g132
tp134
a(g131
I0
S'y'
p135
tp136
a(g131
I0
g132
tp137
ag137
a(S'p1'
p138
I0
g132
tp139
a(g138
I0
g135
tp140
a(S'p2'
p141
I0
g135
tp142
a(g141
I0
g132
tp143
ag143
a(g141
I0
g135
tp144
ag143
a(S'p3'
p145
I0
g132
tp146
a(g145
I0
S't'
p147
tp148
a(g145
I0
g135
tp149
a(g145
I0
g147
tp150
ag149
ag150
ag150
ag150
ag150
a(g145
F1.5707963267948966
g147
tp151
a(g145
F1.5707963267948966
g135
tp152
a(S'p4'
p153
F1.5707963267948966
g135
tp154
asS's'
p155
(lp156
(g131
I0
g22
tp157
ag133
ag134
ag136
ag137
ag137
ag139
ag140
ag142
ag143
ag143
ag144
ag143
ag146
ag148
ag149
ag150
ag149
ag150
ag150
ag150
ag150
ag151
ag152
asS'ui'
p158
(lp159
S'hp'
p160
ag129
aS'ss'
p161
aS'hs'
p162
ag162
ag161
ag160
ag161
ag162
ag161
ag161
ag162
ag161
ag162
ag162
ag160
ag162
ag160
ag129
ag129
ag129
ag129
ag162
ag161
asS'um_before'
p163
(lp164
g160
ag129
ag160
ag162
ag162
ag161
ag160
ag161
ag162
ag162
ag160
ag162
ag161
ag162
ag162
ag160
ag162
ag160
ag161
ag161
ag161
ag129
ag162
ag161
asS'um_after'
p165
(lp166
g160
ag129
ag160
ag162
aNag161
ag160
ag161
ag162
aNag160
ag162
ag161
ag162
ag162
ag160
ag162
ag160
aNaNaNag129
ag162
ag161
asS'is_normalized_entropy_less_than_threshold'
p167
(lp168
g50
(g51
(S'b1'
p169
I0
I1
tp170
Rp171
(I3
S'|'
p172
NNNI-1
I-1
I0
tp173
bS'\x01'
p174
tp175
Rp176
ag50
(g171
S'\x00'
p177
tp178
Rp179
ag179
ag176
ag176
ag176
ag176
ag176
ag176
ag176
ag179
ag176
ag176
ag176
ag179
ag176
ag179
ag176
ag176
ag176
ag176
ag176
ag176
ag176
asaa(lp180
S'index'
p181
aI76959
aatp182
Rp183
.