ccollections
OrderedDict
p0
((lp1
(lp2
S'combination_dict'
p3
ag0
((lp4
(lp5
S'r_to_g_config'
p6
aS'tl'
p7
aa(lp8
S'num_turns'
p9
aI3
aa(lp10
S'start_direction'
p11
acutils_ms
StartDirection
p12
(I0
tp13
Rp14
aa(lp15
S'assistance_type'
p16
acutils_ms
AssistanceType
p17
(I0
tp18
Rp19
aa(lp20
S'start_mode'
p21
aS'y'
p22
aa(lp23
S'ui_given_a_noise'
p24
aF0.3
aa(lp25
S'um_given_ui_noise'
p26
aF0.5
aa(lp27
S'entropy_threshold'
p28
aF0.8
aatp29
Rp30
aa(lp31
S'data'
p32
accollections
defaultdict
p33
(c__builtin__
list
p34
tp35
Rp36
S'a'
p37
(lp38
S'mode_l'
p39
aS'mode_r'
p40
aS'move_n'
p41
ag40
ag39
aS'move_p'
p42
ag40
ag39
ag42
ag39
ag39
ag39
ag40
ag40
ag41
ag39
ag39
ag41
ag41
ag41
ag39
ag42
ag39
ag42
ag39
ag42
ag39
ag39
ag40
ag40
ag39
ag39
ag41
ag40
ag42
ag40
ag42
asS'assistance_match_with_ground_truth'
p43
(lp44
I00
aI01
aI01
aI00
aI01
aI00
aI00
aI01
aI01
aI00
aI00
aI00
aI00
aI01
aI00
aI00
aI01
aI00
aI00
aI01
aI01
aI01
aI01
aI00
aI01
aI00
aI00
aI00
aI00
aI00
aI00
aI01
aI01
aI01
aI00
aI01
aI01
asS'is_u_intended_equals_um'
p45
(lp46
I00
aI01
aI01
aI01
aI01
aI01
aI01
aI01
aI01
aI00
aI01
aI00
aI00
aI01
aI01
aI01
aI01
aI00
aI00
aI01
aI01
aI01
aI01
aI01
aI01
aI00
aI01
aI00
aI00
aI01
aI00
aI01
aI01
aI01
aI01
aI01
aI01
asS'total_steps'
p47
I37
sS'normalized_h_of_p_ui_given_um'
p48
(lp49
cnumpy.core.multiarray
scalar
p50
(cnumpy
dtype
p51
(S'f8'
p52
I0
I1
tp53
Rp54
(I3
S'<'
p55
NNNI-1
I-1
I0
tp56
bS'\xcb\x0bt\nw1\xea?'
p57
tp58
Rp59
ag50
(g54
S'\xac\x9b\xcd\x14v\x08\xc2?'
p60
tp61
Rp62
ag50
(g54
S' \xe562\xb0e\xd2?'
p63
tp64
Rp65
ag50
(g54
S'\xc5\xe8O5\xeb#\xea?'
p66
tp67
Rp68
ag50
(g54
S'\xafR\x8aT\xc1\xa4\xd0?'
p69
tp70
Rp71
ag50
(g54
S'\xfd\xef)\xc6\x19\xfb\xe3?'
p72
tp73
Rp74
ag50
(g54
S'\xc5\xe8O5\xeb#\xea?'
p75
tp76
Rp77
ag50
(g54
S'\xafR\x8aT\xc1\xa4\xd0?'
p78
tp79
Rp80
ag50
(g54
S'\x06A\x11\xb1\x19\x8d\xd4?'
p81
tp82
Rp83
ag50
(g54
S'\xb4\x15Y\xaf1Q\xe4?'
p84
tp85
Rp86
ag50
(g54
S'N~\x10\x1f\xd5\xd4\xe8?'
p87
tp88
Rp89
ag50
(g54
S'\xcb\x0bt\nw1\xea?'
p90
tp91
Rp92
ag50
(g54
S'3Ym\xa0\xab\x9c\xe2?'
p93
tp94
Rp95
ag50
(g54
S'\xac\x9b\xcd\x14v\x08\xc2?'
p96
tp97
Rp98
ag50
(g54
S'x\x92\xe4H\xcf\xbb\xe5?'
p99
tp100
Rp101
ag50
(g54
S'N~\x10\x1f\xd5\xd4\xe8?'
p102
tp103
Rp104
ag50
(g54
S'\xafR\x8aT\xc1\xa4\xd0?'
p105
tp106
Rp107
ag50
(g54
S'\x0b\xd5\xccJT\xb9\xe1?'
p108
tp109
Rp110
ag50
(g54
S'\x0b\xd5\xccJT\xb9\xe1?'
p111
tp112
Rp113
ag50
(g54
S' \xe562\xb0e\xd2?'
p114
tp115
Rp116
ag50
(g54
S'\xafR\x8aT\xc1\xa4\xd0?'
p117
tp118
Rp119
ag50
(g54
S'\x06A\x11\xb1\x19\x8d\xd4?'
p120
tp121
Rp122
ag50
(g54
S'\xafR\x8aT\xc1\xa4\xd0?'
p123
tp124
Rp125
ag50
(g54
S'\x86\xea\x98l\xbd)\xe6?'
p126
tp127
Rp128
ag50
(g54
S'\xafR\x8aT\xc1\xa4\xd0?'
p129
tp130
Rp131
ag50
(g54
S'\xdd\x17Q#\x91>\xed?'
p132
tp133
Rp134
ag50
(g54
S'N~\x10\x1f\xd5\xd4\xe8?'
p135
tp136
Rp137
ag50
(g54
S'\xcb\x0bt\nw1\xea?'
p138
tp139
Rp140
ag50
(g54
S'\xce\x08\xd0\xcc\x9a\xb9\xe9?'
p141
tp142
Rp143
ag50
(g54
S'\xc5\xe8O5\xeb#\xea?'
p144
tp145
Rp146
ag50
(g54
S'\xb4\x15Y\xaf1Q\xe4?'
p147
tp148
Rp149
ag50
(g54
S'\xafR\x8aT\xc1\xa4\xd0?'
p150
tp151
Rp152
ag50
(g54
S' \xe562\xb0e\xd2?'
p153
tp154
Rp155
ag50
(g54
S'\xac\x9b\xcd\x14v\x08\xc2?'
p156
tp157
Rp158
ag50
(g54
S'\xfd\xef)\xc6\x19\xfb\xe3?'
p159
tp160
Rp161
ag50
(g54
S'\xac\x9b\xcd\x14v\x08\xc2?'
p162
tp163
Rp164
ag50
(g54
S'\x06A\x11\xb1\x19\x8d\xd4?'
p165
tp166
Rp167
asS'sp'
p168
(lp169
(S'p0'
p170
I0
S't'
p171
tp172
a(g170
I0
S'x'
p173
tp174
a(S'p1'
p175
I0
g173
tp176
a(g175
I0
g171
tp177
a(g175
I0
S'y'
p178
tp179
a(g175
I0
g173
tp180
ag177
ag179
a(S'p2'
p181
I0
g178
tp182
ag182
a(g181
I0
g178
tp183
a(g181
I0
g171
tp184
ag184
a(g181
I0
g173
tp185
a(g181
I0
g178
tp186
ag183
a(g181
I0
g173
tp187
ag187
ag187
a(S'p3'
p188
I0
g173
tp189
a(g188
I0
g171
tp190
a(g188
F1.5707963267948966
g171
tp191
a(g188
F1.5707963267948966
g178
tp192
a(g188
F1.5707963267948966
g171
tp193
ag192
a(g181
F1.5707963267948966
g178
tp194
a(g181
F1.5707963267948966
g178
tp195
a(g181
F1.5707963267948966
g171
tp196
a(g181
F1.5707963267948966
g171
tp197
a(g181
F1.5707963267948966
g178
tp198
ag198
a(g181
F1.5707963267948966
g173
tp199
a(g188
F1.5707963267948966
g173
tp200
a(g188
F1.5707963267948966
g178
tp201
a(g188
F1.5707963267948966
g173
tp202
ag201
a(S'p4'
p203
F1.5707963267948966
g178
tp204
asS's'
p205
(lp206
(g170
I0
g22
tp207
ag172
ag174
ag176
ag177
ag179
ag180
ag177
ag179
ag182
ag182
ag183
ag184
ag184
ag185
ag186
ag183
ag187
ag187
ag187
ag189
ag190
ag191
ag192
ag193
ag192
ag194
ag195
ag196
ag197
ag198
ag198
ag199
ag200
ag201
ag202
ag201
asS'ui'
p208
(lp209
S'hs'
p210
aS'hp'
p211
ag210
aS'ss'
p212
ag168
ag210
ag212
ag210
ag168
ag168
ag168
ag211
ag211
ag211
ag211
ag210
ag210
ag212
ag212
ag212
ag210
ag168
ag210
ag168
ag210
ag210
ag168
ag210
ag210
ag210
ag212
ag210
ag212
ag211
ag168
ag211
ag168
asS'um_before'
p213
(lp214
g211
ag211
ag212
ag210
ag210
ag210
ag210
ag210
ag168
ag212
ag168
ag211
ag168
ag211
ag211
ag168
ag210
ag210
ag210
ag212
ag210
ag168
ag210
ag211
ag210
ag212
ag168
ag211
ag212
ag210
ag212
ag210
ag212
ag211
ag210
ag211
ag168
asS'um_after'
p215
(lp216
g211
ag211
ag212
ag210
ag210
ag210
ag210
ag210
ag168
aNag168
ag211
aNag211
ag211
ag168
ag210
aNaNag212
ag210
ag168
ag210
ag211
ag210
ag212
ag168
ag211
ag212
ag210
aNag210
ag212
ag211
ag210
ag211
ag168
asS'is_normalized_entropy_less_than_threshold'
p217
(lp218
g50
(g51
(S'b1'
p219
I0
I1
tp220
Rp221
(I3
S'|'
p222
NNNI-1
I-1
I0
tp223
bS'\x00'
p224
tp225
Rp226
ag50
(g221
S'\x01'
p227
tp228
Rp229
ag229
ag226
ag229
ag229
ag226
ag229
ag229
ag229
ag229
ag226
ag229
ag229
ag229
ag229
ag229
ag229
ag229
ag229
ag229
ag229
ag229
ag229
ag229
ag226
ag229
ag226
ag226
ag226
ag229
ag229
ag229
ag229
ag229
ag229
ag229
asaa(lp230
S'index'
p231
aI49134
aatp232
Rp233
.