ccollections
OrderedDict
p0
((lp1
(lp2
S'combination_dict'
p3
ag0
((lp4
(lp5
S'r_to_g_config'
p6
aS'bl'
p7
aa(lp8
S'num_turns'
p9
aI2
aa(lp10
S'start_direction'
p11
acutils_ms
StartDirection
p12
(I0
tp13
Rp14
aa(lp15
S'assistance_type'
p16
acutils_ms
AssistanceType
p17
(I0
tp18
Rp19
aa(lp20
S'start_mode'
p21
aS'y'
p22
aa(lp23
S'ui_given_a_noise'
p24
aF0.1
aa(lp25
S'um_given_ui_noise'
p26
aF0.5
aa(lp27
S'entropy_threshold'
p28
aF0.7
aatp29
Rp30
aa(lp31
S'data'
p32
accollections
defaultdict
p33
(c__builtin__
list
p34
tp35
Rp36
S'a'
p37
(lp38
S'mode_l'
p39
ag39
ag39
aS'move_n'
p40
ag40
aS'mode_r'
p41
ag41
ag40
ag40
ag41
aS'move_p'
p42
ag41
ag40
ag40
asS'assistance_match_with_ground_truth'
p43
(lp44
I00
aI00
aI01
aI00
aI01
aI00
aI01
aI00
aI01
aI01
aI01
aI01
aI00
aI01
asS'is_u_intended_equals_um'
p45
(lp46
I00
aI00
aI01
aI00
aI01
aI01
aI01
aI00
aI01
aI01
aI01
aI01
aI00
aI01
asS'total_steps'
p47
I14
sS'normalized_h_of_p_ui_given_um'
p48
(lp49
cnumpy.core.multiarray
scalar
p50
(cnumpy
dtype
p51
(S'f8'
p52
I0
I1
tp53
Rp54
(I3
S'<'
p55
NNNI-1
I-1
I0
tp56
bS'\xc6\x95D\xa4bG\xdb?'
p57
tp58
Rp59
ag50
(g54
S'\xb4\xca\xc3x\xdd\x90\xd7?'
p60
tp61
Rp62
ag50
(g54
S':\xfbDO\x82\xa9\xb1?'
p63
tp64
Rp65
ag50
(g54
S'\xfc\x14\r\xc4lO\xe0?'
p66
tp67
Rp68
ag50
(g54
S'\xf0\xc0\x87G\xdd\xbc\xc0?'
p69
tp70
Rp71
ag50
(g54
S'\xccQ\xa1z,9\xe2?'
p72
tp73
Rp74
ag50
(g54
S'\xae\xc0-\x9c\xc3p\xc0?'
p75
tp76
Rp77
ag50
(g54
S'\xfc\x14\r\xc4lO\xe0?'
p78
tp79
Rp80
ag50
(g54
S'\xf0\xc0\x87G\xdd\xbc\xc0?'
p81
tp82
Rp83
ag50
(g54
S'\xae\xc0-\x9c\xc3p\xc0?'
p84
tp85
Rp86
ag50
(g54
S'\xa6\xbc\x06\xebq\xe8\xa9?'
p87
tp88
Rp89
ag50
(g54
S'\xae\xc0-\x9c\xc3p\xc0?'
p90
tp91
Rp92
ag50
(g54
S'\xfc\x14\r\xc4lO\xe0?'
p93
tp94
Rp95
ag50
(g54
S'\xf0\xc0\x87G\xdd\xbc\xc0?'
p96
tp97
Rp98
asS'sp'
p99
(lp100
(S'p0'
p101
I0
g22
tp102
ag102
a(g101
I0
S'x'
p103
tp104
ag104
a(S'p1'
p105
I0
g103
tp106
a(g105
I0
g103
tp107
a(g105
I0
S'y'
p108
tp109
ag109
a(S'p2'
p110
I0
g108
tp111
a(g110
I0
S't'
p112
tp113
a(g110
F1.5707963267948966
g112
tp114
a(g110
F1.5707963267948966
g103
tp115
ag115
a(S'p3'
p116
F1.5707963267948966
g103
tp117
asS's'
p118
(lp119
g102
ag102
ag102
ag104
ag104
ag106
ag107
ag109
ag109
ag111
ag113
ag114
ag115
ag115
asS'ui'
p120
(lp121
S'hs'
p122
ag122
ag122
aS'ss'
p123
ag123
ag99
aS'hp'
p124
ag99
ag123
ag124
ag99
ag124
ag99
ag123
asS'um_before'
p125
(lp126
g124
ag123
ag122
ag99
ag123
ag99
ag124
ag99
ag123
ag124
ag99
ag124
ag99
ag123
asS'um_after'
p127
(lp128
NaNag122
aNag123
ag99
ag124
aNag123
ag124
ag99
ag124
aNag123
asS'is_normalized_entropy_less_than_threshold'
p129
(lp130
g50
(g51
(S'b1'
p131
I0
I1
tp132
Rp133
(I3
S'|'
p134
NNNI-1
I-1
I0
tp135
bS'\x01'
p136
tp137
Rp138
ag138
ag138
ag138
ag138
ag138
ag138
ag138
ag138
ag138
ag138
ag138
ag138
ag138
asaa(lp139
S'index'
p140
aI68127
aatp141
Rp142
.