ccollections
OrderedDict
p0
((lp1
(lp2
S'combination_dict'
p3
ag0
((lp4
(lp5
S'r_to_g_config'
p6
aS'br'
p7
aa(lp8
S'num_turns'
p9
aI2
aa(lp10
S'start_direction'
p11
acutils_ms
StartDirection
p12
(I1
tp13
Rp14
aa(lp15
S'assistance_type'
p16
acutils_ms
AssistanceType
p17
(I0
tp18
Rp19
aa(lp20
S'start_mode'
p21
aS't'
p22
aa(lp23
S'ui_given_a_noise'
p24
aF0.7
aa(lp25
S'um_given_ui_noise'
p26
aF0.7
aa(lp27
S'entropy_threshold'
p28
aF0.8
aatp29
Rp30
aa(lp31
S'data'
p32
accollections
defaultdict
p33
(c__builtin__
list
p34
tp35
Rp36
S'a'
p37
(lp38
S'mode_l'
p39
aS'move_n'
p40
ag40
ag39
aS'move_p'
p41
aS'mode_r'
p42
ag39
ag39
ag39
ag39
ag39
ag42
ag42
ag41
ag41
ag41
ag39
ag41
ag42
ag41
ag41
ag41
ag39
ag42
ag42
ag40
ag39
ag42
ag39
ag39
ag39
ag39
ag40
asS'assistance_match_with_ground_truth'
p43
(lp44
I01
aI00
aI01
aI01
aI00
aI00
aI00
aI00
aI00
aI00
aI00
aI00
aI01
aI00
aI00
aI01
aI01
aI00
aI01
aI00
aI00
aI01
aI00
aI00
aI01
aI00
aI00
aI00
aI00
aI00
aI00
aI01
aI01
asS'is_u_intended_equals_um'
p45
(lp46
I01
aI00
aI01
aI01
aI00
aI01
aI00
aI00
aI01
aI00
aI01
aI00
aI01
aI00
aI00
aI01
aI01
aI00
aI01
aI00
aI00
aI01
aI01
aI00
aI01
aI01
aI01
aI01
aI01
aI00
aI00
aI01
aI01
asS'total_steps'
p47
I33
sS'normalized_h_of_p_ui_given_um'
p48
(lp49
cnumpy.core.multiarray
scalar
p50
(cnumpy
dtype
p51
(S'f8'
p52
I0
I1
tp53
Rp54
(I3
S'<'
p55
NNNI-1
I-1
I0
tp56
bS'\xc3\xa0\xac\xc0<\xc0\xdf?'
p57
tp58
Rp59
ag50
(g54
S'\x08y\xec\xc6\x98\x91\xe5?'
p60
tp61
Rp62
ag50
(g54
S'\xe4\x82\xf4\xa9\x15\xbb\xe0?'
p63
tp64
Rp65
ag50
(g54
S'\xc3\xa0\xac\xc0<\xc0\xdf?'
p66
tp67
Rp68
ag50
(g54
S'\x1a)\x93\x85H\x04\xeb?'
p69
tp70
Rp71
ag50
(g54
S"\xd8\x060\xe1\xcc'\xea?"
p72
tp73
Rp74
ag50
(g54
S'\t8n\x05!t\xe6?'
p75
tp76
Rp77
ag50
(g54
S'\t8n\x05!t\xe6?'
p78
tp79
Rp80
ag50
(g54
S'K\xb0\xa3\xdc\x1c\x83\xe8?'
p81
tp82
Rp83
ag50
(g54
S'\t8n\x05!t\xe6?'
p84
tp85
Rp86
ag50
(g54
S'\xfc\xe637\xf2{\xe6?'
p87
tp88
Rp89
ag50
(g54
S'\x8coZ\x8c\xc3*\xeb?'
p90
tp91
Rp92
ag50
(g54
S'U\xec\xac\xec\xe9@\xdc?'
p93
tp94
Rp95
ag50
(g54
S'\xda\xdc\x98\xbe\xd1V\xe9?'
p96
tp97
Rp98
ag50
(g54
S'\xda\xdc\x98\xbe\xd1V\xe9?'
p99
tp100
Rp101
ag50
(g54
S'\xb9\x0e1l\x10b\xde?'
p102
tp103
Rp104
ag50
(g54
S'\xc3\xa0\xac\xc0<\xc0\xdf?'
p105
tp106
Rp107
ag50
(g54
S'\x1a)\x93\x85H\x04\xeb?'
p108
tp109
Rp110
ag50
(g54
S'U\xec\xac\xec\xe9@\xdc?'
p111
tp112
Rp113
ag50
(g54
S'\xda\xdc\x98\xbe\xd1V\xe9?'
p114
tp115
Rp116
ag50
(g54
S'\xfei\x1a\x8c1\x82\xee?'
p117
tp118
Rp119
ag50
(g54
S'\xb9\x0e1l\x10b\xde?'
p120
tp121
Rp122
ag50
(g54
S'\xfc\xe637\xf2{\xe6?'
p123
tp124
Rp125
ag50
(g54
S'\x8coZ\x8c\xc3*\xeb?'
p126
tp127
Rp128
ag50
(g54
S'U\xec\xac\xec\xe9@\xdc?'
p129
tp130
Rp131
ag50
(g54
S'\xea\xe9\xf6\xa1L\x06\xe4?'
p132
tp133
Rp134
ag50
(g54
S'\xfc\xe637\xf2{\xe6?'
p135
tp136
Rp137
ag50
(g54
S"\xd8\x060\xe1\xcc'\xea?"
p138
tp139
Rp140
ag50
(g54
S'K\xb0\xa3\xdc\x1c\x83\xe8?'
p141
tp142
Rp143
ag50
(g54
S'\t8n\x05!t\xe6?'
p144
tp145
Rp146
ag50
(g54
S'\t8n\x05!t\xe6?'
p147
tp148
Rp149
ag50
(g54
S'\xc3\xa0\xac\xc0<\xc0\xdf?'
p150
tp151
Rp152
ag50
(g54
S'\xe4\x82\xf4\xa9\x15\xbb\xe0?'
p153
tp154
Rp155
asS'sp'
p156
(lp157
(S'p0'
p158
I0
S'y'
p159
tp160
ag160
a(S'p1'
p161
I0
g159
tp162
a(g161
I0
S'x'
p163
tp164
a(g161
I0
S't'
p165
tp166
a(g161
I0
g159
tp167
ag167
ag167
a(g161
I0
g159
tp168
ag168
a(g161
I0
g165
tp169
a(g161
I0
g165
tp170
a(g161
I0
g163
tp171
ag171
ag171
a(S'p2'
p172
I0
g163
tp173
a(g172
I0
g165
tp174
a(g172
I0
g159
tp175
a(g172
I0
g165
tp176
ag176
a(g172
I0
g165
tp177
a(g172
F1.5707963267948966
g165
tp178
a(g172
F1.5707963267948966
g163
tp179
a(g172
F1.5707963267948966
g163
tp180
a(g172
F1.5707963267948966
g159
tp181
a(g172
F1.5707963267948966
g165
tp182
ag179
a(g172
F1.5707963267948966
g165
tp183
a(g172
F1.5707963267948966
g165
tp184
ag184
ag184
a(g172
F1.5707963267948966
g159
tp185
a(S'p3'
p186
F1.5707963267948966
g159
tp187
asS's'
p188
(lp189
(g158
I0
g22
tp190
ag160
ag160
ag162
ag164
ag166
ag167
ag167
ag167
ag168
ag168
ag169
ag170
ag171
ag171
ag171
ag173
ag174
ag175
ag176
ag176
ag177
ag178
ag179
ag180
ag181
ag182
ag179
ag183
ag184
ag184
ag184
ag185
asS'ui'
p191
(lp192
S'hs'
p193
aS'ss'
p194
ag194
ag193
aS'hp'
p195
ag193
ag193
ag193
ag156
ag156
ag195
ag195
ag195
ag195
ag195
ag156
ag193
ag156
ag195
ag195
ag156
ag156
ag195
ag156
ag195
ag195
ag195
ag193
ag156
ag156
ag195
ag193
ag194
asS'um_before'
p196
(lp197
g193
ag193
ag194
ag193
ag193
ag193
ag194
ag194
ag156
ag194
ag195
ag156
ag195
ag195
ag195
ag156
ag193
ag193
ag195
ag195
ag194
ag156
ag195
ag156
ag195
ag195
ag195
ag193
ag156
ag194
ag194
ag193
ag194
asS'um_after'
p198
(lp199
g193
aNag194
ag193
ag193
ag193
aNaNag156
aNag195
ag156
ag195
aNaNag156
ag193
ag193
ag195
aNag194
ag156
ag195
ag156
ag195
ag195
ag195
ag193
ag156
aNaNag193
ag194
asS'is_normalized_entropy_less_than_threshold'
p200
(lp201
g50
(g51
(S'b1'
p202
I0
I1
tp203
Rp204
(I3
S'|'
p205
NNNI-1
I-1
I0
tp206
bS'\x01'
p207
tp208
Rp209
ag209
ag209
ag209
ag50
(g204
S'\x00'
p210
tp211
Rp212
ag212
ag209
ag209
ag209
ag209
ag209
ag212
ag209
ag209
ag209
ag209
ag209
ag212
ag209
ag209
ag212
ag209
ag209
ag212
ag209
ag209
ag209
ag212
ag209
ag209
ag209
ag209
ag209
asaa(lp213
S'index'
p214
aI102386
aatp215
Rp216
.