ccollections
OrderedDict
p0
((lp1
(lp2
S'combination_dict'
p3
ag0
((lp4
(lp5
S'r_to_g_config'
p6
aS'tl'
p7
aa(lp8
S'num_turns'
p9
aI3
aa(lp10
S'start_direction'
p11
acutils_ms
StartDirection
p12
(I0
tp13
Rp14
aa(lp15
S'assistance_type'
p16
acutils_ms
AssistanceType
p17
(I1
tp18
Rp19
aa(lp20
S'start_mode'
p21
aS'y'
p22
aa(lp23
S'ui_given_a_noise'
p24
aF0.5
aa(lp25
S'um_given_ui_noise'
p26
aF0.3
aa(lp27
S'entropy_threshold'
p28
aF0.6
aatp29
Rp30
aa(lp31
S'data'
p32
accollections
defaultdict
p33
(c__builtin__
list
p34
tp35
Rp36
S'a'
p37
(lp38
S'mode_l'
p39
aS'move_n'
p40
aS'mode_r'
p41
ag41
ag41
aS'move_p'
p42
ag39
ag39
ag39
ag40
ag39
ag40
ag39
ag39
ag42
ag39
ag42
asS'assistance_match_with_ground_truth'
p43
(lp44
I01
aI01
aI00
aI00
aI01
aI01
aI00
aI00
aI01
aI00
aI01
aI01
aI00
aI01
aI01
aI01
aI01
asS'is_u_intended_equals_um'
p45
(lp46
I01
aI01
aI01
aI01
aI01
aI01
aI01
aI01
aI01
aI01
aI01
aI01
aI00
aI01
aI01
aI01
aI01
asS'total_steps'
p47
I17
sS'normalized_h_of_p_ui_given_um'
p48
(lp49
cnumpy.core.multiarray
scalar
p50
(cnumpy
dtype
p51
(S'f8'
p52
I0
I1
tp53
Rp54
(I3
S'<'
p55
NNNI-1
I-1
I0
tp56
bS'\x9a\x06>W\xa4\xe5\xd4?'
p57
tp58
Rp59
ag50
(g54
S'\xea\x94(:<\xa8\xc8?'
p60
tp61
Rp62
ag50
(g54
S'\r"\xbb\xb1\xea6\xea?'
p63
tp64
Rp65
ag50
(g54
S'k\x06Jl\x82s\xe7?'
p66
tp67
Rp68
ag50
(g54
S'8\x03\x11\xf2\xc2\xd4\xd2?'
p69
tp70
Rp71
ag50
(g54
S'$\x10\x96\x15j\xca\xd5?'
p72
tp73
Rp74
ag50
(g54
S'\xfd7\xc6\xa2\xe2z\xe2?'
p75
tp76
Rp77
ag50
(g54
S'\xfd7\xc6\xa2\xe2z\xe2?'
p78
tp79
Rp80
ag50
(g54
S'\x9a\x06>W\xa4\xe5\xd4?'
p81
tp82
Rp83
ag50
(g54
S'\x01\xfb\x93R2i\xd7?'
p84
tp85
Rp86
ag50
(g54
S'\x9a\x06>W\xa4\xe5\xd4?'
p87
tp88
Rp89
ag50
(g54
S'\xea\x94(:<\xa8\xc8?'
p90
tp91
Rp92
ag50
(g54
S'\x02F\xe5~[\xa7\xea?'
p93
tp94
Rp95
ag50
(g54
S'\x9a\x06>W\xa4\xe5\xd4?'
p96
tp97
Rp98
ag50
(g54
S'$\x10\x96\x15j\xca\xd5?'
p99
tp100
Rp101
ag50
(g54
S'\x9a\x06>W\xa4\xe5\xd4?'
p102
tp103
Rp104
ag50
(g54
S'$\x10\x96\x15j\xca\xd5?'
p105
tp106
Rp107
asS'sp'
p108
(lp109
(S'p0'
p110
I0
S'x'
p111
tp112
a(S'p1'
p113
I0
g111
tp114
a(g113
I0
g111
tp115
a(g113
I0
g111
tp116
a(g113
I0
S'y'
p117
tp118
a(S'p2'
p119
I0
g117
tp120
a(g119
I0
g117
tp121
ag121
a(g119
I0
g111
tp122
a(g119
I0
g117
tp123
ag122
a(S'p3'
p124
I0
g111
tp125
a(g124
I0
g111
tp126
a(g124
I0
S't'
p127
tp128
a(g124
F1.5707963267948966
g127
tp129
a(g124
F1.5707963267948966
g117
tp130
a(S'p4'
p131
F1.5707963267948966
g117
tp132
asS's'
p133
(lp134
(g110
I0
g22
tp135
ag112
ag114
ag115
ag116
ag118
ag120
ag121
ag121
ag122
ag123
ag122
ag125
ag126
ag128
ag129
ag130
asS'ui'
p136
(lp137
S'hs'
p138
aS'ss'
p139
ag108
ag139
aS'hp'
p140
ag108
ag138
ag108
ag138
ag140
ag138
ag139
ag138
ag138
ag108
ag138
ag108
asS'um_before'
p141
(lp142
g138
ag139
ag108
ag139
ag140
ag108
ag108
ag108
ag138
ag140
ag138
ag139
ag139
ag138
ag108
ag138
ag108
asS'um_after'
p143
(lp144
g138
ag139
ag108
ag139
ag140
ag108
ag108
ag108
ag138
ag140
ag138
ag139
ag139
ag138
ag108
ag138
ag108
asS'is_normalized_entropy_less_than_threshold'
p145
(lp146
g50
(g51
(S'b1'
p147
I0
I1
tp148
Rp149
(I3
S'|'
p150
NNNI-1
I-1
I0
tp151
bS'\x01'
p152
tp153
Rp154
ag154
ag50
(g149
S'\x00'
p155
tp156
Rp157
ag157
ag154
ag154
ag154
ag154
ag154
ag154
ag154
ag154
ag157
ag154
ag154
ag154
ag154
asaa(lp158
S'index'
p159
aI50867
aatp160
Rp161
.