ccollections
OrderedDict
p0
((lp1
(lp2
S'combination_dict'
p3
ag0
((lp4
(lp5
S'r_to_g_config'
p6
aS'tr'
p7
aa(lp8
S'num_turns'
p9
aI2
aa(lp10
S'start_direction'
p11
acutils_ms
StartDirection
p12
(I0
tp13
Rp14
aa(lp15
S'assistance_type'
p16
acutils_ms
AssistanceType
p17
(I1
tp18
Rp19
aa(lp20
S'start_mode'
p21
aS'y'
p22
aa(lp23
S'ui_given_a_noise'
p24
aF0.7
aa(lp25
S'um_given_ui_noise'
p26
aF0.1
aa(lp27
S'entropy_threshold'
p28
aF0.9
aatp29
Rp30
aa(lp31
S'data'
p32
accollections
defaultdict
p33
(c__builtin__
list
p34
tp35
Rp36
S'a'
p37
(lp38
S'mode_l'
p39
aS'mode_r'
p40
aS'move_p'
p41
ag41
ag39
ag39
ag39
ag41
ag39
ag41
ag39
ag39
ag41
ag41
ag40
ag41
ag39
ag40
ag41
ag40
ag41
ag39
ag39
ag41
asS'assistance_match_with_ground_truth'
p42
(lp43
I00
aI01
aI00
aI01
aI00
aI00
aI01
aI01
aI01
aI00
aI00
aI01
aI00
aI01
aI01
aI01
aI00
aI01
aI00
aI01
aI01
aI00
aI01
aI01
asS'is_u_intended_equals_um'
p44
(lp45
I01
aI01
aI01
aI01
aI01
aI01
aI01
aI01
aI01
aI01
aI01
aI01
aI01
aI01
aI01
aI01
aI01
aI01
aI01
aI01
aI01
aI01
aI01
aI01
asS'total_steps'
p46
I24
sS'normalized_h_of_p_ui_given_um'
p47
(lp48
cnumpy.core.multiarray
scalar
p49
(cnumpy
dtype
p50
(S'f8'
p51
I0
I1
tp52
Rp53
(I3
S'<'
p54
NNNI-1
I-1
I0
tp55
bS'\xd6NbU>\x9c\xe3?'
p56
tp57
Rp58
ag49
(g53
S'T\x00\xc8\x88%\x96\xc3?'
p59
tp60
Rp61
ag49
(g53
S'a\xa5\xe7\xe3?p\xd4?'
p62
tp63
Rp64
ag49
(g53
S'r\x16U&!t\xb0?'
p65
tp66
Rp67
ag49
(g53
S'b\x14\xb2y\xd5?\xda?'
p68
tp69
Rp70
ag49
(g53
S'b\x14\xb2y\xd5?\xda?'
p71
tp72
Rp73
ag49
(g53
S'8Rg\x05\x87|\xcf?'
p74
tp75
Rp76
ag49
(g53
S'r\x16U&!t\xb0?'
p77
tp78
Rp79
ag49
(g53
S'8Rg\x05\x87|\xcf?'
p80
tp81
Rp82
ag49
(g53
S'a\xa5\xe7\xe3?p\xd4?'
p83
tp84
Rp85
ag49
(g53
S'b\x14\xb2y\xd5?\xda?'
p86
tp87
Rp88
ag49
(g53
S'8Rg\x05\x87|\xcf?'
p89
tp90
Rp91
ag49
(g53
S'a\xa5\xe7\xe3?p\xd4?'
p92
tp93
Rp94
ag49
(g53
S'r\x16U&!t\xb0?'
p95
tp96
Rp97
ag49
(g53
S'T\x00\xc8\x88%\x96\xc3?'
p98
tp99
Rp100
ag49
(g53
S'r\x16U&!t\xb0?'
p101
tp102
Rp103
ag49
(g53
S'\xd6NbU>\x9c\xe3?'
p104
tp105
Rp106
ag49
(g53
S'T\x00\xc8\x88%\x96\xc3?'
p107
tp108
Rp109
ag49
(g53
S'a\xa5\xe7\xe3?p\xd4?'
p110
tp111
Rp112
ag49
(g53
S'T\x00\xc8\x88%\x96\xc3?'
p113
tp114
Rp115
ag49
(g53
S'r\x16U&!t\xb0?'
p116
tp117
Rp118
ag49
(g53
S'b\x14\xb2y\xd5?\xda?'
p119
tp120
Rp121
ag49
(g53
S'8Rg\x05\x87|\xcf?'
p122
tp123
Rp124
ag49
(g53
S'r\x16U&!t\xb0?'
p125
tp126
Rp127
asS'sp'
p128
(lp129
(S'p0'
p130
I0
S't'
p131
tp132
a(g130
I0
S'x'
p133
tp134
a(g130
I0
g133
tp135
a(S'p1'
p136
I0
g133
tp137
a(g136
I0
g133
tp138
ag138
a(g136
I0
g131
tp139
a(g136
F1.5707963267948966
g131
tp140
a(g136
F1.5707963267948966
S'y'
p141
tp142
a(g130
F1.5707963267948966
g141
tp143
a(g130
F1.5707963267948966
g141
tp144
a(g130
F1.5707963267948966
g133
tp145
a(g130
F1.5707963267948966
g133
tp146
a(g136
F1.5707963267948966
g133
tp147
a(g136
F1.5707963267948966
g141
tp148
a(S'p2'
p149
F1.5707963267948966
g141
tp150
a(g149
F1.5707963267948966
g131
tp151
a(g149
F1.5707963267948966
g133
tp152
a(g136
F1.5707963267948966
g133
tp153
ag148
ag150
a(g149
F1.5707963267948966
g141
tp154
a(g149
F1.5707963267948966
g133
tp155
a(S'p3'
p156
F1.5707963267948966
g133
tp157
asS's'
p158
(lp159
(g130
I0
g22
tp160
ag132
ag134
ag135
ag137
ag138
ag138
ag139
ag140
ag142
ag143
ag144
ag145
ag146
ag147
ag148
ag150
ag151
ag152
ag153
ag148
ag150
ag154
ag155
asS'ui'
p161
(lp162
S'hs'
p163
aS'hp'
p164
aS'ss'
p165
ag128
ag165
ag165
ag163
ag128
ag163
ag165
ag128
ag163
ag165
ag128
ag164
ag128
ag164
ag164
ag165
ag164
ag128
ag165
ag163
ag128
asS'um_before'
p166
(lp167
g164
ag164
ag165
ag128
ag165
ag165
ag163
ag128
ag163
ag165
ag165
ag163
ag165
ag128
ag164
ag128
ag164
ag164
ag165
ag164
ag128
ag165
ag163
ag128
asS'um_after'
p168
(lp169
g164
ag164
ag165
ag128
ag165
ag165
ag163
ag128
ag163
ag165
ag165
ag163
ag165
ag128
ag164
ag128
ag164
ag164
ag165
ag164
ag128
ag165
ag163
ag128
asS'is_normalized_entropy_less_than_threshold'
p170
(lp171
g49
(g50
(S'b1'
p172
I0
I1
tp173
Rp174
(I3
S'|'
p175
NNNI-1
I-1
I0
tp176
bS'\x01'
p177
tp178
Rp179
ag179
ag179
ag179
ag179
ag179
ag179
ag179
ag179
ag179
ag179
ag179
ag179
ag179
ag179
ag179
ag179
ag179
ag179
ag179
ag179
ag179
ag179
ag179
asaa(lp180
S'index'
p181
aI12645
aatp182
Rp183
.