ccollections
OrderedDict
p0
((lp1
(lp2
S'combination_dict'
p3
ag0
((lp4
(lp5
S'r_to_g_config'
p6
aS'tl'
p7
aa(lp8
S'num_turns'
p9
aI1
aa(lp10
S'start_direction'
p11
acutils_ms
StartDirection
p12
(I1
tp13
Rp14
aa(lp15
S'assistance_type'
p16
acutils_ms
AssistanceType
p17
(I0
tp18
Rp19
aa(lp20
S'start_mode'
p21
aS'x'
p22
aa(lp23
S'ui_given_a_noise'
p24
aF0.3
aa(lp25
S'um_given_ui_noise'
p26
aF0.1
aa(lp27
S'entropy_threshold'
p28
aF0.8
aatp29
Rp30
aa(lp31
S'data'
p32
accollections
defaultdict
p33
(c__builtin__
list
p34
tp35
Rp36
S'a'
p37
(lp38
S'mode_r'
p39
ag39
aS'move_p'
p40
ag40
ag39
ag39
ag40
ag39
aS'move_n'
p41
asS'assistance_match_with_ground_truth'
p42
(lp43
I00
aI01
aI00
aI01
aI00
aI01
aI01
aI01
aI01
asS'is_u_intended_equals_um'
p44
(lp45
I00
aI01
aI00
aI01
aI01
aI01
aI01
aI01
aI01
asS'total_steps'
p46
I9
sS'normalized_h_of_p_ui_given_um'
p47
(lp48
cnumpy.core.multiarray
scalar
p49
(cnumpy
dtype
p50
(S'f8'
p51
I0
I1
tp52
Rp53
(I3
S'<'
p54
NNNI-1
I-1
I0
tp55
bS'\xb5\xb0\x84\x807F\xe7?'
p56
tp57
Rp58
ag49
(g53
S'\x8c\xbb\x90 \x04\xb1\xb2?'
p59
tp60
Rp61
ag49
(g53
S'_d\x87\x9e\xc39\xe7?'
p62
tp63
Rp64
ag49
(g53
S'\xb8\x15\x05\x80<\xc5\xa1?'
p65
tp66
Rp67
ag49
(g53
S'\xc6V\xa4\x1bL\xaf\xe0?'
p68
tp69
Rp70
ag49
(g53
S'\x8c\xbb\x90 \x04\xb1\xb2?'
p71
tp72
Rp73
ag49
(g53
S'\xb8\x15\x05\x80<\xc5\xa1?'
p74
tp75
Rp76
ag49
(g53
S'\x8c\xbb\x90 \x04\xb1\xb2?'
p77
tp78
Rp79
ag49
(g53
S'\xd0\x87\x99\xb5\x97\xa2\xb9?'
p80
tp81
Rp82
asS'sp'
p83
(lp84
(S'p0'
p85
I0
g22
tp86
a(g85
I0
S'y'
p87
tp88
ag88
a(S'p1'
p89
I0
g87
tp90
a(g89
I0
g87
tp91
a(g89
I0
S't'
p92
tp93
a(g89
F1.5707963267948966
g92
tp94
a(g89
F1.5707963267948966
S'x'
p95
tp96
a(S'p2'
p97
F1.5707963267948966
g95
tp98
asS's'
p99
(lp100
g86
ag86
ag88
ag88
ag90
ag91
ag93
ag94
ag96
asS'ui'
p101
(lp102
S'hp'
p103
ag103
ag83
ag83
aS'ss'
p104
ag103
ag83
ag103
ag104
asS'um_before'
p105
(lp106
S'hs'
p107
ag103
ag103
ag83
ag104
ag103
ag83
ag103
ag104
asS'um_after'
p108
(lp109
Nag103
aNag83
ag104
ag103
ag83
ag103
ag104
asS'is_normalized_entropy_less_than_threshold'
p110
(lp111
g49
(g50
(S'b1'
p112
I0
I1
tp113
Rp114
(I3
S'|'
p115
NNNI-1
I-1
I0
tp116
bS'\x01'
p117
tp118
Rp119
ag119
ag119
ag119
ag119
ag119
ag119
ag119
ag119
asaa(lp120
S'index'
p121
aI33830
aatp122
Rp123
.