ccollections
OrderedDict
p0
((lp1
(lp2
S'combination_dict'
p3
ag0
((lp4
(lp5
S'r_to_g_config'
p6
aS'br'
p7
aa(lp8
S'num_turns'
p9
aI1
aa(lp10
S'start_direction'
p11
acutils_ms
StartDirection
p12
(I1
tp13
Rp14
aa(lp15
S'assistance_type'
p16
acutils_ms
AssistanceType
p17
(I1
tp18
Rp19
aa(lp20
S'start_mode'
p21
aS't'
p22
aa(lp23
S'ui_given_a_noise'
p24
aF0.7
aa(lp25
S'um_given_ui_noise'
p26
aF0.5
aa(lp27
S'entropy_threshold'
p28
aF0.9
aatp29
Rp30
aa(lp31
S'data'
p32
accollections
defaultdict
p33
(c__builtin__
list
p34
tp35
Rp36
S'a'
p37
(lp38
S'mode_l'
p39
ag39
aS'mode_r'
p40
ag40
ag39
aS'move_n'
p41
ag39
ag41
ag40
ag41
ag40
aS'move_p'
p42
ag42
ag40
ag42
asS'assistance_match_with_ground_truth'
p43
(lp44
I00
aI00
aI00
aI00
aI01
aI00
aI01
aI00
aI01
aI01
aI01
aI00
aI01
aI01
aI01
asS'is_u_intended_equals_um'
p45
(lp46
I01
aI01
aI01
aI01
aI01
aI01
aI01
aI01
aI01
aI01
aI01
aI01
aI01
aI01
aI00
asS'total_steps'
p47
I15
sS'normalized_h_of_p_ui_given_um'
p48
(lp49
cnumpy.core.multiarray
scalar
p50
(cnumpy
dtype
p51
(S'f8'
p52
I0
I1
tp53
Rp54
(I3
S'<'
p55
NNNI-1
I-1
I0
tp56
bS'\x92\xc6\xd8TO\x8d\xeb?'
p57
tp58
Rp59
ag50
(g54
S'\xe0\xd4vj\xebO\xea?'
p60
tp61
Rp62
ag50
(g54
S'|\xb5\xa8y\x99\xa2\xe6?'
p63
tp64
Rp65
ag50
(g54
S'$\xc4\x04\x9b\xe7\xdc\xd5?'
p66
tp67
Rp68
ag50
(g54
S';\x13!\x15\xa1\xf7\xcf?'
p69
tp70
Rp71
ag50
(g54
S'7\xa6\xa5\xa3&\\\xe7?'
p72
tp73
Rp74
ag50
(g54
S';\x13!\x15\xa1\xf7\xcf?'
p75
tp76
Rp77
ag50
(g54
S'\xf0o\x8b\xbb\x17\x13\xde?'
p78
tp79
Rp80
ag50
(g54
S'\xf3$g\xa5.4\xe4?'
p81
tp82
Rp83
ag50
(g54
S'\x98V\x919\xda\xbc\xd0?'
p84
tp85
Rp86
ag50
(g54
S'\xf3$g\xa5.4\xe4?'
p87
tp88
Rp89
ag50
(g54
S'\xcc\xe9\xccg<\x89\xe5?'
p90
tp91
Rp92
ag50
(g54
S'\xa8\xcam7z\x91\xd8?'
p93
tp94
Rp95
ag50
(g54
S'\xf3$g\xa5.4\xe4?'
p96
tp97
Rp98
ag50
(g54
S'(\xa5\xae\x1e\x06)\xec?'
p99
tp100
Rp101
asS'sp'
p102
(lp103
(S'p0'
p104
I0
S't'
p105
tp106
a(g104
I0
S'x'
p107
tp108
a(g104
I0
g107
tp109
a(g104
I0
g105
tp110
a(g104
I0
S'y'
p111
tp112
a(g104
I0
g105
tp113
ag112
a(g104
I0
g107
tp114
a(g104
I0
g111
tp115
a(S'p1'
p116
I0
g111
tp117
a(g116
I0
g105
tp118
a(g116
I0
g105
tp119
a(g116
F1.5707963267948966
g105
tp120
a(g116
F1.5707963267948966
g107
tp121
a(S'p2'
p122
F1.5707963267948966
g107
tp123
asS's'
p124
(lp125
(g104
I0
g22
tp126
ag106
ag108
ag109
ag110
ag112
ag113
ag112
ag114
ag115
ag117
ag118
ag119
ag120
ag121
asS'ui'
p127
(lp128
S'ss'
p129
aS'hp'
p130
ag102
aS'hs'
p131
ag131
ag130
ag131
ag131
ag130
ag129
ag131
ag129
ag102
ag131
ag131
asS'um_before'
p132
(lp133
g129
ag130
ag102
ag131
ag131
ag130
ag131
ag131
ag130
ag129
ag130
ag129
ag102
ag130
ag130
asS'um_after'
p134
(lp135
g129
ag130
ag102
ag131
ag131
ag130
ag131
ag131
ag130
ag129
ag130
ag129
ag102
ag130
ag102
asS'is_normalized_entropy_less_than_threshold'
p136
(lp137
g50
(g51
(S'b1'
p138
I0
I1
tp139
Rp140
(I3
S'|'
p141
NNNI-1
I-1
I0
tp142
bS'\x01'
p143
tp144
Rp145
ag145
ag145
ag145
ag145
ag145
ag145
ag145
ag145
ag145
ag145
ag145
ag145
ag145
ag145
asaa(lp146
S'index'
p147
aI94348
aatp148
Rp149
.