ccollections
OrderedDict
p0
((lp1
(lp2
S'combination_dict'
p3
ag0
((lp4
(lp5
S'r_to_g_config'
p6
aS'tl'
p7
aa(lp8
S'num_turns'
p9
aI3
aa(lp10
S'start_direction'
p11
acutils_ms
StartDirection
p12
(I0
tp13
Rp14
aa(lp15
S'assistance_type'
p16
acutils_ms
AssistanceType
p17
(I0
tp18
Rp19
aa(lp20
S'start_mode'
p21
aS'y'
p22
aa(lp23
S'ui_given_a_noise'
p24
aF0.7
aa(lp25
S'um_given_ui_noise'
p26
aF0.1
aa(lp27
S'entropy_threshold'
p28
aF0.6
aatp29
Rp30
aa(lp31
S'data'
p32
accollections
defaultdict
p33
(c__builtin__
list
p34
tp35
Rp36
S'a'
p37
(lp38
S'mode_l'
p39
ag39
ag39
aS'move_n'
p40
aS'mode_r'
p41
ag41
ag40
ag41
ag41
ag41
ag39
ag41
ag41
aS'move_p'
p42
ag41
ag42
ag41
ag41
ag39
ag41
ag39
ag42
ag41
ag42
ag41
ag42
ag41
ag39
ag42
ag39
ag40
ag41
ag42
ag41
ag42
ag41
ag41
ag42
ag39
ag41
ag39
ag41
ag42
ag41
ag42
ag41
ag42
ag41
ag41
ag41
ag41
ag39
ag39
ag41
ag41
ag39
ag41
ag42
ag41
ag39
ag40
ag41
ag39
ag42
ag41
ag42
ag39
ag39
ag40
ag41
ag41
ag41
ag41
ag41
ag41
ag39
ag42
ag41
ag39
ag42
ag39
ag41
ag39
ag41
ag42
ag39
ag39
ag39
ag42
ag39
ag39
ag39
ag42
ag41
ag39
ag42
ag39
ag42
ag39
ag42
ag41
ag41
ag41
ag42
asS'assistance_match_with_ground_truth'
p43
(lp44
I00
aI00
aI01
aI00
aI00
aI01
aI01
aI00
aI00
aI00
aI00
aI00
aI01
aI00
aI01
aI01
aI00
aI00
aI00
aI00
aI01
aI00
aI01
aI00
aI01
aI00
aI00
aI01
aI00
aI01
aI01
aI01
aI01
aI01
aI01
aI00
aI00
aI00
aI00
aI00
aI00
aI01
aI01
aI01
aI01
aI00
aI01
aI00
aI00
aI00
aI00
aI00
aI00
aI00
aI00
aI00
aI00
aI01
aI00
aI01
aI00
aI00
aI01
aI00
aI01
aI01
aI00
aI01
aI01
aI00
aI00
aI00
aI00
aI00
aI00
aI01
aI00
aI00
aI01
aI00
aI00
aI00
aI00
aI01
aI00
aI00
aI00
aI01
aI00
aI00
aI00
aI01
aI00
aI00
aI01
aI00
aI01
aI00
aI01
aI00
aI00
aI00
aI01
aI01
asS'is_u_intended_equals_um'
p45
(lp46
I01
aI01
aI01
aI01
aI01
aI01
aI01
aI01
aI01
aI01
aI01
aI01
aI01
aI01
aI01
aI01
aI01
aI01
aI01
aI01
aI01
aI01
aI01
aI01
aI01
aI01
aI01
aI01
aI00
aI01
aI01
aI01
aI01
aI01
aI01
aI01
aI01
aI01
aI01
aI01
aI01
aI01
aI01
aI01
aI01
aI01
aI01
aI01
aI01
aI01
aI01
aI01
aI01
aI01
aI01
aI01
aI01
aI01
aI01
aI01
aI01
aI01
aI01
aI01
aI01
aI01
aI01
aI01
aI01
aI01
aI01
aI01
aI01
aI01
aI01
aI01
aI01
aI01
aI01
aI01
aI01
aI01
aI01
aI01
aI01
aI01
aI01
aI01
aI01
aI01
aI01
aI01
aI01
aI01
aI01
aI01
aI01
aI01
aI01
aI01
aI01
aI01
aI01
aI01
asS'total_steps'
p47
I104
sS'normalized_h_of_p_ui_given_um'
p48
(lp49
cnumpy.core.multiarray
scalar
p50
(cnumpy
dtype
p51
(S'f8'
p52
I0
I1
tp53
Rp54
(I3
S'<'
p55
NNNI-1
I-1
I0
tp56
bS'\xe3\xe1\x8a\xab\x00\x11\xe1?'
p57
tp58
Rp59
ag50
(g54
S'\xe3\xe1\x8a\xab\x00\x11\xe1?'
p60
tp61
Rp62
ag50
(g54
S'\xfa\xdd\x01\xaaj\x02\xd2?'
p63
tp64
Rp65
ag50
(g54
S'\x13P\xc5h#-\xe4?'
p66
tp67
Rp68
ag50
(g54
S'\xbe\x95\r+\xaa\xdb\xe1?'
p69
tp70
Rp71
ag50
(g54
S'2\xe5\xf7}&\xf0\xcd?'
p72
tp73
Rp74
ag50
(g54
S'\x18\xed\xdb>\xbc\xb1\xb6?'
p75
tp76
Rp77
ag50
(g54
S"'\x88f~y\x11\xd4?"
p78
tp79
Rp80
ag50
(g54
S'\xbe\x95\r+\xaa\xdb\xe1?'
p81
tp82
Rp83
ag50
(g54
S'\xe8\xd4w\xba\x1f\xe4\xe2?'
p84
tp85
Rp86
ag50
(g54
S'S\xda\xc5\xa4Y\x86\xd3?'
p87
tp88
Rp89
ag50
(g54
S"'\x88f~y\x11\xd4?"
p90
tp91
Rp92
ag50
(g54
S'2\xe5\xf7}&\xf0\xcd?'
p93
tp94
Rp95
ag50
(g54
S'KB\xdd\xd1\xd4\xfb\xda?'
p96
tp97
Rp98
ag50
(g54
S'2\xe5\xf7}&\xf0\xcd?'
p99
tp100
Rp101
ag50
(g54
S'\xedXY\xe6\x82\x8e\xc0?'
p102
tp103
Rp104
ag50
(g54
S"'\x88f~y\x11\xd4?"
p105
tp106
Rp107
ag50
(g54
S'\xe8\xd4w\xba\x1f\xe4\xe2?'
p108
tp109
Rp110
ag50
(g54
S'\xe3\xe1\x8a\xab\x00\x11\xe1?'
p111
tp112
Rp113
ag50
(g54
S'\xe8\xd4w\xba\x1f\xe4\xe2?'
p114
tp115
Rp116
ag50
(g54
S'\xfa\xdd\x01\xaaj\x02\xd2?'
p117
tp118
Rp119
ag50
(g54
S'KB\xdd\xd1\xd4\xfb\xda?'
p120
tp121
Rp122
ag50
(g54
S'2\xe5\xf7}&\xf0\xcd?'
p123
tp124
Rp125
ag50
(g54
S'KB\xdd\xd1\xd4\xfb\xda?'
p126
tp127
Rp128
ag50
(g54
S'2\xe5\xf7}&\xf0\xcd?'
p129
tp130
Rp131
ag50
(g54
S'KB\xdd\xd1\xd4\xfb\xda?'
p132
tp133
Rp134
ag50
(g54
S'\xe8\xd4w\xba\x1f\xe4\xe2?'
p135
tp136
Rp137
ag50
(g54
S'\xfa\xdd\x01\xaaj\x02\xd2?'
p138
tp139
Rp140
ag50
(g54
S'\xca7\x02]\xff\xee\xe6?'
p141
tp142
Rp143
ag50
(g54
S'\xfa\xdd\x01\xaaj\x02\xd2?'
p144
tp145
Rp146
ag50
(g54
S'\x18\xed\xdb>\xbc\xb1\xb6?'
p147
tp148
Rp149
ag50
(g54
S'2\xe5\xf7}&\xf0\xcd?'
p150
tp151
Rp152
ag50
(g54
S'\xedXY\xe6\x82\x8e\xc0?'
p153
tp154
Rp155
ag50
(g54
S'2\xe5\xf7}&\xf0\xcd?'
p156
tp157
Rp158
ag50
(g54
S'\xedXY\xe6\x82\x8e\xc0?'
p159
tp160
Rp161
ag50
(g54
S'\xbe\x95\r+\xaa\xdb\xe1?'
p162
tp163
Rp164
ag50
(g54
S"'\x88f~y\x11\xd4?"
p165
tp166
Rp167
ag50
(g54
S'\xfcX\x99s;B\xdc?'
p168
tp169
Rp170
ag50
(g54
S'S\xda\xc5\xa4Y\x86\xd3?'
p171
tp172
Rp173
ag50
(g54
S'\xe8\xd4w\xba\x1f\xe4\xe2?'
p174
tp175
Rp176
ag50
(g54
S'\xe3\xe1\x8a\xab\x00\x11\xe1?'
p177
tp178
Rp179
ag50
(g54
S'2\xe5\xf7}&\xf0\xcd?'
p180
tp181
Rp182
ag50
(g54
S'\xedXY\xe6\x82\x8e\xc0?'
p183
tp184
Rp185
ag50
(g54
S'2\xe5\xf7}&\xf0\xcd?'
p186
tp187
Rp188
ag50
(g54
S'\xedXY\xe6\x82\x8e\xc0?'
p189
tp190
Rp191
ag50
(g54
S"'\x88f~y\x11\xd4?"
p192
tp193
Rp194
ag50
(g54
S'\xedXY\xe6\x82\x8e\xc0?'
p195
tp196
Rp197
ag50
(g54
S'\xbe\x95\r+\xaa\xdb\xe1?'
p198
tp199
Rp200
ag50
(g54
S'\xbe\x95\r+\xaa\xdb\xe1?'
p201
tp202
Rp203
ag50
(g54
S'\xbe\x95\r+\xaa\xdb\xe1?'
p204
tp205
Rp206
ag50
(g54
S'\xe8\xd4w\xba\x1f\xe4\xe2?'
p207
tp208
Rp209
ag50
(g54
S'}\xac\x1a\x1cCP\xe3?'
p210
tp211
Rp212
ag50
(g54
S'S\xda\xc5\xa4Y\x86\xd3?'
p213
tp214
Rp215
ag50
(g54
S'\xbe\x95\r+\xaa\xdb\xe1?'
p216
tp217
Rp218
ag50
(g54
S'\xe8\xd4w\xba\x1f\xe4\xe2?'
p219
tp220
Rp221
ag50
(g54
S'S\xda\xc5\xa4Y\x86\xd3?'
p222
tp223
Rp224
ag50
(g54
S"'\x88f~y\x11\xd4?"
p225
tp226
Rp227
ag50
(g54
S'\xedXY\xe6\x82\x8e\xc0?'
p228
tp229
Rp230
ag50
(g54
S'\xe8\xd4w\xba\x1f\xe4\xe2?'
p231
tp232
Rp233
ag50
(g54
S'\xfa\xdd\x01\xaaj\x02\xd2?'
p234
tp235
Rp236
ag50
(g54
S'h\x14\x93\xb8=\x82\xe6?'
p237
tp238
Rp239
ag50
(g54
S'\xe8\xd4w\xba\x1f\xe4\xe2?'
p240
tp241
Rp242
ag50
(g54
S'\xfa\xdd\x01\xaaj\x02\xd2?'
p243
tp244
Rp245
ag50
(g54
S'KB\xdd\xd1\xd4\xfb\xda?'
p246
tp247
Rp248
ag50
(g54
S'2\xe5\xf7}&\xf0\xcd?'
p249
tp250
Rp251
ag50
(g54
S'\xedXY\xe6\x82\x8e\xc0?'
p252
tp253
Rp254
ag50
(g54
S'\xe3\xe1\x8a\xab\x00\x11\xe1?'
p255
tp256
Rp257
ag50
(g54
S'\xfa\xdd\x01\xaaj\x02\xd2?'
p258
tp259
Rp260
ag50
(g54
S'\x18\xed\xdb>\xbc\xb1\xb6?'
p261
tp262
Rp263
ag50
(g54
S'\xbe\x95\r+\xaa\xdb\xe1?'
p264
tp265
Rp266
ag50
(g54
S"'\x88f~y\x11\xd4?"
p267
tp268
Rp269
ag50
(g54
S'\xbe\x95\r+\xaa\xdb\xe1?'
p270
tp271
Rp272
ag50
(g54
S'\xbe\x95\r+\xaa\xdb\xe1?'
p273
tp274
Rp275
ag50
(g54
S'\xbe\x95\r+\xaa\xdb\xe1?'
p276
tp277
Rp278
ag50
(g54
S'\xe8\xd4w\xba\x1f\xe4\xe2?'
p279
tp280
Rp281
ag50
(g54
S'\xfa\xdd\x01\xaaj\x02\xd2?'
p282
tp283
Rp284
ag50
(g54
S'KB\xdd\xd1\xd4\xfb\xda?'
p285
tp286
Rp287
ag50
(g54
S'\xe8\xd4w\xba\x1f\xe4\xe2?'
p288
tp289
Rp290
ag50
(g54
S'\xfa\xdd\x01\xaaj\x02\xd2?'
p291
tp292
Rp293
ag50
(g54
S'\xfcX\x99s;B\xdc?'
p294
tp295
Rp296
ag50
(g54
S'S\xda\xc5\xa4Y\x86\xd3?'
p297
tp298
Rp299
ag50
(g54
S'\xe8\xd4w\xba\x1f\xe4\xe2?'
p300
tp301
Rp302
ag50
(g54
S'S\xda\xc5\xa4Y\x86\xd3?'
p303
tp304
Rp305
ag50
(g54
S'2\xe5\xf7}&\xf0\xcd?'
p306
tp307
Rp308
ag50
(g54
S'\xfcX\x99s;B\xdc?'
p309
tp310
Rp311
ag50
(g54
S'\xe3\xe1\x8a\xab\x00\x11\xe1?'
p312
tp313
Rp314
ag50
(g54
S'\xe3\xe1\x8a\xab\x00\x11\xe1?'
p315
tp316
Rp317
ag50
(g54
S'\xfa\xdd\x01\xaaj\x02\xd2?'
p318
tp319
Rp320
ag50
(g54
S'\xfcX\x99s;B\xdc?'
p321
tp322
Rp323
ag50
(g54
S'}\xac\x1a\x1cCP\xe3?'
p324
tp325
Rp326
ag50
(g54
S'\xe3\xe1\x8a\xab\x00\x11\xe1?'
p327
tp328
Rp329
ag50
(g54
S'\xfa\xdd\x01\xaaj\x02\xd2?'
p330
tp331
Rp332
ag50
(g54
S'KB\xdd\xd1\xd4\xfb\xda?'
p333
tp334
Rp335
ag50
(g54
S'\xe8\xd4w\xba\x1f\xe4\xe2?'
p336
tp337
Rp338
ag50
(g54
S'\xfa\xdd\x01\xaaj\x02\xd2?'
p339
tp340
Rp341
ag50
(g54
S'\xfcX\x99s;B\xdc?'
p342
tp343
Rp344
ag50
(g54
S'\xfa\xdd\x01\xaaj\x02\xd2?'
p345
tp346
Rp347
ag50
(g54
S'\xfcX\x99s;B\xdc?'
p348
tp349
Rp350
ag50
(g54
S'\xfa\xdd\x01\xaaj\x02\xd2?'
p351
tp352
Rp353
ag50
(g54
S'KB\xdd\xd1\xd4\xfb\xda?'
p354
tp355
Rp356
ag50
(g54
S"'\x88f~y\x11\xd4?"
p357
tp358
Rp359
ag50
(g54
S'\xbe\x95\r+\xaa\xdb\xe1?'
p360
tp361
Rp362
ag50
(g54
S'2\xe5\xf7}&\xf0\xcd?'
p363
tp364
Rp365
ag50
(g54
S'\xedXY\xe6\x82\x8e\xc0?'
p366
tp367
Rp368
asS'sp'
p369
(lp370
(S'p0'
p371
I0
S'y'
p372
tp373
ag373
a(g371
I0
S'x'
p374
tp375
a(g371
I0
S't'
p376
tp377
a(g371
I0
g376
tp378
a(g371
I0
g374
tp379
a(S'p1'
p380
I0
g374
tp381
a(g380
I0
g374
tp382
a(g380
I0
g374
tp383
a(g380
I0
g376
tp384
a(g380
I0
g374
tp385
ag382
a(g380
I0
g372
tp386
a(g380
I0
g374
tp387
ag386
a(S'p2'
p388
I0
g372
tp389
a(g388
I0
g372
tp390
a(g388
I0
g374
tp391
a(g380
I0
g374
tp392
ag384
a(g380
I0
g372
tp393
ag387
ag386
ag387
ag386
ag387
ag384
ag393
a(g371
I0
g372
tp394
ag375
ag381
ag386
ag389
a(g388
I0
g376
tp395
a(g388
F1.5707963267948966
g376
tp396
a(g388
F1.5707963267948966
g376
tp397
a(g388
I0
g376
tp398
a(g388
I0
g374
tp399
a(g388
I0
g372
tp400
ag391
ag392
ag386
ag389
ag395
ag396
ag398
ag396
ag397
ag397
ag397
a(g388
F1.5707963267948966
g372
tp401
a(g388
F1.5707963267948966
g372
tp402
a(g388
F1.5707963267948966
g376
tp403
ag397
ag401
ag403
ag398
ag396
ag401
a(g388
F1.5707963267948966
g374
tp404
a(g380
F1.5707963267948966
g374
tp405
a(g380
F1.5707963267948966
g376
tp406
a(g380
F1.5707963267948966
g372
tp407
a(g380
F1.5707963267948966
g374
tp408
a(g380
F1.5707963267948966
g372
tp409
a(g388
F1.5707963267948966
g372
tp410
a(g388
F1.5707963267948966
g372
tp411
ag404
a(S'p3'
p412
F1.5707963267948966
g374
tp413
a(g412
F1.5707963267948966
g374
tp414
a(g412
F1.5707963267948966
g374
tp415
ag414
ag414
ag414
a(g412
F1.5707963267948966
g376
tp416
a(g412
F1.5707963267948966
g372
tp417
a(g412
F1.5707963267948966
g374
tp418
ag416
ag417
a(g412
F1.5707963267948966
g376
tp419
a(g412
F1.5707963267948966
g374
tp420
ag416
ag420
a(g412
F1.5707963267948966
g372
tp421
ag419
a(g412
F1.5707963267948966
g376
tp422
ag422
ag417
ag419
a(g412
F1.5707963267948966
g376
tp423
ag422
ag417
ag418
ag416
ag417
ag419
ag417
ag419
ag417
ag418
ag415
ag414
ag421
a(S'p4'
p424
F1.5707963267948966
g372
tp425
asS's'
p426
(lp427
(g371
I0
g22
tp428
ag373
ag373
ag375
ag377
ag378
ag379
ag381
ag382
ag383
ag384
ag385
ag382
ag386
ag387
ag386
ag389
ag390
ag391
ag392
ag384
ag393
ag387
ag386
ag387
ag386
ag387
ag384
ag393
ag394
ag375
ag381
ag386
ag389
ag395
ag396
ag397
ag398
ag399
ag400
ag391
ag392
ag386
ag389
ag395
ag396
ag398
ag396
ag397
ag397
ag397
ag401
ag402
ag403
ag397
ag401
ag403
ag398
ag396
ag401
ag404
ag405
ag406
ag407
ag408
ag409
ag410
ag411
ag404
ag413
ag414
ag415
ag414
ag414
ag414
ag416
ag417
ag418
ag416
ag417
ag419
ag420
ag416
ag420
ag421
ag419
ag422
ag422
ag417
ag419
ag423
ag422
ag417
ag418
ag416
ag417
ag419
ag417
ag419
ag417
ag418
ag415
ag414
ag421
asS'ui'
p429
(lp430
g369
ag369
aS'hp'
p431
aS'hs'
p432
ag369
ag431
aS'ss'
p433
ag433
ag369
ag431
ag431
ag432
ag431
ag432
ag431
ag369
ag433
ag432
ag433
ag432
ag432
ag369
ag369
ag432
ag431
ag369
ag432
ag432
ag369
ag432
ag433
ag431
ag369
ag431
ag369
ag369
ag432
ag431
ag432
ag432
ag369
ag431
ag369
ag431
ag369
ag433
ag369
ag369
ag369
ag369
ag431
ag433
ag431
ag369
ag432
ag431
ag432
ag369
ag432
ag432
ag433
ag431
ag432
ag432
ag431
ag369
ag369
ag432
ag433
ag369
ag433
ag431
ag369
ag369
ag432
ag432
ag432
ag432
ag432
ag431
ag431
ag432
ag431
ag431
ag431
ag431
ag369
ag369
ag431
ag432
ag369
ag432
ag432
ag369
ag432
ag431
ag432
ag431
ag432
ag432
ag433
ag369
ag431
ag369
asS'um_before'
p434
(lp435
g369
ag369
ag432
ag432
ag369
ag431
ag433
ag433
ag369
ag432
ag431
ag433
ag431
ag432
ag431
ag369
ag433
ag432
ag369
ag432
ag432
ag432
ag431
ag432
ag431
ag432
ag432
ag432
ag433
ag432
ag433
ag431
ag369
ag431
ag369
ag369
ag433
ag431
ag431
ag432
ag369
ag431
ag369
ag431
ag369
ag433
ag369
ag369
ag369
ag369
ag432
ag433
ag431
ag369
ag432
ag431
ag433
ag369
ag432
ag432
ag369
ag432
ag432
ag432
ag431
ag369
ag369
ag432
ag433
ag369
ag433
ag369
ag369
ag369
ag432
ag432
ag432
ag432
ag432
ag431
ag431
ag432
ag431
ag431
ag431
ag369
ag369
ag432
ag431
ag433
ag369
ag432
ag432
ag432
ag432
ag431
ag432
ag431
ag432
ag432
ag433
ag369
ag431
ag369
asS'um_after'
p436
(lp437
g369
ag369
ag432
ag432
ag369
ag431
ag433
ag433
ag369
ag432
ag431
ag433
ag431
ag432
ag431
ag369
ag433
ag432
ag369
ag432
ag432
ag432
ag431
ag432
ag431
ag432
ag432
ag432
ag433
ag432
ag433
ag431
ag369
ag431
ag369
ag369
ag433
ag431
ag431
ag432
ag369
ag431
ag369
ag431
ag369
ag433
ag369
ag369
ag369
ag369
ag432
ag433
ag431
ag369
ag432
ag431
ag433
ag369
ag432
ag432
ag369
ag432
ag432
ag432
ag431
ag369
ag369
ag432
ag433
ag369
ag433
ag369
ag369
ag369
ag432
ag432
ag432
ag432
ag432
ag431
ag431
ag432
ag431
ag431
ag431
ag369
ag369
ag432
ag431
ag433
ag369
ag432
ag432
ag432
ag432
ag431
ag432
ag431
ag432
ag432
ag433
ag369
ag431
ag369
asS'is_normalized_entropy_less_than_threshold'
p438
(lp439
g50
(g51
(S'b1'
p440
I0
I1
tp441
Rp442
(I3
S'|'
p443
NNNI-1
I-1
I0
tp444
bS'\x01'
p445
tp446
Rp447
ag447
ag447
ag50
(g442
S'\x00'
p448
tp449
Rp450
ag447
ag447
ag447
ag447
ag447
ag447
ag447
ag447
ag447
ag447
ag447
ag447
ag447
ag447
ag447
ag447
ag447
ag447
ag447
ag447
ag447
ag447
ag447
ag447
ag450
ag447
ag447
ag447
ag447
ag447
ag447
ag447
ag447
ag447
ag447
ag447
ag447
ag447
ag447
ag447
ag447
ag447
ag447
ag447
ag447
ag447
ag447
ag450
ag447
ag447
ag447
ag447
ag447
ag447
ag447
ag447
ag450
ag447
ag447
ag447
ag447
ag447
ag447
ag447
ag447
ag447
ag447
ag447
ag447
ag447
ag447
ag447
ag447
ag447
ag447
ag447
ag447
ag447
ag447
ag447
ag447
ag447
ag447
ag447
ag447
ag450
ag447
ag447
ag447
ag447
ag447
ag447
ag447
ag447
ag447
ag447
ag447
ag447
ag447
ag447
asaa(lp451
S'index'
p452
aI49416
aatp453
Rp454
.