ccollections
OrderedDict
p0
((lp1
(lp2
S'combination_dict'
p3
ag0
((lp4
(lp5
S'r_to_g_config'
p6
aS'tr'
p7
aa(lp8
S'num_turns'
p9
aI3
aa(lp10
S'start_direction'
p11
acutils_ms
StartDirection
p12
(I0
tp13
Rp14
aa(lp15
S'assistance_type'
p16
acutils_ms
AssistanceType
p17
(I1
tp18
Rp19
aa(lp20
S'start_mode'
p21
aS't'
p22
aa(lp23
S'ui_given_a_noise'
p24
aF0.7
aa(lp25
S'um_given_ui_noise'
p26
aF0.3
aa(lp27
S'entropy_threshold'
p28
aF0.7
aatp29
Rp30
aa(lp31
S'data'
p32
accollections
defaultdict
p33
(c__builtin__
list
p34
tp35
Rp36
S'a'
p37
(lp38
S'mode_r'
p39
aS'move_p'
p40
ag39
ag40
ag39
ag39
aS'mode_l'
p41
ag41
ag40
ag39
ag41
ag40
ag40
ag39
ag39
ag41
ag40
ag39
ag41
ag39
ag39
ag40
ag39
ag39
ag39
ag39
ag41
ag41
ag41
ag40
asS'assistance_match_with_ground_truth'
p42
(lp43
I01
aI00
aI01
aI01
aI00
aI00
aI00
aI01
aI01
aI00
aI01
aI00
aI01
aI00
aI00
aI01
aI01
aI00
aI00
aI00
aI01
aI00
aI00
aI00
aI00
aI00
aI00
aI00
aI01
aI01
asS'is_u_intended_equals_um'
p44
(lp45
I01
aI00
aI01
aI01
aI01
aI01
aI01
aI01
aI01
aI01
aI01
aI01
aI01
aI01
aI01
aI01
aI01
aI01
aI01
aI01
aI01
aI00
aI01
aI01
aI01
aI01
aI01
aI01
aI01
aI00
asS'total_steps'
p46
I30
sS'normalized_h_of_p_ui_given_um'
p47
(lp48
cnumpy.core.multiarray
scalar
p49
(cnumpy
dtype
p50
(S'f8'
p51
I0
I1
tp52
Rp53
(I3
S'<'
p54
NNNI-1
I-1
I0
tp55
bS'\xc7\x0c\x12\xc9vG\xe0?'
p56
tp57
Rp58
ag49
(g53
S'\xc5\x0bL7\xcdl\xeb?'
p59
tp60
Rp61
ag49
(g53
S'\xc7\x0c\x12\xc9vG\xe0?'
p62
tp63
Rp64
ag49
(g53
S'\xb2\xc3\xedue\xa2\xc9?'
p65
tp66
Rp67
ag49
(g53
S'\xe9\xb1\x11\xe6\x8a\xe2\xe3?'
p68
tp69
Rp70
ag49
(g53
S'Lv|\x88\xa1\xe8\xea?'
p71
tp72
Rp73
ag49
(g53
S'e\xd3\x8c\x0cz\x8c\xe7?'
p74
tp75
Rp76
ag49
(g53
S'R\x85\xda\x9fj.\xd1?'
p77
tp78
Rp79
ag49
(g53
S'\xb2\xc3\xedue\xa2\xc9?'
p80
tp81
Rp82
ag49
(g53
S'Lv|\x88\xa1\xe8\xea?'
p83
tp84
Rp85
ag49
(g53
S'R\x85\xda\x9fj.\xd1?'
p86
tp87
Rp88
ag49
(g53
S'`\xaa20\xdb\xee\xea?'
p89
tp90
Rp91
ag49
(g53
S'\xb2\xc3\xedue\xa2\xc9?'
p92
tp93
Rp94
ag49
(g53
S'\xe9\xb1\x11\xe6\x8a\xe2\xe3?'
p95
tp96
Rp97
ag49
(g53
S'Lv|\x88\xa1\xe8\xea?'
p98
tp99
Rp100
ag49
(g53
S'R\x85\xda\x9fj.\xd1?'
p101
tp102
Rp103
ag49
(g53
S'\xb2\xc3\xedue\xa2\xc9?'
p104
tp105
Rp106
ag49
(g53
S'Lv|\x88\xa1\xe8\xea?'
p107
tp108
Rp109
ag49
(g53
S'<\xdd\t\x89p_\xed?'
p110
tp111
Rp112
ag49
(g53
S'1#\x89\xe1\xad\\\xe2?'
p113
tp114
Rp115
ag49
(g53
S'\xc7\x0c\x12\xc9vG\xe0?'
p116
tp117
Rp118
ag49
(g53
S'\xc5\x0bL7\xcdl\xeb?'
p119
tp120
Rp121
ag49
(g53
S'1#\x89\xe1\xad\\\xe2?'
p122
tp123
Rp124
ag49
(g53
S'\xe9\xb1\x11\xe6\x8a\xe2\xe3?'
p125
tp126
Rp127
ag49
(g53
S'\xe9\xb1\x11\xe6\x8a\xe2\xe3?'
p128
tp129
Rp130
ag49
(g53
S'Lv|\x88\xa1\xe8\xea?'
p131
tp132
Rp133
ag49
(g53
S'e\xd3\x8c\x0cz\x8c\xe7?'
p134
tp135
Rp136
ag49
(g53
S'E\x81\x04\x13\xf2c\xdf?'
p137
tp138
Rp139
ag49
(g53
S'R\x85\xda\x9fj.\xd1?'
p140
tp141
Rp142
ag49
(g53
S':\xea\xa5\\H\xd2\xe3?'
p143
tp144
Rp145
asS'sp'
p146
(lp147
(S'p0'
p148
I0
S'x'
p149
tp150
a(g148
I0
S't'
p151
tp152
ag150
a(S'p1'
p153
I0
g149
tp154
a(g153
I0
g149
tp155
a(g153
I0
g151
tp156
a(g153
I0
g151
tp157
a(g153
I0
S'y'
p158
tp159
a(S'p2'
p160
I0
g158
tp161
a(g160
I0
g149
tp162
a(g160
I0
g151
tp163
a(g160
I0
g151
tp164
a(g160
F1.5707963267948966
g151
tp165
a(g160
F1.5707963267948966
g151
tp166
a(g160
F1.5707963267948966
g158
tp167
a(g160
F1.5707963267948966
g149
tp168
a(S'p3'
p169
F1.5707963267948966
g149
tp170
a(g169
F1.5707963267948966
g151
tp171
a(g169
F1.5707963267948966
g149
tp172
a(g169
F1.5707963267948966
g149
tp173
a(g169
F1.5707963267948966
g158
tp174
a(g169
F1.5707963267948966
g149
tp175
ag173
a(g169
F1.5707963267948966
g149
tp176
ag176
ag171
a(g169
F1.5707963267948966
g151
tp177
a(g169
F1.5707963267948966
g151
tp178
a(g169
F1.5707963267948966
g158
tp179
a(S'p4'
p180
F1.5707963267948966
g158
tp181
asS's'
p182
(lp183
(g148
I0
g22
tp184
ag150
ag152
ag150
ag154
ag155
ag156
ag157
ag159
ag161
ag162
ag163
ag164
ag165
ag166
ag167
ag168
ag170
ag171
ag172
ag173
ag174
ag175
ag173
ag176
ag176
ag171
ag177
ag178
ag179
asS'ui'
p185
(lp186
S'hp'
p187
ag187
ag187
ag146
ag187
aS'ss'
p188
ag188
aS'hs'
p189
ag146
ag189
ag189
ag188
ag146
ag146
ag188
ag189
ag146
ag189
ag146
ag188
ag187
ag146
ag187
ag146
ag146
ag187
ag188
ag146
ag189
ag146
asS'um_before'
p190
(lp191
g187
ag189
ag187
ag146
ag146
ag189
ag188
ag189
ag146
ag189
ag189
ag188
ag146
ag146
ag189
ag189
ag146
ag189
ag187
ag188
ag187
ag189
ag188
ag146
ag146
ag189
ag188
ag146
ag189
ag187
asS'um_after'
p192
(lp193
g187
ag189
ag187
ag146
ag146
ag189
ag188
ag189
ag146
ag189
ag189
ag188
ag146
ag146
ag189
ag189
ag146
ag189
ag187
ag188
ag187
ag189
ag188
ag146
ag146
ag189
ag188
ag146
ag189
ag146
asS'is_normalized_entropy_less_than_threshold'
p194
(lp195
g49
(g50
(S'b1'
p196
I0
I1
tp197
Rp198
(I3
S'|'
p199
NNNI-1
I-1
I0
tp200
bS'\x01'
p201
tp202
Rp203
ag49
(g198
S'\x00'
p204
tp205
Rp206
ag203
ag203
ag203
ag206
ag206
ag203
ag203
ag206
ag203
ag206
ag203
ag203
ag206
ag203
ag203
ag206
ag206
ag203
ag203
ag206
ag203
ag203
ag203
ag206
ag206
ag203
ag203
ag203
asaa(lp207
S'index'
p208
aI21479
aatp209
Rp210
.