ccollections
OrderedDict
p0
((lp1
(lp2
S'combination_dict'
p3
ag0
((lp4
(lp5
S'r_to_g_config'
p6
aS'br'
p7
aa(lp8
S'num_turns'
p9
aI1
aa(lp10
S'start_direction'
p11
acutils_ms
StartDirection
p12
(I0
tp13
Rp14
aa(lp15
S'assistance_type'
p16
acutils_ms
AssistanceType
p17
(I1
tp18
Rp19
aa(lp20
S'start_mode'
p21
aS'y'
p22
aa(lp23
S'ui_given_a_noise'
p24
aF0.7
aa(lp25
S'um_given_ui_noise'
p26
aF0.5
aa(lp27
S'entropy_threshold'
p28
aF0.9
aatp29
Rp30
aa(lp31
S'data'
p32
accollections
defaultdict
p33
(c__builtin__
list
p34
tp35
Rp36
S'a'
p37
(lp38
S'mode_l'
p39
ag39
ag39
ag39
ag39
aS'mode_r'
p40
ag40
ag39
ag40
ag40
ag40
ag40
ag40
aS'move_p'
p41
ag40
ag39
ag41
ag39
ag39
ag41
ag41
ag40
ag39
ag39
ag41
ag41
ag39
ag41
ag41
ag39
ag39
ag40
ag40
ag40
ag40
ag40
ag40
ag40
ag39
ag41
ag39
ag39
ag41
ag41
ag39
aS'move_n'
p42
ag40
ag39
ag40
ag40
ag40
ag39
ag42
ag39
ag41
ag41
ag41
ag39
ag39
ag42
ag39
ag41
ag40
ag39
ag39
ag41
ag41
ag40
ag40
ag39
ag41
ag39
ag39
ag39
ag39
ag39
ag39
ag39
ag39
ag41
ag40
ag39
ag39
ag39
ag39
ag39
ag39
ag39
ag40
ag41
ag39
ag40
asS'assistance_match_with_ground_truth'
p43
(lp44
I00
aI00
aI00
aI00
aI00
aI00
aI00
aI00
aI00
aI00
aI00
aI00
aI01
aI00
aI00
aI01
aI01
aI00
aI01
aI00
aI00
aI00
aI00
aI01
aI00
aI01
aI00
aI00
aI01
aI00
aI00
aI00
aI00
aI00
aI00
aI00
aI00
aI00
aI00
aI01
aI00
aI00
aI00
aI01
aI01
aI00
aI00
aI00
aI00
aI00
aI00
aI01
aI00
aI00
aI00
aI00
aI01
aI00
aI01
aI00
aI00
aI00
aI00
aI00
aI01
aI00
aI00
aI00
aI00
aI01
aI01
aI00
aI00
aI00
aI00
aI00
aI00
aI00
aI01
aI00
aI00
aI00
aI00
aI00
aI00
aI00
aI00
aI00
aI01
aI01
aI00
aI00
asS'is_u_intended_equals_um'
p45
(lp46
I01
aI01
aI01
aI01
aI01
aI00
aI01
aI01
aI00
aI01
aI00
aI00
aI01
aI01
aI01
aI01
aI01
aI01
aI01
aI01
aI01
aI01
aI01
aI01
aI01
aI00
aI01
aI01
aI01
aI01
aI01
aI00
aI00
aI00
aI00
aI00
aI01
aI01
aI01
aI01
aI01
aI01
aI01
aI00
aI01
aI01
aI01
aI01
aI00
aI01
aI01
aI01
aI01
aI01
aI01
aI01
aI01
aI01
aI01
aI01
aI01
aI01
aI01
aI01
aI01
aI01
aI01
aI00
aI01
aI01
aI01
aI01
aI01
aI01
aI01
aI01
aI01
aI01
aI01
aI01
aI01
aI01
aI01
aI01
aI01
aI01
aI01
aI01
aI01
aI01
aI01
aI00
asS'total_steps'
p47
I92
sS'normalized_h_of_p_ui_given_um'
p48
(lp49
cnumpy.core.multiarray
scalar
p50
(cnumpy
dtype
p51
(S'f8'
p52
I0
I1
tp53
Rp54
(I3
S'<'
p55
NNNI-1
I-1
I0
tp56
bS"@a'\xd6\x18^\xec?"
p57
tp58
Rp59
ag50
(g54
S'\xad\xaf\xc8ppw\xee?'
p60
tp61
Rp62
ag50
(g54
S"@a'\xd6\x18^\xec?"
p63
tp64
Rp65
ag50
(g54
S"@a'\xd6\x18^\xec?"
p66
tp67
Rp68
ag50
(g54
S'\x88w>\x1e\xb4\x8d\xe7?'
p69
tp70
Rp71
ag50
(g54
S'\x81\x03\x15\x8e\xd1\xd1\xee?'
p72
tp73
Rp74
ag50
(g54
S'\\\xbe\xb5W\x18\xc2\xe7?'
p75
tp76
Rp77
ag50
(g54
S'\x88w>\x1e\xb4\x8d\xe7?'
p78
tp79
Rp80
ag50
(g54
S'\x81\x03\x15\x8e\xd1\xd1\xee?'
p81
tp82
Rp83
ag50
(g54
S'T\xf6\xc8\x80\xcc\xec\xea?'
p84
tp85
Rp86
ag50
(g54
S'\x81\x03\x15\x8e\xd1\xd1\xee?'
p87
tp88
Rp89
ag50
(g54
S'\x81\x03\x15\x8e\xd1\xd1\xee?'
p90
tp91
Rp92
ag50
(g54
S'\xc6\xe1\x9a^P[\xe1?'
p93
tp94
Rp95
ag50
(g54
S'`o\xc45\x19*\xe5?'
p96
tp97
Rp98
ag50
(g54
S'\\\xbe\xb5W\x18\xc2\xe7?'
p99
tp100
Rp101
ag50
(g54
S'\xa8\xa1\\\x88\xd1\xaf\xe1?'
p102
tp103
Rp104
ag50
(g54
S'\x84\x95l6\xd1\xa8\xe1?'
p105
tp106
Rp107
ag50
(g54
S'\xad\xaf\xc8ppw\xee?'
p108
tp109
Rp110
ag50
(g54
S'\xa8\xa1\\\x88\xd1\xaf\xe1?'
p111
tp112
Rp113
ag50
(g54
S'\x1d\x8a\xb4\x8a\xe5\x95\xe6?'
p114
tp115
Rp116
ag50
(g54
S'`o\xc45\x19*\xe5?'
p117
tp118
Rp119
ag50
(g54
S'\\\xbe\xb5W\x18\xc2\xe7?'
p120
tp121
Rp122
ag50
(g54
S"@a'\xd6\x18^\xec?"
p123
tp124
Rp125
ag50
(g54
S'\xa8\xa1\\\x88\xd1\xaf\xe1?'
p126
tp127
Rp128
ag50
(g54
S'\x1d\x8a\xb4\x8a\xe5\x95\xe6?'
p129
tp130
Rp131
ag50
(g54
S'\x18F\xebl6\x19\xe7?'
p132
tp133
Rp134
ag50
(g54
S'\xad\xaf\xc8ppw\xee?'
p135
tp136
Rp137
ag50
(g54
S'\x1d\x8a\xb4\x8a\xe5\x95\xe6?'
p138
tp139
Rp140
ag50
(g54
S'\x84\x95l6\xd1\xa8\xe1?'
p141
tp142
Rp143
ag50
(g54
S"@a'\xd6\x18^\xec?"
p144
tp145
Rp146
ag50
(g54
S'\x88w>\x1e\xb4\x8d\xe7?'
p147
tp148
Rp149
ag50
(g54
S'\x81\x03\x15\x8e\xd1\xd1\xee?'
p150
tp151
Rp152
ag50
(g54
S'\x81\x03\x15\x8e\xd1\xd1\xee?'
p153
tp154
Rp155
ag50
(g54
S'\x81\x03\x15\x8e\xd1\xd1\xee?'
p156
tp157
Rp158
ag50
(g54
S'\x81\x03\x15\x8e\xd1\xd1\xee?'
p159
tp160
Rp161
ag50
(g54
S'\x81\x03\x15\x8e\xd1\xd1\xee?'
p162
tp163
Rp164
ag50
(g54
S'T\xf6\xc8\x80\xcc\xec\xea?'
p165
tp166
Rp167
ag50
(g54
S'\\\xbe\xb5W\x18\xc2\xe7?'
p168
tp169
Rp170
ag50
(g54
S'\xad\xaf\xc8ppw\xee?'
p171
tp172
Rp173
ag50
(g54
S'\x84\x95l6\xd1\xa8\xe1?'
p174
tp175
Rp176
ag50
(g54
S"@a'\xd6\x18^\xec?"
p177
tp178
Rp179
ag50
(g54
S'\xad\xaf\xc8ppw\xee?'
p180
tp181
Rp182
ag50
(g54
S'\x1d\x8a\xb4\x8a\xe5\x95\xe6?'
p183
tp184
Rp185
ag50
(g54
S'\x18F\xebl6\x19\xe7?'
p186
tp187
Rp188
ag50
(g54
S'\xa8\xa1\\\x88\xd1\xaf\xe1?'
p189
tp190
Rp191
ag50
(g54
S'\x1a\xd8\xf2\x84\xac\xaf\xec?'
p192
tp193
Rp194
ag50
(g54
S'\\\xbe\xb5W\x18\xc2\xe7?'
p195
tp196
Rp197
ag50
(g54
S'\x88w>\x1e\xb4\x8d\xe7?'
p198
tp199
Rp200
ag50
(g54
S'\x81\x03\x15\x8e\xd1\xd1\xee?'
p201
tp202
Rp203
ag50
(g54
S'T\xf6\xc8\x80\xcc\xec\xea?'
p204
tp205
Rp206
ag50
(g54
S'\\\xbe\xb5W\x18\xc2\xe7?'
p207
tp208
Rp209
ag50
(g54
S'\xa8\xa1\\\x88\xd1\xaf\xe1?'
p210
tp211
Rp212
ag50
(g54
S'\xde\xa5H\x0e\x97O\xe4?'
p213
tp214
Rp215
ag50
(g54
S'\xad\xaf\xc8ppw\xee?'
p216
tp217
Rp218
ag50
(g54
S'\x1d\x8a\xb4\x8a\xe5\x95\xe6?'
p219
tp220
Rp221
ag50
(g54
S'\x1d\x8a\xb4\x8a\xe5\x95\xe6?'
p222
tp223
Rp224
ag50
(g54
S'\x84\x95l6\xd1\xa8\xe1?'
p225
tp226
Rp227
ag50
(g54
S"@a'\xd6\x18^\xec?"
p228
tp229
Rp230
ag50
(g54
S'\xa8\xa1\\\x88\xd1\xaf\xe1?'
p231
tp232
Rp233
ag50
(g54
S'\xde\xa5H\x0e\x97O\xe4?'
p234
tp235
Rp236
ag50
(g54
S'\xad\xaf\xc8ppw\xee?'
p237
tp238
Rp239
ag50
(g54
S'`o\xc45\x19*\xe5?'
p240
tp241
Rp242
ag50
(g54
S'T\xf6\xc8\x80\xcc\xec\xea?'
p243
tp244
Rp245
ag50
(g54
S'\xad\xaf\xc8ppw\xee?'
p246
tp247
Rp248
ag50
(g54
S'\xa8\xa1\\\x88\xd1\xaf\xe1?'
p249
tp250
Rp251
ag50
(g54
S'\x1d\x8a\xb4\x8a\xe5\x95\xe6?'
p252
tp253
Rp254
ag50
(g54
S'`o\xc45\x19*\xe5?'
p255
tp256
Rp257
ag50
(g54
S'\x81\x03\x15\x8e\xd1\xd1\xee?'
p258
tp259
Rp260
ag50
(g54
S'\\\xbe\xb5W\x18\xc2\xe7?'
p261
tp262
Rp263
ag50
(g54
S'\xa8\xa1\\\x88\xd1\xaf\xe1?'
p264
tp265
Rp266
ag50
(g54
S'\x84\x95l6\xd1\xa8\xe1?'
p267
tp268
Rp269
ag50
(g54
S"@a'\xd6\x18^\xec?"
p270
tp271
Rp272
ag50
(g54
S'\xad\xaf\xc8ppw\xee?'
p273
tp274
Rp275
ag50
(g54
S"@a'\xd6\x18^\xec?"
p276
tp277
Rp278
ag50
(g54
S"@a'\xd6\x18^\xec?"
p279
tp280
Rp281
ag50
(g54
S"@a'\xd6\x18^\xec?"
p282
tp283
Rp284
ag50
(g54
S'\xad\xaf\xc8ppw\xee?'
p285
tp286
Rp287
ag50
(g54
S'\xad\xaf\xc8ppw\xee?'
p288
tp289
Rp290
ag50
(g54
S'\xa8\xa1\\\x88\xd1\xaf\xe1?'
p291
tp292
Rp293
ag50
(g54
S'`o\xc45\x19*\xe5?'
p294
tp295
Rp296
ag50
(g54
S'T\xf6\xc8\x80\xcc\xec\xea?'
p297
tp298
Rp299
ag50
(g54
S"@a'\xd6\x18^\xec?"
p300
tp301
Rp302
ag50
(g54
S'\xad\xaf\xc8ppw\xee?'
p303
tp304
Rp305
ag50
(g54
S'\xad\xaf\xc8ppw\xee?'
p306
tp307
Rp308
ag50
(g54
S'\xad\xaf\xc8ppw\xee?'
p309
tp310
Rp311
ag50
(g54
S'\xad\xaf\xc8ppw\xee?'
p312
tp313
Rp314
ag50
(g54
S'\xad\xaf\xc8ppw\xee?'
p315
tp316
Rp317
ag50
(g54
S'\x88w>\x1e\xb4\x8d\xe7?'
p318
tp319
Rp320
ag50
(g54
S'\xc6\xe1\x9a^P[\xe1?'
p321
tp322
Rp323
ag50
(g54
S'\x84\x95l6\xd1\xa8\xe1?'
p324
tp325
Rp326
ag50
(g54
S'\x88w>\x1e\xb4\x8d\xe7?'
p327
tp328
Rp329
ag50
(g54
S'\x81\x03\x15\x8e\xd1\xd1\xee?'
p330
tp331
Rp332
asS'sp'
p333
(lp334
(S'p0'
p335
I0
S'y'
p336
tp337
a(g335
I0
g336
tp338
ag337
ag337
a(g335
I0
S't'
p339
tp340
a(g335
I0
g339
tp341
a(g335
I0
g336
tp342
ag340
ag341
a(g335
I0
g339
tp343
ag341
ag341
a(g335
I0
S'x'
p344
tp345
a(g335
I0
g339
tp346
ag342
a(g335
I0
g344
tp347
a(S'p1'
p348
I0
g344
tp349
a(g348
I0
g344
tp350
a(g348
I0
g339
tp351
a(g348
I0
g339
tp352
a(g348
I0
g336
tp353
a(g348
I0
g344
tp354
a(g348
I0
g344
tp355
ag351
ag352
a(g348
F1.5707963267948966
g339
tp356
a(g348
I0
g339
tp357
ag352
ag356
a(g348
F1.5707963267948966
g339
tp358
a(g348
F1.5707963267948966
g344
tp359
a(g348
F1.5707963267948966
g344
tp360
ag360
ag360
ag360
ag360
a(g348
F1.5707963267948966
g344
tp361
a(g348
F1.5707963267948966
g339
tp362
ag357
ag356
ag358
ag357
ag352
ag356
a(g348
F1.5707963267948966
g336
tp363
a(g348
F1.5707963267948966
g344
tp364
ag362
ag359
ag360
ag361
ag362
ag363
a(g348
F1.5707963267948966
g339
tp365
ag357
ag352
ag352
ag356
ag358
ag363
ag365
ag357
ag353
a(g335
I0
g336
tp366
ag338
ag347
a(g335
I0
g344
tp367
ag346
ag341
ag342
ag347
ag349
ag355
ag350
ag355
ag355
ag355
ag350
ag350
ag351
ag353
ag366
ag337
ag338
ag338
ag338
ag338
ag338
ag340
ag345
ag349
a(g348
I0
g336
tp368
a(S'p2'
p369
I0
g336
tp370
asS's'
p371
(lp372
(g335
I0
g22
tp373
ag337
ag338
ag337
ag337
ag340
ag341
ag342
ag340
ag341
ag343
ag341
ag341
ag345
ag346
ag342
ag347
ag349
ag350
ag351
ag352
ag353
ag354
ag355
ag351
ag352
ag356
ag357
ag352
ag356
ag358
ag359
ag360
ag360
ag360
ag360
ag360
ag361
ag362
ag357
ag356
ag358
ag357
ag352
ag356
ag363
ag364
ag362
ag359
ag360
ag361
ag362
ag363
ag365
ag357
ag352
ag352
ag356
ag358
ag363
ag365
ag357
ag353
ag366
ag338
ag347
ag367
ag346
ag341
ag342
ag347
ag349
ag355
ag350
ag355
ag355
ag355
ag350
ag350
ag351
ag353
ag366
ag337
ag338
ag338
ag338
ag338
ag338
ag340
ag345
ag349
ag368
asS'ui'
p374
(lp375
S'hp'
p376
ag376
aS'hs'
p377
ag376
ag376
aS'ss'
p378
ag333
ag333
ag376
ag333
ag378
ag376
ag376
ag377
ag377
ag377
ag378
ag378
ag377
ag378
ag333
ag333
ag377
ag377
ag378
ag333
ag333
ag333
ag378
ag333
ag377
ag333
ag376
ag377
ag333
ag333
ag333
ag377
ag377
ag333
ag333
ag333
ag378
ag333
ag377
ag377
ag376
ag376
ag333
ag378
ag377
ag333
ag376
ag333
ag378
ag333
ag378
ag376
ag333
ag376
ag376
ag377
ag333
ag378
ag377
ag333
ag377
ag378
ag377
ag333
ag378
ag378
ag376
ag378
ag333
ag376
ag333
ag378
ag377
ag333
ag376
ag333
ag333
ag378
ag376
ag377
ag378
ag376
ag376
ag333
ag378
ag377
asS'um_before'
p379
(lp380
g333
ag378
ag333
ag333
ag376
ag378
ag377
ag376
ag378
ag333
ag378
ag378
ag376
ag377
ag377
ag377
ag333
ag378
ag377
ag378
ag377
ag377
ag333
ag377
ag378
ag376
ag378
ag378
ag333
ag333
ag376
ag378
ag378
ag378
ag378
ag378
ag333
ag377
ag378
ag333
ag333
ag378
ag378
ag376
ag377
ag377
ag377
ag376
ag378
ag333
ag377
ag377
ag376
ag378
ag378
ag378
ag333
ag333
ag377
ag376
ag378
ag377
ag333
ag378
ag377
ag378
ag377
ag378
ag377
ag377
ag333
ag333
ag378
ag333
ag333
ag333
ag378
ag378
ag377
ag377
ag333
ag333
ag378
ag378
ag378
ag378
ag378
ag376
ag376
ag333
ag376
ag378
asS'um_after'
p381
(lp382
g333
ag378
ag333
ag333
ag376
ag378
ag377
ag376
ag378
ag333
ag378
ag378
ag376
ag377
ag377
ag377
ag333
ag378
ag377
ag378
ag377
ag377
ag333
ag377
ag378
ag333
ag378
ag378
ag333
ag333
ag376
ag378
ag378
ag378
ag378
ag378
ag333
ag377
ag378
ag333
ag333
ag378
ag378
ag333
ag377
ag377
ag377
ag376
ag378
ag333
ag377
ag377
ag376
ag378
ag378
ag378
ag333
ag333
ag377
ag376
ag378
ag377
ag333
ag378
ag377
ag378
ag377
ag378
ag377
ag377
ag333
ag333
ag378
ag333
ag333
ag333
ag378
ag378
ag377
ag377
ag333
ag333
ag378
ag378
ag378
ag378
ag378
ag376
ag376
ag333
ag376
ag378
asS'is_normalized_entropy_less_than_threshold'
p383
(lp384
g50
(g51
(S'b1'
p385
I0
I1
tp386
Rp387
(I3
S'|'
p388
NNNI-1
I-1
I0
tp389
bS'\x01'
p390
tp391
Rp392
ag50
(g387
S'\x00'
p393
tp394
Rp395
ag392
ag392
ag392
ag395
ag392
ag392
ag395
ag392
ag395
ag395
ag392
ag392
ag392
ag392
ag392
ag395
ag392
ag392
ag392
ag392
ag392
ag392
ag392
ag392
ag395
ag392
ag392
ag392
ag392
ag395
ag395
ag395
ag395
ag395
ag392
ag392
ag395
ag392
ag392
ag395
ag392
ag392
ag392
ag392
ag392
ag392
ag395
ag392
ag392
ag392
ag392
ag395
ag392
ag392
ag392
ag392
ag392
ag392
ag395
ag392
ag392
ag395
ag392
ag392
ag392
ag395
ag392
ag392
ag392
ag392
ag395
ag392
ag392
ag392
ag395
ag395
ag392
ag392
ag392
ag392
ag395
ag395
ag395
ag395
ag395
ag392
ag392
ag392
ag392
ag395
asaa(lp396
S'index'
p397
aI89540
aatp398
Rp399
.