ccollections
OrderedDict
p0
((lp1
(lp2
S'combination_dict'
p3
ag0
((lp4
(lp5
S'r_to_g_config'
p6
aS'tr'
p7
aa(lp8
S'num_turns'
p9
aI2
aa(lp10
S'start_direction'
p11
acutils_ms
StartDirection
p12
(I0
tp13
Rp14
aa(lp15
S'assistance_type'
p16
acutils_ms
AssistanceType
p17
(I0
tp18
Rp19
aa(lp20
S'start_mode'
p21
aS'y'
p22
aa(lp23
S'ui_given_a_noise'
p24
aF0.3
aa(lp25
S'um_given_ui_noise'
p26
aF0.3
aa(lp27
S'entropy_threshold'
p28
aF0.8
aatp29
Rp30
aa(lp31
S'data'
p32
accollections
defaultdict
p33
(c__builtin__
list
p34
tp35
Rp36
S'a'
p37
(lp38
S'mode_l'
p39
ag39
aS'mode_r'
p40
ag40
ag40
ag40
aS'move_p'
p41
ag41
ag40
ag40
ag41
ag40
ag40
ag40
ag40
ag41
ag40
ag41
asS'assistance_match_with_ground_truth'
p42
(lp43
I00
aI00
aI00
aI00
aI00
aI01
aI00
aI01
aI00
aI01
aI01
aI00
aI00
aI00
aI01
aI01
aI01
aI01
asS'is_u_intended_equals_um'
p44
(lp45
I00
aI01
aI00
aI00
aI00
aI01
aI00
aI01
aI00
aI01
aI01
aI00
aI00
aI00
aI01
aI01
aI01
aI01
asS'total_steps'
p46
I18
sS'normalized_h_of_p_ui_given_um'
p47
(lp48
cnumpy.core.multiarray
scalar
p49
(cnumpy
dtype
p50
(S'f8'
p51
I0
I1
tp52
Rp53
(I3
S'<'
p54
NNNI-1
I-1
I0
tp55
bS'T\x8b;%\xa7l\xe6?'
p56
tp57
Rp58
ag49
(g53
S'\x00\x1c\xd9HG\xbf\xeb?'
p59
tp60
Rp61
ag49
(g53
S'\x0c\x86&\x05/\xd9\xe4?'
p62
tp63
Rp64
ag49
(g53
S'\xc4\xe3\xfd~f\x86\xe2?'
p65
tp66
Rp67
ag49
(g53
S'\xa19\x06\xad\xbd\xf9\xe5?'
p68
tp69
Rp70
ag49
(g53
S'\xbb\xdd\x18\x0c\xeaE\xce?'
p71
tp72
Rp73
ag49
(g53
S'~\xe2M\x8d\xd9[\xe3?'
p74
tp75
Rp76
ag49
(g53
S'\x06<a\x8cx7\xba?'
p77
tp78
Rp79
ag49
(g53
S'\xc4\xe3\xfd~f\x86\xe2?'
p80
tp81
Rp82
ag49
(g53
S'\xbb\xdd\x18\x0c\xeaE\xce?'
p83
tp84
Rp85
ag49
(g53
S'\x06<a\x8cx7\xba?'
p86
tp87
Rp88
ag49
(g53
S'\xa19\x06\xad\xbd\xf9\xe5?'
p89
tp90
Rp91
ag49
(g53
S'\x0c\x86&\x05/\xd9\xe4?'
p92
tp93
Rp94
ag49
(g53
S'\xa19\x06\xad\xbd\xf9\xe5?'
p95
tp96
Rp97
ag49
(g53
S'\xbb\xdd\x18\x0c\xeaE\xce?'
p98
tp99
Rp100
ag49
(g53
S'\x06<a\x8cx7\xba?'
p101
tp102
Rp103
ag49
(g53
S'\xbb\xdd\x18\x0c\xeaE\xce?'
p104
tp105
Rp106
ag49
(g53
S'\x06<a\x8cx7\xba?'
p107
tp108
Rp109
asS'sp'
p110
(lp111
(S'p0'
p112
I0
g22
tp113
a(g112
I0
S't'
p114
tp115
ag115
ag115
ag115
a(g112
I0
S'x'
p116
tp117
ag117
a(S'p1'
p118
I0
g116
tp119
ag119
a(g118
I0
S'y'
p120
tp121
a(S'p2'
p122
I0
g120
tp123
ag123
ag123
ag123
a(g122
I0
g114
tp124
a(g122
F1.5707963267948966
g114
tp125
a(g122
F1.5707963267948966
g116
tp126
a(S'p3'
p127
F1.5707963267948966
g116
tp128
asS's'
p129
(lp130
g113
ag113
ag115
ag115
ag115
ag115
ag117
ag117
ag119
ag119
ag121
ag123
ag123
ag123
ag123
ag124
ag125
ag126
asS'ui'
p131
(lp132
S'hs'
p133
ag133
ag110
aS'hp'
p134
ag134
ag134
ag133
ag110
ag134
ag134
ag134
ag134
ag134
ag134
ag134
ag110
ag134
ag110
asS'um_before'
p135
(lp136
S'ss'
p137
ag134
ag110
ag137
ag133
ag134
ag133
ag110
ag137
ag134
ag110
ag133
ag110
ag133
ag134
ag110
ag134
ag110
asS'um_after'
p138
(lp139
Nag134
aNaNaNag134
aNag110
aNag134
ag110
aNaNaNag134
ag110
ag134
ag110
asS'is_normalized_entropy_less_than_threshold'
p140
(lp141
g49
(g50
(S'b1'
p142
I0
I1
tp143
Rp144
(I3
S'|'
p145
NNNI-1
I-1
I0
tp146
bS'\x01'
p147
tp148
Rp149
ag49
(g144
S'\x00'
p150
tp151
Rp152
ag149
ag149
ag149
ag149
ag149
ag149
ag149
ag149
ag149
ag149
ag149
ag149
ag149
ag149
ag149
ag149
asaa(lp153
S'index'
p154
aI10686
aatp155
Rp156
.