ccollections
OrderedDict
p0
((lp1
(lp2
S'combination_dict'
p3
ag0
((lp4
(lp5
S'r_to_g_config'
p6
aS'tr'
p7
aa(lp8
S'num_turns'
p9
aI1
aa(lp10
S'start_direction'
p11
acutils_ms
StartDirection
p12
(I0
tp13
Rp14
aa(lp15
S'assistance_type'
p16
acutils_ms
AssistanceType
p17
(I2
tp18
Rp19
aa(lp20
S'start_mode'
p21
aS'y'
p22
aa(lp23
S'ui_given_a_noise'
p24
aF0.7
aa(lp25
S'um_given_ui_noise'
p26
aF0.5
aa(lp27
S'entropy_threshold'
p28
aF0.7
aatp29
Rp30
aa(lp31
S'data'
p32
accollections
defaultdict
p33
(c__builtin__
list
p34
tp35
Rp36
S'a'
p37
(lp38
S'mode_l'
p39
ag39
ag39
aS'move_p'
p40
ag39
ag40
ag39
ag39
ag40
ag40
ag39
ag40
asS'assistance_match_with_ground_truth'
p41
(lp42
I00
aI00
aI01
aI01
aI01
aI00
aI00
aI01
aI00
aI01
aI01
aI01
asS'is_u_intended_equals_um'
p43
(lp44
I01
aI01
aI01
aI01
aI01
aI01
aI01
aI01
aI01
aI01
aI01
aI01
asS'total_steps'
p45
I12
sS'normalized_h_of_p_ui_given_um'
p46
(lp47
cnumpy.core.multiarray
scalar
p48
(cnumpy
dtype
p49
(S'f8'
p50
I0
I1
tp51
Rp52
(I3
S'<'
p53
NNNI-1
I-1
I0
tp54
bS'\xc2~H\xe6r\xdd\xdd?'
p55
tp56
Rp57
ag57
ag57
ag57
ag57
ag57
ag57
ag57
ag57
ag57
ag57
ag57
asS'sp'
p58
(lp59
(S'p0'
p60
I0
S'y'
p61
tp62
ag62
a(g60
I0
S'x'
p63
tp64
a(S'p1'
p65
I0
g63
tp66
a(g65
I0
S't'
p67
tp68
a(g65
I0
g63
tp69
a(g65
I0
g63
tp70
ag68
a(g65
I0
g67
tp71
a(g65
F1.5707963267948966
g67
tp72
a(g65
F1.5707963267948966
g61
tp73
a(S'p2'
p74
F1.5707963267948966
g61
tp75
asS's'
p76
(lp77
(g60
I0
g22
tp78
ag62
ag62
ag64
ag66
ag68
ag69
ag70
ag68
ag71
ag72
ag73
asS'ui'
p79
(lp80
g58
ag58
aS'hs'
p81
ag58
ag81
ag58
ag58
ag81
aS'ss'
p82
ag58
ag81
ag58
asS'um_before'
p83
(lp84
g58
ag58
ag81
ag58
ag81
aS'hp'
p85
ag82
ag81
ag82
ag58
ag81
ag58
asS'um_after'
p86
(lp87
g58
ag58
ag81
ag58
ag81
ag85
ag82
ag81
ag82
ag58
ag81
ag58
asS'is_normalized_entropy_less_than_threshold'
p88
(lp89
g48
(g49
(S'b1'
p90
I0
I1
tp91
Rp92
(I3
S'|'
p93
NNNI-1
I-1
I0
tp94
bS'\x01'
p95
tp96
Rp97
ag97
ag97
ag97
ag97
ag97
ag97
ag97
ag97
ag97
ag97
ag97
asaa(lp98
S'index'
p99
aI4727
aatp100
Rp101
.