ccollections
OrderedDict
p0
((lp1
(lp2
S'combination_dict'
p3
ag0
((lp4
(lp5
S'r_to_g_config'
p6
aS'br'
p7
aa(lp8
S'num_turns'
p9
aI2
aa(lp10
S'start_direction'
p11
acutils_ms
StartDirection
p12
(I0
tp13
Rp14
aa(lp15
S'assistance_type'
p16
acutils_ms
AssistanceType
p17
(I1
tp18
Rp19
aa(lp20
S'start_mode'
p21
aS'y'
p22
aa(lp23
S'ui_given_a_noise'
p24
aF0.5
aa(lp25
S'um_given_ui_noise'
p26
aF0.7
aa(lp27
S'entropy_threshold'
p28
aF0.8
aatp29
Rp30
aa(lp31
S'data'
p32
accollections
defaultdict
p33
(c__builtin__
list
p34
tp35
Rp36
S'a'
p37
(lp38
S'mode_l'
p39
aS'move_p'
p40
ag39
ag39
ag39
ag39
ag40
ag40
ag40
aS'mode_r'
p41
ag40
ag39
aS'move_n'
p42
ag39
ag41
ag40
asS'assistance_match_with_ground_truth'
p43
(lp44
I01
aI01
aI00
aI00
aI00
aI01
aI00
aI00
aI00
aI01
aI01
aI01
aI01
aI00
aI01
aI01
asS'is_u_intended_equals_um'
p45
(lp46
I01
aI01
aI00
aI00
aI00
aI01
aI00
aI00
aI01
aI00
aI01
aI01
aI01
aI01
aI01
aI00
asS'total_steps'
p47
I16
sS'normalized_h_of_p_ui_given_um'
p48
(lp49
cnumpy.core.multiarray
scalar
p50
(cnumpy
dtype
p51
(S'f8'
p52
I0
I1
tp53
Rp54
(I3
S'<'
p55
NNNI-1
I-1
I0
tp56
bS'\x9f\xf1;L\x91\t\xe0?'
p57
tp58
Rp59
ag50
(g54
S'\xac\x9dW;\x7f\x8f\xe3?'
p60
tp61
Rp62
ag50
(g54
S'\t`Th}\xa5\xec?'
p63
tp64
Rp65
ag50
(g54
S'\xb7\xad$\x91;\xa5\xe9?'
p66
tp67
Rp68
ag50
(g54
S'\t`Th}\xa5\xec?'
p69
tp70
Rp71
ag50
(g54
S'\x9f\xf1;L\x91\t\xe0?'
p72
tp73
Rp74
ag50
(g54
S'^\xa9%x\x916\xea?'
p75
tp76
Rp77
ag50
(g54
S'^\xa9%x\x916\xea?'
p78
tp79
Rp80
ag50
(g54
S'.\x83i\xa0~\xe0\xec?'
p81
tp82
Rp83
ag50
(g54
S'\x06\xca2\xf4\xd1\xaa\xe5?'
p84
tp85
Rp86
ag50
(g54
S'\xac\x9dW;\x7f\x8f\xe3?'
p87
tp88
Rp89
ag50
(g54
S'\x9f\xf1;L\x91\t\xe0?'
p90
tp91
Rp92
ag50
(g54
S'\xca9]\xa01\x8f\xd9?'
p93
tp94
Rp95
ag50
(g54
S'$\xd2\xec\xd5!e\xe9?'
p96
tp97
Rp98
ag50
(g54
S'\xae\xc8Y1\xef\xbf\xd9?'
p99
tp100
Rp101
ag50
(g54
S'\xc2}\xfah^\xeb\xe3?'
p102
tp103
Rp104
asS'sp'
p105
(lp106
(S'p0'
p107
I0
S'x'
p108
tp109
a(S'p1'
p110
I0
g108
tp111
a(g110
I0
g108
tp112
a(g110
I0
g108
tp113
ag112
a(g110
I0
S't'
p114
tp115
a(g110
I0
g114
tp116
ag116
a(g110
I0
S'y'
p117
tp118
a(g110
I0
g114
tp119
a(g110
F1.5707963267948966
g114
tp120
a(g110
F1.5707963267948966
g117
tp121
a(S'p2'
p122
F1.5707963267948966
g117
tp123
a(g122
F1.5707963267948966
g114
tp124
a(g122
F1.5707963267948966
g108
tp125
a(S'p3'
p126
F1.5707963267948966
g108
tp127
asS's'
p128
(lp129
(g107
I0
g22
tp130
ag109
ag111
ag112
ag113
ag112
ag115
ag116
ag116
ag118
ag119
ag120
ag121
ag123
ag124
ag125
asS'ui'
p131
(lp132
S'hp'
p133
ag105
aS'hs'
p134
ag134
ag133
ag133
ag105
ag105
aS'ss'
p135
ag105
ag105
ag134
ag135
ag133
ag133
ag105
asS'um_before'
p136
(lp137
g134
ag105
ag135
ag105
ag135
ag134
ag135
ag135
ag134
ag135
ag105
ag134
ag135
ag133
ag133
ag133
asS'um_after'
p138
(lp139
g134
ag105
ag135
ag105
ag135
ag134
ag135
ag135
ag134
ag133
ag105
ag134
ag135
ag133
ag133
ag105
asS'is_normalized_entropy_less_than_threshold'
p140
(lp141
g50
(g51
(S'b1'
p142
I0
I1
tp143
Rp144
(I3
S'|'
p145
NNNI-1
I-1
I0
tp146
bS'\x01'
p147
tp148
Rp149
ag149
ag50
(g144
S'\x00'
p150
tp151
Rp152
ag152
ag152
ag149
ag152
ag152
ag152
ag149
ag149
ag149
ag149
ag149
ag149
ag149
asaa(lp153
S'index'
p154
aI98981
aatp155
Rp156
.