ccollections
OrderedDict
p0
((lp1
(lp2
S'combination_dict'
p3
ag0
((lp4
(lp5
S'r_to_g_config'
p6
aS'tl'
p7
aa(lp8
S'num_turns'
p9
aI2
aa(lp10
S'start_direction'
p11
acutils_ms
StartDirection
p12
(I0
tp13
Rp14
aa(lp15
S'assistance_type'
p16
acutils_ms
AssistanceType
p17
(I1
tp18
Rp19
aa(lp20
S'start_mode'
p21
aS't'
p22
aa(lp23
S'ui_given_a_noise'
p24
aF0.5
aa(lp25
S'um_given_ui_noise'
p26
aF0.5
aa(lp27
S'entropy_threshold'
p28
aF0.5
aatp29
Rp30
aa(lp31
S'data'
p32
accollections
defaultdict
p33
(c__builtin__
list
p34
tp35
Rp36
S'a'
p37
(lp38
S'mode_r'
p39
ag39
ag39
aS'move_n'
p40
ag39
ag39
ag39
aS'mode_l'
p41
ag40
ag41
aS'move_p'
p42
ag41
ag42
ag41
ag41
ag40
ag39
ag42
ag41
ag40
ag39
ag39
ag39
ag39
ag42
ag41
ag41
ag41
ag41
ag41
ag40
ag39
ag40
ag39
ag42
ag41
ag42
ag41
ag40
asS'assistance_match_with_ground_truth'
p43
(lp44
I00
aI00
aI01
aI00
aI00
aI00
aI00
aI01
aI01
aI01
aI01
aI01
aI01
aI00
aI01
aI00
aI01
aI01
aI01
aI00
aI00
aI00
aI00
aI01
aI01
aI00
aI00
aI00
aI00
aI01
aI00
aI01
aI00
aI01
aI00
aI01
aI01
aI01
aI01
asS'is_u_intended_equals_um'
p45
(lp46
I01
aI01
aI01
aI01
aI01
aI01
aI01
aI01
aI01
aI01
aI01
aI01
aI01
aI01
aI01
aI01
aI01
aI01
aI01
aI01
aI01
aI01
aI01
aI01
aI01
aI01
aI01
aI01
aI01
aI01
aI01
aI01
aI01
aI01
aI01
aI01
aI01
aI01
aI01
asS'total_steps'
p47
I39
sS'normalized_h_of_p_ui_given_um'
p48
(lp49
cnumpy.core.multiarray
scalar
p50
(cnumpy
dtype
p51
(S'f8'
p52
I0
I1
tp53
Rp54
(I3
S'<'
p55
NNNI-1
I-1
I0
tp56
bS'\x15\x94\xac\x03\xaa\xb6\xeb?'
p57
tp58
Rp59
ag50
(g54
S'\x15\x94\xac\x03\xaa\xb6\xeb?'
p60
tp61
Rp62
ag50
(g54
S'\xf8\x9bF\xab)\xf6\xce?'
p63
tp64
Rp65
ag50
(g54
S'\x96\xeahQ\xb8\x18\xe9?'
p66
tp67
Rp68
ag50
(g54
S'&\xfb\xe3\xd5\x9a\xb0\xda?'
p69
tp70
Rp71
ag50
(g54
S'\x15\x94\xac\x03\xaa\xb6\xeb?'
p72
tp73
Rp74
ag50
(g54
S'\xbd\xf0\xb4\x94N\x00\xe0?'
p75
tp76
Rp77
ag50
(g54
S'<\x8e5\x91$\xb4\xc7?'
p78
tp79
Rp80
ag50
(g54
S'\r\x80\\|\xc5X\xbd?'
p81
tp82
Rp83
ag50
(g54
S'<\x8e5\x91$\xb4\xc7?'
p84
tp85
Rp86
ag50
(g54
S't\xe0\xee9y&\xc5?'
p87
tp88
Rp89
ag50
(g54
S'<\x8e5\x91$\xb4\xc7?'
p90
tp91
Rp92
ag50
(g54
S't\xe0\xee9y&\xc5?'
p93
tp94
Rp95
ag50
(g54
S'1\xe1\x99{\x8a\x15\xec?'
p96
tp97
Rp98
ag50
(g54
S'<\x8e5\x91$\xb4\xc7?'
p99
tp100
Rp101
ag50
(g54
S'lm\xac>9\x1a\xe2?'
p102
tp103
Rp104
ag50
(g54
S'\xf8\x9bF\xab)\xf6\xce?'
p105
tp106
Rp107
ag50
(g54
S't\xe0\xee9y&\xc5?'
p108
tp109
Rp110
ag50
(g54
S'<\x8e5\x91$\xb4\xc7?'
p111
tp112
Rp113
ag50
(g54
S'lm\xac>9\x1a\xe2?'
p114
tp115
Rp116
ag50
(g54
S'\x15\x94\xac\x03\xaa\xb6\xeb?'
p117
tp118
Rp119
ag50
(g54
S'\x15\x94\xac\x03\xaa\xb6\xeb?'
p120
tp121
Rp122
ag50
(g54
S'\x15\x94\xac\x03\xaa\xb6\xeb?'
p123
tp124
Rp125
ag50
(g54
S'\xf8\x9bF\xab)\xf6\xce?'
p126
tp127
Rp128
ag50
(g54
S't\xe0\xee9y&\xc5?'
p129
tp130
Rp131
ag50
(g54
S'1\xe1\x99{\x8a\x15\xec?'
p132
tp133
Rp134
ag50
(g54
S'1\xe1\x99{\x8a\x15\xec?'
p135
tp136
Rp137
ag50
(g54
S'\xc9\x871{\xb7\xfa\xc1?'
p138
tp139
Rp140
ag50
(g54
S'\xc9\x871{\xb7\xfa\xc1?'
p141
tp142
Rp143
ag50
(g54
S'<\x8e5\x91$\xb4\xc7?'
p144
tp145
Rp146
ag50
(g54
S'\x96\xeahQ\xb8\x18\xe9?'
p147
tp148
Rp149
ag50
(g54
S'\xf8\x9bF\xab)\xf6\xce?'
p150
tp151
Rp152
ag50
(g54
S'lm\xac>9\x1a\xe2?'
p153
tp154
Rp155
ag50
(g54
S'\xf8\x9bF\xab)\xf6\xce?'
p156
tp157
Rp158
ag50
(g54
S'\xd7\x12c\xcb\x87}\xe0?'
p159
tp160
Rp161
ag50
(g54
S'<\x8e5\x91$\xb4\xc7?'
p162
tp163
Rp164
ag50
(g54
S't\xe0\xee9y&\xc5?'
p165
tp166
Rp167
ag50
(g54
S'<\x8e5\x91$\xb4\xc7?'
p168
tp169
Rp170
ag50
(g54
S'\r\x80\\|\xc5X\xbd?'
p171
tp172
Rp173
asS'sp'
p174
(lp175
(S'p0'
p176
I0
S't'
p177
tp178
ag178
a(g176
I0
S'x'
p179
tp180
a(g176
I0
g177
tp181
a(g176
I0
g177
tp182
ag178
a(g176
I0
S'y'
p183
tp184
a(g176
I0
g179
tp185
a(S'p1'
p186
I0
g179
tp187
a(g186
I0
g177
tp188
a(g186
F1.5707963267948966
g177
tp189
a(g186
F1.5707963267948966
g183
tp190
a(S'p2'
p191
F1.5707963267948966
g183
tp192
a(g191
F1.5707963267948966
g183
tp193
a(g191
F1.5707963267948966
g179
tp194
a(g186
F1.5707963267948966
g179
tp195
a(g186
F1.5707963267948966
g183
tp196
ag192
ag194
ag195
a(g186
F1.5707963267948966
g179
tp197
ag197
ag197
ag196
ag192
ag193
ag193
a(g191
F1.5707963267948966
g183
tp198
ag198
ag194
a(g191
F1.5707963267948966
g177
tp199
a(g191
F1.5707963267948966
g179
tp200
ag195
ag196
a(g186
F1.5707963267948966
g177
tp201
ag190
ag192
ag194
a(S'p3'
p202
F1.5707963267948966
g179
tp203
asS's'
p204
(lp205
(g176
I0
g22
tp206
ag178
ag178
ag180
ag181
ag182
ag178
ag184
ag185
ag187
ag188
ag189
ag190
ag192
ag193
ag194
ag195
ag196
ag192
ag194
ag195
ag197
ag197
ag197
ag196
ag192
ag193
ag193
ag198
ag198
ag194
ag199
ag200
ag195
ag196
ag201
ag190
ag192
ag194
asS'ui'
p207
(lp208
g174
aS'ss'
p209
aS'hp'
p210
ag209
ag174
aS'hs'
p211
ag211
ag211
ag209
ag211
ag174
ag211
ag174
ag174
ag174
ag209
ag210
ag174
ag211
ag174
ag174
ag210
ag174
ag210
ag174
ag211
ag211
ag209
ag209
ag211
ag209
ag210
ag209
ag210
ag210
ag211
ag174
ag209
ag209
asS'um_before'
p212
(lp213
g174
ag174
ag210
ag211
ag209
ag174
ag211
ag211
ag209
ag211
ag174
ag211
ag174
ag174
ag211
ag174
ag210
ag174
ag211
ag174
ag174
ag174
ag174
ag210
ag174
ag174
ag174
ag209
ag209
ag211
ag211
ag210
ag174
ag210
ag210
ag211
ag174
ag211
ag209
asS'um_after'
p214
(lp215
g174
ag174
ag210
ag211
ag209
ag174
ag211
ag211
ag209
ag211
ag174
ag211
ag174
ag174
ag211
ag174
ag210
ag174
ag211
ag174
ag174
ag174
ag174
ag210
ag174
ag174
ag174
ag209
ag209
ag211
ag211
ag210
ag174
ag210
ag210
ag211
ag174
ag211
ag209
asS'is_normalized_entropy_less_than_threshold'
p216
(lp217
g50
(g51
(S'b1'
p218
I0
I1
tp219
Rp220
(I3
S'|'
p221
NNNI-1
I-1
I0
tp222
bS'\x00'
p223
tp224
Rp225
ag225
ag50
(g220
S'\x01'
p226
tp227
Rp228
ag225
ag228
ag225
ag225
ag228
ag228
ag228
ag228
ag228
ag228
ag225
ag228
ag225
ag228
ag228
ag228
ag225
ag225
ag225
ag225
ag228
ag228
ag225
ag225
ag228
ag228
ag228
ag225
ag228
ag225
ag228
ag225
ag228
ag228
ag228
ag228
asaa(lp229
S'index'
p230
aI40500
aatp231
Rp232
.