ccollections
OrderedDict
p0
((lp1
(lp2
S'combination_dict'
p3
ag0
((lp4
(lp5
S'r_to_g_config'
p6
aS'tr'
p7
aa(lp8
S'num_turns'
p9
aI3
aa(lp10
S'start_direction'
p11
acutils_ms
StartDirection
p12
(I1
tp13
Rp14
aa(lp15
S'assistance_type'
p16
acutils_ms
AssistanceType
p17
(I0
tp18
Rp19
aa(lp20
S'start_mode'
p21
aS'x'
p22
aa(lp23
S'ui_given_a_noise'
p24
aF0.1
aa(lp25
S'um_given_ui_noise'
p26
aF0.3
aa(lp27
S'entropy_threshold'
p28
aF0.8
aatp29
Rp30
aa(lp31
S'data'
p32
accollections
defaultdict
p33
(c__builtin__
list
p34
tp35
Rp36
S'a'
p37
(lp38
S'mode_r'
p39
aS'move_p'
p40
ag39
ag39
ag40
ag40
ag40
ag39
ag40
ag39
ag40
ag40
aS'mode_l'
p41
ag40
asS'assistance_match_with_ground_truth'
p42
(lp43
I01
aI01
aI00
aI01
aI00
aI00
aI01
aI01
aI01
aI01
aI00
aI01
aI01
aI01
asS'is_u_intended_equals_um'
p44
(lp45
I01
aI01
aI00
aI01
aI00
aI00
aI01
aI01
aI01
aI01
aI00
aI01
aI01
aI01
asS'total_steps'
p46
I14
sS'normalized_h_of_p_ui_given_um'
p47
(lp48
cnumpy.core.multiarray
scalar
p49
(cnumpy
dtype
p50
(S'f8'
p51
I0
I1
tp52
Rp53
(I3
S'<'
p54
NNNI-1
I-1
I0
tp55
bS'f\xa6\\\x00\xd5\x8a\xb3?'
p56
tp57
Rp58
ag49
(g53
S'8\xca\xf1\x16\xeat\xbe?'
p59
tp60
Rp61
ag49
(g53
S'\xb0\x1cT\xc8\xca\x04\xe3?'
p62
tp63
Rp64
ag49
(g53
S'f\xa6\\\x00\xd5\x8a\xb3?'
p65
tp66
Rp67
ag49
(g53
S'pl\x87^\xd2\x89\xdd?'
p68
tp69
Rp70
ag49
(g53
S'pl\x87^\xd2\x89\xdd?'
p71
tp72
Rp73
ag49
(g53
S'8\xca\xf1\x16\xeat\xbe?'
p74
tp75
Rp76
ag49
(g53
S'f\xa6\\\x00\xd5\x8a\xb3?'
p77
tp78
Rp79
ag49
(g53
S'8\xca\xf1\x16\xeat\xbe?'
p80
tp81
Rp82
ag49
(g53
S'f\xa6\\\x00\xd5\x8a\xb3?'
p83
tp84
Rp85
ag49
(g53
S'pl\x87^\xd2\x89\xdd?'
p86
tp87
Rp88
ag49
(g53
S'8\xca\xf1\x16\xeat\xbe?'
p89
tp90
Rp91
ag49
(g53
S'\xa83jxy*\xa5?'
p92
tp93
Rp94
ag49
(g53
S'8\xca\xf1\x16\xeat\xbe?'
p95
tp96
Rp97
asS'sp'
p98
(lp99
(S'p0'
p100
I0
S'y'
p101
tp102
a(S'p1'
p103
I0
g101
tp104
ag104
a(g103
I0
S't'
p105
tp106
ag106
ag106
a(g103
F1.5707963267948966
g105
tp107
a(g103
F1.5707963267948966
S'x'
p108
tp109
a(S'p2'
p110
F1.5707963267948966
g108
tp111
a(g110
F1.5707963267948966
g101
tp112
ag112
a(S'p3'
p113
F1.5707963267948966
g101
tp114
a(g113
F1.5707963267948966
g108
tp115
a(S'p4'
p116
F1.5707963267948966
g108
tp117
asS's'
p118
(lp119
(g100
I0
g22
tp120
ag102
ag104
ag104
ag106
ag106
ag106
ag107
ag109
ag111
ag112
ag112
ag114
ag115
asS'ui'
p121
(lp122
S'hp'
p123
ag98
aS'ss'
p124
ag123
ag98
ag98
ag98
ag123
ag98
ag123
ag98
ag98
aS'hs'
p125
ag98
asS'um_before'
p126
(lp127
g123
ag98
ag98
ag123
ag124
ag124
ag98
ag123
ag98
ag123
ag124
ag98
ag125
ag98
asS'um_after'
p128
(lp129
g123
ag98
aNag123
aNaNag98
ag123
ag98
ag123
aNag98
ag125
ag98
asS'is_normalized_entropy_less_than_threshold'
p130
(lp131
g49
(g50
(S'b1'
p132
I0
I1
tp133
Rp134
(I3
S'|'
p135
NNNI-1
I-1
I0
tp136
bS'\x01'
p137
tp138
Rp139
ag139
ag139
ag139
ag139
ag139
ag139
ag139
ag139
ag139
ag139
ag139
ag139
ag139
asaa(lp140
S'index'
p141
aI24082
aatp142
Rp143
.