ccollections
OrderedDict
p0
((lp1
(lp2
S'combination_dict'
p3
ag0
((lp4
(lp5
S'r_to_g_config'
p6
aS'tl'
p7
aa(lp8
S'num_turns'
p9
aI3
aa(lp10
S'start_direction'
p11
acutils_ms
StartDirection
p12
(I1
tp13
Rp14
aa(lp15
S'assistance_type'
p16
acutils_ms
AssistanceType
p17
(I1
tp18
Rp19
aa(lp20
S'start_mode'
p21
aS'x'
p22
aa(lp23
S'ui_given_a_noise'
p24
aF0.3
aa(lp25
S'um_given_ui_noise'
p26
aF0.1
aa(lp27
S'entropy_threshold'
p28
aF0.6
aatp29
Rp30
aa(lp31
S'data'
p32
accollections
defaultdict
p33
(c__builtin__
list
p34
tp35
Rp36
S'a'
p37
(lp38
S'mode_r'
p39
aS'move_p'
p40
aS'mode_l'
p41
ag41
aS'move_n'
p42
ag39
ag41
ag42
ag39
ag40
ag39
ag40
ag39
ag39
ag39
ag41
ag42
ag39
ag39
ag40
ag41
ag42
asS'assistance_match_with_ground_truth'
p43
(lp44
I01
aI01
aI00
aI01
aI00
aI00
aI01
aI01
aI01
aI01
aI01
aI01
aI00
aI00
aI00
aI01
aI00
aI00
aI01
aI01
aI01
aI01
asS'is_u_intended_equals_um'
p45
(lp46
I01
aI01
aI00
aI01
aI01
aI01
aI01
aI01
aI01
aI01
aI01
aI01
aI01
aI01
aI01
aI01
aI01
aI00
aI01
aI01
aI01
aI01
asS'total_steps'
p47
I22
sS'normalized_h_of_p_ui_given_um'
p48
(lp49
cnumpy.core.multiarray
scalar
p50
(cnumpy
dtype
p51
(S'f8'
p52
I0
I1
tp53
Rp54
(I3
S'<'
p55
NNNI-1
I-1
I0
tp56
bS'\x02\x99\x0c\xb9)N\xb9?'
p57
tp58
Rp59
ag50
(g54
S')\x9f\x10I{6\xbe?'
p60
tp61
Rp62
ag50
(g54
S'2\xb9\x02\xdbA\xda\xe4?'
p63
tp64
Rp65
ag50
(g54
S'\xf7\xc7\xcfw:/\xa5?'
p66
tp67
Rp68
ag50
(g54
S'2:\x02\xf7Jc\xd1?'
p69
tp70
Rp71
ag50
(g54
S'\x85<A\xcb\x9bi\xdd?'
p72
tp73
Rp74
ag50
(g54
S'\xf7\xc7\xcfw:/\xa5?'
p75
tp76
Rp77
ag50
(g54
S'\x02\x1c\x93>\xedD\xbd?'
p78
tp79
Rp80
ag50
(g54
S'\x02\x99\x0c\xb9)N\xb9?'
p81
tp82
Rp83
ag50
(g54
S')\x9f\x10I{6\xbe?'
p84
tp85
Rp86
ag50
(g54
S'\x02\x99\x0c\xb9)N\xb9?'
p87
tp88
Rp89
ag50
(g54
S')\x9f\x10I{6\xbe?'
p90
tp91
Rp92
ag50
(g54
S'\x99l\xc0\\\xbf^\xde?'
p93
tp94
Rp95
ag50
(g54
S'\x99l\xc0\\\xbf^\xde?'
p96
tp97
Rp98
ag50
(g54
S'\x85<A\xcb\x9bi\xdd?'
p99
tp100
Rp101
ag50
(g54
S'\xf7\xc7\xcfw:/\xa5?'
p102
tp103
Rp104
ag50
(g54
S'r\xf3\xf0(l\x1e\xd1?'
p105
tp106
Rp107
ag50
(g54
S'2f-\xd8\xea\x08\xe8?'
p108
tp109
Rp110
ag50
(g54
S'\x02\x99\x0c\xb9)N\xb9?'
p111
tp112
Rp113
ag50
(g54
S')\x9f\x10I{6\xbe?'
p114
tp115
Rp116
ag50
(g54
S'\xf7\xc7\xcfw:/\xa5?'
p117
tp118
Rp119
ag50
(g54
S'\x02\x1c\x93>\xedD\xbd?'
p120
tp121
Rp122
asS'sp'
p123
(lp124
(S'p0'
p125
I0
S'y'
p126
tp127
a(S'p1'
p128
I0
g126
tp129
a(g128
I0
g126
tp130
a(g128
I0
S'x'
p131
tp132
a(g128
I0
S't'
p133
tp134
a(g128
I0
g126
tp135
ag132
a(S'p2'
p136
I0
g131
tp137
a(g136
I0
g126
tp138
a(S'p3'
p139
I0
g126
tp140
a(g139
I0
g133
tp141
a(g139
F1.5707963267948966
g133
tp142
a(g139
F1.5707963267948966
g133
tp143
ag143
a(g139
F1.5707963267948966
g126
tp144
a(g139
F1.5707963267948966
g131
tp145
a(g136
F1.5707963267948966
g131
tp146
a(g136
F1.5707963267948966
g131
tp147
a(g136
F1.5707963267948966
g126
tp148
a(g139
F1.5707963267948966
g126
tp149
ag145
a(S'p4'
p150
F1.5707963267948966
g131
tp151
asS's'
p152
(lp153
(g125
I0
g22
tp154
ag127
ag129
ag130
ag132
ag134
ag135
ag132
ag137
ag138
ag140
ag141
ag142
ag143
ag143
ag144
ag145
ag146
ag147
ag148
ag149
ag145
asS'ui'
p155
(lp156
S'hp'
p157
ag123
ag123
aS'hs'
p158
ag158
ag157
ag158
aS'ss'
p159
ag157
ag123
ag157
ag123
ag157
ag123
ag158
ag158
ag123
ag157
ag157
ag123
ag158
ag159
asS'um_before'
p160
(lp161
g157
ag123
ag123
ag158
ag158
ag158
ag158
ag159
ag157
ag123
ag157
ag123
ag123
ag123
ag158
ag158
ag123
ag159
ag157
ag123
ag158
ag159
asS'um_after'
p162
(lp163
g157
ag123
ag123
ag158
ag158
ag158
ag158
ag159
ag157
ag123
ag157
ag123
ag123
ag123
ag158
ag158
ag123
ag159
ag157
ag123
ag158
ag159
asS'is_normalized_entropy_less_than_threshold'
p164
(lp165
g50
(g51
(S'b1'
p166
I0
I1
tp167
Rp168
(I3
S'|'
p169
NNNI-1
I-1
I0
tp170
bS'\x01'
p171
tp172
Rp173
ag173
ag50
(g168
S'\x00'
p174
tp175
Rp176
ag173
ag173
ag173
ag173
ag173
ag173
ag173
ag173
ag173
ag173
ag173
ag173
ag173
ag173
ag176
ag173
ag173
ag173
ag173
asaa(lp177
S'index'
p178
aI54610
aatp179
Rp180
.