ccollections
OrderedDict
p0
((lp1
(lp2
S'combination_dict'
p3
ag0
((lp4
(lp5
S'r_to_g_config'
p6
aS'tl'
p7
aa(lp8
S'num_turns'
p9
aI3
aa(lp10
S'start_direction'
p11
acutils_ms
StartDirection
p12
(I1
tp13
Rp14
aa(lp15
S'assistance_type'
p16
acutils_ms
AssistanceType
p17
(I0
tp18
Rp19
aa(lp20
S'start_mode'
p21
aS't'
p22
aa(lp23
S'ui_given_a_noise'
p24
aF0.5
aa(lp25
S'um_given_ui_noise'
p26
aF0.7
aa(lp27
S'entropy_threshold'
p28
aF0.7
aatp29
Rp30
aa(lp31
S'data'
p32
accollections
defaultdict
p33
(c__builtin__
list
p34
tp35
Rp36
S'a'
p37
(lp38
S'mode_l'
p39
ag39
ag39
aS'move_p'
p40
ag39
aS'move_n'
p41
ag39
ag39
ag40
ag40
aS'mode_r'
p42
ag39
ag41
ag39
ag40
ag40
ag42
ag42
ag40
ag39
ag40
ag39
ag39
ag39
ag39
ag39
ag39
ag40
ag39
ag39
ag39
ag39
ag39
ag39
ag39
ag41
ag42
ag42
ag42
ag40
ag39
ag39
ag39
ag39
ag39
ag39
ag40
ag42
ag42
ag42
ag42
ag42
ag42
ag42
ag42
ag42
ag42
ag40
ag39
ag40
ag39
ag41
ag41
ag41
ag39
ag39
ag39
ag39
ag39
ag39
ag41
ag42
ag40
ag39
ag39
ag41
ag42
ag40
ag39
ag39
ag39
ag39
ag39
ag39
ag41
ag42
ag42
ag42
ag42
ag40
ag39
ag39
ag40
ag39
ag40
ag40
ag39
ag39
ag39
ag39
ag39
ag40
ag40
ag39
ag40
ag40
ag39
ag39
ag39
ag40
ag39
ag39
ag39
ag39
ag40
ag42
ag42
ag42
ag42
ag42
ag42
ag42
ag40
ag39
ag39
ag39
ag39
ag39
ag39
ag39
ag39
ag39
ag41
ag42
ag40
ag39
ag41
ag41
ag39
ag41
ag39
ag39
ag39
ag39
ag41
asS'assistance_match_with_ground_truth'
p43
(lp44
I00
aI00
aI01
aI01
aI01
aI01
aI00
aI01
aI00
aI00
aI00
aI01
aI01
aI01
aI00
aI00
aI00
aI01
aI01
aI01
aI00
aI00
aI00
aI00
aI00
aI00
aI01
aI00
aI00
aI00
aI00
aI00
aI00
aI00
aI01
aI00
aI00
aI00
aI01
aI00
aI00
aI00
aI00
aI00
aI00
aI01
aI00
aI00
aI00
aI00
aI00
aI00
aI00
aI00
aI00
aI00
aI01
aI00
aI01
aI01
aI01
aI00
aI00
aI00
aI00
aI00
aI00
aI00
aI00
aI01
aI01
aI01
aI00
aI00
aI01
aI00
aI01
aI01
aI00
aI00
aI00
aI00
aI00
aI01
aI01
aI00
aI00
aI00
aI01
aI00
aI00
aI00
aI00
aI01
aI00
aI00
aI00
aI00
aI00
aI00
aI01
aI00
aI00
aI01
aI00
aI01
aI00
aI00
aI01
aI00
aI00
aI00
aI00
aI01
aI00
aI00
aI00
aI00
aI00
aI00
aI00
aI01
aI00
aI00
aI00
aI00
aI00
aI00
aI00
aI00
aI00
aI01
aI01
aI01
aI01
aI01
aI00
aI00
aI01
aI00
aI00
aI00
aI00
aI01
aI01
asS'is_u_intended_equals_um'
p45
(lp46
I00
aI00
aI01
aI01
aI01
aI01
aI00
aI01
aI00
aI01
aI00
aI01
aI01
aI01
aI00
aI01
aI00
aI01
aI01
aI01
aI00
aI00
aI00
aI00
aI00
aI00
aI01
aI00
aI00
aI00
aI00
aI00
aI00
aI00
aI01
aI00
aI00
aI00
aI01
aI00
aI00
aI00
aI00
aI00
aI00
aI01
aI01
aI01
aI00
aI00
aI01
aI00
aI01
aI00
aI00
aI00
aI01
aI00
aI01
aI01
aI01
aI00
aI00
aI01
aI00
aI00
aI00
aI00
aI00
aI01
aI01
aI01
aI00
aI00
aI01
aI00
aI01
aI01
aI00
aI00
aI00
aI00
aI00
aI01
aI01
aI00
aI00
aI00
aI01
aI00
aI00
aI00
aI00
aI01
aI00
aI00
aI00
aI00
aI00
aI00
aI01
aI00
aI00
aI01
aI00
aI01
aI00
aI00
aI01
aI00
aI00
aI00
aI00
aI01
aI01
aI00
aI00
aI00
aI01
aI00
aI01
aI01
aI00
aI00
aI00
aI00
aI00
aI00
aI00
aI00
aI00
aI01
aI01
aI01
aI01
aI01
aI00
aI01
aI01
aI01
aI00
aI00
aI00
aI01
aI01
asS'total_steps'
p47
I145
sS'normalized_h_of_p_ui_given_um'
p48
(lp49
cnumpy.core.multiarray
scalar
p50
(cnumpy
dtype
p51
(S'f8'
p52
I0
I1
tp53
Rp54
(I3
S'<'
p55
NNNI-1
I-1
I0
tp56
bS'\x9dA\x99qT\xa0\xec?'
p57
tp58
Rp59
ag50
(g54
S'\x9dA\x99qT\xa0\xec?'
p60
tp61
Rp62
ag50
(g54
S'>\xa4m\xc3\xe0%\xdf?'
p63
tp64
Rp65
ag50
(g54
S'/aI\n\tb\xe1?'
p66
tp67
Rp68
ag50
(g54
S'>\xa4m\xc3\xe0%\xdf?'
p69
tp70
Rp71
ag50
(g54
S'\xd67W.\x81\x01\xe3?'
p72
tp73
Rp74
ag50
(g54
S'6\xd8BiK\x8f\xeb?'
p75
tp76
Rp77
ag50
(g54
S'>\xa4m\xc3\xe0%\xdf?'
p78
tp79
Rp80
ag50
(g54
S'\xc1\xc9\x08^X\x8f\xe9?'
p81
tp82
Rp83
ag50
(g54
S':\x9d\x08\xef\xcd\xe8\xe8?'
p84
tp85
Rp86
ag50
(g54
S'\xfb\xcc\xeb\xa81\xa7\xe7?'
p87
tp88
Rp89
ag50
(g54
S'>\xa4m\xc3\xe0%\xdf?'
p90
tp91
Rp92
ag50
(g54
S'\xd67W.\x81\x01\xe3?'
p93
tp94
Rp95
ag50
(g54
S'>\xa4m\xc3\xe0%\xdf?'
p96
tp97
Rp98
ag50
(g54
S'\xc1\xc9\x08^X\x8f\xe9?'
p99
tp100
Rp101
ag50
(g54
S':\x9d\x08\xef\xcd\xe8\xe8?'
p102
tp103
Rp104
ag50
(g54
S'\xb5\xc4\x11\xf8\xbfz\xe1?'
p105
tp106
Rp107
ag50
(g54
S"\xa9\xc4'z\x8f\x0e\xe3?"
p108
tp109
Rp110
ag50
(g54
S'/aI\n\tb\xe1?'
p111
tp112
Rp113
ag50
(g54
S'>\xa4m\xc3\xe0%\xdf?'
p114
tp115
Rp116
ag50
(g54
S':\r\xf7\xa6Z4\xe9?'
p117
tp118
Rp119
ag50
(g54
S'Zcn?\x9aR\xe6?'
p120
tp121
Rp122
ag50
(g54
S'Zcn?\x9aR\xe6?'
p123
tp124
Rp125
ag50
(g54
S'6\xd8BiK\x8f\xeb?'
p126
tp127
Rp128
ag50
(g54
S'6\xd8BiK\x8f\xeb?'
p129
tp130
Rp131
ag50
(g54
S'Zcn?\x9aR\xe6?'
p132
tp133
Rp134
ag50
(g54
S'>\xa4m\xc3\xe0%\xdf?'
p135
tp136
Rp137
ag50
(g54
S'\xc1\xc9\x08^X\x8f\xe9?'
p138
tp139
Rp140
ag50
(g54
S'6\xd8BiK\x8f\xeb?'
p141
tp142
Rp143
ag50
(g54
S'\x9dA\x99qT\xa0\xec?'
p144
tp145
Rp146
ag50
(g54
S'\x9dA\x99qT\xa0\xec?'
p147
tp148
Rp149
ag50
(g54
S'\x9dA\x99qT\xa0\xec?'
p150
tp151
Rp152
ag50
(g54
S'6\xd8BiK\x8f\xeb?'
p153
tp154
Rp155
ag50
(g54
S'Zcn?\x9aR\xe6?'
p156
tp157
Rp158
ag50
(g54
S'>\xa4m\xc3\xe0%\xdf?'
p159
tp160
Rp161
ag50
(g54
S'\x9c6\xa8\xebNK\xec?'
p162
tp163
Rp164
ag50
(g54
S'\xfb\xcc\xeb\xa81\xa7\xe7?'
p165
tp166
Rp167
ag50
(g54
S'\xfb\xcc\xeb\xa81\xa7\xe7?'
p168
tp169
Rp170
ag50
(g54
S"\xa9\xc4'z\x8f\x0e\xe3?"
p171
tp172
Rp173
ag50
(g54
S':\r\xf7\xa6Z4\xe9?'
p174
tp175
Rp176
ag50
(g54
S'Zcn?\x9aR\xe6?'
p177
tp178
Rp179
ag50
(g54
S'\x9dA\x99qT\xa0\xec?'
p180
tp181
Rp182
ag50
(g54
S'\x9dA\x99qT\xa0\xec?'
p183
tp184
Rp185
ag50
(g54
S'6\xd8BiK\x8f\xeb?'
p186
tp187
Rp188
ag50
(g54
S'\x9dA\x99qT\xa0\xec?'
p189
tp190
Rp191
ag50
(g54
S'>\xa4m\xc3\xe0%\xdf?'
p192
tp193
Rp194
ag50
(g54
S':\x9d\x08\xef\xcd\xe8\xe8?'
p195
tp196
Rp197
ag50
(g54
S'\xa4\x99\xcb\x17\x8a\xef\xe5?'
p198
tp199
Rp200
ag50
(g54
S'\xb5\xc4\x11\xf8\xbfz\xe1?'
p201
tp202
Rp203
ag50
(g54
S'\xb5\xc4\x11\xf8\xbfz\xe1?'
p204
tp205
Rp206
ag50
(g54
S'\xa4\x99\xcb\x17\x8a\xef\xe5?'
p207
tp208
Rp209
ag50
(g54
S'\xb5\xc4\x11\xf8\xbfz\xe1?'
p210
tp211
Rp212
ag50
(g54
S'\xa4\x99\xcb\x17\x8a\xef\xe5?'
p213
tp214
Rp215
ag50
(g54
S'\xb5\xc4\x11\xf8\xbfz\xe1?'
p216
tp217
Rp218
ag50
(g54
S'\xfb\xcc\xeb\xa81\xa7\xe7?'
p219
tp220
Rp221
ag50
(g54
S'\xfb\xcc\xeb\xa81\xa7\xe7?'
p222
tp223
Rp224
ag50
(g54
S"\xa9\xc4'z\x8f\x0e\xe3?"
p225
tp226
Rp227
ag50
(g54
S':\r\xf7\xa6Z4\xe9?'
p228
tp229
Rp230
ag50
(g54
S'>\xa4m\xc3\xe0%\xdf?'
p231
tp232
Rp233
ag50
(g54
S'/aI\n\tb\xe1?'
p234
tp235
Rp236
ag50
(g54
S'>\xa4m\xc3\xe0%\xdf?'
p237
tp238
Rp239
ag50
(g54
S'\xa31\r\xc4Q1\xe6?'
p240
tp241
Rp242
ag50
(g54
S'\xa31\r\xc4Q1\xe6?'
p243
tp244
Rp245
ag50
(g54
S'd\xd2\xfb\xf0\xd9\x93\xed?'
p246
tp247
Rp248
ag50
(g54
S'6\xd8BiK\x8f\xeb?'
p249
tp250
Rp251
ag50
(g54
S'\x9dA\x99qT\xa0\xec?'
p252
tp253
Rp254
ag50
(g54
S'6\xd8BiK\x8f\xeb?'
p255
tp256
Rp257
ag50
(g54
S'Zcn?\x9aR\xe6?'
p258
tp259
Rp260
ag50
(g54
S'Zcn?\x9aR\xe6?'
p261
tp262
Rp263
ag50
(g54
S'>\xa4m\xc3\xe0%\xdf?'
p264
tp265
Rp266
ag50
(g54
S'\xd67W.\x81\x01\xe3?'
p267
tp268
Rp269
ag50
(g54
S"\xa9\xc4'z\x8f\x0e\xe3?"
p270
tp271
Rp272
ag50
(g54
S'\xc1\xc9\x08^X\x8f\xe9?'
p273
tp274
Rp275
ag50
(g54
S'6\xd8BiK\x8f\xeb?'
p276
tp277
Rp278
ag50
(g54
S'>\xa4m\xc3\xe0%\xdf?'
p279
tp280
Rp281
ag50
(g54
S'\x9c6\xa8\xebNK\xec?'
p282
tp283
Rp284
ag50
(g54
S"\xa9\xc4'z\x8f\x0e\xe3?"
p285
tp286
Rp287
ag50
(g54
S'/aI\n\tb\xe1?'
p288
tp289
Rp290
ag50
(g54
S'Zcn?\x9aR\xe6?'
p291
tp292
Rp293
ag50
(g54
S'\x9dA\x99qT\xa0\xec?'
p294
tp295
Rp296
ag50
(g54
S'Zcn?\x9aR\xe6?'
p297
tp298
Rp299
ag50
(g54
S'Zcn?\x9aR\xe6?'
p300
tp301
Rp302
ag50
(g54
S'6\xd8BiK\x8f\xeb?'
p303
tp304
Rp305
ag50
(g54
S'>\xa4m\xc3\xe0%\xdf?'
p306
tp307
Rp308
ag50
(g54
S'\xd67W.\x81\x01\xe3?'
p309
tp310
Rp311
ag50
(g54
S'\xb5\xc4\x11\xf8\xbfz\xe1?'
p312
tp313
Rp314
ag50
(g54
S'\xfb\xcc\xeb\xa81\xa7\xe7?'
p315
tp316
Rp317
ag50
(g54
S'\xfb\xcc\xeb\xa81\xa7\xe7?'
p318
tp319
Rp320
ag50
(g54
S"\xa9\xc4'z\x8f\x0e\xe3?"
p321
tp322
Rp323
ag50
(g54
S':\r\xf7\xa6Z4\xe9?'
p324
tp325
Rp326
ag50
(g54
S'Zcn?\x9aR\xe6?'
p327
tp328
Rp329
ag50
(g54
S'\x9dA\x99qT\xa0\xec?'
p330
tp331
Rp332
ag50
(g54
S':\r\xf7\xa6Z4\xe9?'
p333
tp334
Rp335
ag50
(g54
S'>\xa4m\xc3\xe0%\xdf?'
p336
tp337
Rp338
ag50
(g54
S'\xc1\xc9\x08^X\x8f\xe9?'
p339
tp340
Rp341
ag50
(g54
S':\r\xf7\xa6Z4\xe9?'
p342
tp343
Rp344
ag50
(g54
S'\x9dA\x99qT\xa0\xec?'
p345
tp346
Rp347
ag50
(g54
S'6\xd8BiK\x8f\xeb?'
p348
tp349
Rp350
ag50
(g54
S'\x9dA\x99qT\xa0\xec?'
p351
tp352
Rp353
ag50
(g54
S'6\xd8BiK\x8f\xeb?'
p354
tp355
Rp356
ag50
(g54
S'>\xa4m\xc3\xe0%\xdf?'
p357
tp358
Rp359
ag50
(g54
S'\xc1\xc9\x08^X\x8f\xe9?'
p360
tp361
Rp362
ag50
(g54
S':\r\xf7\xa6Z4\xe9?'
p363
tp364
Rp365
ag50
(g54
S'>\xa4m\xc3\xe0%\xdf?'
p366
tp367
Rp368
ag50
(g54
S'\xc1\xc9\x08^X\x8f\xe9?'
p369
tp370
Rp371
ag50
(g54
S'/aI\n\tb\xe1?'
p372
tp373
Rp374
ag50
(g54
S'6\xd8BiK\x8f\xeb?'
p375
tp376
Rp377
ag50
(g54
S'Zcn?\x9aR\xe6?'
p378
tp379
Rp380
ag50
(g54
S'>\xa4m\xc3\xe0%\xdf?'
p381
tp382
Rp383
ag50
(g54
S':\r\xf7\xa6Z4\xe9?'
p384
tp385
Rp386
ag50
(g54
S'Zcn?\x9aR\xe6?'
p387
tp388
Rp389
ag50
(g54
S'6\xd8BiK\x8f\xeb?'
p390
tp391
Rp392
ag50
(g54
S'Zcn?\x9aR\xe6?'
p393
tp394
Rp395
ag50
(g54
S'>\xa4m\xc3\xe0%\xdf?'
p396
tp397
Rp398
ag50
(g54
S':\x9d\x08\xef\xcd\xe8\xe8?'
p399
tp400
Rp401
ag50
(g54
S'\xb5\xc4\x11\xf8\xbfz\xe1?'
p402
tp403
Rp404
ag50
(g54
S'\xfb\xcc\xeb\xa81\xa7\xe7?'
p405
tp406
Rp407
ag50
(g54
S'\xb5\xc4\x11\xf8\xbfz\xe1?'
p408
tp409
Rp410
ag50
(g54
S'\xa4\x99\xcb\x17\x8a\xef\xe5?'
p411
tp412
Rp413
ag50
(g54
S'\xfb\xcc\xeb\xa81\xa7\xe7?'
p414
tp415
Rp416
ag50
(g54
S'\xa4\x99\xcb\x17\x8a\xef\xe5?'
p417
tp418
Rp419
ag50
(g54
S"\xa9\xc4'z\x8f\x0e\xe3?"
p420
tp421
Rp422
ag50
(g54
S'\xc1\xc9\x08^X\x8f\xe9?'
p423
tp424
Rp425
ag50
(g54
S'\x9dA\x99qT\xa0\xec?'
p426
tp427
Rp428
ag50
(g54
S'Zcn?\x9aR\xe6?'
p429
tp430
Rp431
ag50
(g54
S'Zcn?\x9aR\xe6?'
p432
tp433
Rp434
ag50
(g54
S'\x9dA\x99qT\xa0\xec?'
p435
tp436
Rp437
ag50
(g54
S'Zcn?\x9aR\xe6?'
p438
tp439
Rp440
ag50
(g54
S'\x9dA\x99qT\xa0\xec?'
p441
tp442
Rp443
ag50
(g54
S'6\xd8BiK\x8f\xeb?'
p444
tp445
Rp446
ag50
(g54
S'Zcn?\x9aR\xe6?'
p447
tp448
Rp449
ag50
(g54
S'>\xa4m\xc3\xe0%\xdf?'
p450
tp451
Rp452
ag50
(g54
S'\xd67W.\x81\x01\xe3?'
p453
tp454
Rp455
ag50
(g54
S"\xa9\xc4'z\x8f\x0e\xe3?"
p456
tp457
Rp458
ag50
(g54
S'/aI\n\tb\xe1?'
p459
tp460
Rp461
ag50
(g54
S'>\xa4m\xc3\xe0%\xdf?'
p462
tp463
Rp464
ag50
(g54
S'\xa31\r\xc4Q1\xe6?'
p465
tp466
Rp467
ag50
(g54
S'd\xd2\xfb\xf0\xd9\x93\xed?'
p468
tp469
Rp470
ag50
(g54
S'>\xa4m\xc3\xe0%\xdf?'
p471
tp472
Rp473
ag50
(g54
S'd\xd2\xfb\xf0\xd9\x93\xed?'
p474
tp475
Rp476
ag50
(g54
S'6\xd8BiK\x8f\xeb?'
p477
tp478
Rp479
ag50
(g54
S'Zcn?\x9aR\xe6?'
p480
tp481
Rp482
ag50
(g54
S'Zcn?\x9aR\xe6?'
p483
tp484
Rp485
ag50
(g54
S'>\xa4m\xc3\xe0%\xdf?'
p486
tp487
Rp488
ag50
(g54
S'\xd67W.\x81\x01\xe3?'
p489
tp490
Rp491
asS'sp'
p492
(lp493
(S'p0'
p494
I0
S't'
p495
tp496
ag496
a(g494
I0
S'y'
p497
tp498
a(S'p1'
p499
I0
g497
tp500
a(g499
I0
S'x'
p501
tp502
a(S'p2'
p503
I0
g501
tp504
a(g503
I0
g501
tp505
a(g503
I0
g495
tp506
a(g503
I0
g495
tp507
a(g503
I0
g497
tp508
a(g499
I0
g497
tp509
ag502
ag504
ag506
ag507
ag508
ag508
a(g503
I0
g495
tp510
a(g503
F1.5707963267948966
g495
tp511
a(g503
F1.5707963267948966
g497
tp512
a(g503
F1.5707963267948966
g495
tp513
ag513
ag513
a(g503
F1.5707963267948966
g495
tp514
ag514
ag514
ag512
a(g499
F1.5707963267948966
g497
tp515
a(g499
F1.5707963267948966
g497
tp516
a(g499
F1.5707963267948966
g497
tp517
ag517
ag517
ag516
ag516
a(g499
F1.5707963267948966
g501
tp518
a(g494
F1.5707963267948966
g501
tp519
a(g494
F1.5707963267948966
g501
tp520
ag520
a(g494
F1.5707963267948966
g497
tp521
a(g494
F1.5707963267948966
g495
tp522
ag522
a(g494
F1.5707963267948966
g495
tp523
ag523
a(g494
F1.5707963267948966
g495
tp524
ag523
a(g494
F1.5707963267948966
g497
tp525
a(g494
F1.5707963267948966
g501
tp526
a(g494
F1.5707963267948966
g501
tp527
ag527
ag527
ag527
ag527
ag527
ag527
ag520
ag520
ag521
ag522
ag525
a(g499
F1.5707963267948966
g497
tp528
ag518
ag518
ag518
a(g499
F1.5707963267948966
g497
tp529
ag516
ag517
ag516
ag516
ag516
ag518
a(g503
F1.5707963267948966
g501
tp530
a(g503
F1.5707963267948966
g497
tp531
ag515
ag516
ag518
ag519
ag521
ag528
ag528
ag517
ag517
ag517
ag516
ag518
ag530
ag530
a(g503
F1.5707963267948966
g501
tp532
ag532
ag531
ag513
ag513
a(g503
I0
g495
tp533
a(g503
I0
g501
tp534
ag506
ag507
ag534
a(g503
I0
g501
tp535
ag505
ag535
ag505
ag506
ag507
ag534
ag506
ag507
ag511
ag514
ag514
ag512
ag513
ag513
ag514
ag514
ag512
a(g503
F1.5707963267948966
g501
tp536
ag536
ag532
ag532
a(g503
F1.5707963267948966
g501
tp537
ag532
ag537
ag531
ag515
ag517
ag517
ag517
ag517
ag517
ag517
ag516
ag516
ag518
ag530
ag531
a(S'p3'
p538
F1.5707963267948966
g497
tp539
a(g538
F1.5707963267948966
g501
tp540
ag540
a(g538
F1.5707963267948966
g497
tp541
ag540
ag541
a(g538
F1.5707963267948966
g497
tp542
ag542
ag542
ag540
a(S'p4'
p543
F1.5707963267948966
g501
tp544
asS's'
p545
(lp546
(g494
I0
g22
tp547
ag496
ag496
ag498
ag500
ag502
ag504
ag505
ag506
ag507
ag508
ag509
ag502
ag504
ag506
ag507
ag508
ag508
ag510
ag511
ag512
ag513
ag513
ag513
ag514
ag514
ag514
ag512
ag515
ag516
ag517
ag517
ag517
ag516
ag516
ag518
ag519
ag520
ag520
ag521
ag522
ag522
ag523
ag523
ag524
ag523
ag525
ag526
ag527
ag527
ag527
ag527
ag527
ag527
ag527
ag520
ag520
ag521
ag522
ag525
ag528
ag518
ag518
ag518
ag529
ag516
ag517
ag516
ag516
ag516
ag518
ag530
ag531
ag515
ag516
ag518
ag519
ag521
ag528
ag528
ag517
ag517
ag517
ag516
ag518
ag530
ag530
ag532
ag532
ag531
ag513
ag513
ag533
ag534
ag506
ag507
ag534
ag535
ag505
ag535
ag505
ag506
ag507
ag534
ag506
ag507
ag511
ag514
ag514
ag512
ag513
ag513
ag514
ag514
ag512
ag536
ag536
ag532
ag532
ag537
ag532
ag537
ag531
ag515
ag517
ag517
ag517
ag517
ag517
ag517
ag516
ag516
ag518
ag530
ag531
ag539
ag540
ag540
ag541
ag540
ag541
ag542
ag542
ag542
ag540
asS'ui'
p548
(lp549
S'hp'
p550
aS'ss'
p551
ag550
ag492
aS'hs'
p552
ag551
ag550
ag551
ag550
ag492
ag550
ag552
ag551
ag552
ag552
ag552
ag550
ag550
ag492
ag550
ag552
ag550
ag552
ag492
ag550
ag552
ag552
ag492
ag550
ag492
ag550
ag551
ag492
ag550
ag550
ag551
ag550
ag550
ag492
ag492
ag550
ag492
ag552
ag550
ag551
ag552
ag552
ag492
ag552
ag552
ag550
ag550
ag492
ag550
ag492
ag550
ag550
ag492
ag552
ag492
ag552
ag552
ag551
ag551
ag552
ag552
ag492
ag550
ag552
ag550
ag550
ag550
ag492
ag492
ag552
ag492
ag550
ag492
ag552
ag550
ag552
ag550
ag552
ag552
ag551
ag550
ag492
ag550
ag550
ag552
ag552
ag492
ag550
ag552
ag550
ag492
ag552
ag550
ag552
ag550
ag552
ag552
ag550
ag550
ag492
ag492
ag551
ag552
ag552
ag550
ag552
ag552
ag550
ag550
ag552
ag550
ag550
ag550
ag550
ag550
ag492
ag550
ag550
ag552
ag492
ag552
ag551
ag552
ag552
ag552
ag552
ag552
ag551
ag550
ag492
ag551
ag550
ag550
ag552
ag551
ag550
ag552
ag552
ag552
ag492
asS'um_before'
p553
(lp554
g551
ag551
ag552
ag492
ag552
ag551
ag492
ag552
ag551
ag552
ag551
ag552
ag551
ag552
ag551
ag552
ag552
ag550
ag492
ag552
ag550
ag550
ag550
ag492
ag492
ag550
ag552
ag551
ag492
ag551
ag551
ag551
ag492
ag550
ag552
ag492
ag551
ag551
ag550
ag550
ag550
ag551
ag551
ag492
ag551
ag552
ag552
ag492
ag552
ag552
ag492
ag552
ag492
ag552
ag551
ag551
ag550
ag550
ag552
ag492
ag552
ag552
ag552
ag550
ag492
ag551
ag492
ag550
ag550
ag552
ag551
ag550
ag551
ag492
ag552
ag492
ag550
ag492
ag550
ag551
ag550
ag550
ag492
ag552
ag551
ag552
ag551
ag551
ag550
ag550
ag550
ag551
ag550
ag552
ag551
ag550
ag551
ag492
ag551
ag492
ag552
ag551
ag550
ag552
ag551
ag492
ag492
ag550
ag552
ag550
ag550
ag492
ag550
ag552
ag552
ag552
ag551
ag552
ag492
ag551
ag492
ag550
ag551
ag551
ag550
ag550
ag551
ag550
ag551
ag492
ag550
ag552
ag551
ag550
ag492
ag552
ag552
ag550
ag552
ag550
ag492
ag550
ag550
ag552
ag551
asS'um_after'
p555
(lp556
g551
ag551
ag552
ag492
ag552
ag551
ag492
ag552
ag551
ag552
ag551
ag552
ag551
ag552
ag551
ag552
aNag550
ag492
ag552
ag550
aNaNag492
ag492
aNag552
ag551
ag492
ag551
ag551
ag551
ag492
aNag552
ag492
ag551
ag551
ag550
ag550
aNag551
ag551
ag492
ag551
ag552
ag552
ag492
aNaNag492
aNag492
aNag551
ag551
ag550
ag550
ag552
ag492
ag552
aNaNag550
ag492
ag551
ag492
aNaNag552
ag551
ag550
ag551
ag492
ag552
ag492
ag550
ag492
aNag551
aNaNag492
ag552
ag551
aNag551
ag551
ag550
ag550
aNag551
ag550
ag552
ag551
ag550
ag551
ag492
ag551
ag492
ag552
ag551
ag550
ag552
ag551
ag492
ag492
aNag552
ag550
aNag492
aNag552
ag552
aNag551
aNag492
ag551
ag492
ag550
ag551
ag551
aNaNag551
aNag551
ag492
aNag552
ag551
ag550
ag492
ag552
aNag550
ag552
ag550
ag492
aNaNag552
ag551
asS'is_normalized_entropy_less_than_threshold'
p557
(lp558
g50
(g51
(S'b1'
p559
I0
I1
tp560
Rp561
(I3
S'|'
p562
NNNI-1
I-1
I0
tp563
bS'\x00'
p564
tp565
Rp566
ag566
ag50
(g561
S'\x01'
p567
tp568
Rp569
ag569
ag569
ag569
ag566
ag569
ag566
ag566
ag566
ag569
ag569
ag569
ag566
ag566
ag569
ag569
ag569
ag569
ag566
ag569
ag569
ag566
ag566
ag569
ag569
ag566
ag566
ag566
ag566
ag566
ag566
ag569
ag569
ag566
ag566
ag566
ag569
ag566
ag569
ag566
ag566
ag566
ag566
ag569
ag566
ag569
ag569
ag569
ag569
ag569
ag569
ag569
ag566
ag566
ag569
ag566
ag569
ag569
ag569
ag569
ag569
ag566
ag566
ag566
ag566
ag569
ag569
ag569
ag569
ag569
ag566
ag566
ag569
ag566
ag569
ag569
ag569
ag566
ag569
ag569
ag566
ag569
ag569
ag569
ag566
ag566
ag569
ag566
ag569
ag566
ag566
ag569
ag566
ag566
ag566
ag566
ag566
ag566
ag569
ag566
ag566
ag569
ag566
ag569
ag566
ag569
ag569
ag566
ag569
ag566
ag569
ag569
ag566
ag569
ag566
ag569
ag569
ag566
ag569
ag569
ag566
ag566
ag569
ag569
ag566
ag569
ag566
ag566
ag569
ag569
ag569
ag569
ag569
ag569
ag569
ag566
ag569
ag566
ag566
ag569
ag569
ag569
ag569
asaa(lp570
S'index'
p571
aI54170
aatp572
Rp573
.