ccollections
OrderedDict
p0
((lp1
(lp2
S'combination_dict'
p3
ag0
((lp4
(lp5
S'r_to_g_config'
p6
aS'br'
p7
aa(lp8
S'num_turns'
p9
aI1
aa(lp10
S'start_direction'
p11
acutils_ms
StartDirection
p12
(I1
tp13
Rp14
aa(lp15
S'assistance_type'
p16
acutils_ms
AssistanceType
p17
(I0
tp18
Rp19
aa(lp20
S'start_mode'
p21
aS't'
p22
aa(lp23
S'ui_given_a_noise'
p24
aF0.5
aa(lp25
S'um_given_ui_noise'
p26
aF0.7
aa(lp27
S'entropy_threshold'
p28
aF0.9
aatp29
Rp30
aa(lp31
S'data'
p32
accollections
defaultdict
p33
(c__builtin__
list
p34
tp35
Rp36
S'a'
p37
(lp38
S'mode_l'
p39
ag39
ag39
aS'move_n'
p40
aS'mode_r'
p41
ag41
ag40
ag40
ag41
ag41
ag40
ag40
ag41
aS'move_p'
p42
ag41
ag41
ag41
ag42
ag42
ag41
ag41
ag41
ag41
ag42
ag39
ag39
ag39
ag39
ag42
ag39
ag39
ag42
ag39
ag39
ag39
ag39
ag39
ag39
ag39
ag42
ag39
ag42
ag41
ag42
ag41
ag41
ag42
ag42
asS'assistance_match_with_ground_truth'
p43
(lp44
I00
aI00
aI01
aI00
aI00
aI01
aI00
aI00
aI00
aI01
aI00
aI01
aI01
aI00
aI00
aI00
aI01
aI00
aI01
aI00
aI00
aI00
aI01
aI00
aI00
aI00
aI00
aI01
aI00
aI00
aI01
aI00
aI00
aI00
aI00
aI00
aI00
aI00
aI01
aI00
aI01
aI00
aI01
aI00
aI00
aI01
aI00
aI01
asS'is_u_intended_equals_um'
p45
(lp46
I00
aI00
aI01
aI01
aI00
aI01
aI00
aI01
aI00
aI01
aI00
aI01
aI01
aI01
aI00
aI00
aI01
aI00
aI01
aI00
aI00
aI00
aI01
aI00
aI00
aI00
aI00
aI01
aI00
aI01
aI01
aI00
aI00
aI00
aI01
aI00
aI00
aI00
aI01
aI00
aI01
aI01
aI01
aI01
aI00
aI01
aI00
aI01
asS'total_steps'
p47
I48
sS'normalized_h_of_p_ui_given_um'
p48
(lp49
cnumpy.core.multiarray
scalar
p50
(cnumpy
dtype
p51
(S'f8'
p52
I0
I1
tp53
Rp54
(I3
S'<'
p55
NNNI-1
I-1
I0
tp56
bS"\x19\x85\xf8'\x1dh\xe3?"
p57
tp58
Rp59
ag50
(g54
S"\x19\x85\xf8'\x1dh\xe3?"
p60
tp61
Rp62
ag50
(g54
S'\xb2\xe6^\xa1sl\xd4?'
p63
tp64
Rp65
ag50
(g54
S'V\x9ftb\xb3\xe8\xe9?'
p66
tp67
Rp68
ag50
(g54
S'#\xa6\xa4\xb9q4\xec?'
p69
tp70
Rp71
ag50
(g54
S'Q\xdb_\xdbl\xdb\xe2?'
p72
tp73
Rp74
ag50
(g54
S'^\x17\xa3\x1e\x84\x0e\xe7?'
p75
tp76
Rp77
ag50
(g54
S'V\x9ftb\xb3\xe8\xe9?'
p78
tp79
Rp80
ag50
(g54
S'\xa6\x95\tv\xcb\xf2\xe5?'
p81
tp82
Rp83
ag50
(g54
S'Q\xdb_\xdbl\xdb\xe2?'
p84
tp85
Rp86
ag50
(g54
S'\xec\t\x05\xb4\xf4\x86\xeb?'
p87
tp88
Rp89
ag50
(g54
S'a\x18\xee\x05P\xb6\xd0?'
p90
tp91
Rp92
ag50
(g54
S'Q\xdb_\xdbl\xdb\xe2?'
p93
tp94
Rp95
ag50
(g54
S'jmU\x1c\xb0\xaf\xec?'
p96
tp97
Rp98
ag50
(g54
S'#\xa6\xa4\xb9q4\xec?'
p99
tp100
Rp101
ag50
(g54
S'#\xa6\xa4\xb9q4\xec?'
p102
tp103
Rp104
ag50
(g54
S'Q\xdb_\xdbl\xdb\xe2?'
p105
tp106
Rp107
ag50
(g54
S'\x1b<\x1f\x82\n3\xe4?'
p108
tp109
Rp110
ag50
(g54
S'\xb8B*i\xe7\x86\xe8?'
p111
tp112
Rp113
ag50
(g54
S'#\xa6\xa4\xb9q4\xec?'
p114
tp115
Rp116
ag50
(g54
S'\xa6\x95\tv\xcb\xf2\xe5?'
p117
tp118
Rp119
ag50
(g54
S'#\xa6\xa4\xb9q4\xec?'
p120
tp121
Rp122
ag50
(g54
S'Q\xdb_\xdbl\xdb\xe2?'
p123
tp124
Rp125
ag50
(g54
S'G\xf4\xf8?C\x16\xef?'
p126
tp127
Rp128
ag50
(g54
S"\x19\x85\xf8'\x1dh\xe3?"
p129
tp130
Rp131
ag50
(g54
S'\x84\xea\xe0\xdf$\xc9\xe7?'
p132
tp133
Rp134
ag50
(g54
S"\x19\x85\xf8'\x1dh\xe3?"
p135
tp136
Rp137
ag50
(g54
S'\xb2\xe6^\xa1sl\xd4?'
p138
tp139
Rp140
ag50
(g54
S'G\xf4\xf8?C\x16\xef?'
p141
tp142
Rp143
ag50
(g54
S'&Wv\x0e@\xad\xe5?'
p144
tp145
Rp146
ag50
(g54
S'\xb2\xe6^\xa1sl\xd4?'
p147
tp148
Rp149
ag50
(g54
S'G\xf4\xf8?C\x16\xef?'
p150
tp151
Rp152
ag50
(g54
S'\x84\xea\xe0\xdf$\xc9\xe7?'
p153
tp154
Rp155
ag50
(g54
S"\x19\x85\xf8'\x1dh\xe3?"
p156
tp157
Rp158
ag50
(g54
S'&Wv\x0e@\xad\xe5?'
p159
tp160
Rp161
ag50
(g54
S'\x84\xea\xe0\xdf$\xc9\xe7?'
p162
tp163
Rp164
ag50
(g54
S"\x19\x85\xf8'\x1dh\xe3?"
p165
tp166
Rp167
ag50
(g54
S'\x84\xea\xe0\xdf$\xc9\xe7?'
p168
tp169
Rp170
ag50
(g54
S'\xb2\xe6^\xa1sl\xd4?'
p171
tp172
Rp173
ag50
(g54
S'G\xf4\xf8?C\x16\xef?'
p174
tp175
Rp176
ag50
(g54
S'\xb2\xe6^\xa1sl\xd4?'
p177
tp178
Rp179
ag50
(g54
S'jmU\x1c\xb0\xaf\xec?'
p180
tp181
Rp182
ag50
(g54
S'Q\xdb_\xdbl\xdb\xe2?'
p183
tp184
Rp185
ag50
(g54
S'jmU\x1c\xb0\xaf\xec?'
p186
tp187
Rp188
ag50
(g54
S'#\xa6\xa4\xb9q4\xec?'
p189
tp190
Rp191
ag50
(g54
S'Q\xdb_\xdbl\xdb\xe2?'
p192
tp193
Rp194
ag50
(g54
S'\x1b<\x1f\x82\n3\xe4?'
p195
tp196
Rp197
ag50
(g54
S'\xb8B*i\xe7\x86\xe8?'
p198
tp199
Rp200
asS'sp'
p201
(lp202
(S'p0'
p203
I0
g22
tp204
ag204
a(g203
I0
S'y'
p205
tp206
a(g203
I0
S'x'
p207
tp208
ag208
a(g203
I0
g205
tp209
ag209
ag208
ag208
ag209
ag209
a(S'p1'
p210
I0
g205
tp211
a(g210
I0
S't'
p212
tp213
a(g210
I0
g205
tp214
ag214
ag214
ag213
ag213
a(g210
F1.5707963267948966
g212
tp215
ag215
ag215
ag215
a(g210
F1.5707963267948966
g207
tp216
a(g210
F1.5707963267948966
g205
tp217
ag217
ag217
ag217
a(g210
F1.5707963267948966
g207
tp218
ag217
a(g210
F1.5707963267948966
g205
tp219
ag218
ag217
ag217
ag217
ag219
ag219
ag219
ag219
ag218
ag217
ag218
a(g210
F1.5707963267948966
g212
tp220
ag216
ag220
ag220
ag216
ag216
a(S'p2'
p221
F1.5707963267948966
g207
tp222
asS's'
p223
(lp224
g204
ag204
ag204
ag206
ag208
ag208
ag209
ag209
ag208
ag208
ag209
ag209
ag211
ag213
ag214
ag214
ag214
ag213
ag213
ag215
ag215
ag215
ag215
ag216
ag217
ag217
ag217
ag217
ag218
ag217
ag219
ag218
ag217
ag217
ag217
ag219
ag219
ag219
ag219
ag218
ag217
ag218
ag220
ag216
ag220
ag220
ag216
ag216
asS'ui'
p225
(lp226
S'hs'
p227
ag227
ag227
ag201
ag201
ag227
ag227
aS'hp'
p228
ag228
ag228
ag201
aS'ss'
p229
ag228
ag227
ag228
ag228
ag228
ag229
ag201
ag228
ag228
ag227
ag228
ag229
ag227
ag227
ag227
ag227
ag227
ag201
ag227
ag201
ag228
ag227
ag229
ag227
ag227
ag227
ag227
ag228
ag227
ag228
ag229
ag229
ag228
ag228
ag201
ag201
asS'um_before'
p230
(lp231
g201
ag201
ag227
ag227
ag201
ag228
ag228
ag227
ag227
ag228
ag201
ag229
ag228
ag227
ag201
ag201
ag228
ag229
ag201
ag201
ag227
ag201
ag228
ag228
ag201
ag228
ag201
ag227
ag228
ag229
ag227
ag228
ag228
ag201
ag229
ag228
ag201
ag228
ag227
ag228
ag227
ag227
ag228
ag227
ag201
ag228
ag229
ag201
asS'um_after'
p232
(lp233
NaNag227
ag227
aNag228
aNag227
aNag228
aNag229
ag228
ag227
aNaNag228
aNag201
aNaNaNag228
ag228
aNaNaNag227
ag228
ag229
ag227
ag228
aNaNag229
aNaNaNag227
ag228
ag227
ag227
ag228
ag227
aNag228
aNag201
asS'is_normalized_entropy_less_than_threshold'
p234
(lp235
g50
(g51
(S'b1'
p236
I0
I1
tp237
Rp238
(I3
S'|'
p239
NNNI-1
I-1
I0
tp240
bS'\x01'
p241
tp242
Rp243
ag243
ag243
ag243
ag243
ag243
ag243
ag243
ag243
ag243
ag243
ag243
ag243
ag243
ag243
ag243
ag243
ag243
ag243
ag243
ag243
ag243
ag243
ag50
(g238
S'\x00'
p244
tp245
Rp246
ag243
ag243
ag243
ag243
ag246
ag243
ag243
ag246
ag243
ag243
ag243
ag243
ag243
ag243
ag243
ag246
ag243
ag243
ag243
ag243
ag243
ag243
ag243
ag243
asaa(lp247
S'index'
p248
aI92591
aatp249
Rp250
.