ccollections
OrderedDict
p0
((lp1
(lp2
S'combination_dict'
p3
ag0
((lp4
(lp5
S'r_to_g_config'
p6
aS'tr'
p7
aa(lp8
S'num_turns'
p9
aI3
aa(lp10
S'start_direction'
p11
acutils_ms
StartDirection
p12
(I0
tp13
Rp14
aa(lp15
S'assistance_type'
p16
acutils_ms
AssistanceType
p17
(I0
tp18
Rp19
aa(lp20
S'start_mode'
p21
aS't'
p22
aa(lp23
S'ui_given_a_noise'
p24
aF0.7
aa(lp25
S'um_given_ui_noise'
p26
aF0.5
aa(lp27
S'entropy_threshold'
p28
aF0.9
aatp29
Rp30
aa(lp31
S'data'
p32
accollections
defaultdict
p33
(c__builtin__
list
p34
tp35
Rp36
S'a'
p37
(lp38
S'mode_r'
p39
ag39
ag39
ag39
aS'move_p'
p40
ag40
ag39
aS'mode_l'
p41
ag40
ag41
ag41
ag40
ag41
ag40
ag40
ag40
ag40
ag40
ag41
ag40
ag39
ag39
ag39
ag39
ag40
asS'assistance_match_with_ground_truth'
p42
(lp43
I00
aI00
aI00
aI01
aI00
aI01
aI00
aI01
aI01
aI00
aI01
aI01
aI01
aI00
aI00
aI00
aI00
aI01
aI01
aI00
aI00
aI00
aI00
aI01
aI01
asS'is_u_intended_equals_um'
p44
(lp45
I01
aI01
aI01
aI01
aI00
aI01
aI01
aI01
aI01
aI01
aI01
aI01
aI01
aI01
aI00
aI01
aI00
aI01
aI01
aI01
aI01
aI01
aI01
aI01
aI01
asS'total_steps'
p46
I25
sS'normalized_h_of_p_ui_given_um'
p47
(lp48
cnumpy.core.multiarray
scalar
p49
(cnumpy
dtype
p50
(S'f8'
p51
I0
I1
tp52
Rp53
(I3
S'<'
p54
NNNI-1
I-1
I0
tp55
bS' \xce\x84\xc4+\x1b\xed?'
p56
tp57
Rp58
ag49
(g53
S'\xec\x0e8\x85 \x16\xee?'
p59
tp60
Rp61
ag49
(g53
S' \xce\x84\xc4+\x1b\xed?'
p62
tp63
Rp64
ag49
(g53
S'^\xfc\xf4\xfa\xffh\xe0?'
p65
tp66
Rp67
ag49
(g53
S'\xc2H\xd9\x89\xabw\xeb?'
p68
tp69
Rp70
ag49
(g53
S'\xc4i>D\xaa\xd6\xe3?'
p71
tp72
Rp73
ag49
(g53
S'V\xae"\x8c\xef\x15\xe9?'
p74
tp75
Rp76
ag49
(g53
S'4\x06\r\x17IW\xe5?'
p77
tp78
Rp79
ag49
(g53
S'\xc4i>D\xaa\xd6\xe3?'
p80
tp81
Rp82
ag49
(g53
S'\xea\xf2O"\x9b\xbc\xeb?'
p83
tp84
Rp85
ag49
(g53
S'4\x06\r\x17IW\xe5?'
p86
tp87
Rp88
ag49
(g53
S'\xc4i>D\xaa\xd6\xe3?'
p89
tp90
Rp91
ag49
(g53
S'4\x06\r\x17IW\xe5?'
p92
tp93
Rp94
ag49
(g53
S't\xbdX\x89E<\xe9?'
p95
tp96
Rp97
ag49
(g53
S'\xc2H\xd9\x89\xabw\xeb?'
p98
tp99
Rp100
ag49
(g53
S't\xbdX\x89E<\xe9?'
p101
tp102
Rp103
ag49
(g53
S'\xc2H\xd9\x89\xabw\xeb?'
p104
tp105
Rp106
ag49
(g53
S'\xc4i>D\xaa\xd6\xe3?'
p107
tp108
Rp109
ag49
(g53
S'4\x06\r\x17IW\xe5?'
p110
tp111
Rp112
ag49
(g53
S'\xd0\xb3\x90h\xb3 \xe7?'
p113
tp114
Rp115
ag49
(g53
S'\xec\x0e8\x85 \x16\xee?'
p116
tp117
Rp118
ag49
(g53
S' \xce\x84\xc4+\x1b\xed?'
p119
tp120
Rp121
ag49
(g53
S' \xce\x84\xc4+\x1b\xed?'
p122
tp123
Rp124
ag49
(g53
S'^\xfc\xf4\xfa\xffh\xe0?'
p125
tp126
Rp127
ag49
(g53
S'\xc4i>D\xaa\xd6\xe3?'
p128
tp129
Rp130
asS'sp'
p131
(lp132
(S'p0'
p133
I0
S't'
p134
tp135
a(g133
I0
g134
tp136
ag135
a(g133
I0
S'x'
p137
tp138
ag138
a(S'p1'
p139
I0
g137
tp140
a(g139
I0
g134
tp141
a(g139
I0
S'y'
p142
tp143
a(S'p2'
p144
I0
g142
tp145
a(g144
I0
g142
tp146
a(g144
I0
g137
tp147
a(S'p3'
p148
I0
g137
tp149
a(g148
I0
g134
tp150
a(g148
I0
g134
tp151
ag151
ag151
ag151
a(g148
F1.5707963267948966
g134
tp152
a(g148
F1.5707963267948966
g142
tp153
a(g148
F1.5707963267948966
g137
tp154
a(g148
F1.5707963267948966
g137
tp155
a(g148
F1.5707963267948966
g137
tp156
ag156
a(g148
F1.5707963267948966
g142
tp157
a(S'p4'
p158
F1.5707963267948966
g142
tp159
asS's'
p160
(lp161
(g133
I0
g22
tp162
ag135
ag136
ag135
ag138
ag138
ag140
ag141
ag143
ag145
ag146
ag147
ag149
ag150
ag151
ag151
ag151
ag151
ag152
ag153
ag154
ag155
ag156
ag156
ag157
asS'ui'
p163
(lp164
S'ss'
p165
aS'hs'
p166
ag166
aS'hp'
p167
ag166
ag131
ag167
ag166
ag166
ag166
ag166
ag131
ag166
ag165
ag131
ag165
ag165
ag131
ag166
ag166
ag131
ag165
ag166
ag167
ag131
asS'um_before'
p168
(lp169
g165
ag131
ag165
ag167
ag167
ag131
ag166
ag166
ag131
ag165
ag166
ag131
ag166
ag165
ag167
ag165
ag167
ag131
ag166
ag166
ag131
ag165
ag165
ag167
ag131
asS'um_after'
p170
(lp171
g165
ag131
ag165
ag167
aNag131
ag166
ag166
ag131
ag165
ag166
ag131
ag166
ag165
aNag165
aNag131
ag166
ag166
ag131
ag165
ag165
ag167
ag131
asS'is_normalized_entropy_less_than_threshold'
p172
(lp173
g49
(g50
(S'b1'
p174
I0
I1
tp175
Rp176
(I3
S'|'
p177
NNNI-1
I-1
I0
tp178
bS'\x00'
p179
tp180
Rp181
ag181
ag181
ag49
(g176
S'\x01'
p182
tp183
Rp184
ag184
ag184
ag184
ag184
ag184
ag184
ag184
ag184
ag184
ag184
ag184
ag184
ag184
ag184
ag184
ag184
ag181
ag181
ag181
ag184
ag184
asaa(lp185
S'index'
p186
aI19949
aatp187
Rp188
.