ccollections
OrderedDict
p0
((lp1
(lp2
S'combination_dict'
p3
ag0
((lp4
(lp5
S'r_to_g_config'
p6
aS'bl'
p7
aa(lp8
S'num_turns'
p9
aI3
aa(lp10
S'start_direction'
p11
acutils_ms
StartDirection
p12
(I0
tp13
Rp14
aa(lp15
S'assistance_type'
p16
acutils_ms
AssistanceType
p17
(I1
tp18
Rp19
aa(lp20
S'start_mode'
p21
aS'y'
p22
aa(lp23
S'ui_given_a_noise'
p24
aF0.5
aa(lp25
S'um_given_ui_noise'
p26
aF0.3
aa(lp27
S'entropy_threshold'
p28
aF0.5
aatp29
Rp30
aa(lp31
S'data'
p32
accollections
defaultdict
p33
(c__builtin__
list
p34
tp35
Rp36
S'a'
p37
(lp38
S'mode_l'
p39
aS'move_n'
p40
ag39
aS'mode_r'
p41
ag40
ag39
ag41
ag40
ag41
ag40
ag39
ag39
ag41
ag39
ag41
ag39
ag41
ag40
ag39
ag39
ag39
ag40
ag41
ag41
ag39
ag40
ag41
ag39
ag40
ag41
ag41
ag41
ag41
aS'move_p'
p42
ag41
ag39
ag42
ag39
ag41
ag40
ag41
ag40
ag39
ag40
ag41
ag41
ag41
ag40
ag41
ag39
ag41
ag41
ag40
asS'assistance_match_with_ground_truth'
p43
(lp44
I01
aI00
aI00
aI01
aI00
aI00
aI01
aI00
aI01
aI00
aI00
aI00
aI00
aI00
aI00
aI00
aI01
aI00
aI00
aI00
aI01
aI01
aI00
aI00
aI01
aI00
aI00
aI01
aI01
aI00
aI00
aI00
aI01
aI00
aI00
aI01
aI00
aI00
aI01
aI00
aI01
aI00
aI01
aI00
aI00
aI00
aI01
aI01
aI00
aI00
aI00
aI01
aI01
asS'is_u_intended_equals_um'
p45
(lp46
I01
aI01
aI01
aI01
aI01
aI01
aI01
aI01
aI01
aI01
aI01
aI01
aI01
aI01
aI01
aI01
aI01
aI01
aI01
aI01
aI01
aI01
aI01
aI01
aI01
aI01
aI01
aI01
aI01
aI01
aI01
aI01
aI01
aI00
aI01
aI01
aI01
aI01
aI01
aI01
aI01
aI01
aI01
aI01
aI01
aI00
aI01
aI01
aI01
aI01
aI00
aI01
aI01
asS'total_steps'
p47
I53
sS'normalized_h_of_p_ui_given_um'
p48
(lp49
cnumpy.core.multiarray
scalar
p50
(cnumpy
dtype
p51
(S'f8'
p52
I0
I1
tp53
Rp54
(I3
S'<'
p55
NNNI-1
I-1
I0
tp56
bS'\x177\xabE\xdd\x9c\xd7?'
p57
tp58
Rp59
ag50
(g54
S',\x1a)\xcb\xe1\xe3\xe6?'
p60
tp61
Rp62
ag50
(g54
S'\xee\xd9a\xf5cl\xe9?'
p63
tp64
Rp65
ag50
(g54
S'\x7f\xec\xcd\xadh\xe6\xd4?'
p66
tp67
Rp68
ag50
(g54
S',\x1a)\xcb\xe1\xe3\xe6?'
p69
tp70
Rp71
ag50
(g54
S'\xee\xd9a\xf5cl\xe9?'
p72
tp73
Rp74
ag50
(g54
S'\x7f\xec\xcd\xadh\xe6\xd4?'
p75
tp76
Rp77
ag50
(g54
S'\x9e\xc6)\xd0[1\xe7?'
p78
tp79
Rp80
ag50
(g54
S'\x7f\xec\xcd\xadh\xe6\xd4?'
p81
tp82
Rp83
ag50
(g54
S',\x1a)\xcb\xe1\xe3\xe6?'
p84
tp85
Rp86
ag50
(g54
S'vI\xaa\x02Q\xf4\xe7?'
p87
tp88
Rp89
ag50
(g54
S'\xee\xd9a\xf5cl\xe9?'
p90
tp91
Rp92
ag50
(g54
S'?\xfb(8OD\xe7?'
p93
tp94
Rp95
ag50
(g54
S'\xee\xd9a\xf5cl\xe9?'
p96
tp97
Rp98
ag50
(g54
S'?\xfb(8OD\xe7?'
p99
tp100
Rp101
ag50
(g54
S'\xee\xd9a\xf5cl\xe9?'
p102
tp103
Rp104
ag50
(g54
S'\x7f\xec\xcd\xadh\xe6\xd4?'
p105
tp106
Rp107
ag50
(g54
S',\x1a)\xcb\xe1\xe3\xe6?'
p108
tp109
Rp110
ag50
(g54
S'F?\\\x9d\xda\xfa\xeb?'
p111
tp112
Rp113
ag50
(g54
S'F?\\\x9d\xda\xfa\xeb?'
p114
tp115
Rp116
ag50
(g54
S'\x177\xabE\xdd\x9c\xd7?'
p117
tp118
Rp119
ag50
(g54
S'\xe1k\xf6\x850\xaa\xd8?'
p120
tp121
Rp122
ag50
(g54
S'"\n\x8e\x83\xa2\xde\xe6?'
p123
tp124
Rp125
ag50
(g54
S'?\xfb(8OD\xe7?'
p126
tp127
Rp128
ag50
(g54
S'\x177\xabE\xdd\x9c\xd7?'
p129
tp130
Rp131
ag50
(g54
S'\x9e\xc6)\xd0[1\xe7?'
p132
tp133
Rp134
ag50
(g54
S'?\xfb(8OD\xe7?'
p135
tp136
Rp137
ag50
(g54
S'\x177\xabE\xdd\x9c\xd7?'
p138
tp139
Rp140
ag50
(g54
S'\xe1k\xf6\x850\xaa\xd8?'
p141
tp142
Rp143
ag50
(g54
S'"\n\x8e\x83\xa2\xde\xe6?'
p144
tp145
Rp146
ag50
(g54
S'"\n\x8e\x83\xa2\xde\xe6?'
p147
tp148
Rp149
ag50
(g54
S'"\n\x8e\x83\xa2\xde\xe6?'
p150
tp151
Rp152
ag50
(g54
S'\x7f\xec\xcd\xadh\xe6\xd4?'
p153
tp154
Rp155
ag50
(g54
S'U\x8fm\xca$\xe5\xe7?'
p156
tp157
Rp158
ag50
(g54
S'?\xfb(8OD\xe7?'
p159
tp160
Rp161
ag50
(g54
S'\x177\xabE\xdd\x9c\xd7?'
p162
tp163
Rp164
ag50
(g54
S'5)^\xd2H\x0c\xe0?'
p165
tp166
Rp167
ag50
(g54
S'F?\\\x9d\xda\xfa\xeb?'
p168
tp169
Rp170
ag50
(g54
S'\x7f\xec\xcd\xadh\xe6\xd4?'
p171
tp172
Rp173
ag50
(g54
S'\x9e\xc6)\xd0[1\xe7?'
p174
tp175
Rp176
ag50
(g54
S'\x7f\xec\xcd\xadh\xe6\xd4?'
p177
tp178
Rp179
ag50
(g54
S',\x1a)\xcb\xe1\xe3\xe6?'
p180
tp181
Rp182
ag50
(g54
S'\x177\xabE\xdd\x9c\xd7?'
p183
tp184
Rp185
ag50
(g54
S'\x9e\xc6)\xd0[1\xe7?'
p186
tp187
Rp188
ag50
(g54
S'"\n\x8e\x83\xa2\xde\xe6?'
p189
tp190
Rp191
ag50
(g54
S'\xf70\xd2q\xab\x1f\xeb?'
p192
tp193
Rp194
ag50
(g54
S'\x7f\xec\xcd\xadh\xe6\xd4?'
p195
tp196
Rp197
ag50
(g54
S'\xe1k\xf6\x850\xaa\xd8?'
p198
tp199
Rp200
ag50
(g54
S'?\xfb(8OD\xe7?'
p201
tp202
Rp203
ag50
(g54
S'vI\xaa\x02Q\xf4\xe7?'
p204
tp205
Rp206
ag50
(g54
S'\xf70\xd2q\xab\x1f\xeb?'
p207
tp208
Rp209
ag50
(g54
S'\x7f\xec\xcd\xadh\xe6\xd4?'
p210
tp211
Rp212
ag50
(g54
S'\xe1k\xf6\x850\xaa\xd8?'
p213
tp214
Rp215
asS'sp'
p216
(lp217
(S'p0'
p218
I0
S'x'
p219
tp220
a(g218
I0
S'y'
p221
tp222
a(g218
I0
S't'
p223
tp224
a(g218
I0
g219
tp225
ag222
ag224
ag225
a(g218
I0
g223
tp226
ag225
ag222
a(g218
I0
g221
tp227
ag224
a(g218
I0
g221
tp228
ag224
ag228
ag224
ag225
ag222
a(g218
I0
g221
tp229
ag229
ag220
a(S'p1'
p230
I0
g219
tp231
a(g230
I0
g219
tp232
a(g230
I0
g223
tp233
a(g230
I0
g221
tp234
a(g230
I0
g219
tp235
ag233
ag234
a(S'p2'
p236
I0
g221
tp237
a(g236
I0
g221
tp238
ag238
ag238
a(g236
I0
g223
tp239
a(g236
I0
g221
tp240
a(g236
I0
g219
tp241
a(g236
I0
g223
tp242
a(g236
I0
g219
tp243
a(g230
I0
g219
tp244
a(g230
I0
g221
tp245
ag235
ag245
a(g230
I0
g223
tp246
ag234
ag235
ag232
a(g230
I0
g219
tp247
ag245
ag237
ag241
a(S'p3'
p248
I0
g219
tp249
a(g248
I0
g219
tp250
a(g248
I0
g221
tp251
a(S'p4'
p252
I0
g221
tp253
asS's'
p254
(lp255
(g218
I0
g22
tp256
ag220
ag222
ag224
ag225
ag222
ag224
ag225
ag226
ag225
ag222
ag227
ag224
ag228
ag224
ag228
ag224
ag225
ag222
ag229
ag229
ag220
ag231
ag232
ag233
ag234
ag235
ag233
ag234
ag237
ag238
ag238
ag238
ag239
ag240
ag241
ag242
ag243
ag244
ag245
ag235
ag245
ag246
ag234
ag235
ag232
ag247
ag245
ag237
ag241
ag249
ag250
ag251
asS'ui'
p257
(lp258
S'hs'
p259
aS'hp'
p260
ag259
ag260
aS'ss'
p261
ag259
ag260
ag261
ag259
ag260
ag261
ag259
ag259
ag260
ag216
ag259
ag260
ag260
ag260
ag216
ag259
ag261
ag260
ag259
ag259
ag260
ag259
ag259
ag260
ag260
ag259
ag216
ag260
ag216
ag216
ag259
ag260
ag261
ag216
ag259
ag260
ag259
ag259
ag259
ag216
ag260
ag216
ag261
ag259
ag261
ag261
ag261
ag261
asS'um_before'
p262
(lp263
g259
ag260
ag260
ag260
ag260
ag260
ag260
ag259
ag260
ag260
ag261
ag260
ag259
ag260
ag259
ag260
ag260
ag260
ag216
ag216
ag259
ag261
ag216
ag259
ag259
ag259
ag259
ag259
ag261
ag216
ag216
ag216
ag260
ag259
ag259
ag259
ag260
ag216
ag260
ag259
ag260
ag260
ag259
ag259
ag216
ag261
ag260
ag261
ag259
ag261
ag261
ag260
ag261
asS'um_after'
p264
(lp265
g259
ag260
ag260
ag260
ag260
ag260
ag260
ag259
ag260
ag260
ag261
ag260
ag259
ag260
ag259
ag260
ag260
ag260
ag216
ag216
ag259
ag261
ag216
ag259
ag259
ag259
ag259
ag259
ag261
ag216
ag216
ag216
ag260
ag259
ag259
ag259
ag260
ag216
ag260
ag259
ag260
ag260
ag259
ag259
ag216
ag261
ag260
ag261
ag259
ag261
ag261
ag260
ag261
asS'is_normalized_entropy_less_than_threshold'
p266
(lp267
g50
(g51
(S'b1'
p268
I0
I1
tp269
Rp270
(I3
S'|'
p271
NNNI-1
I-1
I0
tp272
bS'\x01'
p273
tp274
Rp275
ag50
(g270
S'\x00'
p276
tp277
Rp278
ag278
ag275
ag278
ag278
ag275
ag278
ag275
ag278
ag278
ag278
ag278
ag278
ag278
ag278
ag275
ag278
ag278
ag278
ag275
ag275
ag278
ag278
ag275
ag278
ag278
ag275
ag275
ag278
ag278
ag278
ag275
ag278
ag278
ag275
ag278
ag278
ag275
ag278
ag275
ag278
ag275
ag278
ag278
ag278
ag275
ag275
ag278
ag278
ag278
ag275
ag275
asaa(lp279
S'index'
p280
aI79656
aatp281
Rp282
.