ccollections
OrderedDict
p0
((lp1
(lp2
S'combination_dict'
p3
ag0
((lp4
(lp5
S'r_to_g_config'
p6
aS'tl'
p7
aa(lp8
S'num_turns'
p9
aI3
aa(lp10
S'start_direction'
p11
acutils_ms
StartDirection
p12
(I1
tp13
Rp14
aa(lp15
S'assistance_type'
p16
acutils_ms
AssistanceType
p17
(I1
tp18
Rp19
aa(lp20
S'start_mode'
p21
aS't'
p22
aa(lp23
S'ui_given_a_noise'
p24
aF0.7
aa(lp25
S'um_given_ui_noise'
p26
aF0.5
aa(lp27
S'entropy_threshold'
p28
aF0.9
aatp29
Rp30
aa(lp31
S'data'
p32
accollections
defaultdict
p33
(c__builtin__
list
p34
tp35
Rp36
S'a'
p37
(lp38
S'mode_l'
p39
aS'move_p'
p40
ag40
ag39
aS'mode_r'
p41
ag39
ag41
ag39
ag40
ag40
ag40
ag39
ag40
ag40
ag40
ag39
ag40
ag39
ag41
ag39
aS'move_n'
p42
ag39
ag41
ag39
ag42
ag41
ag40
ag41
ag40
ag41
ag39
ag42
ag39
ag42
asS'assistance_match_with_ground_truth'
p43
(lp44
I01
aI00
aI00
aI00
aI00
aI00
aI00
aI01
aI00
aI00
aI00
aI01
aI00
aI00
aI00
aI01
aI01
aI00
aI00
aI01
aI00
aI00
aI00
aI01
aI01
aI01
aI01
aI01
aI01
aI00
aI01
aI00
aI01
aI01
asS'is_u_intended_equals_um'
p45
(lp46
I01
aI00
aI01
aI01
aI01
aI01
aI01
aI00
aI00
aI01
aI01
aI01
aI01
aI00
aI01
aI00
aI01
aI01
aI01
aI00
aI01
aI01
aI01
aI00
aI01
aI01
aI01
aI01
aI01
aI00
aI01
aI01
aI01
aI00
asS'total_steps'
p47
I34
sS'normalized_h_of_p_ui_given_um'
p48
(lp49
cnumpy.core.multiarray
scalar
p50
(cnumpy
dtype
p51
(S'f8'
p52
I0
I1
tp53
Rp54
(I3
S'<'
p55
NNNI-1
I-1
I0
tp56
bS'\x08\x93\xa0I`\xdd\xdf?'
p57
tp58
Rp59
ag50
(g54
S'\xf5g\xa7C\xe1\x81\xec?'
p60
tp61
Rp62
ag50
(g54
S"\xb8\xbf('\xe9\x8e\xe3?"
p63
tp64
Rp65
ag50
(g54
S'\x87\xca\xe5 \xcc\xaa\xe0?'
p66
tp67
Rp68
ag50
(g54
S'r$\x8e\x9c5\xc9\xe5?'
p69
tp70
Rp71
ag50
(g54
S'\x87\xca\xe5 \xcc\xaa\xe0?'
p72
tp73
Rp74
ag50
(g54
S'r$\x8e\x9c5\xc9\xe5?'
p75
tp76
Rp77
ag50
(g54
S'\xf9c\\ry\xe5\xe8?'
p78
tp79
Rp80
ag50
(g54
S'\xf5g\xa7C\xe1\x81\xec?'
p81
tp82
Rp83
ag50
(g54
S'\x03w\x7f\x03\x1a\xd5\xe4?'
p84
tp85
Rp86
ag50
(g54
S"\xb8\xbf('\xe9\x8e\xe3?"
p87
tp88
Rp89
ag50
(g54
S'\x08\x93\xa0I`\xdd\xdf?'
p90
tp91
Rp92
ag50
(g54
S'\x03w\x7f\x03\x1a\xd5\xe4?'
p93
tp94
Rp95
ag50
(g54
S'\xf5g\xa7C\xe1\x81\xec?'
p96
tp97
Rp98
ag50
(g54
S"\xb8\xbf('\xe9\x8e\xe3?"
p99
tp100
Rp101
ag50
(g54
S'\xf9c\\ry\xe5\xe8?'
p102
tp103
Rp104
ag50
(g54
S'c\x05\xdc\x0b\\{\xdf?'
p105
tp106
Rp107
ag50
(g54
S'\x87\xca\xe5 \xcc\xaa\xe0?'
p108
tp109
Rp110
ag50
(g54
S'r$\x8e\x9c5\xc9\xe5?'
p111
tp112
Rp113
ag50
(g54
S'H\xc9{d\xac\xfe\xe6?'
p114
tp115
Rp116
ag50
(g54
S'\xaf\xa0\xaeY"r\xdf?'
p117
tp118
Rp119
ag50
(g54
S'\x87\xca\xe5 \xcc\xaa\xe0?'
p120
tp121
Rp122
ag50
(g54
S'r$\x8e\x9c5\xc9\xe5?'
p123
tp124
Rp125
ag50
(g54
S'\xf9c\\ry\xe5\xe8?'
p126
tp127
Rp128
ag50
(g54
S'4Pd/z\xea\xdc?'
p129
tp130
Rp131
ag50
(g54
S'Y\x7fTz+@\xd5?'
p132
tp133
Rp134
ag50
(g54
S'c\x05\xdc\x0b\\{\xdf?'
p135
tp136
Rp137
ag50
(g54
S'Y\x7fTz+@\xd5?'
p138
tp139
Rp140
ag50
(g54
S'c\x05\xdc\x0b\\{\xdf?'
p141
tp142
Rp143
ag50
(g54
S'\x9a\x98\xae\xe4oU\xea?'
p144
tp145
Rp146
ag50
(g54
S'\x08\x93\xa0I`\xdd\xdf?'
p147
tp148
Rp149
ag50
(g54
S'\xaf\xa0\xaeY"r\xdf?'
p150
tp151
Rp152
ag50
(g54
S'\x08\x93\xa0I`\xdd\xdf?'
p153
tp154
Rp155
ag50
(g54
S'\xc9XF][W\xe7?'
p156
tp157
Rp158
asS'sp'
p159
(lp160
(S'p0'
p161
I0
S'y'
p162
tp163
a(g161
I0
g162
tp164
a(g161
I0
S't'
p165
tp166
a(g161
I0
S'x'
p167
tp168
a(g161
I0
g165
tp169
ag168
ag169
ag163
ag164
ag164
ag166
ag163
ag164
ag164
ag166
ag163
a(S'p1'
p170
I0
g162
tp171
a(g170
I0
g165
tp172
a(g170
I0
g162
tp173
a(g170
I0
g167
tp174
a(g170
I0
g162
tp175
ag172
ag173
ag174
a(S'p2'
p176
I0
g167
tp177
a(g176
I0
g162
tp178
a(S'p3'
p179
I0
g162
tp180
a(g179
I0
g165
tp181
a(g179
F1.5707963267948966
g165
tp182
a(g179
F1.5707963267948966
g162
tp183
a(g179
F1.5707963267948966
g167
tp184
a(g179
F1.5707963267948966
g162
tp185
ag184
a(S'p4'
p186
F1.5707963267948966
g167
tp187
asS's'
p188
(lp189
(g161
I0
g22
tp190
ag163
ag164
ag166
ag168
ag169
ag168
ag169
ag163
ag164
ag164
ag166
ag163
ag164
ag164
ag166
ag163
ag171
ag172
ag173
ag174
ag175
ag172
ag173
ag174
ag177
ag178
ag180
ag181
ag182
ag183
ag184
ag185
ag184
asS'ui'
p191
(lp192
S'hs'
p193
aS'ss'
p194
aS'hp'
p195
ag195
ag193
ag195
ag193
ag159
ag194
ag194
ag159
ag193
ag194
ag159
ag195
ag193
ag159
ag195
ag194
ag194
ag195
ag193
ag193
ag195
ag194
ag195
ag159
ag195
ag195
ag194
ag193
ag195
ag194
ag195
asS'um_before'
p196
(lp197
g193
ag193
ag195
ag195
ag193
ag195
ag193
ag159
ag193
ag194
ag195
ag193
ag194
ag193
ag195
ag159
ag159
ag195
ag193
ag194
ag195
ag195
ag193
ag159
ag194
ag195
ag159
ag195
ag159
ag194
ag193
ag195
ag193
ag193
asS'um_after'
p198
(lp199
g193
ag194
ag195
ag195
ag193
ag195
ag193
ag193
ag194
ag194
ag195
ag193
ag194
ag194
ag195
ag193
ag159
ag195
ag193
ag193
ag195
ag195
ag193
ag193
ag194
ag195
ag159
ag195
ag159
ag193
ag193
ag195
ag193
ag194
asS'is_normalized_entropy_less_than_threshold'
p200
(lp201
g50
(g51
(S'b1'
p202
I0
I1
tp203
Rp204
(I3
S'|'
p205
NNNI-1
I-1
I0
tp206
bS'\x01'
p207
tp208
Rp209
ag209
ag209
ag209
ag209
ag209
ag209
ag209
ag209
ag209
ag209
ag209
ag209
ag209
ag209
ag209
ag209
ag209
ag209
ag209
ag209
ag209
ag209
ag209
ag209
ag209
ag209
ag209
ag209
ag209
ag209
ag209
ag209
ag209
asaa(lp210
S'index'
p211
aI55949
aatp212
Rp213
.