ccollections
OrderedDict
p0
((lp1
(lp2
S'combination_dict'
p3
ag0
((lp4
(lp5
S'r_to_g_config'
p6
aS'tl'
p7
aa(lp8
S'num_turns'
p9
aI1
aa(lp10
S'start_direction'
p11
acutils_ms
StartDirection
p12
(I1
tp13
Rp14
aa(lp15
S'assistance_type'
p16
acutils_ms
AssistanceType
p17
(I1
tp18
Rp19
aa(lp20
S'start_mode'
p21
aS't'
p22
aa(lp23
S'ui_given_a_noise'
p24
aF0.7
aa(lp25
S'um_given_ui_noise'
p26
aF0.7
aa(lp27
S'entropy_threshold'
p28
aF0.9
aatp29
Rp30
aa(lp31
S'data'
p32
accollections
defaultdict
p33
(c__builtin__
list
p34
tp35
Rp36
S'a'
p37
(lp38
S'mode_l'
p39
ag39
ag39
aS'move_p'
p40
aS'mode_r'
p41
ag40
ag41
ag40
ag39
ag39
ag40
ag40
ag41
ag40
ag41
ag40
ag39
ag41
ag41
ag40
ag41
ag40
ag41
ag40
ag41
ag41
aS'move_n'
p42
ag39
ag39
ag39
ag39
ag39
ag41
ag42
asS'assistance_match_with_ground_truth'
p43
(lp44
I00
aI00
aI01
aI00
aI01
aI00
aI01
aI00
aI00
aI01
aI00
aI01
aI01
aI00
aI01
aI00
aI00
aI00
aI01
aI00
aI01
aI00
aI01
aI01
aI00
aI01
aI00
aI00
aI00
aI00
aI00
aI00
aI01
aI01
asS'is_u_intended_equals_um'
p45
(lp46
I01
aI01
aI01
aI01
aI00
aI01
aI00
aI01
aI01
aI01
aI01
aI01
aI01
aI01
aI00
aI01
aI01
aI01
aI00
aI01
aI00
aI01
aI01
aI01
aI01
aI01
aI01
aI01
aI01
aI01
aI01
aI01
aI00
aI01
asS'total_steps'
p47
I34
sS'normalized_h_of_p_ui_given_um'
p48
(lp49
cnumpy.core.multiarray
scalar
p50
(cnumpy
dtype
p51
(S'f8'
p52
I0
I1
tp53
Rp54
(I3
S'<'
p55
NNNI-1
I-1
I0
tp56
bS'\x14\xca\xf5\xba\x98N\xe3?'
p57
tp58
Rp59
ag50
(g54
S'\x14\xca\xf5\xba\x98N\xe3?'
p60
tp61
Rp62
ag50
(g54
S'\xcc`\x03KTK\xdf?'
p63
tp64
Rp65
ag50
(g54
S"\xac\xa1\x0b 'Z\xe8?"
p66
tp67
Rp68
ag50
(g54
S'\x8a\xffH\xa66C\xe8?'
p69
tp70
Rp71
ag50
(g54
S"\xac\xa1\x0b 'Z\xe8?"
p72
tp73
Rp74
ag50
(g54
S'\x8a\xffH\xa66C\xe8?'
p75
tp76
Rp77
ag50
(g54
S'\xea<%\x9b@1\xe7?'
p78
tp79
Rp80
ag50
(g54
S'\x14\xca\xf5\xba\x98N\xe3?'
p81
tp82
Rp83
ag50
(g54
S'\xcc`\x03KTK\xdf?'
p84
tp85
Rp86
ag50
(g54
S'\x8e\xc9\xf5\xf4\x93g\xec?'
p87
tp88
Rp89
ag50
(g54
S'RR\xee\x87m\xff\xce?'
p90
tp91
Rp92
ag50
(g54
S'Y>\x005\x1f\x0e\xd7?'
p93
tp94
Rp95
ag50
(g54
S"\xac\xa1\x0b 'Z\xe8?"
p96
tp97
Rp98
ag50
(g54
S'\x8a\xffH\xa66C\xe8?'
p99
tp100
Rp101
ag50
(g54
S'\xea<%\x9b@1\xe7?'
p102
tp103
Rp104
ag50
(g54
S'd.\xdaz\x1c\x81\xe8?'
p105
tp106
Rp107
ag50
(g54
S'\xbauE\xe9.W\xd4?'
p108
tp109
Rp110
ag50
(g54
S'\x17\xf9b\xc3A\x00\xe2?'
p111
tp112
Rp113
ag50
(g54
S"\xac\xa1\x0b 'Z\xe8?"
p114
tp115
Rp116
ag50
(g54
S'\x8a\xffH\xa66C\xe8?'
p117
tp118
Rp119
ag50
(g54
S"\xac\xa1\x0b 'Z\xe8?"
p120
tp121
Rp122
ag50
(g54
S'Y>\x005\x1f\x0e\xd7?'
p123
tp124
Rp125
ag50
(g54
S'RR\xee\x87m\xff\xce?'
p126
tp127
Rp128
ag50
(g54
S'\xbauE\xe9.W\xd4?'
p129
tp130
Rp131
ag50
(g54
S'Y>\x005\x1f\x0e\xd7?'
p132
tp133
Rp134
ag50
(g54
S'\x12\xfe\x17\xf5\xe4\xd7\xe6?'
p135
tp136
Rp137
ag50
(g54
S'\x14\xca\xf5\xba\x98N\xe3?'
p138
tp139
Rp140
ag50
(g54
S'T\xbe\xde\xad\xf7\xa9\xe7?'
p141
tp142
Rp143
ag50
(g54
S'T\xbe\xde\xad\xf7\xa9\xe7?'
p144
tp145
Rp146
ag50
(g54
S'\x14\xca\xf5\xba\x98N\xe3?'
p147
tp148
Rp149
ag50
(g54
S'd.\xdaz\x1c\x81\xe8?'
p150
tp151
Rp152
ag50
(g54
S'\x17\xf9b\xc3A\x00\xe2?'
p153
tp154
Rp155
ag50
(g54
S'\xf2\xa9?\x10\x14\n\xe6?'
p156
tp157
Rp158
asS'sp'
p159
(lp160
(S'p0'
p161
I0
S't'
p162
tp163
ag163
a(g161
I0
S'y'
p164
tp165
a(g161
I0
S'x'
p166
tp167
a(g161
I0
g164
tp168
ag167
ag168
a(g161
I0
g162
tp169
ag163
ag165
a(g161
I0
g164
tp170
a(S'p1'
p171
I0
g164
tp172
a(g171
I0
g162
tp173
a(g171
I0
g164
tp174
ag173
a(g171
I0
g166
tp175
a(g171
I0
g164
tp176
a(g171
I0
g164
tp177
ag173
ag174
ag173
ag174
ag173
a(g171
F1.5707963267948966
g162
tp178
a(g171
F1.5707963267948966
g162
tp179
a(g171
F1.5707963267948966
g166
tp180
a(g171
F1.5707963267948966
g164
tp181
a(g171
F1.5707963267948966
g164
tp182
a(g171
F1.5707963267948966
g164
tp183
ag183
ag182
a(g171
F1.5707963267948966
g162
tp184
ag180
a(S'p2'
p185
F1.5707963267948966
g166
tp186
asS's'
p187
(lp188
(g161
I0
g22
tp189
ag163
ag163
ag165
ag167
ag168
ag167
ag168
ag169
ag163
ag165
ag170
ag172
ag173
ag174
ag173
ag175
ag176
ag177
ag173
ag174
ag173
ag174
ag173
ag178
ag179
ag180
ag181
ag182
ag183
ag183
ag182
ag184
ag180
asS'ui'
p190
(lp191
S'hp'
p192
ag159
aS'hs'
p193
ag193
ag192
ag192
ag192
ag159
ag159
ag193
aS'ss'
p194
ag159
ag159
ag192
ag192
ag192
ag193
ag159
ag192
ag193
ag192
ag192
ag192
ag159
ag159
ag159
ag192
ag159
ag194
ag193
ag159
ag192
ag192
ag192
asS'um_before'
p195
(lp196
g159
ag159
ag193
ag193
ag194
ag193
ag194
ag192
ag159
ag193
ag194
ag159
ag192
ag193
ag194
ag192
ag192
ag159
ag193
ag193
ag194
ag193
ag192
ag159
ag159
ag192
ag192
ag159
ag194
ag194
ag159
ag192
ag193
ag194
asS'um_after'
p197
(lp198
g159
ag159
ag193
ag193
ag192
ag193
ag192
ag192
ag159
ag193
ag194
ag159
ag192
ag193
ag192
ag192
ag192
ag159
ag192
ag193
ag192
ag193
ag192
ag159
ag159
ag192
ag192
ag159
ag194
ag194
ag159
ag192
ag192
ag194
asS'is_normalized_entropy_less_than_threshold'
p199
(lp200
g50
(g51
(S'b1'
p201
I0
I1
tp202
Rp203
(I3
S'|'
p204
NNNI-1
I-1
I0
tp205
bS'\x01'
p206
tp207
Rp208
ag208
ag208
ag208
ag208
ag208
ag208
ag208
ag208
ag208
ag208
ag208
ag208
ag208
ag208
ag208
ag208
ag208
ag208
ag208
ag208
ag208
ag208
ag208
ag208
ag208
ag208
ag208
ag208
ag208
ag208
ag208
ag208
ag208
asaa(lp209
S'index'
p210
aI36792
aatp211
Rp212
.