ccollections
OrderedDict
p0
((lp1
(lp2
S'combination_dict'
p3
ag0
((lp4
(lp5
S'r_to_g_config'
p6
aS'tl'
p7
aa(lp8
S'num_turns'
p9
aI3
aa(lp10
S'start_direction'
p11
acutils_ms
StartDirection
p12
(I0
tp13
Rp14
aa(lp15
S'assistance_type'
p16
acutils_ms
AssistanceType
p17
(I0
tp18
Rp19
aa(lp20
S'start_mode'
p21
aS'y'
p22
aa(lp23
S'ui_given_a_noise'
p24
aF0.1
aa(lp25
S'um_given_ui_noise'
p26
aF0.5
aa(lp27
S'entropy_threshold'
p28
aF0.6
aatp29
Rp30
aa(lp31
S'data'
p32
accollections
defaultdict
p33
(c__builtin__
list
p34
tp35
Rp36
S'a'
p37
(lp38
S'mode_l'
p39
ag39
aS'move_n'
p40
ag40
ag40
ag39
aS'move_p'
p41
aS'mode_r'
p42
ag42
ag41
ag39
ag41
ag41
ag41
ag39
ag40
ag42
ag41
asS'assistance_match_with_ground_truth'
p43
(lp44
I00
aI01
aI00
aI00
aI01
aI01
aI00
aI00
aI01
aI01
aI01
aI00
aI00
aI01
aI01
aI01
aI01
aI01
asS'is_u_intended_equals_um'
p45
(lp46
I00
aI01
aI00
aI00
aI01
aI01
aI00
aI00
aI01
aI01
aI01
aI00
aI00
aI01
aI01
aI01
aI01
aI01
asS'total_steps'
p47
I18
sS'normalized_h_of_p_ui_given_um'
p48
(lp49
cnumpy.core.multiarray
scalar
p50
(cnumpy
dtype
p51
(S'f8'
p52
I0
I1
tp53
Rp54
(I3
S'<'
p55
NNNI-1
I-1
I0
tp56
bS'\xd0\x95Q\xf4\xa90\xe0?'
p57
tp58
Rp59
ag50
(g54
S'\x12\xf9-\x84\xebN\xc4?'
p60
tp61
Rp62
ag50
(g54
S'=\x0b\x84ya\x93\xd5?'
p63
tp64
Rp65
ag50
(g54
S'\xf7\x0e\xd3\x7f\xc4G\xe7?'
p66
tp67
Rp68
ag50
(g54
S'\x84\x08\xb7\xd6\xbf\xcd\xc5?'
p69
tp70
Rp71
ag50
(g54
S'\x12\xf9-\x84\xebN\xc4?'
p72
tp73
Rp74
ag50
(g54
S"V*\xb3\x07'\x9c\xee?"
p75
tp76
Rp77
ag50
(g54
S'\xbbX\x83\\\x87\xfe\xe1?'
p78
tp79
Rp80
ag50
(g54
S'\\\xbc\xc9\x1b(\xb9\xb9?'
p81
tp82
Rp83
ag50
(g54
S'D\x9f\xc6G@K\xc2?'
p84
tp85
Rp86
ag50
(g54
S'\x12\xf9-\x84\xebN\xc4?'
p87
tp88
Rp89
ag50
(g54
S'\x80A\r\xe6\xdb\xce\xdb?'
p90
tp91
Rp92
ag50
(g54
S'\x80A\r\xe6\xdb\xce\xdb?'
p93
tp94
Rp95
ag50
(g54
S'D\x9f\xc6G@K\xc2?'
p96
tp97
Rp98
ag50
(g54
S'\x12\xf9-\x84\xebN\xc4?'
p99
tp100
Rp101
ag50
(g54
S'\x84\x08\xb7\xd6\xbf\xcd\xc5?'
p102
tp103
Rp104
ag50
(g54
S'\\\xbc\xc9\x1b(\xb9\xb9?'
p105
tp106
Rp107
ag50
(g54
S'D\x9f\xc6G@K\xc2?'
p108
tp109
Rp110
asS'sp'
p111
(lp112
(S'p0'
p113
I0
g22
tp114
a(g113
I0
S'x'
p115
tp116
ag116
a(g113
I0
g115
tp117
a(S'p1'
p118
I0
g115
tp119
a(g118
I0
S't'
p120
tp121
a(g118
I0
S'y'
p122
tp123
ag123
a(g118
I0
g120
tp124
a(g118
F1.5707963267948966
g120
tp125
a(g118
F1.5707963267948966
g122
tp126
ag126
ag126
a(S'p2'
p127
F1.5707963267948966
g122
tp128
a(g127
F1.5707963267948966
g115
tp129
a(S'p3'
p130
F1.5707963267948966
g115
tp131
a(g130
F1.5707963267948966
g122
tp132
a(S'p4'
p133
F1.5707963267948966
g122
tp134
asS's'
p135
(lp136
g114
ag114
ag116
ag116
ag117
ag119
ag121
ag123
ag123
ag124
ag125
ag126
ag126
ag126
ag128
ag129
ag131
ag132
asS'ui'
p137
(lp138
S'hs'
p139
ag139
aS'ss'
p140
ag140
ag140
ag139
ag139
aS'hp'
p141
ag141
ag111
ag139
ag111
ag111
ag111
ag139
ag140
ag141
ag111
asS'um_before'
p142
(lp143
g141
ag139
ag139
ag111
ag140
ag139
ag139
ag140
ag141
ag111
ag139
ag141
ag141
ag111
ag139
ag140
ag141
ag111
asS'um_after'
p144
(lp145
Nag139
aNag111
ag140
ag139
ag139
aNag141
ag111
ag139
aNaNag111
ag139
ag140
ag141
ag111
asS'is_normalized_entropy_less_than_threshold'
p146
(lp147
g50
(g51
(S'b1'
p148
I0
I1
tp149
Rp150
(I3
S'|'
p151
NNNI-1
I-1
I0
tp152
bS'\x01'
p153
tp154
Rp155
ag155
ag155
ag50
(g150
S'\x00'
p156
tp157
Rp158
ag155
ag155
ag158
ag155
ag155
ag155
ag155
ag155
ag155
ag155
ag155
ag155
ag155
ag155
asaa(lp159
S'index'
p160
aI48915
aatp161
Rp162
.