ccollections
OrderedDict
p0
((lp1
(lp2
S'combination_dict'
p3
ag0
((lp4
(lp5
S'r_to_g_config'
p6
aS'tl'
p7
aa(lp8
S'num_turns'
p9
aI2
aa(lp10
S'start_direction'
p11
acutils_ms
StartDirection
p12
(I1
tp13
Rp14
aa(lp15
S'assistance_type'
p16
acutils_ms
AssistanceType
p17
(I0
tp18
Rp19
aa(lp20
S'start_mode'
p21
aS't'
p22
aa(lp23
S'ui_given_a_noise'
p24
aF0.1
aa(lp25
S'um_given_ui_noise'
p26
aF0.7
aa(lp27
S'entropy_threshold'
p28
aF0.6
aatp29
Rp30
aa(lp31
S'data'
p32
accollections
defaultdict
p33
(c__builtin__
list
p34
tp35
Rp36
S'a'
p37
(lp38
S'mode_l'
p39
aS'move_p'
p40
ag40
ag39
ag40
aS'mode_r'
p41
ag40
ag40
ag41
ag41
ag41
aS'move_n'
p42
ag41
ag41
ag41
ag41
ag41
ag41
ag40
ag40
asS'assistance_match_with_ground_truth'
p43
(lp44
I01
aI00
aI00
aI01
aI01
aI01
aI00
aI01
aI00
aI00
aI01
aI01
aI00
aI00
aI00
aI00
aI00
aI01
aI00
aI01
asS'is_u_intended_equals_um'
p45
(lp46
I01
aI00
aI00
aI01
aI01
aI01
aI00
aI01
aI00
aI00
aI01
aI01
aI00
aI00
aI00
aI00
aI00
aI01
aI00
aI01
asS'total_steps'
p47
I20
sS'normalized_h_of_p_ui_given_um'
p48
(lp49
cnumpy.core.multiarray
scalar
p50
(cnumpy
dtype
p51
(S'f8'
p52
I0
I1
tp53
Rp54
(I3
S'<'
p55
NNNI-1
I-1
I0
tp56
bS'\x03\x89\xd6\x8c\xe6\x96\xc1?'
p57
tp58
Rp59
ag50
(g54
S'\x08f\x0b\xb9D\xa7\xd7?'
p60
tp61
Rp62
ag50
(g54
S'"FC\xc3\x80\xe8\xee?'
p63
tp64
Rp65
ag50
(g54
S'\x03\x89\xd6\x8c\xe6\x96\xc1?'
p66
tp67
Rp68
ag50
(g54
S'\x9cj\xbaD\xbdL\xc4?'
p69
tp70
Rp71
ag50
(g54
S'B\xc89\xd4\xcf\xb6\xa2?'
p72
tp73
Rp74
ag50
(g54
S'\x08f\x0b\xb9D\xa7\xd7?'
p75
tp76
Rp77
ag50
(g54
S'\x9cj\xbaD\xbdL\xc4?'
p78
tp79
Rp80
ag50
(g54
S'\xb0\xa6x\x02TC\xb7?'
p81
tp82
Rp83
ag50
(g54
S' @"F\xa8T\xc7?'
p84
tp85
Rp86
ag50
(g54
S'B\xc89\xd4\xcf\xb6\xa2?'
p87
tp88
Rp89
ag50
(g54
S'b\x1f4\x1fLu\xc6?'
p90
tp91
Rp92
ag50
(g54
S'(6W\xc7\xaa\x1b\xcc?'
p93
tp94
Rp95
ag50
(g54
S'(6W\xc7\xaa\x1b\xcc?'
p96
tp97
Rp98
ag50
(g54
S'\xb0\xa6x\x02TC\xb7?'
p99
tp100
Rp101
ag50
(g54
S' @"F\xa8T\xc7?'
p102
tp103
Rp104
ag50
(g54
S' @"F\xa8T\xc7?'
p105
tp106
Rp107
ag50
(g54
S'B\xc89\xd4\xcf\xb6\xa2?'
p108
tp109
Rp110
ag50
(g54
S'\xa71\x1b\xbc\x86\x9e\xd8?'
p111
tp112
Rp113
ag50
(g54
S'\x9cj\xbaD\xbdL\xc4?'
p114
tp115
Rp116
asS'sp'
p117
(lp118
(S'p0'
p119
I0
S'y'
p120
tp121
ag121
a(g119
I0
S't'
p122
tp123
ag121
a(S'p1'
p124
I0
g120
tp125
a(g124
I0
g122
tp126
ag126
a(g124
F1.5707963267948966
g122
tp127
ag127
ag127
a(g124
F1.5707963267948966
S'x'
p128
tp129
a(S'p2'
p130
F1.5707963267948966
g128
tp131
ag131
ag131
ag131
ag131
ag131
a(g130
F1.5707963267948966
g120
tp132
ag132
a(S'p3'
p133
F1.5707963267948966
g120
tp134
asS's'
p135
(lp136
(g119
I0
g22
tp137
ag121
ag121
ag123
ag121
ag125
ag126
ag126
ag127
ag127
ag127
ag129
ag131
ag131
ag131
ag131
ag131
ag131
ag132
ag132
asS'ui'
p138
(lp139
S'hs'
p140
ag117
aS'hp'
p141
ag140
aS'ss'
p142
ag141
ag117
ag117
ag141
ag141
ag141
ag142
ag141
ag141
ag141
ag141
ag141
ag141
ag117
ag117
asS'um_before'
p143
(lp144
g140
ag142
ag141
ag140
ag117
ag141
ag142
ag117
ag142
ag117
ag141
ag142
ag140
ag140
ag142
ag117
ag117
ag141
ag140
ag117
asS'um_after'
p145
(lp146
g140
aNag141
ag140
ag117
ag141
aNag117
aNaNag141
ag142
aNaNaNaNaNag141
aNag117
asS'is_normalized_entropy_less_than_threshold'
p147
(lp148
g50
(g51
(S'b1'
p149
I0
I1
tp150
Rp151
(I3
S'|'
p152
NNNI-1
I-1
I0
tp153
bS'\x01'
p154
tp155
Rp156
ag156
ag50
(g151
S'\x00'
p157
tp158
Rp159
ag156
ag156
ag156
ag156
ag156
ag156
ag156
ag156
ag156
ag156
ag156
ag156
ag156
ag156
ag156
ag156
ag156
asaa(lp160
S'index'
p161
aI44163
aatp162
Rp163
.