ccollections
OrderedDict
p0
((lp1
(lp2
S'combination_dict'
p3
ag0
((lp4
(lp5
S'r_to_g_config'
p6
aS'tr'
p7
aa(lp8
S'num_turns'
p9
aI3
aa(lp10
S'start_direction'
p11
acutils_ms
StartDirection
p12
(I0
tp13
Rp14
aa(lp15
S'assistance_type'
p16
acutils_ms
AssistanceType
p17
(I0
tp18
Rp19
aa(lp20
S'start_mode'
p21
aS't'
p22
aa(lp23
S'ui_given_a_noise'
p24
aF0.5
aa(lp25
S'um_given_ui_noise'
p26
aF0.3
aa(lp27
S'entropy_threshold'
p28
aF0.6
aatp29
Rp30
aa(lp31
S'data'
p32
accollections
defaultdict
p33
(c__builtin__
list
p34
tp35
Rp36
S'a'
p37
(lp38
S'mode_r'
p39
aS'mode_l'
p40
ag40
aS'move_p'
p41
ag39
ag40
ag41
ag39
ag40
ag40
ag40
ag40
ag41
ag40
ag40
ag40
ag40
ag40
ag39
ag40
ag41
ag39
ag41
ag40
ag39
ag41
ag39
ag41
ag40
ag41
ag40
ag39
ag39
ag41
ag40
ag39
ag40
ag41
ag39
ag39
ag41
ag39
ag39
ag40
ag41
asS'assistance_match_with_ground_truth'
p42
(lp43
I00
aI00
aI01
aI00
aI00
aI01
aI00
aI00
aI00
aI00
aI00
aI01
aI01
aI00
aI00
aI00
aI00
aI00
aI00
aI01
aI00
aI01
aI00
aI00
aI01
aI00
aI01
aI01
aI00
aI01
aI00
aI00
aI01
aI01
aI00
aI00
aI01
aI00
aI00
aI01
aI01
aI00
aI00
aI01
aI01
asS'is_u_intended_equals_um'
p44
(lp45
I01
aI01
aI01
aI01
aI01
aI01
aI01
aI01
aI01
aI01
aI01
aI01
aI01
aI01
aI01
aI01
aI01
aI01
aI01
aI01
aI01
aI01
aI00
aI01
aI01
aI01
aI01
aI01
aI01
aI01
aI01
aI01
aI01
aI01
aI01
aI01
aI01
aI01
aI01
aI01
aI01
aI01
aI01
aI01
aI01
asS'total_steps'
p46
I45
sS'normalized_h_of_p_ui_given_um'
p47
(lp48
cnumpy.core.multiarray
scalar
p49
(cnumpy
dtype
p50
(S'f8'
p51
I0
I1
tp52
Rp53
(I3
S'<'
p54
NNNI-1
I-1
I0
tp55
bS'\xc5\xc3a>Z\xf6\xe8?'
p56
tp57
Rp58
ag49
(g53
S'\xca\xbe\xbb\x9c\xd5\xab\xe6?'
p59
tp60
Rp61
ag49
(g53
S'?\x97\xb6\xe4\xe5\x0b\xe1?'
p62
tp63
Rp64
ag49
(g53
S'\x9a\x1e\x1d#`\xa8\xe9?'
p65
tp66
Rp67
ag49
(g53
S'\xc5\xc3a>Z\xf6\xe8?'
p68
tp69
Rp70
ag49
(g53
S'?\x97\xb6\xe4\xe5\x0b\xe1?'
p71
tp72
Rp73
ag49
(g53
S'\x9a\x1e\x1d#`\xa8\xe9?'
p74
tp75
Rp76
ag49
(g53
S'\xc5\xc3a>Z\xf6\xe8?'
p77
tp78
Rp79
ag49
(g53
S'\x87\xee\xbb\x99W\xac\xe5?'
p80
tp81
Rp82
ag49
(g53
S'\xca\xbe\xbb\x9c\xd5\xab\xe6?'
p83
tp84
Rp85
ag49
(g53
S'\xca\xbe\xbb\x9c\xd5\xab\xe6?'
p86
tp87
Rp88
ag49
(g53
S'?\x97\xb6\xe4\xe5\x0b\xe1?'
p89
tp90
Rp91
ag49
(g53
S'\x0241@\x01I\xd4?'
p92
tp93
Rp94
ag49
(g53
S'\xca\xbe\xbb\x9c\xd5\xab\xe6?'
p95
tp96
Rp97
ag49
(g53
S'\xca\xbe\xbb\x9c\xd5\xab\xe6?'
p98
tp99
Rp100
ag49
(g53
S'\xca\xbe\xbb\x9c\xd5\xab\xe6?'
p101
tp102
Rp103
ag49
(g53
S'\x87\xee\xbb\x99W\xac\xe5?'
p104
tp105
Rp106
ag49
(g53
S'\xd9\xfd%\xd6\x12\xe5\xe6?'
p107
tp108
Rp109
ag49
(g53
S'\xc5\xc3a>Z\xf6\xe8?'
p110
tp111
Rp112
ag49
(g53
S'?\x97\xb6\xe4\xe5\x0b\xe1?'
p113
tp114
Rp115
ag49
(g53
S'\x9a\x1e\x1d#`\xa8\xe9?'
p116
tp117
Rp118
ag49
(g53
S'\xbd\x9e\xe4uu,\xda?'
p119
tp120
Rp121
ag49
(g53
S'O\xab\xff\x0eap\xed?'
p122
tp123
Rp124
ag49
(g53
S'\xd9\xfd%\xd6\x12\xe5\xe6?'
p125
tp126
Rp127
ag49
(g53
S'\xbd\x9e\xe4uu,\xda?'
p128
tp129
Rp130
ag49
(g53
S'\x9a\x1e\x1d#`\xa8\xe9?'
p131
tp132
Rp133
ag49
(g53
S'\xbd\x9e\xe4uu,\xda?'
p134
tp135
Rp136
ag49
(g53
S'\x0241@\x01I\xd4?'
p137
tp138
Rp139
ag49
(g53
S'\x87\xee\xbb\x99W\xac\xe5?'
p140
tp141
Rp142
ag49
(g53
S'\x0241@\x01I\xd4?'
p143
tp144
Rp145
ag49
(g53
S'\xd9\xfd%\xd6\x12\xe5\xe6?'
p146
tp147
Rp148
ag49
(g53
S'\x10\xa0n\x8e]>\xe7?'
p149
tp150
Rp151
ag49
(g53
S'\xbd\x9e\xe4uu,\xda?'
p152
tp153
Rp154
ag49
(g53
S'\x0241@\x01I\xd4?'
p155
tp156
Rp157
ag49
(g53
S'\xd9\xfd%\xd6\x12\xe5\xe6?'
p158
tp159
Rp160
ag49
(g53
S'\xc5\xc3a>Z\xf6\xe8?'
p161
tp162
Rp163
ag49
(g53
S'?\x97\xb6\xe4\xe5\x0b\xe1?'
p164
tp165
Rp166
ag49
(g53
S'\x9a\x1e\x1d#`\xa8\xe9?'
p167
tp168
Rp169
ag49
(g53
S'\x10\xa0n\x8e]>\xe7?'
p170
tp171
Rp172
ag49
(g53
S'\xbd\x9e\xe4uu,\xda?'
p173
tp174
Rp175
ag49
(g53
S'\x0241@\x01I\xd4?'
p176
tp177
Rp178
ag49
(g53
S'\x10\xa0n\x8e]>\xe7?'
p179
tp180
Rp181
ag49
(g53
S'\xc5\xc3a>Z\xf6\xe8?'
p182
tp183
Rp184
ag49
(g53
S'?\x97\xb6\xe4\xe5\x0b\xe1?'
p185
tp186
Rp187
ag49
(g53
S'\x0241@\x01I\xd4?'
p188
tp189
Rp190
asS'sp'
p191
(lp192
(S'p0'
p193
I0
S'y'
p194
tp195
a(g193
I0
g194
tp196
a(g193
I0
S'x'
p197
tp198
a(g193
I0
S't'
p199
tp200
ag195
ag198
ag200
ag195
a(g193
I0
g194
tp201
ag196
ag196
ag198
a(S'p1'
p202
I0
g197
tp203
a(g202
I0
g197
tp204
ag204
ag204
a(g202
I0
g197
tp205
a(g202
I0
g194
tp206
a(g202
I0
g197
tp207
a(g202
I0
g199
tp208
a(g202
I0
g194
tp209
a(g202
I0
g199
tp210
a(g202
I0
g197
tp211
ag206
ag210
ag209
ag210
a(g202
F1.5707963267948966
g199
tp212
a(g202
I0
g199
tp213
ag212
a(g202
F1.5707963267948966
g197
tp214
a(g202
F1.5707963267948966
g197
tp215
a(g202
F1.5707963267948966
g194
tp216
a(S'p2'
p217
F1.5707963267948966
g194
tp218
a(g217
F1.5707963267948966
g199
tp219
a(g217
F1.5707963267948966
g194
tp220
a(g217
F1.5707963267948966
g197
tp221
a(g217
F1.5707963267948966
g199
tp222
a(g217
F1.5707963267948966
g199
tp223
a(g217
F1.5707963267948966
g197
tp224
a(S'p3'
p225
F1.5707963267948966
g197
tp226
a(g225
F1.5707963267948966
g197
tp227
a(g225
F1.5707963267948966
g199
tp228
a(g225
F1.5707963267948966
g194
tp229
a(S'p4'
p230
F1.5707963267948966
g194
tp231
asS's'
p232
(lp233
(g193
I0
g22
tp234
ag195
ag196
ag198
ag200
ag195
ag198
ag200
ag195
ag201
ag196
ag196
ag198
ag203
ag204
ag204
ag204
ag205
ag206
ag207
ag208
ag209
ag210
ag211
ag206
ag210
ag209
ag210
ag212
ag213
ag212
ag214
ag215
ag216
ag218
ag219
ag220
ag221
ag222
ag223
ag224
ag226
ag227
ag228
ag229
asS'ui'
p235
(lp236
S'hs'
p237
aS'hp'
p238
ag237
ag191
ag237
ag237
aS'ss'
p239
ag237
ag237
ag237
ag237
ag237
ag191
ag191
ag191
ag239
ag239
ag238
ag237
ag191
ag237
ag238
ag191
ag238
ag238
ag237
ag237
ag191
ag239
ag191
ag238
ag239
ag238
ag239
ag237
ag237
ag237
ag191
ag239
ag238
ag191
ag239
ag237
ag237
ag191
asS'um_before'
p240
(lp241
g237
ag191
ag237
ag237
ag237
ag237
ag237
ag237
ag239
ag191
ag191
ag237
ag191
ag191
ag191
ag191
ag239
ag238
ag237
ag237
ag237
ag238
ag238
ag238
ag238
ag237
ag238
ag191
ag239
ag191
ag238
ag239
ag238
ag191
ag238
ag237
ag237
ag237
ag239
ag238
ag191
ag239
ag237
ag237
ag191
asS'um_after'
p242
(lp243
g237
ag191
ag237
ag237
ag237
ag237
ag237
ag237
ag239
ag191
ag191
ag237
ag191
ag191
ag191
ag191
ag239
ag238
ag237
ag237
ag237
ag238
ag238
ag238
ag238
ag237
ag238
ag191
ag239
ag191
ag238
ag239
ag238
ag191
ag238
ag237
ag237
ag237
ag239
ag238
ag191
ag239
ag237
ag237
ag191
asS'is_normalized_entropy_less_than_threshold'
p244
(lp245
g49
(g50
(S'b1'
p246
I0
I1
tp247
Rp248
(I3
S'|'
p249
NNNI-1
I-1
I0
tp250
bS'\x00'
p251
tp252
Rp253
ag253
ag49
(g248
S'\x01'
p254
tp255
Rp256
ag253
ag253
ag256
ag253
ag253
ag253
ag253
ag253
ag256
ag256
ag253
ag253
ag253
ag253
ag253
ag253
ag256
ag253
ag256
ag253
ag253
ag256
ag253
ag256
ag256
ag253
ag256
ag253
ag253
ag256
ag256
ag253
ag253
ag256
ag253
ag253
ag256
ag256
ag253
ag253
ag256
ag256
asaa(lp257
S'index'
p258
aI19660
aatp259
Rp260
.