ccollections
OrderedDict
p0
((lp1
(lp2
S'combination_dict'
p3
ag0
((lp4
(lp5
S'r_to_g_config'
p6
aS'tl'
p7
aa(lp8
S'num_turns'
p9
aI3
aa(lp10
S'start_direction'
p11
acutils_ms
StartDirection
p12
(I1
tp13
Rp14
aa(lp15
S'assistance_type'
p16
acutils_ms
AssistanceType
p17
(I1
tp18
Rp19
aa(lp20
S'start_mode'
p21
aS't'
p22
aa(lp23
S'ui_given_a_noise'
p24
aF0.7
aa(lp25
S'um_given_ui_noise'
p26
aF0.3
aa(lp27
S'entropy_threshold'
p28
aF0.8
aatp29
Rp30
aa(lp31
S'data'
p32
accollections
defaultdict
p33
(c__builtin__
list
p34
tp35
Rp36
S'a'
p37
(lp38
S'mode_l'
p39
aS'move_p'
p40
aS'mode_r'
p41
ag41
ag41
ag39
ag39
ag40
ag40
ag39
ag40
ag41
ag40
ag41
ag41
ag39
ag40
ag41
ag41
ag40
ag41
ag40
ag41
ag39
ag41
ag40
ag41
ag40
ag41
ag41
ag40
ag41
ag41
ag40
ag41
ag40
ag41
ag41
ag39
ag40
ag41
ag41
ag41
ag41
aS'move_n'
p42
ag41
ag40
ag39
ag39
ag42
asS'assistance_match_with_ground_truth'
p43
(lp44
I01
aI00
aI00
aI00
aI00
aI00
aI01
aI00
aI00
aI01
aI00
aI01
aI00
aI00
aI00
aI01
aI01
aI00
aI01
aI01
aI00
aI00
aI00
aI00
aI01
aI00
aI01
aI00
aI00
aI01
aI00
aI00
aI01
aI00
aI01
aI00
aI00
aI00
aI01
aI01
aI00
aI00
aI00
aI01
aI01
aI01
aI01
aI00
aI01
aI01
asS'is_u_intended_equals_um'
p45
(lp46
I01
aI01
aI01
aI01
aI01
aI01
aI01
aI01
aI01
aI01
aI01
aI01
aI01
aI01
aI01
aI01
aI01
aI01
aI01
aI01
aI01
aI01
aI01
aI01
aI01
aI01
aI01
aI01
aI01
aI01
aI01
aI01
aI01
aI01
aI01
aI01
aI01
aI01
aI01
aI01
aI01
aI01
aI01
aI01
aI01
aI01
aI01
aI00
aI01
aI01
asS'total_steps'
p47
I50
sS'normalized_h_of_p_ui_given_um'
p48
(lp49
cnumpy.core.multiarray
scalar
p50
(cnumpy
dtype
p51
(S'f8'
p52
I0
I1
tp53
Rp54
(I3
S'<'
p55
NNNI-1
I-1
I0
tp56
bS" \xa1\xf0'\xfa\x8b\xc7?"
p57
tp58
Rp59
ag50
(g54
S'\xb0\xb7\xcb6P\xf7\xe5?'
p60
tp61
Rp62
ag50
(g54
S'^j\x05\x16}#\xe8?'
p63
tp64
Rp65
ag50
(g54
S'-\xfc\xd9(*\xfd\xe4?'
p66
tp67
Rp68
ag50
(g54
S'f\xba/l9%\xea?'
p69
tp70
Rp71
ag50
(g54
S'f\x1fS\xcc"\x1b\xe4?'
p72
tp73
Rp74
ag50
(g54
S" \xa1\xf0'\xfa\x8b\xc7?"
p75
tp76
Rp77
ag50
(g54
S'\x84\xe0\xea\xd7e\x00\xe7?'
p78
tp79
Rp80
ag50
(g54
S'[\x19\x8e\xc0\xb4s\xe6?'
p81
tp82
Rp83
ag50
(g54
S" \xa1\xf0'\xfa\x8b\xc7?"
p84
tp85
Rp86
ag50
(g54
S'\xb0\xb7\xcb6P\xf7\xe5?'
p87
tp88
Rp89
ag50
(g54
S'\x8c0m\x1c=J\xde?'
p90
tp91
Rp92
ag50
(g54
S'\xb0\xb7\xcb6P\xf7\xe5?'
p93
tp94
Rp95
ag50
(g54
S'-\xfc\xd9(*\xfd\xe4?'
p96
tp97
Rp98
ag50
(g54
S'f\xba/l9%\xea?'
p99
tp100
Rp101
ag50
(g54
S" \xa1\xf0'\xfa\x8b\xc7?"
p102
tp103
Rp104
ag50
(g54
S'\xc9\xf1b3\xf3\xb3\xe1?'
p105
tp106
Rp107
ag50
(g54
S'-\xfc\xd9(*\xfd\xe4?'
p108
tp109
Rp110
ag50
(g54
S'\x8c0m\x1c=J\xde?'
p111
tp112
Rp113
ag50
(g54
S'\xc9\xf1b3\xf3\xb3\xe1?'
p114
tp115
Rp116
ag50
(g54
S'-\xfc\xd9(*\xfd\xe4?'
p117
tp118
Rp119
ag50
(g54
S'\xb0\xb7\xcb6P\xf7\xe5?'
p120
tp121
Rp122
ag50
(g54
S'f\xba/l9%\xea?'
p123
tp124
Rp125
ag50
(g54
S'f\x1fS\xcc"\x1b\xe4?'
p126
tp127
Rp128
ag50
(g54
S'\x8c0m\x1c=J\xde?'
p129
tp130
Rp131
ag50
(g54
S'\xb0\xb7\xcb6P\xf7\xe5?'
p132
tp133
Rp134
ag50
(g54
S'\x8c0m\x1c=J\xde?'
p135
tp136
Rp137
ag50
(g54
S'\xb0\xb7\xcb6P\xf7\xe5?'
p138
tp139
Rp140
ag50
(g54
S'^j\x05\x16}#\xe8?'
p141
tp142
Rp143
ag50
(g54
S'\x8c0m\x1c=J\xde?'
p144
tp145
Rp146
ag50
(g54
S'\xb0\xb7\xcb6P\xf7\xe5?'
p147
tp148
Rp149
ag50
(g54
S'^j\x05\x16}#\xe8?'
p150
tp151
Rp152
ag50
(g54
S'\x8c0m\x1c=J\xde?'
p153
tp154
Rp155
ag50
(g54
S'\x84\xe0\xea\xd7e\x00\xe7?'
p156
tp157
Rp158
ag50
(g54
S'\x8c0m\x1c=J\xde?'
p159
tp160
Rp161
ag50
(g54
S'\xb0\xb7\xcb6P\xf7\xe5?'
p162
tp163
Rp164
ag50
(g54
S'-\xfc\xd9(*\xfd\xe4?'
p165
tp166
Rp167
ag50
(g54
S'f\xba/l9%\xea?'
p168
tp169
Rp170
ag50
(g54
S" \xa1\xf0'\xfa\x8b\xc7?"
p171
tp172
Rp173
ag50
(g54
S'\xc9\xf1b3\xf3\xb3\xe1?'
p174
tp175
Rp176
ag50
(g54
S'^j\x05\x16}#\xe8?'
p177
tp178
Rp179
ag50
(g54
S'^j\x05\x16}#\xe8?'
p180
tp181
Rp182
ag50
(g54
S'^j\x05\x16}#\xe8?'
p183
tp184
Rp185
ag50
(g54
S'\x8c0m\x1c=J\xde?'
p186
tp187
Rp188
ag50
(g54
S'^\x16\x7f\xfa\xc3\xe5\xe0?'
p189
tp190
Rp191
ag50
(g54
S'\x8c0m\x1c=J\xde?'
p192
tp193
Rp194
ag50
(g54
S'\xc9\xf1b3\xf3\xb3\xe1?'
p195
tp196
Rp197
ag50
(g54
S'\xd4:9\x14\x05I\xea?'
p198
tp199
Rp200
ag50
(g54
S" \xa1\xf0'\xfa\x8b\xc7?"
p201
tp202
Rp203
ag50
(g54
S'^\x16\x7f\xfa\xc3\xe5\xe0?'
p204
tp205
Rp206
asS'sp'
p207
(lp208
(S'p0'
p209
I0
S'y'
p210
tp211
a(g209
I0
S'x'
p212
tp213
a(g209
I0
g212
tp214
a(g209
I0
g212
tp215
a(g209
I0
S't'
p216
tp217
a(g209
I0
g216
tp218
ag211
a(g209
I0
g210
tp219
a(g209
I0
g216
tp220
ag211
ag213
a(g209
I0
g210
tp221
ag213
ag215
ag217
ag211
a(S'p1'
p222
I0
g210
tp223
a(g222
I0
g210
tp224
a(g222
I0
g216
tp225
a(g222
F1.5707963267948966
g216
tp226
a(g222
I0
g216
tp227
a(g222
I0
g210
tp228
a(g222
I0
g212
tp229
a(S'p2'
p230
I0
g212
tp231
a(g230
I0
g210
tp232
a(g230
I0
g212
tp233
ag232
ag233
a(g230
I0
g212
tp234
ag232
ag233
ag234
ag232
a(g222
I0
g210
tp235
ag225
ag228
ag224
ag229
a(g222
I0
g216
tp236
ag226
a(g222
F1.5707963267948966
g216
tp237
ag237
ag237
a(g222
F1.5707963267948966
g212
tp238
a(g230
F1.5707963267948966
g212
tp239
a(g230
F1.5707963267948966
g210
tp240
a(S'p3'
p241
F1.5707963267948966
g210
tp242
a(g241
F1.5707963267948966
g210
tp243
a(g241
F1.5707963267948966
g212
tp244
a(S'p4'
p245
F1.5707963267948966
g212
tp246
asS's'
p247
(lp248
(g209
I0
g22
tp249
ag211
ag213
ag214
ag215
ag217
ag218
ag211
ag219
ag220
ag211
ag213
ag221
ag213
ag215
ag217
ag211
ag223
ag224
ag225
ag226
ag227
ag228
ag229
ag231
ag232
ag233
ag232
ag233
ag234
ag232
ag233
ag234
ag232
ag235
ag225
ag228
ag224
ag229
ag236
ag226
ag237
ag237
ag237
ag238
ag239
ag240
ag242
ag243
ag244
asS'ui'
p250
(lp251
S'hs'
p252
ag252
aS'hp'
p253
ag253
ag252
ag253
ag252
ag207
ag253
ag252
ag252
ag253
ag252
aS'ss'
p254
ag252
ag252
ag207
ag254
ag253
ag207
ag253
ag252
ag252
ag253
ag253
ag207
ag253
ag252
ag253
ag253
ag252
ag207
ag253
ag252
ag253
ag252
ag254
ag252
ag252
ag253
ag207
ag207
ag207
ag253
ag254
ag253
ag207
ag207
ag252
ag254
asS'um_before'
p255
(lp256
g252
ag252
ag207
ag254
ag252
ag254
ag252
ag254
ag253
ag252
ag252
ag253
ag252
ag254
ag252
ag252
ag207
ag254
ag253
ag207
ag254
ag252
ag252
ag254
ag253
ag252
ag253
ag252
ag207
ag253
ag252
ag207
ag253
ag254
ag253
ag252
ag254
ag252
ag252
ag207
ag207
ag207
ag207
ag253
ag254
ag253
ag207
ag207
ag252
ag254
asS'um_after'
p257
(lp258
g252
ag252
ag207
ag254
ag252
ag254
ag252
ag254
ag253
ag252
ag252
ag253
ag252
ag254
ag252
ag252
ag207
ag254
ag253
ag207
ag254
ag252
ag252
ag254
ag253
ag252
ag253
ag252
ag207
ag253
ag252
ag207
ag253
ag254
ag253
ag252
ag254
ag252
ag252
ag207
ag207
ag207
ag207
ag253
ag254
ag253
ag207
ag207
ag252
ag254
asS'is_normalized_entropy_less_than_threshold'
p259
(lp260
g50
(g51
(S'b1'
p261
I0
I1
tp262
Rp263
(I3
S'|'
p264
NNNI-1
I-1
I0
tp265
bS'\x01'
p266
tp267
Rp268
ag268
ag268
ag268
ag50
(g263
S'\x00'
p269
tp270
Rp271
ag268
ag268
ag268
ag268
ag268
ag268
ag268
ag268
ag268
ag271
ag268
ag268
ag268
ag268
ag268
ag268
ag268
ag271
ag268
ag268
ag268
ag268
ag268
ag268
ag268
ag268
ag268
ag268
ag268
ag268
ag268
ag268
ag271
ag268
ag268
ag268
ag268
ag268
ag268
ag268
ag268
ag268
ag271
ag268
ag268
asaa(lp272
S'index'
p273
aI55884
aatp274
Rp275
.