ccollections
OrderedDict
p0
((lp1
(lp2
S'combination_dict'
p3
ag0
((lp4
(lp5
S'r_to_g_config'
p6
aS'tr'
p7
aa(lp8
S'num_turns'
p9
aI3
aa(lp10
S'start_direction'
p11
acutils_ms
StartDirection
p12
(I1
tp13
Rp14
aa(lp15
S'assistance_type'
p16
acutils_ms
AssistanceType
p17
(I0
tp18
Rp19
aa(lp20
S'start_mode'
p21
aS'x'
p22
aa(lp23
S'ui_given_a_noise'
p24
aF0.1
aa(lp25
S'um_given_ui_noise'
p26
aF0.7
aa(lp27
S'entropy_threshold'
p28
aF0.7
aatp29
Rp30
aa(lp31
S'data'
p32
accollections
defaultdict
p33
(c__builtin__
list
p34
tp35
Rp36
S'a'
p37
(lp38
S'mode_r'
p39
ag39
aS'move_p'
p40
ag40
ag40
aS'mode_l'
p41
ag41
ag41
ag40
ag40
ag40
ag40
ag40
ag41
ag41
ag41
ag40
ag41
ag41
ag41
ag41
ag40
ag41
ag40
ag40
ag40
asS'assistance_match_with_ground_truth'
p42
(lp43
I00
aI01
aI00
aI00
aI01
aI00
aI00
aI01
aI00
aI00
aI00
aI00
aI01
aI00
aI00
aI01
aI01
aI00
aI00
aI00
aI01
aI01
aI01
aI00
aI00
aI01
asS'is_u_intended_equals_um'
p44
(lp45
I00
aI01
aI00
aI00
aI01
aI00
aI00
aI01
aI00
aI00
aI00
aI00
aI01
aI00
aI00
aI01
aI01
aI00
aI00
aI00
aI01
aI01
aI01
aI00
aI00
aI01
asS'total_steps'
p46
I26
sS'normalized_h_of_p_ui_given_um'
p47
(lp48
cnumpy.core.multiarray
scalar
p49
(cnumpy
dtype
p50
(S'f8'
p51
I0
I1
tp52
Rp53
(I3
S'<'
p54
NNNI-1
I-1
I0
tp55
bS'\x84(C{1\xd7\xc9?'
p56
tp57
Rp58
ag49
(g53
S'\n9\xc5\x03\xf6S\xc9?'
p59
tp60
Rp61
ag49
(g53
S'i\x94\xa8\xf0\x12f\xde?'
p62
tp63
Rp64
ag49
(g53
S'i\x94\xa8\xf0\x12f\xde?'
p65
tp66
Rp67
ag49
(g53
S'\x9a\x1eaG\x16)\xca?'
p68
tp69
Rp70
ag49
(g53
S'`\x00\x8b\xb2\xfdh\xdb?'
p71
tp72
Rp73
ag49
(g53
S'\xe32\x7fqI;\xdf?'
p74
tp75
Rp76
ag49
(g53
S'\x87Y\xbb]1R\xd0?'
p77
tp78
Rp79
ag49
(g53
S'\xa7\xe1\xab\xd6%\xdf\xda?'
p80
tp81
Rp82
ag49
(g53
S'\xa7\xe1\xab\xd6%\xdf\xda?'
p83
tp84
Rp85
ag49
(g53
S'\xa7\xe1\xab\xd6%\xdf\xda?'
p86
tp87
Rp88
ag49
(g53
S'i\x94\xa8\xf0\x12f\xde?'
p89
tp90
Rp91
ag49
(g53
S'\x9a\x1eaG\x16)\xca?'
p92
tp93
Rp94
ag49
(g53
S'\xe32\x7fqI;\xdf?'
p95
tp96
Rp97
ag49
(g53
S'\xe32\x7fqI;\xdf?'
p98
tp99
Rp100
ag49
(g53
S'\x87Y\xbb]1R\xd0?'
p101
tp102
Rp103
ag49
(g53
S'\x9a\x1eaG\x16)\xca?'
p104
tp105
Rp106
ag49
(g53
S'`\x00\x8b\xb2\xfdh\xdb?'
p107
tp108
Rp109
ag49
(g53
S'`\x00\x8b\xb2\xfdh\xdb?'
p110
tp111
Rp112
ag49
(g53
S'`\x00\x8b\xb2\xfdh\xdb?'
p113
tp114
Rp115
ag49
(g53
S'\x87Y\xbb]1R\xd0?'
p116
tp117
Rp118
ag49
(g53
S'\x9a\x1eaG\x16)\xca?'
p119
tp120
Rp121
ag49
(g53
S'\x87Y\xbb]1R\xd0?'
p122
tp123
Rp124
ag49
(g53
S'\xa7\xe1\xab\xd6%\xdf\xda?'
p125
tp126
Rp127
ag49
(g53
S'\xa7\xe1\xab\xd6%\xdf\xda?'
p128
tp129
Rp130
ag49
(g53
S'\x9a\x1eaG\x16)\xca?'
p131
tp132
Rp133
asS'sp'
p134
(lp135
(S'p0'
p136
I0
g22
tp137
a(g136
I0
S'y'
p138
tp139
ag139
ag139
a(S'p1'
p140
I0
g138
tp141
ag141
ag141
a(g140
I0
S'x'
p142
tp143
ag143
ag143
ag143
ag143
a(S'p2'
p144
I0
g142
tp145
ag145
ag145
a(g144
I0
S't'
p146
tp147
a(g144
F1.5707963267948966
g146
tp148
ag148
ag148
ag148
a(g144
F1.5707963267948966
g138
tp149
a(S'p3'
p150
F1.5707963267948966
g138
tp151
a(g150
F1.5707963267948966
g142
tp152
ag152
ag152
a(S'p4'
p153
F1.5707963267948966
g142
tp154
asS's'
p155
(lp156
g137
ag137
ag139
ag139
ag139
ag141
ag141
ag141
ag143
ag143
ag143
ag143
ag143
ag145
ag145
ag145
ag147
ag148
ag148
ag148
ag148
ag149
ag151
ag152
ag152
ag152
asS'ui'
p157
(lp158
S'hp'
p159
ag159
aS'hs'
p160
ag134
ag134
ag160
ag160
ag160
ag134
ag134
ag134
ag134
ag134
ag134
ag159
ag160
ag134
ag160
ag160
ag160
ag160
ag159
ag160
ag134
ag134
ag134
asS'um_before'
p161
(lp162
g160
ag159
ag160
ag160
ag134
ag159
ag134
ag160
ag159
ag159
ag159
ag160
ag134
ag134
ag134
ag160
ag134
ag159
ag159
ag159
ag160
ag134
ag160
ag159
ag159
ag134
asS'um_after'
p163
(lp164
Nag159
aNaNag134
aNaNag160
aNaNaNaNag134
aNaNag160
ag134
aNaNaNag160
ag134
ag160
aNaNag134
asS'is_normalized_entropy_less_than_threshold'
p165
(lp166
g49
(g50
(S'b1'
p167
I0
I1
tp168
Rp169
(I3
S'|'
p170
NNNI-1
I-1
I0
tp171
bS'\x01'
p172
tp173
Rp174
ag174
ag174
ag174
ag174
ag174
ag174
ag174
ag174
ag174
ag174
ag174
ag174
ag174
ag174
ag174
ag174
ag174
ag174
ag174
ag174
ag174
ag174
ag174
ag174
ag174
asaa(lp175
S'index'
p176
aI24175
aatp177
Rp178
.