ccollections
OrderedDict
p0
((lp1
(lp2
S'combination_dict'
p3
ag0
((lp4
(lp5
S'r_to_g_config'
p6
aS'tl'
p7
aa(lp8
S'num_turns'
p9
aI1
aa(lp10
S'start_direction'
p11
acutils_ms
StartDirection
p12
(I0
tp13
Rp14
aa(lp15
S'assistance_type'
p16
acutils_ms
AssistanceType
p17
(I0
tp18
Rp19
aa(lp20
S'start_mode'
p21
aS'y'
p22
aa(lp23
S'ui_given_a_noise'
p24
aF0.5
aa(lp25
S'um_given_ui_noise'
p26
aF0.7
aa(lp27
S'entropy_threshold'
p28
aF0.9
aatp29
Rp30
aa(lp31
S'data'
p32
accollections
defaultdict
p33
(c__builtin__
list
p34
tp35
Rp36
S'a'
p37
(lp38
S'mode_l'
p39
aS'move_n'
p40
ag39
ag39
ag39
ag39
aS'move_p'
p41
ag41
ag39
ag41
ag41
ag41
ag41
ag41
ag39
ag41
ag39
ag39
ag41
ag41
ag39
ag39
ag41
ag39
ag40
aS'mode_r'
p42
ag42
ag42
ag41
ag39
ag39
ag39
ag39
ag39
ag39
ag39
ag41
ag39
ag39
ag40
ag40
ag42
ag40
ag42
ag41
asS'assistance_match_with_ground_truth'
p43
(lp44
I01
aI01
aI00
aI00
aI00
aI01
aI00
aI00
aI01
aI00
aI00
aI00
aI00
aI01
aI01
aI00
aI00
aI01
aI00
aI00
aI00
aI01
aI00
aI01
aI01
aI00
aI00
aI01
aI00
aI00
aI00
aI00
aI00
aI00
aI00
aI01
aI00
aI00
aI01
aI00
aI00
aI01
aI01
aI01
aI01
asS'is_u_intended_equals_um'
p45
(lp46
I01
aI01
aI00
aI01
aI01
aI01
aI01
aI01
aI01
aI01
aI01
aI00
aI01
aI01
aI01
aI01
aI00
aI01
aI00
aI01
aI00
aI01
aI01
aI01
aI01
aI00
aI00
aI01
aI01
aI00
aI00
aI00
aI01
aI01
aI00
aI01
aI01
aI00
aI01
aI00
aI01
aI01
aI01
aI01
aI01
asS'total_steps'
p47
I45
sS'normalized_h_of_p_ui_given_um'
p48
(lp49
cnumpy.core.multiarray
scalar
p50
(cnumpy
dtype
p51
(S'f8'
p52
I0
I1
tp53
Rp54
(I3
S'<'
p55
NNNI-1
I-1
I0
tp56
bS'\xa3\xd3=\\\x857\xe3?'
p57
tp58
Rp59
ag50
(g54
S'K\x96\xc9\x8d2\\\xe8?'
p60
tp61
Rp62
ag50
(g54
S'HR^LB#\xeb?'
p63
tp64
Rp65
ag50
(g54
S'!\xff\xba\x81\x1a\xab\xe9?'
p66
tp67
Rp68
ag50
(g54
S'!\xff\xba\x81\x1a\xab\xe9?'
p69
tp70
Rp71
ag50
(g54
S'\xa3\xd3=\\\x857\xe3?'
p72
tp73
Rp74
ag50
(g54
S'\x1c9 \x9a%M\xea?'
p75
tp76
Rp77
ag50
(g54
S'\xaaN\x8dN\xffC\xe7?'
p78
tp79
Rp80
ag50
(g54
S'\xa3\xd3=\\\x857\xe3?'
p81
tp82
Rp83
ag50
(g54
S'\x1c9 \x9a%M\xea?'
p84
tp85
Rp86
ag50
(g54
S'\x1c9 \x9a%M\xea?'
p87
tp88
Rp89
ag50
(g54
S'\xf7H6X\xdb\x13\xea?'
p90
tp91
Rp92
ag50
(g54
S'\x1c9 \x9a%M\xea?'
p93
tp94
Rp95
ag50
(g54
S'\xc6(\xdf\xbf\xd9I\xe2?'
p96
tp97
Rp98
ag50
(g54
S'\xa3\xd3=\\\x857\xe3?'
p99
tp100
Rp101
ag50
(g54
S'\xaaN\x8dN\xffC\xe7?'
p102
tp103
Rp104
ag50
(g54
S'HR^LB#\xeb?'
p105
tp106
Rp107
ag50
(g54
S'\xa3\xd3=\\\x857\xe3?'
p108
tp109
Rp110
ag50
(g54
S'\xf7H6X\xdb\x13\xea?'
p111
tp112
Rp113
ag50
(g54
S'\xaaN\x8dN\xffC\xe7?'
p114
tp115
Rp116
ag50
(g54
S'HR^LB#\xeb?'
p117
tp118
Rp119
ag50
(g54
S'\xa3\xd3=\\\x857\xe3?'
p120
tp121
Rp122
ag50
(g54
S'\x1c9 \x9a%M\xea?'
p123
tp124
Rp125
ag50
(g54
S'\xa3\xd3=\\\x857\xe3?'
p126
tp127
Rp128
ag50
(g54
S'K\x96\xc9\x8d2\\\xe8?'
p129
tp130
Rp131
ag50
(g54
S'\\\x1e:|\xdeb\xe8?'
p132
tp133
Rp134
ag50
(g54
S'\xee\xd7\x85\x80\xbb\xf7\xe4?'
p135
tp136
Rp137
ag50
(g54
S'\xeb2\x1a\x9f\xf9T\xd9?'
p138
tp139
Rp140
ag50
(g54
S'\xaaN\x8dN\xffC\xe7?'
p141
tp142
Rp143
ag50
(g54
S'HR^LB#\xeb?'
p144
tp145
Rp146
ag50
(g54
S'\xb4\xe6\\4\x01\xd7\xeb?'
p147
tp148
Rp149
ag50
(g54
S'\xb4\xe6\\4\x01\xd7\xeb?'
p150
tp151
Rp152
ag50
(g54
S'!\xff\xba\x81\x1a\xab\xe9?'
p153
tp154
Rp155
ag50
(g54
S'!\xff\xba\x81\x1a\xab\xe9?'
p156
tp157
Rp158
ag50
(g54
S'\xb4\xe6\\4\x01\xd7\xeb?'
p159
tp160
Rp161
ag50
(g54
S'\xa3\xd3=\\\x857\xe3?'
p162
tp163
Rp164
ag50
(g54
S'\x1c9 \x9a%M\xea?'
p165
tp166
Rp167
ag50
(g54
S'\xb4\xe6\\4\x01\xd7\xeb?'
p168
tp169
Rp170
ag50
(g54
S'\xa3\xd3=\\\x857\xe3?'
p171
tp172
Rp173
ag50
(g54
S'L\xd6U\xcd\xa9^\xe8?'
p174
tp175
Rp176
ag50
(g54
S'\xd2+\x804\x89\x8d\xed?'
p177
tp178
Rp179
ag50
(g54
S'\xeb2\x1a\x9f\xf9T\xd9?'
p180
tp181
Rp182
ag50
(g54
S'K\x96\xc9\x8d2\\\xe8?'
p183
tp184
Rp185
ag50
(g54
S'\xeb2\x1a\x9f\xf9T\xd9?'
p186
tp187
Rp188
ag50
(g54
S'\xc6(\xdf\xbf\xd9I\xe2?'
p189
tp190
Rp191
asS'sp'
p192
(lp193
(S'p0'
p194
I0
S'x'
p195
tp196
a(S'p1'
p197
I0
g195
tp198
ag198
a(g197
I0
g195
tp199
ag199
a(g197
I0
S't'
p200
tp201
a(g197
I0
g200
tp202
a(g197
I0
g195
tp203
ag201
ag202
ag202
ag202
ag202
a(g197
F1.5707963267948966
g200
tp204
a(g197
F1.5707963267948966
S'y'
p205
tp206
a(g197
F1.5707963267948966
g200
tp207
ag207
ag206
ag206
ag207
ag207
ag206
a(g194
F1.5707963267948966
g205
tp208
a(g194
F1.5707963267948966
g195
tp209
a(g197
F1.5707963267948966
g195
tp210
ag210
ag210
a(g197
F1.5707963267948966
g205
tp211
ag207
ag207
ag207
ag207
a(g197
F1.5707963267948966
g200
tp212
ag212
ag212
ag206
ag208
ag208
ag209
ag209
a(g194
F1.5707963267948966
g200
tp213
a(g194
F1.5707963267948966
g195
tp214
ag210
ag211
a(S'p2'
p215
F1.5707963267948966
g205
tp216
asS's'
p217
(lp218
(g194
I0
g22
tp219
ag196
ag198
ag198
ag199
ag199
ag201
ag202
ag203
ag201
ag202
ag202
ag202
ag202
ag204
ag206
ag207
ag207
ag206
ag206
ag207
ag207
ag206
ag208
ag209
ag210
ag210
ag210
ag211
ag207
ag207
ag207
ag207
ag212
ag212
ag212
ag206
ag208
ag208
ag209
ag209
ag213
ag214
ag210
ag211
asS'ui'
p220
(lp221
g192
aS'ss'
p222
aS'hp'
p223
ag192
ag192
aS'hs'
p224
ag222
ag192
ag224
ag192
ag222
ag192
ag223
ag192
ag224
ag223
ag223
ag224
ag192
ag192
ag192
ag224
ag222
ag224
ag224
ag223
ag192
ag223
ag223
ag224
ag224
ag222
ag192
ag224
ag222
ag224
ag222
ag224
ag224
ag222
ag222
ag223
ag222
ag223
ag192
asS'um_before'
p225
(lp226
g224
ag222
ag223
ag192
ag192
ag224
ag222
ag223
ag224
ag222
ag222
ag224
ag222
ag192
ag224
ag223
ag223
ag224
ag224
ag223
ag223
ag224
ag222
ag224
ag222
ag192
ag222
ag223
ag223
ag223
ag222
ag222
ag192
ag192
ag222
ag224
ag222
ag222
ag224
ag192
ag224
ag223
ag222
ag223
ag192
asS'um_after'
p227
(lp228
g224
ag222
aNag192
ag192
ag224
ag222
ag223
ag224
ag222
ag222
aNag222
ag192
ag224
ag223
aNag224
aNag223
aNag224
ag222
ag224
ag222
aNaNag223
ag223
aNaNaNag192
ag192
aNag224
ag222
aNag224
aNag224
ag223
ag222
ag223
ag192
asS'is_normalized_entropy_less_than_threshold'
p229
(lp230
g50
(g51
(S'b1'
p231
I0
I1
tp232
Rp233
(I3
S'|'
p234
NNNI-1
I-1
I0
tp235
bS'\x01'
p236
tp237
Rp238
ag238
ag238
ag238
ag238
ag238
ag238
ag238
ag238
ag238
ag238
ag238
ag238
ag238
ag238
ag238
ag238
ag238
ag238
ag238
ag238
ag238
ag238
ag238
ag238
ag238
ag238
ag238
ag238
ag238
ag238
ag238
ag238
ag238
ag238
ag238
ag238
ag238
ag238
ag238
ag50
(g233
S'\x00'
p239
tp240
Rp241
ag238
ag238
ag238
ag238
asaa(lp242
S'index'
p243
aI30193
aatp244
Rp245
.