ccollections
OrderedDict
p0
((lp1
(lp2
S'combination_dict'
p3
ag0
((lp4
(lp5
S'r_to_g_config'
p6
aS'br'
p7
aa(lp8
S'num_turns'
p9
aI2
aa(lp10
S'start_direction'
p11
acutils_ms
StartDirection
p12
(I0
tp13
Rp14
aa(lp15
S'assistance_type'
p16
acutils_ms
AssistanceType
p17
(I1
tp18
Rp19
aa(lp20
S'start_mode'
p21
aS't'
p22
aa(lp23
S'ui_given_a_noise'
p24
aF0.7
aa(lp25
S'um_given_ui_noise'
p26
aF0.7
aa(lp27
S'entropy_threshold'
p28
aF0.7
aatp29
Rp30
aa(lp31
S'data'
p32
accollections
defaultdict
p33
(c__builtin__
list
p34
tp35
Rp36
S'a'
p37
(lp38
S'mode_r'
p39
ag39
aS'move_p'
p40
aS'mode_l'
p41
ag40
ag39
ag39
ag41
ag40
ag39
ag41
ag40
ag41
ag40
ag40
ag41
aS'move_n'
p42
ag41
ag40
ag41
ag40
ag39
ag39
ag39
ag41
ag40
ag41
ag40
ag41
ag42
ag41
ag40
ag39
ag39
ag39
ag39
ag39
ag39
ag39
ag42
ag41
ag42
ag41
ag40
asS'assistance_match_with_ground_truth'
p43
(lp44
I00
aI01
aI00
aI01
aI00
aI00
aI00
aI01
aI00
aI00
aI01
aI01
aI01
aI00
aI01
aI01
aI01
aI01
aI00
aI01
aI00
aI00
aI00
aI00
aI00
aI00
aI01
aI01
aI01
aI01
aI01
aI00
aI00
aI00
aI00
aI00
aI00
aI00
aI01
aI00
aI01
aI01
aI01
aI01
asS'is_u_intended_equals_um'
p45
(lp46
I00
aI01
aI00
aI00
aI01
aI01
aI01
aI00
aI01
aI01
aI00
aI01
aI00
aI00
aI01
aI01
aI01
aI01
aI00
aI01
aI00
aI00
aI00
aI01
aI01
aI00
aI00
aI01
aI01
aI01
aI00
aI00
aI01
aI01
aI00
aI01
aI00
aI00
aI01
aI00
aI00
aI01
aI01
aI01
asS'total_steps'
p47
I44
sS'normalized_h_of_p_ui_given_um'
p48
(lp49
cnumpy.core.multiarray
scalar
p50
(cnumpy
dtype
p51
(S'f8'
p52
I0
I1
tp53
Rp54
(I3
S'<'
p55
NNNI-1
I-1
I0
tp56
bS'`\xe2\xbb:Po\xea?'
p57
tp58
Rp59
ag50
(g54
S'A\xcdk\xa2\xe1\x9e\xe8?'
p60
tp61
Rp62
ag50
(g54
S'\xc7\xef\x8a\xf9\xb2.\xe9?'
p63
tp64
Rp65
ag50
(g54
S'\x10\xd0\xcf\x0fR\xab\xe5?'
p66
tp67
Rp68
ag50
(g54
S'\xd6T\xa8x\x8f\r\xe6?'
p69
tp70
Rp71
ag50
(g54
S'\xa18G\n&\xe9\xe5?'
p72
tp73
Rp74
ag50
(g54
S'm%L\xc7z\xe7\xe7?'
p75
tp76
Rp77
ag50
(g54
S'\x10\xd0\xcf\x0fR\xab\xe5?'
p78
tp79
Rp80
ag50
(g54
S'\xd6T\xa8x\x8f\r\xe6?'
p81
tp82
Rp83
ag50
(g54
S'm%L\xc7z\xe7\xe7?'
p84
tp85
Rp86
ag50
(g54
S'\x10\xd0\xcf\x0fR\xab\xe5?'
p87
tp88
Rp89
ag50
(g54
S'YT\xb8\xe0\xafq\xd6?'
p90
tp91
Rp92
ag50
(g54
S'\x10\xd0\xcf\x0fR\xab\xe5?'
p93
tp94
Rp95
ag50
(g54
S'\xc4\xae\xe4N\xba\xaa\xe6?'
p96
tp97
Rp98
ag50
(g54
S'YT\xb8\xe0\xafq\xd6?'
p99
tp100
Rp101
ag50
(g54
S'\xee\x90b\xf8\xab\xc0\xdd?'
p102
tp103
Rp104
ag50
(g54
S'\xbe\x17a\x05\xe4\xfc\xd7?'
p105
tp106
Rp107
ag50
(g54
S'\xee\x90b\xf8\xab\xc0\xdd?'
p108
tp109
Rp110
ag50
(g54
S'\xc7\xef\x8a\xf9\xb2.\xe9?'
p111
tp112
Rp113
ag50
(g54
S'\xee\x90b\xf8\xab\xc0\xdd?'
p114
tp115
Rp116
ag50
(g54
S'\xc4\xae\xe4N\xba\xaa\xe6?'
p117
tp118
Rp119
ag50
(g54
S'`\xe2\xbb:Po\xea?'
p120
tp121
Rp122
ag50
(g54
S'`\xe2\xbb:Po\xea?'
p123
tp124
Rp125
ag50
(g54
S'm%L\xc7z\xe7\xe7?'
p126
tp127
Rp128
ag50
(g54
S'\x90L\x18-\xaaj\xea?'
p129
tp130
Rp131
ag50
(g54
S'\xc7\xef\x8a\xf9\xb2.\xe9?'
p132
tp133
Rp134
ag50
(g54
S'\x10\xd0\xcf\x0fR\xab\xe5?'
p135
tp136
Rp137
ag50
(g54
S'YT\xb8\xe0\xafq\xd6?'
p138
tp139
Rp140
ag50
(g54
S'\xee\x90b\xf8\xab\xc0\xdd?'
p141
tp142
Rp143
ag50
(g54
S'\xbe\x17a\x05\xe4\xfc\xd7?'
p144
tp145
Rp146
ag50
(g54
S'\x10\xd0\xcf\x0fR\xab\xe5?'
p147
tp148
Rp149
ag50
(g54
S'\xc4\xae\xe4N\xba\xaa\xe6?'
p150
tp151
Rp152
ag50
(g54
S'\xa18G\n&\xe9\xe5?'
p153
tp154
Rp155
ag50
(g54
S'\xa18G\n&\xe9\xe5?'
p156
tp157
Rp158
ag50
(g54
S'`\xe2\xbb:Po\xea?'
p159
tp160
Rp161
ag50
(g54
S'\xa18G\n&\xe9\xe5?'
p162
tp163
Rp164
ag50
(g54
S'`\xe2\xbb:Po\xea?'
p165
tp166
Rp167
ag50
(g54
S'`\xe2\xbb:Po\xea?'
p168
tp169
Rp170
ag50
(g54
S'A\xcdk\xa2\xe1\x9e\xe8?'
p171
tp172
Rp173
ag50
(g54
S'\xaa\x94\xec\xa4\x9b\xe4\xea?'
p174
tp175
Rp176
ag50
(g54
S'\x10\xd0\xcf\x0fR\xab\xe5?'
p177
tp178
Rp179
ag50
(g54
S'\xbe\x17a\x05\xe4\xfc\xd7?'
p180
tp181
Rp182
ag50
(g54
S'\xee\x90b\xf8\xab\xc0\xdd?'
p183
tp184
Rp185
ag50
(g54
S'YT\xb8\xe0\xafq\xd6?'
p186
tp187
Rp188
asS'sp'
p189
(lp190
(S'p0'
p191
I0
S't'
p192
tp193
a(g191
I0
S'x'
p194
tp195
a(g191
I0
S'y'
p196
tp197
a(g191
I0
g194
tp198
a(g191
I0
g192
tp199
a(g191
I0
g192
tp200
a(g191
I0
g196
tp201
ag198
ag199
ag201
ag198
a(S'p1'
p202
I0
g194
tp203
a(g202
I0
g192
tp204
a(g202
I0
g192
tp205
a(g202
F1.5707963267948966
g192
tp206
a(g202
F1.5707963267948966
g196
tp207
a(S'p2'
p208
F1.5707963267948966
g196
tp209
a(g208
F1.5707963267948966
g194
tp210
a(g208
F1.5707963267948966
g196
tp211
ag210
a(g202
F1.5707963267948966
g194
tp212
a(g202
F1.5707963267948966
g194
tp213
ag213
a(g202
F1.5707963267948966
g192
tp214
a(g202
I0
g192
tp215
a(g202
I0
g194
tp216
ag204
ag206
ag207
ag209
ag210
ag212
a(g202
F1.5707963267948966
g194
tp217
ag217
ag213
ag217
ag213
ag213
a(g202
F1.5707963267948966
g196
tp218
a(g202
F1.5707963267948966
g192
tp219
ag207
ag209
ag210
a(S'p3'
p220
F1.5707963267948966
g194
tp221
asS's'
p222
(lp223
(g191
I0
g22
tp224
ag193
ag195
ag197
ag198
ag199
ag200
ag201
ag198
ag199
ag201
ag198
ag203
ag204
ag205
ag206
ag207
ag209
ag210
ag211
ag210
ag212
ag213
ag213
ag214
ag215
ag216
ag204
ag206
ag207
ag209
ag210
ag212
ag217
ag217
ag213
ag217
ag213
ag213
ag218
ag219
ag207
ag209
ag210
asS'ui'
p225
(lp226
S'hp'
p227
ag227
ag189
ag227
aS'hs'
p228
aS'ss'
p229
ag228
ag228
ag228
ag228
ag228
ag189
ag228
ag189
ag189
ag228
ag229
ag228
ag228
ag228
ag189
ag227
ag229
ag228
ag189
ag189
ag228
ag189
ag228
ag229
ag189
ag229
ag229
ag189
ag229
ag189
ag227
ag229
ag227
ag228
ag189
ag228
ag228
ag189
asS'um_before'
p230
(lp231
g189
ag227
ag227
ag227
ag228
ag229
ag228
ag227
ag228
ag228
ag227
ag189
ag227
ag229
ag189
ag228
ag229
ag228
ag227
ag228
ag229
ag189
ag189
ag228
ag229
ag227
ag227
ag189
ag228
ag229
ag227
ag229
ag229
ag229
ag189
ag229
ag189
ag189
ag227
ag227
ag227
ag229
ag228
ag189
asS'um_after'
p232
(lp233
g189
ag227
ag227
ag228
ag228
ag229
ag228
ag228
ag228
ag228
ag228
ag189
ag228
ag229
ag189
ag228
ag229
ag228
ag227
ag228
ag229
ag189
ag189
ag228
ag229
ag227
ag228
ag189
ag228
ag229
ag228
ag229
ag229
ag229
ag189
ag229
ag189
ag189
ag227
ag227
ag228
ag229
ag228
ag189
asS'is_normalized_entropy_less_than_threshold'
p234
(lp235
g50
(g51
(S'b1'
p236
I0
I1
tp237
Rp238
(I3
S'|'
p239
NNNI-1
I-1
I0
tp240
bS'\x00'
p241
tp242
Rp243
ag243
ag243
ag50
(g238
S'\x01'
p244
tp245
Rp246
ag246
ag246
ag243
ag246
ag246
ag243
ag246
ag246
ag246
ag243
ag246
ag246
ag246
ag246
ag243
ag246
ag243
ag243
ag243
ag243
ag243
ag243
ag246
ag246
ag246
ag246
ag246
ag243
ag246
ag246
ag243
ag246
ag243
ag243
ag243
ag243
ag246
ag246
ag246
ag246
asaa(lp247
S'index'
p248
aI98373
aatp249
Rp250
.