ccollections
OrderedDict
p0
((lp1
(lp2
S'combination_dict'
p3
ag0
((lp4
(lp5
S'r_to_g_config'
p6
aS'tr'
p7
aa(lp8
S'num_turns'
p9
aI3
aa(lp10
S'start_direction'
p11
acutils_ms
StartDirection
p12
(I0
tp13
Rp14
aa(lp15
S'assistance_type'
p16
acutils_ms
AssistanceType
p17
(I1
tp18
Rp19
aa(lp20
S'start_mode'
p21
aS'y'
p22
aa(lp23
S'ui_given_a_noise'
p24
aF0.7
aa(lp25
S'um_given_ui_noise'
p26
aF0.5
aa(lp27
S'entropy_threshold'
p28
aF0.6
aatp29
Rp30
aa(lp31
S'data'
p32
accollections
defaultdict
p33
(c__builtin__
list
p34
tp35
Rp36
S'a'
p37
(lp38
S'mode_l'
p39
aS'move_p'
p40
ag39
aS'mode_r'
p41
ag39
ag39
ag41
ag40
ag39
ag39
ag41
ag40
ag39
ag40
ag39
ag41
ag40
ag41
ag40
ag39
ag39
ag39
ag41
ag40
ag41
ag41
ag41
ag41
ag40
ag39
ag39
ag40
ag39
ag39
ag41
ag39
ag39
ag40
asS'assistance_match_with_ground_truth'
p42
(lp43
I01
aI00
aI00
aI00
aI00
aI00
aI01
aI01
aI00
aI00
aI01
aI01
aI01
aI01
aI00
aI01
aI01
aI01
aI00
aI00
aI00
aI00
aI01
aI01
aI00
aI00
aI00
aI01
aI00
aI00
aI01
aI00
aI00
aI00
aI00
aI00
aI01
aI01
asS'is_u_intended_equals_um'
p44
(lp45
I01
aI01
aI01
aI00
aI01
aI01
aI01
aI01
aI01
aI01
aI01
aI01
aI01
aI01
aI01
aI01
aI01
aI01
aI01
aI01
aI01
aI01
aI01
aI01
aI01
aI01
aI00
aI01
aI01
aI01
aI01
aI01
aI01
aI01
aI00
aI01
aI01
aI01
asS'total_steps'
p46
I38
sS'normalized_h_of_p_ui_given_um'
p47
(lp48
cnumpy.core.multiarray
scalar
p49
(cnumpy
dtype
p50
(S'f8'
p51
I0
I1
tp52
Rp53
(I3
S'<'
p54
NNNI-1
I-1
I0
tp55
bS'/V\xfe1\x9d\x84\xe7?'
p56
tp57
Rp58
ag49
(g53
S'\x0e\xbev\\"l\xe5?'
p59
tp60
Rp61
ag49
(g53
S'|\x86c\xae\xf6\x1c\xe9?'
p62
tp63
Rp64
ag49
(g53
S'\x95\x91G\xad\xd5\xef\xec?'
p65
tp66
Rp67
ag49
(g53
S'\x01\x93\x96\x17\xf6 \xec?'
p68
tp69
Rp70
ag49
(g53
S'|\x86c\xae\xf6\x1c\xe9?'
p71
tp72
Rp73
ag49
(g53
S'\xbb\xb0\x0b\x9b)\x14\xd4?'
p74
tp75
Rp76
ag49
(g53
S'~\xba\xd4\x9f\xbb\x82\xe1?'
p77
tp78
Rp79
ag49
(g53
S'\xc1\xb9]\x15\x0e\xe5\xec?'
p80
tp81
Rp82
ag49
(g53
S'|\x86c\xae\xf6\x1c\xe9?'
p83
tp84
Rp85
ag49
(g53
S'\xbb\xb0\x0b\x9b)\x14\xd4?'
p86
tp87
Rp88
ag49
(g53
S'~\xba\xd4\x9f\xbb\x82\xe1?'
p89
tp90
Rp91
ag49
(g53
S'/V\xfe1\x9d\x84\xe7?'
p92
tp93
Rp94
ag49
(g53
S'~\xba\xd4\x9f\xbb\x82\xe1?'
p95
tp96
Rp97
ag49
(g53
S'|\x86c\xae\xf6\x1c\xe9?'
p98
tp99
Rp100
ag49
(g53
S'\xbb\xb0\x0b\x9b)\x14\xd4?'
p101
tp102
Rp103
ag49
(g53
S'~\xba\xd4\x9f\xbb\x82\xe1?'
p104
tp105
Rp106
ag49
(g53
S'\xbb\xb0\x0b\x9b)\x14\xd4?'
p107
tp108
Rp109
ag49
(g53
S'D\xcc>\xff\xe3\x8d\xed?'
p110
tp111
Rp112
ag49
(g53
S'\xc1\xb9]\x15\x0e\xe5\xec?'
p113
tp114
Rp115
ag49
(g53
S'\x01\x93\x96\x17\xf6 \xec?'
p116
tp117
Rp118
ag49
(g53
S'|\x86c\xae\xf6\x1c\xe9?'
p119
tp120
Rp121
ag49
(g53
S'\xbb\xb0\x0b\x9b)\x14\xd4?'
p122
tp123
Rp124
ag49
(g53
S'~\xba\xd4\x9f\xbb\x82\xe1?'
p125
tp126
Rp127
ag49
(g53
S'\x12\xc8\xff3\xce\xa6\xe6?'
p128
tp129
Rp130
ag49
(g53
S'\x12\xc8\xff3\xce\xa6\xe6?'
p131
tp132
Rp133
ag49
(g53
S'`k{\xf7L"\xe8?'
p134
tp135
Rp136
ag49
(g53
S'\xbb\xb0\x0b\x9b)\x14\xd4?'
p137
tp138
Rp139
ag49
(g53
S'\x0e\xbev\\"l\xe5?'
p140
tp141
Rp142
ag49
(g53
S'\x01\x93\x96\x17\xf6 \xec?'
p143
tp144
Rp145
ag49
(g53
S'/V\xfe1\x9d\x84\xe7?'
p146
tp147
Rp148
ag49
(g53
S'\x0e\xbev\\"l\xe5?'
p149
tp150
Rp151
ag49
(g53
S'\xc1\xb9]\x15\x0e\xe5\xec?'
p152
tp153
Rp154
ag49
(g53
S'|\x86c\xae\xf6\x1c\xe9?'
p155
tp156
Rp157
ag49
(g53
S'\x95\x91G\xad\xd5\xef\xec?'
p158
tp159
Rp160
ag49
(g53
S'\xc1\xb9]\x15\x0e\xe5\xec?'
p161
tp162
Rp163
ag49
(g53
S'/V\xfe1\x9d\x84\xe7?'
p164
tp165
Rp166
ag49
(g53
S'~\xba\xd4\x9f\xbb\x82\xe1?'
p167
tp168
Rp169
asS'sp'
p170
(lp171
(S'p0'
p172
I0
S'x'
p173
tp174
a(g172
I0
S'y'
p175
tp176
a(g172
I0
S't'
p177
tp178
a(g172
I0
g175
tp179
a(g172
I0
g175
tp180
ag178
a(g172
I0
g173
tp181
a(S'p1'
p182
I0
g173
tp183
a(g182
I0
g173
tp184
a(g182
I0
g175
tp185
a(g182
I0
g177
tp186
a(g182
F1.5707963267948966
g177
tp187
a(g182
F1.5707963267948966
g175
tp188
a(S'p2'
p189
F1.5707963267948966
g175
tp190
a(g189
F1.5707963267948966
g177
tp191
a(g189
F1.5707963267948966
g173
tp192
a(S'p3'
p193
F1.5707963267948966
g173
tp194
a(g193
F1.5707963267948966
g175
tp195
a(g189
F1.5707963267948966
g175
tp196
a(g189
F1.5707963267948966
g175
tp197
a(g189
F1.5707963267948966
g175
tp198
ag191
ag192
ag194
a(g193
F1.5707963267948966
g173
tp199
ag199
a(g193
F1.5707963267948966
g173
tp200
ag195
a(g193
F1.5707963267948966
g177
tp201
a(g193
F1.5707963267948966
g177
tp202
a(g193
F1.5707963267948966
g175
tp203
ag201
a(g193
F1.5707963267948966
g177
tp204
a(g193
F1.5707963267948966
g173
tp205
a(g193
F1.5707963267948966
g177
tp206
ag204
ag203
a(S'p4'
p207
F1.5707963267948966
g175
tp208
asS's'
p209
(lp210
(g172
I0
g22
tp211
ag174
ag176
ag178
ag179
ag180
ag178
ag181
ag183
ag184
ag185
ag186
ag187
ag188
ag190
ag191
ag192
ag194
ag195
ag196
ag197
ag198
ag191
ag192
ag194
ag199
ag199
ag200
ag195
ag201
ag202
ag203
ag201
ag204
ag205
ag206
ag204
ag203
asS'ui'
p212
(lp213
S'hs'
p214
aS'ss'
p215
aS'hp'
p216
ag216
ag170
ag170
ag216
ag216
ag215
ag170
ag216
ag170
ag214
ag170
ag216
ag216
ag170
ag216
ag170
ag215
ag215
ag216
ag216
ag170
ag216
ag170
ag216
ag216
ag216
ag214
ag214
ag216
ag214
ag216
ag216
ag215
ag214
ag170
asS'um_before'
p217
(lp218
g214
ag216
ag216
ag214
ag170
ag216
ag216
ag170
ag215
ag216
ag216
ag170
ag214
ag170
ag216
ag216
ag170
ag216
ag215
ag215
ag170
ag216
ag216
ag170
ag170
ag170
ag215
ag216
ag216
ag170
ag214
ag216
ag215
ag216
ag214
ag215
ag214
ag170
asS'um_after'
p219
(lp220
g214
ag216
ag216
ag214
ag170
ag216
ag216
ag170
ag215
ag216
ag216
ag170
ag214
ag170
ag216
ag216
ag170
ag216
ag215
ag215
ag170
ag216
ag216
ag170
ag170
ag170
ag215
ag216
ag216
ag170
ag214
ag216
ag215
ag216
ag214
ag215
ag214
ag170
asS'is_normalized_entropy_less_than_threshold'
p221
(lp222
g49
(g50
(S'b1'
p223
I0
I1
tp224
Rp225
(I3
S'|'
p226
NNNI-1
I-1
I0
tp227
bS'\x00'
p228
tp229
Rp230
ag230
ag230
ag230
ag230
ag230
ag49
(g225
S'\x01'
p231
tp232
Rp233
ag233
ag230
ag230
ag233
ag233
ag230
ag233
ag230
ag233
ag233
ag233
ag230
ag230
ag230
ag230
ag233
ag233
ag230
ag230
ag230
ag233
ag230
ag230
ag230
ag230
ag230
ag230
ag230
ag230
ag230
ag233
asaa(lp234
S'index'
p235
aI22319
aatp236
Rp237
.