ccollections
OrderedDict
p0
((lp1
(lp2
S'combination_dict'
p3
ag0
((lp4
(lp5
S'r_to_g_config'
p6
aS'bl'
p7
aa(lp8
S'num_turns'
p9
aI3
aa(lp10
S'start_direction'
p11
acutils_ms
StartDirection
p12
(I0
tp13
Rp14
aa(lp15
S'assistance_type'
p16
acutils_ms
AssistanceType
p17
(I2
tp18
Rp19
aa(lp20
S'start_mode'
p21
aS'y'
p22
aa(lp23
S'ui_given_a_noise'
p24
aF0.3
aa(lp25
S'um_given_ui_noise'
p26
aF0.7
aa(lp27
S'entropy_threshold'
p28
aF0.7
aatp29
Rp30
aa(lp31
S'data'
p32
accollections
defaultdict
p33
(c__builtin__
list
p34
tp35
Rp36
S'a'
p37
(lp38
S'mode_l'
p39
aS'move_n'
p40
aS'mode_r'
p41
ag41
ag41
ag41
ag39
ag41
ag39
ag39
ag39
ag40
ag39
ag40
ag41
ag39
ag40
ag40
ag41
ag39
ag41
ag41
ag40
ag39
ag40
ag40
ag39
ag41
ag39
ag40
ag39
ag39
ag40
ag41
ag39
ag39
ag40
ag41
ag40
ag39
ag40
ag39
ag40
ag41
ag40
ag39
ag40
ag41
ag40
ag39
ag40
ag39
ag41
ag40
ag41
ag39
ag40
ag41
ag40
ag39
ag39
ag39
aS'move_p'
p42
ag39
ag39
ag39
ag39
ag42
ag39
ag39
ag42
ag39
ag42
ag39
ag40
ag39
ag40
ag41
ag41
ag39
ag40
ag39
ag40
ag41
ag41
ag41
ag41
ag41
ag41
ag40
ag39
ag39
ag39
ag39
ag40
ag39
ag39
ag40
ag40
ag41
ag40
ag39
ag39
ag39
ag39
ag40
ag39
ag39
ag41
ag40
ag41
ag40
ag39
ag40
ag41
ag39
ag40
ag41
ag39
ag40
asS'assistance_match_with_ground_truth'
p43
(lp44
I01
aI01
aI00
aI00
aI00
aI00
aI00
aI00
aI00
aI00
aI01
aI00
aI01
aI00
aI00
aI01
aI00
aI01
aI00
aI00
aI00
aI01
aI00
aI01
aI00
aI00
aI00
aI00
aI01
aI00
aI00
aI01
aI01
aI00
aI00
aI01
aI00
aI01
aI00
aI01
aI01
aI01
aI00
aI01
aI00
aI01
aI00
aI01
aI00
aI01
aI01
aI00
aI01
aI00
aI00
aI01
aI00
aI01
aI01
aI00
aI00
aI01
aI00
aI00
aI00
aI00
aI01
aI00
aI00
aI01
aI00
aI01
aI01
aI01
aI00
aI01
aI00
aI00
aI00
aI01
aI00
aI01
aI00
aI00
aI00
aI00
aI00
aI00
aI01
aI00
aI00
aI00
aI00
aI01
aI00
aI00
aI01
aI00
aI01
aI01
aI00
aI00
aI00
aI00
aI01
aI00
aI00
aI00
aI01
aI01
aI01
aI01
aI01
aI01
aI00
aI01
aI00
aI00
aI01
aI01
asS'is_u_intended_equals_um'
p45
(lp46
I00
aI00
aI00
aI00
aI00
aI00
aI00
aI00
aI00
aI00
aI00
aI00
aI00
aI00
aI00
aI00
aI00
aI00
aI00
aI00
aI00
aI00
aI00
aI00
aI00
aI00
aI00
aI00
aI00
aI00
aI00
aI00
aI00
aI00
aI00
aI00
aI00
aI00
aI00
aI00
aI00
aI00
aI00
aI00
aI00
aI00
aI00
aI00
aI00
aI00
aI00
aI00
aI00
aI00
aI00
aI00
aI00
aI00
aI00
aI00
aI00
aI00
aI00
aI00
aI00
aI00
aI00
aI00
aI00
aI00
aI00
aI00
aI00
aI00
aI00
aI00
aI00
aI00
aI00
aI00
aI00
aI00
aI00
aI00
aI00
aI00
aI00
aI00
aI00
aI00
aI00
aI00
aI00
aI00
aI00
aI00
aI00
aI00
aI00
aI00
aI00
aI00
aI00
aI00
aI00
aI00
aI00
aI00
aI00
aI00
aI00
aI00
aI00
aI00
aI00
aI00
aI00
aI00
aI00
aI00
asS'total_steps'
p47
I120
sS'normalized_h_of_p_ui_given_um'
p48
(lp49
cnumpy.core.multiarray
scalar
p50
(cnumpy
dtype
p51
(S'f8'
p52
I0
I1
tp53
Rp54
(I3
S'<'
p55
NNNI-1
I-1
I0
tp56
bS'H\x9e\xe3))\xf0\xde?'
p57
tp58
Rp59
ag59
ag59
ag59
ag59
ag59
ag59
ag59
ag59
ag59
ag59
ag59
ag59
ag59
ag59
ag59
ag59
ag59
ag59
ag59
ag59
ag59
ag59
ag59
ag59
ag59
ag59
ag59
ag59
ag59
ag59
ag59
ag59
ag59
ag59
ag59
ag59
ag59
ag59
ag59
ag59
ag59
ag59
ag59
ag59
ag59
ag59
ag59
ag59
ag59
ag59
ag59
ag59
ag59
ag59
ag59
ag59
ag59
ag59
ag59
ag59
ag59
ag59
ag59
ag59
ag59
ag59
ag59
ag59
ag59
ag59
ag59
ag59
ag59
ag59
ag59
ag59
ag59
ag59
ag59
ag59
ag59
ag59
ag59
ag59
ag59
ag59
ag59
ag59
ag59
ag59
ag59
ag59
ag59
ag59
ag59
ag59
ag59
ag59
ag59
ag59
ag59
ag59
ag59
ag59
ag59
ag59
ag59
ag59
ag59
ag59
ag59
ag59
ag59
ag59
ag59
ag59
ag59
ag59
ag59
asS'sp'
p60
(lp61
(S'p0'
p62
I0
S'x'
p63
tp64
a(S'p1'
p65
I0
g63
tp66
a(g65
I0
g63
tp67
a(g65
I0
g63
tp68
ag67
a(g65
I0
S't'
p69
tp70
a(g65
I0
g63
tp71
ag70
a(g65
I0
g69
tp72
ag72
a(g65
I0
S'y'
p73
tp74
a(g62
I0
g73
tp75
ag64
a(g62
I0
g69
tp76
a(g62
I0
g73
tp77
ag64
a(g62
I0
g63
tp78
ag66
ag70
ag71
ag67
a(g65
I0
g73
tp79
ag75
ag64
ag78
a(g62
I0
g73
tp80
a(g62
I0
g69
tp81
ag77
ag64
ag80
a(g62
I0
g73
tp82
ag64
ag66
ag70
a(g65
I0
g69
tp83
ag74
a(g65
I0
g63
tp84
ag79
a(g65
I0
g69
tp85
ag74
a(S'p2'
p86
I0
g73
tp87
a(g86
I0
g63
tp88
a(g65
I0
g63
tp89
ag79
ag85
ag74
ag84
ag79
ag85
ag74
ag87
a(g86
I0
g69
tp90
a(g86
I0
g63
tp91
a(g86
I0
g69
tp92
a(g86
I0
g73
tp93
ag88
ag92
ag91
a(S'p3'
p94
I0
g63
tp95
a(g94
I0
g63
tp96
ag96
a(g94
I0
g69
tp97
a(g94
I0
g63
tp98
a(g94
I0
g63
tp99
ag99
ag96
ag97
ag98
ag99
ag97
ag98
ag97
a(g94
F1.5707963267948966
g69
tp100
a(g94
F1.5707963267948966
g73
tp101
a(g94
F1.5707963267948966
g69
tp102
ag101
a(g94
F1.5707963267948966
g63
tp103
a(g94
F1.5707963267948966
g63
tp104
a(g94
F1.5707963267948966
g69
tp105
ag101
a(g86
F1.5707963267948966
g73
tp106
a(g86
F1.5707963267948966
g63
tp107
a(g65
F1.5707963267948966
g63
tp108
a(g65
F1.5707963267948966
g63
tp109
ag109
a(g65
F1.5707963267948966
g63
tp110
ag110
ag109
a(g65
F1.5707963267948966
g73
tp111
a(g65
F1.5707963267948966
g69
tp112
a(g65
F1.5707963267948966
g69
tp113
a(g65
F1.5707963267948966
g69
tp114
ag113
a(g65
F1.5707963267948966
g73
tp115
a(g62
F1.5707963267948966
g73
tp116
a(g62
F1.5707963267948966
g73
tp117
a(g62
F1.5707963267948966
g63
tp118
a(g62
F1.5707963267948966
g63
tp119
a(g65
F1.5707963267948966
g63
tp120
ag111
ag116
a(g62
F1.5707963267948966
g73
tp121
ag117
ag121
ag118
a(g62
F1.5707963267948966
g73
tp122
ag117
a(g62
F1.5707963267948966
g69
tp123
a(g62
F1.5707963267948966
g63
tp124
ag120
ag111
a(g86
F1.5707963267948966
g73
tp125
ag107
a(g94
F1.5707963267948966
g63
tp126
ag105
ag101
ag103
ag105
ag101
a(S'p4'
p127
F1.5707963267948966
g73
tp128
asS's'
p129
(lp130
(g62
I0
g22
tp131
ag64
ag66
ag67
ag68
ag67
ag70
ag71
ag70
ag72
ag72
ag74
ag75
ag64
ag76
ag77
ag64
ag78
ag66
ag70
ag71
ag67
ag79
ag75
ag64
ag78
ag80
ag81
ag77
ag64
ag80
ag82
ag64
ag66
ag70
ag83
ag74
ag84
ag79
ag85
ag74
ag87
ag88
ag89
ag79
ag85
ag74
ag84
ag79
ag85
ag74
ag87
ag90
ag91
ag92
ag93
ag88
ag92
ag91
ag95
ag96
ag96
ag97
ag98
ag99
ag99
ag96
ag97
ag98
ag99
ag97
ag98
ag97
ag100
ag101
ag102
ag101
ag103
ag104
ag105
ag101
ag106
ag107
ag108
ag109
ag109
ag110
ag110
ag109
ag111
ag112
ag113
ag114
ag113
ag115
ag116
ag117
ag118
ag119
ag120
ag111
ag116
ag121
ag117
ag121
ag118
ag122
ag117
ag123
ag124
ag120
ag111
ag125
ag107
ag126
ag105
ag101
ag103
ag105
ag101
asS'ui'
p132
(lp133
S'hs'
p134
aS'ss'
p135
ag135
ag135
aS'hp'
p136
ag136
ag136
ag134
ag134
ag134
ag134
ag135
ag134
ag135
ag135
ag60
ag60
ag135
ag136
ag136
ag136
ag136
ag135
ag134
ag135
ag135
ag136
ag134
ag135
ag135
ag134
ag134
ag134
ag134
ag60
ag60
ag135
ag136
ag135
ag134
ag135
ag134
ag136
ag136
ag135
ag134
ag134
ag135
ag135
ag134
ag135
ag134
ag136
ag135
ag134
ag134
ag135
ag136
ag135
ag134
ag134
ag134
ag60
ag134
ag134
ag134
ag134
ag60
ag136
ag134
ag135
ag134
ag60
ag134
ag135
ag135
ag135
ag136
ag134
ag134
ag135
ag134
ag135
ag60
ag135
ag136
ag136
ag135
ag136
ag135
ag60
ag134
ag135
ag134
ag135
ag134
ag134
ag135
ag135
ag136
ag60
ag136
ag60
ag136
ag134
ag60
ag134
ag136
ag136
ag135
ag136
ag135
ag134
ag134
ag134
ag134
ag136
ag134
ag135
ag135
asS'um_before'
p137
(lp138
g134
ag135
ag60
ag135
ag60
ag134
ag136
ag134
ag135
ag135
ag134
ag60
ag134
ag134
ag134
ag134
ag60
ag135
ag134
ag136
ag60
ag136
ag60
ag134
ag60
ag136
ag136
ag134
ag134
ag136
ag60
ag134
ag135
ag134
ag60
ag134
ag134
ag136
ag136
ag134
ag135
ag134
ag60
ag136
ag136
ag134
ag134
ag136
ag136
ag134
ag135
ag136
ag136
ag134
ag134
ag134
ag134
ag136
ag135
ag135
ag135
ag134
ag136
ag60
ag60
ag135
ag134
ag136
ag60
ag134
ag136
ag134
ag60
ag134
ag136
ag134
ag134
ag60
ag134
ag134
ag60
ag134
ag60
ag135
ag135
ag60
ag60
ag135
ag136
ag136
ag60
ag135
ag60
ag134
ag60
ag135
ag134
ag60
ag135
ag136
ag60
ag60
ag135
ag60
ag134
ag136
ag135
ag136
ag136
ag135
ag136
ag135
ag134
ag135
ag134
ag134
ag134
ag134
ag134
ag135
asS'um_after'
p139
(lp140
g134
ag135
ag60
ag135
ag60
ag134
ag136
ag134
ag135
ag135
ag134
ag60
ag134
ag134
ag134
ag134
ag60
ag135
ag134
ag136
ag60
ag136
ag60
ag134
ag60
ag136
ag136
ag134
ag134
ag136
ag60
ag134
ag135
ag134
ag60
ag134
ag134
ag136
ag136
ag134
ag135
ag134
ag60
ag136
ag136
ag134
ag134
ag136
ag136
ag134
ag135
ag136
ag136
ag134
ag134
ag134
ag134
ag136
ag135
ag135
ag135
ag134
ag136
ag60
ag60
ag135
ag134
ag136
ag60
ag134
ag136
ag134
ag60
ag134
ag136
ag134
ag134
ag60
ag134
ag134
ag60
ag134
ag60
ag135
ag135
ag60
ag60
ag135
ag136
ag136
ag60
ag135
ag60
ag134
ag60
ag135
ag134
ag60
ag135
ag136
ag60
ag60
ag135
ag60
ag134
ag136
ag135
ag136
ag136
ag135
ag136
ag135
ag134
ag135
ag134
ag134
ag134
ag134
ag134
ag135
asS'is_normalized_entropy_less_than_threshold'
p141
(lp142
g50
(g51
(S'b1'
p143
I0
I1
tp144
Rp145
(I3
S'|'
p146
NNNI-1
I-1
I0
tp147
bS'\x01'
p148
tp149
Rp150
ag150
ag150
ag150
ag150
ag150
ag150
ag150
ag150
ag150
ag150
ag150
ag150
ag150
ag150
ag150
ag150
ag150
ag150
ag150
ag150
ag150
ag150
ag150
ag150
ag150
ag150
ag150
ag150
ag150
ag150
ag150
ag150
ag150
ag150
ag150
ag150
ag150
ag150
ag150
ag150
ag150
ag150
ag150
ag150
ag150
ag150
ag150
ag150
ag150
ag150
ag150
ag150
ag150
ag150
ag150
ag150
ag150
ag150
ag150
ag150
ag150
ag150
ag150
ag150
ag150
ag150
ag150
ag150
ag150
ag150
ag150
ag150
ag150
ag150
ag150
ag150
ag150
ag150
ag150
ag150
ag150
ag150
ag150
ag150
ag150
ag150
ag150
ag150
ag150
ag150
ag150
ag150
ag150
ag150
ag150
ag150
ag150
ag150
ag150
ag150
ag150
ag150
ag150
ag150
ag150
ag150
ag150
ag150
ag150
ag150
ag150
ag150
ag150
ag150
ag150
ag150
ag150
ag150
ag150
asaa(lp151
S'index'
p152
aI81178
aatp153
Rp154
.