ccollections
OrderedDict
p0
((lp1
(lp2
S'combination_dict'
p3
ag0
((lp4
(lp5
S'r_to_g_config'
p6
aS'bl'
p7
aa(lp8
S'num_turns'
p9
aI1
aa(lp10
S'start_direction'
p11
acutils_ms
StartDirection
p12
(I0
tp13
Rp14
aa(lp15
S'assistance_type'
p16
acutils_ms
AssistanceType
p17
(I0
tp18
Rp19
aa(lp20
S'start_mode'
p21
aS't'
p22
aa(lp23
S'ui_given_a_noise'
p24
aF0.7
aa(lp25
S'um_given_ui_noise'
p26
aF0.5
aa(lp27
S'entropy_threshold'
p28
aF0.9
aatp29
Rp30
aa(lp31
S'data'
p32
accollections
defaultdict
p33
(c__builtin__
list
p34
tp35
Rp36
S'a'
p37
(lp38
S'mode_r'
p39
ag39
ag39
aS'move_n'
p40
ag40
ag40
ag40
ag40
aS'mode_l'
p41
aS'move_p'
p42
ag42
ag41
ag41
ag40
asS'assistance_match_with_ground_truth'
p43
(lp44
I00
aI00
aI01
aI00
aI00
aI00
aI00
aI01
aI01
aI00
aI01
aI00
aI01
aI01
asS'is_u_intended_equals_um'
p45
(lp46
I00
aI01
aI01
aI00
aI00
aI00
aI00
aI01
aI01
aI01
aI01
aI01
aI01
aI01
asS'total_steps'
p47
I14
sS'normalized_h_of_p_ui_given_um'
p48
(lp49
cnumpy.core.multiarray
scalar
p50
(cnumpy
dtype
p51
(S'f8'
p52
I0
I1
tp53
Rp54
(I3
S'<'
p55
NNNI-1
I-1
I0
tp56
bS'\x05@\x13*\xaa\xf8\xed?'
p57
tp58
Rp59
ag50
(g54
S'\x8et\xff\x164\x0f\xe6?'
p60
tp61
Rp62
ag50
(g54
S'\x05G\x0c\x00\x8dF\xd2?'
p63
tp64
Rp65
ag50
(g54
S'\xa8}s\x8a\xa2\xb6\xe1?'
p66
tp67
Rp68
ag50
(g54
S'\xa8}s\x8a\xa2\xb6\xe1?'
p69
tp70
Rp71
ag50
(g54
S'\x00:3\xe0\x14\xf5\xe9?'
p72
tp73
Rp74
ag50
(g54
S'\xa8}s\x8a\xa2\xb6\xe1?'
p75
tp76
Rp77
ag50
(g54
S'\xf3\xb4(\xb8\xd5$\xcc?'
p78
tp79
Rp80
ag50
(g54
S'\x8e&_E\xec\xc9\xdd?'
p81
tp82
Rp83
ag50
(g54
S'L$\xc4T\xb2;\xe0?'
p84
tp85
Rp86
ag50
(g54
S'8\x12\xe4\x91<\xf3\xd2?'
p87
tp88
Rp89
ag50
(g54
S'\xf0\x87%66\x85\xe3?'
p90
tp91
Rp92
ag50
(g54
S'\x8e&_E\xec\xc9\xdd?'
p93
tp94
Rp95
ag50
(g54
S'\xf3\xb4(\xb8\xd5$\xcc?'
p96
tp97
Rp98
asS'sp'
p99
(lp100
(S'p0'
p101
I0
S't'
p102
tp103
a(g101
I0
g102
tp104
a(g101
I0
S'x'
p105
tp106
ag106
ag106
ag106
ag106
a(S'p1'
p107
I0
g105
tp108
a(g107
I0
g102
tp109
a(g107
I0
g102
tp110
a(g107
F1.5707963267948966
g102
tp111
a(g107
F1.5707963267948966
g102
tp112
a(g107
F1.5707963267948966
S'y'
p113
tp114
a(S'p2'
p115
F1.5707963267948966
g113
tp116
asS's'
p117
(lp118
(g101
I0
g22
tp119
ag103
ag104
ag106
ag106
ag106
ag106
ag106
ag108
ag109
ag110
ag111
ag112
ag114
asS'ui'
p120
(lp121
S'hp'
p122
ag99
ag122
aS'ss'
p123
ag123
ag123
aS'hs'
p124
ag124
ag124
ag123
ag99
ag99
ag123
ag123
asS'um_before'
p125
(lp126
g123
ag99
ag122
ag122
ag122
ag99
ag122
ag123
ag124
ag123
ag99
ag99
ag124
ag123
asS'um_after'
p127
(lp128
g123
ag99
ag122
aNaNaNaNag123
ag124
ag123
ag99
ag99
ag124
ag123
asS'is_normalized_entropy_less_than_threshold'
p129
(lp130
g50
(g51
(S'b1'
p131
I0
I1
tp132
Rp133
(I3
S'|'
p134
NNNI-1
I-1
I0
tp135
bS'\x00'
p136
tp137
Rp138
ag50
(g133
S'\x01'
p139
tp140
Rp141
ag141
ag141
ag141
ag141
ag141
ag141
ag141
ag141
ag141
ag141
ag141
ag141
asaa(lp142
S'index'
p143
aI58343
aatp144
Rp145
.