ccollections
OrderedDict
p0
((lp1
(lp2
S'combination_dict'
p3
ag0
((lp4
(lp5
S'r_to_g_config'
p6
aS'br'
p7
aa(lp8
S'num_turns'
p9
aI2
aa(lp10
S'start_direction'
p11
acutils_ms
StartDirection
p12
(I1
tp13
Rp14
aa(lp15
S'assistance_type'
p16
acutils_ms
AssistanceType
p17
(I1
tp18
Rp19
aa(lp20
S'start_mode'
p21
aS'x'
p22
aa(lp23
S'ui_given_a_noise'
p24
aF0.7
aa(lp25
S'um_given_ui_noise'
p26
aF0.3
aa(lp27
S'entropy_threshold'
p28
aF0.9
aatp29
Rp30
aa(lp31
S'data'
p32
accollections
defaultdict
p33
(c__builtin__
list
p34
tp35
Rp36
S'a'
p37
(lp38
S'mode_r'
p39
aS'move_n'
p40
aS'mode_l'
p41
ag41
ag41
ag40
ag41
ag40
ag41
aS'move_p'
p42
ag39
ag41
ag41
ag39
ag40
ag41
ag40
ag39
ag41
ag41
ag39
ag40
ag39
ag40
ag41
ag39
ag41
ag42
ag41
ag41
ag42
ag39
ag41
ag41
ag40
ag39
ag41
ag39
ag41
ag40
ag39
ag41
ag40
ag41
ag41
ag42
ag39
ag41
ag39
ag39
ag41
ag40
ag39
ag40
ag39
ag40
ag41
ag41
ag40
ag41
ag42
ag39
ag39
ag39
ag39
ag40
ag39
ag40
ag41
ag41
ag39
ag39
ag41
ag40
ag41
ag40
ag41
ag41
ag39
ag42
ag41
ag42
ag41
ag41
ag42
ag42
ag41
ag39
ag39
ag40
ag41
ag39
ag40
asS'assistance_match_with_ground_truth'
p43
(lp44
I01
aI00
aI00
aI00
aI01
aI00
aI01
aI01
aI01
aI00
aI00
aI00
aI00
aI01
aI00
aI01
aI00
aI00
aI00
aI00
aI01
aI00
aI01
aI01
aI00
aI00
aI01
aI00
aI00
aI01
aI00
aI00
aI00
aI01
aI00
aI00
aI00
aI00
aI01
aI00
aI00
aI01
aI01
aI00
aI01
aI00
aI00
aI00
aI00
aI00
aI01
aI00
aI01
aI00
aI01
aI00
aI00
aI01
aI01
aI01
aI00
aI00
aI00
aI00
aI01
aI00
aI01
aI00
aI00
aI00
aI00
aI00
aI01
aI00
aI01
aI01
aI00
aI00
aI01
aI01
aI01
aI00
aI00
aI01
aI00
aI01
aI00
aI00
aI01
aI00
aI00
aI01
aI01
asS'is_u_intended_equals_um'
p45
(lp46
I01
aI01
aI01
aI01
aI00
aI01
aI01
aI00
aI01
aI01
aI01
aI01
aI01
aI01
aI01
aI01
aI01
aI01
aI01
aI01
aI01
aI01
aI01
aI01
aI01
aI01
aI01
aI01
aI01
aI01
aI01
aI01
aI01
aI01
aI01
aI01
aI01
aI01
aI01
aI01
aI01
aI01
aI01
aI01
aI00
aI01
aI01
aI01
aI01
aI01
aI01
aI01
aI01
aI01
aI01
aI01
aI01
aI01
aI01
aI01
aI01
aI01
aI01
aI01
aI01
aI01
aI01
aI01
aI01
aI01
aI01
aI01
aI01
aI01
aI01
aI00
aI01
aI01
aI01
aI01
aI01
aI01
aI01
aI01
aI01
aI01
aI01
aI01
aI01
aI01
aI01
aI01
aI01
asS'total_steps'
p47
I93
sS'normalized_h_of_p_ui_given_um'
p48
(lp49
cnumpy.core.multiarray
scalar
p50
(cnumpy
dtype
p51
(S'f8'
p52
I0
I1
tp53
Rp54
(I3
S'<'
p55
NNNI-1
I-1
I0
tp56
bS'\x86P\xba\x1dn?\xdd?'
p57
tp58
Rp59
ag50
(g54
S' \xfd\xa4\x1f\xa6\xba\xe1?'
p60
tp61
Rp62
ag50
(g54
S'\xf1t0u*\xe1\xca?'
p63
tp64
Rp65
ag50
(g54
S'\xf1t0u*\xe1\xca?'
p66
tp67
Rp68
ag50
(g54
S'\xae\xde\xff\x9d\xac\xee\xe6?'
p69
tp70
Rp71
ag50
(g54
S' \xfd\xa4\x1f\xa6\xba\xe1?'
p72
tp73
Rp74
ag50
(g54
S'`\xb3\x1ac\xdb+\xd8?'
p75
tp76
Rp77
ag50
(g54
S'W\xeb(\x85\xa0\xe0\xe4?'
p78
tp79
Rp80
ag50
(g54
S'`\xb3\x1ac\xdb+\xd8?'
p81
tp82
Rp83
ag50
(g54
S'w\xaeA\r\xb8{\xd9?'
p84
tp85
Rp86
ag50
(g54
S'\x9c\xfe<AWA\xe5?'
p87
tp88
Rp89
ag50
(g54
S'\xf1t0u*\xe1\xca?'
p90
tp91
Rp92
ag50
(g54
S'\xef>D\xef\xbc(\xe7?'
p93
tp94
Rp95
ag50
(g54
S'\x86P\xba\x1dn?\xdd?'
p96
tp97
Rp98
ag50
(g54
S' \xfd\xa4\x1f\xa6\xba\xe1?'
p99
tp100
Rp101
ag50
(g54
S'`\xb3\x1ac\xdb+\xd8?'
p102
tp103
Rp104
ag50
(g54
S'\xd8\x90\x94\xa3\x95\xd5\xe4?'
p105
tp106
Rp107
ag50
(g54
S'\x9c\xfe<AWA\xe5?'
p108
tp109
Rp110
ag50
(g54
S'\xf1t0u*\xe1\xca?'
p111
tp112
Rp113
ag50
(g54
S'\xef>D\xef\xbc(\xe7?'
p114
tp115
Rp116
ag50
(g54
S'\x86P\xba\x1dn?\xdd?'
p117
tp118
Rp119
ag50
(g54
S'\xd8\x90\x94\xa3\x95\xd5\xe4?'
p120
tp121
Rp122
ag50
(g54
S'\x86P\xba\x1dn?\xdd?'
p123
tp124
Rp125
ag50
(g54
S'r\xe7q2\xfe6\xd4?'
p126
tp127
Rp128
ag50
(g54
S'\xef>D\xef\xbc(\xe7?'
p129
tp130
Rp131
ag50
(g54
S'\x9c\xfe<AWA\xe5?'
p132
tp133
Rp134
ag50
(g54
S'`\xb3\x1ac\xdb+\xd8?'
p135
tp136
Rp137
ag50
(g54
S':\xde\xac\xed^\xc4\xe7?'
p138
tp139
Rp140
ag50
(g54
S'\xf1t0u*\xe1\xca?'
p141
tp142
Rp143
ag50
(g54
S'`\xb3\x1ac\xdb+\xd8?'
p144
tp145
Rp146
ag50
(g54
S'w\xaeA\r\xb8{\xd9?'
p147
tp148
Rp149
ag50
(g54
S'\x9c\xfe<AWA\xe5?'
p150
tp151
Rp152
ag50
(g54
S'\xf1t0u*\xe1\xca?'
p153
tp154
Rp155
ag50
(g54
S'`\xb3\x1ac\xdb+\xd8?'
p156
tp157
Rp158
ag50
(g54
S'\xd8\x90\x94\xa3\x95\xd5\xe4?'
p159
tp160
Rp161
ag50
(g54
S'\x9c\xfe<AWA\xe5?'
p162
tp163
Rp164
ag50
(g54
S'\xef>D\xef\xbc(\xe7?'
p165
tp166
Rp167
ag50
(g54
S'\x9c\xfe<AWA\xe5?'
p168
tp169
Rp170
ag50
(g54
S'`\xb3\x1ac\xdb+\xd8?'
p171
tp172
Rp173
ag50
(g54
S'\xd8\x90\x94\xa3\x95\xd5\xe4?'
p174
tp175
Rp176
ag50
(g54
S'\x9c\xfe<AWA\xe5?'
p177
tp178
Rp179
ag50
(g54
S'`\xb3\x1ac\xdb+\xd8?'
p180
tp181
Rp182
ag50
(g54
S'r\xe7q2\xfe6\xd4?'
p183
tp184
Rp185
ag50
(g54
S'\xf1t0u*\xe1\xca?'
p186
tp187
Rp188
ag50
(g54
S'\xae\xde\xff\x9d\xac\xee\xe6?'
p189
tp190
Rp191
ag50
(g54
S'w\xaeA\r\xb8{\xd9?'
p192
tp193
Rp194
ag50
(g54
S'\x9c\xfe<AWA\xe5?'
p195
tp196
Rp197
ag50
(g54
S'\xef>D\xef\xbc(\xe7?'
p198
tp199
Rp200
ag50
(g54
S'1\x08E&c\xca\xe3?'
p201
tp202
Rp203
ag50
(g54
S'\x9c\xfe<AWA\xe5?'
p204
tp205
Rp206
ag50
(g54
S'`\xb3\x1ac\xdb+\xd8?'
p207
tp208
Rp209
ag50
(g54
S'\xd8\x90\x94\xa3\x95\xd5\xe4?'
p210
tp211
Rp212
ag50
(g54
S'\x86P\xba\x1dn?\xdd?'
p213
tp214
Rp215
ag50
(g54
S'\xd8\x90\x94\xa3\x95\xd5\xe4?'
p216
tp217
Rp218
ag50
(g54
S'\x86P\xba\x1dn?\xdd?'
p219
tp220
Rp221
ag50
(g54
S' \xfd\xa4\x1f\xa6\xba\xe1?'
p222
tp223
Rp224
ag50
(g54
S'\xf1t0u*\xe1\xca?'
p225
tp226
Rp227
ag50
(g54
S'`\xb3\x1ac\xdb+\xd8?'
p228
tp229
Rp230
ag50
(g54
S'r\xe7q2\xfe6\xd4?'
p231
tp232
Rp233
ag50
(g54
S'`\xb3\x1ac\xdb+\xd8?'
p234
tp235
Rp236
ag50
(g54
S'w\xaeA\r\xb8{\xd9?'
p237
tp238
Rp239
ag50
(g54
S'1\x08E&c\xca\xe3?'
p240
tp241
Rp242
ag50
(g54
S'\xc6#<\x7f\xd2\x1d\xe0?'
p243
tp244
Rp245
ag50
(g54
S'\xc6#<\x7f\xd2\x1d\xe0?'
p246
tp247
Rp248
ag50
(g54
S'\x86P\xba\x1dn?\xdd?'
p249
tp250
Rp251
ag50
(g54
S'\xd8\x90\x94\xa3\x95\xd5\xe4?'
p252
tp253
Rp254
ag50
(g54
S'\x86P\xba\x1dn?\xdd?'
p255
tp256
Rp257
ag50
(g54
S' \xfd\xa4\x1f\xa6\xba\xe1?'
p258
tp259
Rp260
ag50
(g54
S'\xf1t0u*\xe1\xca?'
p261
tp262
Rp263
ag50
(g54
S'\xef>D\xef\xbc(\xe7?'
p264
tp265
Rp266
ag50
(g54
S'\xc6#<\x7f\xd2\x1d\xe0?'
p267
tp268
Rp269
ag50
(g54
S'\x9c\xfe<AWA\xe5?'
p270
tp271
Rp272
ag50
(g54
S'`\xb3\x1ac\xdb+\xd8?'
p273
tp274
Rp275
ag50
(g54
S' \xfd\xa4\x1f\xa6\xba\xe1?'
p276
tp277
Rp278
ag50
(g54
S'`\xb3\x1ac\xdb+\xd8?'
p279
tp280
Rp281
ag50
(g54
S'W\xeb(\x85\xa0\xe0\xe4?'
p282
tp283
Rp284
ag50
(g54
S'\xf1t0u*\xe1\xca?'
p285
tp286
Rp287
ag50
(g54
S'\xef>D\xef\xbc(\xe7?'
p288
tp289
Rp290
ag50
(g54
S'\x86P\xba\x1dn?\xdd?'
p291
tp292
Rp293
ag50
(g54
S'\xa0 \x14O\xd8T\xd2?'
p294
tp295
Rp296
ag50
(g54
S'`\xb3\x1ac\xdb+\xd8?'
p297
tp298
Rp299
ag50
(g54
S':\xde\xac\xed^\xc4\xe7?'
p300
tp301
Rp302
ag50
(g54
S'\xf1t0u*\xe1\xca?'
p303
tp304
Rp305
ag50
(g54
S'`\xb3\x1ac\xdb+\xd8?'
p306
tp307
Rp308
ag50
(g54
S'w\xaeA\r\xb8{\xd9?'
p309
tp310
Rp311
ag50
(g54
S'\xa0 \x14O\xd8T\xd2?'
p312
tp313
Rp314
ag50
(g54
S'\xef>D\xef\xbc(\xe7?'
p315
tp316
Rp317
ag50
(g54
S'\xc6#<\x7f\xd2\x1d\xe0?'
p318
tp319
Rp320
ag50
(g54
S'\x86P\xba\x1dn?\xdd?'
p321
tp322
Rp323
ag50
(g54
S' \xfd\xa4\x1f\xa6\xba\xe1?'
p324
tp325
Rp326
ag50
(g54
S'\xef>D\xef\xbc(\xe7?'
p327
tp328
Rp329
ag50
(g54
S'\x86P\xba\x1dn?\xdd?'
p330
tp331
Rp332
ag50
(g54
S'r\xe7q2\xfe6\xd4?'
p333
tp334
Rp335
asS'sp'
p336
(lp337
(S'p0'
p338
I0
S'y'
p339
tp340
a(g338
I0
S't'
p341
tp342
a(g338
I0
g341
tp343
ag343
a(g338
I0
g339
tp344
ag342
ag344
a(S'p1'
p345
I0
g339
tp346
a(g345
I0
S'x'
p347
tp348
a(g338
I0
g347
tp349
a(g338
I0
g341
tp350
ag343
a(g338
I0
g347
tp351
ag340
ag342
ag344
a(g338
I0
g347
tp352
ag350
ag343
ag351
ag340
ag352
ag340
ag346
a(g345
I0
g341
tp353
a(g345
I0
g339
tp354
ag348
a(g345
I0
g339
tp355
a(g345
I0
g339
tp356
ag348
ag349
ag350
ag343
ag344
ag352
ag350
ag351
ag350
ag344
ag352
ag350
ag344
ag346
ag356
ag348
ag349
ag350
ag351
a(g338
I0
g347
tp357
ag350
ag344
ag352
ag340
ag352
ag340
ag342
ag343
ag344
ag346
ag348
ag349
ag357
a(g338
I0
g347
tp358
ag358
ag340
ag352
ag340
ag342
ag343
ag351
ag358
ag350
ag344
ag342
ag344
ag346
ag356
ag353
a(g345
I0
g347
tp359
a(S'p2'
p360
I0
g347
tp361
a(g360
I0
g341
tp362
a(g360
I0
g347
tp363
a(g360
I0
g347
tp364
ag362
a(g360
I0
g341
tp365
a(g360
F1.5707963267948966
g341
tp366
a(g360
F1.5707963267948966
g347
tp367
a(g360
F1.5707963267948966
g347
tp368
a(g360
F1.5707963267948966
g339
tp369
a(g360
F1.5707963267948966
g341
tp370
ag367
ag369
a(S'p3'
p371
F1.5707963267948966
g339
tp372
asS's'
p373
(lp374
(g338
I0
g22
tp375
ag340
ag342
ag343
ag343
ag344
ag342
ag344
ag346
ag348
ag349
ag350
ag343
ag351
ag340
ag342
ag344
ag352
ag350
ag343
ag351
ag340
ag352
ag340
ag346
ag353
ag354
ag348
ag355
ag356
ag348
ag349
ag350
ag343
ag344
ag352
ag350
ag351
ag350
ag344
ag352
ag350
ag344
ag346
ag356
ag348
ag349
ag350
ag351
ag357
ag350
ag344
ag352
ag340
ag352
ag340
ag342
ag343
ag344
ag346
ag348
ag349
ag357
ag358
ag358
ag340
ag352
ag340
ag342
ag343
ag351
ag358
ag350
ag344
ag342
ag344
ag346
ag356
ag353
ag359
ag361
ag362
ag363
ag364
ag362
ag365
ag366
ag367
ag368
ag369
ag370
ag367
ag369
asS'ui'
p376
(lp377
S'hp'
p378
aS'hs'
p379
ag336
ag336
ag379
ag378
ag379
ag378
ag379
aS'ss'
p380
ag379
ag336
ag379
ag336
ag336
ag379
ag380
ag379
ag336
ag336
ag380
ag336
ag378
ag380
ag379
ag336
ag379
ag336
ag336
ag379
ag380
ag336
ag336
ag379
ag380
ag379
ag379
ag379
ag336
ag379
ag379
ag379
ag380
ag336
ag379
ag380
ag378
ag378
ag380
ag379
ag379
ag380
ag378
ag380
ag378
ag378
ag336
ag379
ag380
ag379
ag380
ag336
ag380
ag380
ag380
ag380
ag378
ag378
ag336
ag378
ag380
ag379
ag379
ag379
ag379
ag336
ag336
ag378
ag378
ag336
ag379
ag378
ag336
ag379
ag380
ag336
ag378
ag379
ag378
ag378
ag378
ag378
ag380
asS'um_before'
p381
(lp382
g378
ag378
ag336
ag336
ag380
ag378
ag379
ag336
ag379
ag380
ag379
ag336
ag378
ag378
ag378
ag379
ag379
ag379
ag336
ag378
ag378
ag379
ag378
ag380
ag378
ag379
ag379
ag378
ag336
ag379
ag380
ag379
ag336
ag379
ag379
ag379
ag378
ag379
ag379
ag379
ag379
ag379
ag380
ag336
ag380
ag380
ag379
ag378
ag336
ag379
ag379
ag379
ag378
ag379
ag378
ag378
ag336
ag379
ag380
ag379
ag380
ag336
ag380
ag380
ag378
ag379
ag378
ag378
ag336
ag378
ag380
ag379
ag379
ag378
ag379
ag336
ag336
ag378
ag378
ag336
ag379
ag378
ag336
ag379
ag380
ag336
ag378
ag380
ag378
ag378
ag378
ag378
ag380
asS'um_after'
p383
(lp384
g378
ag378
ag336
ag336
ag379
ag378
ag379
ag380
ag379
ag380
ag379
ag336
ag378
ag378
ag378
ag379
ag379
ag379
ag336
ag378
ag378
ag379
ag378
ag380
ag378
ag379
ag379
ag378
ag336
ag379
ag380
ag379
ag336
ag379
ag379
ag379
ag378
ag379
ag379
ag379
ag379
ag379
ag380
ag336
ag379
ag380
ag379
ag378
ag336
ag379
ag379
ag379
ag378
ag379
ag378
ag378
ag336
ag379
ag380
ag379
ag380
ag336
ag380
ag380
ag378
ag379
ag378
ag378
ag336
ag378
ag380
ag379
ag379
ag378
ag379
ag380
ag336
ag378
ag378
ag336
ag379
ag378
ag336
ag379
ag380
ag336
ag378
ag380
ag378
ag378
ag378
ag378
ag380
asS'is_normalized_entropy_less_than_threshold'
p385
(lp386
g50
(g51
(S'b1'
p387
I0
I1
tp388
Rp389
(I3
S'|'
p390
NNNI-1
I-1
I0
tp391
bS'\x01'
p392
tp393
Rp394
ag394
ag394
ag394
ag394
ag394
ag394
ag394
ag394
ag394
ag394
ag394
ag394
ag394
ag394
ag394
ag394
ag394
ag394
ag394
ag394
ag394
ag394
ag394
ag394
ag394
ag394
ag394
ag394
ag394
ag394
ag394
ag394
ag394
ag394
ag394
ag394
ag394
ag394
ag394
ag394
ag394
ag394
ag394
ag394
ag394
ag394
ag394
ag394
ag394
ag394
ag394
ag394
ag394
ag394
ag394
ag394
ag394
ag394
ag394
ag394
ag394
ag394
ag394
ag394
ag394
ag394
ag394
ag394
ag394
ag394
ag394
ag394
ag394
ag394
ag394
ag394
ag394
ag394
ag394
ag394
ag394
ag394
ag394
ag394
ag394
ag394
ag394
ag394
ag394
ag394
ag394
ag394
asaa(lp395
S'index'
p396
aI103093
aatp397
Rp398
.