ccollections
OrderedDict
p0
((lp1
(lp2
S'combination_dict'
p3
ag0
((lp4
(lp5
S'r_to_g_config'
p6
aS'bl'
p7
aa(lp8
S'num_turns'
p9
aI3
aa(lp10
S'start_direction'
p11
acutils_ms
StartDirection
p12
(I1
tp13
Rp14
aa(lp15
S'assistance_type'
p16
acutils_ms
AssistanceType
p17
(I0
tp18
Rp19
aa(lp20
S'start_mode'
p21
aS'x'
p22
aa(lp23
S'ui_given_a_noise'
p24
aF0.3
aa(lp25
S'um_given_ui_noise'
p26
aF0.3
aa(lp27
S'entropy_threshold'
p28
aF0.9
aatp29
Rp30
aa(lp31
S'data'
p32
accollections
defaultdict
p33
(c__builtin__
list
p34
tp35
Rp36
S'a'
p37
(lp38
S'mode_r'
p39
ag39
ag39
ag39
aS'move_n'
p40
ag40
ag40
ag40
aS'mode_l'
p41
ag41
ag40
ag39
ag41
ag40
ag40
ag40
ag39
ag39
aS'move_p'
p42
ag39
ag40
asS'assistance_match_with_ground_truth'
p43
(lp44
I00
aI00
aI00
aI01
aI00
aI00
aI00
aI01
aI00
aI01
aI01
aI00
aI01
aI00
aI00
aI01
aI00
aI01
aI01
aI01
aI01
asS'is_u_intended_equals_um'
p45
(lp46
I01
aI00
aI01
aI01
aI00
aI00
aI00
aI01
aI00
aI01
aI01
aI01
aI01
aI00
aI00
aI01
aI01
aI01
aI01
aI01
aI01
asS'total_steps'
p47
I21
sS'normalized_h_of_p_ui_given_um'
p48
(lp49
cnumpy.core.multiarray
scalar
p50
(cnumpy
dtype
p51
(S'f8'
p52
I0
I1
tp53
Rp54
(I3
S'<'
p55
NNNI-1
I-1
I0
tp56
bS'VA\xcbFz\xba\xe4?'
p57
tp58
Rp59
ag50
(g54
S'\xe7P\xd4\xb2\x0fd\xeb?'
p60
tp61
Rp62
ag50
(g54
S'VA\xcbFz\xba\xe4?'
p63
tp64
Rp65
ag50
(g54
S'\x066\\TJ\x93\xd1?'
p66
tp67
Rp68
ag50
(g54
S'\x1e\xc0\x99\xf5\xf2\xa9\xe6?'
p69
tp70
Rp71
ag50
(g54
S'Q\xe9\xde\xbc\xd7`\xe5?'
p72
tp73
Rp74
ag50
(g54
S'Q\xe9\xde\xbc\xd7`\xe5?'
p75
tp76
Rp77
ag50
(g54
S'\x9b\x9a\xa0\x06\xad\xc9\xb1?'
p78
tp79
Rp80
ag50
(g54
S'\xbe\x83\xf4\x15}$\xea?'
p81
tp82
Rp83
ag50
(g54
S'\xf4W\x80u\xa7\xcf\xb5?'
p84
tp85
Rp86
ag50
(g54
S'\x9b\x9a\xa0\x06\xad\xc9\xb1?'
p87
tp88
Rp89
ag50
(g54
S'\xc3\x14n\xca\xd2"\xe2?'
p90
tp91
Rp92
ag50
(g54
S'\xf4W\x80u\xa7\xcf\xb5?'
p93
tp94
Rp95
ag50
(g54
S'Q\xe9\xde\xbc\xd7`\xe5?'
p96
tp97
Rp98
ag50
(g54
S'Q\xe9\xde\xbc\xd7`\xe5?'
p99
tp100
Rp101
ag50
(g54
S'\x9b\x9a\xa0\x06\xad\xc9\xb1?'
p102
tp103
Rp104
ag50
(g54
S'VA\xcbFz\xba\xe4?'
p105
tp106
Rp107
ag50
(g54
S'\x066\\TJ\x93\xd1?'
p108
tp109
Rp110
ag50
(g54
S'\x0f\x7fN\xcc\xfd\x8d\xd3?'
p111
tp112
Rp113
ag50
(g54
S'\x066\\TJ\x93\xd1?'
p114
tp115
Rp116
ag50
(g54
S'\x9b\x9a\xa0\x06\xad\xc9\xb1?'
p117
tp118
Rp119
asS'sp'
p120
(lp121
(S'p0'
p122
I0
S'x'
p123
tp124
ag124
ag124
a(g122
I0
S'y'
p125
tp126
ag126
ag126
ag126
a(S'p1'
p127
I0
g125
tp128
ag128
a(g127
I0
g123
tp129
a(S'p2'
p130
I0
g123
tp131
a(g130
I0
S't'
p132
tp133
a(g130
I0
g125
tp134
ag134
ag134
a(S'p3'
p135
I0
g125
tp136
a(g135
I0
g125
tp137
a(g135
I0
g132
tp138
a(g135
F1.5707963267948966
g132
tp139
a(g135
F1.5707963267948966
g123
tp140
a(S'p4'
p141
F1.5707963267948966
g123
tp142
asS's'
p143
(lp144
(g122
I0
g22
tp145
ag124
ag124
ag124
ag126
ag126
ag126
ag126
ag128
ag128
ag129
ag131
ag133
ag134
ag134
ag134
ag136
ag137
ag138
ag139
ag140
asS'ui'
p146
(lp147
S'ss'
p148
ag120
aS'hp'
p149
ag149
ag120
ag148
ag120
ag148
aS'hs'
p150
ag150
ag148
ag150
ag150
ag150
ag148
ag148
ag149
ag149
ag150
ag149
ag148
asS'um_before'
p151
(lp152
g148
ag120
ag148
ag149
ag120
ag149
ag149
ag148
ag149
ag150
ag148
ag150
ag150
ag149
ag149
ag148
ag148
ag149
ag120
ag149
ag148
asS'um_after'
p153
(lp154
g148
aNag148
ag149
aNaNaNag148
aNag150
ag148
ag150
ag150
aNaNag148
ag148
ag149
ag120
ag149
ag148
asS'is_normalized_entropy_less_than_threshold'
p155
(lp156
g50
(g51
(S'b1'
p157
I0
I1
tp158
Rp159
(I3
S'|'
p160
NNNI-1
I-1
I0
tp161
bS'\x01'
p162
tp163
Rp164
ag164
ag164
ag164
ag164
ag164
ag164
ag164
ag164
ag164
ag164
ag164
ag164
ag164
ag164
ag164
ag164
ag164
ag164
ag164
ag164
asaa(lp165
S'index'
p166
aI81897
aatp167
Rp168
.