ccollections
OrderedDict
p0
((lp1
(lp2
S'combination_dict'
p3
ag0
((lp4
(lp5
S'r_to_g_config'
p6
aS'br'
p7
aa(lp8
S'num_turns'
p9
aI3
aa(lp10
S'start_direction'
p11
acutils_ms
StartDirection
p12
(I0
tp13
Rp14
aa(lp15
S'assistance_type'
p16
acutils_ms
AssistanceType
p17
(I0
tp18
Rp19
aa(lp20
S'start_mode'
p21
aS't'
p22
aa(lp23
S'ui_given_a_noise'
p24
aF0.7
aa(lp25
S'um_given_ui_noise'
p26
aF0.7
aa(lp27
S'entropy_threshold'
p28
aF0.8
aatp29
Rp30
aa(lp31
S'data'
p32
accollections
defaultdict
p33
(c__builtin__
list
p34
tp35
Rp36
S'a'
p37
(lp38
S'mode_r'
p39
aS'move_p'
p40
aS'mode_l'
p41
ag41
ag41
ag41
ag40
ag40
ag39
ag41
aS'move_n'
p42
ag41
ag41
ag41
ag40
ag39
ag39
ag39
ag39
ag41
ag42
ag42
ag41
ag40
ag39
ag41
ag40
ag41
ag41
ag40
ag41
ag40
ag39
ag40
ag41
ag40
ag41
ag40
ag39
ag41
ag39
ag40
ag39
ag41
ag41
ag41
ag41
ag40
ag39
ag39
ag39
ag41
ag39
ag41
ag40
ag41
ag41
ag41
ag41
ag39
ag41
ag41
ag41
ag39
ag41
ag40
ag41
ag41
ag41
ag41
ag40
ag39
ag40
ag40
ag39
ag39
ag40
ag41
ag40
ag41
ag41
ag40
ag40
ag41
ag42
asS'assistance_match_with_ground_truth'
p43
(lp44
I01
aI00
aI00
aI00
aI00
aI01
aI00
aI01
aI00
aI01
aI01
aI00
aI00
aI01
aI00
aI00
aI00
aI00
aI00
aI01
aI00
aI01
aI01
aI00
aI00
aI01
aI01
aI00
aI01
aI00
aI01
aI00
aI01
aI00
aI01
aI01
aI00
aI00
aI00
aI00
aI01
aI00
aI00
aI00
aI00
aI00
aI01
aI00
aI00
aI00
aI00
aI00
aI00
aI01
aI01
aI00
aI00
aI00
aI00
aI00
aI00
aI00
aI00
aI00
aI01
aI00
aI00
aI00
aI00
aI01
aI00
aI01
aI00
aI00
aI00
aI01
aI01
aI00
aI01
aI00
aI00
aI00
aI01
aI01
aI01
asS'is_u_intended_equals_um'
p45
(lp46
I01
aI01
aI01
aI01
aI00
aI01
aI00
aI01
aI01
aI01
aI01
aI00
aI00
aI01
aI00
aI00
aI01
aI00
aI01
aI01
aI00
aI01
aI01
aI01
aI01
aI01
aI01
aI00
aI01
aI01
aI01
aI01
aI01
aI01
aI01
aI01
aI01
aI01
aI01
aI01
aI01
aI01
aI01
aI01
aI01
aI01
aI01
aI01
aI00
aI00
aI01
aI01
aI01
aI01
aI01
aI01
aI00
aI00
aI01
aI01
aI00
aI00
aI01
aI01
aI01
aI01
aI00
aI00
aI01
aI01
aI01
aI01
aI00
aI01
aI00
aI01
aI01
aI01
aI01
aI00
aI01
aI00
aI01
aI01
aI01
asS'total_steps'
p47
I85
sS'normalized_h_of_p_ui_given_um'
p48
(lp49
cnumpy.core.multiarray
scalar
p50
(cnumpy
dtype
p51
(S'f8'
p52
I0
I1
tp53
Rp54
(I3
S'<'
p55
NNNI-1
I-1
I0
tp56
bS'\xear\x88\x1f^\xcb\xd3?'
p57
tp58
Rp59
ag50
(g54
S'\n\x8a\x93\xac\xd6-\xe4?'
p60
tp61
Rp62
ag50
(g54
S'v2*\xe0d\x93\xee?'
p63
tp64
Rp65
ag50
(g54
S'v2*\xe0d\x93\xee?'
p66
tp67
Rp68
ag50
(g54
S'\xb8\x85\xeb\x83\xea\xfc\xe6?'
p69
tp70
Rp71
ag50
(g54
S'\x1b\xe5\xb2\xf3\xf9\xf3\xd6?'
p72
tp73
Rp74
ag50
(g54
S'@\xe8\xac\tz\xe4\xe9?'
p75
tp76
Rp77
ag50
(g54
S'\xc2\xc6\xeb\x00\\\xd3\xe3?'
p78
tp79
Rp80
ag50
(g54
S'\xf2PZ\x84\x809\xe3?'
p81
tp82
Rp83
ag50
(g54
S'\x1b\xe5\xb2\xf3\xf9\xf3\xd6?'
p84
tp85
Rp86
ag50
(g54
S'Tb\x0f\xfb\xf4\x17\xde?'
p87
tp88
Rp89
ag50
(g54
S'\xb8\x85\xeb\x83\xea\xfc\xe6?'
p90
tp91
Rp92
ag50
(g54
S'\xb8\x85\xeb\x83\xea\xfc\xe6?'
p93
tp94
Rp95
ag50
(g54
S'\x1b\xe5\xb2\xf3\xf9\xf3\xd6?'
p96
tp97
Rp98
ag50
(g54
S'@\xe8\xac\tz\xe4\xe9?'
p99
tp100
Rp101
ag50
(g54
S'\xd7\x12\xf7p\xe9\x88\xe5?'
p102
tp103
Rp104
ag50
(g54
S'0\x9e;\x95B\xda\xe7?'
p105
tp106
Rp107
ag50
(g54
S'\xd7\x12\xf7p\xe9\x88\xe5?'
p108
tp109
Rp110
ag50
(g54
S'\xf2PZ\x84\x809\xe3?'
p111
tp112
Rp113
ag50
(g54
S'\x1b\xe5\xb2\xf3\xf9\xf3\xd6?'
p114
tp115
Rp116
ag50
(g54
S'nrG\xca%\x14\xe2?'
p117
tp118
Rp119
ag50
(g54
S'Tb\x0f\xfb\xf4\x17\xde?'
p120
tp121
Rp122
ag50
(g54
S'\x1b\xe5\xb2\xf3\xf9\xf3\xd6?'
p123
tp124
Rp125
ag50
(g54
S'\x8b\xfb\xe5 pV\xe8?'
p126
tp127
Rp128
ag50
(g54
S'\xf2PZ\x84\x809\xe3?'
p129
tp130
Rp131
ag50
(g54
S'\x1b\xe5\xb2\xf3\xf9\xf3\xd6?'
p132
tp133
Rp134
ag50
(g54
S'\xc2\xc6\xeb\x00\\\xd3\xe3?'
p135
tp136
Rp137
ag50
(g54
S'\xb8\x85\xeb\x83\xea\xfc\xe6?'
p138
tp139
Rp140
ag50
(g54
S'\x1b\xe5\xb2\xf3\xf9\xf3\xd6?'
p141
tp142
Rp143
ag50
(g54
S'\n\x8a\x93\xac\xd6-\xe4?'
p144
tp145
Rp146
ag50
(g54
S'\x1b\xe5\xb2\xf3\xf9\xf3\xd6?'
p147
tp148
Rp149
ag50
(g54
S'\x8b\xfb\xe5 pV\xe8?'
p150
tp151
Rp152
ag50
(g54
S'\xear\x88\x1f^\xcb\xd3?'
p153
tp154
Rp155
ag50
(g54
S'\n\x8a\x93\xac\xd6-\xe4?'
p156
tp157
Rp158
ag50
(g54
S'\x1b\xe5\xb2\xf3\xf9\xf3\xd6?'
p159
tp160
Rp161
ag50
(g54
S'\xc2\xc6\xeb\x00\\\xd3\xe3?'
p162
tp163
Rp164
ag50
(g54
S'v2*\xe0d\x93\xee?'
p165
tp166
Rp167
ag50
(g54
S'\x8b\xfb\xe5 pV\xe8?'
p168
tp169
Rp170
ag50
(g54
S'0\x9e;\x95B\xda\xe7?'
p171
tp172
Rp173
ag50
(g54
S'\xe7\xcdX\xd8.\xe7\xe8?'
p174
tp175
Rp176
ag50
(g54
S'\xear\x88\x1f^\xcb\xd3?'
p177
tp178
Rp179
ag50
(g54
S'\x8b\xfb\xe5 pV\xe8?'
p180
tp181
Rp182
ag50
(g54
S'\xf2PZ\x84\x809\xe3?'
p183
tp184
Rp185
ag50
(g54
S'v2*\xe0d\x93\xee?'
p186
tp187
Rp188
ag50
(g54
S'v2*\xe0d\x93\xee?'
p189
tp190
Rp191
ag50
(g54
S'v2*\xe0d\x93\xee?'
p192
tp193
Rp194
ag50
(g54
S'\x1b\xe5\xb2\xf3\xf9\xf3\xd6?'
p195
tp196
Rp197
ag50
(g54
S'\x8b\xfb\xe5 pV\xe8?'
p198
tp199
Rp200
ag50
(g54
S'\xd7\x12\xf7p\xe9\x88\xe5?'
p201
tp202
Rp203
ag50
(g54
S'\xd7\x12\xf7p\xe9\x88\xe5?'
p204
tp205
Rp206
ag50
(g54
S'\xf2PZ\x84\x809\xe3?'
p207
tp208
Rp209
ag50
(g54
S'\xe7\xcdX\xd8.\xe7\xe8?'
p210
tp211
Rp212
ag50
(g54
S'\xf2PZ\x84\x809\xe3?'
p213
tp214
Rp215
ag50
(g54
S'\x1b\xe5\xb2\xf3\xf9\xf3\xd6?'
p216
tp217
Rp218
ag50
(g54
S'\xc2\xc6\xeb\x00\\\xd3\xe3?'
p219
tp220
Rp221
ag50
(g54
S'v2*\xe0d\x93\xee?'
p222
tp223
Rp224
ag50
(g54
S'\xb8\x85\xeb\x83\xea\xfc\xe6?'
p225
tp226
Rp227
ag50
(g54
S'\xb8\x85\xeb\x83\xea\xfc\xe6?'
p228
tp229
Rp230
ag50
(g54
S'\xe7\xcdX\xd8.\xe7\xe8?'
p231
tp232
Rp233
ag50
(g54
S'\xf2PZ\x84\x809\xe3?'
p234
tp235
Rp236
ag50
(g54
S'\xb8\x85\xeb\x83\xea\xfc\xe6?'
p237
tp238
Rp239
ag50
(g54
S'\xb8\x85\xeb\x83\xea\xfc\xe6?'
p240
tp241
Rp242
ag50
(g54
S'\xe7\xcdX\xd8.\xe7\xe8?'
p243
tp244
Rp245
ag50
(g54
S'\xf2PZ\x84\x809\xe3?'
p246
tp247
Rp248
ag50
(g54
S'\x1b\xe5\xb2\xf3\xf9\xf3\xd6?'
p249
tp250
Rp251
ag50
(g54
S'\n\x8a\x93\xac\xd6-\xe4?'
p252
tp253
Rp254
ag50
(g54
S'\xb8\x85\xeb\x83\xea\xfc\xe6?'
p255
tp256
Rp257
ag50
(g54
S'\xb8\x85\xeb\x83\xea\xfc\xe6?'
p258
tp259
Rp260
ag50
(g54
S'v2*\xe0d\x93\xee?'
p261
tp262
Rp263
ag50
(g54
S'\x1b\xe5\xb2\xf3\xf9\xf3\xd6?'
p264
tp265
Rp266
ag50
(g54
S'\x8b\xfb\xe5 pV\xe8?'
p267
tp268
Rp269
ag50
(g54
S'\xear\x88\x1f^\xcb\xd3?'
p270
tp271
Rp272
ag50
(g54
S'@\xe8\xac\tz\xe4\xe9?'
p273
tp274
Rp275
ag50
(g54
S'\x8b\xfb\xe5 pV\xe8?'
p276
tp277
Rp278
ag50
(g54
S'\xd7\x12\xf7p\xe9\x88\xe5?'
p279
tp280
Rp281
ag50
(g54
S'\xear\x88\x1f^\xcb\xd3?'
p282
tp283
Rp284
ag50
(g54
S'\xc2\xc6\xeb\x00\\\xd3\xe3?'
p285
tp286
Rp287
ag50
(g54
S'v2*\xe0d\x93\xee?'
p288
tp289
Rp290
ag50
(g54
S'\xc2\xc6\xeb\x00\\\xd3\xe3?'
p291
tp292
Rp293
ag50
(g54
S'\xb8\x85\xeb\x83\xea\xfc\xe6?'
p294
tp295
Rp296
ag50
(g54
S'v2*\xe0d\x93\xee?'
p297
tp298
Rp299
ag50
(g54
S'@\xe8\xac\tz\xe4\xe9?'
p300
tp301
Rp302
ag50
(g54
S'\xc2\xc6\xeb\x00\\\xd3\xe3?'
p303
tp304
Rp305
ag50
(g54
S'\x1b\xe5\xb2\xf3\xf9\xf3\xd6?'
p306
tp307
Rp308
ag50
(g54
S'Tb\x0f\xfb\xf4\x17\xde?'
p309
tp310
Rp311
asS'sp'
p312
(lp313
(S'p0'
p314
I0
S'x'
p315
tp316
a(g314
I0
S'y'
p317
tp318
a(g314
I0
g317
tp319
ag319
ag319
a(g314
I0
g315
tp320
a(g314
I0
g315
tp321
a(S'p1'
p322
I0
g315
tp323
a(g322
I0
S't'
p324
tp325
a(g322
I0
g317
tp326
a(S'p2'
p327
I0
g317
tp328
ag328
ag328
a(g327
I0
g315
tp329
a(g322
I0
g315
tp330
ag330
a(g322
I0
g315
tp331
ag331
ag325
ag326
ag326
ag328
ag329
a(g327
I0
g324
tp332
a(g327
I0
g317
tp333
ag329
a(S'p3'
p334
I0
g315
tp335
ag335
a(g334
I0
g324
tp336
a(g334
I0
g315
tp337
ag336
a(g334
I0
g317
tp338
a(g334
I0
g324
tp339
ag337
ag336
a(g334
F1.5707963267948966
g324
tp340
a(g334
I0
g324
tp341
ag338
a(g327
I0
g317
tp342
a(g327
I0
g324
tp343
a(g327
I0
g315
tp344
ag332
ag333
a(g327
I0
g317
tp345
ag345
ag345
ag329
ag332
ag332
ag332
ag333
ag343
ag333
ag329
ag335
a(g334
I0
g315
tp346
ag346
ag346
a(g334
I0
g317
tp347
a(g334
I0
g315
tp348
ag348
ag348
ag347
ag348
ag336
ag337
ag337
ag337
ag346
ag336
ag338
ag339
a(g334
I0
g324
tp349
ag338
ag338
ag339
ag340
ag341
ag340
ag340
ag341
ag349
ag340
a(g334
F1.5707963267948966
g317
tp350
a(S'p4'
p351
F1.5707963267948966
g317
tp352
asS's'
p353
(lp354
(g314
I0
g22
tp355
ag316
ag318
ag319
ag319
ag319
ag320
ag321
ag323
ag325
ag326
ag328
ag328
ag328
ag329
ag330
ag330
ag331
ag331
ag325
ag326
ag326
ag328
ag329
ag332
ag333
ag329
ag335
ag335
ag336
ag337
ag336
ag338
ag339
ag337
ag336
ag340
ag341
ag338
ag342
ag343
ag344
ag332
ag333
ag345
ag345
ag345
ag329
ag332
ag332
ag332
ag333
ag343
ag333
ag329
ag335
ag346
ag346
ag346
ag347
ag348
ag348
ag348
ag347
ag348
ag336
ag337
ag337
ag337
ag346
ag336
ag338
ag339
ag349
ag338
ag338
ag339
ag340
ag341
ag340
ag340
ag341
ag349
ag340
ag350
asS'ui'
p356
(lp357
S'hp'
p358
ag358
ag312
aS'ss'
p359
aS'hs'
p360
ag360
ag312
ag312
ag360
ag360
ag359
ag360
ag360
ag360
ag312
ag312
ag312
ag358
ag360
ag360
ag359
ag359
ag360
ag312
ag360
ag360
ag359
ag359
ag360
ag358
ag360
ag358
ag358
ag358
ag360
ag312
ag358
ag312
ag360
ag358
ag358
ag360
ag360
ag360
ag359
ag359
ag360
ag360
ag360
ag359
ag360
ag358
ag358
ag360
ag312
ag359
ag360
ag359
ag358
ag312
ag358
ag360
ag358
ag360
ag360
ag358
ag360
ag360
ag359
ag359
ag312
ag358
ag312
ag312
ag358
ag312
ag312
ag358
ag360
ag360
ag359
ag358
ag312
ag360
ag359
asS'um_before'
p361
(lp362
g358
ag358
ag359
ag359
ag312
ag360
ag359
ag312
ag360
ag360
ag359
ag312
ag312
ag360
ag359
ag359
ag312
ag359
ag360
ag360
ag358
ag359
ag360
ag360
ag360
ag360
ag312
ag312
ag360
ag358
ag360
ag360
ag358
ag358
ag360
ag312
ag359
ag360
ag312
ag358
ag358
ag360
ag360
ag359
ag359
ag359
ag360
ag360
ag359
ag359
ag360
ag358
ag360
ag360
ag312
ag359
ag312
ag312
ag358
ag360
ag312
ag312
ag358
ag360
ag360
ag358
ag312
ag312
ag359
ag360
ag360
ag358
ag359
ag360
ag359
ag358
ag312
ag359
ag312
ag312
ag359
ag359
ag312
ag360
ag359
asS'um_after'
p363
(lp364
g358
ag358
ag359
ag359
aNag360
ag359
ag312
ag360
ag360
ag359
aNaNag360
ag359
aNag312
aNag360
ag360
aNag359
ag360
ag360
ag360
ag360
ag312
aNag360
ag358
ag360
ag360
ag358
ag358
ag360
ag312
ag359
ag360
ag312
ag358
ag358
ag360
ag360
ag359
ag359
ag359
ag360
ag360
aNaNag360
ag358
ag360
ag360
ag312
ag359
aNaNag358
ag360
aNaNag358
ag360
ag360
ag358
aNaNag359
ag360
ag360
ag358
ag359
ag360
aNag358
ag312
ag359
ag312
aNag359
ag359
ag312
ag360
ag359
asS'is_normalized_entropy_less_than_threshold'
p365
(lp366
g50
(g51
(S'b1'
p367
I0
I1
tp368
Rp369
(I3
S'|'
p370
NNNI-1
I-1
I0
tp371
bS'\x01'
p372
tp373
Rp374
ag374
ag50
(g369
S'\x00'
p375
tp376
Rp377
ag377
ag374
ag374
ag377
ag374
ag374
ag374
ag374
ag374
ag374
ag374
ag377
ag374
ag374
ag374
ag374
ag374
ag374
ag374
ag374
ag374
ag374
ag374
ag374
ag374
ag374
ag374
ag374
ag374
ag374
ag374
ag374
ag374
ag377
ag374
ag374
ag374
ag374
ag374
ag374
ag377
ag377
ag377
ag374
ag374
ag374
ag374
ag374
ag374
ag374
ag374
ag374
ag377
ag374
ag374
ag374
ag374
ag374
ag374
ag374
ag374
ag374
ag374
ag374
ag374
ag377
ag374
ag374
ag374
ag377
ag374
ag374
ag374
ag374
ag377
ag374
ag374
ag377
ag377
ag374
ag374
ag374
asaa(lp378
S'index'
p379
aI106381
aatp380
Rp381
.