ccollections
OrderedDict
p0
((lp1
(lp2
S'combination_dict'
p3
ag0
((lp4
(lp5
S'r_to_g_config'
p6
aS'bl'
p7
aa(lp8
S'num_turns'
p9
aI2
aa(lp10
S'start_direction'
p11
acutils_ms
StartDirection
p12
(I1
tp13
Rp14
aa(lp15
S'assistance_type'
p16
acutils_ms
AssistanceType
p17
(I1
tp18
Rp19
aa(lp20
S'start_mode'
p21
aS't'
p22
aa(lp23
S'ui_given_a_noise'
p24
aF0.7
aa(lp25
S'um_given_ui_noise'
p26
aF0.1
aa(lp27
S'entropy_threshold'
p28
aF0.5
aatp29
Rp30
aa(lp31
S'data'
p32
accollections
defaultdict
p33
(c__builtin__
list
p34
tp35
Rp36
S'a'
p37
(lp38
S'mode_l'
p39
aS'move_n'
p40
aS'mode_r'
p41
ag41
aS'move_p'
p42
ag39
ag41
ag39
ag42
ag41
ag41
ag42
ag42
ag39
ag41
ag41
ag39
ag42
ag39
ag42
ag41
ag39
ag40
ag41
ag41
ag41
ag40
ag41
ag41
ag39
ag39
ag41
ag41
ag41
ag40
ag39
ag40
ag41
ag41
ag41
ag40
ag39
ag39
ag40
ag39
ag41
ag40
ag41
ag41
ag40
ag41
ag41
ag40
asS'assistance_match_with_ground_truth'
p43
(lp44
I01
aI01
aI00
aI01
aI00
aI00
aI00
aI01
aI00
aI00
aI01
aI00
aI00
aI00
aI00
aI00
aI01
aI00
aI01
aI01
aI00
aI01
aI01
aI00
aI00
aI01
aI00
aI00
aI00
aI00
aI00
aI00
aI00
aI01
aI00
aI01
aI01
aI00
aI00
aI01
aI00
aI00
aI01
aI00
aI00
aI01
aI01
aI00
aI01
aI00
aI00
aI01
aI01
asS'is_u_intended_equals_um'
p45
(lp46
I01
aI01
aI01
aI01
aI01
aI01
aI01
aI01
aI01
aI01
aI01
aI01
aI01
aI01
aI01
aI01
aI01
aI01
aI01
aI01
aI01
aI01
aI01
aI01
aI01
aI01
aI00
aI01
aI01
aI01
aI01
aI01
aI01
aI01
aI01
aI01
aI01
aI01
aI01
aI01
aI01
aI01
aI01
aI01
aI01
aI01
aI01
aI01
aI01
aI00
aI01
aI01
aI01
asS'total_steps'
p47
I53
sS'normalized_h_of_p_ui_given_um'
p48
(lp49
cnumpy.core.multiarray
scalar
p50
(cnumpy
dtype
p51
(S'f8'
p52
I0
I1
tp53
Rp54
(I3
S'<'
p55
NNNI-1
I-1
I0
tp56
bS'\xfe\xd9\xb6d2i\xcd?'
p57
tp58
Rp59
ag50
(g54
S' \xbej\x9e+R\xcb?'
p60
tp61
Rp62
ag50
(g54
S'<\x8ax\xac\x07\xd2\xe1?'
p63
tp64
Rp65
ag50
(g54
S'4\x0f\xf4\xack}\xc7?'
p66
tp67
Rp68
ag50
(g54
S'\xbf\xabi\xcfp\xf8\xd9?'
p69
tp70
Rp71
ag50
(g54
S'\x08.W\x85\x0c\\\xd7?'
p72
tp73
Rp74
ag50
(g54
S'43c*;\xb7\xe3?'
p75
tp76
Rp77
ag50
(g54
S'\xfe\xd9\xb6d2i\xcd?'
p78
tp79
Rp80
ag50
(g54
S'\xab"\x97\x0c% \xe5?'
p81
tp82
Rp83
ag50
(g54
S'<\x8ax\xac\x07\xd2\xe1?'
p84
tp85
Rp86
ag50
(g54
S'4\x0f\xf4\xack}\xc7?'
p87
tp88
Rp89
ag50
(g54
S'OW\x98\x86e\x0c\xe2?'
p90
tp91
Rp92
ag50
(g54
S'\xbf\xabi\xcfp\xf8\xd9?'
p93
tp94
Rp95
ag50
(g54
S'\x08.W\x85\x0c\\\xd7?'
p96
tp97
Rp98
ag50
(g54
S'LK\xc9w\x19$\xe3?'
p99
tp100
Rp101
ag50
(g54
S'43c*;\xb7\xe3?'
p102
tp103
Rp104
ag50
(g54
S'\xfe\xd9\xb6d2i\xcd?'
p105
tp106
Rp107
ag50
(g54
S'\xbf\xabi\xcfp\xf8\xd9?'
p108
tp109
Rp110
ag50
(g54
S'\xfe\xd9\xb6d2i\xcd?'
p111
tp112
Rp113
ag50
(g54
S'@\xbd\x1c\x07\xb9\xe1\xd0?'
p114
tp115
Rp116
ag50
(g54
S'43c*;\xb7\xe3?'
p117
tp118
Rp119
ag50
(g54
S'\xfe\xd9\xb6d2i\xcd?'
p120
tp121
Rp122
ag50
(g54
S' \xbej\x9e+R\xcb?'
p123
tp124
Rp125
ag50
(g54
S'<\x8ax\xac\x07\xd2\xe1?'
p126
tp127
Rp128
ag50
(g54
S'<\x8ax\xac\x07\xd2\xe1?'
p129
tp130
Rp131
ag50
(g54
S'4\x0f\xf4\xack}\xc7?'
p132
tp133
Rp134
ag50
(g54
S'\x15\x04\xf5\x7f\xc0\x83\xed?'
p135
tp136
Rp137
ag50
(g54
S'<\x8ax\xac\x07\xd2\xe1?'
p138
tp139
Rp140
ag50
(g54
S'43c*;\xb7\xe3?'
p141
tp142
Rp143
ag50
(g54
S'\xf2\xa6\x98-\x06,\xda?'
p144
tp145
Rp146
ag50
(g54
S'\x08.W\x85\x0c\\\xd7?'
p147
tp148
Rp149
ag50
(g54
S'<\x8ax\xac\x07\xd2\xe1?'
p150
tp151
Rp152
ag50
(g54
S'LK\xc9w\x19$\xe3?'
p153
tp154
Rp155
ag50
(g54
S'4\x0f\xf4\xack}\xc7?'
p156
tp157
Rp158
ag50
(g54
S'\xfc\xa4z\xc8\xca=\xde?'
p159
tp160
Rp161
ag50
(g54
S'\xfe\xd9\xb6d2i\xcd?'
p162
tp163
Rp164
ag50
(g54
S' \xbej\x9e+R\xcb?'
p165
tp166
Rp167
ag50
(g54
S'LK\xc9w\x19$\xe3?'
p168
tp169
Rp170
ag50
(g54
S'<\x8ax\xac\x07\xd2\xe1?'
p171
tp172
Rp173
ag50
(g54
S'4\x0f\xf4\xack}\xc7?'
p174
tp175
Rp176
ag50
(g54
S'\xfc\xa4z\xc8\xca=\xde?'
p177
tp178
Rp179
ag50
(g54
S'\xf2\xa6\x98-\x06,\xda?'
p180
tp181
Rp182
ag50
(g54
S'\xfe\xd9\xb6d2i\xcd?'
p183
tp184
Rp185
ag50
(g54
S'\x81\xa1\xda\x9bg\xad\xd8?'
p186
tp187
Rp188
ag50
(g54
S'\x08.W\x85\x0c\\\xd7?'
p189
tp190
Rp191
ag50
(g54
S'4\x0f\xf4\xack}\xc7?'
p192
tp193
Rp194
ag50
(g54
S' \xbej\x9e+R\xcb?'
p195
tp196
Rp197
ag50
(g54
S'<\x8ax\xac\x07\xd2\xe1?'
p198
tp199
Rp200
ag50
(g54
S'4\x0f\xf4\xack}\xc7?'
p201
tp202
Rp203
ag50
(g54
S'\x15\x04\xf5\x7f\xc0\x83\xed?'
p204
tp205
Rp206
ag50
(g54
S'<\x8ax\xac\x07\xd2\xe1?'
p207
tp208
Rp209
ag50
(g54
S'4\x0f\xf4\xack}\xc7?'
p210
tp211
Rp212
ag50
(g54
S' \xbej\x9e+R\xcb?'
p213
tp214
Rp215
asS'sp'
p216
(lp217
(S'p0'
p218
I0
S'y'
p219
tp220
a(S'p1'
p221
I0
g219
tp222
a(g221
I0
g219
tp223
a(g221
I0
S't'
p224
tp225
a(g221
I0
S'x'
p226
tp227
a(g221
I0
g219
tp228
a(g221
I0
g226
tp229
a(g221
I0
g224
tp230
a(g221
I0
g219
tp231
ag223
ag225
a(g221
I0
g224
tp232
ag227
ag228
a(g221
I0
g219
tp233
ag229
ag230
ag227
ag230
a(g221
F1.5707963267948966
g224
tp234
a(g221
F1.5707963267948966
g219
tp235
a(g221
F1.5707963267948966
g226
tp236
a(S'p2'
p237
F1.5707963267948966
g226
tp238
a(g237
F1.5707963267948966
g226
tp239
ag239
a(g237
F1.5707963267948966
g219
tp240
a(g237
F1.5707963267948966
g226
tp241
ag239
a(g237
F1.5707963267948966
g224
tp242
a(g237
F1.5707963267948966
g224
tp243
a(g237
F1.5707963267948966
g226
tp244
ag239
a(g237
F1.5707963267948966
g226
tp245
ag240
a(g221
F1.5707963267948966
g219
tp246
ag236
ag238
ag245
ag239
ag240
ag246
a(g221
F1.5707963267948966
g219
tp247
ag236
a(g221
F1.5707963267948966
g219
tp248
a(g221
F1.5707963267948966
g224
tp249
a(g221
F1.5707963267948966
g226
tp250
ag238
ag239
ag240
ag241
ag239
ag240
a(S'p3'
p251
F1.5707963267948966
g219
tp252
asS's'
p253
(lp254
(g218
I0
g22
tp255
ag220
ag222
ag223
ag225
ag227
ag228
ag229
ag230
ag231
ag223
ag225
ag232
ag227
ag228
ag233
ag229
ag230
ag227
ag230
ag234
ag235
ag236
ag238
ag239
ag239
ag240
ag241
ag239
ag242
ag243
ag244
ag239
ag245
ag240
ag246
ag236
ag238
ag245
ag239
ag240
ag246
ag247
ag236
ag248
ag249
ag250
ag238
ag239
ag240
ag241
ag239
ag240
asS'ui'
p256
(lp257
g216
aS'ss'
p258
ag216
aS'hp'
p259
ag259
ag259
aS'hs'
p260
ag260
ag260
ag216
ag259
ag258
ag216
ag216
ag258
ag260
ag260
ag259
ag260
ag216
ag260
ag260
ag258
ag258
ag216
ag259
ag260
ag216
ag216
ag259
ag259
ag216
ag259
ag259
ag216
ag260
ag258
ag258
ag216
ag259
ag216
ag259
ag260
ag259
ag259
ag259
ag258
ag216
ag259
ag216
ag259
ag259
ag258
asS'um_before'
p261
(lp262
g260
ag258
ag216
ag259
ag259
ag259
ag260
ag260
ag260
ag216
ag259
ag258
ag259
ag259
ag258
ag260
ag260
ag259
ag260
ag216
ag260
ag260
ag258
ag216
ag216
ag259
ag260
ag216
ag260
ag216
ag259
ag216
ag258
ag259
ag216
ag260
ag258
ag258
ag216
ag259
ag216
ag216
ag260
ag259
ag259
ag259
ag258
ag216
ag259
ag260
ag216
ag259
ag258
asS'um_after'
p263
(lp264
g260
ag258
ag216
ag259
ag259
ag259
ag260
ag260
ag260
ag216
ag259
ag258
ag259
ag259
ag258
ag260
ag260
ag259
ag260
ag216
ag260
ag260
ag258
ag216
ag216
ag259
ag260
ag216
ag260
ag216
ag259
ag216
ag258
ag259
ag216
ag260
ag258
ag258
ag216
ag259
ag216
ag216
ag260
ag259
ag259
ag259
ag258
ag216
ag259
ag260
ag216
ag259
ag258
asS'is_normalized_entropy_less_than_threshold'
p265
(lp266
g50
(g51
(S'b1'
p267
I0
I1
tp268
Rp269
(I3
S'|'
p270
NNNI-1
I-1
I0
tp271
bS'\x01'
p272
tp273
Rp274
ag274
ag50
(g269
S'\x00'
p275
tp276
Rp277
ag274
ag274
ag274
ag277
ag274
ag277
ag277
ag274
ag277
ag274
ag274
ag277
ag277
ag274
ag274
ag274
ag274
ag277
ag274
ag274
ag277
ag277
ag274
ag277
ag277
ag277
ag274
ag274
ag277
ag277
ag274
ag274
ag274
ag274
ag277
ag277
ag274
ag274
ag274
ag274
ag274
ag274
ag274
ag274
ag277
ag274
ag277
ag277
ag274
ag274
asaa(lp278
S'index'
p279
aI75005
aatp280
Rp281
.