ccollections
OrderedDict
p0
((lp1
(lp2
S'combination_dict'
p3
ag0
((lp4
(lp5
S'r_to_g_config'
p6
aS'tr'
p7
aa(lp8
S'num_turns'
p9
aI3
aa(lp10
S'start_direction'
p11
acutils_ms
StartDirection
p12
(I1
tp13
Rp14
aa(lp15
S'assistance_type'
p16
acutils_ms
AssistanceType
p17
(I1
tp18
Rp19
aa(lp20
S'start_mode'
p21
aS'x'
p22
aa(lp23
S'ui_given_a_noise'
p24
aF0.5
aa(lp25
S'um_given_ui_noise'
p26
aF0.3
aa(lp27
S'entropy_threshold'
p28
aF0.6
aatp29
Rp30
aa(lp31
S'data'
p32
accollections
defaultdict
p33
(c__builtin__
list
p34
tp35
Rp36
S'a'
p37
(lp38
S'mode_r'
p39
ag39
ag39
aS'move_p'
p40
aS'mode_l'
p41
ag41
ag41
ag40
ag39
ag40
ag39
ag41
ag39
ag39
ag40
ag40
ag41
ag40
ag41
ag39
ag41
ag40
ag39
ag40
ag40
ag41
ag40
ag41
ag40
ag41
ag40
ag41
ag39
ag40
ag39
ag40
ag41
ag40
ag39
ag41
ag40
ag39
ag41
ag39
ag40
asS'assistance_match_with_ground_truth'
p42
(lp43
I00
aI00
aI01
aI01
aI00
aI00
aI01
aI00
aI01
aI00
aI00
aI00
aI00
aI01
aI00
aI01
aI01
aI01
aI00
aI00
aI01
aI00
aI01
aI00
aI01
aI00
aI01
aI00
aI01
aI01
aI00
aI00
aI01
aI01
aI01
aI01
aI01
aI00
aI00
aI01
aI00
aI00
aI00
aI01
aI01
asS'is_u_intended_equals_um'
p44
(lp45
I01
aI01
aI01
aI01
aI00
aI01
aI01
aI01
aI01
aI00
aI01
aI01
aI01
aI01
aI01
aI01
aI01
aI00
aI01
aI01
aI01
aI00
aI01
aI01
aI01
aI00
aI01
aI00
aI01
aI01
aI01
aI01
aI01
aI01
aI01
aI00
aI01
aI00
aI01
aI01
aI00
aI01
aI01
aI01
aI01
asS'total_steps'
p46
I45
sS'normalized_h_of_p_ui_given_um'
p47
(lp48
cnumpy.core.multiarray
scalar
p49
(cnumpy
dtype
p50
(S'f8'
p51
I0
I1
tp52
Rp53
(I3
S'<'
p54
NNNI-1
I-1
I0
tp55
bS'\x05O\x84\x7f\xc8\xab\xe3?'
p56
tp57
Rp58
ag49
(g53
S'\x05O\x84\x7f\xc8\xab\xe3?'
p59
tp60
Rp61
ag49
(g53
S'\x00\xc6\x1d\xccZ#\xc3?'
p62
tp63
Rp64
ag49
(g53
S'\x80.\x8c\x9a\xa9\x05\xd0?'
p65
tp66
Rp67
ag49
(g53
S'\x99\xf3(\x85 \x1f\xef?'
p68
tp69
Rp70
ag49
(g53
S'.\xd3\x17\xac\x0b\x96\xe4?'
p71
tp72
Rp73
ag49
(g53
S'\xf3?\x88\x87\xceD\xda?'
p74
tp75
Rp76
ag49
(g53
S'\x9c\x0c\xe9\x1b\xc9\xd3\xe2?'
p77
tp78
Rp79
ag49
(g53
S'\x00\xc6\x1d\xccZ#\xc3?'
p80
tp81
Rp82
ag49
(g53
S'\x04\x0f\xb8\x102\xc7\xe8?'
p83
tp84
Rp85
ag49
(g53
S'\x82xY>\xcc\x91\xea?'
p86
tp87
Rp88
ag49
(g53
S'\xdf\xec\x8e\xf0\x82}\xe4?'
p89
tp90
Rp91
ag49
(g53
S'\x05O\x84\x7f\xc8\xab\xe3?'
p92
tp93
Rp94
ag49
(g53
S'\x00\xc6\x1d\xccZ#\xc3?'
p95
tp96
Rp97
ag49
(g53
S'\x9c\x0c\xe9\x1b\xc9\xd3\xe2?'
p98
tp99
Rp100
ag49
(g53
S'\x80.\x8c\x9a\xa9\x05\xd0?'
p101
tp102
Rp103
ag49
(g53
S'\xf3?\x88\x87\xceD\xda?'
p104
tp105
Rp106
ag49
(g53
S'\xdd\x7f\x9a\xcc\xff\x91\xd6?'
p107
tp108
Rp109
ag49
(g53
S'\xdf\xec\x8e\xf0\x82}\xe4?'
p110
tp111
Rp112
ag49
(g53
S'\x82xY>\xcc\x91\xea?'
p113
tp114
Rp115
ag49
(g53
S'\xf3?\x88\x87\xceD\xda?'
p116
tp117
Rp118
ag49
(g53
S'\x04\x0f\xb8\x102\xc7\xe8?'
p119
tp120
Rp121
ag49
(g53
S'\x00\xc6\x1d\xccZ#\xc3?'
p122
tp123
Rp124
ag49
(g53
S'\x9c\x0c\xe9\x1b\xc9\xd3\xe2?'
p125
tp126
Rp127
ag49
(g53
S'\x80.\x8c\x9a\xa9\x05\xd0?'
p128
tp129
Rp130
ag49
(g53
S'\x99\xf3(\x85 \x1f\xef?'
p131
tp132
Rp133
ag49
(g53
S'\x80.\x8c\x9a\xa9\x05\xd0?'
p134
tp135
Rp136
ag49
(g53
S'\x99\xf3(\x85 \x1f\xef?'
p137
tp138
Rp139
ag49
(g53
S'\x80.\x8c\x9a\xa9\x05\xd0?'
p140
tp141
Rp142
ag49
(g53
S'\xf3?\x88\x87\xceD\xda?'
p143
tp144
Rp145
ag49
(g53
S'\x9c\x0c\xe9\x1b\xc9\xd3\xe2?'
p146
tp147
Rp148
ag49
(g53
S'\xdf\xec\x8e\xf0\x82}\xe4?'
p149
tp150
Rp151
ag49
(g53
S'\x00\xc6\x1d\xccZ#\xc3?'
p152
tp153
Rp154
ag49
(g53
S'\x80.\x8c\x9a\xa9\x05\xd0?'
p155
tp156
Rp157
ag49
(g53
S'\x00\xc6\x1d\xccZ#\xc3?'
p158
tp159
Rp160
ag49
(g53
S'\xdd\x7f\x9a\xcc\xff\x91\xd6?'
p161
tp162
Rp163
ag49
(g53
S'\xf3?\x88\x87\xceD\xda?'
p164
tp165
Rp166
ag49
(g53
S'\x04\x0f\xb8\x102\xc7\xe8?'
p167
tp168
Rp169
ag49
(g53
S'\x82xY>\xcc\x91\xea?'
p170
tp171
Rp172
ag49
(g53
S'\xf3?\x88\x87\xceD\xda?'
p173
tp174
Rp175
ag49
(g53
S'\x04\x0f\xb8\x102\xc7\xe8?'
p176
tp177
Rp178
ag49
(g53
S'\x82xY>\xcc\x91\xea?'
p179
tp180
Rp181
ag49
(g53
S'\xdf\xec\x8e\xf0\x82}\xe4?'
p182
tp183
Rp184
ag49
(g53
S'\x00\xc6\x1d\xccZ#\xc3?'
p185
tp186
Rp187
ag49
(g53
S'\x80.\x8c\x9a\xa9\x05\xd0?'
p188
tp189
Rp190
asS'sp'
p191
(lp192
(S'p0'
p193
I0
S'x'
p194
tp195
ag195
a(g193
I0
S'y'
p196
tp197
a(S'p1'
p198
I0
g196
tp199
a(g198
I0
g196
tp200
a(g198
I0
g196
tp201
a(g198
I0
g194
tp202
a(g193
I0
g194
tp203
ag197
a(g193
I0
g194
tp204
a(g193
I0
S't'
p205
tp206
a(g193
I0
g194
tp207
ag195
ag197
a(g193
I0
g196
tp208
ag199
ag202
a(S'p2'
p209
I0
g194
tp210
a(g209
I0
g196
tp211
a(g209
I0
g194
tp212
a(g209
I0
g205
tp213
a(g209
I0
g196
tp214
a(g209
I0
g205
tp215
a(g209
I0
g205
tp216
a(g209
F1.5707963267948966
g205
tp217
a(g209
I0
g205
tp218
ag217
ag218
ag217
a(g209
F1.5707963267948966
g196
tp219
a(g198
F1.5707963267948966
g196
tp220
a(g198
F1.5707963267948966
g205
tp221
a(g198
F1.5707963267948966
g194
tp222
a(g209
F1.5707963267948966
g194
tp223
a(g209
F1.5707963267948966
g196
tp224
a(S'p3'
p225
F1.5707963267948966
g196
tp226
a(g225
F1.5707963267948966
g194
tp227
a(g225
F1.5707963267948966
g205
tp228
a(g225
F1.5707963267948966
g196
tp229
ag227
ag228
ag229
a(g225
F1.5707963267948966
g205
tp230
a(g225
F1.5707963267948966
g194
tp231
a(S'p4'
p232
F1.5707963267948966
g194
tp233
asS's'
p234
(lp235
(g193
I0
g22
tp236
ag195
ag195
ag197
ag199
ag200
ag201
ag202
ag203
ag197
ag204
ag206
ag207
ag195
ag197
ag208
ag199
ag202
ag210
ag211
ag212
ag213
ag214
ag215
ag216
ag217
ag218
ag217
ag218
ag217
ag219
ag220
ag221
ag222
ag223
ag224
ag226
ag227
ag228
ag229
ag227
ag228
ag229
ag230
ag231
asS'ui'
p237
(lp238
S'ss'
p239
ag239
aS'hp'
p240
ag191
ag240
aS'hs'
p241
ag241
ag239
ag240
ag191
ag239
ag240
ag240
ag240
ag191
ag191
ag241
ag191
ag240
ag240
ag241
ag241
ag240
ag239
ag191
ag191
ag239
ag239
ag191
ag240
ag191
ag240
ag240
ag191
ag240
ag191
ag241
ag191
ag240
ag241
ag191
ag241
ag240
ag240
ag191
asS'um_before'
p242
(lp243
g239
ag239
ag240
ag191
ag239
ag191
ag241
ag239
ag240
ag241
ag241
ag240
ag239
ag240
ag239
ag191
ag241
ag240
ag240
ag241
ag241
ag241
ag240
ag239
ag191
ag239
ag191
ag239
ag191
ag241
ag239
ag240
ag240
ag191
ag240
ag240
ag241
ag241
ag241
ag241
ag241
ag241
ag240
ag240
ag191
asS'um_after'
p244
(lp245
g239
ag239
ag240
ag191
ag239
ag191
ag241
ag239
ag240
ag241
ag241
ag240
ag239
ag240
ag239
ag191
ag241
ag191
ag240
ag241
ag241
ag241
ag240
ag239
ag191
ag239
ag191
ag239
ag191
ag241
ag239
ag240
ag240
ag191
ag240
ag191
ag241
ag241
ag241
ag241
ag241
ag241
ag240
ag240
ag191
asS'is_normalized_entropy_less_than_threshold'
p246
(lp247
g49
(g50
(S'b1'
p248
I0
I1
tp249
Rp250
(I3
S'|'
p251
NNNI-1
I-1
I0
tp252
bS'\x00'
p253
tp254
Rp255
ag255
ag49
(g250
S'\x01'
p256
tp257
Rp258
ag258
ag255
ag255
ag258
ag258
ag258
ag255
ag255
ag255
ag255
ag258
ag258
ag258
ag258
ag258
ag255
ag255
ag258
ag255
ag258
ag258
ag258
ag255
ag258
ag255
ag258
ag258
ag258
ag255
ag258
ag258
ag258
ag258
ag258
ag255
ag255
ag258
ag255
ag255
ag255
ag258
ag258
asaa(lp259
S'index'
p260
aI26060
aatp261
Rp262
.