ccollections
OrderedDict
p0
((lp1
(lp2
S'combination_dict'
p3
ag0
((lp4
(lp5
S'r_to_g_config'
p6
aS'bl'
p7
aa(lp8
S'num_turns'
p9
aI1
aa(lp10
S'start_direction'
p11
acutils_ms
StartDirection
p12
(I1
tp13
Rp14
aa(lp15
S'assistance_type'
p16
acutils_ms
AssistanceType
p17
(I1
tp18
Rp19
aa(lp20
S'start_mode'
p21
aS'x'
p22
aa(lp23
S'ui_given_a_noise'
p24
aF0.7
aa(lp25
S'um_given_ui_noise'
p26
aF0.1
aa(lp27
S'entropy_threshold'
p28
aF0.8
aatp29
Rp30
aa(lp31
S'data'
p32
accollections
defaultdict
p33
(c__builtin__
list
p34
tp35
Rp36
S'a'
p37
(lp38
S'mode_r'
p39
aS'move_n'
p40
aS'mode_l'
p41
ag41
ag41
ag40
ag39
ag40
ag39
aS'move_p'
p42
ag41
ag39
ag41
ag40
ag41
ag41
ag41
ag40
ag41
ag41
ag40
ag41
ag41
ag41
ag40
ag41
ag40
ag39
ag42
ag42
ag41
asS'assistance_match_with_ground_truth'
p43
(lp44
I01
aI00
aI00
aI00
aI01
aI00
aI01
aI01
aI01
aI00
aI00
aI00
aI01
aI00
aI00
aI00
aI01
aI00
aI00
aI01
aI00
aI00
aI00
aI01
aI00
aI01
aI01
aI01
aI00
aI00
aI00
asS'is_u_intended_equals_um'
p45
(lp46
I01
aI01
aI01
aI01
aI01
aI01
aI01
aI01
aI01
aI01
aI01
aI01
aI01
aI01
aI01
aI01
aI01
aI01
aI01
aI01
aI01
aI01
aI01
aI01
aI01
aI01
aI01
aI01
aI01
aI01
aI01
asS'total_steps'
p47
I31
sS'normalized_h_of_p_ui_given_um'
p48
(lp49
cnumpy.core.multiarray
scalar
p50
(cnumpy
dtype
p51
(S'f8'
p52
I0
I1
tp53
Rp54
(I3
S'<'
p55
NNNI-1
I-1
I0
tp56
bS'v\xde-\xcce\xe2\xc5?'
p57
tp58
Rp59
ag50
(g54
S'\xa2\xb5\x17Z\x05\x05\xd6?'
p60
tp61
Rp62
ag50
(g54
S'\xc4\\\xf7Hu\xb4\xd7?'
p63
tp64
Rp65
ag50
(g54
S'\xc4\\\xf7Hu\xb4\xd7?'
p66
tp67
Rp68
ag50
(g54
S'\x9a\x18e\xca9\xeb\xb1?'
p69
tp70
Rp71
ag50
(g54
S'o\x17M,:4\xe0?'
p72
tp73
Rp74
ag50
(g54
S'v\xde-\xcce\xe2\xc5?'
p75
tp76
Rp77
ag50
(g54
S'<g\x92\x868&\xc9?'
p78
tp79
Rp80
ag50
(g54
S'v\xde-\xcce\xe2\xc5?'
p81
tp82
Rp83
ag50
(g54
S'\xff2d*\xed\xe6\xde?'
p84
tp85
Rp86
ag50
(g54
S'\xc4\\\xf7Hu\xb4\xd7?'
p87
tp88
Rp89
ag50
(g54
S'\x1f\xbey\x15\xd5\x85\xd2?'
p90
tp91
Rp92
ag50
(g54
S'\x9a\x18e\xca9\xeb\xb1?'
p93
tp94
Rp95
ag50
(g54
S'\xa2\xb5\x17Z\x05\x05\xd6?'
p96
tp97
Rp98
ag50
(g54
S'\xc4\\\xf7Hu\xb4\xd7?'
p99
tp100
Rp101
ag50
(g54
S'\xd1}v\xfc\xa2\xac\xd3?'
p102
tp103
Rp104
ag50
(g54
S'\x9a\x18e\xca9\xeb\xb1?'
p105
tp106
Rp107
ag50
(g54
S'\xa2\xb5\x17Z\x05\x05\xd6?'
p108
tp109
Rp110
ag50
(g54
S'\xc4\\\xf7Hu\xb4\xd7?'
p111
tp112
Rp113
ag50
(g54
S'\x9a\x18e\xca9\xeb\xb1?'
p114
tp115
Rp116
ag50
(g54
S'\xa2\xb5\x17Z\x05\x05\xd6?'
p117
tp118
Rp119
ag50
(g54
S'\xd1}v\xfc\xa2\xac\xd3?'
p120
tp121
Rp122
ag50
(g54
S'\xc4\\\xf7Hu\xb4\xd7?'
p123
tp124
Rp125
ag50
(g54
S'\x9a\x18e\xca9\xeb\xb1?'
p126
tp127
Rp128
ag50
(g54
S'\xa2\xb5\x17Z\x05\x05\xd6?'
p129
tp130
Rp131
ag50
(g54
S'\x9a\x18e\xca9\xeb\xb1?'
p132
tp133
Rp134
ag50
(g54
S'<g\x92\x868&\xc9?'
p135
tp136
Rp137
ag50
(g54
S'v\xde-\xcce\xe2\xc5?'
p138
tp139
Rp140
ag50
(g54
S'*\x8b\xffcv\xf8\xe1?'
p141
tp142
Rp143
ag50
(g54
S'\xff2d*\xed\xe6\xde?'
p144
tp145
Rp146
ag50
(g54
S'\xd1}v\xfc\xa2\xac\xd3?'
p147
tp148
Rp149
asS'sp'
p150
(lp151
(S'p0'
p152
I0
S'y'
p153
tp154
a(g152
I0
S't'
p155
tp156
a(g152
I0
g155
tp157
ag157
a(g152
I0
g153
tp158
a(g152
I0
S'x'
p159
tp160
ag154
a(S'p1'
p161
I0
g153
tp162
a(g161
I0
g155
tp163
a(g161
I0
g159
tp164
a(g152
I0
g159
tp165
a(g152
I0
g155
tp166
ag158
ag156
ag157
a(g152
I0
g155
tp167
ag158
ag156
ag157
ag158
ag156
ag167
ag157
ag158
ag156
ag158
ag162
ag163
a(g161
I0
g155
tp168
ag164
a(S'p2'
p169
I0
g159
tp170
asS's'
p171
(lp172
(g152
I0
g22
tp173
ag154
ag156
ag157
ag157
ag158
ag160
ag154
ag162
ag163
ag164
ag165
ag166
ag158
ag156
ag157
ag167
ag158
ag156
ag157
ag158
ag156
ag167
ag157
ag158
ag156
ag158
ag162
ag163
ag168
ag164
asS'ui'
p174
(lp175
S'hp'
p176
ag176
ag150
ag150
aS'hs'
p177
ag177
ag176
aS'ss'
p178
ag176
ag176
ag150
ag177
ag177
ag176
ag150
ag178
ag177
ag176
ag150
ag177
ag176
ag178
ag150
ag177
ag176
ag177
ag178
ag176
ag178
ag150
ag178
asS'um_before'
p179
(lp180
g176
ag176
ag150
ag150
ag177
ag177
ag176
ag178
ag176
ag176
ag150
ag177
ag177
ag176
ag150
ag178
ag177
ag176
ag150
ag177
ag176
ag178
ag150
ag177
ag176
ag177
ag178
ag176
ag178
ag176
ag178
asS'um_after'
p181
(lp182
g176
ag176
ag150
ag150
ag177
ag177
ag176
ag178
ag176
ag176
ag150
ag177
ag177
ag176
ag150
ag178
ag177
ag176
ag150
ag177
ag176
ag178
ag150
ag177
ag176
ag177
ag178
ag176
ag178
ag176
ag178
asS'is_normalized_entropy_less_than_threshold'
p183
(lp184
g50
(g51
(S'b1'
p185
I0
I1
tp186
Rp187
(I3
S'|'
p188
NNNI-1
I-1
I0
tp189
bS'\x01'
p190
tp191
Rp192
ag192
ag192
ag192
ag192
ag192
ag192
ag192
ag192
ag192
ag192
ag192
ag192
ag192
ag192
ag192
ag192
ag192
ag192
ag192
ag192
ag192
ag192
ag192
ag192
ag192
ag192
ag192
ag192
ag192
ag192
asaa(lp193
S'index'
p194
aI64634
aatp195
Rp196
.