ccollections
OrderedDict
p0
((lp1
(lp2
S'combination_dict'
p3
ag0
((lp4
(lp5
S'r_to_g_config'
p6
aS'bl'
p7
aa(lp8
S'num_turns'
p9
aI1
aa(lp10
S'start_direction'
p11
acutils_ms
StartDirection
p12
(I0
tp13
Rp14
aa(lp15
S'assistance_type'
p16
acutils_ms
AssistanceType
p17
(I1
tp18
Rp19
aa(lp20
S'start_mode'
p21
aS'y'
p22
aa(lp23
S'ui_given_a_noise'
p24
aF0.7
aa(lp25
S'um_given_ui_noise'
p26
aF0.3
aa(lp27
S'entropy_threshold'
p28
aF0.8
aatp29
Rp30
aa(lp31
S'data'
p32
accollections
defaultdict
p33
(c__builtin__
list
p34
tp35
Rp36
S'a'
p37
(lp38
S'mode_l'
p39
aS'mode_r'
p40
ag40
aS'move_n'
p41
ag39
ag41
ag41
ag39
ag39
ag40
ag41
ag39
ag40
ag40
ag41
ag39
ag39
ag41
ag41
ag41
ag39
ag41
ag40
ag39
ag40
ag40
ag41
ag40
ag40
ag40
ag41
ag39
ag39
ag39
ag41
ag40
ag40
ag40
ag41
ag39
ag40
ag41
ag41
ag39
ag39
ag40
ag39
ag39
ag39
ag39
ag41
ag41
ag39
ag39
ag39
aS'move_p'
p42
ag39
ag39
ag41
ag40
ag40
ag40
ag41
ag39
ag39
ag39
ag41
ag40
ag40
ag41
ag39
ag41
ag39
ag39
ag39
ag39
ag41
ag39
ag41
ag40
ag40
ag39
ag41
ag40
ag41
asS'assistance_match_with_ground_truth'
p43
(lp44
I00
aI00
aI01
aI00
aI01
aI00
aI00
aI00
aI00
aI01
aI00
aI00
aI00
aI01
aI00
aI00
aI01
aI00
aI00
aI00
aI01
aI00
aI00
aI00
aI00
aI01
aI00
aI00
aI00
aI01
aI00
aI00
aI00
aI01
aI00
aI00
aI00
aI01
aI00
aI00
aI01
aI00
aI01
aI00
aI00
aI00
aI00
aI00
aI00
aI01
aI00
aI01
aI00
aI00
aI01
aI01
aI00
aI01
aI00
aI00
aI00
aI01
aI00
aI00
aI00
aI01
aI01
aI00
aI01
aI00
aI01
aI00
aI00
aI00
aI00
aI01
aI00
aI01
aI00
aI00
aI00
aI01
aI01
aI01
aI01
asS'is_u_intended_equals_um'
p45
(lp46
I01
aI01
aI01
aI00
aI01
aI01
aI00
aI00
aI01
aI01
aI00
aI01
aI01
aI01
aI00
aI01
aI01
aI01
aI01
aI00
aI01
aI01
aI01
aI01
aI01
aI01
aI01
aI01
aI01
aI01
aI00
aI01
aI01
aI01
aI01
aI01
aI01
aI01
aI00
aI01
aI01
aI01
aI01
aI01
aI01
aI01
aI01
aI01
aI00
aI01
aI01
aI01
aI01
aI01
aI01
aI01
aI01
aI01
aI01
aI01
aI01
aI01
aI01
aI00
aI01
aI01
aI01
aI01
aI01
aI00
aI01
aI01
aI00
aI01
aI01
aI01
aI00
aI01
aI01
aI01
aI01
aI01
aI01
aI01
aI01
asS'total_steps'
p47
I85
sS'normalized_h_of_p_ui_given_um'
p48
(lp49
cnumpy.core.multiarray
scalar
p50
(cnumpy
dtype
p51
(S'f8'
p52
I0
I1
tp53
Rp54
(I3
S'<'
p55
NNNI-1
I-1
I0
tp56
bS'ud0\xc1\xa4\xbb\xe3?'
p57
tp58
Rp59
ag50
(g54
S"\xe2j\xee\x19'\xb8\xe6?"
p60
tp61
Rp62
ag50
(g54
S'G[\xd3\xcb\x19\xc4\xe0?'
p63
tp64
Rp65
ag50
(g54
S'z\xf1\xfc}\xfbp\xee?'
p66
tp67
Rp68
ag50
(g54
S'.<?^\x1bH\xc5?'
p69
tp70
Rp71
ag50
(g54
S'9?\x7f\xe1\xed\xcf\xe6?'
p72
tp73
Rp74
ag50
(g54
S'z\xf1\xfc}\xfbp\xee?'
p75
tp76
Rp77
ag50
(g54
S'\xa8\x9e\x1cU\x8d\xd4\xeb?'
p78
tp79
Rp80
ag50
(g54
S'ud0\xc1\xa4\xbb\xe3?'
p81
tp82
Rp83
ag50
(g54
S'G[\xd3\xcb\x19\xc4\xe0?'
p84
tp85
Rp86
ag50
(g54
S'z\xf1\xfc}\xfbp\xee?'
p87
tp88
Rp89
ag50
(g54
S'ud0\xc1\xa4\xbb\xe3?'
p90
tp91
Rp92
ag50
(g54
S"\xe2j\xee\x19'\xb8\xe6?"
p93
tp94
Rp95
ag50
(g54
S'G[\xd3\xcb\x19\xc4\xe0?'
p96
tp97
Rp98
ag50
(g54
S'z\xf1\xfc}\xfbp\xee?'
p99
tp100
Rp101
ag50
(g54
S'\xc2\xaa\xe6h\x0bB\xe2?'
p102
tp103
Rp104
ag50
(g54
S'.<?^\x1bH\xc5?'
p105
tp106
Rp107
ag50
(g54
S'9?\x7f\xe1\xed\xcf\xe6?'
p108
tp109
Rp110
ag50
(g54
S'9?\x7f\xe1\xed\xcf\xe6?'
p111
tp112
Rp113
ag50
(g54
S'z\xf1\xfc}\xfbp\xee?'
p114
tp115
Rp116
ag50
(g54
S'.<?^\x1bH\xc5?'
p117
tp118
Rp119
ag50
(g54
S'\xbc\x15\xfa\xdd\x95\x8e\xd9?'
p120
tp121
Rp122
ag50
(g54
S'\xb2+\xb3\xa3\xfc\x96\xe1?'
p123
tp124
Rp125
ag50
(g54
S'ud0\xc1\xa4\xbb\xe3?'
p126
tp127
Rp128
ag50
(g54
S'\xf8k\x94\xd0\xec\xa9\xe5?'
p129
tp130
Rp131
ag50
(g54
S'G[\xd3\xcb\x19\xc4\xe0?'
p132
tp133
Rp134
ag50
(g54
S'\xbc\x15\xfa\xdd\x95\x8e\xd9?'
p135
tp136
Rp137
ag50
(g54
S'\xf8k\x94\xd0\xec\xa9\xe5?'
p138
tp139
Rp140
ag50
(g54
S'\xf8k\x94\xd0\xec\xa9\xe5?'
p141
tp142
Rp143
ag50
(g54
S'G[\xd3\xcb\x19\xc4\xe0?'
p144
tp145
Rp146
ag50
(g54
S'z\xf1\xfc}\xfbp\xee?'
p147
tp148
Rp149
ag50
(g54
S'\xc2\xaa\xe6h\x0bB\xe2?'
p150
tp151
Rp152
ag50
(g54
S'\xc2\xaa\xe6h\x0bB\xe2?'
p153
tp154
Rp155
ag50
(g54
S'.<?^\x1bH\xc5?'
p156
tp157
Rp158
ag50
(g54
S'\xbc\x15\xfa\xdd\x95\x8e\xd9?'
p159
tp160
Rp161
ag50
(g54
S"\xe2j\xee\x19'\xb8\xe6?"
p162
tp163
Rp164
ag50
(g54
S"\xe2j\xee\x19'\xb8\xe6?"
p165
tp166
Rp167
ag50
(g54
S'G[\xd3\xcb\x19\xc4\xe0?'
p168
tp169
Rp170
ag50
(g54
S'z\xf1\xfc}\xfbp\xee?'
p171
tp172
Rp173
ag50
(g54
S'ud0\xc1\xa4\xbb\xe3?'
p174
tp175
Rp176
ag50
(g54
S'G[\xd3\xcb\x19\xc4\xe0?'
p177
tp178
Rp179
ag50
(g54
S'9?\x7f\xe1\xed\xcf\xe6?'
p180
tp181
Rp182
ag50
(g54
S'd\xca\xf3\xf04\x02\xd8?'
p183
tp184
Rp185
ag50
(g54
S'\xc2\xaa\xe6h\x0bB\xe2?'
p186
tp187
Rp188
ag50
(g54
S'ud0\xc1\xa4\xbb\xe3?'
p189
tp190
Rp191
ag50
(g54
S"\xe2j\xee\x19'\xb8\xe6?"
p192
tp193
Rp194
ag50
(g54
S'\xc2\xaa\xe6h\x0bB\xe2?'
p195
tp196
Rp197
ag50
(g54
S'\xc2\xaa\xe6h\x0bB\xe2?'
p198
tp199
Rp200
ag50
(g54
S'\xa8\x9e\x1cU\x8d\xd4\xeb?'
p201
tp202
Rp203
ag50
(g54
S'.<?^\x1bH\xc5?'
p204
tp205
Rp206
ag50
(g54
S'9?\x7f\xe1\xed\xcf\xe6?'
p207
tp208
Rp209
ag50
(g54
S'd\xca\xf3\xf04\x02\xd8?'
p210
tp211
Rp212
ag50
(g54
S'\xc2\xaa\xe6h\x0bB\xe2?'
p213
tp214
Rp215
ag50
(g54
S'\xc2\xaa\xe6h\x0bB\xe2?'
p216
tp217
Rp218
ag50
(g54
S'.<?^\x1bH\xc5?'
p219
tp220
Rp221
ag50
(g54
S'\x0c\xfa\xebBgt\xd5?'
p222
tp223
Rp224
ag50
(g54
S'\xc2\xaa\xe6h\x0bB\xe2?'
p225
tp226
Rp227
ag50
(g54
S'.<?^\x1bH\xc5?'
p228
tp229
Rp230
ag50
(g54
S'\xbc\x15\xfa\xdd\x95\x8e\xd9?'
p231
tp232
Rp233
ag50
(g54
S"\xe2j\xee\x19'\xb8\xe6?"
p234
tp235
Rp236
ag50
(g54
S"\xe2j\xee\x19'\xb8\xe6?"
p237
tp238
Rp239
ag50
(g54
S'G[\xd3\xcb\x19\xc4\xe0?'
p240
tp241
Rp242
ag50
(g54
S'9?\x7f\xe1\xed\xcf\xe6?'
p243
tp244
Rp245
ag50
(g54
S'\xa8\x9e\x1cU\x8d\xd4\xeb?'
p246
tp247
Rp248
ag50
(g54
S'\xc2\xaa\xe6h\x0bB\xe2?'
p249
tp250
Rp251
ag50
(g54
S'.<?^\x1bH\xc5?'
p252
tp253
Rp254
ag50
(g54
S'd\xca\xf3\xf04\x02\xd8?'
p255
tp256
Rp257
ag50
(g54
S"\xe2j\xee\x19'\xb8\xe6?"
p258
tp259
Rp260
ag50
(g54
S'G[\xd3\xcb\x19\xc4\xe0?'
p261
tp262
Rp263
ag50
(g54
S'z\xf1\xfc}\xfbp\xee?'
p264
tp265
Rp266
ag50
(g54
S'.<?^\x1bH\xc5?'
p267
tp268
Rp269
ag50
(g54
S'9?\x7f\xe1\xed\xcf\xe6?'
p270
tp271
Rp272
ag50
(g54
S'\xa8\x9e\x1cU\x8d\xd4\xeb?'
p273
tp274
Rp275
ag50
(g54
S'\xc2\xaa\xe6h\x0bB\xe2?'
p276
tp277
Rp278
ag50
(g54
S'\xc2\xaa\xe6h\x0bB\xe2?'
p279
tp280
Rp281
ag50
(g54
S'.<?^\x1bH\xc5?'
p282
tp283
Rp284
ag50
(g54
S'z\xf1\xfc}\xfbp\xee?'
p285
tp286
Rp287
ag50
(g54
S'.<?^\x1bH\xc5?'
p288
tp289
Rp290
ag50
(g54
S'\xbc\x15\xfa\xdd\x95\x8e\xd9?'
p291
tp292
Rp293
ag50
(g54
S'\xf8k\x94\xd0\xec\xa9\xe5?'
p294
tp295
Rp296
ag50
(g54
S'\xb2+\xb3\xa3\xfc\x96\xe1?'
p297
tp298
Rp299
ag50
(g54
S'.<?^\x1bH\xc5?'
p300
tp301
Rp302
ag50
(g54
S'd\xca\xf3\xf04\x02\xd8?'
p303
tp304
Rp305
ag50
(g54
S'G[\xd3\xcb\x19\xc4\xe0?'
p306
tp307
Rp308
ag50
(g54
S'd\xca\xf3\xf04\x02\xd8?'
p309
tp310
Rp311
asS'sp'
p312
(lp313
(S'p0'
p314
I0
S't'
p315
tp316
a(g314
I0
g315
tp317
a(g314
I0
S'x'
p318
tp319
a(g314
I0
S'y'
p320
tp321
a(g314
I0
g318
tp322
a(g314
I0
g318
tp323
ag321
a(g314
I0
g320
tp324
ag316
ag319
ag321
ag316
ag317
ag319
ag321
a(g314
I0
g320
tp325
ag322
ag323
ag323
ag321
ag322
a(g314
I0
g315
tp326
a(g314
I0
g320
tp327
ag316
a(g314
I0
g315
tp328
ag319
ag326
ag328
ag328
ag319
ag321
ag325
ag325
ag322
ag326
ag317
ag317
ag319
ag321
ag316
ag319
ag323
a(S'p1'
p329
I0
g318
tp330
a(g329
I0
g318
tp331
a(g329
I0
g320
tp332
a(g314
I0
g320
tp333
ag325
ag325
ag324
ag322
ag323
ag330
ag331
ag331
a(g329
I0
g315
tp334
a(g329
F1.5707963267948966
g315
tp335
a(g329
F1.5707963267948966
g315
tp336
a(g329
F1.5707963267948966
g320
tp337
a(g329
F1.5707963267948966
g318
tp338
a(g329
F1.5707963267948966
g318
tp339
ag339
a(g329
F1.5707963267948966
g320
tp340
a(g314
F1.5707963267948966
g320
tp341
a(g314
F1.5707963267948966
g320
tp342
a(g314
F1.5707963267948966
g320
tp343
a(g314
F1.5707963267948966
g318
tp344
a(g329
F1.5707963267948966
g318
tp345
ag339
ag340
a(g329
F1.5707963267948966
g315
tp346
ag337
ag341
ag342
ag343
ag343
ag344
a(g314
F1.5707963267948966
g320
tp347
ag344
a(g314
F1.5707963267948966
g315
tp348
a(g314
F1.5707963267948966
g315
tp349
a(g314
F1.5707963267948966
g320
tp350
ag344
ag345
ag340
a(S'p2'
p351
F1.5707963267948966
g320
tp352
asS's'
p353
(lp354
(g314
I0
g22
tp355
ag316
ag317
ag319
ag321
ag322
ag323
ag321
ag324
ag316
ag319
ag321
ag316
ag317
ag319
ag321
ag325
ag322
ag323
ag323
ag321
ag322
ag326
ag327
ag316
ag328
ag319
ag326
ag328
ag328
ag319
ag321
ag325
ag325
ag322
ag326
ag317
ag317
ag319
ag321
ag316
ag319
ag323
ag330
ag331
ag332
ag333
ag325
ag325
ag324
ag322
ag323
ag330
ag331
ag331
ag334
ag335
ag336
ag337
ag338
ag339
ag339
ag340
ag341
ag342
ag343
ag344
ag345
ag339
ag340
ag346
ag337
ag341
ag342
ag343
ag343
ag344
ag347
ag344
ag348
ag349
ag350
ag344
ag345
ag340
asS'ui'
p356
(lp357
S'hs'
p358
ag312
aS'hp'
p359
aS'ss'
p360
ag358
ag312
ag360
ag358
ag312
ag359
ag358
ag312
ag312
ag359
ag359
ag312
ag358
ag312
ag312
ag358
ag358
ag358
ag312
ag358
ag360
ag359
ag360
ag359
ag359
ag359
ag360
ag312
ag358
ag358
ag358
ag358
ag312
ag359
ag360
ag358
ag359
ag312
ag360
ag312
ag359
ag360
ag312
ag312
ag359
ag358
ag360
ag360
ag312
ag312
ag358
ag312
ag312
ag358
ag358
ag359
ag360
ag359
ag312
ag312
ag312
ag358
ag360
ag312
ag359
ag358
ag358
ag312
ag359
ag312
ag312
ag358
ag359
ag358
ag358
ag360
ag312
ag358
ag360
ag359
ag360
asS'um_before'
p361
(lp362
g359
ag312
ag359
ag359
ag358
ag312
ag359
ag360
ag359
ag359
ag359
ag359
ag312
ag359
ag359
ag312
ag358
ag312
ag312
ag359
ag358
ag358
ag358
ag359
ag360
ag359
ag358
ag360
ag360
ag359
ag359
ag312
ag312
ag358
ag358
ag312
ag312
ag359
ag359
ag359
ag359
ag312
ag360
ag312
ag359
ag312
ag312
ag312
ag360
ag358
ag312
ag360
ag312
ag312
ag358
ag312
ag312
ag358
ag358
ag312
ag312
ag359
ag312
ag360
ag312
ag358
ag360
ag312
ag359
ag359
ag358
ag312
ag360
ag312
ag312
ag358
ag359
ag358
ag358
ag360
ag358
ag358
ag360
ag359
ag360
asS'um_after'
p363
(lp364
g359
ag312
ag359
ag359
ag358
ag312
ag359
ag360
ag359
ag359
ag359
ag359
ag312
ag359
ag359
ag312
ag358
ag312
ag312
ag359
ag358
ag358
ag358
ag359
ag360
ag359
ag358
ag360
ag360
ag359
ag359
ag312
ag312
ag358
ag358
ag312
ag312
ag359
ag359
ag359
ag359
ag312
ag360
ag312
ag359
ag312
ag312
ag312
ag360
ag358
ag312
ag360
ag312
ag312
ag358
ag312
ag312
ag358
ag358
ag312
ag312
ag359
ag312
ag360
ag312
ag358
ag360
ag312
ag359
ag359
ag358
ag312
ag360
ag312
ag312
ag358
ag359
ag358
ag358
ag360
ag358
ag358
ag360
ag359
ag360
asS'is_normalized_entropy_less_than_threshold'
p365
(lp366
g50
(g51
(S'b1'
p367
I0
I1
tp368
Rp369
(I3
S'|'
p370
NNNI-1
I-1
I0
tp371
bS'\x01'
p372
tp373
Rp374
ag374
ag374
ag50
(g369
S'\x00'
p375
tp376
Rp377
ag374
ag374
ag377
ag377
ag374
ag374
ag377
ag374
ag374
ag374
ag377
ag374
ag374
ag374
ag374
ag377
ag374
ag374
ag374
ag374
ag374
ag374
ag374
ag374
ag374
ag374
ag377
ag374
ag374
ag374
ag374
ag374
ag374
ag374
ag377
ag374
ag374
ag374
ag374
ag374
ag374
ag374
ag374
ag374
ag377
ag374
ag374
ag374
ag374
ag374
ag374
ag374
ag374
ag374
ag374
ag374
ag374
ag374
ag374
ag377
ag374
ag374
ag374
ag374
ag374
ag377
ag374
ag374
ag377
ag374
ag374
ag374
ag377
ag374
ag374
ag374
ag374
ag374
ag374
ag374
ag374
asaa(lp378
S'index'
p379
aI60688
aatp380
Rp381
.