ccollections
OrderedDict
p0
((lp1
(lp2
S'combination_dict'
p3
ag0
((lp4
(lp5
S'r_to_g_config'
p6
aS'tr'
p7
aa(lp8
S'num_turns'
p9
aI1
aa(lp10
S'start_direction'
p11
acutils_ms
StartDirection
p12
(I1
tp13
Rp14
aa(lp15
S'assistance_type'
p16
acutils_ms
AssistanceType
p17
(I0
tp18
Rp19
aa(lp20
S'start_mode'
p21
aS'x'
p22
aa(lp23
S'ui_given_a_noise'
p24
aF0.7
aa(lp25
S'um_given_ui_noise'
p26
aF0.3
aa(lp27
S'entropy_threshold'
p28
aF0.5
aatp29
Rp30
aa(lp31
S'data'
p32
accollections
defaultdict
p33
(c__builtin__
list
p34
tp35
Rp36
S'a'
p37
(lp38
S'mode_r'
p39
ag39
ag39
aS'move_p'
p40
ag40
ag39
ag39
ag39
aS'mode_l'
p41
ag39
ag41
ag39
ag39
ag40
ag39
ag41
ag41
ag41
ag41
ag41
ag39
ag40
ag39
ag41
ag40
ag39
ag41
ag40
asS'assistance_match_with_ground_truth'
p42
(lp43
I00
aI00
aI01
aI00
aI01
aI00
aI00
aI00
aI00
aI00
aI00
aI00
aI01
aI00
aI00
aI00
aI00
aI00
aI00
aI00
aI01
aI01
aI00
aI01
aI01
aI00
aI01
aI01
asS'is_u_intended_equals_um'
p44
(lp45
I01
aI01
aI01
aI01
aI01
aI01
aI01
aI01
aI01
aI01
aI00
aI01
aI01
aI00
aI01
aI00
aI00
aI00
aI00
aI01
aI01
aI01
aI01
aI01
aI01
aI01
aI01
aI01
asS'total_steps'
p46
I28
sS'normalized_h_of_p_ui_given_um'
p47
(lp48
cnumpy.core.multiarray
scalar
p49
(cnumpy
dtype
p50
(S'f8'
p51
I0
I1
tp52
Rp53
(I3
S'<'
p54
NNNI-1
I-1
I0
tp55
bS'\xf49\xa5\xb5S\xd8\xe7?'
p56
tp57
Rp58
ag49
(g53
S'\x1d\x8c#u\n\xb7\xdf?'
p59
tp60
Rp61
ag49
(g53
S'\xf6\xf3\xa3\x1e\xe6\x99\xd2?'
p62
tp63
Rp64
ag49
(g53
S'&\x80Z\x95\xff5\xe8?'
p65
tp66
Rp67
ag49
(g53
S'\xb8\xcc\x1dD\xa39\xd1?'
p68
tp69
Rp70
ag49
(g53
S'\xf49\xa5\xb5S\xd8\xe7?'
p71
tp72
Rp73
ag49
(g53
S'\x1d\x8c#u\n\xb7\xdf?'
p74
tp75
Rp76
ag49
(g53
S'q\x00\x9a\xa0-\xb6\xec?'
p77
tp78
Rp79
ag49
(g53
S'\x9a4\x87s\xf78\xe0?'
p80
tp81
Rp82
ag49
(g53
S'q\x00\x9a\xa0-\xb6\xec?'
p83
tp84
Rp85
ag49
(g53
S'\x94"8\xfd\xfc\xab\xeb?'
p86
tp87
Rp88
ag49
(g53
S'\x1d\x8c#u\n\xb7\xdf?'
p89
tp90
Rp91
ag49
(g53
S'\xf6\xf3\xa3\x1e\xe6\x99\xd2?'
p92
tp93
Rp94
ag49
(g53
S'\x98\xcf\xa6D\xe7\xd1\xe9?'
p95
tp96
Rp97
ag49
(g53
S'q\x00\x9a\xa0-\xb6\xec?'
p98
tp99
Rp100
ag49
(g53
S'\x1e\xc5\xe8\x04;\xbc\xe8?'
p101
tp102
Rp103
ag49
(g53
S'\x94"8\xfd\xfc\xab\xeb?'
p104
tp105
Rp106
ag49
(g53
S'\x1e\xc5\xe8\x04;\xbc\xe8?'
p107
tp108
Rp109
ag49
(g53
S'\x1e\xc5\xe8\x04;\xbc\xe8?'
p110
tp111
Rp112
ag49
(g53
S'\x9a4\x87s\xf78\xe0?'
p113
tp114
Rp115
ag49
(g53
S'\xf6\xf3\xa3\x1e\xe6\x99\xd2?'
p116
tp117
Rp118
ag49
(g53
S'\xb8\xcc\x1dD\xa39\xd1?'
p119
tp120
Rp121
ag49
(g53
S'q\x00\x9a\xa0-\xb6\xec?'
p122
tp123
Rp124
ag49
(g53
S'\xc5*\xa3\x97\x96Q\xd7?'
p125
tp126
Rp127
ag49
(g53
S'\xb8\xcc\x1dD\xa39\xd1?'
p128
tp129
Rp130
ag49
(g53
S'q\x00\x9a\xa0-\xb6\xec?'
p131
tp132
Rp133
ag49
(g53
S'\xc5*\xa3\x97\x96Q\xd7?'
p134
tp135
Rp136
ag49
(g53
S'\xb8\xcc\x1dD\xa39\xd1?'
p137
tp138
Rp139
asS'sp'
p140
(lp141
(S'p0'
p142
I0
S'x'
p143
tp144
a(g142
I0
g143
tp145
a(g142
I0
S'y'
p146
tp147
a(g142
I0
g146
tp148
a(S'p1'
p149
I0
g146
tp150
a(g149
I0
g146
tp151
a(g149
I0
g146
tp152
a(g149
I0
g143
tp153
a(g149
I0
g146
tp154
ag153
a(g142
I0
g143
tp155
ag145
ag147
a(g142
I0
g143
tp156
a(g142
I0
S't'
p157
tp158
a(g142
I0
g157
tp159
a(g142
I0
g157
tp160
ag159
ag159
a(g142
I0
g143
tp161
ag147
ag150
ag153
a(g149
I0
g157
tp162
a(g149
F1.5707963267948966
g157
tp163
a(g149
F1.5707963267948966
g146
tp164
a(g149
F1.5707963267948966
g143
tp165
a(S'p2'
p166
F1.5707963267948966
g143
tp167
asS's'
p168
(lp169
(g142
I0
g22
tp170
ag144
ag145
ag147
ag148
ag150
ag151
ag152
ag153
ag154
ag153
ag155
ag145
ag147
ag156
ag158
ag159
ag160
ag159
ag159
ag161
ag147
ag150
ag153
ag162
ag163
ag164
ag165
asS'ui'
p171
(lp172
g140
aS'ss'
p173
aS'hp'
p174
aS'hs'
p175
ag140
ag140
ag173
ag175
ag174
ag175
ag173
ag173
ag174
ag175
ag173
ag140
ag140
ag175
ag175
ag174
ag174
ag140
ag174
ag140
ag140
ag174
ag175
ag175
asS'um_before'
p176
(lp177
g140
ag173
ag174
ag173
ag140
ag140
ag173
ag175
ag174
ag175
ag173
ag173
ag174
ag175
ag175
ag140
ag173
ag140
ag140
ag174
ag174
ag140
ag175
ag175
ag140
ag175
ag175
ag140
asS'um_after'
p178
(lp179
g140
ag173
ag174
ag173
ag140
ag140
ag173
ag175
ag174
ag175
ag173
ag173
ag174
ag175
ag175
ag140
ag173
ag140
ag140
ag174
ag174
ag140
ag175
ag175
ag140
ag175
ag175
ag140
asS'is_normalized_entropy_less_than_threshold'
p180
(lp181
g49
(g50
(S'b1'
p182
I0
I1
tp183
Rp184
(I3
S'|'
p185
NNNI-1
I-1
I0
tp186
bS'\x00'
p187
tp188
Rp189
ag49
(g184
S'\x01'
p190
tp191
Rp192
ag192
ag189
ag192
ag189
ag192
ag189
ag189
ag189
ag189
ag192
ag192
ag189
ag189
ag189
ag189
ag189
ag189
ag189
ag192
ag192
ag189
ag192
ag192
ag189
ag192
ag192
asaa(lp193
S'index'
p194
aI5454
aatp195
Rp196
.