ccollections
OrderedDict
p0
((lp1
(lp2
S'combination_dict'
p3
ag0
((lp4
(lp5
S'r_to_g_config'
p6
aS'tr'
p7
aa(lp8
S'num_turns'
p9
aI1
aa(lp10
S'start_direction'
p11
acutils_ms
StartDirection
p12
(I0
tp13
Rp14
aa(lp15
S'assistance_type'
p16
acutils_ms
AssistanceType
p17
(I0
tp18
Rp19
aa(lp20
S'start_mode'
p21
aS't'
p22
aa(lp23
S'ui_given_a_noise'
p24
aF0.5
aa(lp25
S'um_given_ui_noise'
p26
aF0.5
aa(lp27
S'entropy_threshold'
p28
aF0.7
aatp29
Rp30
aa(lp31
S'data'
p32
accollections
defaultdict
p33
(c__builtin__
list
p34
tp35
Rp36
S'a'
p37
(lp38
S'mode_r'
p39
aS'move_p'
p40
aS'mode_l'
p41
ag39
ag41
ag41
ag41
ag40
ag41
ag39
ag41
ag40
ag39
ag39
ag41
ag41
ag41
ag41
ag40
ag41
ag40
ag41
ag40
ag41
ag40
ag39
ag41
ag40
ag40
ag40
ag40
ag39
ag40
ag39
ag41
ag41
ag40
ag41
ag40
ag39
ag40
ag39
ag39
ag41
ag40
ag41
ag41
ag39
ag41
ag41
ag40
ag41
ag40
ag39
ag41
ag40
ag41
ag40
ag39
ag41
ag40
ag39
ag41
ag39
ag39
ag39
ag39
ag39
ag40
ag39
ag41
ag40
ag41
ag40
ag39
ag41
ag40
ag40
ag39
ag39
ag41
ag39
ag41
ag40
ag39
ag40
ag41
ag40
ag41
ag39
ag39
ag40
ag40
ag41
ag40
ag39
ag40
ag39
ag40
ag39
ag39
ag39
ag40
ag39
ag40
ag41
ag40
asS'assistance_match_with_ground_truth'
p42
(lp43
I01
aI00
aI00
aI00
aI00
aI00
aI01
aI01
aI00
aI00
aI01
aI00
aI00
aI00
aI00
aI00
aI00
aI01
aI01
aI01
aI01
aI01
aI00
aI01
aI00
aI00
aI01
aI00
aI00
aI00
aI00
aI01
aI01
aI00
aI00
aI00
aI01
aI01
aI00
aI01
aI00
aI00
aI00
aI01
aI00
aI00
aI00
aI00
aI00
aI01
aI00
aI01
aI00
aI00
aI01
aI00
aI01
aI00
aI00
aI01
aI01
aI00
aI00
aI00
aI00
aI00
aI00
aI01
aI00
aI00
aI01
aI00
aI01
aI00
aI00
aI01
aI00
aI00
aI00
aI00
aI00
aI00
aI01
aI01
aI01
aI00
aI01
aI00
aI00
aI00
aI01
aI00
aI00
aI01
aI00
aI01
aI01
aI01
aI00
aI00
aI00
aI01
aI00
aI01
aI00
aI01
aI01
asS'is_u_intended_equals_um'
p44
(lp45
I01
aI01
aI01
aI00
aI01
aI00
aI01
aI01
aI01
aI01
aI01
aI01
aI01
aI00
aI00
aI00
aI00
aI01
aI01
aI01
aI01
aI01
aI01
aI01
aI01
aI00
aI01
aI01
aI01
aI01
aI01
aI01
aI01
aI00
aI00
aI01
aI01
aI01
aI01
aI01
aI01
aI00
aI00
aI01
aI01
aI01
aI01
aI00
aI01
aI01
aI01
aI01
aI01
aI00
aI01
aI01
aI01
aI01
aI00
aI01
aI01
aI00
aI01
aI00
aI01
aI01
aI01
aI01
aI01
aI00
aI01
aI01
aI01
aI01
aI00
aI01
aI01
aI01
aI01
aI00
aI01
aI00
aI01
aI01
aI01
aI01
aI01
aI01
aI01
aI01
aI01
aI01
aI01
aI01
aI01
aI01
aI01
aI01
aI01
aI01
aI01
aI01
aI01
aI01
aI01
aI01
aI01
asS'total_steps'
p46
I107
sS'normalized_h_of_p_ui_given_um'
p47
(lp48
cnumpy.core.multiarray
scalar
p49
(cnumpy
dtype
p50
(S'f8'
p51
I0
I1
tp52
Rp53
(I3
S'<'
p54
NNNI-1
I-1
I0
tp55
bS'\xbaj\xcaD\xe3t\xdd?'
p56
tp57
Rp58
ag49
(g53
S'K\xd2\xd7u\xb7\x97\xeb?'
p59
tp60
Rp61
ag49
(g53
S'Y\x94\xd9\xc4x\xa2\xe8?'
p62
tp63
Rp64
ag49
(g53
S'\xae\xd5\xc7\xa7rJ\xeb?'
p65
tp66
Rp67
ag49
(g53
S'\xfeJ\x1f\xadk\xc1\xeb?'
p68
tp69
Rp70
ag49
(g53
S'\xaa\xb4$\xe3\xf0\x81\xe1?'
p71
tp72
Rp73
ag49
(g53
S'cG7e+%\xe5?'
p74
tp75
Rp76
ag49
(g53
S'uFN-c\x9e\xd9?'
p77
tp78
Rp79
ag49
(g53
S'Y\x94\xd9\xc4x\xa2\xe8?'
p80
tp81
Rp82
ag49
(g53
S'=\xaa\x06\x9f*`\xe4?'
p83
tp84
Rp85
ag49
(g53
S'cG7e+%\xe5?'
p86
tp87
Rp88
ag49
(g53
S'l`\x854b<\xed?'
p89
tp90
Rp91
ag49
(g53
S'=\xaa\x06\x9f*`\xe4?'
p92
tp93
Rp94
ag49
(g53
S'\xae\xd5\xc7\xa7rJ\xeb?'
p95
tp96
Rp97
ag49
(g53
S'\xaa\xb4$\xe3\xf0\x81\xe1?'
p98
tp99
Rp100
ag49
(g53
S'\xaa\xb4$\xe3\xf0\x81\xe1?'
p101
tp102
Rp103
ag49
(g53
S'\xaa\xb4$\xe3\xf0\x81\xe1?'
p104
tp105
Rp106
ag49
(g53
S'cG7e+%\xe5?'
p107
tp108
Rp109
ag49
(g53
S'uFN-c\x9e\xd9?'
p110
tp111
Rp112
ag49
(g53
S'cG7e+%\xe5?'
p113
tp114
Rp115
ag49
(g53
S'uFN-c\x9e\xd9?'
p116
tp117
Rp118
ag49
(g53
S'cG7e+%\xe5?'
p119
tp120
Rp121
ag49
(g53
S'\xbaQV\x045#\xe7?'
p122
tp123
Rp124
ag49
(g53
S'cG7e+%\xe5?'
p125
tp126
Rp127
ag49
(g53
S'l`\x854b<\xed?'
p128
tp129
Rp130
ag49
(g53
S'\xae\xd5\xc7\xa7rJ\xeb?'
p131
tp132
Rp133
ag49
(g53
S'cG7e+%\xe5?'
p134
tp135
Rp136
ag49
(g53
S'\xbaQV\x045#\xe7?'
p137
tp138
Rp139
ag49
(g53
S'\xbaQV\x045#\xe7?'
p140
tp141
Rp142
ag49
(g53
S'\xbaQV\x045#\xe7?'
p143
tp144
Rp145
ag49
(g53
S'l`\x854b<\xed?'
p146
tp147
Rp148
ag49
(g53
S'\xbaj\xcaD\xe3t\xdd?'
p149
tp150
Rp151
ag49
(g53
S'uFN-c\x9e\xd9?'
p152
tp153
Rp154
ag49
(g53
S'\xae\xd5\xc7\xa7rJ\xeb?'
p155
tp156
Rp157
ag49
(g53
S'\xaa\xb4$\xe3\xf0\x81\xe1?'
p158
tp159
Rp160
ag49
(g53
S'\xfeJ\x1f\xadk\xc1\xeb?'
p161
tp162
Rp163
ag49
(g53
S'uFN-c\x9e\xd9?'
p164
tp165
Rp166
ag49
(g53
S'cG7e+%\xe5?'
p167
tp168
Rp169
ag49
(g53
S'l`\x854b<\xed?'
p170
tp171
Rp172
ag49
(g53
S'\xbaj\xcaD\xe3t\xdd?'
p173
tp174
Rp175
ag49
(g53
S'l`\x854b<\xed?'
p176
tp177
Rp178
ag49
(g53
S'\xd8\x8e\x90@b\xe7\xe5?'
p179
tp180
Rp181
ag49
(g53
S'\xae\xd5\xc7\xa7rJ\xeb?'
p182
tp183
Rp184
ag49
(g53
S'cG7e+%\xe5?'
p185
tp186
Rp187
ag49
(g53
S'\xbaQV\x045#\xe7?'
p188
tp189
Rp190
ag49
(g53
S'\xfeJ\x1f\xadk\xc1\xeb?'
p191
tp192
Rp193
ag49
(g53
S'Y\x94\xd9\xc4x\xa2\xe8?'
p194
tp195
Rp196
ag49
(g53
S'\xae\xd5\xc7\xa7rJ\xeb?'
p197
tp198
Rp199
ag49
(g53
S'\xfeJ\x1f\xadk\xc1\xeb?'
p200
tp201
Rp202
ag49
(g53
S'cG7e+%\xe5?'
p203
tp204
Rp205
ag49
(g53
S'K\xd2\xd7u\xb7\x97\xeb?'
p206
tp207
Rp208
ag49
(g53
S'cG7e+%\xe5?'
p209
tp210
Rp211
ag49
(g53
S'l`\x854b<\xed?'
p212
tp213
Rp214
ag49
(g53
S'\xae\xd5\xc7\xa7rJ\xeb?'
p215
tp216
Rp217
ag49
(g53
S'cG7e+%\xe5?'
p218
tp219
Rp220
ag49
(g53
S'K\xd2\xd7u\xb7\x97\xeb?'
p221
tp222
Rp223
ag49
(g53
S'cG7e+%\xe5?'
p224
tp225
Rp226
ag49
(g53
S'l`\x854b<\xed?'
p227
tp228
Rp229
ag49
(g53
S'\xae\xd5\xc7\xa7rJ\xeb?'
p230
tp231
Rp232
ag49
(g53
S'cG7e+%\xe5?'
p233
tp234
Rp235
ag49
(g53
S'uFN-c\x9e\xd9?'
p236
tp237
Rp238
ag49
(g53
S'\xae\xd5\xc7\xa7rJ\xeb?'
p239
tp240
Rp241
ag49
(g53
S'Y\x94\xd9\xc4x\xa2\xe8?'
p242
tp243
Rp244
ag49
(g53
S'\xd8\x8e\x90@b\xe7\xe5?'
p245
tp246
Rp247
ag49
(g53
S'=\xaa\x06\x9f*`\xe4?'
p248
tp249
Rp250
ag49
(g53
S'=\xaa\x06\x9f*`\xe4?'
p251
tp252
Rp253
ag49
(g53
S'=\xaa\x06\x9f*`\xe4?'
p254
tp255
Rp256
ag49
(g53
S'\xbaj\xcaD\xe3t\xdd?'
p257
tp258
Rp259
ag49
(g53
S'l`\x854b<\xed?'
p260
tp261
Rp262
ag49
(g53
S'\xae\xd5\xc7\xa7rJ\xeb?'
p263
tp264
Rp265
ag49
(g53
S'cG7e+%\xe5?'
p266
tp267
Rp268
ag49
(g53
S'\xbaQV\x045#\xe7?'
p269
tp270
Rp271
ag49
(g53
S'cG7e+%\xe5?'
p272
tp273
Rp274
ag49
(g53
S'l`\x854b<\xed?'
p275
tp276
Rp277
ag49
(g53
S'\xae\xd5\xc7\xa7rJ\xeb?'
p278
tp279
Rp280
ag49
(g53
S'cG7e+%\xe5?'
p281
tp282
Rp283
ag49
(g53
S'\xbaQV\x045#\xe7?'
p284
tp285
Rp286
ag49
(g53
S'l`\x854b<\xed?'
p287
tp288
Rp289
ag49
(g53
S'=\xaa\x06\x9f*`\xe4?'
p290
tp291
Rp292
ag49
(g53
S'\xae\xd5\xc7\xa7rJ\xeb?'
p293
tp294
Rp295
ag49
(g53
S'Y\x94\xd9\xc4x\xa2\xe8?'
p296
tp297
Rp298
ag49
(g53
S'\xae\xd5\xc7\xa7rJ\xeb?'
p299
tp300
Rp301
ag49
(g53
S'cG7e+%\xe5?'
p302
tp303
Rp304
ag49
(g53
S'uFN-c\x9e\xd9?'
p305
tp306
Rp307
ag49
(g53
S'\xbaj\xcaD\xe3t\xdd?'
p308
tp309
Rp310
ag49
(g53
S'K\xd2\xd7u\xb7\x97\xeb?'
p311
tp312
Rp313
ag49
(g53
S'cG7e+%\xe5?'
p314
tp315
Rp316
ag49
(g53
S'\xbaQV\x045#\xe7?'
p317
tp318
Rp319
ag49
(g53
S'Y\x94\xd9\xc4x\xa2\xe8?'
p320
tp321
Rp322
ag49
(g53
S'=\xaa\x06\x9f*`\xe4?'
p323
tp324
Rp325
ag49
(g53
S'\xbaj\xcaD\xe3t\xdd?'
p326
tp327
Rp328
ag49
(g53
S'\xbaQV\x045#\xe7?'
p329
tp330
Rp331
ag49
(g53
S'K\xd2\xd7u\xb7\x97\xeb?'
p332
tp333
Rp334
ag49
(g53
S'cG7e+%\xe5?'
p335
tp336
Rp337
ag49
(g53
S'l`\x854b<\xed?'
p338
tp339
Rp340
ag49
(g53
S'\xbaj\xcaD\xe3t\xdd?'
p341
tp342
Rp343
ag49
(g53
S'uFN-c\x9e\xd9?'
p344
tp345
Rp346
ag49
(g53
S'\xbaj\xcaD\xe3t\xdd?'
p347
tp348
Rp349
ag49
(g53
S'l`\x854b<\xed?'
p350
tp351
Rp352
ag49
(g53
S'=\xaa\x06\x9f*`\xe4?'
p353
tp354
Rp355
ag49
(g53
S'=\xaa\x06\x9f*`\xe4?'
p356
tp357
Rp358
ag49
(g53
S'\xbaj\xcaD\xe3t\xdd?'
p359
tp360
Rp361
ag49
(g53
S'l`\x854b<\xed?'
p362
tp363
Rp364
ag49
(g53
S'\xbaj\xcaD\xe3t\xdd?'
p365
tp366
Rp367
ag49
(g53
S'K\xd2\xd7u\xb7\x97\xeb?'
p368
tp369
Rp370
ag49
(g53
S'cG7e+%\xe5?'
p371
tp372
Rp373
ag49
(g53
S'uFN-c\x9e\xd9?'
p374
tp375
Rp376
asS'sp'
p377
(lp378
(S'p0'
p379
I0
S'x'
p380
tp381
a(g379
I0
S'y'
p382
tp383
a(g379
I0
S't'
p384
tp385
a(g379
I0
g382
tp386
a(g379
I0
g382
tp387
ag387
a(g379
I0
g380
tp388
a(S'p1'
p389
I0
g380
tp390
a(g389
I0
g382
tp391
a(g379
I0
g382
tp392
ag388
a(g379
I0
g384
tp393
a(g379
I0
g384
tp394
ag386
ag386
ag386
ag386
ag388
ag390
a(g389
I0
g384
tp395
a(g389
F1.5707963267948966
g384
tp396
a(g389
F1.5707963267948966
g382
tp397
a(g379
F1.5707963267948966
g382
tp398
a(g379
F1.5707963267948966
g380
tp399
a(g379
F1.5707963267948966
g384
tp400
a(g379
F1.5707963267948966
g382
tp401
ag399
a(g379
F1.5707963267948966
g380
tp402
ag402
ag402
ag400
a(g379
F1.5707963267948966
g380
tp403
a(g389
F1.5707963267948966
g380
tp404
a(g389
F1.5707963267948966
g384
tp405
ag405
a(g389
I0
g384
tp406
ag396
ag397
a(g389
F1.5707963267948966
g380
tp407
a(g389
F1.5707963267948966
g382
tp408
ag407
ag407
ag405
ag397
ag398
a(g379
F1.5707963267948966
g382
tp409
a(g379
F1.5707963267948966
g384
tp410
ag401
ag409
ag399
a(g379
F1.5707963267948966
g382
tp411
ag399
ag400
ag401
ag399
ag411
ag399
ag400
ag401
ag399
ag404
ag405
a(g389
F1.5707963267948966
g380
tp412
ag412
a(g389
F1.5707963267948966
g380
tp413
ag413
ag413
ag408
ag407
ag405
ag397
ag398
ag399
ag400
ag401
ag399
ag402
ag400
a(g379
F1.5707963267948966
g384
tp414
ag401
ag410
ag401
ag399
ag404
ag408
a(g389
F1.5707963267948966
g384
tp415
ag397
ag398
ag410
ag414
ag403
ag402
ag411
ag399
ag400
ag403
ag404
ag408
ag407
ag413
ag413
ag408
ag407
ag408
ag415
ag397
a(S'p2'
p416
F1.5707963267948966
g382
tp417
asS's'
p418
(lp419
(g379
I0
g22
tp420
ag381
ag383
ag385
ag386
ag387
ag387
ag388
ag390
ag391
ag392
ag388
ag393
ag394
ag386
ag386
ag386
ag386
ag388
ag390
ag395
ag396
ag397
ag398
ag399
ag400
ag401
ag399
ag402
ag402
ag402
ag400
ag403
ag404
ag405
ag405
ag406
ag396
ag397
ag407
ag408
ag407
ag407
ag405
ag397
ag398
ag409
ag410
ag401
ag409
ag399
ag411
ag399
ag400
ag401
ag399
ag411
ag399
ag400
ag401
ag399
ag404
ag405
ag412
ag412
ag413
ag413
ag413
ag408
ag407
ag405
ag397
ag398
ag399
ag400
ag401
ag399
ag402
ag400
ag414
ag401
ag410
ag401
ag399
ag404
ag408
ag415
ag397
ag398
ag410
ag414
ag403
ag402
ag411
ag399
ag400
ag403
ag404
ag408
ag407
ag413
ag413
ag408
ag407
ag408
ag415
ag397
asS'ui'
p421
(lp422
S'hp'
p423
ag377
ag423
aS'ss'
p424
ag377
aS'hs'
p425
ag425
ag377
ag425
ag423
ag424
ag377
ag423
ag425
ag425
ag425
ag377
ag423
ag425
ag425
ag425
ag425
ag377
ag423
ag377
ag425
ag425
ag377
ag424
ag424
ag425
ag423
ag377
ag423
ag377
ag425
ag377
ag425
ag425
ag377
ag425
ag377
ag425
ag425
ag424
ag424
ag377
ag425
ag424
ag425
ag423
ag425
ag377
ag423
ag377
ag423
ag425
ag377
ag425
ag425
ag377
ag423
ag423
ag425
ag424
ag424
ag424
ag423
ag377
ag423
ag425
ag377
ag425
ag377
ag425
ag425
ag423
ag377
ag424
ag425
ag423
ag424
ag425
ag425
ag423
ag423
ag425
ag377
ag425
ag424
ag424
ag424
ag423
ag425
ag425
ag423
ag377
ag423
ag423
ag377
ag423
ag423
ag425
ag424
ag423
ag425
ag425
asS'um_before'
p426
(lp427
g423
ag423
ag423
ag425
ag424
ag377
ag425
ag377
ag423
ag424
ag425
ag425
ag424
ag425
ag377
ag377
ag377
ag425
ag377
ag425
ag377
ag425
ag424
ag425
ag425
ag425
ag425
ag424
ag424
ag424
ag425
ag423
ag377
ag425
ag377
ag424
ag377
ag425
ag425
ag423
ag425
ag377
ag425
ag425
ag424
ag424
ag423
ag425
ag424
ag425
ag423
ag425
ag425
ag425
ag425
ag423
ag425
ag425
ag425
ag425
ag377
ag425
ag423
ag377
ag424
ag424
ag424
ag423
ag425
ag425
ag425
ag424
ag425
ag425
ag425
ag425
ag424
ag425
ag424
ag425
ag423
ag425
ag425
ag377
ag423
ag423
ag425
ag424
ag423
ag424
ag423
ag424
ag423
ag425
ag425
ag423
ag377
ag423
ag425
ag424
ag424
ag423
ag425
ag423
ag423
ag425
ag377
asS'um_after'
p428
(lp429
g423
ag423
ag423
ag425
ag424
aNag425
ag377
ag423
ag424
ag425
ag425
ag424
ag425
aNaNaNag425
ag377
ag425
ag377
ag425
ag424
ag425
ag425
ag425
ag425
ag424
ag424
ag424
ag425
ag423
ag377
ag425
aNag424
ag377
ag425
ag425
ag423
ag425
aNag425
ag425
ag424
ag424
ag423
ag425
ag424
ag425
ag423
ag425
ag425
ag425
ag425
ag423
ag425
ag425
ag425
ag425
ag377
ag425
ag423
aNag424
ag424
ag424
ag423
ag425
ag425
ag425
ag424
ag425
ag425
ag425
ag425
ag424
ag425
ag424
ag425
ag423
ag425
ag425
ag377
ag423
ag423
ag425
ag424
ag423
ag424
ag423
ag424
ag423
ag425
ag425
ag423
ag377
ag423
ag425
ag424
ag424
ag423
ag425
ag423
ag423
ag425
ag377
asS'is_normalized_entropy_less_than_threshold'
p430
(lp431
g49
(g50
(S'b1'
p432
I0
I1
tp433
Rp434
(I3
S'|'
p435
NNNI-1
I-1
I0
tp436
bS'\x01'
p437
tp438
Rp439
ag49
(g434
S'\x00'
p440
tp441
Rp442
ag442
ag442
ag442
ag439
ag439
ag439
ag442
ag439
ag439
ag442
ag439
ag442
ag439
ag439
ag439
ag439
ag439
ag439
ag439
ag439
ag442
ag439
ag442
ag442
ag439
ag442
ag442
ag442
ag442
ag439
ag439
ag442
ag439
ag442
ag439
ag439
ag442
ag439
ag442
ag439
ag442
ag439
ag442
ag442
ag442
ag442
ag442
ag439
ag442
ag439
ag442
ag442
ag439
ag442
ag439
ag442
ag442
ag439
ag439
ag442
ag442
ag439
ag439
ag439
ag439
ag439
ag442
ag442
ag439
ag442
ag439
ag442
ag442
ag439
ag442
ag442
ag439
ag442
ag442
ag442
ag439
ag439
ag439
ag442
ag439
ag442
ag442
ag439
ag439
ag442
ag442
ag439
ag442
ag439
ag439
ag439
ag442
ag439
ag439
ag439
ag442
ag439
ag442
ag439
ag439
asaa(lp443
S'index'
p444
aI520
aatp445
Rp446
.