ccollections
OrderedDict
p0
((lp1
(lp2
S'combination_dict'
p3
ag0
((lp4
(lp5
S'r_to_g_config'
p6
aS'bl'
p7
aa(lp8
S'num_turns'
p9
aI2
aa(lp10
S'start_direction'
p11
acutils_ms
StartDirection
p12
(I0
tp13
Rp14
aa(lp15
S'assistance_type'
p16
acutils_ms
AssistanceType
p17
(I1
tp18
Rp19
aa(lp20
S'start_mode'
p21
aS'y'
p22
aa(lp23
S'ui_given_a_noise'
p24
aF0.5
aa(lp25
S'um_given_ui_noise'
p26
aF0.5
aa(lp27
S'entropy_threshold'
p28
aF0.7
aatp29
Rp30
aa(lp31
S'data'
p32
accollections
defaultdict
p33
(c__builtin__
list
p34
tp35
Rp36
S'a'
p37
(lp38
S'mode_l'
p39
ag39
aS'move_n'
p40
aS'mode_r'
p41
ag39
ag39
ag40
ag41
ag41
ag41
ag41
ag40
ag41
aS'move_p'
p42
ag39
asS'assistance_match_with_ground_truth'
p43
(lp44
I00
aI01
aI00
aI00
aI00
aI01
aI01
aI00
aI00
aI00
aI01
aI01
aI01
aI00
aI00
asS'is_u_intended_equals_um'
p45
(lp46
I01
aI01
aI01
aI00
aI01
aI01
aI01
aI01
aI01
aI01
aI01
aI00
aI01
aI00
aI01
asS'total_steps'
p47
I15
sS'normalized_h_of_p_ui_given_um'
p48
(lp49
cnumpy.core.multiarray
scalar
p50
(cnumpy
dtype
p51
(S'f8'
p52
I0
I1
tp53
Rp54
(I3
S'<'
p55
NNNI-1
I-1
I0
tp56
bS'\x97Z\x10o\xa6@\xe9?'
p57
tp58
Rp59
ag50
(g54
S'\xc1\xf5\x9b\xd4\x9a&\xd3?'
p60
tp61
Rp62
ag50
(g54
S"&N'\x8d_t\xe8?"
p63
tp64
Rp65
ag50
(g54
S'\x871\xeeO\xbd1\xe9?'
p66
tp67
Rp68
ag50
(g54
S'\x97Z\x10o\xa6@\xe9?'
p69
tp70
Rp71
ag50
(g54
S'\xc1\xf5\x9b\xd4\x9a&\xd3?'
p72
tp73
Rp74
ag50
(g54
S'\xf4q\xe8\xd4\xd4\x14\xd4?'
p75
tp76
Rp77
ag50
(g54
S'`X\x97V\xe1\xd7\xe9?'
p78
tp79
Rp80
ag50
(g54
S'`X\x97V\xe1\xd7\xe9?'
p81
tp82
Rp83
ag50
(g54
S'\x15\xf5\xc0C\xf4\x18\xe7?'
p84
tp85
Rp86
ag50
(g54
S'R\x96\x86\xdaEJ\xdc?'
p87
tp88
Rp89
ag50
(g54
S'v\x00\xcc\xf3\xebc\xe5?'
p90
tp91
Rp92
ag50
(g54
S'R\x96\x86\xdaEJ\xdc?'
p93
tp94
Rp95
ag50
(g54
S'\xb8\xe9\xa52\x18\xd9\xeb?'
p96
tp97
Rp98
ag50
(g54
S'\x97Z\x10o\xa6@\xe9?'
p99
tp100
Rp101
asS'sp'
p102
(lp103
(S'p0'
p104
I0
S'y'
p105
tp106
a(g104
I0
S'x'
p107
tp108
a(g104
I0
S't'
p109
tp110
a(g104
I0
g105
tp111
ag106
ag108
a(S'p1'
p112
I0
g107
tp113
a(g112
I0
g107
tp114
ag114
a(g112
I0
g107
tp115
a(g112
I0
g105
tp116
a(S'p2'
p117
I0
g105
tp118
a(g117
I0
g109
tp119
a(g117
I0
g107
tp120
a(S'p3'
p121
I0
g107
tp122
asS's'
p123
(lp124
(g104
I0
g22
tp125
ag106
ag108
ag110
ag111
ag106
ag108
ag113
ag114
ag114
ag115
ag116
ag118
ag119
ag120
asS'ui'
p126
(lp127
S'ss'
p128
aS'hp'
p129
ag129
ag129
ag128
aS'hs'
p130
ag102
ag129
ag130
ag130
ag129
ag128
ag129
ag102
ag130
asS'um_before'
p131
(lp132
g128
ag130
ag130
ag130
ag128
ag130
ag128
ag128
ag128
ag102
ag129
ag102
ag129
ag129
ag128
asS'um_after'
p133
(lp134
g128
ag130
ag130
ag130
ag128
ag130
ag128
ag128
ag128
ag102
ag129
ag128
ag129
ag129
ag128
asS'is_normalized_entropy_less_than_threshold'
p135
(lp136
g50
(g51
(S'b1'
p137
I0
I1
tp138
Rp139
(I3
S'|'
p140
NNNI-1
I-1
I0
tp141
bS'\x00'
p142
tp143
Rp144
ag50
(g139
S'\x01'
p145
tp146
Rp147
ag144
ag144
ag144
ag147
ag147
ag144
ag144
ag144
ag147
ag147
ag147
ag144
ag144
asaa(lp148
S'index'
p149
aI70123
aatp150
Rp151
.