ccollections
OrderedDict
p0
((lp1
(lp2
S'combination_dict'
p3
ag0
((lp4
(lp5
S'r_to_g_config'
p6
aS'br'
p7
aa(lp8
S'num_turns'
p9
aI3
aa(lp10
S'start_direction'
p11
acutils_ms
StartDirection
p12
(I0
tp13
Rp14
aa(lp15
S'assistance_type'
p16
acutils_ms
AssistanceType
p17
(I1
tp18
Rp19
aa(lp20
S'start_mode'
p21
aS't'
p22
aa(lp23
S'ui_given_a_noise'
p24
aF0.5
aa(lp25
S'um_given_ui_noise'
p26
aF0.5
aa(lp27
S'entropy_threshold'
p28
aF0.6
aatp29
Rp30
aa(lp31
S'data'
p32
accollections
defaultdict
p33
(c__builtin__
list
p34
tp35
Rp36
S'a'
p37
(lp38
S'mode_r'
p39
aS'move_p'
p40
ag39
aS'move_n'
p41
aS'mode_l'
p42
ag42
ag40
ag42
ag42
ag42
ag42
ag40
ag42
ag39
ag41
ag39
ag39
ag39
ag41
ag42
ag40
ag39
ag40
ag42
ag40
ag42
ag42
ag40
ag42
ag41
ag39
ag42
ag41
ag42
ag40
ag39
ag39
ag39
ag41
asS'assistance_match_with_ground_truth'
p43
(lp44
I01
aI01
aI01
aI01
aI00
aI01
aI01
aI00
aI00
aI00
aI01
aI01
aI00
aI01
aI00
aI00
aI00
aI01
aI00
aI00
aI00
aI01
aI00
aI01
aI01
aI00
aI00
aI01
aI01
aI00
aI00
aI01
aI00
aI01
aI01
aI00
aI00
aI01
aI01
asS'is_u_intended_equals_um'
p45
(lp46
I01
aI01
aI01
aI01
aI00
aI01
aI01
aI00
aI00
aI00
aI01
aI01
aI01
aI01
aI00
aI01
aI01
aI01
aI01
aI00
aI01
aI01
aI01
aI01
aI01
aI00
aI00
aI00
aI01
aI00
aI00
aI01
aI00
aI01
aI01
aI01
aI01
aI01
aI01
asS'total_steps'
p47
I39
sS'normalized_h_of_p_ui_given_um'
p48
(lp49
cnumpy.core.multiarray
scalar
p50
(cnumpy
dtype
p51
(S'f8'
p52
I0
I1
tp53
Rp54
(I3
S'<'
p55
NNNI-1
I-1
I0
tp56
bS'\xf3\xd5m\x08\x9b\x15\xc8?'
p57
tp58
Rp59
ag50
(g54
S'\xac2]\x00\x8f\xc4\xcc?'
p60
tp61
Rp62
ag50
(g54
S'\xf3\xd5m\x08\x9b\x15\xc8?'
p63
tp64
Rp65
ag50
(g54
S'\xfa,\xeeS\xe6\xb4\xdb?'
p66
tp67
Rp68
ag50
(g54
S'\x0f"\x18\x9d\xbc\x97\xe9?'
p69
tp70
Rp71
ag50
(g54
S'7_`g\x89\xa0\xd9?'
p72
tp73
Rp74
ag50
(g54
S'\xac2]\x00\x8f\xc4\xcc?'
p75
tp76
Rp77
ag50
(g54
S'\x0f"\x18\x9d\xbc\x97\xe9?'
p78
tp79
Rp80
ag50
(g54
S'\x0f"\x18\x9d\xbc\x97\xe9?'
p81
tp82
Rp83
ag50
(g54
S'\x8ef\x03\x0c\x86\x0f\xed?'
p84
tp85
Rp86
ag50
(g54
S'7_`g\x89\xa0\xd9?'
p87
tp88
Rp89
ag50
(g54
S'\xac2]\x00\x8f\xc4\xcc?'
p90
tp91
Rp92
ag50
(g54
S'\xe9\x8e\x19\x15\xcc\x9d\xda?'
p93
tp94
Rp95
ag50
(g54
S'\xf3\xd5m\x08\x9b\x15\xc8?'
p96
tp97
Rp98
ag50
(g54
S'\x1eCR``\x92\xea?'
p99
tp100
Rp101
ag50
(g54
S'v\xe1\xf0V/=\xec?'
p102
tp103
Rp104
ag50
(g54
S'v\xe1\xf0V/=\xec?'
p105
tp106
Rp107
ag50
(g54
S'\xf3\xd5m\x08\x9b\x15\xc8?'
p108
tp109
Rp110
ag50
(g54
S'\xd2@\xfb\x86(\x1e\xdf?'
p111
tp112
Rp113
ag50
(g54
S'\x0f"\x18\x9d\xbc\x97\xe9?'
p114
tp115
Rp116
ag50
(g54
S'\x1dA\xc7-\xb2\x1f\xe6?'
p117
tp118
Rp119
ag50
(g54
S'\xf3\xd5m\x08\x9b\x15\xc8?'
p120
tp121
Rp122
ag50
(g54
S'\x97?\xc9\x0e\xfb\xa9\xe6?'
p123
tp124
Rp125
ag50
(g54
S'7_`g\x89\xa0\xd9?'
p126
tp127
Rp128
ag50
(g54
S'\xac2]\x00\x8f\xc4\xcc?'
p129
tp130
Rp131
ag50
(g54
S'\x8ef\x03\x0c\x86\x0f\xed?'
p132
tp133
Rp134
ag50
(g54
S'\x0f"\x18\x9d\xbc\x97\xe9?'
p135
tp136
Rp137
ag50
(g54
S'\xcb\xe6\xdaj\xe5\xc1\xe1?'
p138
tp139
Rp140
ag50
(g54
S'7_`g\x89\xa0\xd9?'
p141
tp142
Rp143
ag50
(g54
S'\x1eCR``\x92\xea?'
p144
tp145
Rp146
ag50
(g54
S'\xe02\xb2\xcb\xc1\x0e\xe8?'
p147
tp148
Rp149
ag50
(g54
S'7_`g\x89\xa0\xd9?'
p150
tp151
Rp152
ag50
(g54
S'$+\xd7XsV\xe9?'
p153
tp154
Rp155
ag50
(g54
S'7_`g\x89\xa0\xd9?'
p156
tp157
Rp158
ag50
(g54
S'\xac2]\x00\x8f\xc4\xcc?'
p159
tp160
Rp161
ag50
(g54
S'v\xe1\xf0V/=\xec?'
p162
tp163
Rp164
ag50
(g54
S'v\xe1\xf0V/=\xec?'
p165
tp166
Rp167
ag50
(g54
S'\xf3\xd5m\x08\x9b\x15\xc8?'
p168
tp169
Rp170
ag50
(g54
S'\xfa,\xeeS\xe6\xb4\xdb?'
p171
tp172
Rp173
asS'sp'
p174
(lp175
(S'p0'
p176
I0
S'x'
p177
tp178
a(S'p1'
p179
I0
g177
tp180
a(g179
I0
S'y'
p181
tp182
a(S'p2'
p183
I0
g181
tp184
a(g183
I0
g181
tp185
a(g183
I0
g177
tp186
a(S'p3'
p187
I0
g177
tp188
a(g187
I0
g177
tp189
ag189
a(g187
I0
g177
tp190
a(g187
I0
S't'
p191
tp192
a(g187
F1.5707963267948966
g191
tp193
a(g187
F1.5707963267948966
g177
tp194
a(g187
F1.5707963267948966
g181
tp195
a(g187
F1.5707963267948966
g177
tp196
a(g187
F1.5707963267948966
g177
tp197
ag197
ag195
a(g187
F1.5707963267948966
g191
tp198
a(g187
I0
g191
tp199
a(g187
I0
g181
tp200
a(g187
I0
g191
tp201
a(g187
I0
g177
tp202
ag192
ag193
a(g187
F1.5707963267948966
g191
tp203
ag199
ag193
a(g187
F1.5707963267948966
g181
tp204
ag196
a(g187
F1.5707963267948966
g191
tp205
ag204
a(g183
F1.5707963267948966
g181
tp206
a(g183
F1.5707963267948966
g177
tp207
a(g187
F1.5707963267948966
g177
tp208
ag197
ag197
ag195
a(S'p4'
p209
F1.5707963267948966
g181
tp210
asS's'
p211
(lp212
(g176
I0
g22
tp213
ag178
ag180
ag182
ag184
ag185
ag186
ag188
ag189
ag189
ag190
ag192
ag193
ag194
ag195
ag196
ag197
ag197
ag195
ag198
ag199
ag200
ag201
ag202
ag192
ag193
ag203
ag199
ag193
ag204
ag196
ag205
ag204
ag206
ag207
ag208
ag197
ag197
ag195
asS'ui'
p214
(lp215
S'hp'
p216
ag174
ag216
aS'ss'
p217
aS'hs'
p218
ag218
ag174
ag218
ag216
ag216
ag218
ag174
ag216
ag216
ag218
ag174
ag174
ag216
ag216
ag216
ag174
ag216
ag216
ag218
ag174
ag216
ag174
ag174
ag216
ag217
ag216
ag216
ag217
ag218
ag174
ag174
ag217
ag216
ag217
asS'um_before'
p219
(lp220
g216
ag174
ag216
ag217
ag217
ag218
ag174
ag217
ag217
ag174
ag218
ag174
ag216
ag216
ag218
ag217
ag217
ag216
ag216
ag217
ag218
ag216
ag216
ag218
ag174
ag174
ag217
ag217
ag218
ag218
ag218
ag218
ag174
ag218
ag174
ag217
ag217
ag216
ag217
asS'um_after'
p221
(lp222
g216
ag174
ag216
ag217
ag217
ag218
ag174
ag217
ag217
ag174
ag218
ag174
ag216
ag216
ag218
ag217
ag217
ag216
ag216
ag217
ag218
ag216
ag216
ag218
ag174
ag174
ag217
ag174
ag218
ag218
ag218
ag218
ag174
ag218
ag174
ag217
ag217
ag216
ag217
asS'is_normalized_entropy_less_than_threshold'
p223
(lp224
g50
(g51
(S'b1'
p225
I0
I1
tp226
Rp227
(I3
S'|'
p228
NNNI-1
I-1
I0
tp229
bS'\x01'
p230
tp231
Rp232
ag232
ag232
ag232
ag50
(g227
S'\x00'
p233
tp234
Rp235
ag232
ag232
ag235
ag235
ag235
ag232
ag232
ag232
ag232
ag235
ag235
ag235
ag232
ag232
ag235
ag235
ag232
ag235
ag232
ag232
ag235
ag235
ag232
ag232
ag235
ag235
ag232
ag235
ag232
ag232
ag235
ag235
ag232
ag232
asaa(lp236
S'index'
p237
aI107717
aatp238
Rp239
.