ccollections
OrderedDict
p0
((lp1
(lp2
S'combination_dict'
p3
ag0
((lp4
(lp5
S'r_to_g_config'
p6
aS'br'
p7
aa(lp8
S'num_turns'
p9
aI2
aa(lp10
S'start_direction'
p11
acutils_ms
StartDirection
p12
(I1
tp13
Rp14
aa(lp15
S'assistance_type'
p16
acutils_ms
AssistanceType
p17
(I0
tp18
Rp19
aa(lp20
S'start_mode'
p21
aS't'
p22
aa(lp23
S'ui_given_a_noise'
p24
aF0.5
aa(lp25
S'um_given_ui_noise'
p26
aF0.7
aa(lp27
S'entropy_threshold'
p28
aF0.8
aatp29
Rp30
aa(lp31
S'data'
p32
accollections
defaultdict
p33
(c__builtin__
list
p34
tp35
Rp36
S'a'
p37
(lp38
S'mode_l'
p39
aS'move_n'
p40
aS'mode_r'
p41
ag41
ag40
ag41
aS'move_p'
p42
ag41
ag41
ag41
ag42
ag41
ag42
ag42
ag41
ag42
ag42
ag39
ag39
ag41
ag40
ag40
ag39
ag41
ag41
ag41
ag41
ag41
ag41
ag40
ag40
ag41
ag41
ag42
ag39
ag39
ag39
ag39
ag39
ag41
ag40
ag39
ag39
ag39
ag41
ag41
ag41
ag41
ag40
ag40
ag39
ag39
ag39
ag41
ag41
ag41
ag41
ag41
ag40
ag39
ag39
ag40
ag40
ag40
ag40
ag41
ag42
ag39
ag41
ag41
ag40
ag41
ag41
ag41
ag41
ag42
ag42
ag42
ag42
ag41
ag42
ag41
ag42
ag42
ag42
ag39
ag42
ag42
ag41
ag42
ag41
ag42
ag41
ag41
ag40
asS'assistance_match_with_ground_truth'
p43
(lp44
I01
aI00
aI00
aI01
aI01
aI01
aI00
aI00
aI00
aI01
aI01
aI00
aI00
aI01
aI00
aI00
aI00
aI00
aI00
aI01
aI00
aI00
aI00
aI00
aI00
aI00
aI00
aI00
aI01
aI00
aI01
aI00
aI01
aI00
aI00
aI00
aI00
aI00
aI00
aI01
aI00
aI00
aI00
aI00
aI00
aI00
aI00
aI01
aI00
aI00
aI00
aI00
aI00
aI00
aI00
aI00
aI00
aI01
aI00
aI00
aI01
aI00
aI00
aI00
aI01
aI01
aI00
aI00
aI00
aI01
aI01
aI00
aI00
aI00
aI01
aI00
aI00
aI00
aI01
aI00
aI01
aI00
aI00
aI00
aI00
aI01
aI00
aI01
aI01
aI00
aI01
aI01
aI00
aI01
aI01
asS'is_u_intended_equals_um'
p45
(lp46
I01
aI01
aI00
aI01
aI01
aI01
aI01
aI00
aI00
aI01
aI01
aI00
aI00
aI01
aI00
aI00
aI00
aI00
aI00
aI01
aI01
aI00
aI00
aI00
aI00
aI00
aI00
aI00
aI01
aI01
aI01
aI00
aI01
aI00
aI00
aI00
aI00
aI00
aI00
aI01
aI00
aI00
aI00
aI00
aI00
aI00
aI00
aI01
aI01
aI00
aI00
aI00
aI00
aI00
aI00
aI00
aI00
aI01
aI00
aI00
aI01
aI01
aI01
aI01
aI01
aI01
aI00
aI00
aI00
aI01
aI01
aI00
aI00
aI00
aI01
aI00
aI00
aI00
aI01
aI00
aI01
aI00
aI00
aI00
aI00
aI01
aI00
aI01
aI01
aI01
aI01
aI01
aI00
aI01
aI01
asS'total_steps'
p47
I95
sS'normalized_h_of_p_ui_given_um'
p48
(lp49
cnumpy.core.multiarray
scalar
p50
(cnumpy
dtype
p51
(S'f8'
p52
I0
I1
tp53
Rp54
(I3
S'<'
p55
NNNI-1
I-1
I0
tp56
bS"\xd6'\x8bO\x00I\xd9?"
p57
tp58
Rp59
ag50
(g54
S'\x82Q}\xd6\xbeO\xe9?'
p60
tp61
Rp62
ag50
(g54
S'`\xbd\xe0\x0e-b\xec?'
p63
tp64
Rp65
ag50
(g54
S'Y\xb4tIKD\xdb?'
p66
tp67
Rp68
ag50
(g54
S'\x17^\x18\xb6f\xc7\xe3?'
p69
tp70
Rp71
ag50
(g54
S'Y\xb4tIKD\xdb?'
p72
tp73
Rp74
ag50
(g54
S'4\xa1\xb0\x83\x00G\xe8?'
p75
tp76
Rp77
ag50
(g54
S'\xe3\xdb\xe8\xa6\x9a\xc7\xe6?'
p78
tp79
Rp80
ag50
(g54
S'p\xef|\xac&\xf2\xea?'
p81
tp82
Rp83
ag50
(g54
S'Y\xb4tIKD\xdb?'
p84
tp85
Rp86
ag50
(g54
S'\x06y\xc6\xfbTg\xe2?'
p87
tp88
Rp89
ag50
(g54
S'p\xef|\xac&\xf2\xea?'
p90
tp91
Rp92
ag50
(g54
S'\x13N\x93H\xc6_\xe8?'
p93
tp94
Rp95
ag50
(g54
S'\x06y\xc6\xfbTg\xe2?'
p96
tp97
Rp98
ag50
(g54
S'p\xef|\xac&\xf2\xea?'
p99
tp100
Rp101
ag50
(g54
S'\x13N\x93H\xc6_\xe8?'
p102
tp103
Rp104
ag50
(g54
S'\x80\xff\xc9\xcf\x83x\xec?'
p105
tp106
Rp107
ag50
(g54
S'h\xe2T\xe0\x1f\xc6\xe7?'
p108
tp109
Rp110
ag50
(g54
S'b\x9f\xfc\r\xa3\xad\xe9?'
p111
tp112
Rp113
ag50
(g54
S'Y\xb4tIKD\xdb?'
p114
tp115
Rp116
ag50
(g54
S'\xe4\xd9\xcf\xd9\x17\xfb\xeb?'
p117
tp118
Rp119
ag50
(g54
S'\xb0m\xfd@\x0b\x9e\xeb?'
p120
tp121
Rp122
ag50
(g54
S';\xa5&\xf7\x1e!\xec?'
p123
tp124
Rp125
ag50
(g54
S'\xe3\xdb\xe8\xa6\x9a\xc7\xe6?'
p126
tp127
Rp128
ag50
(g54
S'p\xef|\xac&\xf2\xea?'
p129
tp130
Rp131
ag50
(g54
S'p\xef|\xac&\xf2\xea?'
p132
tp133
Rp134
ag50
(g54
S'p\xef|\xac&\xf2\xea?'
p135
tp136
Rp137
ag50
(g54
S'`\xbd\xe0\x0e-b\xec?'
p138
tp139
Rp140
ag50
(g54
S'Y\xb4tIKD\xdb?'
p141
tp142
Rp143
ag50
(g54
S'\xe4\xd9\xcf\xd9\x17\xfb\xeb?'
p144
tp145
Rp146
ag50
(g54
S'\x17^\x18\xb6f\xc7\xe3?'
p147
tp148
Rp149
ag50
(g54
S'p\xef|\xac&\xf2\xea?'
p150
tp151
Rp152
ag50
(g54
S'Y\xb4tIKD\xdb?'
p153
tp154
Rp155
ag50
(g54
S'\x80\xff\xc9\xcf\x83x\xec?'
p156
tp157
Rp158
ag50
(g54
S'h\xe2T\xe0\x1f\xc6\xe7?'
p159
tp160
Rp161
ag50
(g54
S'h\xe2T\xe0\x1f\xc6\xe7?'
p162
tp163
Rp164
ag50
(g54
S'h\xe2T\xe0\x1f\xc6\xe7?'
p165
tp166
Rp167
ag50
(g54
S'h\xe2T\xe0\x1f\xc6\xe7?'
p168
tp169
Rp170
ag50
(g54
S'b\x9f\xfc\r\xa3\xad\xe9?'
p171
tp172
Rp173
ag50
(g54
S'Y\xb4tIKD\xdb?'
p174
tp175
Rp176
ag50
(g54
S'\xb0m\xfd@\x0b\x9e\xeb?'
p177
tp178
Rp179
ag50
(g54
S'b\x9f\xfc\r\xa3\xad\xe9?'
p180
tp181
Rp182
ag50
(g54
S'h\xe2T\xe0\x1f\xc6\xe7?'
p183
tp184
Rp185
ag50
(g54
S';\xa5&\xf7\x1e!\xec?'
p186
tp187
Rp188
ag50
(g54
S'p\xef|\xac&\xf2\xea?'
p189
tp190
Rp191
ag50
(g54
S'p\xef|\xac&\xf2\xea?'
p192
tp193
Rp194
ag50
(g54
S'p\xef|\xac&\xf2\xea?'
p195
tp196
Rp197
ag50
(g54
S'Y\xb4tIKD\xdb?'
p198
tp199
Rp200
ag50
(g54
S'\xe4\xd9\xcf\xd9\x17\xfb\xeb?'
p201
tp202
Rp203
ag50
(g54
S'\xb0m\xfd@\x0b\x9e\xeb?'
p204
tp205
Rp206
ag50
(g54
S'b\x9f\xfc\r\xa3\xad\xe9?'
p207
tp208
Rp209
ag50
(g54
S'h\xe2T\xe0\x1f\xc6\xe7?'
p210
tp211
Rp212
ag50
(g54
S';\xa5&\xf7\x1e!\xec?'
p213
tp214
Rp215
ag50
(g54
S'p\xef|\xac&\xf2\xea?'
p216
tp217
Rp218
ag50
(g54
S'\xe3\xdb\xe8\xa6\x9a\xc7\xe6?'
p219
tp220
Rp221
ag50
(g54
S'\xe3\xdb\xe8\xa6\x9a\xc7\xe6?'
p222
tp223
Rp224
ag50
(g54
S'p\xef|\xac&\xf2\xea?'
p225
tp226
Rp227
ag50
(g54
S'Y\xb4tIKD\xdb?'
p228
tp229
Rp230
ag50
(g54
S'\xb0m\xfd@\x0b\x9e\xeb?'
p231
tp232
Rp233
ag50
(g54
S'b\x9f\xfc\r\xa3\xad\xe9?'
p234
tp235
Rp236
ag50
(g54
S"\xd6'\x8bO\x00I\xd9?"
p237
tp238
Rp239
ag50
(g54
S'\xe4\xd9\xcf\xd9\x17\xfb\xeb?'
p240
tp241
Rp242
ag50
(g54
S'\xe4\xd9\xcf\xd9\x17\xfb\xeb?'
p243
tp244
Rp245
ag50
(g54
S'\xe4\xd9\xcf\xd9\x17\xfb\xeb?'
p246
tp247
Rp248
ag50
(g54
S'\x17^\x18\xb6f\xc7\xe3?'
p249
tp250
Rp251
ag50
(g54
S'Y\xb4tIKD\xdb?'
p252
tp253
Rp254
ag50
(g54
S'\x80\xff\xc9\xcf\x83x\xec?'
p255
tp256
Rp257
ag50
(g54
S'b\x9f\xfc\r\xa3\xad\xe9?'
p258
tp259
Rp260
ag50
(g54
S'p\xef|\xac&\xf2\xea?'
p261
tp262
Rp263
ag50
(g54
S'Y\xb4tIKD\xdb?'
p264
tp265
Rp266
ag50
(g54
S'\x17^\x18\xb6f\xc7\xe3?'
p267
tp268
Rp269
ag50
(g54
S'p\xef|\xac&\xf2\xea?'
p270
tp271
Rp272
ag50
(g54
S'p\xef|\xac&\xf2\xea?'
p273
tp274
Rp275
ag50
(g54
S'`\xbd\xe0\x0e-b\xec?'
p276
tp277
Rp278
ag50
(g54
S'Y\xb4tIKD\xdb?'
p279
tp280
Rp281
ag50
(g54
S'\x13N\x93H\xc6_\xe8?'
p282
tp283
Rp284
ag50
(g54
S'\x13N\x93H\xc6_\xe8?'
p285
tp286
Rp287
ag50
(g54
S'\x13N\x93H\xc6_\xe8?'
p288
tp289
Rp290
ag50
(g54
S'\x06y\xc6\xfbTg\xe2?'
p291
tp292
Rp293
ag50
(g54
S'p\xef|\xac&\xf2\xea?'
p294
tp295
Rp296
ag50
(g54
S'\x06y\xc6\xfbTg\xe2?'
p297
tp298
Rp299
ag50
(g54
S'p\xef|\xac&\xf2\xea?'
p300
tp301
Rp302
ag50
(g54
S'\x13N\x93H\xc6_\xe8?'
p303
tp304
Rp305
ag50
(g54
S'\x13N\x93H\xc6_\xe8?'
p306
tp307
Rp308
ag50
(g54
S'\x80\xff\xc9\xcf\x83x\xec?'
p309
tp310
Rp311
ag50
(g54
S"\xd6'\x8bO\x00I\xd9?"
p312
tp313
Rp314
ag50
(g54
S'\x13N\x93H\xc6_\xe8?'
p315
tp316
Rp317
ag50
(g54
S'\x06y\xc6\xfbTg\xe2?'
p318
tp319
Rp320
ag50
(g54
S'Y\xb4tIKD\xdb?'
p321
tp322
Rp323
ag50
(g54
S'4\xa1\xb0\x83\x00G\xe8?'
p324
tp325
Rp326
ag50
(g54
S'Y\xb4tIKD\xdb?'
p327
tp328
Rp329
ag50
(g54
S'\x06y\xc6\xfbTg\xe2?'
p330
tp331
Rp332
ag50
(g54
S'p\xef|\xac&\xf2\xea?'
p333
tp334
Rp335
ag50
(g54
S'Y\xb4tIKD\xdb?'
p336
tp337
Rp338
ag50
(g54
S'\x17^\x18\xb6f\xc7\xe3?'
p339
tp340
Rp341
asS'sp'
p342
(lp343
(S'p0'
p344
I0
S'y'
p345
tp346
a(g344
I0
S'x'
p347
tp348
a(g344
I0
g347
tp349
a(g344
I0
g345
tp350
a(S'p1'
p351
I0
g345
tp352
a(g351
I0
S't'
p353
tp354
a(g351
I0
g345
tp355
ag355
a(g351
I0
g345
tp356
ag354
a(g351
F1.5707963267948966
g353
tp357
a(g351
I0
g353
tp358
ag358
ag357
ag358
ag358
a(g351
I0
g347
tp359
ag359
a(g344
I0
g347
tp360
ag350
a(g344
I0
g345
tp361
a(g344
I0
g353
tp362
a(g344
I0
g347
tp363
ag363
a(g344
I0
g347
tp364
ag364
ag364
ag349
ag350
ag361
ag352
ag356
ag354
ag359
ag359
ag359
ag359
ag359
ag360
ag350
ag362
a(g344
I0
g353
tp365
ag365
ag363
ag364
ag364
ag364
ag350
ag361
ag362
ag365
ag365
ag363
ag364
ag364
ag364
ag364
ag350
ag362
ag365
ag346
ag361
ag361
ag361
ag352
ag354
ag359
ag360
ag364
ag350
ag352
ag356
ag356
a(g351
I0
g345
tp366
ag354
ag354
ag354
ag354
ag357
ag358
ag357
ag358
ag358
ag358
ag359
a(g351
I0
g353
tp367
ag367
ag357
a(g351
F1.5707963267948966
g347
tp368
a(g351
F1.5707963267948966
g353
tp369
ag368
a(S'p2'
p370
F1.5707963267948966
g347
tp371
a(g370
F1.5707963267948966
g347
tp372
a(g370
F1.5707963267948966
g345
tp373
a(S'p3'
p374
F1.5707963267948966
g345
tp375
asS's'
p376
(lp377
(g344
I0
g22
tp378
ag346
ag348
ag349
ag350
ag352
ag354
ag355
ag355
ag356
ag354
ag357
ag358
ag358
ag357
ag358
ag358
ag359
ag359
ag360
ag350
ag361
ag362
ag363
ag363
ag364
ag364
ag364
ag349
ag350
ag361
ag352
ag356
ag354
ag359
ag359
ag359
ag359
ag359
ag360
ag350
ag362
ag365
ag365
ag363
ag364
ag364
ag364
ag350
ag361
ag362
ag365
ag365
ag363
ag364
ag364
ag364
ag364
ag350
ag362
ag365
ag346
ag361
ag361
ag361
ag352
ag354
ag359
ag360
ag364
ag350
ag352
ag356
ag356
ag366
ag354
ag354
ag354
ag354
ag357
ag358
ag357
ag358
ag358
ag358
ag359
ag367
ag367
ag357
ag368
ag369
ag368
ag371
ag372
ag373
asS'ui'
p379
(lp380
S'hs'
p381
aS'hp'
p382
ag382
ag382
aS'ss'
p383
ag382
ag381
ag381
ag382
ag382
ag342
ag383
ag342
ag342
ag382
ag342
ag382
ag381
ag383
ag382
ag342
ag383
ag381
ag381
ag342
ag381
ag383
ag383
ag382
ag382
ag383
ag382
ag382
ag381
ag381
ag381
ag381
ag381
ag381
ag382
ag342
ag381
ag342
ag381
ag382
ag382
ag382
ag382
ag381
ag342
ag381
ag381
ag383
ag382
ag381
ag382
ag382
ag382
ag383
ag383
ag381
ag342
ag381
ag381
ag381
ag382
ag342
ag383
ag382
ag382
ag383
ag383
ag383
ag381
ag382
ag342
ag383
ag383
ag381
ag382
ag383
ag381
ag381
ag383
ag381
ag381
ag383
ag342
ag382
ag381
ag382
ag383
ag383
ag381
ag383
asS'um_before'
p384
(lp385
g381
ag381
ag342
ag382
ag383
ag382
ag381
ag381
ag383
ag382
ag342
ag383
ag383
ag342
ag383
ag383
ag382
ag342
ag383
ag382
ag342
ag382
ag382
ag381
ag383
ag383
ag383
ag342
ag382
ag342
ag383
ag383
ag382
ag382
ag342
ag342
ag342
ag342
ag383
ag382
ag382
ag383
ag342
ag382
ag383
ag383
ag383
ag382
ag342
ag382
ag383
ag342
ag382
ag383
ag381
ag381
ag383
ag382
ag382
ag383
ag381
ag342
ag342
ag342
ag383
ag382
ag382
ag383
ag383
ag382
ag383
ag383
ag383
ag342
ag382
ag383
ag383
ag383
ag342
ag383
ag342
ag383
ag383
ag383
ag382
ag381
ag383
ag342
ag382
ag381
ag382
ag342
ag383
ag382
ag383
asS'um_after'
p386
(lp387
g381
ag381
ag342
ag382
ag383
ag382
ag381
aNag383
ag382
ag342
ag383
aNag342
ag383
aNag382
aNag383
ag382
ag342
ag382
ag382
aNag383
ag383
ag383
ag342
ag382
ag342
ag383
ag383
ag382
ag382
aNaNaNaNag383
ag382
ag382
ag383
aNag382
ag383
ag383
ag383
ag382
ag342
ag382
ag383
aNag382
ag383
aNaNag383
ag382
ag382
ag383
ag381
ag342
ag342
ag342
ag383
ag382
ag382
ag383
ag383
ag382
ag383
ag383
ag383
ag342
ag382
aNaNaNag342
ag383
ag342
ag383
aNaNag382
ag381
aNag342
ag382
ag381
ag382
ag342
ag383
ag382
ag383
asS'is_normalized_entropy_less_than_threshold'
p388
(lp389
g50
(g51
(S'b1'
p390
I0
I1
tp391
Rp392
(I3
S'|'
p393
NNNI-1
I-1
I0
tp394
bS'\x01'
p395
tp396
Rp397
ag397
ag50
(g392
S'\x00'
p398
tp399
Rp400
ag397
ag397
ag397
ag397
ag397
ag400
ag397
ag397
ag400
ag397
ag397
ag400
ag397
ag400
ag397
ag400
ag397
ag400
ag400
ag400
ag397
ag400
ag400
ag400
ag400
ag397
ag400
ag397
ag400
ag397
ag400
ag397
ag397
ag397
ag397
ag400
ag397
ag400
ag400
ag397
ag400
ag400
ag400
ag400
ag397
ag400
ag400
ag400
ag397
ag400
ag400
ag397
ag397
ag400
ag397
ag400
ag400
ag397
ag400
ag400
ag400
ag397
ag397
ag400
ag400
ag400
ag397
ag397
ag400
ag400
ag400
ag397
ag397
ag397
ag397
ag397
ag400
ag397
ag400
ag397
ag397
ag400
ag397
ag397
ag397
ag397
ag397
ag397
ag397
ag400
ag397
ag397
asaa(lp401
S'index'
p402
aI102183
aatp403
Rp404
.