ccollections
OrderedDict
p0
((lp1
(lp2
S'combination_dict'
p3
ag0
((lp4
(lp5
S'r_to_g_config'
p6
aS'tl'
p7
aa(lp8
S'num_turns'
p9
aI1
aa(lp10
S'start_direction'
p11
acutils_ms
StartDirection
p12
(I0
tp13
Rp14
aa(lp15
S'assistance_type'
p16
acutils_ms
AssistanceType
p17
(I0
tp18
Rp19
aa(lp20
S'start_mode'
p21
aS't'
p22
aa(lp23
S'ui_given_a_noise'
p24
aF0.7
aa(lp25
S'um_given_ui_noise'
p26
aF0.1
aa(lp27
S'entropy_threshold'
p28
aF0.9
aatp29
Rp30
aa(lp31
S'data'
p32
accollections
defaultdict
p33
(c__builtin__
list
p34
tp35
Rp36
S'a'
p37
(lp38
S'mode_r'
p39
aS'move_n'
p40
aS'mode_l'
p41
ag41
ag40
ag39
ag41
ag41
ag41
ag40
ag41
aS'move_p'
p42
ag42
ag41
ag41
ag41
ag41
ag42
ag41
ag41
ag42
ag41
ag39
ag42
ag41
ag41
ag42
ag42
ag41
ag42
ag39
ag42
ag39
asS'assistance_match_with_ground_truth'
p43
(lp44
I01
aI00
aI00
aI01
aI00
aI00
aI00
aI00
aI01
aI01
aI01
aI00
aI00
aI00
aI00
aI00
aI01
aI00
aI00
aI01
aI00
aI00
aI01
aI01
aI00
aI00
aI00
aI00
aI01
aI00
aI01
aI00
aI00
asS'is_u_intended_equals_um'
p45
(lp46
I01
aI01
aI01
aI01
aI01
aI01
aI01
aI01
aI01
aI01
aI01
aI01
aI01
aI01
aI01
aI01
aI01
aI01
aI01
aI01
aI01
aI01
aI01
aI01
aI01
aI01
aI01
aI01
aI01
aI01
aI01
aI01
aI01
asS'total_steps'
p47
I33
sS'normalized_h_of_p_ui_given_um'
p48
(lp49
cnumpy.core.multiarray
scalar
p50
(cnumpy
dtype
p51
(S'f8'
p52
I0
I1
tp53
Rp54
(I3
S'<'
p55
NNNI-1
I-1
I0
tp56
bS'\xa0\xf7\xe5\x9a\xa2k\xc1?'
p57
tp58
Rp59
ag50
(g54
S"'\x99SJ\x1eQ\xdd?"
p60
tp61
Rp62
ag50
(g54
S'\xce\x8e_\xa2"\xbe\xdc?'
p63
tp64
Rp65
ag50
(g54
S'\xc6\x83\x93|\x15\xcc\xc4?'
p66
tp67
Rp68
ag50
(g54
S'\xe4\x05\x82c\xb7k\xd7?'
p69
tp70
Rp71
ag50
(g54
S'\xdat}L\xcc\xb7\xeb?'
p72
tp73
Rp74
ag50
(g54
S'\xce\x8e_\xa2"\xbe\xdc?'
p75
tp76
Rp77
ag50
(g54
S'\xce\x8e_\xa2"\xbe\xdc?'
p78
tp79
Rp80
ag50
(g54
S'\xc6\x83\x93|\x15\xcc\xc4?'
p81
tp82
Rp83
ag50
(g54
S'\xca\x90\xaaZ\xfc\xf1\xc1?'
p84
tp85
Rp86
ag50
(g54
S'\xc6\x83\x93|\x15\xcc\xc4?'
p87
tp88
Rp89
ag50
(g54
S'Nq\x8b\xa5e\xf7\xd7?'
p90
tp91
Rp92
ag50
(g54
S'\xffi\x94\xb2M\xc5\xd2?'
p93
tp94
Rp95
ag50
(g54
S'\xce\x8e_\xa2"\xbe\xdc?'
p96
tp97
Rp98
ag50
(g54
S'\xce\x8e_\xa2"\xbe\xdc?'
p99
tp100
Rp101
ag50
(g54
S' \xb5\xfe/\xa6\x93\xd8?'
p102
tp103
Rp104
ag50
(g54
S'\xc6\x83\x93|\x15\xcc\xc4?'
p105
tp106
Rp107
ag50
(g54
S'\xffi\x94\xb2M\xc5\xd2?'
p108
tp109
Rp110
ag50
(g54
S' \xb5\xfe/\xa6\x93\xd8?'
p111
tp112
Rp113
ag50
(g54
S'\xc6\x83\x93|\x15\xcc\xc4?'
p114
tp115
Rp116
ag50
(g54
S'\xffi\x94\xb2M\xc5\xd2?'
p117
tp118
Rp119
ag50
(g54
S'\xe222;\x12\xde\xd9?'
p120
tp121
Rp122
ag50
(g54
S'\xa0\xf7\xe5\x9a\xa2k\xc1?'
p123
tp124
Rp125
ag50
(g54
S')H]A\x18\xac\xc3?'
p126
tp127
Rp128
ag50
(g54
S'\xce\x8e_\xa2"\xbe\xdc?'
p129
tp130
Rp131
ag50
(g54
S' \xb5\xfe/\xa6\x93\xd8?'
p132
tp133
Rp134
ag50
(g54
S'Nq\x8b\xa5e\xf7\xd7?'
p135
tp136
Rp137
ag50
(g54
S'\xffi\x94\xb2M\xc5\xd2?'
p138
tp139
Rp140
ag50
(g54
S'\xc6\x83\x93|\x15\xcc\xc4?'
p141
tp142
Rp143
ag50
(g54
S'z\x8aH\xae\x8d\x18\xe7?'
p144
tp145
Rp146
ag50
(g54
S'\xa0\xf7\xe5\x9a\xa2k\xc1?'
p147
tp148
Rp149
ag50
(g54
S'z\x8aH\xae\x8d\x18\xe7?'
p150
tp151
Rp152
ag50
(g54
S'\x18\x00\xcf\xe7\xb3~\xd2?'
p153
tp154
Rp155
asS'sp'
p156
(lp157
(S'p0'
p158
I0
S'x'
p159
tp160
a(g158
I0
S'y'
p161
tp162
a(g158
I0
g161
tp163
a(g158
I0
g159
tp164
a(g158
I0
S't'
p165
tp166
a(g158
I0
g161
tp167
ag163
ag163
ag164
a(S'p1'
p168
I0
g159
tp169
a(g168
I0
g165
tp170
a(g168
I0
g165
tp171
a(g168
I0
g159
tp172
a(g168
I0
g159
tp173
ag173
a(g168
I0
g159
tp174
ag170
ag172
ag174
ag170
ag172
a(g168
I0
g161
tp175
a(g168
I0
g165
tp176
a(g168
F1.5707963267948966
g165
tp177
a(g168
F1.5707963267948966
g165
tp178
a(g168
I0
g165
tp179
ag171
ag172
ag170
a(g168
I0
g161
tp180
ag176
ag180
a(S'p2'
p181
I0
g161
tp182
asS's'
p183
(lp184
(g158
I0
g22
tp185
ag160
ag162
ag163
ag164
ag166
ag167
ag163
ag163
ag164
ag169
ag170
ag171
ag172
ag173
ag173
ag174
ag170
ag172
ag174
ag170
ag172
ag175
ag176
ag177
ag178
ag179
ag171
ag172
ag170
ag180
ag176
ag180
asS'ui'
p186
(lp187
S'hp'
p188
ag188
ag188
aS'hs'
p189
aS'ss'
p190
ag188
ag189
ag156
ag189
ag190
ag189
ag190
ag188
ag156
ag156
ag188
ag189
ag188
ag190
ag189
ag188
ag156
ag188
ag156
ag156
ag190
ag190
ag156
ag189
ag189
ag188
ag188
ag156
asS'um_before'
p191
(lp192
g188
ag188
ag156
ag189
ag189
ag189
ag156
ag156
ag189
ag190
ag189
ag190
ag188
ag156
ag156
ag190
ag189
ag188
ag190
ag189
ag188
ag188
ag188
ag156
ag156
ag190
ag190
ag188
ag189
ag189
ag188
ag189
ag156
asS'um_after'
p193
(lp194
g188
ag188
ag156
ag189
ag189
ag189
ag156
ag156
ag189
ag190
ag189
ag190
ag188
ag156
ag156
ag190
ag189
ag188
ag190
ag189
ag188
ag188
ag188
ag156
ag156
ag190
ag190
ag188
ag189
ag189
ag188
ag189
ag156
asS'is_normalized_entropy_less_than_threshold'
p195
(lp196
g50
(g51
(S'b1'
p197
I0
I1
tp198
Rp199
(I3
S'|'
p200
NNNI-1
I-1
I0
tp201
bS'\x01'
p202
tp203
Rp204
ag204
ag204
ag204
ag204
ag204
ag204
ag204
ag204
ag204
ag204
ag204
ag204
ag204
ag204
ag204
ag204
ag204
ag204
ag204
ag204
ag204
ag204
ag204
ag204
ag204
ag204
ag204
ag204
ag204
ag204
ag204
ag204
asaa(lp205
S'index'
p206
aI29447
aatp207
Rp208
.