ccollections
OrderedDict
p0
((lp1
(lp2
S'combination_dict'
p3
ag0
((lp4
(lp5
S'r_to_g_config'
p6
aS'tl'
p7
aa(lp8
S'num_turns'
p9
aI3
aa(lp10
S'start_direction'
p11
acutils_ms
StartDirection
p12
(I1
tp13
Rp14
aa(lp15
S'assistance_type'
p16
acutils_ms
AssistanceType
p17
(I2
tp18
Rp19
aa(lp20
S'start_mode'
p21
aS'x'
p22
aa(lp23
S'ui_given_a_noise'
p24
aF0.1
aa(lp25
S'um_given_ui_noise'
p26
aF0.5
aa(lp27
S'entropy_threshold'
p28
aF0.9
aatp29
Rp30
aa(lp31
S'data'
p32
accollections
defaultdict
p33
(c__builtin__
list
p34
tp35
Rp36
S'a'
p37
(lp38
S'mode_r'
p39
aS'move_p'
p40
ag40
ag40
aS'mode_l'
p41
ag41
aS'move_n'
p42
ag39
ag40
ag41
ag39
ag39
ag42
ag39
ag39
ag41
ag39
ag39
ag41
ag40
ag40
ag41
ag42
ag39
ag41
ag41
ag41
ag40
ag41
ag39
ag39
ag39
ag42
ag41
ag41
ag42
ag41
ag41
ag42
ag39
ag41
ag39
ag40
ag41
ag41
ag41
ag42
ag39
ag39
ag39
ag40
ag41
ag41
ag41
ag41
ag42
ag39
ag39
ag40
ag39
ag39
ag40
ag40
ag40
ag39
ag40
ag39
ag40
ag39
ag39
ag41
ag42
asS'assistance_match_with_ground_truth'
p43
(lp44
I01
aI00
aI00
aI01
aI00
aI01
aI01
aI01
aI00
aI00
aI00
aI01
aI00
aI00
aI00
aI00
aI00
aI00
aI01
aI00
aI01
aI01
aI00
aI00
aI00
aI00
aI01
aI01
aI00
aI00
aI00
aI01
aI00
aI00
aI01
aI00
aI00
aI01
aI00
aI00
aI00
aI01
aI01
aI00
aI00
aI01
aI00
aI00
aI00
aI01
aI01
aI00
aI00
aI00
aI01
aI01
aI00
aI01
aI01
aI00
aI01
aI00
aI00
aI00
aI01
aI00
aI01
aI01
aI00
aI00
aI01
aI01
asS'is_u_intended_equals_um'
p45
(lp46
I01
aI01
aI01
aI01
aI01
aI01
aI01
aI01
aI01
aI01
aI01
aI01
aI01
aI01
aI01
aI01
aI01
aI01
aI01
aI01
aI01
aI01
aI01
aI01
aI01
aI01
aI01
aI01
aI01
aI01
aI01
aI01
aI01
aI01
aI01
aI01
aI01
aI01
aI01
aI01
aI01
aI01
aI01
aI01
aI01
aI01
aI01
aI01
aI01
aI01
aI01
aI01
aI01
aI01
aI01
aI01
aI01
aI01
aI01
aI01
aI01
aI01
aI01
aI01
aI01
aI01
aI01
aI01
aI01
aI01
aI01
aI01
asS'total_steps'
p47
I72
sS'normalized_h_of_p_ui_given_um'
p48
(lp49
cnumpy.core.multiarray
scalar
p50
(cnumpy
dtype
p51
(S'f8'
p52
I0
I1
tp53
Rp54
(I3
S'<'
p55
NNNI-1
I-1
I0
tp56
bS'\x05n\x9b\xd5\xce\xb4\xe5?'
p57
tp58
Rp59
ag59
ag59
ag59
ag59
ag59
ag59
ag59
ag59
ag59
ag59
ag59
ag59
ag59
ag59
ag59
ag59
ag59
ag59
ag59
ag59
ag59
ag59
ag59
ag59
ag59
ag59
ag59
ag59
ag59
ag59
ag59
ag59
ag59
ag59
ag59
ag59
ag59
ag59
ag59
ag59
ag59
ag59
ag59
ag59
ag59
ag59
ag59
ag59
ag59
ag59
ag59
ag59
ag59
ag59
ag59
ag59
ag59
ag59
ag59
ag59
ag59
ag59
ag59
ag59
ag59
ag59
ag59
ag59
ag59
ag59
ag59
asS'sp'
p60
(lp61
(S'p0'
p62
I0
S'y'
p63
tp64
a(g62
I0
g63
tp65
ag65
a(S'p1'
p66
I0
g63
tp67
a(g66
I0
g63
tp68
a(g66
I0
S'x'
p69
tp70
a(S'p2'
p71
I0
g69
tp72
a(g71
I0
g63
tp73
a(g66
I0
g63
tp74
a(g66
I0
S't'
p75
tp76
a(g66
I0
g75
tp77
a(g66
I0
g69
tp78
a(g62
I0
g69
tp79
a(g62
I0
g69
tp80
a(g62
I0
g75
tp81
a(g62
I0
g69
tp82
ag80
ag81
a(g62
I0
g63
tp83
ag65
ag67
ag70
ag79
ag81
a(g62
I0
g75
tp84
ag84
ag83
ag67
ag76
ag77
ag77
ag78
a(g66
I0
g63
tp85
ag68
ag70
ag85
ag68
ag70
ag79
ag81
ag82
ag64
ag67
ag68
ag68
ag70
ag79
ag80
ag80
ag64
ag67
ag68
ag68
ag68
ag70
ag72
a(g71
I0
g69
tp86
ag73
a(S'p3'
p87
I0
g63
tp88
a(g87
I0
g63
tp89
a(g87
I0
g75
tp90
a(g87
I0
g75
tp91
ag91
a(g87
I0
g63
tp92
ag90
ag92
ag90
a(g87
F1.5707963267948966
g75
tp93
a(g87
F1.5707963267948966
g75
tp94
a(g87
F1.5707963267948966
g63
tp95
a(g87
F1.5707963267948966
g69
tp96
a(S'p4'
p97
F1.5707963267948966
g69
tp98
asS's'
p99
(lp100
(g62
I0
g22
tp101
ag64
ag65
ag65
ag67
ag68
ag70
ag72
ag73
ag74
ag76
ag77
ag78
ag79
ag80
ag81
ag82
ag80
ag81
ag83
ag65
ag67
ag70
ag79
ag81
ag84
ag84
ag83
ag67
ag76
ag77
ag77
ag78
ag85
ag68
ag70
ag85
ag68
ag70
ag79
ag81
ag82
ag64
ag67
ag68
ag68
ag70
ag79
ag80
ag80
ag64
ag67
ag68
ag68
ag68
ag70
ag72
ag86
ag73
ag88
ag89
ag90
ag91
ag91
ag92
ag90
ag92
ag90
ag93
ag94
ag95
ag96
asS'ui'
p102
(lp103
S'hp'
p104
aS'ss'
p105
ag105
ag60
ag105
aS'hs'
p106
ag105
ag104
ag60
ag106
ag104
ag104
ag60
ag104
ag104
ag104
ag60
ag104
ag106
ag60
ag60
ag106
ag105
ag104
ag106
ag106
ag106
ag104
ag106
ag104
ag104
ag104
ag104
ag106
ag106
ag105
ag106
ag106
ag105
ag104
ag105
ag104
ag60
ag106
ag106
ag106
ag105
ag104
ag104
ag104
ag60
ag106
ag106
ag106
ag106
ag105
ag104
ag104
ag60
ag104
ag104
ag60
ag60
ag106
ag104
ag106
ag104
ag60
ag60
ag104
ag106
ag105
asS'um_before'
p107
(lp108
g104
ag105
ag105
ag60
ag105
ag106
ag105
ag104
ag105
ag104
ag60
ag104
ag60
ag60
ag106
ag104
ag60
ag106
ag106
ag105
ag60
ag106
ag60
ag106
ag105
ag105
ag106
ag60
ag104
ag60
ag60
ag104
ag104
ag105
ag106
ag104
ag105
ag106
ag60
ag106
ag104
ag104
ag60
ag105
ag105
ag106
ag60
ag60
ag60
ag104
ag60
ag105
ag105
ag105
ag106
ag105
ag60
ag104
ag60
ag60
ag104
ag105
ag105
ag106
ag104
ag106
ag104
ag60
ag60
ag106
ag106
ag105
asS'um_after'
p109
(lp110
g104
ag105
ag105
ag60
ag105
ag106
ag105
ag104
ag105
ag104
ag60
ag104
ag60
ag60
ag106
ag104
ag60
ag106
ag106
ag105
ag60
ag106
ag60
ag106
ag105
ag105
ag106
ag60
ag104
ag60
ag60
ag104
ag104
ag105
ag106
ag104
ag105
ag106
ag60
ag106
ag104
ag104
ag60
ag105
ag105
ag106
ag60
ag60
ag60
ag104
ag60
ag105
ag105
ag105
ag106
ag105
ag60
ag104
ag60
ag60
ag104
ag105
ag105
ag106
ag104
ag106
ag104
ag60
ag60
ag106
ag106
ag105
asS'is_normalized_entropy_less_than_threshold'
p111
(lp112
g50
(g51
(S'b1'
p113
I0
I1
tp114
Rp115
(I3
S'|'
p116
NNNI-1
I-1
I0
tp117
bS'\x01'
p118
tp119
Rp120
ag120
ag120
ag120
ag120
ag120
ag120
ag120
ag120
ag120
ag120
ag120
ag120
ag120
ag120
ag120
ag120
ag120
ag120
ag120
ag120
ag120
ag120
ag120
ag120
ag120
ag120
ag120
ag120
ag120
ag120
ag120
ag120
ag120
ag120
ag120
ag120
ag120
ag120
ag120
ag120
ag120
ag120
ag120
ag120
ag120
ag120
ag120
ag120
ag120
ag120
ag120
ag120
ag120
ag120
ag120
ag120
ag120
ag120
ag120
ag120
ag120
ag120
ag120
ag120
ag120
ag120
ag120
ag120
ag120
ag120
ag120
asaa(lp121
S'index'
p122
aI56144
aatp123
Rp124
.