ccollections
OrderedDict
p0
((lp1
(lp2
S'combination_dict'
p3
ag0
((lp4
(lp5
S'r_to_g_config'
p6
aS'tr'
p7
aa(lp8
S'num_turns'
p9
aI3
aa(lp10
S'start_direction'
p11
acutils_ms
StartDirection
p12
(I0
tp13
Rp14
aa(lp15
S'assistance_type'
p16
acutils_ms
AssistanceType
p17
(I1
tp18
Rp19
aa(lp20
S'start_mode'
p21
aS'y'
p22
aa(lp23
S'ui_given_a_noise'
p24
aF0.7
aa(lp25
S'um_given_ui_noise'
p26
aF0.1
aa(lp27
S'entropy_threshold'
p28
aF0.7
aatp29
Rp30
aa(lp31
S'data'
p32
accollections
defaultdict
p33
(c__builtin__
list
p34
tp35
Rp36
S'a'
p37
(lp38
S'mode_l'
p39
aS'mode_r'
p40
ag40
ag40
ag40
ag40
aS'move_p'
p41
ag41
ag40
ag41
ag40
ag41
ag40
ag41
ag40
ag41
ag39
ag41
ag39
ag41
ag39
ag41
ag40
ag39
ag39
ag41
ag39
ag41
ag41
ag40
ag41
ag39
ag41
ag39
ag41
ag40
ag39
ag39
ag41
ag40
asS'assistance_match_with_ground_truth'
p42
(lp43
I00
aI00
aI00
aI00
aI00
aI01
aI00
aI00
aI01
aI00
aI01
aI01
aI01
aI00
aI01
aI01
aI01
aI01
aI01
aI01
aI00
aI00
aI00
aI00
aI01
aI01
aI01
aI00
aI00
aI01
aI01
aI00
aI01
aI01
aI00
aI00
aI00
aI00
aI00
aI00
asS'is_u_intended_equals_um'
p44
(lp45
I01
aI01
aI01
aI01
aI01
aI01
aI01
aI01
aI01
aI01
aI01
aI01
aI01
aI01
aI01
aI01
aI01
aI01
aI01
aI00
aI01
aI01
aI01
aI01
aI01
aI01
aI01
aI01
aI01
aI01
aI01
aI01
aI01
aI01
aI01
aI01
aI01
aI01
aI01
aI01
asS'total_steps'
p46
I40
sS'normalized_h_of_p_ui_given_um'
p47
(lp48
cnumpy.core.multiarray
scalar
p49
(cnumpy
dtype
p50
(S'f8'
p51
I0
I1
tp52
Rp53
(I3
S'<'
p54
NNNI-1
I-1
I0
tp55
bS'\x1e\xf6\xad F\xad\xe0?'
p56
tp57
Rp58
ag49
(g53
S'\x7f\xa8<!40\xd5?'
p59
tp60
Rp61
ag49
(g53
S'\xf4%\x90\xdff\xea\xe3?'
p62
tp63
Rp64
ag49
(g53
S'\x7f\xa8<!40\xd5?'
p65
tp66
Rp67
ag49
(g53
S'\x7f\xa8<!40\xd5?'
p68
tp69
Rp70
ag49
(g53
S'\x84\xa3c\xf12\xbe\xbc?'
p71
tp72
Rp73
ag49
(g53
S'=o%/H\x83\xc9?'
p74
tp75
Rp76
ag49
(g53
S'\n\x0eG\x10b1\xda?'
p77
tp78
Rp79
ag49
(g53
S'\x84\xa3c\xf12\xbe\xbc?'
p80
tp81
Rp82
ag49
(g53
S'\n\x0eG\x10b1\xda?'
p83
tp84
Rp85
ag49
(g53
S'\x84\xa3c\xf12\xbe\xbc?'
p86
tp87
Rp88
ag49
(g53
S'SE0\xdd\xcf(\xbe?'
p89
tp90
Rp91
ag49
(g53
S'\x84\xa3c\xf12\xbe\xbc?'
p92
tp93
Rp94
ag49
(g53
S'\n\x0eG\x10b1\xda?'
p95
tp96
Rp97
ag49
(g53
S'\x84\xa3c\xf12\xbe\xbc?'
p98
tp99
Rp100
ag49
(g53
S'SE0\xdd\xcf(\xbe?'
p101
tp102
Rp103
ag49
(g53
S'F\xb0\xe9`x\x91\xca?'
p104
tp105
Rp106
ag49
(g53
S'SE0\xdd\xcf(\xbe?'
p107
tp108
Rp109
ag49
(g53
S'F\xb0\xe9`x\x91\xca?'
p110
tp111
Rp112
ag49
(g53
S'\xb5\x11\xccA`\xde\xe0?'
p113
tp114
Rp115
ag49
(g53
S'\x8f[\x83lV\xfe\xc6?'
p116
tp117
Rp118
ag49
(g53
S'\n\x0eG\x10b1\xda?'
p119
tp120
Rp121
ag49
(g53
S'\x7f\xa8<!40\xd5?'
p122
tp123
Rp124
ag49
(g53
S'\x8f[\x83lV\xfe\xc6?'
p125
tp126
Rp127
ag49
(g53
S'F\xb0\xe9`x\x91\xca?'
p128
tp129
Rp130
ag49
(g53
S'SE0\xdd\xcf(\xbe?'
p131
tp132
Rp133
ag49
(g53
S'F\xb0\xe9`x\x91\xca?'
p134
tp135
Rp136
ag49
(g53
S'=o%/H\x83\xc9?'
p137
tp138
Rp139
ag49
(g53
S'\n\x0eG\x10b1\xda?'
p140
tp141
Rp142
ag49
(g53
S'\x84\xa3c\xf12\xbe\xbc?'
p143
tp144
Rp145
ag49
(g53
S'SE0\xdd\xcf(\xbe?'
p146
tp147
Rp148
ag49
(g53
S'\x8f[\x83lV\xfe\xc6?'
p149
tp150
Rp151
ag49
(g53
S'SE0\xdd\xcf(\xbe?'
p152
tp153
Rp154
ag49
(g53
S'F\xb0\xe9`x\x91\xca?'
p155
tp156
Rp157
ag49
(g53
S'\n\x0eG\x10b1\xda?'
p158
tp159
Rp160
ag49
(g53
S'(\x8e\xa3)\xbdN\xdb?'
p161
tp162
Rp163
ag49
(g53
S'\xe6\x10\xed\x1920\xd8?'
p164
tp165
Rp166
ag49
(g53
S'\x8f[\x83lV\xfe\xc6?'
p167
tp168
Rp169
ag49
(g53
S'\n\x0eG\x10b1\xda?'
p170
tp171
Rp172
ag49
(g53
S'\xf4%\x90\xdff\xea\xe3?'
p173
tp174
Rp175
asS'sp'
p176
(lp177
(S'p0'
p178
I0
S't'
p179
tp180
a(g178
I0
g179
tp181
a(g178
I0
g179
tp182
ag181
ag181
a(g178
I0
S'x'
p183
tp184
a(g178
I0
g183
tp185
a(g178
I0
g179
tp186
ag184
ag186
ag184
a(S'p1'
p187
I0
g183
tp188
a(g187
I0
S'y'
p189
tp190
a(g187
I0
g183
tp191
ag190
a(S'p2'
p192
I0
g189
tp193
a(g192
I0
g183
tp194
a(S'p3'
p195
I0
g183
tp196
a(g195
I0
g179
tp197
a(g195
F1.5707963267948966
g179
tp198
a(g195
I0
g179
tp199
a(g195
I0
g189
tp200
a(g192
I0
g189
tp201
a(g192
I0
g189
tp202
ag194
ag196
ag197
a(g195
I0
g179
tp203
ag200
a(g195
I0
g179
tp204
ag198
ag199
ag198
a(g195
F1.5707963267948966
g189
tp205
a(g195
F1.5707963267948966
g183
tp206
a(g195
F1.5707963267948966
g179
tp207
a(g195
F1.5707963267948966
g179
tp208
ag199
ag200
a(S'p4'
p209
I0
g189
tp210
asS's'
p211
(lp212
(g178
I0
g22
tp213
ag180
ag181
ag182
ag181
ag181
ag184
ag185
ag186
ag184
ag186
ag184
ag188
ag190
ag191
ag190
ag193
ag194
ag196
ag197
ag198
ag199
ag200
ag201
ag202
ag194
ag196
ag197
ag203
ag200
ag204
ag198
ag199
ag198
ag205
ag206
ag207
ag208
ag199
ag200
asS'ui'
p214
(lp215
S'hs'
p216
aS'ss'
p217
aS'hp'
p218
ag217
ag217
ag218
ag217
ag217
ag218
ag216
ag218
ag176
ag218
ag216
ag218
ag176
ag216
ag176
ag216
ag218
ag217
ag216
ag217
ag217
ag216
ag176
ag216
ag217
ag216
ag218
ag176
ag217
ag176
ag216
ag176
ag216
ag176
ag217
ag216
ag217
asS'um_before'
p219
(lp220
g218
ag217
ag176
ag217
ag217
ag218
ag217
ag216
ag218
ag216
ag218
ag176
ag218
ag216
ag218
ag176
ag216
ag176
ag216
ag218
ag217
ag216
ag217
ag217
ag216
ag176
ag216
ag217
ag216
ag218
ag176
ag217
ag176
ag216
ag216
ag216
ag176
ag217
ag216
ag176
asS'um_after'
p221
(lp222
g218
ag217
ag176
ag217
ag217
ag218
ag217
ag216
ag218
ag216
ag218
ag176
ag218
ag216
ag218
ag176
ag216
ag176
ag216
ag176
ag217
ag216
ag217
ag217
ag216
ag176
ag216
ag217
ag216
ag218
ag176
ag217
ag176
ag216
ag216
ag216
ag176
ag217
ag216
ag176
asS'is_normalized_entropy_less_than_threshold'
p223
(lp224
g49
(g50
(S'b1'
p225
I0
I1
tp226
Rp227
(I3
S'|'
p228
NNNI-1
I-1
I0
tp229
bS'\x01'
p230
tp231
Rp232
ag232
ag232
ag232
ag232
ag232
ag232
ag232
ag232
ag232
ag232
ag232
ag232
ag232
ag232
ag232
ag232
ag232
ag232
ag232
ag232
ag232
ag232
ag232
ag232
ag232
ag232
ag232
ag232
ag232
ag232
ag232
ag232
ag232
ag232
ag232
ag232
ag232
ag232
ag232
asaa(lp233
S'index'
p234
aI22229
aatp235
Rp236
.