ccollections
OrderedDict
p0
((lp1
(lp2
S'combination_dict'
p3
ag0
((lp4
(lp5
S'r_to_g_config'
p6
aS'bl'
p7
aa(lp8
S'num_turns'
p9
aI2
aa(lp10
S'start_direction'
p11
acutils_ms
StartDirection
p12
(I1
tp13
Rp14
aa(lp15
S'assistance_type'
p16
acutils_ms
AssistanceType
p17
(I0
tp18
Rp19
aa(lp20
S'start_mode'
p21
aS't'
p22
aa(lp23
S'ui_given_a_noise'
p24
aF0.3
aa(lp25
S'um_given_ui_noise'
p26
aF0.7
aa(lp27
S'entropy_threshold'
p28
aF0.5
aatp29
Rp30
aa(lp31
S'data'
p32
accollections
defaultdict
p33
(c__builtin__
list
p34
tp35
Rp36
S'a'
p37
(lp38
S'mode_l'
p39
aS'move_n'
p40
aS'mode_r'
p41
aS'move_p'
p42
ag41
ag41
ag41
ag41
ag41
ag39
ag42
ag41
ag41
ag41
ag41
ag42
ag42
ag42
ag41
ag42
ag39
ag42
ag41
ag42
ag42
ag42
ag42
ag41
ag41
ag41
ag42
ag39
ag41
ag40
ag39
ag41
ag39
ag41
ag40
ag39
ag39
ag39
ag39
ag39
ag41
ag40
asS'assistance_match_with_ground_truth'
p43
(lp44
I01
aI01
aI01
aI00
aI00
aI00
aI00
aI00
aI00
aI01
aI00
aI00
aI00
aI00
aI01
aI00
aI00
aI01
aI00
aI00
aI01
aI00
aI01
aI00
aI00
aI00
aI00
aI00
aI00
aI01
aI00
aI00
aI01
aI00
aI00
aI00
aI00
aI01
aI00
aI00
aI00
aI00
aI00
aI00
aI01
aI01
asS'is_u_intended_equals_um'
p45
(lp46
I01
aI01
aI01
aI00
aI00
aI00
aI00
aI00
aI01
aI01
aI00
aI00
aI00
aI00
aI01
aI00
aI00
aI01
aI00
aI00
aI01
aI00
aI01
aI00
aI00
aI00
aI00
aI00
aI00
aI01
aI00
aI00
aI01
aI00
aI01
aI01
aI01
aI01
aI00
aI00
aI00
aI00
aI00
aI01
aI01
aI01
asS'total_steps'
p47
I46
sS'normalized_h_of_p_ui_given_um'
p48
(lp49
cnumpy.core.multiarray
scalar
p50
(cnumpy
dtype
p51
(S'f8'
p52
I0
I1
tp53
Rp54
(I3
S'<'
p55
NNNI-1
I-1
I0
tp56
bS'\xf8e#"\xf4\x1c\xda?'
p57
tp58
Rp59
ag50
(g54
S'\xfa\xd8\xefZ\x94\xe4\xe2?'
p60
tp61
Rp62
ag50
(g54
S'-)\xf6\xcb\xc3\xca\xd8?'
p63
tp64
Rp65
ag50
(g54
S'\xd9e\x97pe\xd0\xe6?'
p66
tp67
Rp68
ag50
(g54
S'L\xeer\x85\xc8\xc0\xe8?'
p69
tp70
Rp71
ag50
(g54
S'c)u\xea\xdfX\xe8?'
p72
tp73
Rp74
ag50
(g54
S'c)u\xea\xdfX\xe8?'
p75
tp76
Rp77
ag50
(g54
S'L\xeer\x85\xc8\xc0\xe8?'
p78
tp79
Rp80
ag50
(g54
S'\xe4g\x01j:\x9c\xec?'
p81
tp82
Rp83
ag50
(g54
S'\xf8e#"\xf4\x1c\xda?'
p84
tp85
Rp86
ag50
(g54
S'\xd9e\x97pe\xd0\xe6?'
p87
tp88
Rp89
ag50
(g54
S'L\xeer\x85\xc8\xc0\xe8?'
p90
tp91
Rp92
ag50
(g54
S'L\xeer\x85\xc8\xc0\xe8?'
p93
tp94
Rp95
ag50
(g54
S'L\xeer\x85\xc8\xc0\xe8?'
p96
tp97
Rp98
ag50
(g54
S'-)\xf6\xcb\xc3\xca\xd8?'
p99
tp100
Rp101
ag50
(g54
S'\xb8\xc6\xf4yy\xda\xec?'
p102
tp103
Rp104
ag50
(g54
S'\xb8\xc6\xf4yy\xda\xec?'
p105
tp106
Rp107
ag50
(g54
S'\x18\xd3\xe4c\xc9\xa9\xe1?'
p108
tp109
Rp110
ag50
(g54
S'c)u\xea\xdfX\xe8?'
p111
tp112
Rp113
ag50
(g54
S'\xa3\x00CY\xf4\xac\xe7?'
p114
tp115
Rp116
ag50
(g54
S'\xf8e#"\xf4\x1c\xda?'
p117
tp118
Rp119
ag50
(g54
S'\xd9e\x97pe\xd0\xe6?'
p120
tp121
Rp122
ag50
(g54
S'-)\xf6\xcb\xc3\xca\xd8?'
p123
tp124
Rp125
ag50
(g54
S'\xb8\xc6\xf4yy\xda\xec?'
p126
tp127
Rp128
ag50
(g54
S'\xb8\xc6\xf4yy\xda\xec?'
p129
tp130
Rp131
ag50
(g54
S'\xb8\xc6\xf4yy\xda\xec?'
p132
tp133
Rp134
ag50
(g54
S'\xd9e\x97pe\xd0\xe6?'
p135
tp136
Rp137
ag50
(g54
S'L\xeer\x85\xc8\xc0\xe8?'
p138
tp139
Rp140
ag50
(g54
S'L\xeer\x85\xc8\xc0\xe8?'
p141
tp142
Rp143
ag50
(g54
S'-)\xf6\xcb\xc3\xca\xd8?'
p144
tp145
Rp146
ag50
(g54
S'\xa3\x00CY\xf4\xac\xe7?'
p147
tp148
Rp149
ag50
(g54
S'\xdaw\xfd\xc4\xb3\xda\xe5?'
p150
tp151
Rp152
ag50
(g54
S'-)\xf6\xcb\xc3\xca\xd8?'
p153
tp154
Rp155
ag50
(g54
S'\x80\xf4\x06\xea\xf4\xe2\xe8?'
p156
tp157
Rp158
ag50
(g54
S'\xe8x:s\x88G\xed?'
p159
tp160
Rp161
ag50
(g54
S'\xe4g\x01j:\x9c\xec?'
p162
tp163
Rp164
ag50
(g54
S'\xe8x:s\x88G\xed?'
p165
tp166
Rp167
ag50
(g54
S'-)\xf6\xcb\xc3\xca\xd8?'
p168
tp169
Rp170
ag50
(g54
S'\x80\xf4\x06\xea\xf4\xe2\xe8?'
p171
tp172
Rp173
ag50
(g54
S'7\x06\xfa\x10\xd1x\xe4?'
p174
tp175
Rp176
ag50
(g54
S'7\x06\xfa\x10\xd1x\xe4?'
p177
tp178
Rp179
ag50
(g54
S'\xdaw\xfd\xc4\xb3\xda\xe5?'
p180
tp181
Rp182
ag50
(g54
S'\xdaw\xfd\xc4\xb3\xda\xe5?'
p183
tp184
Rp185
ag50
(g54
S'\xe8x:s\x88G\xed?'
p186
tp187
Rp188
ag50
(g54
S'-)\xf6\xcb\xc3\xca\xd8?'
p189
tp190
Rp191
ag50
(g54
S'\xfa\xd8\xefZ\x94\xe4\xe2?'
p192
tp193
Rp194
asS'sp'
p195
(lp196
(S'p0'
p197
I0
S'y'
p198
tp199
a(S'p1'
p200
I0
g198
tp201
a(g200
I0
S't'
p202
tp203
a(g200
I0
g198
tp204
a(g200
I0
g198
tp205
a(g200
I0
g198
tp206
ag206
ag205
a(g200
I0
S'x'
p207
tp208
a(g200
I0
g202
tp209
ag204
ag205
ag205
ag205
ag203
a(g200
I0
g202
tp210
ag210
a(g200
F1.5707963267948966
g202
tp211
a(g200
I0
g202
tp212
a(g200
I0
g207
tp213
ag209
ag204
ag203
ag210
ag210
ag210
ag204
ag205
ag205
ag203
ag213
a(S'p2'
p214
I0
g207
tp215
a(g214
I0
g198
tp216
a(g214
I0
g202
tp217
a(g214
I0
g207
tp218
a(g214
I0
g202
tp219
ag218
ag216
ag217
a(g214
I0
g202
tp220
ag220
a(g214
I0
g202
tp221
ag221
ag218
ag216
a(S'p3'
p222
I0
g198
tp223
asS's'
p224
(lp225
(g197
I0
g22
tp226
ag199
ag201
ag203
ag204
ag205
ag206
ag206
ag205
ag208
ag209
ag204
ag205
ag205
ag205
ag203
ag210
ag210
ag211
ag212
ag213
ag209
ag204
ag203
ag210
ag210
ag210
ag204
ag205
ag205
ag203
ag213
ag215
ag216
ag217
ag218
ag219
ag218
ag216
ag217
ag220
ag220
ag221
ag221
ag218
ag216
asS'ui'
p227
(lp228
S'hs'
p229
aS'ss'
p230
aS'hp'
p231
ag195
ag231
ag230
ag230
ag229
ag229
ag231
ag229
ag229
ag231
ag230
ag195
ag230
ag195
ag195
ag231
ag195
ag229
ag229
ag231
ag230
ag229
ag231
ag195
ag231
ag231
ag230
ag195
ag229
ag231
ag195
ag195
ag231
ag229
ag231
ag230
ag229
ag229
ag229
ag229
ag195
ag231
ag231
asS'um_before'
p232
(lp233
g229
ag230
ag231
ag229
ag195
ag230
ag230
ag195
ag229
ag229
ag229
ag195
ag195
ag195
ag231
ag230
ag230
ag195
ag230
ag231
ag229
ag229
ag231
ag230
ag230
ag230
ag229
ag195
ag195
ag231
ag231
ag230
ag231
ag231
ag231
ag229
ag231
ag231
ag231
ag195
ag195
ag230
ag230
ag231
ag231
ag230
asS'um_after'
p234
(lp235
g229
ag230
ag231
ag229
ag195
ag230
ag230
ag195
ag229
ag229
ag229
ag195
ag195
ag195
ag231
ag230
ag230
ag195
ag230
ag231
ag229
ag229
ag231
ag230
ag230
ag230
ag229
ag195
ag195
ag231
ag231
ag230
ag231
ag231
ag231
ag229
ag231
ag231
ag231
ag195
ag195
ag230
ag230
ag231
ag231
ag230
asS'is_normalized_entropy_less_than_threshold'
p236
(lp237
g50
(g51
(S'b1'
p238
I0
I1
tp239
Rp240
(I3
S'|'
p241
NNNI-1
I-1
I0
tp242
bS'\x01'
p243
tp244
Rp245
ag50
(g240
S'\x00'
p246
tp247
Rp248
ag245
ag248
ag248
ag248
ag248
ag248
ag248
ag245
ag248
ag248
ag248
ag248
ag245
ag248
ag248
ag248
ag248
ag248
ag245
ag248
ag245
ag248
ag248
ag248
ag248
ag248
ag248
ag245
ag248
ag248
ag245
ag248
ag248
ag248
ag248
ag245
ag248
ag248
ag248
ag248
ag248
ag248
ag245
ag248
asaa(lp249
S'index'
p250
aI73152
aatp251
Rp252
.