ccollections
OrderedDict
p0
((lp1
(lp2
S'combination_dict'
p3
ag0
((lp4
(lp5
S'r_to_g_config'
p6
aS'tr'
p7
aa(lp8
S'num_turns'
p9
aI3
aa(lp10
S'start_direction'
p11
acutils_ms
StartDirection
p12
(I0
tp13
Rp14
aa(lp15
S'assistance_type'
p16
acutils_ms
AssistanceType
p17
(I1
tp18
Rp19
aa(lp20
S'start_mode'
p21
aS't'
p22
aa(lp23
S'ui_given_a_noise'
p24
aF0.3
aa(lp25
S'um_given_ui_noise'
p26
aF0.5
aa(lp27
S'entropy_threshold'
p28
aF0.6
aatp29
Rp30
aa(lp31
S'data'
p32
accollections
defaultdict
p33
(c__builtin__
list
p34
tp35
Rp36
S'a'
p37
(lp38
S'mode_r'
p39
aS'mode_l'
p40
ag40
ag40
ag39
aS'move_p'
p41
ag39
ag39
ag40
ag40
ag41
ag40
ag40
ag41
ag40
ag40
ag40
ag41
ag40
ag40
ag41
ag40
ag41
ag40
ag40
ag39
ag41
ag40
ag41
ag40
ag40
ag41
asS'assistance_match_with_ground_truth'
p42
(lp43
I00
aI00
aI00
aI00
aI01
aI01
aI00
aI00
aI00
aI01
aI01
aI00
aI01
aI00
aI00
aI00
aI01
aI00
aI00
aI01
aI00
aI01
aI01
aI00
aI00
aI01
aI01
aI01
aI00
aI00
aI01
aI01
asS'is_u_intended_equals_um'
p44
(lp45
I00
aI00
aI00
aI00
aI01
aI01
aI00
aI00
aI00
aI01
aI01
aI00
aI01
aI00
aI00
aI00
aI01
aI00
aI00
aI01
aI00
aI01
aI01
aI00
aI00
aI01
aI01
aI01
aI00
aI00
aI01
aI01
asS'total_steps'
p46
I32
sS'normalized_h_of_p_ui_given_um'
p47
(lp48
cnumpy.core.multiarray
scalar
p49
(cnumpy
dtype
p50
(S'f8'
p51
I0
I1
tp52
Rp53
(I3
S'<'
p54
NNNI-1
I-1
I0
tp55
bS'\x0c;\xb9\xe5I\x07\xe6?'
p56
tp57
Rp58
ag49
(g53
S'fJ\x8dCg\xb5\xe5?'
p59
tp60
Rp61
ag49
(g53
S'fJ\x8dCg\xb5\xe5?'
p62
tp63
Rp64
ag49
(g53
S'\x92\xf6%\xb9\xe5 \xed?'
p65
tp66
Rp67
ag49
(g53
S'\x80\xa7\x13\xc7\xf03\xd2?'
p68
tp69
Rp70
ag49
(g53
S"$'\x82\x9e\xd3+\xd9?"
p71
tp72
Rp73
ag49
(g53
S'bH\x92\xe4\xe1P\xeb?'
p74
tp75
Rp76
ag49
(g53
S'\x0c;\xb9\xe5I\x07\xe6?'
p77
tp78
Rp79
ag49
(g53
S'\xd0\xefF\x86h\xb7\xe5?'
p80
tp81
Rp82
ag49
(g53
S'\xd1\xac\x9a\x15\x08E\xca?'
p83
tp84
Rp85
ag49
(g53
S"$'\x82\x9e\xd3+\xd9?"
p86
tp87
Rp88
ag49
(g53
S'\xd0\xefF\x86h\xb7\xe5?'
p89
tp90
Rp91
ag49
(g53
S'\xd1\xac\x9a\x15\x08E\xca?'
p92
tp93
Rp94
ag49
(g53
S'\x86~\xde\xabsd\xe7?'
p95
tp96
Rp97
ag49
(g53
S'fJ\x8dCg\xb5\xe5?'
p98
tp99
Rp100
ag49
(g53
S'\xd0\xefF\x86h\xb7\xe5?'
p101
tp102
Rp103
ag49
(g53
S'\xd1\xac\x9a\x15\x08E\xca?'
p104
tp105
Rp106
ag49
(g53
S'\x86~\xde\xabsd\xe7?'
p107
tp108
Rp109
ag49
(g53
S'fJ\x8dCg\xb5\xe5?'
p110
tp111
Rp112
ag49
(g53
S'\xd1\xac\x9a\x15\x08E\xca?'
p113
tp114
Rp115
ag49
(g53
S'\x86~\xde\xabsd\xe7?'
p116
tp117
Rp118
ag49
(g53
S'\xd1\xac\x9a\x15\x08E\xca?'
p119
tp120
Rp121
ag49
(g53
S"$'\x82\x9e\xd3+\xd9?"
p122
tp123
Rp124
ag49
(g53
S'\xd0\xefF\x86h\xb7\xe5?'
p125
tp126
Rp127
ag49
(g53
S'\x92\xf6%\xb9\xe5 \xed?'
p128
tp129
Rp130
ag49
(g53
S'\x80\xa7\x13\xc7\xf03\xd2?'
p131
tp132
Rp133
ag49
(g53
S"$'\x82\x9e\xd3+\xd9?"
p134
tp135
Rp136
ag49
(g53
S'\xd1\xac\x9a\x15\x08E\xca?'
p137
tp138
Rp139
ag49
(g53
S'\x86~\xde\xabsd\xe7?'
p140
tp141
Rp142
ag49
(g53
S'fJ\x8dCg\xb5\xe5?'
p143
tp144
Rp145
ag49
(g53
S'\xd1\xac\x9a\x15\x08E\xca?'
p146
tp147
Rp148
ag49
(g53
S"$'\x82\x9e\xd3+\xd9?"
p149
tp150
Rp151
asS'sp'
p152
(lp153
(S'p0'
p154
I0
S'y'
p155
tp156
a(g154
I0
g155
tp157
ag157
a(g154
I0
S't'
p158
tp159
a(g154
I0
S'x'
p160
tp161
a(S'p1'
p162
I0
g160
tp163
a(g162
I0
g160
tp164
a(g162
I0
g158
tp165
a(g162
I0
g158
tp166
a(g162
I0
g155
tp167
a(S'p2'
p168
I0
g155
tp169
a(g168
I0
g155
tp170
a(g168
I0
g160
tp171
a(g168
I0
g155
tp172
a(g168
I0
g155
tp173
ag170
ag171
ag172
ag173
ag171
ag172
ag171
a(S'p3'
p174
I0
g160
tp175
a(g174
I0
g160
tp176
a(g174
I0
g155
tp177
a(g174
I0
g158
tp178
a(g174
F1.5707963267948966
g158
tp179
a(g174
F1.5707963267948966
g155
tp180
a(g174
F1.5707963267948966
g158
tp181
a(g174
F1.5707963267948966
g158
tp182
ag180
a(S'p4'
p183
F1.5707963267948966
g155
tp184
asS's'
p185
(lp186
(g154
I0
g22
tp187
ag156
ag157
ag157
ag159
ag161
ag163
ag164
ag165
ag166
ag167
ag169
ag170
ag171
ag172
ag173
ag170
ag171
ag172
ag173
ag171
ag172
ag171
ag175
ag176
ag177
ag178
ag179
ag180
ag181
ag182
ag180
asS'ui'
p188
(lp189
g152
ag152
aS'hs'
p190
aS'ss'
p191
aS'hp'
p192
ag152
ag190
ag190
ag190
ag190
ag152
ag190
ag190
ag152
ag190
ag191
ag190
ag192
ag190
ag190
ag152
ag190
ag152
ag190
ag152
ag152
ag152
ag190
ag192
ag190
ag190
ag152
asS'um_before'
p193
(lp194
g190
ag152
ag152
ag192
ag192
ag152
ag191
ag190
ag191
ag190
ag152
ag191
ag190
ag192
ag152
ag191
ag190
ag192
ag152
ag190
ag192
ag190
ag152
ag191
ag192
ag192
ag152
ag190
ag192
ag152
ag190
ag152
asS'um_after'
p195
(lp196
g190
ag152
ag152
ag192
ag192
ag152
ag191
ag190
ag191
ag190
ag152
ag191
ag190
ag192
ag152
ag191
ag190
ag192
ag152
ag190
ag192
ag190
ag152
ag191
ag192
ag192
ag152
ag190
ag192
ag152
ag190
ag152
asS'is_normalized_entropy_less_than_threshold'
p197
(lp198
g49
(g50
(S'b1'
p199
I0
I1
tp200
Rp201
(I3
S'|'
p202
NNNI-1
I-1
I0
tp203
bS'\x00'
p204
tp205
Rp206
ag206
ag206
ag206
ag49
(g201
S'\x01'
p207
tp208
Rp209
ag209
ag206
ag206
ag206
ag209
ag209
ag206
ag209
ag206
ag206
ag206
ag209
ag206
ag206
ag209
ag206
ag209
ag209
ag206
ag206
ag209
ag209
ag209
ag206
ag206
ag209
ag209
asaa(lp210
S'index'
p211
aI21115
aatp212
Rp213
.