ccollections
OrderedDict
p0
((lp1
(lp2
S'combination_dict'
p3
ag0
((lp4
(lp5
S'r_to_g_config'
p6
aS'tl'
p7
aa(lp8
S'num_turns'
p9
aI3
aa(lp10
S'start_direction'
p11
acutils_ms
StartDirection
p12
(I0
tp13
Rp14
aa(lp15
S'assistance_type'
p16
acutils_ms
AssistanceType
p17
(I1
tp18
Rp19
aa(lp20
S'start_mode'
p21
aS't'
p22
aa(lp23
S'ui_given_a_noise'
p24
aF0.3
aa(lp25
S'um_given_ui_noise'
p26
aF0.5
aa(lp27
S'entropy_threshold'
p28
aF0.5
aatp29
Rp30
aa(lp31
S'data'
p32
accollections
defaultdict
p33
(c__builtin__
list
p34
tp35
Rp36
S'a'
p37
(lp38
S'mode_r'
p39
ag39
ag39
aS'move_n'
p40
ag40
ag40
ag39
ag40
ag39
aS'move_p'
p41
aS'mode_l'
p42
ag42
ag40
ag39
ag42
ag40
ag39
ag39
ag40
ag42
ag40
ag39
ag41
ag42
ag40
ag42
ag40
ag39
ag39
ag40
ag39
ag39
ag40
ag42
ag39
ag41
ag42
ag41
asS'assistance_match_with_ground_truth'
p43
(lp44
I00
aI00
aI01
aI00
aI00
aI00
aI01
aI01
aI01
aI00
aI00
aI01
aI00
aI00
aI01
aI00
aI00
aI01
aI00
aI01
aI01
aI01
aI01
aI01
aI00
aI01
aI00
aI00
aI01
aI00
aI00
aI01
aI01
aI00
aI01
aI01
aI01
aI01
asS'is_u_intended_equals_um'
p45
(lp46
I00
aI00
aI01
aI00
aI00
aI00
aI01
aI01
aI01
aI00
aI01
aI00
aI00
aI00
aI01
aI00
aI00
aI01
aI00
aI00
aI01
aI01
aI01
aI01
aI00
aI00
aI00
aI00
aI01
aI00
aI00
aI01
aI01
aI00
aI01
aI01
aI00
aI01
asS'total_steps'
p47
I38
sS'normalized_h_of_p_ui_given_um'
p48
(lp49
cnumpy.core.multiarray
scalar
p50
(cnumpy
dtype
p51
(S'f8'
p52
I0
I1
tp53
Rp54
(I3
S'<'
p55
NNNI-1
I-1
I0
tp56
bS'\xc8PB\x1d\xe1!\xe4?'
p57
tp58
Rp59
ag50
(g54
S'\xc8PB\x1d\xe1!\xe4?'
p60
tp61
Rp62
ag50
(g54
S'\xdc\xdef\xa2\x8a\xb1\xcc?'
p63
tp64
Rp65
ag50
(g54
S'\xbc\x8d\xb2z\x88\xa0\xe8?'
p66
tp67
Rp68
ag50
(g54
S'\xbc\x8d\xb2z\x88\xa0\xe8?'
p69
tp70
Rp71
ag50
(g54
S'\xd4\xca\x96\x87H\xb8\xe9?'
p72
tp73
Rp74
ag50
(g54
S'\xdc\xdef\xa2\x8a\xb1\xcc?'
p75
tp76
Rp77
ag50
(g54
S'\xca\x96\x7f\xf4.\xbb\xcb?'
p78
tp79
Rp80
ag50
(g54
S'\xdc\xdef\xa2\x8a\xb1\xcc?'
p81
tp82
Rp83
ag50
(g54
S'\x94\xd1N\xa0Eh\xeb?'
p84
tp85
Rp86
ag50
(g54
S'zKs{\xa3\xdf\xe3?'
p87
tp88
Rp89
ag50
(g54
S'\x19\xc5"\xf1\xd4\r\xdd?'
p90
tp91
Rp92
ag50
(g54
S'\xd4\xca\x96\x87H\xb8\xe9?'
p93
tp94
Rp95
ag50
(g54
S'G\xcc\rK\xf7U\xe1?'
p96
tp97
Rp98
ag50
(g54
S'\x14\xe5_k\xb9\xe3\xcb?'
p99
tp100
Rp101
ag50
(g54
S'\xd4\xca\x96\x87H\xb8\xe9?'
p102
tp103
Rp104
ag50
(g54
S'\xc8PB\x1d\xe1!\xe4?'
p105
tp106
Rp107
ag50
(g54
S'\xdc\xdef\xa2\x8a\xb1\xcc?'
p108
tp109
Rp110
ag50
(g54
S'T\xe6\x87\x9e\x87g\xe2?'
p111
tp112
Rp113
ag50
(g54
S'\x19\xc5"\xf1\xd4\r\xdd?'
p114
tp115
Rp116
ag50
(g54
S'\xca\x96\x7f\xf4.\xbb\xcb?'
p117
tp118
Rp119
ag50
(g54
S'\xdc\xdef\xa2\x8a\xb1\xcc?'
p120
tp121
Rp122
ag50
(g54
S'0\xa2\x96:\xdb\x1e\xd5?'
p123
tp124
Rp125
ag50
(g54
S'\x14\xe5_k\xb9\xe3\xcb?'
p126
tp127
Rp128
ag50
(g54
S'T\xe6\x87\x9e\x87g\xe2?'
p129
tp130
Rp131
ag50
(g54
S'\x19\xc5"\xf1\xd4\r\xdd?'
p132
tp133
Rp134
ag50
(g54
S'\xd4\xca\x96\x87H\xb8\xe9?'
p135
tp136
Rp137
ag50
(g54
S"\x88\xf3W\x8cT'\xe1?"
p138
tp139
Rp140
ag50
(g54
S'\xdc\xdef\xa2\x8a\xb1\xcc?'
p141
tp142
Rp143
ag50
(g54
S'\xd4\xca\x96\x87H\xb8\xe9?'
p144
tp145
Rp146
ag50
(g54
S'\xc8PB\x1d\xe1!\xe4?'
p147
tp148
Rp149
ag50
(g54
S'\xdc\xdef\xa2\x8a\xb1\xcc?'
p150
tp151
Rp152
ag50
(g54
S'\xca\x96\x7f\xf4.\xbb\xcb?'
p153
tp154
Rp155
ag50
(g54
S'\x027\x86\x86&*\xe2?'
p156
tp157
Rp158
ag50
(g54
S'\xdc\xdef\xa2\x8a\xb1\xcc?'
p159
tp160
Rp161
ag50
(g54
S'0\xa2\x96:\xdb\x1e\xd5?'
p162
tp163
Rp164
ag50
(g54
S'\x19\xc5"\xf1\xd4\r\xdd?'
p165
tp166
Rp167
ag50
(g54
S'0\xa2\x96:\xdb\x1e\xd5?'
p168
tp169
Rp170
asS'sp'
p171
(lp172
(S'p0'
p173
I0
S't'
p174
tp175
ag175
a(g173
I0
S'x'
p176
tp177
a(g173
I0
g176
tp178
ag178
a(g173
I0
g174
tp179
ag177
a(S'p1'
p180
I0
g176
tp181
a(g180
I0
S'y'
p182
tp183
a(g173
I0
g182
tp184
a(g173
I0
g182
tp185
a(g173
I0
g176
tp186
ag179
a(g173
I0
g182
tp187
ag186
ag179
ag175
ag177
a(g173
I0
g182
tp188
ag186
ag181
ag183
a(S'p2'
p189
I0
g182
tp190
a(g189
I0
g176
tp191
a(g189
I0
g182
tp192
ag191
a(g189
I0
g174
tp193
a(g189
I0
g174
tp194
a(g189
I0
g176
tp195
ag193
a(g189
I0
g174
tp196
ag195
a(S'p3'
p197
I0
g176
tp198
a(g197
I0
g182
tp199
a(g197
I0
g174
tp200
a(g197
F1.5707963267948966
g174
tp201
a(g197
F1.5707963267948966
g182
tp202
a(S'p4'
p203
F1.5707963267948966
g182
tp204
asS's'
p205
(lp206
(g173
I0
g22
tp207
ag175
ag175
ag177
ag178
ag178
ag179
ag177
ag181
ag183
ag184
ag185
ag186
ag179
ag187
ag186
ag179
ag175
ag177
ag188
ag186
ag181
ag183
ag190
ag191
ag192
ag191
ag193
ag194
ag195
ag193
ag196
ag195
ag198
ag199
ag200
ag201
ag202
asS'ui'
p208
(lp209
S'hp'
p210
ag210
ag210
aS'ss'
p211
ag211
ag210
ag211
ag211
ag210
ag211
aS'hs'
p212
ag212
ag212
ag211
ag212
ag211
ag210
ag210
ag211
ag212
ag211
ag210
ag171
ag212
ag212
ag212
ag211
ag210
ag211
ag212
ag210
ag210
ag211
ag212
ag210
ag171
ag212
ag171
asS'um_before'
p213
(lp214
g171
ag171
ag210
ag171
ag171
ag212
ag210
ag211
ag210
ag211
ag211
ag171
ag212
ag212
ag212
ag212
ag171
ag210
ag210
ag171
ag211
ag210
ag171
ag212
ag210
ag171
ag212
ag211
ag210
ag212
ag171
ag210
ag211
ag210
ag210
ag171
ag171
ag171
asS'um_after'
p215
(lp216
g171
ag171
ag210
ag171
ag171
ag212
ag210
ag211
ag210
ag211
ag211
ag212
ag212
ag212
ag212
ag212
ag171
ag210
ag210
ag212
ag211
ag210
ag171
ag212
ag210
ag212
ag212
ag211
ag210
ag212
ag171
ag210
ag211
ag210
ag210
ag171
ag212
ag171
asS'is_normalized_entropy_less_than_threshold'
p217
(lp218
g50
(g51
(S'b1'
p219
I0
I1
tp220
Rp221
(I3
S'|'
p222
NNNI-1
I-1
I0
tp223
bS'\x00'
p224
tp225
Rp226
ag226
ag50
(g221
S'\x01'
p227
tp228
Rp229
ag226
ag226
ag226
ag229
ag229
ag229
ag226
ag226
ag229
ag226
ag226
ag229
ag226
ag226
ag229
ag226
ag229
ag229
ag229
ag229
ag229
ag226
ag229
ag226
ag226
ag229
ag226
ag226
ag229
ag229
ag226
ag229
ag229
ag229
ag229
asaa(lp230
S'index'
p231
aI49909
aatp232
Rp233
.