ccollections
OrderedDict
p0
((lp1
(lp2
S'combination_dict'
p3
ag0
((lp4
(lp5
S'r_to_g_config'
p6
aS'tl'
p7
aa(lp8
S'num_turns'
p9
aI3
aa(lp10
S'start_direction'
p11
acutils_ms
StartDirection
p12
(I1
tp13
Rp14
aa(lp15
S'assistance_type'
p16
acutils_ms
AssistanceType
p17
(I2
tp18
Rp19
aa(lp20
S'start_mode'
p21
aS't'
p22
aa(lp23
S'ui_given_a_noise'
p24
aF0.3
aa(lp25
S'um_given_ui_noise'
p26
aF0.5
aa(lp27
S'entropy_threshold'
p28
aF0.6
aatp29
Rp30
aa(lp31
S'data'
p32
accollections
defaultdict
p33
(c__builtin__
list
p34
tp35
Rp36
S'a'
p37
(lp38
S'mode_l'
p39
aS'mode_r'
p40
ag39
ag39
aS'move_p'
p41
ag40
ag40
ag40
ag40
ag40
ag40
ag41
ag41
ag40
ag41
ag40
ag40
ag40
aS'move_n'
p42
ag40
ag40
ag40
ag40
ag41
ag41
ag40
ag41
ag39
ag39
ag42
ag40
ag40
ag39
ag41
ag40
ag40
ag40
ag41
ag40
ag40
ag40
ag40
ag40
ag41
ag40
ag40
ag41
ag39
ag39
ag39
ag39
ag42
ag40
ag40
ag42
asS'assistance_match_with_ground_truth'
p43
(lp44
I00
aI00
aI00
aI01
aI00
aI00
aI00
aI00
aI00
aI00
aI01
aI00
aI01
aI01
aI01
aI00
aI00
aI01
aI00
aI00
aI00
aI00
aI01
aI00
aI00
aI01
aI01
aI00
aI01
aI01
aI00
aI00
aI01
aI00
aI00
aI00
aI01
aI00
aI00
aI00
aI00
aI00
aI01
aI00
aI00
aI01
aI01
aI00
aI00
aI00
aI01
aI00
aI00
aI01
aI01
asS'is_u_intended_equals_um'
p45
(lp46
I01
aI01
aI01
aI01
aI01
aI01
aI01
aI01
aI01
aI01
aI01
aI01
aI01
aI01
aI01
aI01
aI01
aI01
aI01
aI01
aI01
aI01
aI01
aI01
aI01
aI01
aI01
aI01
aI01
aI01
aI01
aI01
aI01
aI01
aI01
aI01
aI01
aI01
aI01
aI01
aI01
aI01
aI01
aI01
aI01
aI01
aI01
aI01
aI01
aI01
aI01
aI01
aI01
aI01
aI01
asS'total_steps'
p47
I55
sS'normalized_h_of_p_ui_given_um'
p48
(lp49
cnumpy.core.multiarray
scalar
p50
(cnumpy
dtype
p51
(S'f8'
p52
I0
I1
tp53
Rp54
(I3
S'<'
p55
NNNI-1
I-1
I0
tp56
bS'\x05n\x9b\xd5\xce\xb4\xe5?'
p57
tp58
Rp59
ag59
ag59
ag59
ag59
ag59
ag59
ag59
ag59
ag59
ag59
ag59
ag59
ag59
ag59
ag59
ag59
ag59
ag59
ag59
ag59
ag59
ag59
ag59
ag59
ag59
ag59
ag59
ag59
ag59
ag59
ag59
ag59
ag59
ag59
ag59
ag59
ag59
ag59
ag59
ag59
ag59
ag59
ag59
ag59
ag59
ag59
ag59
ag59
ag59
ag59
ag59
ag59
ag59
ag59
asS'sp'
p60
(lp61
(S'p0'
p62
I0
S'x'
p63
tp64
a(g62
I0
S't'
p65
tp66
a(g62
I0
g65
tp67
a(g62
I0
S'y'
p68
tp69
a(g62
I0
g63
tp70
a(g62
I0
g63
tp71
ag71
ag71
ag71
a(g62
I0
g63
tp72
a(g62
I0
g68
tp73
a(g62
I0
g68
tp74
a(S'p1'
p75
I0
g68
tp76
a(g75
I0
g65
tp77
a(g75
F1.5707963267948966
g65
tp78
a(g75
F1.5707963267948966
g65
tp79
ag79
a(g75
F1.5707963267948966
g63
tp80
a(g62
F1.5707963267948966
g63
tp81
a(g62
F1.5707963267948966
g63
tp82
ag82
ag82
a(g62
F1.5707963267948966
g68
tp83
a(g62
F1.5707963267948966
g68
tp84
a(g62
F1.5707963267948966
g63
tp85
ag83
a(g75
F1.5707963267948966
g68
tp86
a(g75
F1.5707963267948966
g68
tp87
a(g75
F1.5707963267948966
g63
tp88
a(S'p2'
p89
F1.5707963267948966
g63
tp90
a(g89
F1.5707963267948966
g63
tp91
a(g89
F1.5707963267948966
g65
tp92
a(g89
F1.5707963267948966
g68
tp93
a(g89
F1.5707963267948966
g63
tp94
ag91
a(g89
F1.5707963267948966
g63
tp95
a(g89
F1.5707963267948966
g68
tp96
ag94
ag91
ag91
ag95
ag91
ag96
ag94
ag91
ag96
a(S'p3'
p97
F1.5707963267948966
g68
tp98
a(g97
F1.5707963267948966
g68
tp99
a(g97
F1.5707963267948966
g68
tp100
ag99
a(g97
F1.5707963267948966
g63
tp101
a(g97
F1.5707963267948966
g65
tp102
a(g97
F1.5707963267948966
g65
tp103
a(g97
F1.5707963267948966
g63
tp104
a(S'p4'
p105
F1.5707963267948966
g63
tp106
asS's'
p107
(lp108
(g62
I0
g22
tp109
ag64
ag66
ag67
ag69
ag70
ag71
ag71
ag71
ag71
ag72
ag73
ag74
ag76
ag77
ag78
ag79
ag79
ag80
ag81
ag82
ag82
ag82
ag83
ag84
ag85
ag83
ag86
ag87
ag88
ag90
ag91
ag92
ag93
ag94
ag91
ag95
ag96
ag94
ag91
ag91
ag95
ag91
ag96
ag94
ag91
ag96
ag98
ag99
ag100
ag99
ag101
ag102
ag103
ag104
asS'ui'
p110
(lp111
S'hp'
p112
ag112
aS'hs'
p113
ag113
ag113
ag112
ag60
aS'ss'
p114
ag60
ag113
ag112
ag60
ag60
ag112
ag60
ag60
ag113
ag112
ag114
ag60
ag60
ag60
ag112
ag60
ag113
ag112
ag60
ag113
ag113
ag114
ag112
ag113
ag60
ag113
ag60
ag113
ag112
ag114
ag112
ag113
ag113
ag112
ag112
ag60
ag60
ag112
ag60
ag113
ag113
ag60
ag113
ag113
ag112
ag112
ag114
asS'um_before'
p115
(lp116
g112
ag113
ag114
ag113
ag113
ag60
ag60
ag60
ag60
ag114
ag112
ag114
ag60
ag112
ag60
ag60
ag60
ag112
ag60
ag60
ag60
ag60
ag112
ag114
ag113
ag112
ag60
ag60
ag113
ag114
ag60
ag113
ag113
ag113
ag60
ag114
ag112
ag113
ag60
ag60
ag114
ag60
ag112
ag113
ag60
ag112
ag60
ag114
ag60
ag114
ag113
ag113
ag60
ag112
ag114
asS'um_after'
p117
(lp118
g112
ag113
ag114
ag113
ag113
ag60
ag60
ag60
ag60
ag114
ag112
ag114
ag60
ag112
ag60
ag60
ag60
ag112
ag60
ag60
ag60
ag60
ag112
ag114
ag113
ag112
ag60
ag60
ag113
ag114
ag60
ag113
ag113
ag113
ag60
ag114
ag112
ag113
ag60
ag60
ag114
ag60
ag112
ag113
ag60
ag112
ag60
ag114
ag60
ag114
ag113
ag113
ag60
ag112
ag114
asS'is_normalized_entropy_less_than_threshold'
p119
(lp120
g50
(g51
(S'b1'
p121
I0
I1
tp122
Rp123
(I3
S'|'
p124
NNNI-1
I-1
I0
tp125
bS'\x01'
p126
tp127
Rp128
ag128
ag128
ag128
ag128
ag128
ag128
ag128
ag128
ag128
ag128
ag128
ag128
ag128
ag128
ag128
ag128
ag128
ag128
ag128
ag128
ag128
ag128
ag128
ag128
ag128
ag128
ag128
ag128
ag128
ag128
ag128
ag128
ag128
ag128
ag128
ag128
ag128
ag128
ag128
ag128
ag128
ag128
ag128
ag128
ag128
ag128
ag128
ag128
ag128
ag128
ag128
ag128
ag128
ag128
asaa(lp129
S'index'
p130
aI57119
aatp131
Rp132
.