ccollections
OrderedDict
p0
((lp1
(lp2
S'combination_dict'
p3
ag0
((lp4
(lp5
S'r_to_g_config'
p6
aS'br'
p7
aa(lp8
S'num_turns'
p9
aI3
aa(lp10
S'start_direction'
p11
acutils_ms
StartDirection
p12
(I1
tp13
Rp14
aa(lp15
S'assistance_type'
p16
acutils_ms
AssistanceType
p17
(I1
tp18
Rp19
aa(lp20
S'start_mode'
p21
aS'x'
p22
aa(lp23
S'ui_given_a_noise'
p24
aF0.3
aa(lp25
S'um_given_ui_noise'
p26
aF0.5
aa(lp27
S'entropy_threshold'
p28
aF0.7
aatp29
Rp30
aa(lp31
S'data'
p32
accollections
defaultdict
p33
(c__builtin__
list
p34
tp35
Rp36
S'a'
p37
(lp38
S'mode_r'
p39
aS'mode_l'
p40
aS'move_n'
p41
ag39
ag41
ag40
ag41
ag40
ag40
ag39
ag40
aS'move_p'
p42
ag40
ag42
ag39
ag42
ag40
ag42
ag40
ag39
ag41
ag40
ag42
ag39
ag39
ag40
ag40
ag42
ag40
ag41
ag40
ag41
ag40
ag41
ag39
ag40
ag41
ag40
ag42
ag39
ag41
ag40
ag42
ag39
ag39
ag42
ag39
ag42
asS'assistance_match_with_ground_truth'
p43
(lp44
I00
aI01
aI00
aI01
aI00
aI01
aI01
aI00
aI00
aI00
aI01
aI01
aI01
aI00
aI01
aI01
aI00
aI01
aI00
aI01
aI01
aI01
aI00
aI00
aI00
aI00
aI00
aI01
aI01
aI00
aI01
aI00
aI01
aI00
aI00
aI01
aI00
aI01
aI01
aI01
aI01
aI01
aI00
aI00
aI01
aI00
aI01
aI01
asS'is_u_intended_equals_um'
p45
(lp46
I00
aI01
aI00
aI00
aI01
aI01
aI01
aI00
aI00
aI00
aI01
aI01
aI01
aI00
aI01
aI01
aI00
aI00
aI00
aI01
aI01
aI01
aI00
aI00
aI00
aI01
aI00
aI01
aI01
aI01
aI01
aI01
aI01
aI00
aI00
aI01
aI00
aI01
aI01
aI01
aI01
aI01
aI00
aI00
aI01
aI00
aI01
aI00
asS'total_steps'
p47
I48
sS'normalized_h_of_p_ui_given_um'
p48
(lp49
cnumpy.core.multiarray
scalar
p50
(cnumpy
dtype
p51
(S'f8'
p52
I0
I1
tp53
Rp54
(I3
S'<'
p55
NNNI-1
I-1
I0
tp56
bS'$\xc7\xc7_BX\xe8?'
p57
tp58
Rp59
ag50
(g54
S'\xf7x{>a\x1d\xe0?'
p60
tp61
Rp62
ag50
(g54
S'zs\x07\x9d\xb1\n\xe7?'
p63
tp64
Rp65
ag50
(g54
S'\x16\xab\xd4P|\xa9\xe4?'
p66
tp67
Rp68
ag50
(g54
S'\x83\x1d.\xb5\xf29\xe9?'
p69
tp70
Rp71
ag50
(g54
S'\xf7x{>a\x1d\xe0?'
p72
tp73
Rp74
ag50
(g54
S'\xd7\x83e\x1ci\xb2\xd8?'
p75
tp76
Rp77
ag50
(g54
S"\xde\xa5j\x8c'\xd6\xe8?"
p78
tp79
Rp80
ag50
(g54
S'p\xde\xb2R\xa1\r\xeb?'
p81
tp82
Rp83
ag50
(g54
S'$\xc7\xc7_BX\xe8?'
p84
tp85
Rp86
ag50
(g54
S'\xf7x{>a\x1d\xe0?'
p87
tp88
Rp89
ag50
(g54
S'\xaf\xb2q\x08p\x90\xd7?'
p90
tp91
Rp92
ag50
(g54
S'\xf7x{>a\x1d\xe0?'
p93
tp94
Rp95
ag50
(g54
S'\xe1\x0f\xd1\x97\x89\xf7\xe6?'
p96
tp97
Rp98
ag50
(g54
S'\xfb\x8f\xfa?\xde\xbc\xd3?'
p99
tp100
Rp101
ag50
(g54
S'\xaf\xb2q\x08p\x90\xd7?'
p102
tp103
Rp104
ag50
(g54
S"\xde\xa5j\x8c'\xd6\xe8?"
p105
tp106
Rp107
ag50
(g54
S'\xd4`1\x0f\xa9\xe8\xe3?'
p108
tp109
Rp110
ag50
(g54
S'p\xde\xb2R\xa1\r\xeb?'
p111
tp112
Rp113
ag50
(g54
S'\xfb\x8f\xfa?\xde\xbc\xd3?'
p114
tp115
Rp116
ag50
(g54
S'\xd7\x83e\x1ci\xb2\xd8?'
p117
tp118
Rp119
ag50
(g54
S'\xf7x{>a\x1d\xe0?'
p120
tp121
Rp122
ag50
(g54
S'|\x1c[\t\x84A\xe8?'
p123
tp124
Rp125
ag50
(g54
S'%\xf5\xc5\x0f?N\xea?'
p126
tp127
Rp128
ag50
(g54
S'$\xc7\xc7_BX\xe8?'
p129
tp130
Rp131
ag50
(g54
S'}c\xf8J\x0b\xfd\xec?'
p132
tp133
Rp134
ag50
(g54
S"\xde\xa5j\x8c'\xd6\xe8?"
p135
tp136
Rp137
ag50
(g54
S'\xaf\xb2q\x08p\x90\xd7?'
p138
tp139
Rp140
ag50
(g54
S'\xf7x{>a\x1d\xe0?'
p141
tp142
Rp143
ag50
(g54
S'\x83\x1d.\xb5\xf29\xe9?'
p144
tp145
Rp146
ag50
(g54
S'\xf7x{>a\x1d\xe0?'
p147
tp148
Rp149
ag50
(g54
S'\x83\x1d.\xb5\xf29\xe9?'
p150
tp151
Rp152
ag50
(g54
S'\xf7x{>a\x1d\xe0?'
p153
tp154
Rp155
ag50
(g54
S'zs\x07\x9d\xb1\n\xe7?'
p156
tp157
Rp158
ag50
(g54
S'$\xc7\xc7_BX\xe8?'
p159
tp160
Rp161
ag50
(g54
S'\xf7x{>a\x1d\xe0?'
p162
tp163
Rp164
ag50
(g54
S'\xc9\xf5\x83zf\xca\xe8?'
p165
tp166
Rp167
ag50
(g54
S'\xf7x{>a\x1d\xe0?'
p168
tp169
Rp170
ag50
(g54
S'\xaf\xb2q\x08p\x90\xd7?'
p171
tp172
Rp173
ag50
(g54
S'\xfb\x8f\xfa?\xde\xbc\xd3?'
p174
tp175
Rp176
ag50
(g54
S'\xd7\x83e\x1ci\xb2\xd8?'
p177
tp178
Rp179
ag50
(g54
S'\xf7x{>a\x1d\xe0?'
p180
tp181
Rp182
ag50
(g54
S'\xe1\x0f\xd1\x97\x89\xf7\xe6?'
p183
tp184
Rp185
ag50
(g54
S'%\xf5\xc5\x0f?N\xea?'
p186
tp187
Rp188
ag50
(g54
S'\xfb\x8f\xfa?\xde\xbc\xd3?'
p189
tp190
Rp191
ag50
(g54
S'\xe1\x0f\xd1\x97\x89\xf7\xe6?'
p192
tp193
Rp194
ag50
(g54
S'\xfb\x8f\xfa?\xde\xbc\xd3?'
p195
tp196
Rp197
ag50
(g54
S'\xd4`1\x0f\xa9\xe8\xe3?'
p198
tp199
Rp200
asS'sp'
p201
(lp202
(S'p0'
p203
I0
S't'
p204
tp205
a(g203
I0
S'y'
p206
tp207
a(g203
I0
S'x'
p208
tp209
a(g203
I0
g206
tp210
a(g203
I0
g204
tp211
ag207
a(S'p1'
p212
I0
g206
tp213
a(g212
I0
g206
tp214
a(g212
I0
g204
tp215
a(g212
I0
g206
tp216
a(g212
I0
g208
tp217
a(S'p2'
p218
I0
g208
tp219
a(g218
I0
g204
tp220
a(g218
I0
g206
tp221
a(g218
I0
g204
tp222
a(g218
F1.5707963267948966
g204
tp223
a(g218
I0
g204
tp224
ag223
a(g218
F1.5707963267948966
g208
tp225
a(g218
F1.5707963267948966
g206
tp226
a(S'p3'
p227
F1.5707963267948966
g206
tp228
a(g227
F1.5707963267948966
g208
tp229
a(g218
F1.5707963267948966
g208
tp230
a(g218
F1.5707963267948966
g208
tp231
a(g218
F1.5707963267948966
g204
tp232
a(g218
F1.5707963267948966
g204
tp233
ag224
ag223
a(g218
F1.5707963267948966
g206
tp234
a(g218
F1.5707963267948966
g204
tp235
ag234
ag235
ag234
a(g218
F1.5707963267948966
g208
tp236
ag232
ag234
a(g212
F1.5707963267948966
g206
tp237
a(g212
F1.5707963267948966
g208
tp238
a(g218
F1.5707963267948966
g208
tp239
ag226
ag228
ag229
a(g227
F1.5707963267948966
g204
tp240
a(g227
F1.5707963267948966
g204
tp241
a(g227
F1.5707963267948966
g208
tp242
ag240
ag242
a(S'p4'
p243
F1.5707963267948966
g208
tp244
asS's'
p245
(lp246
(g203
I0
g22
tp247
ag205
ag207
ag209
ag210
ag211
ag207
ag213
ag214
ag215
ag216
ag217
ag219
ag220
ag221
ag222
ag223
ag224
ag223
ag225
ag226
ag228
ag229
ag230
ag231
ag232
ag233
ag224
ag223
ag234
ag235
ag234
ag235
ag234
ag236
ag232
ag234
ag237
ag238
ag239
ag226
ag228
ag229
ag240
ag241
ag242
ag240
ag242
asS'ui'
p248
(lp249
S'hs'
p250
ag250
aS'ss'
p251
aS'hp'
p252
ag252
ag250
ag252
ag251
ag250
ag252
ag252
ag201
ag250
ag250
ag252
ag201
ag251
ag201
ag252
ag252
ag250
ag250
ag252
ag201
ag252
ag250
ag250
ag201
ag250
ag252
ag250
ag251
ag250
ag252
ag252
ag250
ag252
ag250
ag201
ag252
ag251
ag250
ag250
ag252
ag201
ag201
ag252
ag201
asS'um_before'
p253
(lp254
g250
ag250
ag250
ag201
ag252
ag250
ag251
ag251
ag252
ag250
ag250
ag201
ag250
ag250
ag252
ag201
ag251
ag252
ag252
ag252
ag251
ag250
ag251
ag251
ag250
ag201
ag251
ag201
ag250
ag252
ag250
ag252
ag250
ag250
ag250
ag250
ag201
ag250
ag201
ag252
ag251
ag250
ag250
ag251
ag252
ag250
ag252
ag252
asS'um_after'
p255
(lp256
g250
ag250
ag250
ag252
ag252
ag250
ag251
ag251
ag252
ag250
ag250
ag201
ag250
ag250
ag252
ag201
ag251
ag201
ag252
ag252
ag251
ag250
ag251
ag251
ag250
ag201
ag251
ag201
ag250
ag252
ag250
ag252
ag250
ag250
ag250
ag250
ag201
ag250
ag201
ag252
ag251
ag250
ag250
ag251
ag252
ag250
ag252
ag201
asS'is_normalized_entropy_less_than_threshold'
p257
(lp258
g50
(g51
(S'b1'
p259
I0
I1
tp260
Rp261
(I3
S'|'
p262
NNNI-1
I-1
I0
tp263
bS'\x00'
p264
tp265
Rp266
ag50
(g261
S'\x01'
p267
tp268
Rp269
ag266
ag269
ag266
ag269
ag269
ag266
ag266
ag266
ag269
ag269
ag269
ag266
ag269
ag269
ag266
ag269
ag266
ag269
ag269
ag269
ag266
ag266
ag266
ag266
ag266
ag269
ag269
ag266
ag269
ag266
ag269
ag266
ag266
ag269
ag266
ag269
ag269
ag269
ag269
ag269
ag266
ag266
ag269
ag266
ag269
ag269
asaa(lp270
S'index'
p271
aI112328
aatp272
Rp273
.