ccollections
OrderedDict
p0
((lp1
(lp2
S'combination_dict'
p3
ag0
((lp4
(lp5
S'r_to_g_config'
p6
aS'tl'
p7
aa(lp8
S'num_turns'
p9
aI1
aa(lp10
S'start_direction'
p11
acutils_ms
StartDirection
p12
(I0
tp13
Rp14
aa(lp15
S'assistance_type'
p16
acutils_ms
AssistanceType
p17
(I1
tp18
Rp19
aa(lp20
S'start_mode'
p21
aS't'
p22
aa(lp23
S'ui_given_a_noise'
p24
aF0.3
aa(lp25
S'um_given_ui_noise'
p26
aF0.5
aa(lp27
S'entropy_threshold'
p28
aF0.5
aatp29
Rp30
aa(lp31
S'data'
p32
accollections
defaultdict
p33
(c__builtin__
list
p34
tp35
Rp36
S'a'
p37
(lp38
S'mode_r'
p39
ag39
aS'move_n'
p40
aS'mode_l'
p41
aS'move_p'
p42
ag41
ag42
asS'assistance_match_with_ground_truth'
p43
(lp44
I00
aI01
aI01
aI01
aI01
aI01
aI01
asS'is_u_intended_equals_um'
p45
(lp46
I00
aI00
aI01
aI01
aI01
aI01
aI01
asS'total_steps'
p47
I7
sS'normalized_h_of_p_ui_given_um'
p48
(lp49
cnumpy.core.multiarray
scalar
p50
(cnumpy
dtype
p51
(S'f8'
p52
I0
I1
tp53
Rp54
(I3
S'<'
p55
NNNI-1
I-1
I0
tp56
bS'\xcc\x9e%<\xb65\xe5?'
p57
tp58
Rp59
ag50
(g54
S'\xc2\x85\xd8u\t\x92\xdf?'
p60
tp61
Rp62
ag50
(g54
S'5+\xc4p\xe7\x03\xcf?'
p63
tp64
Rp65
ag50
(g54
S'\x93\xa9\xf0\xa8\xc6\xee\xcf?'
p66
tp67
Rp68
ag50
(g54
S'I)\xa4\x80\xbf\x0b\xc3?'
p69
tp70
Rp71
ag50
(g54
S'\x93\xa9\xf0\xa8\xc6\xee\xcf?'
p72
tp73
Rp74
ag50
(g54
S'I)\xa4\x80\xbf\x0b\xc3?'
p75
tp76
Rp77
asS'sp'
p78
(lp79
(S'p0'
p80
I0
S't'
p81
tp82
a(g80
I0
S'x'
p83
tp84
a(S'p1'
p85
I0
g83
tp86
a(g85
I0
g81
tp87
a(g85
F1.5707963267948966
g81
tp88
a(g85
F1.5707963267948966
S'y'
p89
tp90
a(S'p2'
p91
F1.5707963267948966
g89
tp92
asS's'
p93
(lp94
(g80
I0
g22
tp95
ag82
ag84
ag86
ag87
ag88
ag90
asS'ui'
p96
(lp97
S'hp'
p98
ag98
aS'ss'
p99
aS'hs'
p100
ag78
ag100
ag78
asS'um_before'
p101
(lp102
g99
ag78
ag99
ag100
ag78
ag100
ag78
asS'um_after'
p103
(lp104
g99
ag98
ag99
ag100
ag78
ag100
ag78
asS'is_normalized_entropy_less_than_threshold'
p105
(lp106
g50
(g51
(S'b1'
p107
I0
I1
tp108
Rp109
(I3
S'|'
p110
NNNI-1
I-1
I0
tp111
bS'\x00'
p112
tp113
Rp114
ag50
(g109
S'\x01'
p115
tp116
Rp117
ag117
ag117
ag117
ag117
ag117
asaa(lp118
S'index'
p119
aI30703
aatp120
Rp121
.