ccollections
OrderedDict
p0
((lp1
(lp2
S'combination_dict'
p3
ag0
((lp4
(lp5
S'r_to_g_config'
p6
aS'tr'
p7
aa(lp8
S'num_turns'
p9
aI3
aa(lp10
S'start_direction'
p11
acutils_ms
StartDirection
p12
(I1
tp13
Rp14
aa(lp15
S'assistance_type'
p16
acutils_ms
AssistanceType
p17
(I0
tp18
Rp19
aa(lp20
S'start_mode'
p21
aS't'
p22
aa(lp23
S'ui_given_a_noise'
p24
aF0.1
aa(lp25
S'um_given_ui_noise'
p26
aF0.3
aa(lp27
S'entropy_threshold'
p28
aF0.8
aatp29
Rp30
aa(lp31
S'data'
p32
accollections
defaultdict
p33
(c__builtin__
list
p34
tp35
Rp36
S'a'
p37
(lp38
S'mode_l'
p39
aS'move_p'
p40
ag39
ag39
ag40
aS'mode_r'
p41
ag40
ag40
ag41
ag41
ag40
ag41
ag40
ag39
ag39
ag40
asS'assistance_match_with_ground_truth'
p42
(lp43
I01
aI00
aI00
aI01
aI01
aI01
aI00
aI01
aI00
aI01
aI01
aI01
aI01
aI00
aI01
aI01
asS'is_u_intended_equals_um'
p44
(lp45
I01
aI00
aI00
aI01
aI01
aI01
aI00
aI01
aI00
aI01
aI01
aI01
aI01
aI00
aI01
aI01
asS'total_steps'
p46
I16
sS'normalized_h_of_p_ui_given_um'
p47
(lp48
cnumpy.core.multiarray
scalar
p49
(cnumpy
dtype
p50
(S'f8'
p51
I0
I1
tp52
Rp53
(I3
S'<'
p54
NNNI-1
I-1
I0
tp55
bS'\x10T\xb0\x94Y\\\xb1?'
p56
tp57
Rp58
ag49
(g53
S'\xf0\xa2\x82\x93\x828\xea?'
p59
tp60
Rp61
ag49
(g53
S'\xc2\xd1r2,\xfe\xdd?'
p62
tp63
Rp64
ag49
(g53
S'\x10T\xb0\x94Y\\\xb1?'
p65
tp66
Rp67
ag49
(g53
S'\xcb\x98h\xbc\x8eX\xc0?'
p68
tp69
Rp70
ag49
(g53
S'@\xdc\xfd\xb0b\xc3\xad?'
p71
tp72
Rp73
ag49
(g53
S'\x8ab+\xe5\x05\xf6\xdd?'
p74
tp75
Rp76
ag49
(g53
S'\xcb\x98h\xbc\x8eX\xc0?'
p77
tp78
Rp79
ag49
(g53
S'y\xe3P\x065\x07\xda?'
p80
tp81
Rp82
ag49
(g53
S'@\xdc\xfd\xb0b\xc3\xad?'
p83
tp84
Rp85
ag49
(g53
S'\xcb\x98h\xbc\x8eX\xc0?'
p86
tp87
Rp88
ag49
(g53
S'@\xdc\xfd\xb0b\xc3\xad?'
p89
tp90
Rp91
ag49
(g53
S'\xcb\x98h\xbc\x8eX\xc0?'
p92
tp93
Rp94
ag49
(g53
S'\xd3D\xe5g\xf7\xdd\xe5?'
p95
tp96
Rp97
ag49
(g53
S'\x10T\xb0\x94Y\\\xb1?'
p98
tp99
Rp100
ag49
(g53
S'\xcb\x98h\xbc\x8eX\xc0?'
p101
tp102
Rp103
asS'sp'
p104
(lp105
(S'p0'
p106
I0
S'y'
p107
tp108
a(g106
I0
S't'
p109
tp110
ag110
ag108
a(S'p1'
p111
I0
g107
tp112
a(g111
I0
g109
tp113
ag113
a(g111
F1.5707963267948966
g109
tp114
ag114
a(g111
F1.5707963267948966
S'x'
p115
tp116
a(S'p2'
p117
F1.5707963267948966
g115
tp118
a(g117
F1.5707963267948966
g107
tp119
a(S'p3'
p120
F1.5707963267948966
g107
tp121
ag121
a(g120
F1.5707963267948966
g115
tp122
a(S'p4'
p123
F1.5707963267948966
g115
tp124
asS's'
p125
(lp126
(g106
I0
g22
tp127
ag108
ag110
ag110
ag108
ag112
ag113
ag113
ag114
ag114
ag116
ag118
ag119
ag121
ag121
ag122
asS'ui'
p128
(lp129
S'hs'
p130
ag104
ag130
ag130
ag104
aS'hp'
p131
ag104
ag104
ag131
ag131
ag104
ag131
ag104
ag131
ag130
ag104
asS'um_before'
p132
(lp133
g130
ag131
aS'ss'
p134
ag130
ag104
ag131
ag130
ag104
ag104
ag131
ag104
ag131
ag104
ag131
ag130
ag104
asS'um_after'
p135
(lp136
g130
ag131
aNag130
ag104
ag131
aNag104
aNag131
ag104
ag131
ag104
aNag130
ag104
asS'is_normalized_entropy_less_than_threshold'
p137
(lp138
g49
(g50
(S'b1'
p139
I0
I1
tp140
Rp141
(I3
S'|'
p142
NNNI-1
I-1
I0
tp143
bS'\x01'
p144
tp145
Rp146
ag49
(g141
S'\x00'
p147
tp148
Rp149
ag146
ag146
ag146
ag146
ag146
ag146
ag146
ag146
ag146
ag146
ag146
ag146
ag146
ag146
asaa(lp150
S'index'
p151
aI24881
aatp152
Rp153
.