ccollections
OrderedDict
p0
((lp1
(lp2
S'combination_dict'
p3
ag0
((lp4
(lp5
S'r_to_g_config'
p6
aS'tr'
p7
aa(lp8
S'num_turns'
p9
aI2
aa(lp10
S'start_direction'
p11
acutils_ms
StartDirection
p12
(I1
tp13
Rp14
aa(lp15
S'assistance_type'
p16
acutils_ms
AssistanceType
p17
(I1
tp18
Rp19
aa(lp20
S'start_mode'
p21
aS'x'
p22
aa(lp23
S'ui_given_a_noise'
p24
aF0.7
aa(lp25
S'um_given_ui_noise'
p26
aF0.3
aa(lp27
S'entropy_threshold'
p28
aF0.6
aatp29
Rp30
aa(lp31
S'data'
p32
accollections
defaultdict
p33
(c__builtin__
list
p34
tp35
Rp36
S'a'
p37
(lp38
S'mode_r'
p39
ag39
ag39
ag39
aS'mode_l'
p40
ag39
aS'move_p'
p41
ag39
ag41
ag41
ag41
ag39
ag41
ag40
ag39
ag39
ag41
ag41
ag41
ag39
ag39
ag39
ag41
ag39
ag41
ag40
ag41
ag39
ag41
ag39
ag41
ag39
ag41
ag40
ag40
ag41
ag39
ag41
ag40
ag41
ag40
ag41
ag39
ag40
ag39
ag39
ag39
ag39
ag39
ag41
ag40
ag41
ag40
ag40
ag41
ag40
ag41
ag39
ag39
ag39
ag41
ag41
ag40
ag40
ag40
ag41
ag40
ag40
ag39
ag41
ag39
ag40
ag41
ag39
ag41
ag40
ag39
ag39
ag40
ag41
ag39
ag39
ag39
ag39
ag39
ag39
ag40
ag41
ag39
ag39
ag41
ag39
ag40
ag41
ag40
ag40
ag39
ag41
ag39
ag40
ag41
ag40
ag41
ag39
ag39
ag40
ag41
asS'assistance_match_with_ground_truth'
p42
(lp43
I00
aI00
aI00
aI00
aI00
aI01
aI00
aI01
aI00
aI00
aI01
aI01
aI00
aI00
aI00
aI01
aI00
aI00
aI01
aI00
aI00
aI01
aI01
aI00
aI00
aI01
aI00
aI01
aI01
aI01
aI00
aI01
aI01
aI00
aI01
aI01
aI01
aI00
aI01
aI00
aI01
aI01
aI00
aI00
aI00
aI00
aI00
aI00
aI01
aI00
aI01
aI00
aI00
aI01
aI00
aI01
aI00
aI00
aI00
aI01
aI00
aI00
aI00
aI00
aI01
aI01
aI00
aI00
aI00
aI01
aI00
aI01
aI00
aI00
aI00
aI00
aI00
aI00
aI01
aI00
aI00
aI00
aI00
aI00
aI00
aI00
aI01
aI01
aI00
aI01
aI01
aI00
aI01
aI00
aI00
aI00
aI01
aI00
aI00
aI01
aI01
aI01
aI01
aI00
aI00
aI01
aI01
asS'is_u_intended_equals_um'
p44
(lp45
I01
aI01
aI01
aI01
aI01
aI01
aI01
aI01
aI01
aI01
aI01
aI01
aI00
aI00
aI01
aI01
aI01
aI01
aI01
aI01
aI01
aI01
aI01
aI01
aI00
aI01
aI01
aI01
aI01
aI01
aI01
aI01
aI01
aI01
aI01
aI01
aI01
aI00
aI01
aI01
aI01
aI01
aI01
aI01
aI01
aI01
aI01
aI01
aI01
aI00
aI01
aI01
aI00
aI01
aI00
aI01
aI01
aI01
aI01
aI01
aI01
aI00
aI00
aI00
aI01
aI01
aI00
aI01
aI01
aI01
aI01
aI01
aI01
aI01
aI00
aI01
aI01
aI01
aI01
aI01
aI01
aI01
aI01
aI01
aI01
aI01
aI01
aI01
aI01
aI01
aI01
aI01
aI01
aI01
aI01
aI01
aI01
aI01
aI01
aI01
aI01
aI01
aI01
aI01
aI01
aI01
aI01
asS'total_steps'
p46
I107
sS'normalized_h_of_p_ui_given_um'
p47
(lp48
cnumpy.core.multiarray
scalar
p49
(cnumpy
dtype
p50
(S'f8'
p51
I0
I1
tp52
Rp53
(I3
S'<'
p54
NNNI-1
I-1
I0
tp55
bS'\xc5 z\x9a\xa1F\xe4?'
p56
tp57
Rp58
ag49
(g53
S'\x1b\xae\xcd\x9fz\x02\xe9?'
p59
tp60
Rp61
ag49
(g53
S'\x1b\xae\xcd\x9fz\x02\xe9?'
p62
tp63
Rp64
ag49
(g53
S'n&\x05;\x87\xa0\xe7?'
p65
tp66
Rp67
ag49
(g53
S'\x1a\x96\xdf3\x1b6\xdf?'
p68
tp69
Rp70
ag49
(g53
S'\xc6\xc1\xe4"\x88\x81\xe3?'
p71
tp72
Rp73
ag49
(g53
S'XGQ\x03\xc2\x1c\xec?'
p74
tp75
Rp76
ag49
(g53
S'\xc6\xc1\xe4"\x88\x81\xe3?'
p77
tp78
Rp79
ag49
(g53
S'|\xacI\x03\xdc\xd4\xe7?'
p80
tp81
Rp82
ag49
(g53
S'|\xacI\x03\xdc\xd4\xe7?'
p83
tp84
Rp85
ag49
(g53
S'.\xc6[X5^\xd3?'
p86
tp87
Rp88
ag49
(g53
S'\xc6\xc1\xe4"\x88\x81\xe3?'
p89
tp90
Rp91
ag49
(g53
S'uH\x9as6_\xe9?'
p92
tp93
Rp94
ag49
(g53
S'\xbc\xdbc\xbaK\xb2\xe6?'
p95
tp96
Rp97
ag49
(g53
S'\xc5 z\x9a\xa1F\xe4?'
p98
tp99
Rp100
ag49
(g53
S'\xc6\xc1\xe4"\x88\x81\xe3?'
p101
tp102
Rp103
ag49
(g53
S'|\xacI\x03\xdc\xd4\xe7?'
p104
tp105
Rp106
ag49
(g53
S'|\xacI\x03\xdc\xd4\xe7?'
p107
tp108
Rp109
ag49
(g53
S'.\xc6[X5^\xd3?'
p110
tp111
Rp112
ag49
(g53
S'\xc5 z\x9a\xa1F\xe4?'
p113
tp114
Rp115
ag49
(g53
S'\xc5 z\x9a\xa1F\xe4?'
p116
tp117
Rp118
ag49
(g53
S'\xc6\xc1\xe4"\x88\x81\xe3?'
p119
tp120
Rp121
ag49
(g53
S'.\xc6[X5^\xd3?'
p122
tp123
Rp124
ag49
(g53
S'\x1b\xae\xcd\x9fz\x02\xe9?'
p125
tp126
Rp127
ag49
(g53
S'uH\x9as6_\xe9?'
p128
tp129
Rp130
ag49
(g53
S'\xd3\x91o\xb8u\x84\xc9?'
p131
tp132
Rp133
ag49
(g53
S'XGQ\x03\xc2\x1c\xec?'
p134
tp135
Rp136
ag49
(g53
S'\xc6\xc1\xe4"\x88\x81\xe3?'
p137
tp138
Rp139
ag49
(g53
S'.\xc6[X5^\xd3?'
p140
tp141
Rp142
ag49
(g53
S'\xc6\xc1\xe4"\x88\x81\xe3?'
p143
tp144
Rp145
ag49
(g53
S'|\xacI\x03\xdc\xd4\xe7?'
p146
tp147
Rp148
ag49
(g53
S'\xc6\xc1\xe4"\x88\x81\xe3?'
p149
tp150
Rp151
ag49
(g53
S'.\xc6[X5^\xd3?'
p152
tp153
Rp154
ag49
(g53
S'8\x0bb2\xbf;\xe5?'
p155
tp156
Rp157
ag49
(g53
S'\xd3\x91o\xb8u\x84\xc9?'
p158
tp159
Rp160
ag49
(g53
S'.\xc6[X5^\xd3?'
p161
tp162
Rp163
ag49
(g53
S'\xc6\xc1\xe4"\x88\x81\xe3?'
p164
tp165
Rp166
ag49
(g53
S'uH\x9as6_\xe9?'
p167
tp168
Rp169
ag49
(g53
S'\xd3\x91o\xb8u\x84\xc9?'
p170
tp171
Rp172
ag49
(g53
S'|\xacI\x03\xdc\xd4\xe7?'
p173
tp174
Rp175
ag49
(g53
S'\xd3\x91o\xb8u\x84\xc9?'
p176
tp177
Rp178
ag49
(g53
S'.\xc6[X5^\xd3?'
p179
tp180
Rp181
ag49
(g53
S'n&\x05;\x87\xa0\xe7?'
p182
tp183
Rp184
ag49
(g53
S'\x1a\x96\xdf3\x1b6\xdf?'
p185
tp186
Rp187
ag49
(g53
S'\xc5 z\x9a\xa1F\xe4?'
p188
tp189
Rp190
ag49
(g53
S'\xc5 z\x9a\xa1F\xe4?'
p191
tp192
Rp193
ag49
(g53
S'\xc5 z\x9a\xa1F\xe4?'
p194
tp195
Rp196
ag49
(g53
S'\xc5 z\x9a\xa1F\xe4?'
p197
tp198
Rp199
ag49
(g53
S'\xc6\xc1\xe4"\x88\x81\xe3?'
p200
tp201
Rp202
ag49
(g53
S'uH\x9as6_\xe9?'
p203
tp204
Rp205
ag49
(g53
S'\xd3\x91o\xb8u\x84\xc9?'
p206
tp207
Rp208
ag49
(g53
S'|\xacI\x03\xdc\xd4\xe7?'
p209
tp210
Rp211
ag49
(g53
S'\xbc\xdbc\xbaK\xb2\xe6?'
p212
tp213
Rp214
ag49
(g53
S'\xd3\x91o\xb8u\x84\xc9?'
p215
tp216
Rp217
ag49
(g53
S'uH\x9as6_\xe9?'
p218
tp219
Rp220
ag49
(g53
S'\xd3\x91o\xb8u\x84\xc9?'
p221
tp222
Rp223
ag49
(g53
S'|\xacI\x03\xdc\xd4\xe7?'
p224
tp225
Rp226
ag49
(g53
S'\x1b\xae\xcd\x9fz\x02\xe9?'
p227
tp228
Rp229
ag49
(g53
S'\xc5 z\x9a\xa1F\xe4?'
p230
tp231
Rp232
ag49
(g53
S'\xc6\xc1\xe4"\x88\x81\xe3?'
p233
tp234
Rp235
ag49
(g53
S'|\xacI\x03\xdc\xd4\xe7?'
p236
tp237
Rp238
ag49
(g53
S'uH\x9as6_\xe9?'
p239
tp240
Rp241
ag49
(g53
S'\xbc\xdbc\xbaK\xb2\xe6?'
p242
tp243
Rp244
ag49
(g53
S'\xbc\xdbc\xbaK\xb2\xe6?'
p245
tp246
Rp247
ag49
(g53
S'\xd3\x91o\xb8u\x84\xc9?'
p248
tp249
Rp250
ag49
(g53
S'.\xc6[X5^\xd3?'
p251
tp252
Rp253
ag49
(g53
S'\xbc\xdbc\xbaK\xb2\xe6?'
p254
tp255
Rp256
ag49
(g53
S'\x1a\x96\xdf3\x1b6\xdf?'
p257
tp258
Rp259
ag49
(g53
S'\x1b\xae\xcd\x9fz\x02\xe9?'
p260
tp261
Rp262
ag49
(g53
S'.\xc6[X5^\xd3?'
p263
tp264
Rp265
ag49
(g53
S'n&\x05;\x87\xa0\xe7?'
p266
tp267
Rp268
ag49
(g53
S'\xd3\x91o\xb8u\x84\xc9?'
p269
tp270
Rp271
ag49
(g53
S'XGQ\x03\xc2\x1c\xec?'
p272
tp273
Rp274
ag49
(g53
S'\x1b\xae\xcd\x9fz\x02\xe9?'
p275
tp276
Rp277
ag49
(g53
S'uH\x9as6_\xe9?'
p278
tp279
Rp280
ag49
(g53
S'8\x0bb2\xbf;\xe5?'
p281
tp282
Rp283
ag49
(g53
S'\x1b\xae\xcd\x9fz\x02\xe9?'
p284
tp285
Rp286
ag49
(g53
S'n&\x05;\x87\xa0\xe7?'
p287
tp288
Rp289
ag49
(g53
S'\xd3\x91o\xb8u\x84\xc9?'
p290
tp291
Rp292
ag49
(g53
S'|\xacI\x03\xdc\xd4\xe7?'
p293
tp294
Rp295
ag49
(g53
S'\x1b\xae\xcd\x9fz\x02\xe9?'
p296
tp297
Rp298
ag49
(g53
S'\xc5 z\x9a\xa1F\xe4?'
p299
tp300
Rp301
ag49
(g53
S'\x1b\xae\xcd\x9fz\x02\xe9?'
p302
tp303
Rp304
ag49
(g53
S'\x1b\xae\xcd\x9fz\x02\xe9?'
p305
tp306
Rp307
ag49
(g53
S'\x1b\xae\xcd\x9fz\x02\xe9?'
p308
tp309
Rp310
ag49
(g53
S'n&\x05;\x87\xa0\xe7?'
p311
tp312
Rp313
ag49
(g53
S'\xd3\x91o\xb8u\x84\xc9?'
p314
tp315
Rp316
ag49
(g53
S'.\xc6[X5^\xd3?'
p317
tp318
Rp319
ag49
(g53
S'\xc5 z\x9a\xa1F\xe4?'
p320
tp321
Rp322
ag49
(g53
S'\xc6\xc1\xe4"\x88\x81\xe3?'
p323
tp324
Rp325
ag49
(g53
S'.\xc6[X5^\xd3?'
p326
tp327
Rp328
ag49
(g53
S'n&\x05;\x87\xa0\xe7?'
p329
tp330
Rp331
ag49
(g53
S'\xd3\x91o\xb8u\x84\xc9?'
p332
tp333
Rp334
ag49
(g53
S'|\xacI\x03\xdc\xd4\xe7?'
p335
tp336
Rp337
ag49
(g53
S'8\x0bb2\xbf;\xe5?'
p338
tp339
Rp340
ag49
(g53
S'\x1a\x96\xdf3\x1b6\xdf?'
p341
tp342
Rp343
ag49
(g53
S'\xc6\xc1\xe4"\x88\x81\xe3?'
p344
tp345
Rp346
ag49
(g53
S'|\xacI\x03\xdc\xd4\xe7?'
p347
tp348
Rp349
ag49
(g53
S'n&\x05;\x87\xa0\xe7?'
p350
tp351
Rp352
ag49
(g53
S'\xd3\x91o\xb8u\x84\xc9?'
p353
tp354
Rp355
ag49
(g53
S'.\xc6[X5^\xd3?'
p356
tp357
Rp358
ag49
(g53
S'\xd3\x91o\xb8u\x84\xc9?'
p359
tp360
Rp361
ag49
(g53
S'.\xc6[X5^\xd3?'
p362
tp363
Rp364
ag49
(g53
S'\x1b\xae\xcd\x9fz\x02\xe9?'
p365
tp366
Rp367
ag49
(g53
S'n&\x05;\x87\xa0\xe7?'
p368
tp369
Rp370
ag49
(g53
S'\xd3\x91o\xb8u\x84\xc9?'
p371
tp372
Rp373
ag49
(g53
S'.\xc6[X5^\xd3?'
p374
tp375
Rp376
asS'sp'
p377
(lp378
(S'p0'
p379
I0
S'x'
p380
tp381
a(g379
I0
g380
tp382
ag382
a(g379
I0
S't'
p383
tp384
a(g379
I0
g380
tp385
a(g379
I0
S'y'
p386
tp387
a(g379
I0
g380
tp388
ag387
a(g379
I0
g386
tp389
ag389
a(S'p1'
p390
I0
g386
tp391
a(g390
I0
g383
tp392
a(g390
I0
g380
tp393
a(g379
I0
g380
tp394
ag381
ag387
ag389
ag389
ag391
a(g390
I0
g386
tp395
ag395
ag392
a(g390
F1.5707963267948966
g383
tp396
a(g390
I0
g383
tp397
ag393
a(g390
I0
g383
tp398
a(g390
I0
g386
tp399
ag392
ag396
a(g390
F1.5707963267948966
g380
tp400
a(g379
F1.5707963267948966
g380
tp401
a(g379
F1.5707963267948966
g386
tp402
a(g390
F1.5707963267948966
g386
tp403
a(g390
F1.5707963267948966
g386
tp404
a(g390
F1.5707963267948966
g380
tp405
a(S'p2'
p406
F1.5707963267948966
g380
tp407
a(g406
F1.5707963267948966
g386
tp408
a(g406
F1.5707963267948966
g383
tp409
a(g406
F1.5707963267948966
g386
tp410
a(g390
F1.5707963267948966
g386
tp411
ag405
ag407
a(g406
F1.5707963267948966
g383
tp412
a(g406
F1.5707963267948966
g380
tp413
a(g406
F1.5707963267948966
g380
tp414
ag414
ag414
ag414
ag408
ag409
ag410
ag411
a(g390
F1.5707963267948966
g386
tp415
ag405
a(g390
F1.5707963267948966
g386
tp416
ag405
ag401
a(g379
F1.5707963267948966
g380
tp417
a(g379
F1.5707963267948966
g380
tp418
ag402
a(g379
F1.5707963267948966
g386
tp419
a(g379
F1.5707963267948966
g383
tp420
a(g379
F1.5707963267948966
g383
tp421
ag421
a(g379
F1.5707963267948966
g386
tp422
ag403
ag415
a(g390
F1.5707963267948966
g383
tp423
ag397
ag396
a(g390
F1.5707963267948966
g386
tp424
ag405
a(g390
F1.5707963267948966
g383
tp425
ag397
ag393
a(g406
I0
g380
tp426
a(g406
I0
g380
tp427
a(g406
I0
g383
tp428
a(g406
I0
g386
tp429
a(g390
I0
g386
tp430
a(g390
I0
g386
tp431
ag395
ag431
ag431
ag431
a(g390
I0
g380
tp432
ag398
ag396
a(g390
F1.5707963267948966
g383
tp433
ag400
ag407
ag412
ag410
ag411
ag404
ag423
ag400
ag401
a(g379
F1.5707963267948966
g383
tp434
ag422
ag403
ag405
ag407
a(g406
F1.5707963267948966
g380
tp435
ag412
ag410
a(S'p3'
p436
F1.5707963267948966
g386
tp437
asS's'
p438
(lp439
(g379
I0
g22
tp440
ag381
ag382
ag382
ag384
ag385
ag387
ag388
ag387
ag389
ag389
ag391
ag392
ag393
ag394
ag381
ag387
ag389
ag389
ag391
ag395
ag395
ag392
ag396
ag397
ag393
ag398
ag399
ag392
ag396
ag400
ag401
ag402
ag403
ag404
ag405
ag407
ag408
ag409
ag410
ag411
ag405
ag407
ag412
ag413
ag414
ag414
ag414
ag414
ag408
ag409
ag410
ag411
ag415
ag405
ag416
ag405
ag401
ag417
ag418
ag402
ag419
ag420
ag421
ag421
ag422
ag403
ag415
ag423
ag397
ag396
ag424
ag405
ag425
ag397
ag393
ag426
ag427
ag428
ag429
ag430
ag431
ag395
ag431
ag431
ag431
ag432
ag398
ag396
ag433
ag400
ag407
ag412
ag410
ag411
ag404
ag423
ag400
ag401
ag434
ag422
ag403
ag405
ag407
ag435
ag412
ag410
asS'ui'
p441
(lp442
S'hp'
p443
aS'ss'
p444
ag377
ag443
ag443
ag377
ag443
ag443
ag377
ag444
ag377
ag443
ag444
ag443
ag377
ag443
ag377
ag377
ag377
ag377
ag377
ag443
ag377
ag443
ag377
aS'hs'
p445
ag445
ag443
ag377
ag445
ag444
ag443
ag377
ag443
ag445
ag377
ag443
ag443
ag443
ag377
ag445
ag377
ag445
ag443
ag443
ag443
ag444
ag377
ag443
ag377
ag445
ag377
ag443
ag443
ag443
ag445
ag377
ag443
ag377
ag443
ag444
ag443
ag445
ag377
ag445
ag377
ag443
ag443
ag444
ag444
ag445
ag443
ag445
ag444
ag377
ag443
ag377
ag443
ag445
ag443
ag444
ag443
ag444
ag377
ag443
ag445
ag445
ag377
ag377
ag443
ag377
ag445
ag445
ag444
ag377
ag443
ag443
ag377
ag445
ag445
ag443
ag445
ag377
ag444
ag445
ag445
ag377
asS'um_before'
p446
(lp447
g377
ag444
ag444
ag445
ag443
ag443
ag445
ag443
ag444
ag444
ag377
ag443
ag443
ag444
ag377
ag443
ag444
ag444
ag377
ag377
ag377
ag443
ag377
ag444
ag443
ag445
ag445
ag443
ag377
ag443
ag444
ag443
ag377
ag377
ag445
ag377
ag443
ag443
ag445
ag444
ag445
ag377
ag445
ag443
ag377
ag377
ag377
ag377
ag443
ag443
ag445
ag444
ag444
ag445
ag443
ag445
ag444
ag444
ag377
ag443
ag444
ag443
ag444
ag444
ag445
ag377
ag444
ag443
ag444
ag377
ag445
ag445
ag445
ag444
ag443
ag377
ag444
ag445
ag445
ag444
ag444
ag377
ag444
ag444
ag444
ag445
ag445
ag377
ag377
ag443
ag377
ag445
ag445
ag444
ag377
ag443
ag443
ag444
ag445
ag445
ag377
ag445
ag377
ag444
ag445
ag445
ag377
asS'um_after'
p448
(lp449
g377
ag444
ag444
ag445
ag443
ag443
ag445
ag443
ag444
ag444
ag377
ag443
ag443
ag444
ag377
ag443
ag444
ag444
ag377
ag377
ag377
ag443
ag377
ag444
ag443
ag445
ag445
ag443
ag377
ag443
ag444
ag443
ag377
ag377
ag445
ag377
ag443
ag443
ag445
ag444
ag445
ag377
ag445
ag443
ag377
ag377
ag377
ag377
ag443
ag443
ag445
ag444
ag444
ag445
ag443
ag445
ag444
ag444
ag377
ag443
ag444
ag443
ag444
ag444
ag445
ag377
ag444
ag443
ag444
ag377
ag445
ag445
ag445
ag444
ag443
ag377
ag444
ag445
ag445
ag444
ag444
ag377
ag444
ag444
ag444
ag445
ag445
ag377
ag377
ag443
ag377
ag445
ag445
ag444
ag377
ag443
ag443
ag444
ag445
ag445
ag377
ag445
ag377
ag444
ag445
ag445
ag377
asS'is_normalized_entropy_less_than_threshold'
p450
(lp451
g49
(g50
(S'b1'
p452
I0
I1
tp453
Rp454
(I3
S'|'
p455
NNNI-1
I-1
I0
tp456
bS'\x00'
p457
tp458
Rp459
ag459
ag459
ag459
ag49
(g454
S'\x01'
p460
tp461
Rp462
ag459
ag459
ag459
ag459
ag459
ag462
ag459
ag459
ag459
ag459
ag459
ag459
ag459
ag462
ag459
ag459
ag459
ag462
ag459
ag459
ag462
ag459
ag459
ag462
ag459
ag459
ag459
ag462
ag459
ag462
ag462
ag459
ag459
ag462
ag459
ag462
ag462
ag459
ag462
ag459
ag459
ag459
ag459
ag459
ag459
ag462
ag459
ag459
ag462
ag459
ag462
ag459
ag459
ag459
ag459
ag459
ag459
ag459
ag459
ag462
ag462
ag459
ag462
ag459
ag462
ag459
ag462
ag459
ag459
ag459
ag459
ag459
ag459
ag462
ag459
ag459
ag459
ag459
ag459
ag459
ag459
ag462
ag462
ag459
ag459
ag462
ag459
ag462
ag459
ag459
ag462
ag459
ag459
ag459
ag462
ag462
ag462
ag462
ag459
ag459
ag462
ag462
asaa(lp463
S'index'
p464
aI16660
aatp465
Rp466
.