ccollections
OrderedDict
p0
((lp1
(lp2
S'combination_dict'
p3
ag0
((lp4
(lp5
S'r_to_g_config'
p6
aS'bl'
p7
aa(lp8
S'num_turns'
p9
aI2
aa(lp10
S'start_direction'
p11
acutils_ms
StartDirection
p12
(I1
tp13
Rp14
aa(lp15
S'assistance_type'
p16
acutils_ms
AssistanceType
p17
(I0
tp18
Rp19
aa(lp20
S'start_mode'
p21
aS'x'
p22
aa(lp23
S'ui_given_a_noise'
p24
aF0.3
aa(lp25
S'um_given_ui_noise'
p26
aF0.5
aa(lp27
S'entropy_threshold'
p28
aF0.7
aatp29
Rp30
aa(lp31
S'data'
p32
accollections
defaultdict
p33
(c__builtin__
list
p34
tp35
Rp36
S'a'
p37
(lp38
S'mode_r'
p39
ag39
ag39
aS'move_n'
p40
ag39
aS'move_p'
p41
ag39
ag41
ag39
aS'mode_l'
p42
ag42
ag39
ag39
ag39
ag42
ag42
ag42
ag40
ag39
ag39
ag41
ag39
ag41
ag41
ag41
ag41
ag41
ag41
ag39
ag41
ag41
ag41
ag39
ag40
ag40
ag39
ag40
asS'assistance_match_with_ground_truth'
p43
(lp44
I00
aI00
aI01
aI01
aI01
aI00
aI01
aI00
aI00
aI00
aI00
aI00
aI00
aI00
aI00
aI00
aI01
aI01
aI00
aI01
aI01
aI00
aI00
aI00
aI00
aI00
aI00
aI01
aI00
aI00
aI00
aI01
aI01
aI00
aI01
aI01
aI01
asS'is_u_intended_equals_um'
p45
(lp46
I00
aI01
aI01
aI01
aI01
aI01
aI01
aI01
aI00
aI00
aI00
aI01
aI00
aI00
aI00
aI00
aI01
aI01
aI00
aI01
aI01
aI01
aI00
aI00
aI00
aI00
aI00
aI01
aI01
aI00
aI00
aI01
aI01
aI00
aI01
aI01
aI01
asS'total_steps'
p47
I37
sS'normalized_h_of_p_ui_given_um'
p48
(lp49
cnumpy.core.multiarray
scalar
p50
(cnumpy
dtype
p51
(S'f8'
p52
I0
I1
tp53
Rp54
(I3
S'<'
p55
NNNI-1
I-1
I0
tp56
bS'\xe2\x85t5G\x82\xe8?'
p57
tp58
Rp59
ag50
(g54
S'Rx\x93\xcd$\xc3\xea?'
p60
tp61
Rp62
ag50
(g54
S'\x9f\xdc*_d\xae\xd5?'
p63
tp64
Rp65
ag50
(g54
S'{\t\xe1u2\x84\xc9?'
p66
tp67
Rp68
ag50
(g54
S'\x9f\xdc*_d\xae\xd5?'
p69
tp70
Rp71
ag50
(g54
S'\x0eeUG\x86\xab\xe3?'
p72
tp73
Rp74
ag50
(g54
S'\x9f\xdc*_d\xae\xd5?'
p75
tp76
Rp77
ag50
(g54
S'\x0eeUG\x86\xab\xe3?'
p78
tp79
Rp80
ag50
(g54
S'\xa4\x94\x1f\x14\x8f\x1c\xeb?'
p81
tp82
Rp83
ag50
(g54
S'\x88\xd4I\xc6\x04"\xd6?'
p84
tp85
Rp86
ag50
(g54
S'm\x89$G\xb3\x84\xed?'
p87
tp88
Rp89
ag50
(g54
S'Rx\x93\xcd$\xc3\xea?'
p90
tp91
Rp92
ag50
(g54
S'\xe2\x85t5G\x82\xe8?'
p93
tp94
Rp95
ag50
(g54
S'\xa4\x94\x1f\x14\x8f\x1c\xeb?'
p96
tp97
Rp98
ag50
(g54
S'm\x89$G\xb3\x84\xed?'
p99
tp100
Rp101
ag50
(g54
S'\x88\xd4I\xc6\x04"\xd6?'
p102
tp103
Rp104
ag50
(g54
S'\x1e\x80\xd3\x9f)S\xc3?'
p105
tp106
Rp107
ag50
(g54
S'{\t\xe1u2\x84\xc9?'
p108
tp109
Rp110
ag50
(g54
S'\xe2\x85t5G\x82\xe8?'
p111
tp112
Rp113
ag50
(g54
S'\x9f\xdc*_d\xae\xd5?'
p114
tp115
Rp116
ag50
(g54
S'j\xcd\xb8A\xbc\x96\xc2?'
p117
tp118
Rp119
ag50
(g54
S'Rx\x93\xcd$\xc3\xea?'
p120
tp121
Rp122
ag50
(g54
S'\xf3\xb7F\xb9D\xe3\xe6?'
p123
tp124
Rp125
ag50
(g54
S'\xf3\xb7F\xb9D\xe3\xe6?'
p126
tp127
Rp128
ag50
(g54
S'\x00es\xdf\xd4G\xe0?'
p129
tp130
Rp131
ag50
(g54
S'\x00es\xdf\xd4G\xe0?'
p132
tp133
Rp134
ag50
(g54
S'\xf3\xb7F\xb9D\xe3\xe6?'
p135
tp136
Rp137
ag50
(g54
S'j\xcd\xb8A\xbc\x96\xc2?'
p138
tp139
Rp140
ag50
(g54
S'Rx\x93\xcd$\xc3\xea?'
p141
tp142
Rp143
ag50
(g54
S'\x00es\xdf\xd4G\xe0?'
p144
tp145
Rp146
ag50
(g54
S'\xf3\xb7F\xb9D\xe3\xe6?'
p147
tp148
Rp149
ag50
(g54
S'j\xcd\xb8A\xbc\x96\xc2?'
p150
tp151
Rp152
ag50
(g54
S'\x9f\xdc*_d\xae\xd5?'
p153
tp154
Rp155
ag50
(g54
S'\x8a\x0b\xb4\xf7$\xda\xe2?'
p156
tp157
Rp158
ag50
(g54
S'{\t\xe1u2\x84\xc9?'
p159
tp160
Rp161
ag50
(g54
S'\x9f\xdc*_d\xae\xd5?'
p162
tp163
Rp164
ag50
(g54
S'{\t\xe1u2\x84\xc9?'
p165
tp166
Rp167
asS'sp'
p168
(lp169
(S'p0'
p170
I0
S'x'
p171
tp172
a(g170
I0
g171
tp173
a(g170
I0
S'y'
p174
tp175
a(S'p1'
p176
I0
g174
tp177
a(g176
I0
S't'
p178
tp179
a(g176
I0
g174
tp180
ag179
ag180
a(g176
I0
g171
tp181
ag181
a(g170
I0
g171
tp182
ag173
ag172
a(g170
I0
g178
tp183
a(g170
I0
g178
tp184
ag184
a(g170
I0
g174
tp185
ag177
a(g176
I0
g174
tp186
ag179
a(g176
F1.5707963267948966
g178
tp187
a(g176
I0
g178
tp188
a(g176
I0
g178
tp189
ag189
ag189
ag189
ag189
ag187
ag188
ag188
ag189
ag187
a(g176
F1.5707963267948966
g171
tp190
ag190
a(S'p2'
p191
F1.5707963267948966
g171
tp192
a(g191
F1.5707963267948966
g174
tp193
a(S'p3'
p194
F1.5707963267948966
g174
tp195
asS's'
p196
(lp197
(g170
I0
g22
tp198
ag172
ag173
ag175
ag177
ag179
ag180
ag179
ag180
ag181
ag181
ag182
ag173
ag172
ag183
ag184
ag184
ag185
ag177
ag186
ag179
ag187
ag188
ag189
ag189
ag189
ag189
ag189
ag187
ag188
ag188
ag189
ag187
ag190
ag190
ag192
ag193
asS'ui'
p199
(lp200
g168
aS'ss'
p201
aS'hp'
p202
ag201
ag202
aS'hs'
p203
ag202
ag203
ag202
ag203
ag203
ag201
ag201
ag202
ag203
ag203
ag203
ag201
ag168
ag202
ag168
ag201
ag201
ag168
ag203
ag168
ag168
ag168
ag201
ag203
ag203
ag168
ag202
ag201
ag201
ag202
ag201
asS'um_before'
p204
(lp205
g168
ag201
ag202
ag201
ag202
ag203
ag202
ag203
ag203
ag202
ag168
ag201
ag168
ag203
ag168
ag202
ag203
ag201
ag168
ag202
ag168
ag201
ag201
ag201
ag202
ag202
ag201
ag168
ag201
ag202
ag201
ag168
ag202
ag168
ag201
ag202
ag201
asS'um_after'
p206
(lp207
g168
ag201
ag202
ag201
ag202
ag203
ag202
ag203
ag203
aNag168
ag201
ag168
ag203
ag168
aNag203
ag201
ag168
ag202
ag168
ag201
ag201
ag201
aNaNag201
ag168
ag201
aNag201
ag168
ag202
aNag201
ag202
ag201
asS'is_normalized_entropy_less_than_threshold'
p208
(lp209
g50
(g51
(S'b1'
p210
I0
I1
tp211
Rp212
(I3
S'|'
p213
NNNI-1
I-1
I0
tp214
bS'\x00'
p215
tp216
Rp217
ag217
ag50
(g212
S'\x01'
p218
tp219
Rp220
ag220
ag220
ag220
ag220
ag220
ag217
ag220
ag217
ag217
ag217
ag217
ag217
ag220
ag220
ag220
ag217
ag220
ag220
ag217
ag217
ag217
ag220
ag220
ag217
ag220
ag217
ag220
ag217
ag220
ag220
ag220
ag220
ag220
ag220
asaa(lp221
S'index'
p222
aI72322
aatp223
Rp224
.