ccollections
OrderedDict
p0
((lp1
(lp2
S'combination_dict'
p3
ag0
((lp4
(lp5
S'r_to_g_config'
p6
aS'tl'
p7
aa(lp8
S'num_turns'
p9
aI3
aa(lp10
S'start_direction'
p11
acutils_ms
StartDirection
p12
(I0
tp13
Rp14
aa(lp15
S'assistance_type'
p16
acutils_ms
AssistanceType
p17
(I0
tp18
Rp19
aa(lp20
S'start_mode'
p21
aS't'
p22
aa(lp23
S'ui_given_a_noise'
p24
aF0.5
aa(lp25
S'um_given_ui_noise'
p26
aF0.5
aa(lp27
S'entropy_threshold'
p28
aF0.8
aatp29
Rp30
aa(lp31
S'data'
p32
accollections
defaultdict
p33
(c__builtin__
list
p34
tp35
Rp36
S'a'
p37
(lp38
S'mode_r'
p39
aS'move_n'
p40
aS'mode_l'
p41
aS'move_p'
p42
ag42
ag41
ag42
ag41
ag40
ag39
ag39
ag39
ag40
ag39
ag40
ag39
ag40
ag39
ag39
ag40
ag41
ag41
ag40
ag41
ag40
ag39
ag42
ag41
ag41
ag41
ag40
ag39
ag40
ag39
ag39
ag39
ag39
ag42
ag41
ag42
asS'assistance_match_with_ground_truth'
p43
(lp44
I01
aI01
aI01
aI00
aI01
aI01
aI00
aI01
aI00
aI00
aI00
aI01
aI00
aI01
aI00
aI01
aI00
aI00
aI01
aI00
aI00
aI01
aI00
aI01
aI01
aI01
aI01
aI00
aI00
aI01
aI00
aI01
aI01
aI00
aI00
aI00
aI01
aI00
aI01
aI01
asS'is_u_intended_equals_um'
p45
(lp46
I01
aI01
aI01
aI00
aI01
aI01
aI01
aI01
aI01
aI00
aI01
aI01
aI01
aI01
aI01
aI01
aI01
aI00
aI01
aI01
aI00
aI01
aI01
aI01
aI01
aI01
aI01
aI00
aI01
aI01
aI01
aI01
aI01
aI00
aI00
aI00
aI01
aI01
aI01
aI01
asS'total_steps'
p47
I40
sS'normalized_h_of_p_ui_given_um'
p48
(lp49
cnumpy.core.multiarray
scalar
p50
(cnumpy
dtype
p51
(S'f8'
p52
I0
I1
tp53
Rp54
(I3
S'<'
p55
NNNI-1
I-1
I0
tp56
bS'\\\x81\xdc#\x17\x99\xcc?'
p57
tp58
Rp59
ag50
(g54
S'\x92\x12r\xfd\x00\xbd\xd4?'
p60
tp61
Rp62
ag50
(g54
S'\xc8\xb8]D\x03\x0e\xd8?'
p63
tp64
Rp65
ag50
(g54
S'IAx*P$\xe1?'
p66
tp67
Rp68
ag50
(g54
S'H\xb6|\x0fY4\xd1?'
p69
tp70
Rp71
ag50
(g54
S'\xc8\xb8]D\x03\x0e\xd8?'
p72
tp73
Rp74
ag50
(g54
S'\xf7#\xdf\x04\x86\xaf\xe5?'
p75
tp76
Rp77
ag50
(g54
S'\xc8\xb8]D\x03\x0e\xd8?'
p78
tp79
Rp80
ag50
(g54
S'\x82%{r5\xfb\xed?'
p81
tp82
Rp83
ag50
(g54
S'\x84~_\xee\xb4\x9c\xd9?'
p84
tp85
Rp86
ag50
(g54
S'\xdc\xc4Q\xc4H\xaf\xe2?'
p87
tp88
Rp89
ag50
(g54
S'\\\x81\xdc#\x17\x99\xcc?'
p90
tp91
Rp92
ag50
(g54
S'\x82%{r5\xfb\xed?'
p93
tp94
Rp95
ag50
(g54
S'\\\x81\xdc#\x17\x99\xcc?'
p96
tp97
Rp98
ag50
(g54
S'\x82%{r5\xfb\xed?'
p99
tp100
Rp101
ag50
(g54
S'\\\x81\xdc#\x17\x99\xcc?'
p102
tp103
Rp104
ag50
(g54
S'\x82%{r5\xfb\xed?'
p105
tp106
Rp107
ag50
(g54
S'\x84~_\xee\xb4\x9c\xd9?'
p108
tp109
Rp110
ag50
(g54
S'\\\x81\xdc#\x17\x99\xcc?'
p111
tp112
Rp113
ag50
(g54
S'\xff\xf7\x89\x8c)\xc1\xe7?'
p114
tp115
Rp116
ag50
(g54
S'\x01;\xd8\x8dA\xcd\xe5?'
p117
tp118
Rp119
ag50
(g54
S'\xc8\xb8]D\x03\x0e\xd8?'
p120
tp121
Rp122
ag50
(g54
S'\xff\xf7\x89\x8c)\xc1\xe7?'
p123
tp124
Rp125
ag50
(g54
S'\xc8\xb8]D\x03\x0e\xd8?'
p126
tp127
Rp128
ag50
(g54
S'\x92\x12r\xfd\x00\xbd\xd4?'
p129
tp130
Rp131
ag50
(g54
S'\\\x81\xdc#\x17\x99\xcc?'
p132
tp133
Rp134
ag50
(g54
S'H\xb6|\x0fY4\xd1?'
p135
tp136
Rp137
ag50
(g54
S'\x01;\xd8\x8dA\xcd\xe5?'
p138
tp139
Rp140
ag50
(g54
S'a\x12\x9bM\xcf\xb5\xe2?'
p141
tp142
Rp143
ag50
(g54
S'\xc8\xb8]D\x03\x0e\xd8?'
p144
tp145
Rp146
ag50
(g54
S'\x82%{r5\xfb\xed?'
p147
tp148
Rp149
ag50
(g54
S'\\\x81\xdc#\x17\x99\xcc?'
p150
tp151
Rp152
ag50
(g54
S'\x92\x12r\xfd\x00\xbd\xd4?'
p153
tp154
Rp155
ag50
(g54
S'\xe6;*\xb1\x1c\x15\xe8?'
p156
tp157
Rp158
ag50
(g54
S'\x84~_\xee\xb4\x9c\xd9?'
p159
tp160
Rp161
ag50
(g54
S'\xe6;*\xb1\x1c\x15\xe8?'
p162
tp163
Rp164
ag50
(g54
S'\\\x81\xdc#\x17\x99\xcc?'
p165
tp166
Rp167
ag50
(g54
S'\t\xe3\x90\xffL\xba\xe5?'
p168
tp169
Rp170
ag50
(g54
S'\xc8\xb8]D\x03\x0e\xd8?'
p171
tp172
Rp173
ag50
(g54
S'H\xb6|\x0fY4\xd1?'
p174
tp175
Rp176
asS'sp'
p177
(lp178
(S'p0'
p179
I0
S'x'
p180
tp181
a(S'p1'
p182
I0
g180
tp183
a(g182
I0
S't'
p184
tp185
ag185
a(g182
F1.5707963267948966
g184
tp186
a(g182
F1.5707963267948966
S'y'
p187
tp188
a(g179
F1.5707963267948966
g187
tp189
a(g179
F1.5707963267948966
g180
tp190
a(g179
F1.5707963267948966
g184
tp191
ag191
a(g179
F1.5707963267948966
g184
tp192
a(g179
F1.5707963267948966
g180
tp193
ag191
ag193
ag191
ag193
ag191
ag191
ag193
a(g179
F1.5707963267948966
g187
tp194
ag194
ag190
ag194
ag190
a(g182
F1.5707963267948966
g180
tp195
a(g182
F1.5707963267948966
g187
tp196
a(S'p2'
p197
F1.5707963267948966
g187
tp198
ag198
a(g197
F1.5707963267948966
g187
tp199
a(g197
F1.5707963267948966
g180
tp200
a(g197
F1.5707963267948966
g184
tp201
a(g197
F1.5707963267948966
g180
tp202
a(S'p3'
p203
F1.5707963267948966
g180
tp204
ag204
ag204
ag204
a(g203
F1.5707963267948966
g187
tp205
a(g203
F1.5707963267948966
g184
tp206
a(g203
F1.5707963267948966
g187
tp207
a(S'p4'
p208
F1.5707963267948966
g187
tp209
asS's'
p210
(lp211
(g179
I0
g22
tp212
ag181
ag183
ag185
ag185
ag186
ag188
ag189
ag190
ag191
ag191
ag192
ag193
ag191
ag193
ag191
ag193
ag191
ag191
ag193
ag194
ag194
ag190
ag194
ag190
ag195
ag196
ag198
ag198
ag199
ag200
ag201
ag202
ag204
ag204
ag204
ag204
ag205
ag206
ag207
asS'ui'
p213
(lp214
S'hp'
p215
aS'ss'
p216
aS'hs'
p217
ag217
ag177
ag217
ag215
ag217
ag217
ag215
ag215
ag215
ag217
ag215
ag215
ag215
ag215
ag215
ag215
ag215
ag217
ag177
ag215
ag217
ag216
ag215
ag215
ag217
ag217
ag217
ag215
ag215
ag216
ag177
ag215
ag215
ag215
ag177
ag217
ag177
asS'um_before'
p218
(lp219
g215
ag216
ag217
ag217
ag177
ag217
ag216
ag217
ag217
ag177
ag216
ag215
ag217
ag215
ag217
ag215
ag217
ag177
ag215
ag215
ag216
ag217
ag215
ag217
ag216
ag215
ag177
ag216
ag177
ag217
ag217
ag215
ag216
ag217
ag177
ag217
ag215
ag215
ag217
ag177
asS'um_after'
p220
(lp221
g215
ag216
ag217
aNag177
ag217
ag216
ag217
ag217
aNag216
ag215
ag217
ag215
ag217
ag215
ag217
aNag215
ag215
aNag217
ag215
ag217
ag216
ag215
ag177
aNag177
ag217
ag217
ag215
ag216
aNaNaNag215
ag215
ag217
ag177
asS'is_normalized_entropy_less_than_threshold'
p222
(lp223
g50
(g51
(S'b1'
p224
I0
I1
tp225
Rp226
(I3
S'|'
p227
NNNI-1
I-1
I0
tp228
bS'\x01'
p229
tp230
Rp231
ag231
ag231
ag231
ag231
ag231
ag231
ag231
ag50
(g226
S'\x00'
p232
tp233
Rp234
ag231
ag231
ag231
ag234
ag231
ag234
ag231
ag234
ag231
ag231
ag231
ag231
ag231
ag231
ag231
ag231
ag231
ag231
ag231
ag231
ag231
ag234
ag231
ag231
ag231
ag231
ag231
ag231
ag231
ag231
ag231
asaa(lp235
S'index'
p236
aI48536
aatp237
Rp238
.