ccollections
OrderedDict
p0
((lp1
(lp2
S'combination_dict'
p3
ag0
((lp4
(lp5
S'r_to_g_config'
p6
aS'tl'
p7
aa(lp8
S'num_turns'
p9
aI3
aa(lp10
S'start_direction'
p11
acutils_ms
StartDirection
p12
(I0
tp13
Rp14
aa(lp15
S'assistance_type'
p16
acutils_ms
AssistanceType
p17
(I1
tp18
Rp19
aa(lp20
S'start_mode'
p21
aS'y'
p22
aa(lp23
S'ui_given_a_noise'
p24
aF0.7
aa(lp25
S'um_given_ui_noise'
p26
aF0.3
aa(lp27
S'entropy_threshold'
p28
aF0.8
aatp29
Rp30
aa(lp31
S'data'
p32
accollections
defaultdict
p33
(c__builtin__
list
p34
tp35
Rp36
S'a'
p37
(lp38
S'mode_l'
p39
ag39
ag39
ag39
ag39
ag39
aS'move_n'
p40
ag40
ag39
ag39
ag39
ag39
ag39
aS'mode_r'
p41
aS'move_p'
p42
ag39
ag41
ag42
ag39
ag41
ag41
ag40
ag41
ag42
ag39
ag42
ag39
ag42
asS'assistance_match_with_ground_truth'
p43
(lp44
I00
aI00
aI00
aI00
aI00
aI01
aI00
aI01
aI00
aI00
aI00
aI00
aI00
aI01
aI01
aI00
aI01
aI01
aI00
aI00
aI01
aI01
aI01
aI00
aI01
aI00
aI01
aI01
asS'is_u_intended_equals_um'
p45
(lp46
I00
aI01
aI00
aI01
aI00
aI01
aI00
aI01
aI00
aI01
aI01
aI01
aI01
aI01
aI01
aI01
aI01
aI01
aI01
aI01
aI01
aI01
aI01
aI01
aI01
aI01
aI01
aI01
asS'total_steps'
p47
I28
sS'normalized_h_of_p_ui_given_um'
p48
(lp49
cnumpy.core.multiarray
scalar
p50
(cnumpy
dtype
p51
(S'f8'
p52
I0
I1
tp53
Rp54
(I3
S'<'
p55
NNNI-1
I-1
I0
tp56
bS'\x9a\x95\xac\xec\x97\xff\xed?'
p57
tp58
Rp59
ag50
(g54
S'\xd4\x97{xTR\xe8?'
p60
tp61
Rp62
ag50
(g54
S'\x9a\x95\xac\xec\x97\xff\xed?'
p63
tp64
Rp65
ag50
(g54
S'\xd4\x97{xTR\xe8?'
p66
tp67
Rp68
ag50
(g54
S'\x9a\x95\xac\xec\x97\xff\xed?'
p69
tp70
Rp71
ag50
(g54
S'[\xdfL\xdfqb\xcf?'
p72
tp73
Rp74
ag50
(g54
S'\xd31\x05N-\x11\xea?'
p75
tp76
Rp77
ag50
(g54
S'\xd6\xe1\xc5\xfd\xd1\xfb\xd3?'
p78
tp79
Rp80
ag50
(g54
S'\x9a\x95\xac\xec\x97\xff\xed?'
p81
tp82
Rp83
ag50
(g54
S'\xd4\x97{xTR\xe8?'
p84
tp85
Rp86
ag50
(g54
S'\xd4\x97{xTR\xe8?'
p87
tp88
Rp89
ag50
(g54
S'\xd4\x97{xTR\xe8?'
p90
tp91
Rp92
ag50
(g54
S'r\x03\xdca\xdf\xad\xe1?'
p93
tp94
Rp95
ag50
(g54
S',\xa3\xee\xae<\xe5\xd1?'
p96
tp97
Rp98
ag50
(g54
S'\xe9\x90\xab\x8a\xa5\xf0\xe0?'
p99
tp100
Rp101
ag50
(g54
S'r\x03\xdca\xdf\xad\xe1?'
p102
tp103
Rp104
ag50
(g54
S',\xa3\xee\xae<\xe5\xd1?'
p105
tp106
Rp107
ag50
(g54
S'\xe9\x90\xab\x8a\xa5\xf0\xe0?'
p108
tp109
Rp110
ag50
(g54
S'r\x03\xdca\xdf\xad\xe1?'
p111
tp112
Rp113
ag50
(g54
S'\xcax>_\x7f\x9b\xe6?'
p114
tp115
Rp116
ag50
(g54
S',\xa3\xee\xae<\xe5\xd1?'
p117
tp118
Rp119
ag50
(g54
S'\xd6\xe1\xc5\xfd\xd1\xfb\xd3?'
p120
tp121
Rp122
ag50
(g54
S',\xa3\xee\xae<\xe5\xd1?'
p123
tp124
Rp125
ag50
(g54
S'e\xa9\x989\xf6\x16\xe5?'
p126
tp127
Rp128
ag50
(g54
S'[\xdfL\xdfqb\xcf?'
p129
tp130
Rp131
ag50
(g54
S'e\xa9\x989\xf6\x16\xe5?'
p132
tp133
Rp134
ag50
(g54
S'[\xdfL\xdfqb\xcf?'
p135
tp136
Rp137
ag50
(g54
S'\xe9\x90\xab\x8a\xa5\xf0\xe0?'
p138
tp139
Rp140
asS'sp'
p141
(lp142
(S'p0'
p143
I0
S'y'
p144
tp145
a(g143
I0
g144
tp146
ag145
ag146
ag145
a(g143
I0
S'x'
p147
tp148
a(g143
I0
g147
tp149
a(S'p1'
p150
I0
g147
tp151
a(g150
I0
g147
tp152
a(g150
I0
g147
tp153
ag153
ag153
a(g150
I0
g144
tp154
a(g150
I0
S't'
p155
tp156
a(g150
F1.5707963267948966
g155
tp157
a(g150
F1.5707963267948966
g147
tp158
a(g150
F1.5707963267948966
g144
tp159
a(S'p2'
p160
F1.5707963267948966
g144
tp161
a(g160
F1.5707963267948966
g155
tp162
a(g160
F1.5707963267948966
g155
tp163
a(g160
F1.5707963267948966
g147
tp164
a(S'p3'
p165
F1.5707963267948966
g147
tp166
a(g165
F1.5707963267948966
g144
tp167
a(g165
F1.5707963267948966
g155
tp168
a(g165
F1.5707963267948966
g144
tp169
ag168
ag169
a(S'p4'
p170
F1.5707963267948966
g144
tp171
asS's'
p172
(lp173
(g143
I0
g22
tp174
ag145
ag146
ag145
ag146
ag145
ag148
ag149
ag151
ag152
ag153
ag153
ag153
ag154
ag156
ag157
ag158
ag159
ag161
ag162
ag163
ag164
ag166
ag167
ag168
ag169
ag168
ag169
asS'ui'
p175
(lp176
S'ss'
p177
ag177
ag141
aS'hs'
p178
ag178
ag178
ag177
ag177
ag141
aS'hp'
p179
ag178
ag178
ag179
ag179
ag177
ag179
ag179
ag141
ag179
ag179
ag179
ag177
ag179
ag179
ag178
ag141
ag178
ag141
asS'um_before'
p180
(lp181
g141
ag177
ag141
ag177
ag141
ag178
ag141
ag177
ag141
ag177
ag177
ag177
ag179
ag179
ag141
ag179
ag179
ag141
ag179
ag141
ag179
ag177
ag179
ag179
ag178
ag179
ag178
ag141
asS'um_after'
p182
(lp183
g141
ag177
ag141
ag177
ag141
ag178
ag141
ag177
ag141
ag177
ag177
ag177
ag179
ag179
ag141
ag179
ag179
ag141
ag179
ag141
ag179
ag177
ag179
ag179
ag178
ag179
ag178
ag141
asS'is_normalized_entropy_less_than_threshold'
p184
(lp185
g50
(g51
(S'b1'
p186
I0
I1
tp187
Rp188
(I3
S'|'
p189
NNNI-1
I-1
I0
tp190
bS'\x00'
p191
tp192
Rp193
ag50
(g188
S'\x01'
p194
tp195
Rp196
ag193
ag196
ag193
ag196
ag193
ag196
ag193
ag196
ag196
ag196
ag196
ag196
ag196
ag196
ag196
ag196
ag196
ag196
ag196
ag196
ag196
ag196
ag196
ag196
ag196
ag196
asaa(lp197
S'index'
p198
aI51085
aatp199
Rp200
.