ccollections
OrderedDict
p0
((lp1
(lp2
S'combination_dict'
p3
ag0
((lp4
(lp5
S'r_to_g_config'
p6
aS'tl'
p7
aa(lp8
S'num_turns'
p9
aI3
aa(lp10
S'start_direction'
p11
acutils_ms
StartDirection
p12
(I1
tp13
Rp14
aa(lp15
S'assistance_type'
p16
acutils_ms
AssistanceType
p17
(I0
tp18
Rp19
aa(lp20
S'start_mode'
p21
aS't'
p22
aa(lp23
S'ui_given_a_noise'
p24
aF0.1
aa(lp25
S'um_given_ui_noise'
p26
aF0.7
aa(lp27
S'entropy_threshold'
p28
aF0.7
aatp29
Rp30
aa(lp31
S'data'
p32
accollections
defaultdict
p33
(c__builtin__
list
p34
tp35
Rp36
S'a'
p37
(lp38
S'mode_l'
p39
ag39
ag39
aS'move_p'
p40
ag39
ag39
ag39
aS'move_n'
p41
ag41
ag39
ag40
ag40
ag40
ag39
ag40
ag40
ag39
ag41
ag41
ag41
aS'mode_r'
p42
ag41
ag41
asS'assistance_match_with_ground_truth'
p43
(lp44
I00
aI00
aI01
aI01
aI00
aI00
aI01
aI00
aI01
aI01
aI00
aI00
aI01
aI01
aI00
aI01
aI01
aI00
aI00
aI00
aI01
aI00
aI01
asS'is_u_intended_equals_um'
p45
(lp46
I00
aI00
aI01
aI01
aI00
aI00
aI01
aI00
aI01
aI01
aI00
aI00
aI01
aI01
aI00
aI01
aI01
aI00
aI00
aI01
aI01
aI00
aI01
asS'total_steps'
p47
I23
sS'normalized_h_of_p_ui_given_um'
p48
(lp49
cnumpy.core.multiarray
scalar
p50
(cnumpy
dtype
p51
(S'f8'
p52
I0
I1
tp53
Rp54
(I3
S'<'
p55
NNNI-1
I-1
I0
tp56
bS'9\x9bB\x0b\x89]\xd3?'
p57
tp58
Rp59
ag50
(g54
S'\x1d\xcf\x80\x0fa\x97\xe2?'
p60
tp61
Rp62
ag50
(g54
S'V\x1f\xa3\xf9\xb9+\xbd?'
p63
tp64
Rp65
ag50
(g54
S'\x0c\x10\xb5\x1dz\x98\xb6?'
p66
tp67
Rp68
ag50
(g54
S'\x1d\xcf\x80\x0fa\x97\xe2?'
p69
tp70
Rp71
ag50
(g54
S'9\x9bB\x0b\x89]\xd3?'
p72
tp73
Rp74
ag50
(g54
S'V\x1f\xa3\xf9\xb9+\xbd?'
p75
tp76
Rp77
ag50
(g54
S'\xb4\xe9h\xdcE\xcf\xe3?'
p78
tp79
Rp80
ag50
(g54
S'\x1d\xa3W\x8a\xf6\x9a\xba?'
p81
tp82
Rp83
ag50
(g54
S'V\x1f\xa3\xf9\xb9+\xbd?'
p84
tp85
Rp86
ag50
(g54
S'"p\xd4\x1b;\xc5\xc1?'
p87
tp88
Rp89
ag50
(g54
S'\xe4\x10J\x88\x95j\xd3?'
p90
tp91
Rp92
ag50
(g54
S'\x0c\x10\xb5\x1dz\x98\xb6?'
p93
tp94
Rp95
ag50
(g54
S'V\x1f\xa3\xf9\xb9+\xbd?'
p96
tp97
Rp98
ag50
(g54
S'"p\xd4\x1b;\xc5\xc1?'
p99
tp100
Rp101
ag50
(g54
S'\x0c\x10\xb5\x1dz\x98\xb6?'
p102
tp103
Rp104
ag50
(g54
S'V\x1f\xa3\xf9\xb9+\xbd?'
p105
tp106
Rp107
ag50
(g54
S'\xda\xcc\xb3w\xec\x8d\xcc?'
p108
tp109
Rp110
ag50
(g54
S'\xb4\xe9h\xdcE\xcf\xe3?'
p111
tp112
Rp113
ag50
(g54
S'\xf7\x15\x01}\xcd\xe1\xe9?'
p114
tp115
Rp116
ag50
(g54
S'RGu$\x85\xe8\xd1?'
p117
tp118
Rp119
ag50
(g54
S'\xda\xcc\xb3w\xec\x8d\xcc?'
p120
tp121
Rp122
ag50
(g54
S'\x1d\xa3W\x8a\xf6\x9a\xba?'
p123
tp124
Rp125
asS'sp'
p126
(lp127
(S'p0'
p128
I0
g22
tp129
ag129
a(g128
I0
S'y'
p130
tp131
a(S'p1'
p132
I0
g130
tp133
ag133
ag133
a(g132
I0
S'x'
p134
tp135
ag135
a(S'p2'
p136
I0
g134
tp137
a(g136
I0
S't'
p138
tp139
ag139
ag139
a(g136
F1.5707963267948966
g138
tp140
a(g136
F1.5707963267948966
g130
tp141
ag141
a(S'p3'
p142
F1.5707963267948966
g130
tp143
a(g142
F1.5707963267948966
g134
tp144
ag144
ag144
a(g142
F1.5707963267948966
g138
tp145
a(g142
F1.5707963267948966
g134
tp146
ag146
a(S'p4'
p147
F1.5707963267948966
g134
tp148
asS's'
p149
(lp150
g129
ag129
ag129
ag131
ag133
ag133
ag133
ag135
ag135
ag137
ag139
ag139
ag139
ag140
ag141
ag141
ag143
ag144
ag144
ag144
ag145
ag146
ag146
asS'ui'
p151
(lp152
S'hs'
p153
aS'hp'
p154
ag153
ag126
ag153
ag154
ag153
aS'ss'
p155
ag155
ag153
ag126
ag126
ag126
ag153
ag126
ag126
ag153
ag155
ag155
ag126
ag154
ag155
ag155
asS'um_before'
p156
(lp157
g126
ag154
ag153
ag126
ag154
ag126
ag153
ag126
ag155
ag153
ag153
ag154
ag126
ag153
ag153
ag126
ag153
ag154
ag126
ag153
ag154
ag154
ag155
asS'um_after'
p158
(lp159
NaNag153
ag126
aNaNag153
aNag155
ag153
aNaNag126
ag153
aNag126
ag153
aNaNag153
ag154
aNag155
asS'is_normalized_entropy_less_than_threshold'
p160
(lp161
g50
(g51
(S'b1'
p162
I0
I1
tp163
Rp164
(I3
S'|'
p165
NNNI-1
I-1
I0
tp166
bS'\x01'
p167
tp168
Rp169
ag169
ag169
ag169
ag169
ag169
ag169
ag169
ag169
ag169
ag169
ag169
ag169
ag169
ag169
ag169
ag169
ag169
ag169
ag50
(g164
S'\x00'
p170
tp171
Rp172
ag169
ag169
ag169
asaa(lp173
S'index'
p174
aI53776
aatp175
Rp176
.