ccollections
OrderedDict
p0
((lp1
(lp2
S'combination_dict'
p3
ag0
((lp4
(lp5
S'r_to_g_config'
p6
aS'bl'
p7
aa(lp8
S'num_turns'
p9
aI3
aa(lp10
S'start_direction'
p11
acutils_ms
StartDirection
p12
(I0
tp13
Rp14
aa(lp15
S'assistance_type'
p16
acutils_ms
AssistanceType
p17
(I0
tp18
Rp19
aa(lp20
S'start_mode'
p21
aS'y'
p22
aa(lp23
S'ui_given_a_noise'
p24
aF0.1
aa(lp25
S'um_given_ui_noise'
p26
aF0.5
aa(lp27
S'entropy_threshold'
p28
aF0.6
aatp29
Rp30
aa(lp31
S'data'
p32
accollections
defaultdict
p33
(c__builtin__
list
p34
tp35
Rp36
S'a'
p37
(lp38
S'mode_l'
p39
ag39
aS'move_n'
p40
aS'mode_r'
p41
ag40
ag39
ag40
ag39
aS'move_p'
p42
ag39
ag40
ag40
asS'assistance_match_with_ground_truth'
p43
(lp44
I00
aI01
aI01
aI01
aI01
aI01
aI01
aI01
aI01
aI01
aI00
aI01
asS'is_u_intended_equals_um'
p45
(lp46
I00
aI01
aI01
aI01
aI01
aI01
aI01
aI01
aI01
aI01
aI00
aI01
asS'total_steps'
p47
I12
sS'normalized_h_of_p_ui_given_um'
p48
(lp49
cnumpy.core.multiarray
scalar
p50
(cnumpy
dtype
p51
(S'f8'
p52
I0
I1
tp53
Rp54
(I3
S'<'
p55
NNNI-1
I-1
I0
tp56
bS'N8\xc5\xd0\x0b\xcf\xde?'
p57
tp58
Rp59
ag50
(g54
S'\\\xb8\x87\xfe\xde\x80\xb9?'
p60
tp61
Rp62
ag50
(g54
S'\xd1\xfc\xc8\x83\x07G\xa5?'
p63
tp64
Rp65
ag50
(g54
S'"S\x00\xf9\xb7Z\xb3?'
p66
tp67
Rp68
ag50
(g54
S'\xd1\xfc\xc8\x83\x07G\xa5?'
p69
tp70
Rp71
ag50
(g54
S'\\\xb8\x87\xfe\xde\x80\xb9?'
p72
tp73
Rp74
ag50
(g54
S'\xd1\xfc\xc8\x83\x07G\xa5?'
p75
tp76
Rp77
ag50
(g54
S'\\\xb8\x87\xfe\xde\x80\xb9?'
p78
tp79
Rp80
ag50
(g54
S'\xcaF\xe6\xcc\x08\x1d\xcc?'
p81
tp82
Rp83
ag50
(g54
S'\\\xb8\x87\xfe\xde\x80\xb9?'
p84
tp85
Rp86
ag50
(g54
S'\xb6\xb6n#\xb6\x17\xc5?'
p87
tp88
Rp89
ag50
(g54
S'\xd1\xfc\xc8\x83\x07G\xa5?'
p90
tp91
Rp92
asS'sp'
p93
(lp94
(S'p0'
p95
I0
g22
tp96
a(g95
I0
S'x'
p97
tp98
a(S'p1'
p99
I0
g97
tp100
a(g99
I0
S'y'
p101
tp102
a(S'p2'
p103
I0
g101
tp104
a(g103
I0
g97
tp105
a(S'p3'
p106
I0
g97
tp107
a(g106
I0
S't'
p108
tp109
a(g106
F1.5707963267948966
g108
tp110
a(g106
F1.5707963267948966
g101
tp111
ag111
a(S'p4'
p112
F1.5707963267948966
g101
tp113
asS's'
p114
(lp115
g96
ag96
ag98
ag100
ag102
ag104
ag105
ag107
ag109
ag110
ag111
ag111
asS'ui'
p116
(lp117
S'hp'
p118
aS'hs'
p119
aS'ss'
p120
ag118
ag120
ag119
ag120
ag119
ag93
ag119
ag120
ag120
asS'um_before'
p121
(lp122
g118
ag119
ag120
ag118
ag120
ag119
ag120
ag119
ag93
ag119
ag93
ag120
asS'um_after'
p123
(lp124
Nag119
ag120
ag118
ag120
ag119
ag120
ag119
ag93
ag119
aNag120
asS'is_normalized_entropy_less_than_threshold'
p125
(lp126
g50
(g51
(S'b1'
p127
I0
I1
tp128
Rp129
(I3
S'|'
p130
NNNI-1
I-1
I0
tp131
bS'\x01'
p132
tp133
Rp134
ag134
ag134
ag134
ag134
ag134
ag134
ag134
ag134
ag134
ag134
ag134
asaa(lp135
S'index'
p136
aI77711
aatp137
Rp138
.