ccollections
OrderedDict
p0
((lp1
(lp2
S'combination_dict'
p3
ag0
((lp4
(lp5
S'r_to_g_config'
p6
aS'bl'
p7
aa(lp8
S'num_turns'
p9
aI2
aa(lp10
S'start_direction'
p11
acutils_ms
StartDirection
p12
(I0
tp13
Rp14
aa(lp15
S'assistance_type'
p16
acutils_ms
AssistanceType
p17
(I0
tp18
Rp19
aa(lp20
S'start_mode'
p21
aS'y'
p22
aa(lp23
S'ui_given_a_noise'
p24
aF0.3
aa(lp25
S'um_given_ui_noise'
p26
aF0.7
aa(lp27
S'entropy_threshold'
p28
aF0.7
aatp29
Rp30
aa(lp31
S'data'
p32
accollections
defaultdict
p33
(c__builtin__
list
p34
tp35
Rp36
S'a'
p37
(lp38
S'mode_l'
p39
aS'mode_r'
p40
aS'move_n'
p41
ag40
ag40
ag41
ag40
aS'move_p'
p42
ag42
ag40
ag40
ag42
ag42
ag42
ag40
ag41
ag39
ag40
ag42
ag39
asS'assistance_match_with_ground_truth'
p43
(lp44
I00
aI01
aI01
aI00
aI01
aI01
aI01
aI00
aI00
aI00
aI01
aI00
aI00
aI01
aI01
aI00
aI00
aI00
aI00
aI00
asS'is_u_intended_equals_um'
p45
(lp46
I00
aI01
aI01
aI00
aI01
aI01
aI01
aI00
aI00
aI00
aI01
aI00
aI00
aI01
aI01
aI00
aI00
aI00
aI00
aI01
asS'total_steps'
p47
I20
sS'normalized_h_of_p_ui_given_um'
p48
(lp49
cnumpy.core.multiarray
scalar
p50
(cnumpy
dtype
p51
(S'f8'
p52
I0
I1
tp53
Rp54
(I3
S'<'
p55
NNNI-1
I-1
I0
tp56
bS'\xdb\xbaU{\xda\x9b\xe7?'
p57
tp58
Rp59
ag50
(g54
S'-:\xbc\x9f&\xa4\xdd?'
p60
tp61
Rp62
ag50
(g54
S'\xfc\x13\xc8.\x02\x88\xd4?'
p63
tp64
Rp65
ag50
(g54
S'\x93\x89\xe0B\x12\x8c\xe4?'
p66
tp67
Rp68
ag50
(g54
S'-:\xbc\x9f&\xa4\xdd?'
p69
tp70
Rp71
ag50
(g54
S'\xfc\x13\xc8.\x02\x88\xd4?'
p72
tp73
Rp74
ag50
(g54
S'-:\xbc\x9f&\xa4\xdd?'
p75
tp76
Rp77
ag50
(g54
S'\xe8I\xc7\x19y#\xdf?'
p78
tp79
Rp80
ag50
(g54
S'\x8c+q\xec>\xcb\xe7?'
p81
tp82
Rp83
ag50
(g54
S'\x93\x89\xe0B\x12\x8c\xe4?'
p84
tp85
Rp86
ag50
(g54
S'-:\xbc\x9f&\xa4\xdd?'
p87
tp88
Rp89
ag50
(g54
S'\xe8I\xc7\x19y#\xdf?'
p90
tp91
Rp92
ag50
(g54
S'\xe8I\xc7\x19y#\xdf?'
p93
tp94
Rp95
ag50
(g54
S'\xeb\xf8\xcd\x96\xcdX\xe0?'
p96
tp97
Rp98
ag50
(g54
S'-:\xbc\x9f&\xa4\xdd?'
p99
tp100
Rp101
ag50
(g54
S'.\xe1\x87\x90\xa5\x03\xe7?'
p102
tp103
Rp104
ag50
(g54
S'\xdb\xbaU{\xda\x9b\xe7?'
p105
tp106
Rp107
ag50
(g54
S'8\xd18\xc5\xb3\xd3\xed?'
p108
tp109
Rp110
ag50
(g54
S'\x19\xf5\x93\x1eNK\xeb?'
p111
tp112
Rp113
ag50
(g54
S'[\xed\xaas.I\xe8?'
p114
tp115
Rp116
asS'sp'
p117
(lp118
(S'p0'
p119
I0
S't'
p120
tp121
a(g119
I0
S'x'
p122
tp123
a(S'p1'
p124
I0
g122
tp125
ag125
a(g124
I0
S'y'
p126
tp127
a(S'p2'
p128
I0
g126
tp129
a(g128
I0
g120
tp130
ag130
a(g128
I0
g126
tp131
ag131
ag130
ag130
ag130
a(g128
F1.5707963267948966
g120
tp132
a(g128
F1.5707963267948966
g122
tp133
a(g128
F1.5707963267948966
g126
tp134
a(g128
F1.5707963267948966
g120
tp135
a(g128
I0
g120
tp136
a(g128
I0
g122
tp137
a(S'p3'
p138
I0
g122
tp139
asS's'
p140
(lp141
(g119
I0
g22
tp142
ag121
ag123
ag125
ag125
ag127
ag129
ag130
ag130
ag131
ag131
ag130
ag130
ag130
ag132
ag133
ag134
ag135
ag136
ag137
asS'ui'
p143
(lp144
S'hs'
p145
aS'hp'
p146
aS'ss'
p147
ag146
ag146
ag147
ag146
ag117
ag117
ag146
ag117
ag147
ag117
ag117
ag145
ag147
ag145
ag147
ag147
ag117
asS'um_before'
p148
(lp149
g146
ag146
ag147
ag145
ag146
ag147
ag146
ag147
ag145
ag145
ag146
ag147
ag147
ag117
ag146
ag146
ag146
ag147
ag146
ag147
asS'um_after'
p150
(lp151
g146
ag146
ag147
aNag146
ag147
ag146
aNag145
aNag146
aNaNag117
ag146
ag146
ag146
ag147
ag146
ag147
asS'is_normalized_entropy_less_than_threshold'
p152
(lp153
g50
(g51
(S'b1'
p154
I0
I1
tp155
Rp156
(I3
S'|'
p157
NNNI-1
I-1
I0
tp158
bS'\x00'
p159
tp160
Rp161
ag50
(g156
S'\x01'
p162
tp163
Rp164
ag164
ag164
ag164
ag164
ag164
ag164
ag161
ag164
ag164
ag164
ag164
ag164
ag164
ag161
ag161
ag161
ag161
ag161
asaa(lp165
S'index'
p166
aI68370
aatp167
Rp168
.