ccollections
OrderedDict
p0
((lp1
(lp2
S'combination_dict'
p3
ag0
((lp4
(lp5
S'r_to_g_config'
p6
aS'bl'
p7
aa(lp8
S'num_turns'
p9
aI2
aa(lp10
S'start_direction'
p11
acutils_ms
StartDirection
p12
(I0
tp13
Rp14
aa(lp15
S'assistance_type'
p16
acutils_ms
AssistanceType
p17
(I0
tp18
Rp19
aa(lp20
S'start_mode'
p21
aS'y'
p22
aa(lp23
S'ui_given_a_noise'
p24
aF0.3
aa(lp25
S'um_given_ui_noise'
p26
aF0.7
aa(lp27
S'entropy_threshold'
p28
aF0.5
aatp29
Rp30
aa(lp31
S'data'
p32
accollections
defaultdict
p33
(c__builtin__
list
p34
tp35
Rp36
S'a'
p37
(lp38
S'mode_l'
p39
ag39
aS'mode_r'
p40
aS'move_n'
p41
ag39
ag39
ag40
ag39
ag40
ag40
ag41
ag40
ag39
ag40
ag40
ag41
ag39
ag41
ag40
ag41
ag39
ag39
ag41
ag40
ag41
ag40
ag39
ag40
ag40
aS'move_p'
p42
ag40
ag39
ag40
ag41
ag40
ag40
ag39
ag42
ag39
asS'assistance_match_with_ground_truth'
p43
(lp44
I00
aI00
aI01
aI00
aI00
aI00
aI00
aI00
aI00
aI01
aI01
aI00
aI00
aI00
aI01
aI00
aI01
aI01
aI01
aI00
aI00
aI01
aI01
aI01
aI01
aI00
aI00
aI00
aI01
aI00
aI00
aI00
aI01
aI01
aI00
aI00
aI01
aI00
aI00
asS'is_u_intended_equals_um'
p45
(lp46
I01
aI01
aI01
aI01
aI00
aI01
aI00
aI01
aI01
aI01
aI01
aI00
aI01
aI00
aI01
aI00
aI01
aI01
aI01
aI00
aI00
aI01
aI01
aI01
aI01
aI00
aI01
aI01
aI01
aI00
aI00
aI00
aI01
aI01
aI01
aI00
aI01
aI01
aI01
asS'total_steps'
p47
I39
sS'normalized_h_of_p_ui_given_um'
p48
(lp49
cnumpy.core.multiarray
scalar
p50
(cnumpy
dtype
p51
(S'f8'
p52
I0
I1
tp53
Rp54
(I3
S'<'
p55
NNNI-1
I-1
I0
tp56
bS'\x9d\xb0\xd3\x11^\x04\xec?'
p57
tp58
Rp59
ag50
(g54
S'b\xb0&cU\r\xea?'
p60
tp61
Rp62
ag50
(g54
S'(\x94o\xbfP\xf2\xc5?'
p63
tp64
Rp65
ag50
(g54
S'\xder\xdck\n\x1e\xe8?'
p66
tp67
Rp68
ag50
(g54
S'\xd6\x8d1\x1d\xf3\x9b\xe4?'
p69
tp70
Rp71
ag50
(g54
S'b\xb0&cU\r\xea?'
p72
tp73
Rp74
ag50
(g54
S'^\xa3@]\x16\xad\xe5?'
p75
tp76
Rp77
ag50
(g54
S'b\xb0&cU\r\xea?'
p78
tp79
Rp80
ag50
(g54
S'\xf6\xb8p\x8ah!\xe4?'
p81
tp82
Rp83
ag50
(g54
S'(\x94o\xbfP\xf2\xc5?'
p84
tp85
Rp86
ag50
(g54
S'\xea\xa1\x7f\x05\x8eC\xd8?'
p87
tp88
Rp89
ag50
(g54
S'^\xa3@]\x16\xad\xe5?'
p90
tp91
Rp92
ag50
(g54
S'b\xb0&cU\r\xea?'
p93
tp94
Rp95
ag50
(g54
S'\x9e\xd1c\xa0~\xdb\xec?'
p96
tp97
Rp98
ag50
(g54
S'(\x94o\xbfP\xf2\xc5?'
p99
tp100
Rp101
ag50
(g54
S",\xe2\xdf\x11\xfc'\xe6?"
p102
tp103
Rp104
ag50
(g54
S'\x02\xab>\xf3\xd9\x92\xdf?'
p105
tp106
Rp107
ag50
(g54
S'\xea\xa1\x7f\x05\x8eC\xd8?'
p108
tp109
Rp110
ag50
(g54
S'(\x94o\xbfP\xf2\xc5?'
p111
tp112
Rp113
ag50
(g54
S",\xe2\xdf\x11\xfc'\xe6?"
p114
tp115
Rp116
ag50
(g54
S'\xd6\x8d1\x1d\xf3\x9b\xe4?'
p117
tp118
Rp119
ag50
(g54
S'\x02\xab>\xf3\xd9\x92\xdf?'
p120
tp121
Rp122
ag50
(g54
S'\xea\xa1\x7f\x05\x8eC\xd8?'
p123
tp124
Rp125
ag50
(g54
S'(\x94o\xbfP\xf2\xc5?'
p126
tp127
Rp128
ag50
(g54
S'\xea\xa1\x7f\x05\x8eC\xd8?'
p129
tp130
Rp131
ag50
(g54
S'^\xa3@]\x16\xad\xe5?'
p132
tp133
Rp134
ag50
(g54
S'b\xb0&cU\r\xea?'
p135
tp136
Rp137
ag50
(g54
S'\xf6\xb8p\x8ah!\xe4?'
p138
tp139
Rp140
ag50
(g54
S'(\x94o\xbfP\xf2\xc5?'
p141
tp142
Rp143
ag50
(g54
S'>.\x03\xc8+g\xe7?'
p144
tp145
Rp146
ag50
(g54
S'^\xa3@]\x16\xad\xe5?'
p147
tp148
Rp149
ag50
(g54
S'\xd6\x8d1\x1d\xf3\x9b\xe4?'
p150
tp151
Rp152
ag50
(g54
S'(\x94o\xbfP\xf2\xc5?'
p153
tp154
Rp155
ag50
(g54
S'\xea\xa1\x7f\x05\x8eC\xd8?'
p156
tp157
Rp158
ag50
(g54
S'\xf6\xb8p\x8ah!\xe4?'
p159
tp160
Rp161
ag50
(g54
S'^\xa3@]\x16\xad\xe5?'
p162
tp163
Rp164
ag50
(g54
S'\x02\xab>\xf3\xd9\x92\xdf?'
p165
tp166
Rp167
ag50
(g54
S'K\x02\xed\nA\xf2\xe2?'
p168
tp169
Rp170
ag50
(g54
S'\x9d\xb0\xd3\x11^\x04\xec?'
p171
tp172
Rp173
asS'sp'
p174
(lp175
(S'p0'
p176
I0
S'y'
p177
tp178
a(g176
I0
S't'
p179
tp180
a(g176
I0
S'x'
p181
tp182
a(g176
I0
g177
tp183
a(g176
I0
g177
tp184
ag180
a(g176
I0
g177
tp185
ag180
a(g176
I0
g179
tp186
ag182
a(S'p1'
p187
I0
g181
tp188
a(g187
I0
g179
tp189
a(g187
I0
g181
tp190
a(g187
I0
g181
tp191
a(g187
I0
g177
tp192
a(g176
I0
g177
tp193
a(g176
I0
g181
tp194
ag188
ag192
ag193
ag184
ag194
ag188
ag192
a(S'p2'
p195
I0
g177
tp196
a(g195
I0
g181
tp197
a(g195
I0
g177
tp198
a(g195
I0
g177
tp199
a(g195
I0
g179
tp200
a(g195
I0
g177
tp201
ag197
a(g187
I0
g181
tp202
ag192
ag196
ag199
ag197
a(g195
I0
g179
tp203
a(g195
I0
g181
tp204
a(S'p3'
p205
I0
g181
tp206
asS's'
p207
(lp208
(g176
I0
g22
tp209
ag178
ag180
ag182
ag183
ag184
ag180
ag185
ag180
ag186
ag182
ag188
ag189
ag190
ag191
ag192
ag193
ag194
ag188
ag192
ag193
ag184
ag194
ag188
ag192
ag196
ag197
ag198
ag199
ag200
ag201
ag197
ag202
ag192
ag196
ag199
ag197
ag203
ag204
asS'ui'
p210
(lp211
S'ss'
p212
aS'hp'
p213
ag213
ag213
ag212
ag213
ag213
aS'hs'
p214
ag213
ag213
ag213
ag212
ag214
ag213
ag212
ag212
ag214
ag212
ag213
ag212
ag214
ag212
ag212
ag213
ag212
ag213
ag213
ag212
ag213
ag174
ag213
ag214
ag213
ag212
ag212
ag213
ag214
ag213
ag214
asS'um_before'
p215
(lp216
g212
ag213
ag213
ag213
ag174
ag213
ag214
ag213
ag212
ag213
ag212
ag214
ag213
ag174
ag213
ag174
ag214
ag212
ag213
ag174
ag174
ag214
ag212
ag213
ag212
ag214
ag213
ag212
ag213
ag214
ag214
ag174
ag213
ag212
ag212
ag214
ag214
ag213
ag212
asS'um_after'
p217
(lp218
g212
ag213
ag213
ag213
ag174
ag213
ag214
ag213
ag212
ag213
ag212
ag214
ag213
ag174
ag213
ag174
ag214
ag212
ag213
ag174
ag174
ag214
ag212
ag213
ag212
ag214
ag213
ag212
ag213
ag214
ag214
ag174
ag213
ag212
ag212
ag214
ag214
ag213
ag212
asS'is_normalized_entropy_less_than_threshold'
p219
(lp220
g50
(g51
(S'b1'
p221
I0
I1
tp222
Rp223
(I3
S'|'
p224
NNNI-1
I-1
I0
tp225
bS'\x00'
p226
tp227
Rp228
ag228
ag50
(g223
S'\x01'
p229
tp230
Rp231
ag228
ag228
ag228
ag228
ag228
ag228
ag231
ag231
ag228
ag228
ag228
ag231
ag228
ag231
ag231
ag231
ag228
ag228
ag231
ag231
ag231
ag231
ag228
ag228
ag228
ag231
ag228
ag228
ag228
ag231
ag231
ag228
ag228
ag231
ag228
ag228
asaa(lp232
S'index'
p233
aI68351
aatp234
Rp235
.