ccollections
OrderedDict
p0
((lp1
(lp2
S'combination_dict'
p3
ag0
((lp4
(lp5
S'r_to_g_config'
p6
aS'bl'
p7
aa(lp8
S'num_turns'
p9
aI2
aa(lp10
S'start_direction'
p11
acutils_ms
StartDirection
p12
(I1
tp13
Rp14
aa(lp15
S'assistance_type'
p16
acutils_ms
AssistanceType
p17
(I1
tp18
Rp19
aa(lp20
S'start_mode'
p21
aS'x'
p22
aa(lp23
S'ui_given_a_noise'
p24
aF0.5
aa(lp25
S'um_given_ui_noise'
p26
aF0.5
aa(lp27
S'entropy_threshold'
p28
aF0.6
aatp29
Rp30
aa(lp31
S'data'
p32
accollections
defaultdict
p33
(c__builtin__
list
p34
tp35
Rp36
S'a'
p37
(lp38
S'mode_r'
p39
aS'move_n'
p40
aS'mode_l'
p41
ag41
ag40
ag41
ag41
ag41
ag41
ag41
ag41
ag41
ag41
ag41
aS'move_p'
p42
ag42
ag42
ag42
ag41
ag41
ag41
ag39
ag40
ag41
ag42
ag41
ag40
ag41
ag41
ag40
ag39
ag40
asS'assistance_match_with_ground_truth'
p43
(lp44
I01
aI01
aI00
aI01
aI01
aI00
aI00
aI00
aI00
aI00
aI00
aI00
aI00
aI01
aI00
aI00
aI00
aI01
aI00
aI00
aI00
aI01
aI00
aI00
aI01
aI01
aI00
aI00
aI01
aI01
aI01
aI01
asS'is_u_intended_equals_um'
p45
(lp46
I00
aI01
aI01
aI01
aI01
aI00
aI00
aI00
aI00
aI00
aI01
aI01
aI00
aI01
aI01
aI01
aI01
aI01
aI00
aI00
aI00
aI01
aI01
aI01
aI00
aI01
aI01
aI00
aI01
aI01
aI01
aI01
asS'total_steps'
p47
I32
sS'normalized_h_of_p_ui_given_um'
p48
(lp49
cnumpy.core.multiarray
scalar
p50
(cnumpy
dtype
p51
(S'f8'
p52
I0
I1
tp53
Rp54
(I3
S'<'
p55
NNNI-1
I-1
I0
tp56
bS'\xf6\x01\x81\xaf\r\xf3\xe1?'
p57
tp58
Rp59
ag50
(g54
S'Z9\xdc\xf70\x91\xdf?'
p60
tp61
Rp62
ag50
(g54
S'ud$\x08*V\xd8?'
p63
tp64
Rp65
ag50
(g54
S'\xb4D\xa5XH\xc5\xca?'
p66
tp67
Rp68
ag50
(g54
S'Z9\xdc\xf70\x91\xdf?'
p69
tp70
Rp71
ag50
(g54
S'\xf4J%\xbaDa\xe3?'
p72
tp73
Rp74
ag50
(g54
S'\xf4J%\xbaDa\xe3?'
p75
tp76
Rp77
ag50
(g54
S'\xf4J%\xbaDa\xe3?'
p78
tp79
Rp80
ag50
(g54
S'\xf4J%\xbaDa\xe3?'
p81
tp82
Rp83
ag50
(g54
S'\xf4J%\xbaDa\xe3?'
p84
tp85
Rp86
ag50
(g54
S'ud$\x08*V\xd8?'
p87
tp88
Rp89
ag50
(g54
S'ud$\x08*V\xd8?'
p90
tp91
Rp92
ag50
(g54
S'\xf4J%\xbaDa\xe3?'
p93
tp94
Rp95
ag50
(g54
S'\xb4D\xa5XH\xc5\xca?'
p96
tp97
Rp98
ag50
(g54
S'\x10\xcc\xb1\x94TD\xe4?'
p99
tp100
Rp101
ag50
(g54
S'\x10\xcc\xb1\x94TD\xe4?'
p102
tp103
Rp104
ag50
(g54
S'\x10\xcc\xb1\x94TD\xe4?'
p105
tp106
Rp107
ag50
(g54
S'<TvQ\xfdm\xd9?'
p108
tp109
Rp110
ag50
(g54
S'\xf4J%\xbaDa\xe3?'
p111
tp112
Rp113
ag50
(g54
S'\xf4J%\xbaDa\xe3?'
p114
tp115
Rp116
ag50
(g54
S'\x8e\x0f\xe04\xc8\xc4\xe9?'
p117
tp118
Rp119
ag50
(g54
S'\x04\x87\\\x01\xb8\x80\xd1?'
p120
tp121
Rp122
ag50
(g54
S'&}\x1c\xf9\xb7\xd4\xe6?'
p123
tp124
Rp125
ag50
(g54
S'ud$\x08*V\xd8?'
p126
tp127
Rp128
ag50
(g54
S'\x10\x03\x85\xba>\xaa\xe1?'
p129
tp130
Rp131
ag50
(g54
S'\xb4D\xa5XH\xc5\xca?'
p132
tp133
Rp134
ag50
(g54
S'\xfcl\x03\xf8.T\xe8?'
p135
tp136
Rp137
ag50
(g54
S'\xf4J%\xbaDa\xe3?'
p138
tp139
Rp140
ag50
(g54
S'\xb4D\xa5XH\xc5\xca?'
p141
tp142
Rp143
ag50
(g54
S'Z9\xdc\xf70\x91\xdf?'
p144
tp145
Rp146
ag50
(g54
S'\x04\x87\\\x01\xb8\x80\xd1?'
p147
tp148
Rp149
ag50
(g54
S'Z9\xdc\xf70\x91\xdf?'
p150
tp151
Rp152
asS'sp'
p153
(lp154
(S'p0'
p155
I0
S'y'
p156
tp157
a(S'p1'
p158
I0
g156
tp159
a(g158
I0
g156
tp160
a(g158
I0
S'x'
p161
tp162
a(S'p2'
p163
I0
g161
tp164
a(g163
I0
g161
tp165
ag165
ag165
ag165
ag165
a(g163
I0
g161
tp166
ag166
ag165
a(g163
I0
S't'
p167
tp168
a(g163
I0
g167
tp169
ag169
ag169
a(g163
F1.5707963267948966
g167
tp170
a(g163
F1.5707963267948966
g167
tp171
ag171
a(g163
F1.5707963267948966
g161
tp172
a(g163
F1.5707963267948966
g156
tp173
a(g163
F1.5707963267948966
g167
tp174
a(g163
I0
g167
tp175
ag170
a(g163
F1.5707963267948966
g156
tp176
a(g158
F1.5707963267948966
g156
tp177
a(g158
F1.5707963267948966
g156
tp178
a(g158
F1.5707963267948966
g161
tp179
a(g163
F1.5707963267948966
g161
tp180
ag173
a(S'p3'
p181
F1.5707963267948966
g156
tp182
asS's'
p183
(lp184
(g155
I0
g22
tp185
ag157
ag159
ag160
ag162
ag164
ag165
ag165
ag165
ag165
ag165
ag166
ag166
ag165
ag168
ag169
ag169
ag169
ag170
ag171
ag171
ag172
ag173
ag174
ag175
ag170
ag176
ag177
ag178
ag179
ag180
ag173
asS'ui'
p186
(lp187
S'ss'
p188
ag188
ag188
aS'hs'
p189
ag188
ag189
ag153
ag189
ag189
ag189
ag188
ag153
ag153
ag189
ag188
ag188
ag153
ag153
ag153
ag153
ag188
aS'hp'
p190
ag153
ag188
ag153
ag189
ag188
ag189
ag189
ag188
ag190
ag188
asS'um_before'
p191
(lp192
g188
ag188
ag188
ag189
ag188
ag153
ag153
ag153
ag153
ag153
ag188
ag188
ag153
ag189
ag188
ag188
ag188
ag153
ag153
ag153
ag190
ag190
ag190
ag188
ag189
ag189
ag153
ag153
ag189
ag188
ag190
ag188
asS'um_after'
p193
(lp194
g190
ag188
ag188
ag189
ag188
ag153
ag153
ag153
ag153
ag153
ag188
ag188
ag153
ag189
ag188
ag188
ag188
ag153
ag153
ag153
ag190
ag190
ag190
ag188
ag153
ag189
ag153
ag153
ag189
ag188
ag190
ag188
asS'is_normalized_entropy_less_than_threshold'
p195
(lp196
g50
(g51
(S'b1'
p197
I0
I1
tp198
Rp199
(I3
S'|'
p200
NNNI-1
I-1
I0
tp201
bS'\x01'
p202
tp203
Rp204
ag204
ag204
ag204
ag204
ag50
(g199
S'\x00'
p205
tp206
Rp207
ag207
ag207
ag207
ag207
ag204
ag204
ag207
ag204
ag207
ag207
ag207
ag204
ag207
ag207
ag207
ag204
ag207
ag204
ag204
ag204
ag207
ag207
ag204
ag204
ag204
ag204
asaa(lp208
S'index'
p209
aI74114
aatp210
Rp211
.