ccollections
OrderedDict
p0
((lp1
(lp2
S'combination_dict'
p3
ag0
((lp4
(lp5
S'r_to_g_config'
p6
aS'tr'
p7
aa(lp8
S'num_turns'
p9
aI1
aa(lp10
S'start_direction'
p11
acutils_ms
StartDirection
p12
(I0
tp13
Rp14
aa(lp15
S'assistance_type'
p16
acutils_ms
AssistanceType
p17
(I1
tp18
Rp19
aa(lp20
S'start_mode'
p21
aS't'
p22
aa(lp23
S'ui_given_a_noise'
p24
aF0.7
aa(lp25
S'um_given_ui_noise'
p26
aF0.1
aa(lp27
S'entropy_threshold'
p28
aF0.9
aatp29
Rp30
aa(lp31
S'data'
p32
accollections
defaultdict
p33
(c__builtin__
list
p34
tp35
Rp36
S'a'
p37
(lp38
S'mode_r'
p39
aS'move_p'
p40
aS'mode_l'
p41
ag41
ag40
ag41
ag40
ag39
ag40
asS'assistance_match_with_ground_truth'
p42
(lp43
I01
aI01
aI00
aI01
aI01
aI01
aI00
aI01
aI01
asS'is_u_intended_equals_um'
p44
(lp45
I01
aI00
aI01
aI01
aI01
aI01
aI01
aI01
aI01
asS'total_steps'
p46
I9
sS'normalized_h_of_p_ui_given_um'
p47
(lp48
cnumpy.core.multiarray
scalar
p49
(cnumpy
dtype
p50
(S'f8'
p51
I0
I1
tp52
Rp53
(I3
S'<'
p54
NNNI-1
I-1
I0
tp55
bS'\x88-\xef\x13i\x86\xca?'
p56
tp57
Rp58
ag49
(g53
S'P\x93\xad\x05&\x04\xea?'
p59
tp60
Rp61
ag49
(g53
S'\xbedZ9\xfc_\xe2?'
p62
tp63
Rp64
ag49
(g53
S'\xda19e\x9b\xd3\xd0?'
p65
tp66
Rp67
ag49
(g53
S'8\x80\x01\x07f\xa6\xc1?'
p68
tp69
Rp70
ag49
(g53
S'\xda19e\x9b\xd3\xd0?'
p71
tp72
Rp73
ag49
(g53
S'\x15jMh|\x04\xe0?'
p74
tp75
Rp76
ag49
(g53
S'\x88-\xef\x13i\x86\xca?'
p77
tp78
Rp79
ag49
(g53
S'8\x80\x01\x07f\xa6\xc1?'
p80
tp81
Rp82
asS'sp'
p83
(lp84
(S'p0'
p85
I0
S'x'
p86
tp87
a(S'p1'
p88
I0
g86
tp89
a(g88
I0
g86
tp90
a(g88
I0
S't'
p91
tp92
a(g88
F1.5707963267948966
g91
tp93
a(g88
F1.5707963267948966
S'y'
p94
tp95
a(g88
F1.5707963267948966
g86
tp96
a(g88
F1.5707963267948966
g94
tp97
a(S'p2'
p98
F1.5707963267948966
g94
tp99
asS's'
p100
(lp101
(g85
I0
g22
tp102
ag87
ag89
ag90
ag92
ag93
ag95
ag96
ag97
asS'ui'
p103
(lp104
S'hp'
p105
aS'ss'
p106
ag106
aS'hs'
p107
ag83
ag107
ag107
ag105
ag83
asS'um_before'
p108
(lp109
g105
ag106
ag106
ag107
ag83
ag107
ag107
ag105
ag83
asS'um_after'
p110
(lp111
g105
ag83
ag106
ag107
ag83
ag107
ag107
ag105
ag83
asS'is_normalized_entropy_less_than_threshold'
p112
(lp113
g49
(g50
(S'b1'
p114
I0
I1
tp115
Rp116
(I3
S'|'
p117
NNNI-1
I-1
I0
tp118
bS'\x01'
p119
tp120
Rp121
ag121
ag121
ag121
ag121
ag121
ag121
ag121
ag121
asaa(lp122
S'index'
p123
aI2243
aatp124
Rp125
.