ccollections
OrderedDict
p0
((lp1
(lp2
S'combination_dict'
p3
ag0
((lp4
(lp5
S'r_to_g_config'
p6
aS'br'
p7
aa(lp8
S'num_turns'
p9
aI2
aa(lp10
S'start_direction'
p11
acutils_ms
StartDirection
p12
(I0
tp13
Rp14
aa(lp15
S'assistance_type'
p16
acutils_ms
AssistanceType
p17
(I1
tp18
Rp19
aa(lp20
S'start_mode'
p21
aS't'
p22
aa(lp23
S'ui_given_a_noise'
p24
aF0.5
aa(lp25
S'um_given_ui_noise'
p26
aF0.3
aa(lp27
S'entropy_threshold'
p28
aF0.5
aatp29
Rp30
aa(lp31
S'data'
p32
accollections
defaultdict
p33
(c__builtin__
list
p34
tp35
Rp36
S'a'
p37
(lp38
S'mode_r'
p39
aS'move_p'
p40
ag40
ag40
ag39
aS'move_n'
p41
ag39
aS'mode_l'
p42
asS'assistance_match_with_ground_truth'
p43
(lp44
I01
aI00
aI00
aI01
aI01
aI01
aI00
aI00
asS'is_u_intended_equals_um'
p45
(lp46
I01
aI01
aI01
aI01
aI01
aI01
aI01
aI00
asS'total_steps'
p47
I8
sS'normalized_h_of_p_ui_given_um'
p48
(lp49
cnumpy.core.multiarray
scalar
p50
(cnumpy
dtype
p51
(S'f8'
p52
I0
I1
tp53
Rp54
(I3
S'<'
p55
NNNI-1
I-1
I0
tp56
bS'\x19z\x89\x0f\x089\xd7?'
p57
tp58
Rp59
ag50
(g54
S'\xf8\xcfDO\xbc\xdb\xe5?'
p60
tp61
Rp62
ag50
(g54
S'\xf8\xcfDO\xbc\xdb\xe5?'
p63
tp64
Rp65
ag50
(g54
S'\xbd\xc1\x14\x8a\x1f\x9a\xd3?'
p66
tp67
Rp68
ag50
(g54
S'\x19z\x89\x0f\x089\xd7?'
p69
tp70
Rp71
ag50
(g54
S'\xf9\xc1pe\x18\x11\xc8?'
p72
tp73
Rp74
ag50
(g54
S'\xa8\x01"\xc1\xfb\t\xe2?'
p75
tp76
Rp77
ag50
(g54
S'N\x8e\x98Zsb\xed?'
p78
tp79
Rp80
asS'sp'
p81
(lp82
(S'p0'
p83
I0
S'x'
p84
tp85
a(g83
I0
g84
tp86
ag86
a(S'p1'
p87
I0
g84
tp88
a(g87
I0
S'y'
p89
tp90
a(S'p2'
p91
I0
g89
tp92
a(g91
I0
g84
tp93
a(S'p3'
p94
I0
g84
tp95
asS's'
p96
(lp97
(g83
I0
g22
tp98
ag85
ag86
ag86
ag88
ag90
ag92
ag93
asS'ui'
p99
(lp100
S'hp'
p101
aS'ss'
p102
ag101
ag81
ag101
ag102
aS'hs'
p103
ag102
asS'um_before'
p104
(lp105
g101
ag102
ag102
ag81
ag101
ag102
ag103
ag81
asS'um_after'
p106
(lp107
g101
ag102
ag102
ag81
ag101
ag102
ag103
ag81
asS'is_normalized_entropy_less_than_threshold'
p108
(lp109
g50
(g51
(S'b1'
p110
I0
I1
tp111
Rp112
(I3
S'|'
p113
NNNI-1
I-1
I0
tp114
bS'\x01'
p115
tp116
Rp117
ag50
(g112
S'\x00'
p118
tp119
Rp120
ag120
ag117
ag117
ag117
ag120
ag120
asaa(lp121
S'index'
p122
aI98055
aatp123
Rp124
.