ccollections
OrderedDict
p0
((lp1
(lp2
S'combination_dict'
p3
ag0
((lp4
(lp5
S'r_to_g_config'
p6
aS'tr'
p7
aa(lp8
S'num_turns'
p9
aI2
aa(lp10
S'start_direction'
p11
acutils_ms
StartDirection
p12
(I0
tp13
Rp14
aa(lp15
S'assistance_type'
p16
acutils_ms
AssistanceType
p17
(I1
tp18
Rp19
aa(lp20
S'start_mode'
p21
aS'y'
p22
aa(lp23
S'ui_given_a_noise'
p24
aF0.7
aa(lp25
S'um_given_ui_noise'
p26
aF0.3
aa(lp27
S'entropy_threshold'
p28
aF0.5
aatp29
Rp30
aa(lp31
S'data'
p32
accollections
defaultdict
p33
(c__builtin__
list
p34
tp35
Rp36
S'a'
p37
(lp38
S'mode_l'
p39
aS'mode_r'
p40
ag40
ag40
aS'move_p'
p41
ag39
ag41
ag39
ag39
ag41
ag39
ag41
asS'assistance_match_with_ground_truth'
p42
(lp43
I00
aI00
aI00
aI01
aI01
aI01
aI01
aI00
aI01
aI01
aI01
aI01
asS'is_u_intended_equals_um'
p44
(lp45
I01
aI01
aI01
aI01
aI01
aI01
aI01
aI01
aI01
aI01
aI01
aI01
asS'total_steps'
p46
I12
sS'normalized_h_of_p_ui_given_um'
p47
(lp48
cnumpy.core.multiarray
scalar
p49
(cnumpy
dtype
p50
(S'f8'
p51
I0
I1
tp52
Rp53
(I3
S'<'
p54
NNNI-1
I-1
I0
tp55
bS'\xcc\x9a}\x8d\x8e\xc2\xe4?'
p56
tp57
Rp58
ag49
(g53
S'\xe3\xc0\x9a\xb1\xbf\r\xe7?'
p59
tp60
Rp61
ag49
(g53
S'\xae5W\xf0{\xc1\xe1?'
p62
tp63
Rp64
ag49
(g53
S'\xbd%\x8a\x1ep\x0c\xe1?'
p65
tp66
Rp67
ag49
(g53
S'\xec3\x9d\r\xef\x1e\xce?'
p68
tp69
Rp70
ag49
(g53
S'\xdfS;\xd7\xcc\xdc\xd3?'
p71
tp72
Rp73
ag49
(g53
S'\xec3\x9d\r\xef\x1e\xce?'
p74
tp75
Rp76
ag49
(g53
S'T,6\x1e\x92\xfa\xdf?'
p77
tp78
Rp79
ag49
(g53
S'\xdfS;\xd7\xcc\xdc\xd3?'
p80
tp81
Rp82
ag49
(g53
S'\xec3\x9d\r\xef\x1e\xce?'
p83
tp84
Rp85
ag49
(g53
S'\xdfS;\xd7\xcc\xdc\xd3?'
p86
tp87
Rp88
ag49
(g53
S'\xec3\x9d\r\xef\x1e\xce?'
p89
tp90
Rp91
asS'sp'
p92
(lp93
(S'p0'
p94
I0
S't'
p95
tp96
a(g94
I0
g95
tp97
a(g94
I0
g95
tp98
a(g94
I0
S'x'
p99
tp100
a(S'p1'
p101
I0
g99
tp102
a(g101
I0
g95
tp103
a(g101
F1.5707963267948966
g95
tp104
a(g101
F1.5707963267948966
g95
tp105
a(g101
F1.5707963267948966
S'y'
p106
tp107
a(S'p2'
p108
F1.5707963267948966
g106
tp109
a(g108
F1.5707963267948966
g99
tp110
a(S'p3'
p111
F1.5707963267948966
g99
tp112
asS's'
p113
(lp114
(g94
I0
g22
tp115
ag96
ag97
ag98
ag100
ag102
ag103
ag104
ag105
ag107
ag109
ag110
asS'ui'
p116
(lp117
S'hp'
p118
aS'ss'
p119
ag92
ag92
ag92
aS'hs'
p120
ag92
ag92
ag120
ag92
ag120
ag92
asS'um_before'
p121
(lp122
g118
ag119
ag92
ag118
ag92
ag120
ag92
ag92
ag120
ag92
ag120
ag92
asS'um_after'
p123
(lp124
g118
ag119
ag92
ag118
ag92
ag120
ag92
ag92
ag120
ag92
ag120
ag92
asS'is_normalized_entropy_less_than_threshold'
p125
(lp126
g49
(g50
(S'b1'
p127
I0
I1
tp128
Rp129
(I3
S'|'
p130
NNNI-1
I-1
I0
tp131
bS'\x00'
p132
tp133
Rp134
ag134
ag134
ag134
ag49
(g129
S'\x01'
p135
tp136
Rp137
ag137
ag137
ag137
ag137
ag137
ag137
ag137
asaa(lp138
S'index'
p139
aI12657
aatp140
Rp141
.