ccollections
OrderedDict
p0
((lp1
(lp2
S'combination_dict'
p3
ag0
((lp4
(lp5
S'r_to_g_config'
p6
aS'br'
p7
aa(lp8
S'num_turns'
p9
aI3
aa(lp10
S'start_direction'
p11
acutils_ms
StartDirection
p12
(I1
tp13
Rp14
aa(lp15
S'assistance_type'
p16
acutils_ms
AssistanceType
p17
(I1
tp18
Rp19
aa(lp20
S'start_mode'
p21
aS't'
p22
aa(lp23
S'ui_given_a_noise'
p24
aF0.3
aa(lp25
S'um_given_ui_noise'
p26
aF0.3
aa(lp27
S'entropy_threshold'
p28
aF0.6
aatp29
Rp30
aa(lp31
S'data'
p32
accollections
defaultdict
p33
(c__builtin__
list
p34
tp35
Rp36
S'a'
p37
(lp38
S'mode_l'
p39
aS'move_n'
p40
ag40
ag39
aS'mode_r'
p41
ag41
ag39
ag41
ag41
aS'move_p'
p42
ag39
ag42
ag39
ag39
ag42
ag39
ag40
ag39
ag42
ag41
ag40
ag39
ag42
asS'assistance_match_with_ground_truth'
p43
(lp44
I01
aI00
aI01
aI00
aI00
aI00
aI00
aI00
aI01
aI00
aI01
aI01
aI00
aI01
aI01
aI01
aI01
aI01
aI00
aI01
aI01
aI01
aI01
asS'is_u_intended_equals_um'
p45
(lp46
I01
aI00
aI01
aI01
aI01
aI01
aI01
aI01
aI01
aI00
aI01
aI01
aI00
aI01
aI01
aI01
aI01
aI01
aI01
aI01
aI01
aI01
aI01
asS'total_steps'
p47
I23
sS'normalized_h_of_p_ui_given_um'
p48
(lp49
cnumpy.core.multiarray
scalar
p50
(cnumpy
dtype
p51
(S'f8'
p52
I0
I1
tp53
Rp54
(I3
S'<'
p55
NNNI-1
I-1
I0
tp56
bS'0l\x80\xc9j0\xce?'
p57
tp58
Rp59
ag50
(g54
S'\xf3#\xc2\x1b\x01>\xe5?'
p60
tp61
Rp62
ag50
(g54
S'\x8c\t\xfdJm\xb4\xc7?'
p63
tp64
Rp65
ag50
(g54
S'\x8e{R\x02S!\xe8?'
p66
tp67
Rp68
ag50
(g54
S'\xb6\xc8; {\x8c\xe9?'
p69
tp70
Rp71
ag50
(g54
S'\x06\x89\xb4>\x91\x07\xdd?'
p72
tp73
Rp74
ag50
(g54
S'\x8e{R\x02S!\xe8?'
p75
tp76
Rp77
ag50
(g54
S'\xb6\xc8; {\x8c\xe9?'
p78
tp79
Rp80
ag50
(g54
S"\xc0\xc2'\x93xW\xc7?"
p81
tp82
Rp83
ag50
(g54
S']\xfa\x9b\xa7pU\xe4?'
p84
tp85
Rp86
ag50
(g54
S'0l\x80\xc9j0\xce?'
p87
tp88
Rp89
ag50
(g54
S'4\x8e<_*\xc2\xd5?'
p90
tp91
Rp92
ag50
(g54
S'\xba\x167\xf0\xc5\xeb\xe6?'
p93
tp94
Rp95
ag50
(g54
S'0l\x80\xc9j0\xce?'
p96
tp97
Rp98
ag50
(g54
S'4\x8e<_*\xc2\xd5?'
p99
tp100
Rp101
ag50
(g54
S'0l\x80\xc9j0\xce?'
p102
tp103
Rp104
ag50
(g54
S'\x8c\t\xfdJm\xb4\xc7?'
p105
tp106
Rp107
ag50
(g54
S'0l\x80\xc9j0\xce?'
p108
tp109
Rp110
ag50
(g54
S'\x03@4|\xdcm\xe1?'
p111
tp112
Rp113
ag50
(g54
S"\xc0\xc2'\x93xW\xc7?"
p114
tp115
Rp116
ag50
(g54
S'\x8c\t\xfdJm\xb4\xc7?'
p117
tp118
Rp119
ag50
(g54
S'0l\x80\xc9j0\xce?'
p120
tp121
Rp122
ag50
(g54
S'4\x8e<_*\xc2\xd5?'
p123
tp124
Rp125
asS'sp'
p126
(lp127
(S'p0'
p128
I0
S'y'
p129
tp130
a(g128
I0
g129
tp131
a(S'p1'
p132
I0
g129
tp133
a(g132
I0
S't'
p134
tp135
a(g132
I0
g134
tp136
a(g132
I0
g129
tp137
ag135
ag136
a(g132
I0
S'x'
p138
tp139
a(g132
I0
g129
tp140
a(g132
I0
g138
tp141
a(S'p2'
p142
I0
g138
tp143
a(g142
I0
g138
tp144
a(g142
I0
g134
tp145
a(g142
F1.5707963267948966
g134
tp146
a(g142
F1.5707963267948966
g129
tp147
a(S'p3'
p148
F1.5707963267948966
g129
tp149
a(g148
F1.5707963267948966
g138
tp150
a(g142
F1.5707963267948966
g138
tp151
a(g142
F1.5707963267948966
g129
tp152
ag149
ag150
a(S'p4'
p153
F1.5707963267948966
g138
tp154
asS's'
p155
(lp156
(g128
I0
g22
tp157
ag130
ag131
ag133
ag135
ag136
ag137
ag135
ag136
ag139
ag140
ag141
ag143
ag144
ag145
ag146
ag147
ag149
ag150
ag151
ag152
ag149
ag150
asS'ui'
p158
(lp159
S'hs'
p160
aS'ss'
p161
ag161
ag126
ag126
ag160
ag160
aS'hp'
p162
ag162
ag126
ag160
ag126
ag160
ag160
ag126
ag160
ag161
ag160
ag161
ag162
ag161
ag161
ag126
asS'um_before'
p163
(lp164
g160
ag126
ag161
ag162
ag126
ag160
ag162
ag126
ag162
ag162
ag160
ag126
ag126
ag160
ag126
ag160
ag161
ag160
ag161
ag162
ag161
ag160
ag126
asS'um_after'
p165
(lp166
g160
ag126
ag161
ag162
ag126
ag160
ag162
ag126
ag162
ag162
ag160
ag126
ag126
ag160
ag126
ag160
ag161
ag160
ag161
ag162
ag161
ag160
ag126
asS'is_normalized_entropy_less_than_threshold'
p167
(lp168
g50
(g51
(S'b1'
p169
I0
I1
tp170
Rp171
(I3
S'|'
p172
NNNI-1
I-1
I0
tp173
bS'\x01'
p174
tp175
Rp176
ag50
(g171
S'\x00'
p177
tp178
Rp179
ag176
ag179
ag179
ag176
ag179
ag179
ag176
ag179
ag176
ag176
ag179
ag176
ag176
ag176
ag176
ag176
ag176
ag176
ag176
ag176
ag176
asaa(lp180
S'index'
p181
aI113068
aatp182
Rp183
.