ccollections
OrderedDict
p0
((lp1
(lp2
S'combination_dict'
p3
ag0
((lp4
(lp5
S'r_to_g_config'
p6
aS'tl'
p7
aa(lp8
S'num_turns'
p9
aI2
aa(lp10
S'start_direction'
p11
acutils_ms
StartDirection
p12
(I0
tp13
Rp14
aa(lp15
S'assistance_type'
p16
acutils_ms
AssistanceType
p17
(I2
tp18
Rp19
aa(lp20
S'start_mode'
p21
aS'y'
p22
aa(lp23
S'ui_given_a_noise'
p24
aF0.1
aa(lp25
S'um_given_ui_noise'
p26
aF0.7
aa(lp27
S'entropy_threshold'
p28
aF0.5
aatp29
Rp30
aa(lp31
S'data'
p32
accollections
defaultdict
p33
(c__builtin__
list
p34
tp35
Rp36
S'a'
p37
(lp38
S'mode_l'
p39
ag39
ag39
ag39
aS'mode_r'
p40
aS'move_n'
p41
ag39
ag39
ag39
ag39
ag39
ag41
ag41
ag40
ag40
ag40
ag40
ag40
aS'move_p'
p42
ag40
ag40
ag40
ag40
ag40
ag39
ag42
ag40
ag41
ag39
ag41
ag39
ag39
ag39
ag41
asS'assistance_match_with_ground_truth'
p43
(lp44
I00
aI00
aI00
aI00
aI01
aI00
aI00
aI00
aI00
aI00
aI01
aI00
aI01
aI00
aI00
aI00
aI00
aI01
aI01
aI00
aI00
aI00
aI00
aI00
aI01
aI01
aI01
aI00
aI01
aI00
aI00
aI00
aI01
aI01
asS'is_u_intended_equals_um'
p45
(lp46
I01
aI01
aI01
aI01
aI01
aI01
aI01
aI01
aI01
aI01
aI01
aI01
aI01
aI01
aI01
aI01
aI01
aI01
aI01
aI01
aI01
aI01
aI01
aI01
aI01
aI01
aI01
aI01
aI01
aI01
aI01
aI01
aI01
aI01
asS'total_steps'
p47
I34
sS'normalized_h_of_p_ui_given_um'
p48
(lp49
cnumpy.core.multiarray
scalar
p50
(cnumpy
dtype
p51
(S'f8'
p52
I0
I1
tp53
Rp54
(I3
S'<'
p55
NNNI-1
I-1
I0
tp56
bS'h&\xf3?pm\xe9?'
p57
tp58
Rp59
ag59
ag59
ag59
ag59
ag59
ag59
ag59
ag59
ag59
ag59
ag59
ag59
ag59
ag59
ag59
ag59
ag59
ag59
ag59
ag59
ag59
ag59
ag59
ag59
ag59
ag59
ag59
ag59
ag59
ag59
ag59
ag59
ag59
asS'sp'
p60
(lp61
(S'p0'
p62
I0
S'y'
p63
tp64
ag64
ag64
a(g62
I0
S't'
p65
tp66
a(g62
I0
S'x'
p67
tp68
a(g62
I0
g63
tp69
ag64
a(g62
I0
g63
tp70
ag70
ag70
a(g62
I0
g67
tp71
a(g62
I0
g67
tp72
a(S'p1'
p73
I0
g67
tp74
a(g73
I0
g67
tp75
a(g73
I0
g67
tp76
ag75
ag76
a(g73
I0
g63
tp77
a(S'p2'
p78
I0
g63
tp79
a(g78
I0
g63
tp80
a(g78
I0
g63
tp81
ag80
ag80
a(g78
I0
g67
tp82
a(g78
I0
g65
tp83
a(g78
F1.5707963267948966
g65
tp84
a(g78
F1.5707963267948966
g67
tp85
a(g78
F1.5707963267948966
g63
tp86
a(g78
F1.5707963267948966
g67
tp87
ag86
a(g78
F1.5707963267948966
g63
tp88
a(g78
F1.5707963267948966
g63
tp89
ag87
a(S'p3'
p90
F1.5707963267948966
g67
tp91
asS's'
p92
(lp93
(g62
I0
g22
tp94
ag64
ag64
ag64
ag66
ag68
ag69
ag64
ag70
ag70
ag70
ag71
ag72
ag74
ag75
ag76
ag75
ag76
ag77
ag79
ag80
ag81
ag80
ag80
ag82
ag83
ag84
ag85
ag86
ag87
ag86
ag88
ag89
ag87
asS'ui'
p95
(lp96
S'hs'
p97
ag97
ag97
aS'hp'
p98
ag98
aS'ss'
p99
ag99
ag97
ag97
ag97
ag97
ag99
ag99
ag99
ag99
ag98
ag98
ag98
ag60
ag98
ag98
ag99
ag98
ag98
ag97
ag60
ag98
ag60
ag98
ag99
ag97
ag97
ag97
ag99
asS'um_before'
p100
(lp101
g60
ag60
ag60
ag98
ag98
ag98
ag60
ag99
ag99
ag99
ag97
ag60
ag99
ag99
ag60
ag99
ag60
ag98
ag60
ag60
ag99
ag60
ag60
ag97
ag97
ag60
ag98
ag98
ag97
ag98
ag99
ag60
ag97
ag99
asS'um_after'
p102
(lp103
g60
ag60
ag60
ag98
ag98
ag98
ag60
ag99
ag99
ag99
ag97
ag60
ag99
ag99
ag60
ag99
ag60
ag98
ag60
ag60
ag99
ag60
ag60
ag97
ag97
ag60
ag98
ag98
ag97
ag98
ag99
ag60
ag97
ag99
asS'is_normalized_entropy_less_than_threshold'
p104
(lp105
g50
(g51
(S'b1'
p106
I0
I1
tp107
Rp108
(I3
S'|'
p109
NNNI-1
I-1
I0
tp110
bS'\x01'
p111
tp112
Rp113
ag113
ag113
ag113
ag113
ag113
ag113
ag113
ag113
ag113
ag113
ag113
ag113
ag113
ag113
ag113
ag113
ag113
ag113
ag113
ag113
ag113
ag113
ag113
ag113
ag113
ag113
ag113
ag113
ag113
ag113
ag113
ag113
ag113
asaa(lp114
S'index'
p115
aI42558
aatp116
Rp117
.