ccollections
OrderedDict
p0
((lp1
(lp2
S'combination_dict'
p3
ag0
((lp4
(lp5
S'r_to_g_config'
p6
aS'bl'
p7
aa(lp8
S'num_turns'
p9
aI3
aa(lp10
S'start_direction'
p11
acutils_ms
StartDirection
p12
(I1
tp13
Rp14
aa(lp15
S'assistance_type'
p16
acutils_ms
AssistanceType
p17
(I0
tp18
Rp19
aa(lp20
S'start_mode'
p21
aS'x'
p22
aa(lp23
S'ui_given_a_noise'
p24
aF0.7
aa(lp25
S'um_given_ui_noise'
p26
aF0.7
aa(lp27
S'entropy_threshold'
p28
aF0.8
aatp29
Rp30
aa(lp31
S'data'
p32
accollections
defaultdict
p33
(c__builtin__
list
p34
tp35
Rp36
S'a'
p37
(lp38
S'mode_r'
p39
ag39
ag39
aS'mode_l'
p40
ag40
aS'move_n'
p41
ag39
ag41
ag40
ag41
ag39
ag39
ag39
ag39
ag39
ag41
ag39
ag41
ag41
ag39
ag39
aS'move_p'
p42
ag42
ag42
ag42
ag39
ag39
ag40
ag41
asS'assistance_match_with_ground_truth'
p43
(lp44
I00
aI00
aI00
aI00
aI01
aI00
aI01
aI01
aI01
aI01
aI00
aI00
aI00
aI00
aI01
aI00
aI01
aI00
aI01
aI00
aI01
aI00
aI00
aI00
aI01
aI00
aI00
aI01
aI01
asS'is_u_intended_equals_um'
p45
(lp46
I01
aI01
aI00
aI00
aI01
aI01
aI01
aI01
aI01
aI01
aI01
aI01
aI01
aI01
aI01
aI01
aI01
aI00
aI01
aI01
aI01
aI00
aI01
aI01
aI01
aI01
aI00
aI01
aI01
asS'total_steps'
p47
I29
sS'normalized_h_of_p_ui_given_um'
p48
(lp49
cnumpy.core.multiarray
scalar
p50
(cnumpy
dtype
p51
(S'f8'
p52
I0
I1
tp53
Rp54
(I3
S'<'
p55
NNNI-1
I-1
I0
tp56
bS'\xcc\xb6\x84\xd6\xc1\xb4\xeb?'
p57
tp58
Rp59
ag50
(g54
S'\xcc\xb6\x84\xd6\xc1\xb4\xeb?'
p60
tp61
Rp62
ag50
(g54
S'fJL\xb2\xbe]\xee?'
p63
tp64
Rp65
ag50
(g54
S'jH\xa6\xab7\x10\xea?'
p66
tp67
Rp68
ag50
(g54
S'\xf8R,B\xcc\xcd\xe6?'
p69
tp70
Rp71
ag50
(g54
S'6\xcb/\xa4\r\xe3\xe7?'
p72
tp73
Rp74
ag50
(g54
S'\\\xc0\xc7\xde;\xaf\xe7?'
p75
tp76
Rp77
ag50
(g54
S'\xfc\x8f{\xc5C\x92\xdc?'
p78
tp79
Rp80
ag50
(g54
S'\xf8R,B\xcc\xcd\xe6?'
p81
tp82
Rp83
ag50
(g54
S'\xfc\x8f{\xc5C\x92\xdc?'
p84
tp85
Rp86
ag50
(g54
S'\xcc\xb6\x84\xd6\xc1\xb4\xeb?'
p87
tp88
Rp89
ag50
(g54
S'\xcc\xb6\x84\xd6\xc1\xb4\xeb?'
p90
tp91
Rp92
ag50
(g54
S'\xcc\xb6\x84\xd6\xc1\xb4\xeb?'
p93
tp94
Rp95
ag50
(g54
S'\xc6[\x0cX\xf3\xe1\xe8?'
p96
tp97
Rp98
ag50
(g54
S'\\\xc0\xc7\xde;\xaf\xe7?'
p99
tp100
Rp101
ag50
(g54
S'6\xcb/\xa4\r\xe3\xe7?'
p102
tp103
Rp104
ag50
(g54
S'\\\xc0\xc7\xde;\xaf\xe7?'
p105
tp106
Rp107
ag50
(g54
S'6\xf5v\x07\xf4$\xe9?'
p108
tp109
Rp110
ag50
(g54
S'\xfc\x8f{\xc5C\x92\xdc?'
p111
tp112
Rp113
ag50
(g54
S'\xcc\xb6\x84\xd6\xc1\xb4\xeb?'
p114
tp115
Rp116
ag50
(g54
S'\\\xc0\xc7\xde;\xaf\xe7?'
p117
tp118
Rp119
ag50
(g54
S'8\xb6\xc6\xce\xf8"\xe8?'
p120
tp121
Rp122
ag50
(g54
S';Ucv\x9d\xb7\xe6?'
p123
tp124
Rp125
ag50
(g54
S';Ucv\x9d\xb7\xe6?'
p126
tp127
Rp128
ag50
(g54
S'\x9c\x88\x94h\xbb\xc1\xd8?'
p129
tp130
Rp131
ag50
(g54
S'\xc6[\x0cX\xf3\xe1\xe8?'
p132
tp133
Rp134
ag50
(g54
S'fJL\xb2\xbe]\xee?'
p135
tp136
Rp137
ag50
(g54
S'\xf8R,B\xcc\xcd\xe6?'
p138
tp139
Rp140
ag50
(g54
S'\xfc\x8f{\xc5C\x92\xdc?'
p141
tp142
Rp143
asS'sp'
p144
(lp145
(S'p0'
p146
I0
S'x'
p147
tp148
ag148
a(g146
I0
S't'
p149
tp150
a(g146
I0
g149
tp151
a(g146
I0
S'y'
p152
tp153
a(g146
I0
g147
tp154
a(g146
I0
g152
tp155
a(S'p1'
p156
I0
g152
tp157
a(g156
I0
g147
tp158
a(S'p2'
p159
I0
g147
tp160
a(g159
I0
g147
tp161
ag161
ag161
a(g159
I0
g147
tp162
a(g159
I0
g152
tp163
a(g159
I0
g147
tp164
ag163
ag163
a(S'p3'
p165
I0
g152
tp166
a(g165
I0
g152
tp167
a(g165
I0
g149
tp168
ag168
a(g165
I0
g149
tp169
ag169
a(g165
F1.5707963267948966
g149
tp170
a(g165
F1.5707963267948966
g149
tp171
a(g165
F1.5707963267948966
g152
tp172
a(g165
F1.5707963267948966
g147
tp173
a(S'p4'
p174
F1.5707963267948966
g147
tp175
asS's'
p176
(lp177
(g146
I0
g22
tp178
ag148
ag148
ag150
ag151
ag153
ag154
ag155
ag157
ag158
ag160
ag161
ag161
ag161
ag162
ag163
ag164
ag163
ag163
ag166
ag167
ag168
ag168
ag169
ag169
ag170
ag171
ag172
ag173
asS'ui'
p179
(lp180
S'ss'
p181
aS'hp'
p182
aS'hs'
p183
ag183
ag183
ag144
ag181
ag183
ag183
ag181
ag182
ag181
ag181
ag182
ag182
ag183
ag183
ag181
ag181
ag181
ag182
ag183
ag144
ag144
ag144
ag144
ag182
ag183
ag181
asS'um_before'
p184
(lp185
g181
ag181
ag183
ag181
ag183
ag183
ag182
ag181
ag183
ag181
ag181
ag181
ag181
ag144
ag182
ag183
ag182
ag182
ag181
ag181
ag182
ag183
ag181
ag181
ag144
ag144
ag183
ag183
ag181
asS'um_after'
p186
(lp187
g181
ag181
ag183
ag181
ag183
ag183
ag182
ag181
ag183
ag181
ag181
ag181
ag181
ag144
ag182
ag183
ag182
aNag181
ag181
ag182
aNag181
ag181
ag144
ag144
ag183
ag183
ag181
asS'is_normalized_entropy_less_than_threshold'
p188
(lp189
g50
(g51
(S'b1'
p190
I0
I1
tp191
Rp192
(I3
S'|'
p193
NNNI-1
I-1
I0
tp194
bS'\x00'
p195
tp196
Rp197
ag197
ag197
ag197
ag50
(g192
S'\x01'
p198
tp199
Rp200
ag200
ag200
ag200
ag200
ag200
ag197
ag197
ag197
ag200
ag200
ag200
ag200
ag200
ag200
ag197
ag200
ag200
ag200
ag200
ag200
ag200
ag197
ag200
ag200
asaa(lp201
S'index'
p202
aI82382
aatp203
Rp204
.