ccollections
OrderedDict
p0
((lp1
(lp2
S'combination_dict'
p3
ag0
((lp4
(lp5
S'r_to_g_config'
p6
aS'tl'
p7
aa(lp8
S'num_turns'
p9
aI2
aa(lp10
S'start_direction'
p11
acutils_ms
StartDirection
p12
(I0
tp13
Rp14
aa(lp15
S'assistance_type'
p16
acutils_ms
AssistanceType
p17
(I1
tp18
Rp19
aa(lp20
S'start_mode'
p21
aS'y'
p22
aa(lp23
S'ui_given_a_noise'
p24
aF0.7
aa(lp25
S'um_given_ui_noise'
p26
aF0.3
aa(lp27
S'entropy_threshold'
p28
aF0.6
aatp29
Rp30
aa(lp31
S'data'
p32
accollections
defaultdict
p33
(c__builtin__
list
p34
tp35
Rp36
S'a'
p37
(lp38
S'mode_l'
p39
aS'mode_r'
p40
ag40
aS'move_n'
p41
ag39
ag40
ag40
ag41
ag39
ag40
ag39
ag39
ag40
ag40
ag41
ag41
ag39
ag40
ag39
ag39
ag39
ag39
ag41
ag40
ag40
ag40
ag39
ag41
ag40
ag39
ag41
asS'assistance_match_with_ground_truth'
p42
(lp43
I00
aI00
aI01
aI00
aI00
aI00
aI01
aI00
aI00
aI00
aI00
aI00
aI00
aI01
aI00
aI01
aI00
aI00
aI00
aI00
aI00
aI01
aI00
aI00
aI00
aI00
aI01
aI00
aI00
aI01
aI01
asS'is_u_intended_equals_um'
p44
(lp45
I01
aI01
aI01
aI01
aI01
aI01
aI01
aI01
aI01
aI01
aI01
aI01
aI01
aI01
aI01
aI01
aI01
aI01
aI01
aI01
aI01
aI01
aI01
aI01
aI01
aI01
aI01
aI01
aI01
aI01
aI01
asS'total_steps'
p46
I31
sS'normalized_h_of_p_ui_given_um'
p47
(lp48
cnumpy.core.multiarray
scalar
p49
(cnumpy
dtype
p50
(S'f8'
p51
I0
I1
tp52
Rp53
(I3
S'<'
p54
NNNI-1
I-1
I0
tp55
bS':\xa75l3y\xe2?'
p56
tp57
Rp58
ag49
(g53
S'\x9b\xc6\x07p\xd0\x15\xe4?'
p59
tp60
Rp61
ag49
(g53
S'\xfc\x82\xb2\x95\xad;\xdc?'
p62
tp63
Rp64
ag49
(g53
S'\xf4\xa2\xd3\xdc\xce\xcf\xe9?'
p65
tp66
Rp67
ag49
(g53
S':\xa75l3y\xe2?'
p68
tp69
Rp70
ag49
(g53
S'\x14\xec\xa7\xa4\x87}\xe6?'
p71
tp72
Rp73
ag49
(g53
S'\xfc\x82\xb2\x95\xad;\xdc?'
p74
tp75
Rp76
ag49
(g53
S'\xf4\xa2\xd3\xdc\xce\xcf\xe9?'
p77
tp78
Rp79
ag49
(g53
S':\xa75l3y\xe2?'
p80
tp81
Rp82
ag49
(g53
S'\xc5mz\xb7f\x1c\xee?'
p83
tp84
Rp85
ag49
(g53
S'\x02\xf5\x04\xfdYM\xe4?'
p86
tp87
Rp88
ag49
(g53
S':\xa75l3y\xe2?'
p89
tp90
Rp91
ag49
(g53
S'\x14\xec\xa7\xa4\x87}\xe6?'
p92
tp93
Rp94
ag49
(g53
S'\xfc\x82\xb2\x95\xad;\xdc?'
p95
tp96
Rp97
ag49
(g53
S'<\xf9\xe3\x84\xfbM\xe8?'
p98
tp99
Rp100
ag49
(g53
S'\x1et\xa75{~\xd1?'
p101
tp102
Rp103
ag49
(g53
S':\xa75l3y\xe2?'
p104
tp105
Rp106
ag49
(g53
S'\x14\xec\xa7\xa4\x87}\xe6?'
p107
tp108
Rp109
ag49
(g53
S'\x92\xae\x07 \xd3c\xed?'
p110
tp111
Rp112
ag49
(g53
S'\x92\xae\x07 \xd3c\xed?'
p113
tp114
Rp115
ag49
(g53
S'\x92\xae\x07 \xd3c\xed?'
p116
tp117
Rp118
ag49
(g53
S'W\xfb\xfe\x13\x836\xe1?'
p119
tp120
Rp121
ag49
(g53
S'\x9cN\x1f\xdd\xd2Y\xe8?'
p122
tp123
Rp124
ag49
(g53
S'\x9b\xc6\x07p\xd0\x15\xe4?'
p125
tp126
Rp127
ag49
(g53
S'\x14\xec\xa7\xa4\x87}\xe6?'
p128
tp129
Rp130
ag49
(g53
S'\xc5mz\xb7f\x1c\xee?'
p131
tp132
Rp133
ag49
(g53
S'W\xfb\xfe\x13\x836\xe1?'
p134
tp135
Rp136
ag49
(g53
S'\x9cN\x1f\xdd\xd2Y\xe8?'
p137
tp138
Rp139
ag49
(g53
S'\xc5mz\xb7f\x1c\xee?'
p140
tp141
Rp142
ag49
(g53
S'W\xfb\xfe\x13\x836\xe1?'
p143
tp144
Rp145
ag49
(g53
S'\x1et\xa75{~\xd1?'
p146
tp147
Rp148
asS'sp'
p149
(lp150
(S'p0'
p151
I0
S't'
p152
tp153
a(g151
I0
g152
tp154
a(g151
I0
S'x'
p155
tp156
a(g151
I0
S'y'
p157
tp158
ag153
a(g151
I0
g152
tp159
ag156
ag158
ag153
a(g151
I0
g157
tp160
a(g151
I0
g157
tp161
ag153
ag159
ag156
a(g151
I0
g155
tp162
a(S'p1'
p163
I0
g155
tp164
a(g163
I0
g157
tp165
a(S'p2'
p166
I0
g157
tp167
a(g166
I0
g157
tp168
ag168
ag168
a(g166
I0
g155
tp169
a(g166
I0
g152
tp170
a(g166
I0
g152
tp171
a(g166
I0
g152
tp172
a(g166
I0
g157
tp173
ag169
ag170
ag173
ag169
a(S'p3'
p174
I0
g155
tp175
asS's'
p176
(lp177
(g151
I0
g22
tp178
ag153
ag154
ag156
ag158
ag153
ag159
ag156
ag158
ag153
ag160
ag161
ag153
ag159
ag156
ag162
ag164
ag165
ag167
ag168
ag168
ag168
ag169
ag170
ag171
ag172
ag173
ag169
ag170
ag173
ag169
asS'ui'
p179
(lp180
S'hs'
p181
aS'ss'
p182
aS'hp'
p183
ag181
ag183
ag182
ag183
ag183
ag181
ag149
ag182
ag181
ag149
ag183
ag149
ag182
ag183
ag182
ag182
ag149
ag183
ag181
ag181
ag182
ag149
ag149
ag181
ag182
ag183
ag181
ag182
asS'um_before'
p184
(lp185
g183
ag182
ag183
ag183
ag183
ag149
ag183
ag183
ag183
ag181
ag182
ag183
ag149
ag183
ag149
ag182
ag183
ag149
ag149
ag149
ag149
ag181
ag181
ag182
ag149
ag181
ag181
ag181
ag181
ag181
ag182
asS'um_after'
p186
(lp187
g183
ag182
ag183
ag183
ag183
ag149
ag183
ag183
ag183
ag181
ag182
ag183
ag149
ag183
ag149
ag182
ag183
ag149
ag149
ag149
ag149
ag181
ag181
ag182
ag149
ag181
ag181
ag181
ag181
ag181
ag182
asS'is_normalized_entropy_less_than_threshold'
p188
(lp189
g49
(g50
(S'b1'
p190
I0
I1
tp191
Rp192
(I3
S'|'
p193
NNNI-1
I-1
I0
tp194
bS'\x01'
p195
tp196
Rp197
ag49
(g192
S'\x00'
p198
tp199
Rp200
ag197
ag200
ag197
ag200
ag197
ag200
ag197
ag200
ag200
ag197
ag200
ag197
ag200
ag197
ag197
ag200
ag200
ag200
ag200
ag197
ag200
ag200
ag200
ag200
ag197
ag200
ag200
ag197
ag197
asaa(lp201
S'index'
p202
aI41466
aatp203
Rp204
.