ccollections
OrderedDict
p0
((lp1
(lp2
S'combination_dict'
p3
ag0
((lp4
(lp5
S'r_to_g_config'
p6
aS'bl'
p7
aa(lp8
S'num_turns'
p9
aI3
aa(lp10
S'start_direction'
p11
acutils_ms
StartDirection
p12
(I1
tp13
Rp14
aa(lp15
S'assistance_type'
p16
acutils_ms
AssistanceType
p17
(I0
tp18
Rp19
aa(lp20
S'start_mode'
p21
aS'x'
p22
aa(lp23
S'ui_given_a_noise'
p24
aF0.7
aa(lp25
S'um_given_ui_noise'
p26
aF0.3
aa(lp27
S'entropy_threshold'
p28
aF0.6
aatp29
Rp30
aa(lp31
S'data'
p32
accollections
defaultdict
p33
(c__builtin__
list
p34
tp35
Rp36
S'a'
p37
(lp38
S'mode_r'
p39
aS'move_n'
p40
ag40
ag39
ag39
ag40
ag39
ag39
ag40
aS'mode_l'
p41
ag39
ag40
ag41
ag41
ag40
ag39
ag41
ag40
ag39
ag40
ag40
ag41
ag39
ag40
ag41
ag40
ag39
ag40
ag39
ag40
ag41
ag39
ag40
ag41
ag39
ag39
ag39
ag41
ag41
ag40
ag41
ag41
ag40
ag41
ag39
ag41
ag40
asS'assistance_match_with_ground_truth'
p42
(lp43
I01
aI00
aI00
aI00
aI01
aI00
aI00
aI01
aI00
aI00
aI01
aI01
aI00
aI01
aI00
aI00
aI01
aI00
aI01
aI00
aI01
aI00
aI01
aI00
aI01
aI00
aI01
aI00
aI01
aI01
aI00
aI01
aI00
aI00
aI00
aI00
aI00
aI00
aI01
aI00
aI00
aI01
aI01
aI00
aI00
aI01
aI01
asS'is_u_intended_equals_um'
p44
(lp45
I01
aI01
aI00
aI01
aI01
aI00
aI01
aI01
aI01
aI01
aI01
aI01
aI01
aI01
aI01
aI01
aI01
aI00
aI01
aI01
aI01
aI01
aI01
aI01
aI01
aI00
aI01
aI01
aI01
aI01
aI01
aI01
aI01
aI01
aI01
aI01
aI01
aI01
aI01
aI01
aI01
aI01
aI01
aI01
aI01
aI01
aI01
asS'total_steps'
p46
I47
sS'normalized_h_of_p_ui_given_um'
p47
(lp48
cnumpy.core.multiarray
scalar
p49
(cnumpy
dtype
p50
(S'f8'
p51
I0
I1
tp52
Rp53
(I3
S'<'
p54
NNNI-1
I-1
I0
tp55
bS'\x06\x85\x8b\xfc\x8c-\xde?'
p56
tp57
Rp58
ag49
(g53
S'\xa1@#\xeb\x882\xe6?'
p59
tp60
Rp61
ag49
(g53
S'\xa0?\xc3\x10ks\xec?'
p62
tp63
Rp64
ag49
(g53
S'\x11\x17+-\x82\x0c\xe7?'
p65
tp66
Rp67
ag49
(g53
S'\x06\x85\x8b\xfc\x8c-\xde?'
p68
tp69
Rp70
ag49
(g53
S'\xa0?\xc3\x10ks\xec?'
p71
tp72
Rp73
ag49
(g53
S'\xc4\x1c\xee\x9e\x80}\xe2?'
p74
tp75
Rp76
ag49
(g53
S'\x06\x85\x8b\xfc\x8c-\xde?'
p77
tp78
Rp79
ag49
(g53
S'Ox\x8e\x16&p\xe2?'
p80
tp81
Rp82
ag49
(g53
S'\x84\x97Y\x12i\xf0\xe9?'
p83
tp84
Rp85
ag49
(g53
S'\x06\x85\x8b\xfc\x8c-\xde?'
p86
tp87
Rp88
ag49
(g53
S'\x1f\xc1\xba\xc9(\xe2\xcf?'
p89
tp90
Rp91
ag49
(g53
S'\xc6\xc8\x04g\xba\x17\xe7?'
p92
tp93
Rp94
ag49
(g53
S':\xb6\xa8\xe6\x99\x91\xd9?'
p95
tp96
Rp97
ag49
(g53
S'\xa1@#\xeb\x882\xe6?'
p98
tp99
Rp100
ag49
(g53
S'\xdc\xed\xfe\x90E\x18\xeb?'
p101
tp102
Rp103
ag49
(g53
S':\xb6\xa8\xe6\x99\x91\xd9?'
p104
tp105
Rp106
ag49
(g53
S'\xa0?\xc3\x10ks\xec?'
p107
tp108
Rp109
ag49
(g53
S'\x06\x85\x8b\xfc\x8c-\xde?'
p110
tp111
Rp112
ag49
(g53
S'\xa1@#\xeb\x882\xe6?'
p113
tp114
Rp115
ag49
(g53
S'\x1f\xc1\xba\xc9(\xe2\xcf?'
p116
tp117
Rp118
ag49
(g53
S'\x84\x97Y\x12i\xf0\xe9?'
p119
tp120
Rp121
ag49
(g53
S'\x06\x85\x8b\xfc\x8c-\xde?'
p122
tp123
Rp124
ag49
(g53
S'Ox\x8e\x16&p\xe2?'
p125
tp126
Rp127
ag49
(g53
S':\xb6\xa8\xe6\x99\x91\xd9?'
p128
tp129
Rp130
ag49
(g53
S'\xa0?\xc3\x10ks\xec?'
p131
tp132
Rp133
ag49
(g53
S'\x06\x85\x8b\xfc\x8c-\xde?'
p134
tp135
Rp136
ag49
(g53
S'\xa1@#\xeb\x882\xe6?'
p137
tp138
Rp139
ag49
(g53
S'\x06\x85\x8b\xfc\x8c-\xde?'
p140
tp141
Rp142
ag49
(g53
S'\x1f\xc1\xba\xc9(\xe2\xcf?'
p143
tp144
Rp145
ag49
(g53
S'\x84\x97Y\x12i\xf0\xe9?'
p146
tp147
Rp148
ag49
(g53
S'\x06\x85\x8b\xfc\x8c-\xde?'
p149
tp150
Rp151
ag49
(g53
S'Ox\x8e\x16&p\xe2?'
p152
tp153
Rp154
ag49
(g53
S'\x84\x97Y\x12i\xf0\xe9?'
p155
tp156
Rp157
ag49
(g53
S'\x11\x17+-\x82\x0c\xe7?'
p158
tp159
Rp160
ag49
(g53
S'\x11\x17+-\x82\x0c\xe7?'
p161
tp162
Rp163
ag49
(g53
S'\xdc\xed\xfe\x90E\x18\xeb?'
p164
tp165
Rp166
ag49
(g53
S'\xc6\xc8\x04g\xba\x17\xe7?'
p167
tp168
Rp169
ag49
(g53
S':\xb6\xa8\xe6\x99\x91\xd9?'
p170
tp171
Rp172
ag49
(g53
S'Ox\x8e\x16&p\xe2?'
p173
tp174
Rp175
ag49
(g53
S'\xc6\xc8\x04g\xba\x17\xe7?'
p176
tp177
Rp178
ag49
(g53
S':\xb6\xa8\xe6\x99\x91\xd9?'
p179
tp180
Rp181
ag49
(g53
S'\x1f\xc1\xba\xc9(\xe2\xcf?'
p182
tp183
Rp184
ag49
(g53
S'\x84\x97Y\x12i\xf0\xe9?'
p185
tp186
Rp187
ag49
(g53
S'\xc4\x1c\xee\x9e\x80}\xe2?'
p188
tp189
Rp190
ag49
(g53
S':\xb6\xa8\xe6\x99\x91\xd9?'
p191
tp192
Rp193
ag49
(g53
S'\x1f\xc1\xba\xc9(\xe2\xcf?'
p194
tp195
Rp196
asS'sp'
p197
(lp198
(S'p0'
p199
I0
S'y'
p200
tp201
a(g199
I0
g200
tp202
a(g199
I0
S'x'
p203
tp204
a(g199
I0
g203
tp205
ag201
ag204
a(g199
I0
g203
tp206
ag201
a(g199
I0
S't'
p207
tp208
a(g199
I0
g203
tp209
ag201
a(S'p1'
p210
I0
g200
tp211
a(g210
I0
g200
tp212
a(g210
I0
g203
tp213
a(g199
I0
g203
tp214
a(g199
I0
g207
tp215
a(g199
I0
g200
tp216
ag204
ag201
ag202
ag211
a(g210
I0
g207
tp217
a(g210
I0
g203
tp218
a(g210
I0
g200
tp219
ag213
a(g210
I0
g207
tp220
ag218
ag214
ag201
ag211
ag217
ag218
ag219
ag217
a(g210
I0
g207
tp221
ag221
a(g210
I0
g200
tp222
ag212
ag213
ag219
ag212
ag213
a(S'p2'
p223
I0
g203
tp224
a(g223
I0
g200
tp225
a(S'p3'
p226
I0
g200
tp227
a(g226
I0
g203
tp228
a(S'p4'
p229
I0
g203
tp230
asS's'
p231
(lp232
(g199
I0
g22
tp233
ag201
ag202
ag204
ag205
ag201
ag204
ag206
ag201
ag208
ag209
ag201
ag211
ag212
ag213
ag214
ag215
ag216
ag204
ag201
ag202
ag211
ag217
ag218
ag219
ag213
ag220
ag218
ag214
ag201
ag211
ag217
ag218
ag219
ag217
ag221
ag221
ag222
ag212
ag213
ag219
ag212
ag213
ag224
ag225
ag227
ag228
asS'ui'
p234
(lp235
S'hs'
p236
ag197
ag197
ag197
aS'hp'
p237
ag197
aS'ss'
p238
ag237
ag237
ag237
ag237
ag238
ag197
ag236
ag238
ag238
ag236
ag238
ag197
ag197
ag238
ag237
ag237
ag237
ag236
ag236
ag236
ag197
ag237
ag238
ag236
ag237
ag237
ag236
ag197
ag197
ag236
ag197
ag236
ag237
ag197
ag236
ag238
ag237
ag237
ag236
ag238
asS'um_before'
p239
(lp240
g237
ag197
ag236
ag197
ag237
ag236
ag238
ag237
ag237
ag237
ag237
ag238
ag197
ag236
ag197
ag236
ag236
ag236
ag237
ag197
ag238
ag237
ag237
ag237
ag236
ag236
ag237
ag197
ag237
ag238
ag237
ag237
ag237
ag237
ag197
ag197
ag236
ag197
ag236
ag237
ag197
ag236
ag238
ag237
ag238
ag236
ag238
asS'um_after'
p241
(lp242
g237
ag197
ag236
ag197
ag237
ag236
ag238
ag237
ag237
ag237
ag237
ag238
ag197
ag236
ag197
ag236
ag236
ag236
ag237
ag197
ag238
ag237
ag237
ag237
ag236
ag236
ag237
ag197
ag237
ag238
ag237
ag237
ag237
ag237
ag197
ag197
ag236
ag197
ag236
ag237
ag197
ag236
ag238
ag237
ag238
ag236
ag238
asS'is_normalized_entropy_less_than_threshold'
p243
(lp244
g49
(g50
(S'b1'
p245
I0
I1
tp246
Rp247
(I3
S'|'
p248
NNNI-1
I-1
I0
tp249
bS'\x01'
p250
tp251
Rp252
ag49
(g247
S'\x00'
p253
tp254
Rp255
ag255
ag255
ag252
ag255
ag252
ag252
ag252
ag255
ag252
ag252
ag255
ag252
ag255
ag255
ag252
ag255
ag252
ag255
ag252
ag255
ag252
ag252
ag252
ag255
ag252
ag255
ag252
ag252
ag255
ag252
ag252
ag255
ag255
ag255
ag255
ag255
ag252
ag252
ag255
ag252
ag252
ag255
ag252
ag252
ag252
asaa(lp256
S'index'
p257
aI82265
aatp258
Rp259
.