ccollections
OrderedDict
p0
((lp1
(lp2
S'combination_dict'
p3
ag0
((lp4
(lp5
S'r_to_g_config'
p6
aS'bl'
p7
aa(lp8
S'num_turns'
p9
aI1
aa(lp10
S'start_direction'
p11
acutils_ms
StartDirection
p12
(I0
tp13
Rp14
aa(lp15
S'assistance_type'
p16
acutils_ms
AssistanceType
p17
(I0
tp18
Rp19
aa(lp20
S'start_mode'
p21
aS't'
p22
aa(lp23
S'ui_given_a_noise'
p24
aF0.7
aa(lp25
S'um_given_ui_noise'
p26
aF0.1
aa(lp27
S'entropy_threshold'
p28
aF0.8
aatp29
Rp30
aa(lp31
S'data'
p32
accollections
defaultdict
p33
(c__builtin__
list
p34
tp35
Rp36
S'a'
p37
(lp38
S'mode_r'
p39
aS'move_n'
p40
aS'mode_l'
p41
ag41
aS'move_p'
p42
ag42
ag41
ag39
ag39
ag41
ag42
ag41
ag42
ag41
ag42
ag42
ag41
ag42
ag41
ag39
ag42
ag42
ag41
ag42
ag41
ag41
ag42
ag42
ag41
ag42
ag41
ag42
ag42
ag41
ag40
asS'assistance_match_with_ground_truth'
p43
(lp44
I01
aI01
aI00
aI01
aI00
aI00
aI00
aI00
aI00
aI01
aI00
aI01
aI00
aI01
aI00
aI00
aI01
aI00
aI00
aI01
aI00
aI00
aI01
aI00
aI00
aI01
aI00
aI00
aI01
aI00
aI01
aI00
aI01
aI01
aI01
asS'is_u_intended_equals_um'
p45
(lp46
I01
aI01
aI01
aI01
aI01
aI01
aI01
aI00
aI01
aI01
aI01
aI01
aI01
aI01
aI00
aI01
aI01
aI01
aI01
aI01
aI01
aI01
aI01
aI01
aI01
aI01
aI01
aI01
aI01
aI01
aI01
aI01
aI01
aI01
aI01
asS'total_steps'
p47
I35
sS'normalized_h_of_p_ui_given_um'
p48
(lp49
cnumpy.core.multiarray
scalar
p50
(cnumpy
dtype
p51
(S'f8'
p52
I0
I1
tp53
Rp54
(I3
S'<'
p55
NNNI-1
I-1
I0
tp56
bS'\xacVo\x87\xa9\xc3\xb9?'
p57
tp58
Rp59
ag50
(g54
S'\xda}\xf3\x8e\x04w\xb8?'
p60
tp61
Rp62
ag50
(g54
S']\xb3Ig\x85\xcf\xd5?'
p63
tp64
Rp65
ag50
(g54
S'\x92#\xfb\xd4`7\xbd?'
p66
tp67
Rp68
ag50
(g54
S'\xea\xa7\x8d%\xea\xf1\xd0?'
p69
tp70
Rp71
ag50
(g54
S'\x93\x0fu\x19\x01_\xd1?'
p72
tp73
Rp74
ag50
(g54
S'\x18\xe4\x19Z\x9d\xf5\xdf?'
p75
tp76
Rp77
ag50
(g54
S'\x8f\xb93j\x1fO\xe8?'
p78
tp79
Rp80
ag50
(g54
S'\xc7KgO}t\xce?'
p81
tp82
Rp83
ag50
(g54
S'\x92#\xfb\xd4`7\xbd?'
p84
tp85
Rp86
ag50
(g54
S'\x93\x0fu\x19\x01_\xd1?'
p87
tp88
Rp89
ag50
(g54
S'\x92#\xfb\xd4`7\xbd?'
p90
tp91
Rp92
ag50
(g54
S'\x93\x0fu\x19\x01_\xd1?'
p93
tp94
Rp95
ag50
(g54
S'\x92#\xfb\xd4`7\xbd?'
p96
tp97
Rp98
ag50
(g54
S'k\x8cG\x07KF\xe7?'
p99
tp100
Rp101
ag50
(g54
S'\x93\x0fu\x19\x01_\xd1?'
p102
tp103
Rp104
ag50
(g54
S'\x92#\xfb\xd4`7\xbd?'
p105
tp106
Rp107
ag50
(g54
S'\x93\x0fu\x19\x01_\xd1?'
p108
tp109
Rp110
ag50
(g54
S'\x18\xe4\x19Z\x9d\xf5\xdf?'
p111
tp112
Rp113
ag50
(g54
S'\xacVo\x87\xa9\xc3\xb9?'
p114
tp115
Rp116
ag50
(g54
S'\xea\xa7\x8d%\xea\xf1\xd0?'
p117
tp118
Rp119
ag50
(g54
S'\x93\x0fu\x19\x01_\xd1?'
p120
tp121
Rp122
ag50
(g54
S'\x92#\xfb\xd4`7\xbd?'
p123
tp124
Rp125
ag50
(g54
S'\x93\x0fu\x19\x01_\xd1?'
p126
tp127
Rp128
ag50
(g54
S']\xb3Ig\x85\xcf\xd5?'
p129
tp130
Rp131
ag50
(g54
S'\x92#\xfb\xd4`7\xbd?'
p132
tp133
Rp134
ag50
(g54
S'\xea\xa7\x8d%\xea\xf1\xd0?'
p135
tp136
Rp137
ag50
(g54
S'\x93\x0fu\x19\x01_\xd1?'
p138
tp139
Rp140
ag50
(g54
S'\x92#\xfb\xd4`7\xbd?'
p141
tp142
Rp143
ag50
(g54
S'\x93\x0fu\x19\x01_\xd1?'
p144
tp145
Rp146
ag50
(g54
S'\x92#\xfb\xd4`7\xbd?'
p147
tp148
Rp149
ag50
(g54
S'\xea\xa7\x8d%\xea\xf1\xd0?'
p150
tp151
Rp152
ag50
(g54
S'\xaa\x10\xday&\xec\xd0?'
p153
tp154
Rp155
ag50
(g54
S'\x92#\xfb\xd4`7\xbd?'
p156
tp157
Rp158
ag50
(g54
S'\xda}\xf3\x8e\x04w\xb8?'
p159
tp160
Rp161
asS'sp'
p162
(lp163
(S'p0'
p164
I0
S'x'
p165
tp166
a(S'p1'
p167
I0
g165
tp168
a(g167
I0
g165
tp169
a(g167
I0
S't'
p170
tp171
a(g167
I0
g170
tp172
a(g167
I0
g165
tp173
a(g167
I0
S'y'
p174
tp175
ag175
a(g167
I0
g165
tp176
ag171
ag173
ag171
ag173
ag171
ag171
ag173
ag171
ag173
ag175
a(g167
I0
g170
tp177
ag172
ag173
ag171
ag173
ag169
ag171
ag172
ag173
ag171
ag173
ag171
ag172
a(g167
F1.5707963267948966
g170
tp178
a(g167
F1.5707963267948966
g174
tp179
a(S'p2'
p180
F1.5707963267948966
g174
tp181
asS's'
p182
(lp183
(g164
I0
g22
tp184
ag166
ag168
ag169
ag171
ag172
ag173
ag175
ag175
ag176
ag171
ag173
ag171
ag173
ag171
ag171
ag173
ag171
ag173
ag175
ag177
ag172
ag173
ag171
ag173
ag169
ag171
ag172
ag173
ag171
ag173
ag171
ag172
ag178
ag179
asS'ui'
p185
(lp186
S'hp'
p187
aS'ss'
p188
ag188
aS'hs'
p189
ag188
ag187
ag187
ag187
ag189
ag189
ag187
ag189
ag187
ag189
ag162
ag187
ag189
ag187
ag187
ag187
ag188
ag187
ag189
ag187
ag188
ag189
ag188
ag187
ag189
ag187
ag189
ag188
ag162
ag189
ag188
asS'um_before'
p190
(lp191
g187
ag188
ag188
ag189
ag188
ag187
ag187
ag162
ag189
ag189
ag187
ag189
ag187
ag189
ag189
ag187
ag189
ag187
ag187
ag187
ag188
ag187
ag189
ag187
ag188
ag189
ag188
ag187
ag189
ag187
ag189
ag188
ag162
ag189
ag188
asS'um_after'
p192
(lp193
g187
ag188
ag188
ag189
ag188
ag187
ag187
aNag189
ag189
ag187
ag189
ag187
ag189
aNag187
ag189
ag187
ag187
ag187
ag188
ag187
ag189
ag187
ag188
ag189
ag188
ag187
ag189
ag187
ag189
ag188
ag162
ag189
ag188
asS'is_normalized_entropy_less_than_threshold'
p194
(lp195
g50
(g51
(S'b1'
p196
I0
I1
tp197
Rp198
(I3
S'|'
p199
NNNI-1
I-1
I0
tp200
bS'\x01'
p201
tp202
Rp203
ag203
ag203
ag203
ag203
ag203
ag203
ag203
ag203
ag203
ag203
ag203
ag203
ag203
ag203
ag203
ag203
ag203
ag203
ag203
ag203
ag203
ag203
ag203
ag203
ag203
ag203
ag203
ag203
ag203
ag203
ag203
ag203
ag203
ag203
asaa(lp204
S'index'
p205
aI58234
aatp206
Rp207
.