ccollections
OrderedDict
p0
((lp1
(lp2
S'combination_dict'
p3
ag0
((lp4
(lp5
S'r_to_g_config'
p6
aS'bl'
p7
aa(lp8
S'num_turns'
p9
aI3
aa(lp10
S'start_direction'
p11
acutils_ms
StartDirection
p12
(I1
tp13
Rp14
aa(lp15
S'assistance_type'
p16
acutils_ms
AssistanceType
p17
(I1
tp18
Rp19
aa(lp20
S'start_mode'
p21
aS'x'
p22
aa(lp23
S'ui_given_a_noise'
p24
aF0.5
aa(lp25
S'um_given_ui_noise'
p26
aF0.7
aa(lp27
S'entropy_threshold'
p28
aF0.5
aatp29
Rp30
aa(lp31
S'data'
p32
accollections
defaultdict
p33
(c__builtin__
list
p34
tp35
Rp36
S'a'
p37
(lp38
S'mode_r'
p39
aS'mode_l'
p40
ag40
aS'move_n'
p41
ag40
ag41
ag41
ag39
ag39
ag40
ag39
aS'move_p'
p42
ag39
ag39
ag41
ag40
ag41
ag39
ag39
ag39
ag39
ag41
ag39
ag41
ag40
ag41
asS'assistance_match_with_ground_truth'
p43
(lp44
I00
aI00
aI01
aI00
aI01
aI00
aI01
aI00
aI00
aI00
aI01
aI01
aI00
aI01
aI00
aI01
aI01
aI00
aI00
aI00
aI01
aI00
aI01
aI01
aI01
aI01
asS'is_u_intended_equals_um'
p45
(lp46
I00
aI00
aI01
aI00
aI01
aI01
aI01
aI00
aI00
aI01
aI01
aI01
aI01
aI01
aI00
aI01
aI01
aI00
aI01
aI00
aI01
aI01
aI01
aI01
aI01
aI01
asS'total_steps'
p47
I26
sS'normalized_h_of_p_ui_given_um'
p48
(lp49
cnumpy.core.multiarray
scalar
p50
(cnumpy
dtype
p51
(S'f8'
p52
I0
I1
tp53
Rp54
(I3
S'<'
p55
NNNI-1
I-1
I0
tp56
bS'\xf7\xbc\x05\x1c\x17\xe3\xe7?'
p57
tp58
Rp59
ag50
(g54
S'\xc7YP\xb7X\xa4\xee?'
p60
tp61
Rp62
ag50
(g54
S'\xca\x13!\xc6h\xd9\xda?'
p63
tp64
Rp65
ag50
(g54
S'4\x8fb\x9b\xa7\xca\xe1?'
p66
tp67
Rp68
ag50
(g54
S'\xca\x13!\xc6h\xd9\xda?'
p69
tp70
Rp71
ag50
(g54
S'\x8e\xb6\xfd\xa4R\x14\xe9?'
p72
tp73
Rp74
ag50
(g54
S'\xe2\xa4\x1fmA6\xe1?'
p75
tp76
Rp77
ag50
(g54
S'\x10\x10\xe0\xf7\xd7}\xe7?'
p78
tp79
Rp80
ag50
(g54
S'\xf7\xbc\x05\x1c\x17\xe3\xe7?'
p81
tp82
Rp83
ag50
(g54
S'\xd3\x9fo\x04\xdc\x97\xe8?'
p84
tp85
Rp86
ag50
(g54
S'\x88\x01\x03\xd9\x18\x12\xd7?'
p87
tp88
Rp89
ag50
(g54
S'#Zd^\x8b\xc6\xdf?'
p90
tp91
Rp92
ag50
(g54
S' \x8aw\xa6Gx\xe5?'
p93
tp94
Rp95
ag50
(g54
S'\x88\x01\x03\xd9\x18\x12\xd7?'
p96
tp97
Rp98
ag50
(g54
S'4\x8fb\x9b\xa7\xca\xe1?'
p99
tp100
Rp101
ag50
(g54
S'\xca\x13!\xc6h\xd9\xda?'
p102
tp103
Rp104
ag50
(g54
S'\xe2\xa4\x1fmA6\xe1?'
p105
tp106
Rp107
ag50
(g54
S'\x10\x10\xe0\xf7\xd7}\xe7?'
p108
tp109
Rp110
ag50
(g54
S' \x8aw\xa6Gx\xe5?'
p111
tp112
Rp113
ag50
(g54
S'\x10\x10\xe0\xf7\xd7}\xe7?'
p114
tp115
Rp116
ag50
(g54
S'\x88\x01\x03\xd9\x18\x12\xd7?'
p117
tp118
Rp119
ag50
(g54
S'()\x9b\xdb\x0b\xbb\xe9?'
p120
tp121
Rp122
ag50
(g54
S'\x88\x01\x03\xd9\x18\x12\xd7?'
p123
tp124
Rp125
ag50
(g54
S'\xe2\xa4\x1fmA6\xe1?'
p126
tp127
Rp128
ag50
(g54
S'\xca\x13!\xc6h\xd9\xda?'
p129
tp130
Rp131
ag50
(g54
S'\xe2\xa4\x1fmA6\xe1?'
p132
tp133
Rp134
asS'sp'
p135
(lp136
(S'p0'
p137
I0
S't'
p138
tp139
a(g137
I0
g138
tp140
a(g137
I0
S'y'
p141
tp142
a(g137
I0
g138
tp143
ag142
a(g137
I0
g141
tp144
a(S'p1'
p145
I0
g141
tp146
a(g145
I0
g141
tp147
a(g145
I0
S'x'
p148
tp149
a(g145
I0
g141
tp150
a(g145
I0
g138
tp151
a(g145
F1.5707963267948966
g138
tp152
a(g145
F1.5707963267948966
g138
tp153
a(g145
F1.5707963267948966
g148
tp154
a(g145
F1.5707963267948966
g141
tp155
a(g145
F1.5707963267948966
g148
tp156
a(S'p2'
p157
F1.5707963267948966
g148
tp158
a(g157
F1.5707963267948966
g148
tp159
a(g157
F1.5707963267948966
g148
tp160
ag159
a(g157
F1.5707963267948966
g141
tp161
a(g157
F1.5707963267948966
g148
tp162
ag161
a(S'p3'
p163
F1.5707963267948966
g141
tp164
a(g163
F1.5707963267948966
g148
tp165
a(S'p4'
p166
F1.5707963267948966
g148
tp167
asS's'
p168
(lp169
(g137
I0
g22
tp170
ag139
ag140
ag142
ag143
ag142
ag144
ag146
ag147
ag149
ag150
ag151
ag152
ag153
ag154
ag155
ag156
ag158
ag159
ag160
ag159
ag161
ag162
ag161
ag164
ag165
asS'ui'
p171
(lp172
g135
aS'hs'
p173
ag173
aS'ss'
p174
ag173
ag135
ag174
ag135
ag173
ag173
aS'hp'
p175
ag175
ag135
ag173
ag173
ag173
ag174
ag173
ag135
ag135
ag175
ag174
ag135
ag174
ag173
ag174
asS'um_before'
p176
(lp177
g173
ag174
ag173
ag175
ag173
ag135
ag174
ag174
ag173
ag175
ag175
ag135
ag135
ag175
ag175
ag173
ag174
ag174
ag135
ag174
ag175
ag173
ag175
ag174
ag173
ag174
asS'um_after'
p178
(lp179
g173
ag174
ag173
ag175
ag173
ag135
ag174
ag174
ag173
ag175
ag175
ag135
ag135
ag175
ag175
ag173
ag174
ag174
ag135
ag174
ag175
ag173
ag175
ag174
ag173
ag174
asS'is_normalized_entropy_less_than_threshold'
p180
(lp181
g50
(g51
(S'b1'
p182
I0
I1
tp183
Rp184
(I3
S'|'
p185
NNNI-1
I-1
I0
tp186
bS'\x00'
p187
tp188
Rp189
ag189
ag50
(g184
S'\x01'
p190
tp191
Rp192
ag189
ag192
ag189
ag189
ag189
ag189
ag189
ag192
ag192
ag189
ag192
ag189
ag192
ag189
ag189
ag189
ag189
ag192
ag189
ag192
ag189
ag192
ag189
asaa(lp193
S'index'
p194
aI83752
aatp195
Rp196
.