ccollections
OrderedDict
p0
((lp1
(lp2
S'combination_dict'
p3
ag0
((lp4
(lp5
S'r_to_g_config'
p6
aS'bl'
p7
aa(lp8
S'num_turns'
p9
aI3
aa(lp10
S'start_direction'
p11
acutils_ms
StartDirection
p12
(I0
tp13
Rp14
aa(lp15
S'assistance_type'
p16
acutils_ms
AssistanceType
p17
(I1
tp18
Rp19
aa(lp20
S'start_mode'
p21
aS'y'
p22
aa(lp23
S'ui_given_a_noise'
p24
aF0.7
aa(lp25
S'um_given_ui_noise'
p26
aF0.5
aa(lp27
S'entropy_threshold'
p28
aF0.8
aatp29
Rp30
aa(lp31
S'data'
p32
accollections
defaultdict
p33
(c__builtin__
list
p34
tp35
Rp36
S'a'
p37
(lp38
S'mode_l'
p39
ag39
aS'move_n'
p40
ag40
aS'mode_r'
p41
ag40
ag40
ag41
ag40
ag41
ag40
ag40
ag40
ag41
ag40
ag39
aS'move_p'
p42
ag41
ag39
ag39
ag40
ag41
ag41
ag40
ag41
ag41
ag41
ag40
ag39
ag42
ag41
ag39
ag39
ag40
ag41
ag40
ag39
ag40
ag39
ag40
ag39
ag40
ag41
ag40
ag41
ag40
ag39
ag40
ag41
ag40
ag39
ag42
ag39
ag40
ag41
ag40
ag39
ag40
ag39
ag39
ag39
ag40
ag41
ag40
ag39
ag39
ag40
ag39
ag40
ag39
ag40
ag41
ag41
ag41
ag40
ag39
ag40
ag39
ag39
ag39
ag40
ag41
ag41
ag41
ag41
ag40
ag40
ag40
ag40
ag39
ag39
ag40
ag41
ag40
ag41
ag41
ag41
ag41
ag40
ag41
ag40
ag39
ag39
ag39
ag40
ag41
ag40
asS'assistance_match_with_ground_truth'
p43
(lp44
I00
aI01
aI00
aI00
aI01
aI00
aI00
aI01
aI00
aI01
aI00
aI00
aI00
aI01
aI01
aI01
aI00
aI00
aI00
aI01
aI00
aI00
aI01
aI00
aI00
aI00
aI01
aI00
aI01
aI00
aI00
aI00
aI01
aI01
aI01
aI00
aI01
aI00
aI01
aI00
aI01
aI00
aI01
aI01
aI01
aI00
aI01
aI00
aI01
aI00
aI01
aI01
aI01
aI00
aI01
aI00
aI01
aI00
aI00
aI00
aI01
aI01
aI01
aI00
aI00
aI01
aI00
aI01
aI01
aI01
aI00
aI00
aI00
aI01
aI00
aI01
aI00
aI00
aI00
aI01
aI00
aI00
aI00
aI00
aI01
aI00
aI00
aI00
aI00
aI00
aI01
aI00
aI01
aI01
aI00
aI00
aI00
aI01
aI00
aI01
aI01
aI00
aI00
aI01
aI01
aI01
aI01
asS'is_u_intended_equals_um'
p45
(lp46
I01
aI01
aI01
aI01
aI01
aI01
aI01
aI00
aI01
aI01
aI01
aI01
aI01
aI01
aI01
aI00
aI01
aI01
aI01
aI01
aI01
aI01
aI01
aI01
aI00
aI01
aI01
aI01
aI01
aI01
aI00
aI01
aI01
aI01
aI01
aI01
aI00
aI01
aI01
aI01
aI01
aI01
aI01
aI01
aI00
aI01
aI00
aI01
aI01
aI01
aI00
aI01
aI01
aI01
aI00
aI01
aI01
aI01
aI01
aI01
aI00
aI01
aI01
aI01
aI01
aI01
aI01
aI00
aI01
aI01
aI01
aI01
aI00
aI01
aI01
aI00
aI01
aI01
aI01
aI01
aI01
aI01
aI01
aI01
aI01
aI01
aI01
aI01
aI01
aI01
aI01
aI01
aI01
aI01
aI01
aI01
aI01
aI01
aI01
aI01
aI01
aI01
aI01
aI00
aI01
aI00
aI01
asS'total_steps'
p47
I107
sS'normalized_h_of_p_ui_given_um'
p48
(lp49
cnumpy.core.multiarray
scalar
p50
(cnumpy
dtype
p51
(S'f8'
p52
I0
I1
tp53
Rp54
(I3
S'<'
p55
NNNI-1
I-1
I0
tp56
bS"\xc3'nPR=\xdc?"
p57
tp58
Rp59
ag50
(g54
S'\x06h\x9eg\xf0B\xe0?'
p60
tp61
Rp62
ag50
(g54
S'\xd4gwn~V\xe7?'
p63
tp64
Rp65
ag50
(g54
S'x\x97\xa3\x8a\xa3]\xea?'
p66
tp67
Rp68
ag50
(g54
S'\x1c\x95@\xf6XD\xc6?'
p69
tp70
Rp71
ag50
(g54
S'\xd4gwn~V\xe7?'
p72
tp73
Rp74
ag50
(g54
S'x\x97\xa3\x8a\xa3]\xea?'
p75
tp76
Rp77
ag50
(g54
S'H\xaf\xed\xa5h\xb5\xe0?'
p78
tp79
Rp80
ag50
(g54
S'x\x97\xa3\x8a\xa3]\xea?'
p81
tp82
Rp83
ag50
(g54
S'\x1c\x95@\xf6XD\xc6?'
p84
tp85
Rp86
ag50
(g54
S'\xd4gwn~V\xe7?'
p87
tp88
Rp89
ag50
(g54
S'\xd4gwn~V\xe7?'
p90
tp91
Rp92
ag50
(g54
S'x\x97\xa3\x8a\xa3]\xea?'
p93
tp94
Rp95
ag50
(g54
S'\x1c\x95@\xf6XD\xc6?'
p96
tp97
Rp98
ag50
(g54
S'9\xa19\x99\xe7\xef\xe2?'
p99
tp100
Rp101
ag50
(g54
S'\xed\xfa\x88/\xb6\x12\xe9?'
p102
tp103
Rp104
ag50
(g54
S'\xef\xbc^\x90\xf7s\xe4?'
p105
tp106
Rp107
ag50
(g54
S'\x89\xa4\xba\xa2\xe5\xad\xe0?'
p108
tp109
Rp110
ag50
(g54
S"\xc3'nPR=\xdc?"
p111
tp112
Rp113
ag50
(g54
S'\x06h\x9eg\xf0B\xe0?'
p114
tp115
Rp116
ag50
(g54
S'x\x97\xa3\x8a\xa3]\xea?'
p117
tp118
Rp119
ag50
(g54
S'\x89\xa4\xba\xa2\xe5\xad\xe0?'
p120
tp121
Rp122
ag50
(g54
S'\x1c\x95@\xf6XD\xc6?'
p123
tp124
Rp125
ag50
(g54
S'x\x97\xa3\x8a\xa3]\xea?'
p126
tp127
Rp128
ag50
(g54
S'\xae\xe9\xb9P\x9a\x97\xe4?'
p129
tp130
Rp131
ag50
(g54
S'\x89\xa4\xba\xa2\xe5\xad\xe0?'
p132
tp133
Rp134
ag50
(g54
S'\x1c\x95@\xf6XD\xc6?'
p135
tp136
Rp137
ag50
(g54
S'\xd4gwn~V\xe7?'
p138
tp139
Rp140
ag50
(g54
S'\x06h\x9eg\xf0B\xe0?'
p141
tp142
Rp143
ag50
(g54
S'\xef\xbc^\x90\xf7s\xe4?'
p144
tp145
Rp146
ag50
(g54
S'\xae\xe9\xb9P\x9a\x97\xe4?'
p147
tp148
Rp149
ag50
(g54
S"\xc3'nPR=\xdc?"
p150
tp151
Rp152
ag50
(g54
S'\x06h\x9eg\xf0B\xe0?'
p153
tp154
Rp155
ag50
(g54
S'9\xa19\x99\xe7\xef\xe2?'
p156
tp157
Rp158
ag50
(g54
S'\x1c\x95@\xf6XD\xc6?'
p159
tp160
Rp161
ag50
(g54
S'27#\xdf\xa5\xe9\xeb?'
p162
tp163
Rp164
ag50
(g54
S'\x86\x8a\xbf\xfe\x87\x9e\xe5?'
p165
tp166
Rp167
ag50
(g54
S'27#\xdf\xa5\xe9\xeb?'
p168
tp169
Rp170
ag50
(g54
S'\x06h\x9eg\xf0B\xe0?'
p171
tp172
Rp173
ag50
(g54
S'\xd4gwn~V\xe7?'
p174
tp175
Rp176
ag50
(g54
S'\x06h\x9eg\xf0B\xe0?'
p177
tp178
Rp179
ag50
(g54
S'x\x97\xa3\x8a\xa3]\xea?'
p180
tp181
Rp182
ag50
(g54
S'\x1c\x95@\xf6XD\xc6?'
p183
tp184
Rp185
ag50
(g54
S'9\xa19\x99\xe7\xef\xe2?'
p186
tp187
Rp188
ag50
(g54
S'H\xaf\xed\xa5h\xb5\xe0?'
p189
tp190
Rp191
ag50
(g54
S'\xd4gwn~V\xe7?'
p192
tp193
Rp194
ag50
(g54
S'\xed\xfa\x88/\xb6\x12\xe9?'
p195
tp196
Rp197
ag50
(g54
S'x\x97\xa3\x8a\xa3]\xea?'
p198
tp199
Rp200
ag50
(g54
S'\x1c\x95@\xf6XD\xc6?'
p201
tp202
Rp203
ag50
(g54
S'\xd4gwn~V\xe7?'
p204
tp205
Rp206
ag50
(g54
S'\x86\x8a\xbf\xfe\x87\x9e\xe5?'
p207
tp208
Rp209
ag50
(g54
S'C\x0e\xf9\xc4\x81\xcc\xd7?'
p210
tp211
Rp212
ag50
(g54
S'\x06h\x9eg\xf0B\xe0?'
p213
tp214
Rp215
ag50
(g54
S'x\x97\xa3\x8a\xa3]\xea?'
p216
tp217
Rp218
ag50
(g54
S'H\xaf\xed\xa5h\xb5\xe0?'
p219
tp220
Rp221
ag50
(g54
S'27#\xdf\xa5\xe9\xeb?'
p222
tp223
Rp224
ag50
(g54
S'\x06h\x9eg\xf0B\xe0?'
p225
tp226
Rp227
ag50
(g54
S'\xd4gwn~V\xe7?'
p228
tp229
Rp230
ag50
(g54
S"\xc3'nPR=\xdc?"
p231
tp232
Rp233
ag50
(g54
S"\xc3'nPR=\xdc?"
p234
tp235
Rp236
ag50
(g54
S'\x86\x8a\xbf\xfe\x87\x9e\xe5?'
p237
tp238
Rp239
ag50
(g54
S'9\xa19\x99\xe7\xef\xe2?'
p240
tp241
Rp242
ag50
(g54
S'\x1c\x95@\xf6XD\xc6?'
p243
tp244
Rp245
ag50
(g54
S'27#\xdf\xa5\xe9\xeb?'
p246
tp247
Rp248
ag50
(g54
S"\xc3'nPR=\xdc?"
p249
tp250
Rp251
ag50
(g54
S'\x06h\x9eg\xf0B\xe0?'
p252
tp253
Rp254
ag50
(g54
S'27#\xdf\xa5\xe9\xeb?'
p255
tp256
Rp257
ag50
(g54
S'\xed\xfa\x88/\xb6\x12\xe9?'
p258
tp259
Rp260
ag50
(g54
S'9\xa19\x99\xe7\xef\xe2?'
p261
tp262
Rp263
ag50
(g54
S'\x06h\x9eg\xf0B\xe0?'
p264
tp265
Rp266
ag50
(g54
S'\xd4gwn~V\xe7?'
p267
tp268
Rp269
ag50
(g54
S'\x89\xa4\xba\xa2\xe5\xad\xe0?'
p270
tp271
Rp272
ag50
(g54
S'\xae\xe9\xb9P\x9a\x97\xe4?'
p273
tp274
Rp275
ag50
(g54
S'\x1c\x95@\xf6XD\xc6?'
p276
tp277
Rp278
ag50
(g54
S'\xd4gwn~V\xe7?'
p279
tp280
Rp281
ag50
(g54
S'\xed\xfa\x88/\xb6\x12\xe9?'
p282
tp283
Rp284
ag50
(g54
S'27#\xdf\xa5\xe9\xeb?'
p285
tp286
Rp287
ag50
(g54
S"\xc3'nPR=\xdc?"
p288
tp289
Rp290
ag50
(g54
S"\xc3'nPR=\xdc?"
p291
tp292
Rp293
ag50
(g54
S'\x06h\x9eg\xf0B\xe0?'
p294
tp295
Rp296
ag50
(g54
S'x\x97\xa3\x8a\xa3]\xea?'
p297
tp298
Rp299
ag50
(g54
S'\x89\xa4\xba\xa2\xe5\xad\xe0?'
p300
tp301
Rp302
ag50
(g54
S'\x89\xa4\xba\xa2\xe5\xad\xe0?'
p303
tp304
Rp305
ag50
(g54
S'\x89\xa4\xba\xa2\xe5\xad\xe0?'
p306
tp307
Rp308
ag50
(g54
S'\x1c\x95@\xf6XD\xc6?'
p309
tp310
Rp311
ag50
(g54
S'\xd4gwn~V\xe7?'
p312
tp313
Rp314
ag50
(g54
S'\xd4gwn~V\xe7?'
p315
tp316
Rp317
ag50
(g54
S'\xd4gwn~V\xe7?'
p318
tp319
Rp320
ag50
(g54
S'27#\xdf\xa5\xe9\xeb?'
p321
tp322
Rp323
ag50
(g54
S"\xc3'nPR=\xdc?"
p324
tp325
Rp326
ag50
(g54
S'\x06h\x9eg\xf0B\xe0?'
p327
tp328
Rp329
ag50
(g54
S'x\x97\xa3\x8a\xa3]\xea?'
p330
tp331
Rp332
ag50
(g54
S'\x1c\x95@\xf6XD\xc6?'
p333
tp334
Rp335
ag50
(g54
S'9\xa19\x99\xe7\xef\xe2?'
p336
tp337
Rp338
ag50
(g54
S'\x89\xa4\xba\xa2\xe5\xad\xe0?'
p339
tp340
Rp341
ag50
(g54
S'\x89\xa4\xba\xa2\xe5\xad\xe0?'
p342
tp343
Rp344
ag50
(g54
S'\x89\xa4\xba\xa2\xe5\xad\xe0?'
p345
tp346
Rp347
ag50
(g54
S'\x1c\x95@\xf6XD\xc6?'
p348
tp349
Rp350
ag50
(g54
S'x\x97\xa3\x8a\xa3]\xea?'
p351
tp352
Rp353
ag50
(g54
S'\x1c\x95@\xf6XD\xc6?'
p354
tp355
Rp356
ag50
(g54
S'9\xa19\x99\xe7\xef\xe2?'
p357
tp358
Rp359
ag50
(g54
S"\xc3'nPR=\xdc?"
p360
tp361
Rp362
ag50
(g54
S"\xc3'nPR=\xdc?"
p363
tp364
Rp365
ag50
(g54
S'\x86\x8a\xbf\xfe\x87\x9e\xe5?'
p366
tp367
Rp368
ag50
(g54
S'9\xa19\x99\xe7\xef\xe2?'
p369
tp370
Rp371
ag50
(g54
S'H\xaf\xed\xa5h\xb5\xe0?'
p372
tp373
Rp374
ag50
(g54
S'9\xa19\x99\xe7\xef\xe2?'
p375
tp376
Rp377
asS'sp'
p378
(lp379
(S'p0'
p380
I0
S'y'
p381
tp382
a(g380
I0
S'x'
p383
tp384
a(g380
I0
g383
tp385
a(g380
I0
S't'
p386
tp387
a(g380
I0
g383
tp388
ag385
ag387
ag388
ag387
ag388
ag385
ag385
ag387
ag388
a(S'p1'
p389
I0
g383
tp390
a(g389
I0
g386
tp391
a(g389
I0
g381
tp392
a(S'p2'
p393
I0
g381
tp394
a(g393
I0
g381
tp395
a(g393
I0
g383
tp396
a(g393
I0
g386
tp397
a(g393
I0
g386
tp398
a(g393
I0
g383
tp399
ag397
ag398
ag398
ag399
a(g389
I0
g383
tp400
ag391
ag392
ag394
ag395
ag396
a(S'p3'
p401
I0
g383
tp402
a(g401
I0
g381
tp403
a(g401
I0
g386
tp404
a(g401
I0
g381
tp405
ag404
ag405
a(g393
I0
g381
tp406
ag396
ag397
ag399
ag402
ag403
ag406
ag396
ag397
ag399
ag400
ag391
a(g389
F1.5707963267948966
g386
tp407
a(g389
F1.5707963267948966
g381
tp408
a(g389
F1.5707963267948966
g383
tp409
a(g389
F1.5707963267948966
g381
tp410
a(g389
F1.5707963267948966
g386
tp411
ag408
a(g380
F1.5707963267948966
g381
tp412
a(g380
F1.5707963267948966
g381
tp413
ag413
a(g380
F1.5707963267948966
g383
tp414
a(g389
F1.5707963267948966
g383
tp415
ag410
ag411
a(g389
F1.5707963267948966
g386
tp416
ag408
ag411
ag408
a(g393
F1.5707963267948966
g381
tp417
a(g393
F1.5707963267948966
g383
tp418
a(g389
F1.5707963267948966
g383
tp419
a(g389
F1.5707963267948966
g383
tp420
ag420
ag410
ag412
ag414
a(g380
F1.5707963267948966
g381
tp421
ag413
ag413
ag414
a(g380
F1.5707963267948966
g386
tp422
a(g380
F1.5707963267948966
g386
tp423
ag423
ag423
a(g380
F1.5707963267948966
g383
tp424
a(g380
F1.5707963267948966
g383
tp425
ag425
ag425
ag421
ag413
ag414
ag422
ag424
ag415
ag420
ag420
ag420
ag410
ag409
ag410
ag417
a(g393
F1.5707963267948966
g381
tp426
ag426
ag418
a(g401
F1.5707963267948966
g383
tp427
a(g401
F1.5707963267948966
g381
tp428
a(S'p4'
p429
F1.5707963267948966
g381
tp430
asS's'
p431
(lp432
(g380
I0
g22
tp433
ag382
ag384
ag385
ag387
ag388
ag385
ag387
ag388
ag387
ag388
ag385
ag385
ag387
ag388
ag390
ag391
ag392
ag394
ag395
ag396
ag397
ag398
ag399
ag397
ag398
ag398
ag399
ag400
ag391
ag392
ag394
ag395
ag396
ag402
ag403
ag404
ag405
ag404
ag405
ag406
ag396
ag397
ag399
ag402
ag403
ag406
ag396
ag397
ag399
ag400
ag391
ag407
ag408
ag409
ag410
ag411
ag408
ag412
ag413
ag413
ag414
ag415
ag410
ag411
ag416
ag408
ag411
ag408
ag417
ag418
ag419
ag420
ag420
ag410
ag412
ag414
ag421
ag413
ag413
ag414
ag422
ag423
ag423
ag423
ag424
ag425
ag425
ag425
ag421
ag413
ag414
ag422
ag424
ag415
ag420
ag420
ag420
ag410
ag409
ag410
ag417
ag426
ag426
ag418
ag427
ag428
asS'ui'
p434
(lp435
g378
ag378
aS'hp'
p436
ag378
ag436
ag378
aS'ss'
p437
ag436
ag378
ag436
ag437
ag436
ag378
ag436
aS'hs'
p438
ag378
ag438
ag436
ag378
ag438
ag378
ag436
ag436
ag378
ag437
ag437
ag436
ag437
ag438
ag438
ag437
ag437
ag438
ag437
ag436
ag436
ag438
ag436
ag438
ag436
ag378
ag438
ag436
ag437
ag436
ag436
ag438
ag438
ag436
ag378
ag438
ag378
ag378
ag438
ag436
ag436
ag438
ag378
ag436
ag378
ag438
ag436
ag436
ag436
ag378
ag438
ag436
ag438
ag437
ag378
ag437
ag437
ag436
ag436
ag437
ag438
ag436
ag436
ag378
ag438
ag378
ag436
ag437
ag436
ag436
ag437
ag378
ag437
ag436
ag436
ag438
ag438
ag436
ag437
ag436
ag437
ag437
ag436
ag378
ag436
ag437
ag378
ag437
ag438
ag437
ag436
ag438
asS'um_before'
p439
(lp440
g378
ag438
ag378
ag438
ag436
ag378
ag438
ag378
ag438
ag436
ag378
ag378
ag438
ag436
ag437
ag436
ag438
ag437
ag378
ag438
ag438
ag437
ag436
ag438
ag438
ag437
ag436
ag378
ag438
ag438
ag438
ag378
ag438
ag437
ag436
ag436
ag437
ag436
ag438
ag378
ag438
ag438
ag436
ag437
ag378
ag378
ag436
ag438
ag436
ag378
ag437
ag378
ag438
ag438
ag378
ag436
ag438
ag378
ag378
ag378
ag437
ag437
ag436
ag436
ag378
ag438
ag436
ag436
ag437
ag438
ag378
ag437
ag438
ag436
ag378
ag436
ag436
ag378
ag378
ag438
ag438
ag437
ag437
ag437
ag436
ag378
ag378
ag378
ag436
ag378
ag438
ag438
ag436
ag437
ag437
ag437
ag437
ag436
ag438
ag436
ag437
ag378
ag378
ag437
ag437
ag378
ag437
asS'um_after'
p441
(lp442
g378
ag438
ag378
ag438
ag436
ag378
ag438
ag436
ag438
ag436
ag378
ag378
ag438
ag436
ag437
ag438
ag438
ag437
ag378
ag438
ag438
ag437
ag436
ag438
ag437
ag437
ag436
ag378
ag438
ag438
ag437
ag378
ag438
ag437
ag436
ag436
ag438
ag436
ag438
ag378
ag438
ag438
ag436
ag437
ag436
ag378
ag438
ag438
ag436
ag378
ag438
ag378
ag438
ag438
ag436
ag436
ag438
ag378
ag378
ag378
ag438
ag437
ag436
ag436
ag378
ag438
ag436
ag438
ag437
ag438
ag378
ag437
ag437
ag436
ag378
ag438
ag436
ag378
ag378
ag438
ag438
ag437
ag437
ag437
ag436
ag378
ag378
ag378
ag436
ag378
ag438
ag438
ag436
ag437
ag437
ag437
ag437
ag436
ag438
ag436
ag437
ag378
ag378
ag438
ag437
ag436
ag437
asS'is_normalized_entropy_less_than_threshold'
p443
(lp444
g50
(g51
(S'b1'
p445
I0
I1
tp446
Rp447
(I3
S'|'
p448
NNNI-1
I-1
I0
tp449
bS'\x01'
p450
tp451
Rp452
ag452
ag452
ag50
(g447
S'\x00'
p453
tp454
Rp455
ag452
ag452
ag455
ag452
ag455
ag452
ag452
ag452
ag455
ag452
ag452
ag452
ag452
ag452
ag452
ag452
ag455
ag452
ag452
ag455
ag452
ag452
ag452
ag452
ag452
ag452
ag452
ag452
ag452
ag452
ag452
ag455
ag452
ag455
ag452
ag452
ag452
ag455
ag452
ag452
ag452
ag452
ag452
ag455
ag452
ag452
ag452
ag452
ag452
ag455
ag452
ag455
ag452
ag452
ag452
ag452
ag452
ag452
ag452
ag455
ag452
ag452
ag455
ag452
ag452
ag452
ag452
ag452
ag452
ag452
ag452
ag452
ag455
ag452
ag452
ag452
ag455
ag452
ag452
ag452
ag452
ag452
ag452
ag452
ag455
ag452
ag452
ag455
ag452
ag452
ag452
ag452
ag452
ag452
ag455
ag452
ag452
ag452
ag452
ag452
ag452
ag452
ag452
asaa(lp456
S'index'
p457
aI79932
aatp458
Rp459
.