ccollections
OrderedDict
p0
((lp1
(lp2
S'combination_dict'
p3
ag0
((lp4
(lp5
S'r_to_g_config'
p6
aS'tr'
p7
aa(lp8
S'num_turns'
p9
aI2
aa(lp10
S'start_direction'
p11
acutils_ms
StartDirection
p12
(I0
tp13
Rp14
aa(lp15
S'assistance_type'
p16
acutils_ms
AssistanceType
p17
(I0
tp18
Rp19
aa(lp20
S'start_mode'
p21
aS't'
p22
aa(lp23
S'ui_given_a_noise'
p24
aF0.7
aa(lp25
S'um_given_ui_noise'
p26
aF0.7
aa(lp27
S'entropy_threshold'
p28
aF0.8
aatp29
Rp30
aa(lp31
S'data'
p32
accollections
defaultdict
p33
(c__builtin__
list
p34
tp35
Rp36
S'a'
p37
(lp38
S'mode_r'
p39
aS'move_p'
p40
ag39
ag39
ag39
ag40
ag39
ag40
ag39
ag39
ag39
ag39
ag40
ag40
ag40
ag40
aS'mode_l'
p41
ag39
ag40
ag40
ag41
ag40
ag41
ag39
ag40
ag41
ag40
ag39
ag39
ag40
ag39
ag39
ag39
ag40
ag39
ag39
ag40
ag41
ag39
ag40
ag41
ag41
ag41
ag41
ag39
ag40
ag39
ag40
ag41
ag39
ag39
ag40
ag39
ag39
ag39
ag39
ag40
ag39
ag39
ag40
ag39
ag39
ag40
ag41
ag39
ag39
ag39
ag40
ag41
ag40
ag41
ag40
ag39
ag39
ag39
ag40
ag41
ag39
ag40
ag41
ag41
ag41
ag40
ag41
ag40
asS'assistance_match_with_ground_truth'
p42
(lp43
I01
aI01
aI00
aI00
aI01
aI00
aI01
aI01
aI00
aI00
aI00
aI01
aI00
aI00
aI00
aI00
aI00
aI01
aI00
aI00
aI01
aI00
aI00
aI01
aI00
aI01
aI01
aI00
aI01
aI00
aI00
aI00
aI01
aI00
aI00
aI01
aI00
aI00
aI01
aI00
aI00
aI00
aI00
aI00
aI01
aI00
aI01
aI00
aI00
aI00
aI01
aI00
aI00
aI00
aI00
aI01
aI01
aI00
aI01
aI01
aI00
aI01
aI00
aI00
aI00
aI00
aI01
aI00
aI01
aI00
aI01
aI01
aI00
aI00
aI01
aI00
aI00
aI01
aI00
aI00
aI00
aI01
aI00
aI01
aI01
asS'is_u_intended_equals_um'
p44
(lp45
I01
aI01
aI00
aI00
aI01
aI00
aI01
aI01
aI00
aI00
aI00
aI01
aI01
aI01
aI01
aI01
aI01
aI01
aI01
aI01
aI01
aI01
aI00
aI01
aI01
aI01
aI01
aI00
aI01
aI00
aI00
aI00
aI01
aI00
aI00
aI01
aI01
aI00
aI01
aI01
aI00
aI00
aI00
aI01
aI01
aI00
aI01
aI01
aI01
aI00
aI01
aI00
aI00
aI00
aI00
aI01
aI01
aI00
aI01
aI01
aI00
aI01
aI01
aI01
aI00
aI00
aI01
aI01
aI01
aI01
aI01
aI01
aI00
aI00
aI01
aI01
aI01
aI01
aI01
aI00
aI00
aI01
aI01
aI01
aI01
asS'total_steps'
p46
I85
sS'normalized_h_of_p_ui_given_um'
p47
(lp48
cnumpy.core.multiarray
scalar
p49
(cnumpy
dtype
p50
(S'f8'
p51
I0
I1
tp52
Rp53
(I3
S'<'
p54
NNNI-1
I-1
I0
tp55
bS'\xc9V\x18:&\xe6\xd5?'
p56
tp57
Rp58
ag49
(g53
S"Gn\xe7\xab'\x91\xe0?"
p59
tp60
Rp61
ag49
(g53
S'Ms1\xf17\xb7\xe5?'
p62
tp63
Rp64
ag49
(g53
S'Ms1\xf17\xb7\xe5?'
p65
tp66
Rp67
ag49
(g53
S'\xc9V\x18:&\xe6\xd5?'
p68
tp69
Rp70
ag49
(g53
S'n\xdds\x18\x07\xb0\xec?'
p71
tp72
Rp73
ag49
(g53
S'\xc9V\x18:&\xe6\xd5?'
p74
tp75
Rp76
ag49
(g53
S"Gn\xe7\xab'\x91\xe0?"
p77
tp78
Rp79
ag49
(g53
S'Ms1\xf17\xb7\xe5?'
p80
tp81
Rp82
ag49
(g53
S'\x89?\xc5\x81$d\xe8?'
p83
tp84
Rp85
ag49
(g53
S'Ms1\xf17\xb7\xe5?'
p86
tp87
Rp88
ag49
(g53
S'\xc9V\x18:&\xe6\xd5?'
p89
tp90
Rp91
ag49
(g53
S'B\x91\x8b5\xe0\x1a\xea?'
p92
tp93
Rp94
ag49
(g53
S'B\x91\x8b5\xe0\x1a\xea?'
p95
tp96
Rp97
ag49
(g53
S'B\x91\x8b5\xe0\x1a\xea?'
p98
tp99
Rp100
ag49
(g53
S'\xab\xb4L\xf9:H\xe8?'
p101
tp102
Rp103
ag49
(g53
S'\x1a\xa1\x80\xb33N\xe7?'
p104
tp105
Rp106
ag49
(g53
S'\xc9V\x18:&\xe6\xd5?'
p107
tp108
Rp109
ag49
(g53
S'B\x91\x8b5\xe0\x1a\xea?'
p110
tp111
Rp112
ag49
(g53
S'\xab\xb4L\xf9:H\xe8?'
p113
tp114
Rp115
ag49
(g53
S'\x93\xc6\x0f\xde\x8d\x98\xde?'
p116
tp117
Rp118
ag49
(g53
S'\xab\xb4L\xf9:H\xe8?'
p119
tp120
Rp121
ag49
(g53
S'\xee\x8dFj\x90\x8f\xec?'
p122
tp123
Rp124
ag49
(g53
S'\xc9V\x18:&\xe6\xd5?'
p125
tp126
Rp127
ag49
(g53
S'\xab\xb4L\xf9:H\xe8?'
p128
tp129
Rp130
ag49
(g53
S'\x93\xc6\x0f\xde\x8d\x98\xde?'
p131
tp132
Rp133
ag49
(g53
S"Gn\xe7\xab'\x91\xe0?"
p134
tp135
Rp136
ag49
(g53
S'Ms1\xf17\xb7\xe5?'
p137
tp138
Rp139
ag49
(g53
S'\xc9V\x18:&\xe6\xd5?'
p140
tp141
Rp142
ag49
(g53
S'n\xdds\x18\x07\xb0\xec?'
p143
tp144
Rp145
ag49
(g53
S'Ms1\xf17\xb7\xe5?'
p146
tp147
Rp148
ag49
(g53
S'Ms1\xf17\xb7\xe5?'
p149
tp150
Rp151
ag49
(g53
S'\xc9V\x18:&\xe6\xd5?'
p152
tp153
Rp154
ag49
(g53
S'n\xdds\x18\x07\xb0\xec?'
p155
tp156
Rp157
ag49
(g53
S'Ms1\xf17\xb7\xe5?'
p158
tp159
Rp160
ag49
(g53
S'\xc9V\x18:&\xe6\xd5?'
p161
tp162
Rp163
ag49
(g53
S'\xab\xb4L\xf9:H\xe8?'
p164
tp165
Rp166
ag49
(g53
S'\xee\x8dFj\x90\x8f\xec?'
p167
tp168
Rp169
ag49
(g53
S'\xc9V\x18:&\xe6\xd5?'
p170
tp171
Rp172
ag49
(g53
S'\xab\xb4L\xf9:H\xe8?'
p173
tp174
Rp175
ag49
(g53
S'\xee\x8dFj\x90\x8f\xec?'
p176
tp177
Rp178
ag49
(g53
S'\xee\x8dFj\x90\x8f\xec?'
p179
tp180
Rp181
ag49
(g53
S'\xee\x8dFj\x90\x8f\xec?'
p182
tp183
Rp184
ag49
(g53
S'\x1a\xa1\x80\xb33N\xe7?'
p185
tp186
Rp187
ag49
(g53
S'\xc9V\x18:&\xe6\xd5?'
p188
tp189
Rp190
ag49
(g53
S'n\xdds\x18\x07\xb0\xec?'
p191
tp192
Rp193
ag49
(g53
S'\xc9V\x18:&\xe6\xd5?'
p194
tp195
Rp196
ag49
(g53
S'B\x91\x8b5\xe0\x1a\xea?'
p197
tp198
Rp199
ag49
(g53
S'\x1a\xa1\x80\xb33N\xe7?'
p200
tp201
Rp202
ag49
(g53
S'Ms1\xf17\xb7\xe5?'
p203
tp204
Rp205
ag49
(g53
S'\xc9V\x18:&\xe6\xd5?'
p206
tp207
Rp208
ag49
(g53
S'n\xdds\x18\x07\xb0\xec?'
p209
tp210
Rp211
ag49
(g53
S'\x89?\xc5\x81$d\xe8?'
p212
tp213
Rp214
ag49
(g53
S'Ms1\xf17\xb7\xe5?'
p215
tp216
Rp217
ag49
(g53
S'Ms1\xf17\xb7\xe5?'
p218
tp219
Rp220
ag49
(g53
S'\xc9V\x18:&\xe6\xd5?'
p221
tp222
Rp223
ag49
(g53
S"Gn\xe7\xab'\x91\xe0?"
p224
tp225
Rp226
ag49
(g53
S'\xfa\x81j\x02\xb8(\xe9?'
p227
tp228
Rp229
ag49
(g53
S'\xc9V\x18:&\xe6\xd5?'
p230
tp231
Rp232
ag49
(g53
S"Gn\xe7\xab'\x91\xe0?"
p233
tp234
Rp235
ag49
(g53
S'Ms1\xf17\xb7\xe5?'
p236
tp237
Rp238
ag49
(g53
S'\xc9V\x18:&\xe6\xd5?'
p239
tp240
Rp241
ag49
(g53
S'\xab\xb4L\xf9:H\xe8?'
p242
tp243
Rp244
ag49
(g53
S'\x1a\xa1\x80\xb33N\xe7?'
p245
tp246
Rp247
ag49
(g53
S'Ms1\xf17\xb7\xe5?'
p248
tp249
Rp250
ag49
(g53
S'Ms1\xf17\xb7\xe5?'
p251
tp252
Rp253
ag49
(g53
S'\xc9V\x18:&\xe6\xd5?'
p254
tp255
Rp256
ag49
(g53
S'\xab\xb4L\xf9:H\xe8?'
p257
tp258
Rp259
ag49
(g53
S'\x93\xc6\x0f\xde\x8d\x98\xde?'
p260
tp261
Rp262
ag49
(g53
S'\xab\xb4L\xf9:H\xe8?'
p263
tp264
Rp265
ag49
(g53
S'\x93\xc6\x0f\xde\x8d\x98\xde?'
p266
tp267
Rp268
ag49
(g53
S"Gn\xe7\xab'\x91\xe0?"
p269
tp270
Rp271
ag49
(g53
S'\xfa\x81j\x02\xb8(\xe9?'
p272
tp273
Rp274
ag49
(g53
S'Ms1\xf17\xb7\xe5?'
p275
tp276
Rp277
ag49
(g53
S'\xc9V\x18:&\xe6\xd5?'
p278
tp279
Rp280
ag49
(g53
S'\xab\xb4L\xf9:H\xe8?'
p281
tp282
Rp283
ag49
(g53
S'\x1a\xa1\x80\xb33N\xe7?'
p284
tp285
Rp286
ag49
(g53
S'\xc9V\x18:&\xe6\xd5?'
p287
tp288
Rp289
ag49
(g53
S'\xab\xb4L\xf9:H\xe8?'
p290
tp291
Rp292
ag49
(g53
S'\x16$\xeawN\x9e\xe8?'
p293
tp294
Rp295
ag49
(g53
S'\xee\x8dFj\x90\x8f\xec?'
p296
tp297
Rp298
ag49
(g53
S'\x93\xc6\x0f\xde\x8d\x98\xde?'
p299
tp300
Rp301
ag49
(g53
S'\xab\xb4L\xf9:H\xe8?'
p302
tp303
Rp304
ag49
(g53
S'\x93\xc6\x0f\xde\x8d\x98\xde?'
p305
tp306
Rp307
ag49
(g53
S"Gn\xe7\xab'\x91\xe0?"
p308
tp309
Rp310
asS'sp'
p311
(lp312
(S'p0'
p313
I0
S'x'
p314
tp315
a(S'p1'
p316
I0
g314
tp317
ag317
ag317
a(g316
I0
S'y'
p318
tp319
a(g316
I0
g314
tp320
ag319
a(S'p2'
p321
I0
g318
tp322
ag322
ag322
ag322
a(g321
I0
S't'
p323
tp324
a(g321
I0
g323
tp325
ag325
ag325
a(g321
I0
g314
tp326
a(g321
I0
g318
tp327
ag324
ag325
ag326
a(g321
I0
g323
tp328
ag326
a(g316
I0
g314
tp329
ag319
a(g316
I0
g323
tp330
a(g316
I0
g318
tp331
ag322
ag322
ag324
a(g321
I0
g318
tp332
ag332
ag332
ag324
ag332
ag332
ag324
ag326
ag329
ag319
ag330
a(g316
I0
g323
tp333
ag333
ag333
a(g316
I0
g314
tp334
ag319
ag320
ag319
a(g313
I0
g318
tp335
a(g313
I0
g323
tp336
ag336
ag315
a(g313
I0
g323
tp337
ag337
ag337
ag337
ag315
ag317
ag317
ag319
ag322
ag322
ag324
ag326
ag327
ag327
ag327
ag324
ag326
ag328
ag326
ag328
a(g321
F1.5707963267948966
g323
tp338
ag338
ag338
a(g321
F1.5707963267948966
g314
tp339
a(g321
F1.5707963267948966
g318
tp340
a(g321
F1.5707963267948966
g323
tp341
ag339
ag340
ag340
a(g321
F1.5707963267948966
g318
tp342
a(g321
F1.5707963267948966
g314
tp343
ag340
ag343
a(S'p3'
p344
F1.5707963267948966
g314
tp345
asS's'
p346
(lp347
(g313
I0
g22
tp348
ag315
ag317
ag317
ag317
ag319
ag320
ag319
ag322
ag322
ag322
ag322
ag324
ag325
ag325
ag325
ag326
ag327
ag324
ag325
ag326
ag328
ag326
ag329
ag319
ag330
ag331
ag322
ag322
ag324
ag332
ag332
ag332
ag324
ag332
ag332
ag324
ag326
ag329
ag319
ag330
ag333
ag333
ag333
ag334
ag319
ag320
ag319
ag335
ag336
ag336
ag315
ag337
ag337
ag337
ag337
ag315
ag317
ag317
ag319
ag322
ag322
ag324
ag326
ag327
ag327
ag327
ag324
ag326
ag328
ag326
ag328
ag338
ag338
ag338
ag339
ag340
ag341
ag339
ag340
ag340
ag342
ag343
ag340
ag343
asS'ui'
p349
(lp350
S'hp'
p351
aS'ss'
p352
ag351
ag352
ag351
ag352
ag351
ag311
ag351
ag352
ag352
ag351
ag311
ag352
aS'hs'
p353
ag351
ag353
ag352
ag311
ag311
ag353
ag311
ag353
ag351
ag351
ag353
ag311
ag351
ag351
ag311
ag351
ag351
ag351
ag351
ag351
ag351
ag351
ag352
ag311
ag351
ag351
ag353
ag351
ag353
ag351
ag311
ag351
ag311
ag352
ag352
ag351
ag351
ag352
ag351
ag351
ag351
ag311
ag352
ag351
ag311
ag352
ag351
ag351
ag353
ag311
ag351
ag352
ag351
ag353
ag311
ag353
ag311
ag351
ag352
ag351
ag351
ag351
ag351
ag352
ag352
ag353
ag353
ag311
ag353
ag352
asS'um_before'
p354
(lp355
g351
ag311
ag352
ag352
ag351
ag353
ag351
ag311
ag352
ag353
ag352
ag351
ag352
ag352
ag352
ag351
ag351
ag351
ag352
ag351
ag353
ag351
ag352
ag351
ag351
ag353
ag311
ag352
ag351
ag353
ag352
ag352
ag351
ag353
ag352
ag351
ag351
ag352
ag351
ag351
ag352
ag352
ag352
ag351
ag351
ag353
ag351
ag352
ag351
ag352
ag351
ag353
ag353
ag352
ag352
ag351
ag311
ag311
ag351
ag311
ag352
ag351
ag351
ag351
ag352
ag352
ag351
ag351
ag353
ag351
ag353
ag311
ag311
ag352
ag351
ag351
ag351
ag351
ag351
ag311
ag352
ag353
ag351
ag353
ag311
asS'um_after'
p356
(lp357
g351
ag311
aNaNag351
ag353
ag351
ag311
aNaNaNag351
ag352
ag352
ag352
ag351
ag351
ag351
ag352
ag351
ag353
ag351
ag352
ag351
ag351
ag353
ag311
aNag351
ag353
aNaNag351
ag353
aNag351
ag351
ag352
ag351
ag351
ag352
ag352
ag352
ag351
ag351
ag353
ag351
ag352
ag351
aNag351
ag353
aNaNaNag351
ag311
aNag351
ag311
aNag351
ag351
ag351
aNaNag351
ag351
ag353
ag351
ag353
ag311
aNaNag351
ag351
ag351
ag351
ag351
aNag352
ag353
ag351
ag353
ag311
asS'is_normalized_entropy_less_than_threshold'
p358
(lp359
g49
(g50
(S'b1'
p360
I0
I1
tp361
Rp362
(I3
S'|'
p363
NNNI-1
I-1
I0
tp364
bS'\x01'
p365
tp366
Rp367
ag367
ag367
ag367
ag367
ag49
(g362
S'\x00'
p368
tp369
Rp370
ag367
ag367
ag367
ag367
ag367
ag367
ag370
ag370
ag370
ag367
ag367
ag367
ag370
ag367
ag367
ag367
ag370
ag367
ag367
ag367
ag367
ag367
ag367
ag370
ag367
ag367
ag367
ag370
ag367
ag367
ag367
ag370
ag367
ag367
ag370
ag370
ag370
ag367
ag367
ag370
ag367
ag370
ag367
ag367
ag367
ag370
ag367
ag367
ag367
ag367
ag367
ag367
ag367
ag367
ag367
ag367
ag367
ag367
ag367
ag367
ag367
ag367
ag367
ag367
ag367
ag367
ag367
ag367
ag367
ag367
ag367
ag367
ag367
ag367
ag370
ag367
ag367
ag367
ag367
asaa(lp371
S'index'
p372
aI10381
aatp373
Rp374
.