ccollections
OrderedDict
p0
((lp1
(lp2
S'combination_dict'
p3
ag0
((lp4
(lp5
S'r_to_g_config'
p6
aS'tr'
p7
aa(lp8
S'num_turns'
p9
aI1
aa(lp10
S'start_direction'
p11
acutils_ms
StartDirection
p12
(I1
tp13
Rp14
aa(lp15
S'assistance_type'
p16
acutils_ms
AssistanceType
p17
(I0
tp18
Rp19
aa(lp20
S'start_mode'
p21
aS'x'
p22
aa(lp23
S'ui_given_a_noise'
p24
aF0.3
aa(lp25
S'um_given_ui_noise'
p26
aF0.5
aa(lp27
S'entropy_threshold'
p28
aF0.7
aatp29
Rp30
aa(lp31
S'data'
p32
accollections
defaultdict
p33
(c__builtin__
list
p34
tp35
Rp36
S'a'
p37
(lp38
S'mode_r'
p39
aS'move_p'
p40
ag40
ag40
ag39
ag39
ag39
ag40
aS'mode_l'
p41
asS'assistance_match_with_ground_truth'
p42
(lp43
I01
aI00
aI00
aI01
aI00
aI00
aI01
aI00
aI00
asS'is_u_intended_equals_um'
p44
(lp45
I01
aI01
aI01
aI01
aI00
aI00
aI01
aI00
aI01
asS'total_steps'
p46
I9
sS'normalized_h_of_p_ui_given_um'
p47
(lp48
cnumpy.core.multiarray
scalar
p49
(cnumpy
dtype
p50
(S'f8'
p51
I0
I1
tp52
Rp53
(I3
S'<'
p54
NNNI-1
I-1
I0
tp55
bS'\x0c\xf9\xcd\xc9`q\xcf?'
p56
tp57
Rp58
ag49
(g53
S'\xfa\xa0:\xb1\xc3\xdc\xef?'
p59
tp60
Rp61
ag49
(g53
S'\xfa\xa0:\xb1\xc3\xdc\xef?'
p62
tp63
Rp64
ag49
(g53
S'\x87\xaa\xbc[\x12;\xca?'
p65
tp66
Rp67
ag49
(g53
S'xe\x19\xf4\xb6Q\xe5?'
p68
tp69
Rp70
ag49
(g53
S'xe\x19\xf4\xb6Q\xe5?'
p71
tp72
Rp73
ag49
(g53
S'\x0c\xf9\xcd\xc9`q\xcf?'
p74
tp75
Rp76
ag49
(g53
S'3\xb5\xf2uU\xf0\xe6?'
p77
tp78
Rp79
ag49
(g53
S'\x19\x84\x9e@\xf3\xf3\xe5?'
p80
tp81
Rp82
asS'sp'
p83
(lp84
(S'p0'
p85
I0
S'y'
p86
tp87
a(g85
I0
g86
tp88
ag88
a(S'p1'
p89
I0
g86
tp90
ag90
ag90
a(g89
I0
S't'
p91
tp92
a(g89
I0
S'x'
p93
tp94
a(S'p2'
p95
I0
g93
tp96
asS's'
p97
(lp98
(g85
I0
g22
tp99
ag87
ag88
ag88
ag90
ag90
ag90
ag92
ag94
asS'ui'
p100
(lp101
S'hp'
p102
aS'ss'
p103
ag103
ag83
ag102
ag102
ag102
ag102
ag83
asS'um_before'
p104
(lp105
g102
ag103
ag103
ag83
aS'hs'
p106
ag106
ag102
ag102
ag83
asS'um_after'
p107
(lp108
g102
ag103
ag103
ag83
aNaNag102
ag102
ag83
asS'is_normalized_entropy_less_than_threshold'
p109
(lp110
g49
(g50
(S'b1'
p111
I0
I1
tp112
Rp113
(I3
S'|'
p114
NNNI-1
I-1
I0
tp115
bS'\x01'
p116
tp117
Rp118
ag49
(g113
S'\x00'
p119
tp120
Rp121
ag121
ag118
ag118
ag118
ag118
ag121
ag118
asaa(lp122
S'index'
p123
aI5127
aatp124
Rp125
.