ccollections
OrderedDict
p0
((lp1
(lp2
S'combination_dict'
p3
ag0
((lp4
(lp5
S'r_to_g_config'
p6
aS'tl'
p7
aa(lp8
S'num_turns'
p9
aI3
aa(lp10
S'start_direction'
p11
acutils_ms
StartDirection
p12
(I0
tp13
Rp14
aa(lp15
S'assistance_type'
p16
acutils_ms
AssistanceType
p17
(I0
tp18
Rp19
aa(lp20
S'start_mode'
p21
aS'y'
p22
aa(lp23
S'ui_given_a_noise'
p24
aF0.7
aa(lp25
S'um_given_ui_noise'
p26
aF0.3
aa(lp27
S'entropy_threshold'
p28
aF0.8
aatp29
Rp30
aa(lp31
S'data'
p32
accollections
defaultdict
p33
(c__builtin__
list
p34
tp35
Rp36
S'a'
p37
(lp38
S'mode_l'
p39
aS'mode_r'
p40
aS'move_n'
p41
ag39
ag41
ag41
ag40
ag41
ag41
ag39
ag41
ag39
aS'move_p'
p42
ag39
ag40
ag42
ag42
ag42
ag39
ag42
ag39
ag41
ag40
ag42
ag39
ag40
ag40
ag40
ag41
ag40
ag40
ag40
ag42
asS'assistance_match_with_ground_truth'
p43
(lp44
I00
aI01
aI00
aI01
aI00
aI00
aI01
aI00
aI00
aI01
aI01
aI01
aI00
aI00
aI01
aI00
aI00
aI01
aI01
aI01
aI01
aI00
aI01
aI01
aI00
aI00
aI00
aI01
aI01
aI00
aI00
aI01
aI01
asS'is_u_intended_equals_um'
p45
(lp46
I01
aI01
aI01
aI01
aI01
aI00
aI01
aI01
aI01
aI01
aI01
aI01
aI01
aI01
aI01
aI00
aI00
aI01
aI01
aI01
aI01
aI01
aI01
aI01
aI01
aI01
aI01
aI01
aI01
aI01
aI01
aI01
aI01
asS'total_steps'
p47
I33
sS'normalized_h_of_p_ui_given_um'
p48
(lp49
cnumpy.core.multiarray
scalar
p50
(cnumpy
dtype
p51
(S'f8'
p52
I0
I1
tp53
Rp54
(I3
S'<'
p55
NNNI-1
I-1
I0
tp56
bS'g\xd0-\xd1~\x80\xe0?'
p57
tp58
Rp59
ag50
(g54
S'\xcfg\x95\xfe\xc5,\xd2?'
p60
tp61
Rp62
ag50
(g54
S'\xb6\xd1\xe4\xcch\xcc\xdb?'
p63
tp64
Rp65
ag50
(g54
S'\x0c\xfd\x98\xd9\xb6\xe6\xdb?'
p66
tp67
Rp68
ag50
(g54
S'#\xde\xcaD\xf7\xbd\xe8?'
p69
tp70
Rp71
ag50
(g54
S'4\xba\xa4#\xcdS\xeb?'
p72
tp73
Rp74
ag50
(g54
S'\xcfg\x95\xfe\xc5,\xd2?'
p75
tp76
Rp77
ag50
(g54
S'#\xde\xcaD\xf7\xbd\xe8?'
p78
tp79
Rp80
ag50
(g54
S'\xb6\xd1\xe4\xcch\xcc\xdb?'
p81
tp82
Rp83
ag50
(g54
S'\x0c\xfd\x98\xd9\xb6\xe6\xdb?'
p84
tp85
Rp86
ag50
(g54
S'\xf6\x8a\xf9n\xd4\x02\xd2?'
p87
tp88
Rp89
ag50
(g54
S'\x0c\xfd\x98\xd9\xb6\xe6\xdb?'
p90
tp91
Rp92
ag50
(g54
S'\x8cp\xf8\x1d>\x97\xe5?'
p93
tp94
Rp95
ag50
(g54
S'g\xd0-\xd1~\x80\xe0?'
p96
tp97
Rp98
ag50
(g54
S'\xcfg\x95\xfe\xc5,\xd2?'
p99
tp100
Rp101
ag50
(g54
S'\xb3+6\xca\x9e.\xe6?'
p102
tp103
Rp104
ag50
(g54
S'\xb3+6\xca\x9e.\xe6?'
p105
tp106
Rp107
ag50
(g54
S'B\x85\xfcs\xcd?\xc8?'
p108
tp109
Rp110
ag50
(g54
S'\x0c\xfd\x98\xd9\xb6\xe6\xdb?'
p111
tp112
Rp113
ag50
(g54
S'B\x85\xfcs\xcd?\xc8?'
p114
tp115
Rp116
ag50
(g54
S'\x0c\xfd\x98\xd9\xb6\xe6\xdb?'
p117
tp118
Rp119
ag50
(g54
S'#\xde\xcaD\xf7\xbd\xe8?'
p120
tp121
Rp122
ag50
(g54
S'\xcfg\x95\xfe\xc5,\xd2?'
p123
tp124
Rp125
ag50
(g54
S'B\x85\xfcs\xcd?\xc8?'
p126
tp127
Rp128
ag50
(g54
S'g\xd0-\xd1~\x80\xe0?'
p129
tp130
Rp131
ag50
(g54
S'\xd8M\x04a\xd2\xc7\xe2?'
p132
tp133
Rp134
ag50
(g54
S'\x98\xf5\xcc\xfe\x942\xe2?'
p135
tp136
Rp137
ag50
(g54
S'\xcfg\x95\xfe\xc5,\xd2?'
p138
tp139
Rp140
ag50
(g54
S'\xf6\x8a\xf9n\xd4\x02\xd2?'
p141
tp142
Rp143
ag50
(g54
S'\xd8M\x04a\xd2\xc7\xe2?'
p144
tp145
Rp146
ag50
(g54
S'\x98\xf5\xcc\xfe\x942\xe2?'
p147
tp148
Rp149
ag50
(g54
S'\xcfg\x95\xfe\xc5,\xd2?'
p150
tp151
Rp152
ag50
(g54
S'B\x85\xfcs\xcd?\xc8?'
p153
tp154
Rp155
asS'sp'
p156
(lp157
(S'p0'
p158
I0
S't'
p159
tp160
a(g158
I0
S'x'
p161
tp162
a(g158
I0
S'y'
p163
tp164
a(g158
I0
g161
tp165
a(g158
I0
g161
tp166
a(g158
I0
g159
tp167
ag162
ag166
ag164
ag165
a(S'p1'
p168
I0
g161
tp169
a(g168
I0
g159
tp170
a(g168
I0
g161
tp171
a(g168
I0
g163
tp172
a(g168
I0
g159
tp173
ag173
ag173
a(g168
F1.5707963267948966
g159
tp174
a(g168
F1.5707963267948966
g163
tp175
a(S'p2'
p176
F1.5707963267948966
g163
tp177
a(g176
F1.5707963267948966
g161
tp178
a(g168
F1.5707963267948966
g161
tp179
a(g168
F1.5707963267948966
g163
tp180
ag177
a(g176
F1.5707963267948966
g159
tp181
a(g176
F1.5707963267948966
g159
tp182
a(g176
F1.5707963267948966
g159
tp183
a(g176
F1.5707963267948966
g161
tp184
a(S'p3'
p185
F1.5707963267948966
g161
tp186
a(g185
F1.5707963267948966
g161
tp187
a(g185
F1.5707963267948966
g161
tp188
a(g185
F1.5707963267948966
g163
tp189
a(S'p4'
p190
F1.5707963267948966
g163
tp191
asS's'
p192
(lp193
(g158
I0
g22
tp194
ag160
ag162
ag164
ag165
ag166
ag167
ag162
ag166
ag164
ag165
ag169
ag170
ag171
ag172
ag173
ag173
ag173
ag174
ag175
ag177
ag178
ag179
ag180
ag177
ag181
ag182
ag183
ag184
ag186
ag187
ag188
ag189
asS'ui'
p195
(lp196
S'hp'
p197
ag197
ag197
aS'hs'
p198
ag156
aS'ss'
p199
ag197
ag156
ag197
ag198
ag199
ag197
ag197
ag197
ag197
ag199
ag156
ag156
ag198
ag156
ag198
ag199
ag197
ag156
ag197
ag156
ag199
ag197
ag199
ag156
ag199
ag197
ag197
asS'um_before'
p200
(lp201
g197
ag197
ag197
ag198
ag156
ag198
ag197
ag156
ag197
ag198
ag199
ag198
ag197
ag197
ag197
ag199
ag199
ag156
ag198
ag156
ag198
ag156
ag197
ag156
ag197
ag156
ag199
ag197
ag199
ag156
ag199
ag197
ag156
asS'um_after'
p202
(lp203
g197
ag197
ag197
ag198
ag156
ag198
ag197
ag156
ag197
ag198
ag199
ag198
ag197
ag197
ag197
aNaNag156
ag198
ag156
ag198
ag156
ag197
ag156
ag197
ag156
ag199
ag197
ag199
ag156
ag199
ag197
ag156
asS'is_normalized_entropy_less_than_threshold'
p204
(lp205
g50
(g51
(S'b1'
p206
I0
I1
tp207
Rp208
(I3
S'|'
p209
NNNI-1
I-1
I0
tp210
bS'\x01'
p211
tp212
Rp213
ag213
ag213
ag213
ag213
ag50
(g208
S'\x00'
p214
tp215
Rp216
ag213
ag213
ag213
ag213
ag213
ag213
ag213
ag213
ag213
ag213
ag213
ag213
ag213
ag213
ag213
ag213
ag213
ag213
ag213
ag213
ag213
ag213
ag213
ag213
ag213
ag213
ag213
asaa(lp217
S'index'
p218
aI49480
aatp219
Rp220
.