ccollections
OrderedDict
p0
((lp1
(lp2
S'combination_dict'
p3
ag0
((lp4
(lp5
S'r_to_g_config'
p6
aS'tl'
p7
aa(lp8
S'num_turns'
p9
aI2
aa(lp10
S'start_direction'
p11
acutils_ms
StartDirection
p12
(I1
tp13
Rp14
aa(lp15
S'assistance_type'
p16
acutils_ms
AssistanceType
p17
(I1
tp18
Rp19
aa(lp20
S'start_mode'
p21
aS'x'
p22
aa(lp23
S'ui_given_a_noise'
p24
aF0.7
aa(lp25
S'um_given_ui_noise'
p26
aF0.7
aa(lp27
S'entropy_threshold'
p28
aF0.6
aatp29
Rp30
aa(lp31
S'data'
p32
accollections
defaultdict
p33
(c__builtin__
list
p34
tp35
Rp36
S'a'
p37
(lp38
S'mode_r'
p39
ag39
ag39
aS'mode_l'
p40
ag40
aS'move_p'
p41
ag40
ag39
ag41
ag39
ag40
ag39
ag39
ag39
ag41
ag39
ag39
ag40
ag39
ag39
ag39
ag41
ag40
ag41
ag39
ag39
ag39
ag41
ag41
ag41
ag39
ag40
ag40
ag39
aS'move_n'
p42
ag39
ag39
ag39
ag39
ag41
ag40
ag40
ag40
ag40
ag40
ag39
ag39
ag40
ag41
ag40
ag39
ag42
ag39
ag42
ag39
ag41
asS'assistance_match_with_ground_truth'
p43
(lp44
I00
aI00
aI00
aI00
aI01
aI00
aI00
aI01
aI00
aI00
aI00
aI00
aI00
aI01
aI00
aI00
aI00
aI00
aI00
aI00
aI01
aI00
aI01
aI01
aI00
aI00
aI01
aI00
aI00
aI01
aI00
aI00
aI00
aI01
aI00
aI00
aI00
aI00
aI01
aI00
aI00
aI00
aI00
aI00
aI00
aI00
aI00
aI01
aI01
aI00
aI01
aI00
aI01
aI01
aI01
aI01
asS'is_u_intended_equals_um'
p45
(lp46
I00
aI00
aI00
aI01
aI01
aI01
aI00
aI01
aI01
aI00
aI00
aI00
aI00
aI01
aI01
aI00
aI00
aI00
aI00
aI00
aI01
aI01
aI01
aI01
aI00
aI00
aI01
aI00
aI00
aI01
aI00
aI00
aI00
aI01
aI01
aI00
aI00
aI00
aI01
aI01
aI01
aI00
aI01
aI00
aI00
aI00
aI00
aI01
aI01
aI00
aI01
aI01
aI01
aI01
aI01
aI01
asS'total_steps'
p47
I56
sS'normalized_h_of_p_ui_given_um'
p48
(lp49
cnumpy.core.multiarray
scalar
p50
(cnumpy
dtype
p51
(S'f8'
p52
I0
I1
tp53
Rp54
(I3
S'<'
p55
NNNI-1
I-1
I0
tp56
bS'\xd9\xe2k;2"\xe8?'
p57
tp58
Rp59
ag50
(g54
S'\xd9\xe2k;2"\xe8?'
p60
tp61
Rp62
ag50
(g54
S'&\tO\x0b\xee$\xe6?'
p63
tp64
Rp65
ag50
(g54
S'\xf2\x9a\xeb\x8e9f\xe2?'
p66
tp67
Rp68
ag50
(g54
S'd;gw\xd7\xed\xe5?'
p69
tp70
Rp71
ag50
(g54
S'B\xd5\xe5\xdb\xb6\xb0\xed?'
p72
tp73
Rp74
ag50
(g54
S'u\xe1\xe5\xcf\x02\xf6\xe9?'
p75
tp76
Rp77
ag50
(g54
S'(6B\xb8\xb8:\xe3?'
p78
tp79
Rp80
ag50
(g54
S'l\xa4\x19n\x93\xd5\xee?'
p81
tp82
Rp83
ag50
(g54
S'&\tO\x0b\xee$\xe6?'
p84
tp85
Rp86
ag50
(g54
S'u\xe1\xe5\xcf\x02\xf6\xe9?'
p87
tp88
Rp89
ag50
(g54
S'"\xf4\xe2\xe2\\\xa1\xe4?'
p90
tp91
Rp92
ag50
(g54
S'\xd9\xe2k;2"\xe8?'
p93
tp94
Rp95
ag50
(g54
S'(6B\xb8\xb8:\xe3?'
p96
tp97
Rp98
ag50
(g54
S'l\xa4\x19n\x93\xd5\xee?'
p99
tp100
Rp101
ag50
(g54
S'\xd9\xe2k;2"\xe8?'
p102
tp103
Rp104
ag50
(g54
S'&\tO\x0b\xee$\xe6?'
p105
tp106
Rp107
ag50
(g54
S'u\xe1\xe5\xcf\x02\xf6\xe9?'
p108
tp109
Rp110
ag50
(g54
S'\xd9\xe2k;2"\xe8?'
p111
tp112
Rp113
ag50
(g54
S'"\xf4\xe2\xe2\\\xa1\xe4?'
p114
tp115
Rp116
ag50
(g54
S'(6B\xb8\xb8:\xe3?'
p117
tp118
Rp119
ag50
(g54
S'B\xd5\xe5\xdb\xb6\xb0\xed?'
p120
tp121
Rp122
ag50
(g54
S'd;gw\xd7\xed\xe5?'
p123
tp124
Rp125
ag50
(g54
S'\xb9\x838Y\xc4\x90\xd8?'
p126
tp127
Rp128
ag50
(g54
S'\xd9\xe2k;2"\xe8?'
p129
tp130
Rp131
ag50
(g54
S'\xd9\xe2k;2"\xe8?'
p132
tp133
Rp134
ag50
(g54
S'(6B\xb8\xb8:\xe3?'
p135
tp136
Rp137
ag50
(g54
S'.\xa2\x9f+GG\xee?'
p138
tp139
Rp140
ag50
(g54
S'.\xa2\x9f+GG\xee?'
p141
tp142
Rp143
ag50
(g54
S'\xb9\x838Y\xc4\x90\xd8?'
p144
tp145
Rp146
ag50
(g54
S'&\tO\x0b\xee$\xe6?'
p147
tp148
Rp149
ag50
(g54
S'N/\xcb9\xa3Q\xee?'
p150
tp151
Rp152
ag50
(g54
S'u\xe1\xe5\xcf\x02\xf6\xe9?'
p153
tp154
Rp155
ag50
(g54
S'(6B\xb8\xb8:\xe3?'
p156
tp157
Rp158
ag50
(g54
S'R\x8e9^Q2\xe2?'
p159
tp160
Rp161
ag50
(g54
S'\xd9\xe2k;2"\xe8?'
p162
tp163
Rp164
ag50
(g54
S'"\xf4\xe2\xe2\\\xa1\xe4?'
p165
tp166
Rp167
ag50
(g54
S'\xd9\xe2k;2"\xe8?'
p168
tp169
Rp170
ag50
(g54
S'(6B\xb8\xb8:\xe3?'
p171
tp172
Rp173
ag50
(g54
S'B\xd5\xe5\xdb\xb6\xb0\xed?'
p174
tp175
Rp176
ag50
(g54
S'\xf2\x9a\xeb\x8e9f\xe2?'
p177
tp178
Rp179
ag50
(g54
S'N/\xcb9\xa3Q\xee?'
p180
tp181
Rp182
ag50
(g54
S'\xf2\x9a\xeb\x8e9f\xe2?'
p183
tp184
Rp185
ag50
(g54
S'N/\xcb9\xa3Q\xee?'
p186
tp187
Rp188
ag50
(g54
S'u\xe1\xe5\xcf\x02\xf6\xe9?'
p189
tp190
Rp191
ag50
(g54
S'\xd9\xe2k;2"\xe8?'
p192
tp193
Rp194
ag50
(g54
S'&\tO\x0b\xee$\xe6?'
p195
tp196
Rp197
ag50
(g54
S'd;gw\xd7\xed\xe5?'
p198
tp199
Rp200
ag50
(g54
S'\xb9\x838Y\xc4\x90\xd8?'
p201
tp202
Rp203
ag50
(g54
S'u\xe1\xe5\xcf\x02\xf6\xe9?'
p204
tp205
Rp206
ag50
(g54
S'(6B\xb8\xb8:\xe3?'
p207
tp208
Rp209
ag50
(g54
S'\xea8\xa4\xbe\x8d\x0e\xec?'
p210
tp211
Rp212
ag50
(g54
S'(6B\xb8\xb8:\xe3?'
p213
tp214
Rp215
ag50
(g54
S'g\xcc\x96\xebk\x84\xec?'
p216
tp217
Rp218
ag50
(g54
S'(6B\xb8\xb8:\xe3?'
p219
tp220
Rp221
ag50
(g54
S'\xb9\x838Y\xc4\x90\xd8?'
p222
tp223
Rp224
asS'sp'
p225
(lp226
(S'p0'
p227
I0
S'x'
p228
tp229
ag229
a(g227
I0
S't'
p230
tp231
a(g227
I0
g230
tp232
a(g227
I0
S'y'
p233
tp234
a(g227
I0
g230
tp235
a(g227
I0
g228
tp236
a(g227
I0
g233
tp237
a(g227
I0
g228
tp238
ag231
ag236
a(g227
I0
g228
tp239
ag229
ag237
ag238
ag229
ag231
ag236
ag229
ag239
ag237
ag235
ag234
a(S'p1'
p240
I0
g233
tp241
a(g240
I0
g233
tp242
ag242
a(g240
I0
g230
tp243
a(g240
I0
g230
tp244
ag244
a(g240
F1.5707963267948966
g230
tp245
a(g240
F1.5707963267948966
g233
tp246
a(g240
F1.5707963267948966
g233
tp247
a(g240
F1.5707963267948966
g230
tp248
a(g240
F1.5707963267948966
g228
tp249
a(g227
F1.5707963267948966
g228
tp250
a(g227
F1.5707963267948966
g228
tp251
a(g227
F1.5707963267948966
g228
tp252
ag251
a(g227
F1.5707963267948966
g233
tp253
a(g227
F1.5707963267948966
g230
tp254
a(g227
F1.5707963267948966
g230
tp255
a(g227
F1.5707963267948966
g230
tp256
ag255
ag256
a(g227
F1.5707963267948966
g228
tp257
ag251
a(g227
F1.5707963267948966
g230
tp258
a(g227
F1.5707963267948966
g233
tp259
a(g240
F1.5707963267948966
g233
tp260
ag248
ag249
a(g240
F1.5707963267948966
g230
tp261
ag249
a(S'p2'
p262
F1.5707963267948966
g228
tp263
a(g262
F1.5707963267948966
g233
tp264
a(S'p3'
p265
F1.5707963267948966
g233
tp266
asS's'
p267
(lp268
(g227
I0
g22
tp269
ag229
ag229
ag231
ag232
ag234
ag235
ag236
ag237
ag238
ag231
ag236
ag239
ag229
ag237
ag238
ag229
ag231
ag236
ag229
ag239
ag237
ag235
ag234
ag241
ag242
ag242
ag243
ag244
ag244
ag245
ag246
ag247
ag248
ag249
ag250
ag251
ag252
ag251
ag253
ag254
ag255
ag256
ag255
ag256
ag257
ag251
ag258
ag259
ag260
ag248
ag249
ag261
ag249
ag263
ag264
asS'ui'
p270
(lp271
S'hp'
p272
ag272
ag272
aS'ss'
p273
aS'hs'
p274
ag272
ag274
ag273
ag272
ag273
ag274
ag225
ag272
ag272
ag272
ag274
ag272
ag274
ag272
ag274
ag272
ag272
ag272
ag225
ag273
ag272
ag272
ag225
ag273
ag225
ag274
ag225
ag274
ag274
ag225
ag225
ag274
ag273
ag272
ag225
ag225
ag225
ag225
ag272
ag272
ag272
ag274
ag274
ag225
ag274
ag272
ag274
ag272
ag225
ag274
ag273
asS'um_before'
p275
(lp276
g273
ag273
ag274
ag225
ag274
ag272
ag272
ag272
ag274
ag274
ag272
ag225
ag273
ag272
ag274
ag273
ag274
ag272
ag273
ag225
ag272
ag272
ag274
ag225
ag273
ag273
ag272
ag273
ag273
ag225
ag274
ag273
ag272
ag272
ag225
ag273
ag225
ag273
ag272
ag272
ag225
ag273
ag225
ag273
ag272
ag273
ag274
ag274
ag225
ag272
ag272
ag274
ag272
ag273
ag272
ag225
asS'um_after'
p277
(lp278
g273
ag273
ag274
ag225
ag274
ag272
ag272
ag272
ag274
ag274
ag272
ag225
ag273
ag272
ag274
ag273
ag274
ag272
ag273
ag225
ag272
ag272
ag274
ag225
ag273
ag273
ag272
ag273
ag273
ag225
ag274
ag273
ag272
ag272
ag225
ag273
ag225
ag273
ag272
ag272
ag225
ag273
ag225
ag273
ag272
ag273
ag274
ag274
ag225
ag272
ag272
ag274
ag272
ag273
ag272
ag225
asS'is_normalized_entropy_less_than_threshold'
p279
(lp280
g50
(g51
(S'b1'
p281
I0
I1
tp282
Rp283
(I3
S'|'
p284
NNNI-1
I-1
I0
tp285
bS'\x00'
p286
tp287
Rp288
ag288
ag288
ag50
(g283
S'\x01'
p289
tp290
Rp291
ag288
ag288
ag288
ag288
ag288
ag288
ag288
ag288
ag288
ag288
ag288
ag288
ag288
ag288
ag288
ag288
ag288
ag288
ag288
ag291
ag288
ag288
ag288
ag288
ag288
ag291
ag288
ag288
ag288
ag288
ag291
ag288
ag288
ag288
ag288
ag288
ag291
ag288
ag291
ag288
ag288
ag288
ag288
ag288
ag291
ag288
ag288
ag288
ag288
ag288
ag288
ag291
asaa(lp292
S'index'
p293
aI45566
aatp294
Rp295
.