ccollections
OrderedDict
p0
((lp1
(lp2
S'combination_dict'
p3
ag0
((lp4
(lp5
S'r_to_g_config'
p6
aS'tr'
p7
aa(lp8
S'num_turns'
p9
aI2
aa(lp10
S'start_direction'
p11
acutils_ms
StartDirection
p12
(I1
tp13
Rp14
aa(lp15
S'assistance_type'
p16
acutils_ms
AssistanceType
p17
(I1
tp18
Rp19
aa(lp20
S'start_mode'
p21
aS'x'
p22
aa(lp23
S'ui_given_a_noise'
p24
aF0.5
aa(lp25
S'um_given_ui_noise'
p26
aF0.7
aa(lp27
S'entropy_threshold'
p28
aF0.5
aatp29
Rp30
aa(lp31
S'data'
p32
accollections
defaultdict
p33
(c__builtin__
list
p34
tp35
Rp36
S'a'
p37
(lp38
S'mode_r'
p39
aS'move_p'
p40
aS'mode_l'
p41
ag39
ag39
ag39
ag40
ag40
ag41
ag39
ag39
ag39
ag39
ag39
ag40
ag41
ag39
ag40
ag39
ag39
ag40
ag41
ag39
ag39
ag40
ag41
ag41
ag41
ag39
ag41
ag41
ag39
asS'assistance_match_with_ground_truth'
p42
(lp43
I01
aI00
aI00
aI00
aI00
aI01
aI00
aI00
aI00
aI00
aI00
aI00
aI00
aI01
aI01
aI00
aI01
aI00
aI00
aI01
aI01
aI00
aI00
aI01
aI01
aI00
aI00
aI00
aI00
aI00
aI00
aI00
asS'is_u_intended_equals_um'
p44
(lp45
I01
aI00
aI00
aI00
aI00
aI01
aI01
aI00
aI00
aI01
aI00
aI01
aI01
aI01
aI01
aI00
aI01
aI01
aI01
aI01
aI01
aI00
aI01
aI01
aI01
aI00
aI00
aI00
aI01
aI00
aI00
aI00
asS'total_steps'
p46
I32
sS'normalized_h_of_p_ui_given_um'
p47
(lp48
cnumpy.core.multiarray
scalar
p49
(cnumpy
dtype
p50
(S'f8'
p51
I0
I1
tp52
Rp53
(I3
S'<'
p54
NNNI-1
I-1
I0
tp55
bS'\xccj\x9bT\xc3\xf4\xe0?'
p56
tp57
Rp58
ag49
(g53
S'V#\x9a-\x01(\xe7?'
p59
tp60
Rp61
ag49
(g53
S'k\xed\xc0\xaa\xe5\xb1\xe1?'
p62
tp63
Rp64
ag49
(g53
S'*\xbfN\x98\xb8\xb4\xe7?'
p65
tp66
Rp67
ag49
(g53
S'*\xbfN\x98\xb8\xb4\xe7?'
p68
tp69
Rp70
ag49
(g53
S'\xccj\x9bT\xc3\xf4\xe0?'
p71
tp72
Rp73
ag49
(g53
S'Do d\xb4\x94\xe6?'
p74
tp75
Rp76
ag49
(g53
S'V#\x9a-\x01(\xe7?'
p77
tp78
Rp79
ag49
(g53
S'k\xed\xc0\xaa\xe5\xb1\xe1?'
p80
tp81
Rp82
ag49
(g53
S'6\x81\x96\x9c\x10\x87\xe6?'
p83
tp84
Rp85
ag49
(g53
S'*\xbfN\x98\xb8\xb4\xe7?'
p86
tp87
Rp88
ag49
(g53
S'6\x81\x96\x9c\x10\x87\xe6?'
p89
tp90
Rp91
ag49
(g53
S'6\x81\x96\x9c\x10\x87\xe6?'
p92
tp93
Rp94
ag49
(g53
S'\xccj\x9bT\xc3\xf4\xe0?'
p95
tp96
Rp97
ag49
(g53
S'\xc5\xef\xe0\x9fEI\xd9?'
p98
tp99
Rp100
ag49
(g53
S'k\xed\xc0\xaa\xe5\xb1\xe1?'
p101
tp102
Rp103
ag49
(g53
S'\xccj\x9bT\xc3\xf4\xe0?'
p104
tp105
Rp106
ag49
(g53
S'Do d\xb4\x94\xe6?'
p107
tp108
Rp109
ag49
(g53
S'6\x81\x96\x9c\x10\x87\xe6?'
p110
tp111
Rp112
ag49
(g53
S'\xccj\x9bT\xc3\xf4\xe0?'
p113
tp114
Rp115
ag49
(g53
S'\xc5\xef\xe0\x9fEI\xd9?'
p116
tp117
Rp118
ag49
(g53
S'k\xed\xc0\xaa\xe5\xb1\xe1?'
p119
tp120
Rp121
ag49
(g53
S'6\x81\x96\x9c\x10\x87\xe6?'
p122
tp123
Rp124
ag49
(g53
S'\xccj\x9bT\xc3\xf4\xe0?'
p125
tp126
Rp127
ag49
(g53
S'\xc5\xef\xe0\x9fEI\xd9?'
p128
tp129
Rp130
ag49
(g53
S"O\x91\x00\xe9\x85'\xe6?"
p131
tp132
Rp133
ag49
(g53
S'\xd3\xfc\x82r&>\xe8?'
p134
tp135
Rp136
ag49
(g53
S'k\xed\xc0\xaa\xe5\xb1\xe1?'
p137
tp138
Rp139
ag49
(g53
S'Zy\x84\x15\x19/\xe8?'
p140
tp141
Rp142
ag49
(g53
S"O\x91\x00\xe9\x85'\xe6?"
p143
tp144
Rp145
ag49
(g53
S'k\xed\xc0\xaa\xe5\xb1\xe1?'
p146
tp147
Rp148
ag49
(g53
S'*\xbfN\x98\xb8\xb4\xe7?'
p149
tp150
Rp151
asS'sp'
p152
(lp153
(S'p0'
p154
I0
S'y'
p155
tp156
a(g154
I0
S't'
p157
tp158
a(g154
I0
S'x'
p159
tp160
a(g154
I0
g159
tp161
ag161
ag156
a(g154
I0
g155
tp162
ag158
ag160
a(g154
I0
g159
tp163
ag161
ag163
ag163
ag156
a(S'p1'
p164
I0
g155
tp165
a(g164
I0
g157
tp166
a(g164
I0
g159
tp167
a(g154
I0
g159
tp168
ag163
ag156
ag165
ag166
a(g164
I0
g157
tp169
ag167
a(S'p2'
p170
I0
g159
tp171
a(g170
I0
g159
tp172
a(g170
I0
g159
tp173
a(g170
I0
g155
tp174
a(g170
I0
g159
tp175
ag172
ag174
a(S'p3'
p176
I0
g155
tp177
asS's'
p178
(lp179
(g154
I0
g22
tp180
ag156
ag158
ag160
ag161
ag161
ag156
ag162
ag158
ag160
ag163
ag161
ag163
ag163
ag156
ag165
ag166
ag167
ag168
ag163
ag156
ag165
ag166
ag169
ag167
ag171
ag172
ag173
ag174
ag175
ag172
ag174
asS'ui'
p181
(lp182
S'hp'
p183
ag152
aS'hs'
p184
ag152
ag183
ag183
ag152
ag152
ag184
aS'ss'
p185
ag183
ag185
ag183
ag183
ag152
ag184
ag152
ag152
ag183
ag183
ag152
ag184
ag185
ag183
ag152
ag184
ag152
ag184
ag184
ag184
ag183
ag183
asS'um_before'
p186
(lp187
g183
ag183
ag183
ag152
ag152
ag183
ag185
ag183
ag183
ag185
ag152
ag185
ag185
ag183
ag152
ag183
ag183
ag185
ag185
ag183
ag152
ag183
ag185
ag183
ag152
ag185
ag152
ag183
ag184
ag185
ag183
ag152
asS'um_after'
p188
(lp189
g183
ag183
ag183
ag152
ag152
ag183
ag185
ag183
ag183
ag185
ag152
ag185
ag185
ag183
ag152
ag183
ag183
ag185
ag185
ag183
ag152
ag183
ag185
ag183
ag152
ag185
ag152
ag183
ag184
ag185
ag183
ag152
asS'is_normalized_entropy_less_than_threshold'
p190
(lp191
g49
(g50
(S'b1'
p192
I0
I1
tp193
Rp194
(I3
S'|'
p195
NNNI-1
I-1
I0
tp196
bS'\x00'
p197
tp198
Rp199
ag199
ag199
ag199
ag199
ag199
ag199
ag199
ag199
ag199
ag199
ag199
ag199
ag199
ag49
(g194
S'\x01'
p200
tp201
Rp202
ag199
ag199
ag199
ag199
ag199
ag202
ag199
ag199
ag199
ag202
ag199
ag199
ag199
ag199
ag199
ag199
ag199
asaa(lp203
S'index'
p204
aI16557
aatp205
Rp206
.