ccollections
OrderedDict
p0
((lp1
(lp2
S'combination_dict'
p3
ag0
((lp4
(lp5
S'r_to_g_config'
p6
aS'bl'
p7
aa(lp8
S'num_turns'
p9
aI2
aa(lp10
S'start_direction'
p11
acutils_ms
StartDirection
p12
(I1
tp13
Rp14
aa(lp15
S'assistance_type'
p16
acutils_ms
AssistanceType
p17
(I0
tp18
Rp19
aa(lp20
S'start_mode'
p21
aS't'
p22
aa(lp23
S'ui_given_a_noise'
p24
aF0.5
aa(lp25
S'um_given_ui_noise'
p26
aF0.5
aa(lp27
S'entropy_threshold'
p28
aF0.7
aatp29
Rp30
aa(lp31
S'data'
p32
accollections
defaultdict
p33
(c__builtin__
list
p34
tp35
Rp36
S'a'
p37
(lp38
S'mode_l'
p39
ag39
aS'move_n'
p40
aS'mode_r'
p41
ag40
ag41
ag41
ag39
ag39
ag41
ag41
ag39
ag40
ag40
ag40
ag41
ag39
ag39
ag40
ag41
ag39
ag41
ag41
ag40
ag40
ag41
ag39
ag40
ag40
ag41
ag41
aS'move_p'
p42
ag42
ag41
ag41
ag40
ag39
ag40
ag41
ag40
asS'assistance_match_with_ground_truth'
p43
(lp44
I00
aI01
aI00
aI01
aI01
aI00
aI00
aI00
aI00
aI00
aI00
aI01
aI00
aI00
aI00
aI00
aI00
aI01
aI01
aI00
aI00
aI00
aI01
aI00
aI00
aI00
aI01
aI00
aI01
aI00
aI01
aI00
aI01
aI00
aI01
aI00
aI01
aI01
aI01
aI01
asS'is_u_intended_equals_um'
p45
(lp46
I01
aI01
aI00
aI01
aI01
aI00
aI00
aI00
aI01
aI00
aI00
aI01
aI01
aI01
aI00
aI00
aI01
aI01
aI01
aI00
aI01
aI00
aI01
aI01
aI00
aI00
aI01
aI01
aI01
aI00
aI01
aI00
aI01
aI01
aI01
aI00
aI01
aI01
aI01
aI01
asS'total_steps'
p47
I40
sS'normalized_h_of_p_ui_given_um'
p48
(lp49
cnumpy.core.multiarray
scalar
p50
(cnumpy
dtype
p51
(S'f8'
p52
I0
I1
tp53
Rp54
(I3
S'<'
p55
NNNI-1
I-1
I0
tp56
bS'\xe7\xfd\x95\xbcf\xed\xe6?'
p57
tp58
Rp59
ag50
(g54
S'\xf8\x0f\xc4\x98\xc8\x18\xe8?'
p60
tp61
Rp62
ag50
(g54
S'L\x97\x17^_\xbc\xea?'
p63
tp64
Rp65
ag50
(g54
S'o\xc1vq\x86\xa9\xc7?'
p66
tp67
Rp68
ag50
(g54
S'%\xd1\xc1\x83\x9e\xb5\xd7?'
p69
tp70
Rp71
ag50
(g54
S"\xf4\xf0+'\xc0\x18\xec?"
p72
tp73
Rp74
ag50
(g54
S't\xa7m\xf0\xe7\xc0\xe6?'
p75
tp76
Rp77
ag50
(g54
S'\xa8\xd89\xbd<1\xe3?'
p78
tp79
Rp80
ag50
(g54
S'\xe7\xfd\x95\xbcf\xed\xe6?'
p81
tp82
Rp83
ag50
(g54
S"\xf4\xf0+'\xc0\x18\xec?"
p84
tp85
Rp86
ag50
(g54
S't\xa7m\xf0\xe7\xc0\xe6?'
p87
tp88
Rp89
ag50
(g54
S'\xf8\x0f\xc4\x98\xc8\x18\xe8?'
p90
tp91
Rp92
ag50
(g54
S'\n\x05\xb0b\xec\x86\xe4?'
p93
tp94
Rp95
ag50
(g54
S'\n\x05\xb0b\xec\x86\xe4?'
p96
tp97
Rp98
ag50
(g54
S'L\x97\x17^_\xbc\xea?'
p99
tp100
Rp101
ag50
(g54
S't\xa7m\xf0\xe7\xc0\xe6?'
p102
tp103
Rp104
ag50
(g54
S'\x86Y\xe7\xf5\xcf\xb3\xe7?'
p105
tp106
Rp107
ag50
(g54
S'\xf8\x0f\xc4\x98\xc8\x18\xe8?'
p108
tp109
Rp110
ag50
(g54
S'%\xd1\xc1\x83\x9e\xb5\xd7?'
p111
tp112
Rp113
ag50
(g54
S't\xa7m\xf0\xe7\xc0\xe6?'
p114
tp115
Rp116
ag50
(g54
S'\xe7\xfd\x95\xbcf\xed\xe6?'
p117
tp118
Rp119
ag50
(g54
S"\xf4\xf0+'\xc0\x18\xec?"
p120
tp121
Rp122
ag50
(g54
S'o\xc1vq\x86\xa9\xc7?'
p123
tp124
Rp125
ag50
(g54
S'\n\x05\xb0b\xec\x86\xe4?'
p126
tp127
Rp128
ag50
(g54
S'L\x97\x17^_\xbc\xea?'
p129
tp130
Rp131
ag50
(g54
S't\xa7m\xf0\xe7\xc0\xe6?'
p132
tp133
Rp134
ag50
(g54
S'\xf8\x0f\xc4\x98\xc8\x18\xe8?'
p135
tp136
Rp137
ag50
(g54
S'\n\x05\xb0b\xec\x86\xe4?'
p138
tp139
Rp140
ag50
(g54
S'%\xd1\xc1\x83\x9e\xb5\xd7?'
p141
tp142
Rp143
ag50
(g54
S"\xf4\xf0+'\xc0\x18\xec?"
p144
tp145
Rp146
ag50
(g54
S'o\xc1vq\x86\xa9\xc7?'
p147
tp148
Rp149
ag50
(g54
S'G\xebE\x17\x8fu\xec?'
p150
tp151
Rp152
ag50
(g54
S'\x1c\x81\x009_\x16\xc7?'
p153
tp154
Rp155
ag50
(g54
S'\x9c\xf17\x9e\xadj\xe0?'
p156
tp157
Rp158
ag50
(g54
S'o\xc1vq\x86\xa9\xc7?'
p159
tp160
Rp161
ag50
(g54
S"\xceC\xfb\x11'\x85\xe8?"
p162
tp163
Rp164
ag50
(g54
S'\xf8\x0f\xc4\x98\xc8\x18\xe8?'
p165
tp166
Rp167
ag50
(g54
S'%\xd1\xc1\x83\x9e\xb5\xd7?'
p168
tp169
Rp170
ag50
(g54
S'o\xc1vq\x86\xa9\xc7?'
p171
tp172
Rp173
ag50
(g54
S'%\xd1\xc1\x83\x9e\xb5\xd7?'
p174
tp175
Rp176
asS'sp'
p177
(lp178
(S'p0'
p179
I0
S't'
p180
tp181
a(g179
I0
S'y'
p182
tp183
a(g179
I0
S'x'
p184
tp185
a(g179
I0
g182
tp186
a(S'p1'
p187
I0
g182
tp188
a(g187
I0
g182
tp189
a(g187
I0
g184
tp190
ag190
a(g179
I0
g184
tp191
a(g179
I0
g184
tp192
a(g179
I0
g180
tp193
ag183
a(g179
I0
g182
tp194
ag194
ag185
ag193
a(g179
I0
g180
tp195
ag183
ag188
ag190
ag191
ag192
ag186
ag194
ag185
ag193
ag183
ag194
ag188
ag189
a(g187
I0
g180
tp196
a(g187
I0
g180
tp197
a(g187
F1.5707963267948966
g180
tp198
a(g187
F1.5707963267948966
g180
tp199
a(g187
F1.5707963267948966
g184
tp200
a(g187
F1.5707963267948966
g182
tp201
a(g187
F1.5707963267948966
g184
tp202
a(S'p2'
p203
F1.5707963267948966
g184
tp204
a(g203
F1.5707963267948966
g182
tp205
a(S'p3'
p206
F1.5707963267948966
g182
tp207
asS's'
p208
(lp209
(g179
I0
g22
tp210
ag181
ag183
ag185
ag186
ag188
ag189
ag190
ag190
ag191
ag192
ag193
ag183
ag194
ag194
ag185
ag193
ag195
ag183
ag188
ag190
ag191
ag192
ag186
ag194
ag185
ag193
ag183
ag194
ag188
ag189
ag196
ag197
ag198
ag199
ag200
ag201
ag202
ag204
ag205
asS'ui'
p211
(lp212
S'hs'
p213
aS'hp'
p214
aS'ss'
p215
ag214
ag215
ag177
ag177
ag213
ag213
ag214
ag214
ag213
ag177
ag215
ag215
ag213
ag214
ag213
ag215
ag214
ag213
ag214
ag214
ag177
ag213
ag177
ag214
ag177
ag215
ag177
ag214
ag177
ag177
ag177
ag214
ag213
ag213
ag215
ag214
ag215
asS'um_before'
p216
(lp217
g177
ag213
ag213
ag214
ag215
ag215
ag213
ag214
ag177
ag215
ag213
ag213
ag177
ag177
ag213
ag213
ag215
ag213
ag215
ag213
ag177
ag215
ag214
ag177
ag213
ag213
ag213
ag177
ag215
ag215
ag214
ag215
ag177
ag177
ag214
ag214
ag213
ag215
ag214
ag215
asS'um_after'
p218
(lp219
g177
ag213
ag213
ag214
ag215
ag215
ag213
aNag177
ag215
ag213
ag213
ag177
ag177
ag213
ag213
ag215
ag213
ag215
ag213
ag177
ag215
ag214
ag177
ag213
ag213
ag213
ag177
ag215
ag215
ag214
ag215
ag177
ag177
ag214
ag214
ag213
ag215
ag214
ag215
asS'is_normalized_entropy_less_than_threshold'
p220
(lp221
g50
(g51
(S'b1'
p222
I0
I1
tp223
Rp224
(I3
S'|'
p225
NNNI-1
I-1
I0
tp226
bS'\x00'
p227
tp228
Rp229
ag229
ag229
ag50
(g224
S'\x01'
p230
tp231
Rp232
ag232
ag229
ag229
ag232
ag229
ag229
ag229
ag229
ag232
ag232
ag229
ag229
ag229
ag229
ag232
ag229
ag229
ag229
ag232
ag232
ag229
ag229
ag229
ag232
ag232
ag229
ag232
ag229
ag232
ag232
ag232
ag229
ag229
ag232
ag232
ag232
asaa(lp233
S'index'
p234
aI73321
aatp235
Rp236
.