ccollections
OrderedDict
p0
((lp1
(lp2
S'combination_dict'
p3
ag0
((lp4
(lp5
S'r_to_g_config'
p6
aS'br'
p7
aa(lp8
S'num_turns'
p9
aI3
aa(lp10
S'start_direction'
p11
acutils_ms
StartDirection
p12
(I1
tp13
Rp14
aa(lp15
S'assistance_type'
p16
acutils_ms
AssistanceType
p17
(I1
tp18
Rp19
aa(lp20
S'start_mode'
p21
aS't'
p22
aa(lp23
S'ui_given_a_noise'
p24
aF0.7
aa(lp25
S'um_given_ui_noise'
p26
aF0.7
aa(lp27
S'entropy_threshold'
p28
aF0.5
aatp29
Rp30
aa(lp31
S'data'
p32
accollections
defaultdict
p33
(c__builtin__
list
p34
tp35
Rp36
S'a'
p37
(lp38
S'mode_l'
p39
aS'move_n'
p40
ag39
ag40
aS'mode_r'
p41
ag41
ag40
ag39
ag39
ag41
ag41
ag41
ag41
aS'move_p'
p42
ag41
ag41
ag40
ag39
ag40
ag40
ag41
ag41
ag41
ag40
ag39
ag39
ag39
ag41
ag41
ag41
ag42
ag41
ag39
ag39
ag42
ag41
ag42
ag41
ag41
ag40
ag41
ag40
ag41
ag41
ag41
ag41
ag41
ag42
ag41
ag41
ag41
ag42
ag41
ag39
ag39
ag39
ag39
ag39
ag42
ag39
ag39
ag39
ag39
ag42
asS'assistance_match_with_ground_truth'
p43
(lp44
I01
aI00
aI01
aI00
aI00
aI01
aI01
aI00
aI00
aI00
aI00
aI00
aI01
aI00
aI00
aI01
aI00
aI01
aI00
aI00
aI00
aI00
aI01
aI01
aI00
aI00
aI00
aI00
aI00
aI01
aI00
aI00
aI00
aI01
aI00
aI01
aI01
aI00
aI01
aI00
aI01
aI01
aI00
aI00
aI00
aI00
aI01
aI00
aI00
aI00
aI01
aI01
aI00
aI00
aI00
aI00
aI00
aI01
aI00
aI00
aI00
aI00
aI01
aI01
asS'is_u_intended_equals_um'
p45
(lp46
I01
aI00
aI01
aI00
aI00
aI01
aI01
aI01
aI00
aI00
aI00
aI00
aI01
aI00
aI00
aI01
aI00
aI01
aI01
aI00
aI00
aI00
aI01
aI01
aI01
aI01
aI00
aI00
aI00
aI01
aI01
aI00
aI01
aI01
aI01
aI01
aI01
aI00
aI01
aI00
aI01
aI01
aI00
aI00
aI00
aI00
aI01
aI01
aI00
aI00
aI01
aI01
aI00
aI01
aI01
aI01
aI01
aI01
aI00
aI01
aI01
aI01
aI01
aI01
asS'total_steps'
p47
I64
sS'normalized_h_of_p_ui_given_um'
p48
(lp49
cnumpy.core.multiarray
scalar
p50
(cnumpy
dtype
p51
(S'f8'
p52
I0
I1
tp53
Rp54
(I3
S'<'
p55
NNNI-1
I-1
I0
tp56
bS'\x99\x1aJ\xff\xf8.\xe8?'
p57
tp58
Rp59
ag50
(g54
S'J\xc2r.C\xf9\xe9?'
p60
tp61
Rp62
ag50
(g54
S'\x99\x1aJ\xff\xf8.\xe8?'
p63
tp64
Rp65
ag50
(g54
S'\xed\x90B|\x97\xd7\xe8?'
p66
tp67
Rp68
ag50
(g54
S'6\x806N\xf4A\xe5?'
p69
tp70
Rp71
ag50
(g54
S'\x166\xb9\x01\xb8\x8d\xe4?'
p72
tp73
Rp74
ag50
(g54
S'\xfc\xec\xed\xdd\xd3\x94\xe0?'
p75
tp76
Rp77
ag50
(g54
S'\x07\x9dv\x9f\x8f\xdd\xe8?'
p78
tp79
Rp80
ag50
(g54
S'E1\x04sQV\xef?'
p81
tp82
Rp83
ag50
(g54
S'6\x806N\xf4A\xe5?'
p84
tp85
Rp86
ag50
(g54
S'6\x806N\xf4A\xe5?'
p87
tp88
Rp89
ag50
(g54
S'6\x806N\xf4A\xe5?'
p90
tp91
Rp92
ag50
(g54
S'\x166\xb9\x01\xb8\x8d\xe4?'
p93
tp94
Rp95
ag50
(g54
S'N0e\xe8\xd9\xf8\xe5?'
p96
tp97
Rp98
ag50
(g54
S'6\x806N\xf4A\xe5?'
p99
tp100
Rp101
ag50
(g54
S'\x166\xb9\x01\xb8\x8d\xe4?'
p102
tp103
Rp104
ag50
(g54
S'J\xc2r.C\xf9\xe9?'
p105
tp106
Rp107
ag50
(g54
S'\x99\x1aJ\xff\xf8.\xe8?'
p108
tp109
Rp110
ag50
(g54
S'A\x19s\xb1\xb8\x8e\xe4?'
p111
tp112
Rp113
ag50
(g54
S'\xed\x90B|\x97\xd7\xe8?'
p114
tp115
Rp116
ag50
(g54
S'6\x806N\xf4A\xe5?'
p117
tp118
Rp119
ag50
(g54
S'\xe8<G\xc8\xdd\xec\xef?'
p120
tp121
Rp122
ag50
(g54
S'\x166\xb9\x01\xb8\x8d\xe4?'
p123
tp124
Rp125
ag50
(g54
S'\xfc\xec\xed\xdd\xd3\x94\xe0?'
p126
tp127
Rp128
ag50
(g54
S'\xaf\x86\x11\x1eO4\xe9?'
p129
tp130
Rp131
ag50
(g54
S'\xaf\x86\x11\x1eO4\xe9?'
p132
tp133
Rp134
ag50
(g54
S'E1\x04sQV\xef?'
p135
tp136
Rp137
ag50
(g54
S'6\x806N\xf4A\xe5?'
p138
tp139
Rp140
ag50
(g54
S'6\x806N\xf4A\xe5?'
p141
tp142
Rp143
ag50
(g54
S'\x166\xb9\x01\xb8\x8d\xe4?'
p144
tp145
Rp146
ag50
(g54
S'C6\xdf\x10\xd4U\xe4?'
p147
tp148
Rp149
ag50
(g54
S'\xd8\x18)r\x009\xee?'
p150
tp151
Rp152
ag50
(g54
S'\xaf\x86\x11\x1eO4\xe9?'
p153
tp154
Rp155
ag50
(g54
S'\x99\x1aJ\xff\xf8.\xe8?'
p156
tp157
Rp158
ag50
(g54
S'C6\xdf\x10\xd4U\xe4?'
p159
tp160
Rp161
ag50
(g54
S'\x166\xb9\x01\xb8\x8d\xe4?'
p162
tp163
Rp164
ag50
(g54
S'\x0e\xb4D.\xe6.\xdd?'
p165
tp166
Rp167
ag50
(g54
S'\xe8<G\xc8\xdd\xec\xef?'
p168
tp169
Rp170
ag50
(g54
S'\x166\xb9\x01\xb8\x8d\xe4?'
p171
tp172
Rp173
ag50
(g54
S'\xed\x90B|\x97\xd7\xe8?'
p174
tp175
Rp176
ag50
(g54
S'\x166\xb9\x01\xb8\x8d\xe4?'
p177
tp178
Rp179
ag50
(g54
S'\xfc\xec\xed\xdd\xd3\x94\xe0?'
p180
tp181
Rp182
ag50
(g54
S'\xe8<G\xc8\xdd\xec\xef?'
p183
tp184
Rp185
ag50
(g54
S'6\x806N\xf4A\xe5?'
p186
tp187
Rp188
ag50
(g54
S'6\x806N\xf4A\xe5?'
p189
tp190
Rp191
ag50
(g54
S'\xe8<G\xc8\xdd\xec\xef?'
p192
tp193
Rp194
ag50
(g54
S'\x166\xb9\x01\xb8\x8d\xe4?'
p195
tp196
Rp197
ag50
(g54
S'C6\xdf\x10\xd4U\xe4?'
p198
tp199
Rp200
ag50
(g54
S'6\x806N\xf4A\xe5?'
p201
tp202
Rp203
ag50
(g54
S'\xe8<G\xc8\xdd\xec\xef?'
p204
tp205
Rp206
ag50
(g54
S'\x166\xb9\x01\xb8\x8d\xe4?'
p207
tp208
Rp209
ag50
(g54
S'\x0e\xb4D.\xe6.\xdd?'
p210
tp211
Rp212
ag50
(g54
S'\xd8\x18)r\x009\xee?'
p213
tp214
Rp215
ag50
(g54
S'\xaf\x86\x11\x1eO4\xe9?'
p216
tp217
Rp218
ag50
(g54
S'\xaf\x86\x11\x1eO4\xe9?'
p219
tp220
Rp221
ag50
(g54
S'\xaf\x86\x11\x1eO4\xe9?'
p222
tp223
Rp224
ag50
(g54
S'\xaf\x86\x11\x1eO4\xe9?'
p225
tp226
Rp227
ag50
(g54
S'\x99\x1aJ\xff\xf8.\xe8?'
p228
tp229
Rp230
ag50
(g54
S'\x8f\x02H0|\x03\xe6?'
p231
tp232
Rp233
ag50
(g54
S'\xaf\x86\x11\x1eO4\xe9?'
p234
tp235
Rp236
ag50
(g54
S'\x07\x9dv\x9f\x8f\xdd\xe8?'
p237
tp238
Rp239
ag50
(g54
S'\xaf\x86\x11\x1eO4\xe9?'
p240
tp241
Rp242
ag50
(g54
S'\x99\x1aJ\xff\xf8.\xe8?'
p243
tp244
Rp245
ag50
(g54
S'\x0e\xb4D.\xe6.\xdd?'
p246
tp247
Rp248
asS'sp'
p249
(lp250
(S'p0'
p251
I0
S'y'
p252
tp253
a(g251
I0
S't'
p254
tp255
ag253
a(g251
I0
S'x'
p256
tp257
a(g251
I0
g256
tp258
a(g251
I0
g252
tp259
a(S'p1'
p260
I0
g252
tp261
a(g260
I0
g252
tp262
a(g260
I0
g254
tp263
a(g260
I0
g254
tp264
ag264
ag264
a(g260
I0
g256
tp265
a(g251
I0
g256
tp266
ag258
ag259
ag255
ag253
a(g251
I0
g252
tp267
ag257
ag258
a(g251
I0
g256
tp268
ag259
ag261
a(g260
I0
g252
tp269
ag269
ag263
ag264
ag264
ag265
a(g260
I0
g254
tp270
a(g260
I0
g252
tp271
ag269
a(g260
I0
g256
tp272
ag270
ag265
a(S'p2'
p273
I0
g256
tp274
a(g273
I0
g256
tp275
a(g273
I0
g252
tp276
a(g273
I0
g256
tp277
ag276
a(S'p3'
p278
I0
g252
tp279
a(g278
I0
g252
tp280
a(g278
I0
g252
tp281
ag281
ag280
a(g278
I0
g254
tp282
a(g278
I0
g252
tp283
ag281
ag280
ag282
a(g278
F1.5707963267948966
g254
tp284
a(g278
F1.5707963267948966
g252
tp285
a(g278
F1.5707963267948966
g252
tp286
ag286
ag286
ag286
a(g278
F1.5707963267948966
g256
tp287
a(g278
F1.5707963267948966
g252
tp288
ag286
a(g278
F1.5707963267948966
g252
tp289
ag286
ag287
a(S'p4'
p290
F1.5707963267948966
g256
tp291
asS's'
p292
(lp293
(g251
I0
g22
tp294
ag253
ag255
ag253
ag257
ag258
ag259
ag261
ag262
ag263
ag264
ag264
ag264
ag265
ag266
ag258
ag259
ag255
ag253
ag267
ag257
ag258
ag268
ag259
ag261
ag269
ag269
ag263
ag264
ag264
ag265
ag270
ag271
ag269
ag272
ag270
ag265
ag274
ag275
ag276
ag277
ag276
ag279
ag280
ag281
ag281
ag280
ag282
ag283
ag281
ag280
ag282
ag284
ag285
ag286
ag286
ag286
ag286
ag287
ag288
ag286
ag289
ag286
ag287
asS'ui'
p295
(lp296
S'hs'
p297
ag249
ag297
aS'ss'
p298
ag249
aS'hp'
p299
ag249
ag249
ag299
ag297
ag297
ag249
ag249
ag249
ag299
ag298
ag299
ag297
ag249
ag298
ag299
ag297
ag299
ag298
ag298
ag297
ag299
ag297
ag299
ag249
ag249
ag299
ag249
ag297
ag297
ag299
ag249
ag297
ag299
ag298
ag299
ag249
ag299
ag249
ag297
ag298
ag249
ag249
ag299
ag249
ag299
ag249
ag299
ag298
ag298
ag249
ag297
ag249
ag249
ag297
ag298
ag249
ag298
ag249
asS'um_before'
p300
(lp301
g297
ag299
ag297
ag297
ag249
ag299
ag298
ag249
ag299
ag249
ag249
ag249
ag299
ag298
ag249
ag299
ag299
ag297
ag249
ag297
ag249
ag298
ag299
ag298
ag298
ag298
ag299
ag249
ag249
ag299
ag297
ag297
ag298
ag297
ag297
ag299
ag249
ag298
ag299
ag297
ag299
ag298
ag298
ag249
ag249
ag298
ag299
ag297
ag249
ag298
ag299
ag249
ag297
ag298
ag298
ag298
ag298
ag297
ag299
ag298
ag249
ag298
ag297
ag249
asS'um_after'
p302
(lp303
g297
ag299
ag297
ag297
ag249
ag299
ag298
ag249
ag299
ag249
ag249
ag249
ag299
ag298
ag249
ag299
ag299
ag297
ag249
ag297
ag249
ag298
ag299
ag298
ag298
ag298
ag299
ag249
ag249
ag299
ag297
ag297
ag298
ag297
ag297
ag299
ag249
ag298
ag299
ag297
ag299
ag298
ag298
ag249
ag249
ag298
ag299
ag297
ag249
ag298
ag299
ag249
ag297
ag298
ag298
ag298
ag298
ag297
ag299
ag298
ag249
ag298
ag297
ag249
asS'is_normalized_entropy_less_than_threshold'
p304
(lp305
g50
(g51
(S'b1'
p306
I0
I1
tp307
Rp308
(I3
S'|'
p309
NNNI-1
I-1
I0
tp310
bS'\x00'
p311
tp312
Rp313
ag313
ag313
ag313
ag313
ag313
ag313
ag313
ag313
ag313
ag313
ag313
ag313
ag313
ag313
ag313
ag313
ag313
ag313
ag313
ag313
ag313
ag313
ag313
ag313
ag313
ag313
ag313
ag313
ag313
ag313
ag313
ag313
ag313
ag313
ag313
ag50
(g308
S'\x01'
p314
tp315
Rp316
ag313
ag313
ag313
ag313
ag313
ag313
ag313
ag313
ag313
ag313
ag313
ag313
ag313
ag313
ag316
ag313
ag313
ag313
ag313
ag313
ag313
ag313
ag313
ag313
ag313
ag313
ag316
asaa(lp317
S'index'
p318
aI113555
aatp319
Rp320
.