ccollections
OrderedDict
p0
((lp1
(lp2
S'combination_dict'
p3
ag0
((lp4
(lp5
S'r_to_g_config'
p6
aS'br'
p7
aa(lp8
S'num_turns'
p9
aI2
aa(lp10
S'start_direction'
p11
acutils_ms
StartDirection
p12
(I1
tp13
Rp14
aa(lp15
S'assistance_type'
p16
acutils_ms
AssistanceType
p17
(I1
tp18
Rp19
aa(lp20
S'start_mode'
p21
aS'x'
p22
aa(lp23
S'ui_given_a_noise'
p24
aF0.7
aa(lp25
S'um_given_ui_noise'
p26
aF0.5
aa(lp27
S'entropy_threshold'
p28
aF0.5
aatp29
Rp30
aa(lp31
S'data'
p32
accollections
defaultdict
p33
(c__builtin__
list
p34
tp35
Rp36
S'a'
p37
(lp38
S'mode_r'
p39
aS'mode_l'
p40
ag40
aS'move_n'
p41
ag40
ag41
ag39
ag41
ag39
ag40
ag41
ag40
ag41
ag41
ag39
ag39
ag39
ag40
ag41
ag39
ag39
aS'move_p'
p42
ag39
ag40
ag42
ag42
ag39
ag40
ag42
ag39
ag41
asS'assistance_match_with_ground_truth'
p43
(lp44
I00
aI00
aI01
aI00
aI01
aI00
aI01
aI00
aI00
aI01
aI00
aI01
aI00
aI00
aI00
aI00
aI00
aI01
aI01
aI00
aI01
aI00
aI00
aI01
aI00
aI01
aI00
aI01
aI01
aI01
aI01
asS'is_u_intended_equals_um'
p45
(lp46
I01
aI00
aI00
aI01
aI01
aI00
aI01
aI00
aI01
aI01
aI01
aI00
aI01
aI00
aI00
aI00
aI01
aI00
aI01
aI00
aI01
aI00
aI01
aI01
aI01
aI01
aI01
aI00
aI01
aI01
aI01
asS'total_steps'
p47
I31
sS'normalized_h_of_p_ui_given_um'
p48
(lp49
cnumpy.core.multiarray
scalar
p50
(cnumpy
dtype
p51
(S'f8'
p52
I0
I1
tp53
Rp54
(I3
S'<'
p55
NNNI-1
I-1
I0
tp56
bS'\xf4\x08\xe6\x11\xcb\xa7\xed?'
p57
tp58
Rp59
ag50
(g54
S'@9\xdd:\xf4\xc6\xe4?'
p60
tp61
Rp62
ag50
(g54
S'\xbd\xfc\x918R\x96\xdb?'
p63
tp64
Rp65
ag50
(g54
S'\xaf\xe1\x00\xbcq:\xe5?'
p66
tp67
Rp68
ag50
(g54
S'"x\x182F\xf4\xc0?'
p69
tp70
Rp71
ag50
(g54
S'\xb6\xa6\xe9_\xbe\x80\xe6?'
p72
tp73
Rp74
ag50
(g54
S'^\xb4tR\xdd\xce\xd7?'
p75
tp76
Rp77
ag50
(g54
S'\xb6\xa6\xe9_\xbe\x80\xe6?'
p78
tp79
Rp80
ag50
(g54
S'\xf4\x08\xe6\x11\xcb\xa7\xed?'
p81
tp82
Rp83
ag50
(g54
S'"x\x182F\xf4\xc0?'
p84
tp85
Rp86
ag50
(g54
S'\xaf\xe1\x00\xbcq:\xe5?'
p87
tp88
Rp89
ag50
(g54
S'\xd57\xe7\x18\xf6N\xdf?'
p90
tp91
Rp92
ag50
(g54
S'!\x89\xdd\x12QT\xdc?'
p93
tp94
Rp95
ag50
(g54
S'\xb6\xa6\xe9_\xbe\x80\xe6?'
p96
tp97
Rp98
ag50
(g54
S'F\xf0\xf9\xac\x8e\xb0\xe8?'
p99
tp100
Rp101
ag50
(g54
S'F\xf0\xf9\xac\x8e\xb0\xe8?'
p102
tp103
Rp104
ag50
(g54
S'\xf4\x08\xe6\x11\xcb\xa7\xed?'
p105
tp106
Rp107
ag50
(g54
S'\xbd\xfc\x918R\x96\xdb?'
p108
tp109
Rp110
ag50
(g54
S'~L\x0c\xef\xce\xd4\xe2?'
p111
tp112
Rp113
ag50
(g54
S'F\xf0\xf9\xac\x8e\xb0\xe8?'
p114
tp115
Rp116
ag50
(g54
S'^\xb4tR\xdd\xce\xd7?'
p117
tp118
Rp119
ag50
(g54
S'\xb1\x9d\xee\xbb\xe07\xeb?'
p120
tp121
Rp122
ag50
(g54
S'\xf4\x08\xe6\x11\xcb\xa7\xed?'
p123
tp124
Rp125
ag50
(g54
S'"x\x182F\xf4\xc0?'
p126
tp127
Rp128
ag50
(g54
S'\xf4T\x96/l\xdd\xed?'
p129
tp130
Rp131
ag50
(g54
S'\x0c\x13\xd8d\x02Z\xd2?'
p132
tp133
Rp134
ag50
(g54
S'\xf4\x08\xe6\x11\xcb\xa7\xed?'
p135
tp136
Rp137
ag50
(g54
S'\xbd\xfc\x918R\x96\xdb?'
p138
tp139
Rp140
ag50
(g54
S'\x0c\x13\xd8d\x02Z\xd2?'
p141
tp142
Rp143
ag50
(g54
S'^\xb4tR\xdd\xce\xd7?'
p144
tp145
Rp146
ag50
(g54
S'~L\x0c\xef\xce\xd4\xe2?'
p147
tp148
Rp149
asS'sp'
p150
(lp151
(S'p0'
p152
I0
S't'
p153
tp154
a(g152
I0
g153
tp155
a(g152
I0
S'y'
p156
tp157
a(g152
I0
g153
tp158
ag157
a(g152
I0
S'x'
p159
tp160
a(g152
I0
g156
tp161
ag160
ag154
ag157
ag158
ag157
a(g152
I0
g156
tp162
ag160
a(g152
I0
g159
tp163
ag163
ag154
ag157
a(S'p1'
p164
I0
g156
tp165
a(g164
I0
g156
tp166
a(g164
I0
g153
tp167
a(g164
I0
g156
tp168
a(g164
I0
g159
tp169
a(g164
I0
g153
tp170
a(g164
I0
g153
tp171
a(g164
F1.5707963267948966
g153
tp172
a(g164
F1.5707963267948966
g156
tp173
a(g164
F1.5707963267948966
g159
tp174
a(S'p2'
p175
F1.5707963267948966
g159
tp176
a(g175
F1.5707963267948966
g156
tp177
a(S'p3'
p178
F1.5707963267948966
g156
tp179
asS's'
p180
(lp181
(g152
I0
g22
tp182
ag154
ag155
ag157
ag158
ag157
ag160
ag161
ag160
ag154
ag157
ag158
ag157
ag162
ag160
ag163
ag163
ag154
ag157
ag165
ag166
ag167
ag168
ag169
ag170
ag171
ag172
ag173
ag174
ag176
ag177
asS'ui'
p183
(lp184
S'ss'
p185
aS'hp'
p186
aS'hs'
p187
ag186
ag187
ag150
ag186
ag186
ag186
ag187
ag186
ag187
ag185
ag150
ag186
ag186
ag186
ag150
ag185
ag186
ag186
ag187
ag187
ag187
ag150
ag150
ag185
ag187
ag150
ag186
ag186
asS'um_before'
p188
(lp189
g187
ag150
ag185
ag186
ag187
ag187
ag186
ag187
ag187
ag187
ag186
ag186
ag150
ag187
ag185
ag185
ag187
ag185
ag185
ag185
ag186
ag187
ag187
ag187
ag185
ag150
ag187
ag185
ag150
ag186
ag185
asS'um_after'
p190
(lp191
g187
ag150
ag187
ag186
ag187
ag187
ag186
ag187
ag187
ag187
ag186
ag187
ag150
ag187
ag185
ag185
ag187
ag187
ag185
ag185
ag186
ag187
ag187
ag187
ag185
ag150
ag187
ag187
ag150
ag186
ag185
asS'is_normalized_entropy_less_than_threshold'
p192
(lp193
g50
(g51
(S'b1'
p194
I0
I1
tp195
Rp196
(I3
S'|'
p197
NNNI-1
I-1
I0
tp198
bS'\x00'
p199
tp200
Rp201
ag201
ag50
(g196
S'\x01'
p202
tp203
Rp204
ag201
ag204
ag201
ag204
ag201
ag201
ag204
ag201
ag204
ag204
ag201
ag201
ag201
ag201
ag204
ag201
ag201
ag204
ag201
ag201
ag204
ag201
ag204
ag201
ag204
ag204
ag204
ag201
asaa(lp205
S'index'
p206
aI103102
aatp207
Rp208
.