ccollections
OrderedDict
p0
((lp1
(lp2
S'combination_dict'
p3
ag0
((lp4
(lp5
S'r_to_g_config'
p6
aS'bl'
p7
aa(lp8
S'num_turns'
p9
aI3
aa(lp10
S'start_direction'
p11
acutils_ms
StartDirection
p12
(I0
tp13
Rp14
aa(lp15
S'assistance_type'
p16
acutils_ms
AssistanceType
p17
(I1
tp18
Rp19
aa(lp20
S'start_mode'
p21
aS't'
p22
aa(lp23
S'ui_given_a_noise'
p24
aF0.5
aa(lp25
S'um_given_ui_noise'
p26
aF0.5
aa(lp27
S'entropy_threshold'
p28
aF0.6
aatp29
Rp30
aa(lp31
S'data'
p32
accollections
defaultdict
p33
(c__builtin__
list
p34
tp35
Rp36
S'a'
p37
(lp38
S'mode_r'
p39
aS'move_n'
p40
ag39
ag39
ag40
ag40
ag39
aS'mode_l'
p41
ag39
ag40
ag39
ag39
ag39
ag40
ag41
ag41
ag41
ag41
ag40
ag41
ag41
ag39
ag41
ag39
ag41
ag40
ag39
ag39
ag41
ag41
ag40
ag41
ag41
aS'move_p'
p42
ag42
ag42
ag41
ag40
ag39
ag40
ag41
ag40
ag39
ag41
ag39
ag39
ag40
ag39
ag39
ag39
ag39
ag39
ag40
ag41
ag39
ag40
asS'assistance_match_with_ground_truth'
p43
(lp44
I01
aI00
aI00
aI01
aI00
aI00
aI00
aI00
aI01
aI00
aI00
aI00
aI01
aI00
aI00
aI00
aI00
aI01
aI01
aI00
aI00
aI00
aI00
aI00
aI01
aI00
aI00
aI00
aI00
aI01
aI01
aI00
aI01
aI00
aI00
aI01
aI01
aI00
aI01
aI01
aI01
aI00
aI00
aI00
aI00
aI01
aI01
aI00
aI00
aI00
aI00
aI01
aI00
aI00
aI01
aI01
asS'is_u_intended_equals_um'
p45
(lp46
I01
aI00
aI01
aI01
aI01
aI00
aI00
aI00
aI01
aI00
aI01
aI00
aI01
aI00
aI00
aI01
aI00
aI01
aI01
aI01
aI00
aI00
aI00
aI00
aI01
aI00
aI00
aI00
aI01
aI01
aI01
aI01
aI01
aI01
aI01
aI01
aI01
aI00
aI01
aI01
aI01
aI00
aI00
aI00
aI00
aI01
aI01
aI00
aI00
aI00
aI00
aI01
aI00
aI00
aI01
aI01
asS'total_steps'
p47
I56
sS'normalized_h_of_p_ui_given_um'
p48
(lp49
cnumpy.core.multiarray
scalar
p50
(cnumpy
dtype
p51
(S'f8'
p52
I0
I1
tp53
Rp54
(I3
S'<'
p55
NNNI-1
I-1
I0
tp56
bS'2\xf3\xff\x82~\xea\xe1?'
p57
tp58
Rp59
ag50
(g54
S'\xa8\x10\xc6\xa2\xb3;\xe9?'
p60
tp61
Rp62
ag50
(g54
S'\x84\xd3<\xc0@\xa3\xe6?'
p63
tp64
Rp65
ag50
(g54
S'2\xf3\xff\x82~\xea\xe1?'
p66
tp67
Rp68
ag50
(g54
S'\x06\xb0\xf2*\xd39\xe9?'
p69
tp70
Rp71
ag50
(g54
S'\xa8\x10\xc6\xa2\xb3;\xe9?'
p72
tp73
Rp74
ag50
(g54
S'P\xda\xd1M\x0fn\xee?'
p75
tp76
Rp77
ag50
(g54
S'h{f\xc9\xc9\xe4\xe8?'
p78
tp79
Rp80
ag50
(g54
S'2\xf3\xff\x82~\xea\xe1?'
p81
tp82
Rp83
ag50
(g54
S'\xa8\x10\xc6\xa2\xb3;\xe9?'
p84
tp85
Rp86
ag50
(g54
S'\x84\xd3<\xc0@\xa3\xe6?'
p87
tp88
Rp89
ag50
(g54
S')b67\t\xee\xe8?'
p90
tp91
Rp92
ag50
(g54
S'2\xf3\xff\x82~\xea\xe1?'
p93
tp94
Rp95
ag50
(g54
S'\xda\xed\xaa\xbf\x9f\x81\xec?'
p96
tp97
Rp98
ag50
(g54
S'\x8d2\xda\x833T\xea?'
p99
tp100
Rp101
ag50
(g54
S'1\x1c\xb9tb\x8a\xe6?'
p102
tp103
Rp104
ag50
(g54
S'\x8d2\xda\x833T\xea?'
p105
tp106
Rp107
ag50
(g54
S'R\x90\x9e\xfc\x8al\xdf?'
p108
tp109
Rp110
ag50
(g54
S'-"\x19\xda\xce\xb4\xd3?'
p111
tp112
Rp113
ag50
(g54
S'1\x1c\xb9tb\x8a\xe6?'
p114
tp115
Rp116
ag50
(g54
S'h{f\xc9\xc9\xe4\xe8?'
p117
tp118
Rp119
ag50
(g54
S')b67\t\xee\xe8?'
p120
tp121
Rp122
ag50
(g54
S'h{f\xc9\xc9\xe4\xe8?'
p123
tp124
Rp125
ag50
(g54
S'P\xda\xd1M\x0fn\xee?'
p126
tp127
Rp128
ag50
(g54
S'R\x90\x9e\xfc\x8al\xdf?'
p129
tp130
Rp131
ag50
(g54
S'\xa8\x10\xc6\xa2\xb3;\xe9?'
p132
tp133
Rp134
ag50
(g54
S')b67\t\xee\xe8?'
p135
tp136
Rp137
ag50
(g54
S'P\xda\xd1M\x0fn\xee?'
p138
tp139
Rp140
ag50
(g54
S'1\x1c\xb9tb\x8a\xe6?'
p141
tp142
Rp143
ag50
(g54
S'R\x90\x9e\xfc\x8al\xdf?'
p144
tp145
Rp146
ag50
(g54
S'-"\x19\xda\xce\xb4\xd3?'
p147
tp148
Rp149
ag50
(g54
S'1\x1c\xb9tb\x8a\xe6?'
p150
tp151
Rp152
ag50
(g54
S'R\x90\x9e\xfc\x8al\xdf?'
p153
tp154
Rp155
ag50
(g54
S'\xe8\x8a\x8f\xa5)\x9d\xe3?'
p156
tp157
Rp158
ag50
(g54
S'\xe8\x8a\x8f\xa5)\x9d\xe3?'
p159
tp160
Rp161
ag50
(g54
S"g\x005R\xe3'\xd7?"
p162
tp163
Rp164
ag50
(g54
S'R\x90\x9e\xfc\x8al\xdf?'
p165
tp166
Rp167
ag50
(g54
S'\xa8\x10\xc6\xa2\xb3;\xe9?'
p168
tp169
Rp170
ag50
(g54
S'2\xf3\xff\x82~\xea\xe1?'
p171
tp172
Rp173
ag50
(g54
S'-"\x19\xda\xce\xb4\xd3?'
p174
tp175
Rp176
ag50
(g54
S'R\x90\x9e\xfc\x8al\xdf?'
p177
tp178
Rp179
ag50
(g54
S'\xa8\x10\xc6\xa2\xb3;\xe9?'
p180
tp181
Rp182
ag50
(g54
S'P\xda\xd1M\x0fn\xee?'
p183
tp184
Rp185
ag50
(g54
S'h{f\xc9\xc9\xe4\xe8?'
p186
tp187
Rp188
ag50
(g54
S')b67\t\xee\xe8?'
p189
tp190
Rp191
ag50
(g54
S'2\xf3\xff\x82~\xea\xe1?'
p192
tp193
Rp194
ag50
(g54
S'-"\x19\xda\xce\xb4\xd3?'
p195
tp196
Rp197
ag50
(g54
S')b67\t\xee\xe8?'
p198
tp199
Rp200
ag50
(g54
S')b67\t\xee\xe8?'
p201
tp202
Rp203
ag50
(g54
S')b67\t\xee\xe8?'
p204
tp205
Rp206
ag50
(g54
S')b67\t\xee\xe8?'
p207
tp208
Rp209
ag50
(g54
S'2\xf3\xff\x82~\xea\xe1?'
p210
tp211
Rp212
ag50
(g54
S'\xda\xed\xaa\xbf\x9f\x81\xec?'
p213
tp214
Rp215
ag50
(g54
S'h{f\xc9\xc9\xe4\xe8?'
p216
tp217
Rp218
ag50
(g54
S'2\xf3\xff\x82~\xea\xe1?'
p219
tp220
Rp221
ag50
(g54
S'-"\x19\xda\xce\xb4\xd3?'
p222
tp223
Rp224
asS'sp'
p225
(lp226
(S'p0'
p227
I0
S'x'
p228
tp229
a(g227
I0
S't'
p230
tp231
a(g227
I0
g230
tp232
ag229
a(g227
I0
g228
tp233
ag231
a(g227
I0
S'y'
p234
tp235
a(g227
I0
g230
tp236
ag229
ag231
ag232
a(g227
I0
g230
tp237
ag229
a(g227
I0
g234
tp238
a(g227
I0
g234
tp239
a(g227
I0
g234
tp240
ag239
a(g227
I0
g228
tp241
a(S'p1'
p242
I0
g228
tp243
a(g242
I0
g228
tp244
a(g242
I0
g234
tp245
a(g227
I0
g234
tp246
ag236
ag235
ag241
ag231
ag237
ag235
ag240
ag241
ag243
ag244
a(g242
I0
g230
tp247
a(g242
I0
g230
tp248
ag248
a(g242
F1.5707963267948966
g230
tp249
a(g242
F1.5707963267948966
g234
tp250
a(g242
F1.5707963267948966
g228
tp251
a(g242
F1.5707963267948966
g234
tp252
a(S'p2'
p253
F1.5707963267948966
g234
tp254
a(g253
F1.5707963267948966
g228
tp255
a(g253
F1.5707963267948966
g230
tp256
a(g253
F1.5707963267948966
g234
tp257
a(g253
F1.5707963267948966
g230
tp258
a(g253
F1.5707963267948966
g230
tp259
a(g253
F1.5707963267948966
g228
tp260
a(S'p3'
p261
F1.5707963267948966
g228
tp262
a(g261
F1.5707963267948966
g228
tp263
ag263
ag263
ag263
a(g261
F1.5707963267948966
g234
tp264
a(g261
F1.5707963267948966
g230
tp265
a(g261
F1.5707963267948966
g228
tp266
ag264
a(S'p4'
p267
F1.5707963267948966
g234
tp268
asS's'
p269
(lp270
(g227
I0
g22
tp271
ag229
ag231
ag232
ag229
ag233
ag231
ag235
ag236
ag229
ag231
ag232
ag237
ag229
ag238
ag239
ag240
ag239
ag241
ag243
ag244
ag245
ag246
ag236
ag235
ag241
ag231
ag237
ag235
ag240
ag241
ag243
ag244
ag247
ag248
ag248
ag249
ag250
ag251
ag252
ag254
ag255
ag256
ag257
ag258
ag259
ag260
ag262
ag263
ag263
ag263
ag263
ag264
ag265
ag266
ag264
asS'ui'
p272
(lp273
S'hs'
p274
aS'ss'
p275
ag275
aS'hp'
p276
ag225
ag275
ag225
ag276
ag276
ag225
ag275
ag225
ag276
ag275
ag275
ag275
ag274
ag274
ag275
ag274
ag276
ag225
ag274
ag276
ag274
ag275
ag225
ag225
ag275
ag275
ag275
ag274
ag275
ag275
ag275
ag225
ag274
ag275
ag276
ag275
ag274
ag275
ag225
ag276
ag276
ag225
ag275
ag225
ag276
ag276
ag275
ag276
ag275
ag274
ag276
ag275
asS'um_before'
p277
(lp278
g276
ag274
ag275
ag276
ag225
ag274
ag274
ag276
ag276
ag274
ag275
ag225
ag276
ag276
ag225
ag275
ag225
ag274
ag275
ag275
ag276
ag225
ag276
ag274
ag274
ag274
ag225
ag274
ag275
ag274
ag275
ag275
ag274
ag275
ag275
ag225
ag274
ag274
ag276
ag275
ag274
ag274
ag274
ag276
ag225
ag276
ag275
ag225
ag225
ag225
ag225
ag276
ag276
ag276
ag276
ag275
asS'um_after'
p279
(lp280
g276
ag274
ag275
ag276
ag225
ag274
ag274
ag276
ag276
ag274
ag275
ag225
ag276
ag276
ag225
ag275
ag225
ag274
ag275
ag275
ag276
ag225
ag276
ag274
ag274
ag274
ag225
ag274
ag275
ag274
ag275
ag275
ag274
ag275
ag275
ag225
ag274
ag274
ag276
ag275
ag274
ag274
ag274
ag276
ag225
ag276
ag275
ag225
ag225
ag225
ag225
ag276
ag276
ag276
ag276
ag275
asS'is_normalized_entropy_less_than_threshold'
p281
(lp282
g50
(g51
(S'b1'
p283
I0
I1
tp284
Rp285
(I3
S'|'
p286
NNNI-1
I-1
I0
tp287
bS'\x01'
p288
tp289
Rp290
ag50
(g285
S'\x00'
p291
tp292
Rp293
ag293
ag290
ag293
ag293
ag293
ag293
ag290
ag293
ag293
ag293
ag290
ag293
ag293
ag293
ag293
ag290
ag290
ag293
ag293
ag293
ag293
ag293
ag290
ag293
ag293
ag293
ag293
ag290
ag290
ag293
ag290
ag293
ag293
ag290
ag290
ag293
ag290
ag290
ag290
ag293
ag293
ag293
ag293
ag290
ag290
ag293
ag293
ag293
ag293
ag290
ag293
ag293
ag290
ag290
asaa(lp294
S'index'
p295
aI78919
aatp296
Rp297
.