ccollections
OrderedDict
p0
((lp1
(lp2
S'combination_dict'
p3
ag0
((lp4
(lp5
S'r_to_g_config'
p6
aS'tl'
p7
aa(lp8
S'num_turns'
p9
aI3
aa(lp10
S'start_direction'
p11
acutils_ms
StartDirection
p12
(I1
tp13
Rp14
aa(lp15
S'assistance_type'
p16
acutils_ms
AssistanceType
p17
(I0
tp18
Rp19
aa(lp20
S'start_mode'
p21
aS'x'
p22
aa(lp23
S'ui_given_a_noise'
p24
aF0.5
aa(lp25
S'um_given_ui_noise'
p26
aF0.1
aa(lp27
S'entropy_threshold'
p28
aF0.7
aatp29
Rp30
aa(lp31
S'data'
p32
accollections
defaultdict
p33
(c__builtin__
list
p34
tp35
Rp36
S'a'
p37
(lp38
S'mode_r'
p39
aS'mode_l'
p40
aS'move_p'
p41
ag40
ag40
ag40
ag40
ag41
ag40
ag39
ag40
aS'move_n'
p42
ag40
ag39
ag41
ag40
ag41
ag39
ag40
ag40
ag40
ag42
ag40
ag41
ag40
ag41
ag40
ag39
ag42
ag40
ag42
ag39
ag39
ag41
ag40
ag42
ag39
ag39
ag41
ag40
ag41
ag40
ag42
ag39
ag41
ag40
ag40
ag40
ag40
ag39
ag39
ag42
ag39
ag41
ag40
ag40
ag42
asS'assistance_match_with_ground_truth'
p43
(lp44
I00
aI01
aI00
aI00
aI00
aI00
aI01
aI01
aI00
aI00
aI01
aI01
aI00
aI01
aI01
aI00
aI00
aI00
aI00
aI00
aI01
aI01
aI01
aI01
aI01
aI00
aI00
aI01
aI00
aI01
aI01
aI00
aI01
aI00
aI01
aI01
aI00
aI01
aI00
aI01
aI00
aI01
aI01
aI01
aI00
aI00
aI00
aI00
aI00
aI00
aI01
aI01
aI01
aI01
aI00
aI01
aI01
asS'is_u_intended_equals_um'
p45
(lp46
I01
aI01
aI01
aI01
aI01
aI01
aI01
aI01
aI01
aI01
aI01
aI01
aI01
aI01
aI01
aI01
aI01
aI01
aI01
aI01
aI01
aI01
aI01
aI01
aI01
aI01
aI01
aI01
aI01
aI01
aI01
aI01
aI01
aI01
aI01
aI01
aI01
aI01
aI01
aI01
aI01
aI01
aI01
aI01
aI01
aI01
aI01
aI01
aI01
aI01
aI01
aI01
aI01
aI01
aI01
aI01
aI01
asS'total_steps'
p47
I57
sS'normalized_h_of_p_ui_given_um'
p48
(lp49
cnumpy.core.multiarray
scalar
p50
(cnumpy
dtype
p51
(S'f8'
p52
I0
I1
tp53
Rp54
(I3
S'<'
p55
NNNI-1
I-1
I0
tp56
bS'u6)\xf6p&\xe0?'
p57
tp58
Rp59
ag50
(g54
S'\x98\xa5\x93\x95\xbeQ\xca?'
p60
tp61
Rp62
ag50
(g54
S'\x1410N8~\xdb?'
p63
tp64
Rp65
ag50
(g54
S'\xae-\xc3\xd0P\xdb\xdf?'
p66
tp67
Rp68
ag50
(g54
S'\xae-\xc3\xd0P\xdb\xdf?'
p69
tp70
Rp71
ag50
(g54
S'\x05\xb3\xb27\x1bj\xdb?'
p72
tp73
Rp74
ag50
(g54
S'\x98\xa5\x93\x95\xbeQ\xca?'
p75
tp76
Rp77
ag50
(g54
S'\xbaX\x7f\x06&\xe5\xb3?'
p78
tp79
Rp80
ag50
(g54
S'\x8b/\x97T\x00\x83\xda?'
p81
tp82
Rp83
ag50
(g54
S'u6)\xf6p&\xe0?'
p84
tp85
Rp86
ag50
(g54
S'\x98\xa5\x93\x95\xbeQ\xca?'
p87
tp88
Rp89
ag50
(g54
S'\xfc\xe6\xbf\xbb\x80\xba\xb9?'
p90
tp91
Rp92
ag50
(g54
S'\x8b/\x97T\x00\x83\xda?'
p93
tp94
Rp95
ag50
(g54
S'v\xf6\x91\xff\xb40\xbd?'
p96
tp97
Rp98
ag50
(g54
S'\xbaX\x7f\x06&\xe5\xb3?'
p99
tp100
Rp101
ag50
(g54
S'\xae-\xc3\xd0P\xdb\xdf?'
p102
tp103
Rp104
ag50
(g54
S'`\xe1\x90\xfd\xb0\xea\xe8?'
p105
tp106
Rp107
ag50
(g54
S'\xd2?\xfbK$\x92\xe3?'
p108
tp109
Rp110
ag50
(g54
S'\x05\xb3\xb27\x1bj\xdb?'
p111
tp112
Rp113
ag50
(g54
S'\xae-\xc3\xd0P\xdb\xdf?'
p114
tp115
Rp116
ag50
(g54
S'\x98\xa5\x93\x95\xbeQ\xca?'
p117
tp118
Rp119
ag50
(g54
S'\xfc\xe6\xbf\xbb\x80\xba\xb9?'
p120
tp121
Rp122
ag50
(g54
S'\x98\xa5\x93\x95\xbeQ\xca?'
p123
tp124
Rp125
ag50
(g54
S'\xbaX\x7f\x06&\xe5\xb3?'
p126
tp127
Rp128
ag50
(g54
S'\x98\xa5\x93\x95\xbeQ\xca?'
p129
tp130
Rp131
ag50
(g54
S'\x04\xd9\xe8\x1d\xc2\x80\xdb?'
p132
tp133
Rp134
ag50
(g54
S'\x8b/\x97T\x00\x83\xda?'
p135
tp136
Rp137
ag50
(g54
S'v\xf6\x91\xff\xb40\xbd?'
p138
tp139
Rp140
ag50
(g54
S'\x10\x18\x03\xcfnJ\xdc?'
p141
tp142
Rp143
ag50
(g54
S'\x98\xa5\x93\x95\xbeQ\xca?'
p144
tp145
Rp146
ag50
(g54
S'\xfc\xe6\xbf\xbb\x80\xba\xb9?'
p147
tp148
Rp149
ag50
(g54
S'\xff\xf1L\x98\xb2K\xd9?'
p150
tp151
Rp152
ag50
(g54
S'v\xf6\x91\xff\xb40\xbd?'
p153
tp154
Rp155
ag50
(g54
S'\x04\xd9\xe8\x1d\xc2\x80\xdb?'
p156
tp157
Rp158
ag50
(g54
S'\x98\xa5\x93\x95\xbeQ\xca?'
p159
tp160
Rp161
ag50
(g54
S'\xfc\xe6\xbf\xbb\x80\xba\xb9?'
p162
tp163
Rp164
ag50
(g54
S'\xd2?\xfbK$\x92\xe3?'
p165
tp166
Rp167
ag50
(g54
S'v\xf6\x91\xff\xb40\xbd?'
p168
tp169
Rp170
ag50
(g54
S'\x1410N8~\xdb?'
p171
tp172
Rp173
ag50
(g54
S'\x98\xa5\x93\x95\xbeQ\xca?'
p174
tp175
Rp176
ag50
(g54
S'\x04\xd9\xe8\x1d\xc2\x80\xdb?'
p177
tp178
Rp179
ag50
(g54
S'\x98\xa5\x93\x95\xbeQ\xca?'
p180
tp181
Rp182
ag50
(g54
S'\xfc\xe6\xbf\xbb\x80\xba\xb9?'
p183
tp184
Rp185
ag50
(g54
S'v\xf6\x91\xff\xb40\xbd?'
p186
tp187
Rp188
ag50
(g54
S'\x04\xd9\xe8\x1d\xc2\x80\xdb?'
p189
tp190
Rp191
ag50
(g54
S'\xae-\xc3\xd0P\xdb\xdf?'
p192
tp193
Rp194
ag50
(g54
S'\xae-\xc3\xd0P\xdb\xdf?'
p195
tp196
Rp197
ag50
(g54
S'\xae-\xc3\xd0P\xdb\xdf?'
p198
tp199
Rp200
ag50
(g54
S'\x8b/\x97T\x00\x83\xda?'
p201
tp202
Rp203
ag50
(g54
S'\xff\xf1L\x98\xb2K\xd9?'
p204
tp205
Rp206
ag50
(g54
S'v\xf6\x91\xff\xb40\xbd?'
p207
tp208
Rp209
ag50
(g54
S'\xfc\xe6\xbf\xbb\x80\xba\xb9?'
p210
tp211
Rp212
ag50
(g54
S'v\xf6\x91\xff\xb40\xbd?'
p213
tp214
Rp215
ag50
(g54
S'\xbaX\x7f\x06&\xe5\xb3?'
p216
tp217
Rp218
ag50
(g54
S'\x05\xb3\xb27\x1bj\xdb?'
p219
tp220
Rp221
ag50
(g54
S'\x98\xa5\x93\x95\xbeQ\xca?'
p222
tp223
Rp224
ag50
(g54
S'\xfc\xe6\xbf\xbb\x80\xba\xb9?'
p225
tp226
Rp227
asS'sp'
p228
(lp229
(S'p0'
p230
I0
S't'
p231
tp232
a(g230
I0
S'y'
p233
tp234
a(g230
I0
g231
tp235
a(g230
I0
g231
tp236
ag236
a(g230
I0
g231
tp237
ag234
a(S'p1'
p238
I0
g233
tp239
a(g238
I0
g231
tp240
a(g238
I0
g233
tp241
a(g238
I0
S'x'
p242
tp243
a(S'p2'
p244
I0
g242
tp245
a(g244
I0
g233
tp246
a(g244
I0
g231
tp247
a(g244
F1.5707963267948966
g231
tp248
a(g244
I0
g231
tp249
a(g244
I0
g233
tp250
a(g238
I0
g233
tp251
a(g238
I0
g233
tp252
a(g238
I0
g233
tp253
ag243
ag245
a(g244
I0
g231
tp254
ag248
a(g244
F1.5707963267948966
g233
tp255
a(g238
F1.5707963267948966
g233
tp256
a(g238
F1.5707963267948966
g231
tp257
a(g238
F1.5707963267948966
g242
tp258
a(g238
F1.5707963267948966
g233
tp259
a(g238
F1.5707963267948966
g242
tp260
a(g244
F1.5707963267948966
g242
tp261
a(g244
F1.5707963267948966
g242
tp262
a(g244
F1.5707963267948966
g233
tp263
ag256
ag260
ag261
a(g244
F1.5707963267948966
g242
tp264
ag263
a(g244
F1.5707963267948966
g231
tp265
ag255
ag256
ag260
ag261
ag263
ag256
a(g238
F1.5707963267948966
g233
tp266
ag266
ag266
ag257
a(g238
F1.5707963267948966
g231
tp267
ag258
ag261
ag263
a(S'p3'
p268
F1.5707963267948966
g233
tp269
a(g268
F1.5707963267948966
g233
tp270
a(g268
F1.5707963267948966
g242
tp271
a(S'p4'
p272
F1.5707963267948966
g242
tp273
asS's'
p274
(lp275
(g230
I0
g22
tp276
ag232
ag234
ag235
ag236
ag236
ag237
ag234
ag239
ag240
ag241
ag243
ag245
ag246
ag247
ag248
ag249
ag250
ag251
ag252
ag253
ag243
ag245
ag254
ag248
ag255
ag256
ag257
ag258
ag259
ag260
ag261
ag262
ag263
ag256
ag260
ag261
ag264
ag263
ag265
ag255
ag256
ag260
ag261
ag263
ag256
ag266
ag266
ag266
ag257
ag267
ag258
ag261
ag263
ag269
ag270
ag271
asS'ui'
p277
(lp278
S'hs'
p279
aS'hp'
p280
ag228
aS'ss'
p281
ag279
ag228
ag279
ag228
ag280
ag279
ag279
ag281
ag280
ag280
ag228
ag281
ag279
ag281
ag279
ag281
ag279
ag281
ag279
ag228
ag279
ag281
ag280
ag280
ag280
ag279
ag281
ag228
ag280
ag281
ag279
ag281
ag281
ag280
ag280
ag279
ag281
ag279
ag281
ag280
ag281
ag281
ag279
ag281
ag280
ag228
ag280
ag281
ag280
ag228
ag281
ag279
ag281
asS'um_before'
p282
(lp283
g279
ag279
ag280
ag281
ag281
ag228
ag279
ag228
ag280
ag279
ag279
ag281
ag280
ag280
ag228
ag281
ag279
ag281
ag228
ag281
ag279
ag281
ag279
ag228
ag279
ag281
ag280
ag280
ag280
ag279
ag281
ag228
ag280
ag281
ag279
ag281
ag281
ag280
ag280
ag279
ag281
ag279
ag281
ag280
ag281
ag281
ag281
ag281
ag280
ag228
ag280
ag281
ag280
ag228
ag228
ag279
ag281
asS'um_after'
p284
(lp285
g279
ag279
ag280
ag281
ag281
ag228
ag279
ag228
ag280
ag279
ag279
ag281
ag280
ag280
ag228
ag281
ag279
ag281
ag228
ag281
ag279
ag281
ag279
ag228
ag279
ag281
ag280
ag280
ag280
ag279
ag281
ag228
ag280
ag281
ag279
ag281
ag281
ag280
ag280
ag279
ag281
ag279
ag281
ag280
ag281
ag281
ag281
ag281
ag280
ag228
ag280
ag281
ag280
ag228
ag228
ag279
ag281
asS'is_normalized_entropy_less_than_threshold'
p286
(lp287
g50
(g51
(S'b1'
p288
I0
I1
tp289
Rp290
(I3
S'|'
p291
NNNI-1
I-1
I0
tp292
bS'\x01'
p293
tp294
Rp295
ag295
ag295
ag295
ag295
ag295
ag295
ag295
ag295
ag295
ag295
ag295
ag295
ag295
ag295
ag295
ag50
(g290
S'\x00'
p296
tp297
Rp298
ag295
ag295
ag295
ag295
ag295
ag295
ag295
ag295
ag295
ag295
ag295
ag295
ag295
ag295
ag295
ag295
ag295
ag295
ag295
ag295
ag295
ag295
ag295
ag295
ag295
ag295
ag295
ag295
ag295
ag295
ag295
ag295
ag295
ag295
ag295
ag295
ag295
ag295
ag295
ag295
asaa(lp299
S'index'
p300
aI53228
aatp301
Rp302
.