ccollections
OrderedDict
p0
((lp1
(lp2
S'combination_dict'
p3
ag0
((lp4
(lp5
S'r_to_g_config'
p6
aS'tl'
p7
aa(lp8
S'num_turns'
p9
aI3
aa(lp10
S'start_direction'
p11
acutils_ms
StartDirection
p12
(I1
tp13
Rp14
aa(lp15
S'assistance_type'
p16
acutils_ms
AssistanceType
p17
(I1
tp18
Rp19
aa(lp20
S'start_mode'
p21
aS't'
p22
aa(lp23
S'ui_given_a_noise'
p24
aF0.5
aa(lp25
S'um_given_ui_noise'
p26
aF0.5
aa(lp27
S'entropy_threshold'
p28
aF0.9
aatp29
Rp30
aa(lp31
S'data'
p32
accollections
defaultdict
p33
(c__builtin__
list
p34
tp35
Rp36
S'a'
p37
(lp38
S'mode_l'
p39
aS'move_p'
p40
aS'mode_r'
p41
ag40
ag41
ag40
ag41
ag40
ag39
ag40
ag41
aS'move_n'
p42
ag39
ag42
ag41
ag40
ag39
ag40
ag39
ag40
ag39
ag39
ag42
asS'assistance_match_with_ground_truth'
p43
(lp44
I01
aI01
aI01
aI01
aI00
aI00
aI01
aI00
aI01
aI01
aI01
aI00
aI01
aI01
aI01
aI00
aI01
aI00
aI01
aI01
aI00
aI01
aI01
asS'is_u_intended_equals_um'
p45
(lp46
I00
aI01
aI01
aI01
aI01
aI01
aI00
aI01
aI01
aI01
aI01
aI00
aI01
aI01
aI00
aI01
aI00
aI01
aI01
aI01
aI01
aI01
aI01
asS'total_steps'
p47
I23
sS'normalized_h_of_p_ui_given_um'
p48
(lp49
cnumpy.core.multiarray
scalar
p50
(cnumpy
dtype
p51
(S'f8'
p52
I0
I1
tp53
Rp54
(I3
S'<'
p55
NNNI-1
I-1
I0
tp56
bS'R8\x8cH\x8dn\xea?'
p57
tp58
Rp59
ag50
(g54
S'\xec.\x80g\xa7u\xdc?'
p60
tp61
Rp62
ag50
(g54
S'\xf28+\xf7\xf3\xb8\xd9?'
p63
tp64
Rp65
ag50
(g54
S'\xec.\x80g\xa7u\xdc?'
p66
tp67
Rp68
ag50
(g54
S':\xea{U\\\x00\xe9?'
p69
tp70
Rp71
ag50
(g54
S'\xf7\xe1\xdcl\x1e\xc3\xec?'
p72
tp73
Rp74
ag50
(g54
S'\xf3\x9c\xd7\x86V\xa9\xec?'
p75
tp76
Rp77
ag50
(g54
S'Nt\x998\xf9\xac\xe7?'
p78
tp79
Rp80
ag50
(g54
S' \x030[Mt\xe2?'
p81
tp82
Rp83
ag50
(g54
S'\xec.\x80g\xa7u\xdc?'
p84
tp85
Rp86
ag50
(g54
S'\xf28+\xf7\xf3\xb8\xd9?'
p87
tp88
Rp89
ag50
(g54
S'\x8b\x99&\x15\xae/\xee?'
p90
tp91
Rp92
ag50
(g54
S' \x030[Mt\xe2?'
p93
tp94
Rp95
ag50
(g54
S'l\xe4\xdd\x82#\xe2\xdc?'
p96
tp97
Rp98
ag50
(g54
S'|\x93\xd0\x8b\xbf\xbc\xe7?'
p99
tp100
Rp101
ag50
(g54
S'Nt\x998\xf9\xac\xe7?'
p102
tp103
Rp104
ag50
(g54
S'R8\x8cH\x8dn\xea?'
p105
tp106
Rp107
ag50
(g54
S'Nt\x998\xf9\xac\xe7?'
p108
tp109
Rp110
ag50
(g54
S' \x030[Mt\xe2?'
p111
tp112
Rp113
ag50
(g54
S'\xec.\x80g\xa7u\xdc?'
p114
tp115
Rp116
ag50
(g54
S'\xf8\xceh[\xb3\xf2\xe7?'
p117
tp118
Rp119
ag50
(g54
S' \x030[Mt\xe2?'
p120
tp121
Rp122
ag50
(g54
S'l\xe4\xdd\x82#\xe2\xdc?'
p123
tp124
Rp125
asS'sp'
p126
(lp127
(S'p0'
p128
I0
S'y'
p129
tp130
a(S'p1'
p131
I0
g129
tp132
a(g131
I0
S't'
p133
tp134
a(g131
F1.5707963267948966
g133
tp135
a(g131
I0
g133
tp136
a(g131
I0
g129
tp137
ag134
a(g131
I0
S'x'
p138
tp139
a(g131
I0
g133
tp140
ag135
a(g131
F1.5707963267948966
g138
tp141
a(g131
F1.5707963267948966
g129
tp142
a(g131
F1.5707963267948966
g138
tp143
a(S'p2'
p144
F1.5707963267948966
g138
tp145
a(g144
F1.5707963267948966
g129
tp146
a(g144
F1.5707963267948966
g133
tp147
a(g144
F1.5707963267948966
g129
tp148
ag147
ag148
a(S'p3'
p149
F1.5707963267948966
g129
tp150
a(g149
F1.5707963267948966
g129
tp151
a(g149
F1.5707963267948966
g138
tp152
a(S'p4'
p153
F1.5707963267948966
g138
tp154
asS's'
p155
(lp156
(g128
I0
g22
tp157
ag130
ag132
ag134
ag135
ag136
ag137
ag134
ag139
ag140
ag135
ag141
ag142
ag143
ag145
ag146
ag147
ag148
ag147
ag148
ag150
ag151
ag152
asS'ui'
p158
(lp159
S'hp'
p160
ag126
ag126
ag126
aS'ss'
p161
ag160
ag126
ag126
aS'hs'
p162
ag126
ag161
ag161
ag162
ag162
ag161
ag160
ag162
ag160
ag162
ag126
ag162
ag162
ag161
asS'um_before'
p163
(lp164
g126
ag126
ag160
ag126
ag161
ag162
ag126
ag160
ag162
ag126
ag160
ag160
ag162
ag161
ag162
ag160
ag126
ag160
ag162
ag126
ag161
ag162
ag161
asS'um_after'
p165
(lp166
g162
ag126
ag160
ag126
ag161
ag162
ag160
ag160
ag162
ag126
ag160
ag160
ag162
ag161
ag160
ag160
ag162
ag160
ag162
ag126
ag161
ag162
ag161
asS'is_normalized_entropy_less_than_threshold'
p167
(lp168
g50
(g51
(S'b1'
p169
I0
I1
tp170
Rp171
(I3
S'|'
p172
NNNI-1
I-1
I0
tp173
bS'\x01'
p174
tp175
Rp176
ag176
ag176
ag176
ag176
ag176
ag176
ag176
ag176
ag176
ag176
ag50
(g171
S'\x00'
p177
tp178
Rp179
ag176
ag176
ag176
ag176
ag176
ag176
ag176
ag176
ag176
ag176
ag176
asaa(lp180
S'index'
p181
aI55740
aatp182
Rp183
.