ccollections
OrderedDict
p0
((lp1
(lp2
S'combination_dict'
p3
ag0
((lp4
(lp5
S'r_to_g_config'
p6
aS'tl'
p7
aa(lp8
S'num_turns'
p9
aI1
aa(lp10
S'start_direction'
p11
acutils_ms
StartDirection
p12
(I1
tp13
Rp14
aa(lp15
S'assistance_type'
p16
acutils_ms
AssistanceType
p17
(I1
tp18
Rp19
aa(lp20
S'start_mode'
p21
aS'x'
p22
aa(lp23
S'ui_given_a_noise'
p24
aF0.7
aa(lp25
S'um_given_ui_noise'
p26
aF0.5
aa(lp27
S'entropy_threshold'
p28
aF0.6
aatp29
Rp30
aa(lp31
S'data'
p32
accollections
defaultdict
p33
(c__builtin__
list
p34
tp35
Rp36
S'a'
p37
(lp38
S'mode_r'
p39
aS'mode_l'
p40
ag40
ag40
aS'move_p'
p41
ag39
ag39
ag39
ag39
ag39
ag41
ag39
ag39
ag40
ag40
ag40
aS'move_n'
p42
ag39
ag41
ag40
ag40
ag40
ag39
ag42
asS'assistance_match_with_ground_truth'
p43
(lp44
I00
aI00
aI00
aI01
aI01
aI00
aI00
aI00
aI00
aI01
aI01
aI00
aI00
aI00
aI00
aI01
aI00
aI01
aI01
aI00
aI00
aI00
aI01
aI01
asS'is_u_intended_equals_um'
p45
(lp46
I01
aI01
aI01
aI01
aI01
aI01
aI00
aI01
aI00
aI01
aI01
aI00
aI01
aI01
aI01
aI01
aI01
aI01
aI01
aI01
aI01
aI00
aI01
aI01
asS'total_steps'
p47
I24
sS'normalized_h_of_p_ui_given_um'
p48
(lp49
cnumpy.core.multiarray
scalar
p50
(cnumpy
dtype
p51
(S'f8'
p52
I0
I1
tp53
Rp54
(I3
S'<'
p55
NNNI-1
I-1
I0
tp56
bS'(\xe4\xd7\xab\x08\x8c\xe6?'
p57
tp58
Rp59
ag50
(g54
S's\xf8\xd7Y\rO\xee?'
p60
tp61
Rp62
ag50
(g54
S's\xf8\xd7Y\rO\xee?'
p63
tp64
Rp65
ag50
(g54
S'\xbaBM\x1d\xab\t\xe2?'
p66
tp67
Rp68
ag50
(g54
S'\x16\x87\x0b\x15\xf3\x07\xe2?'
p69
tp70
Rp71
ag50
(g54
S'\x10K\xa9\xc7\x97\r\xe8?'
p72
tp73
Rp74
ag50
(g54
S'\xf0;\xf5\r\xc6R\xe3?'
p75
tp76
Rp77
ag50
(g54
S'\x10K\xa9\xc7\x97\r\xe8?'
p78
tp79
Rp80
ag50
(g54
S'\xf0;\xf5\r\xc6R\xe3?'
p81
tp82
Rp83
ag50
(g54
S'\xf4\xd3\xea\x93\xc6H\xe1?'
p84
tp85
Rp86
ag50
(g54
S'\x16\x87\x0b\x15\xf3\x07\xe2?'
p87
tp88
Rp89
ag50
(g54
S'\xf0;\xf5\r\xc6R\xe3?'
p90
tp91
Rp92
ag50
(g54
S'(\xe4\xd7\xab\x08\x8c\xe6?'
p93
tp94
Rp95
ag50
(g54
S's\xf8\xd7Y\rO\xee?'
p96
tp97
Rp98
ag50
(g54
S'Z\x88x~\x7fn\xe6?'
p99
tp100
Rp101
ag50
(g54
S'\xbaBM\x1d\xab\t\xe2?'
p102
tp103
Rp104
ag50
(g54
S'bpd\x11\xb7\xc7\xe6?'
p105
tp106
Rp107
ag50
(g54
S'\xf4\xd3\xea\x93\xc6H\xe1?'
p108
tp109
Rp110
ag50
(g54
S'\x16\x87\x0b\x15\xf3\x07\xe2?'
p111
tp112
Rp113
ag50
(g54
S'Z\x88x~\x7fn\xe6?'
p114
tp115
Rp116
ag50
(g54
S's\xf8\xd7Y\rO\xee?'
p117
tp118
Rp119
ag50
(g54
S'.\xb6\x9a\xfc\x927\xea?'
p120
tp121
Rp122
ag50
(g54
S'\xf4\xd3\xea\x93\xc6H\xe1?'
p123
tp124
Rp125
ag50
(g54
S'-\xf3\xdc0\xcd\xe8\xe2?'
p126
tp127
Rp128
asS'sp'
p129
(lp130
(S'p0'
p131
I0
S't'
p132
tp133
a(g131
I0
g132
tp134
ag134
a(g131
I0
S'y'
p135
tp136
a(S'p1'
p137
I0
g135
tp138
a(g137
I0
g135
tp139
a(g137
I0
g135
tp140
ag139
ag140
a(g137
I0
g132
tp141
a(g137
F1.5707963267948966
g132
tp142
a(g137
F1.5707963267948966
g132
tp143
a(g137
F1.5707963267948966
g135
tp144
a(g137
F1.5707963267948966
g135
tp145
a(g137
F1.5707963267948966
g135
tp146
a(g137
F1.5707963267948966
S'x'
p147
tp148
a(g131
F1.5707963267948966
g147
tp149
a(g131
F1.5707963267948966
g135
tp150
a(g137
F1.5707963267948966
g135
tp151
ag146
ag145
a(g137
F1.5707963267948966
g132
tp152
a(g137
F1.5707963267948966
g147
tp153
a(S'p2'
p154
F1.5707963267948966
g147
tp155
asS's'
p156
(lp157
(g131
I0
g22
tp158
ag133
ag134
ag134
ag136
ag138
ag139
ag140
ag139
ag140
ag141
ag142
ag143
ag144
ag145
ag146
ag148
ag149
ag150
ag151
ag146
ag145
ag152
ag153
asS'ui'
p159
(lp160
S'hs'
p161
ag129
aS'hp'
p162
ag161
ag129
ag162
ag162
ag162
ag162
ag161
ag161
ag162
ag161
ag162
aS'ss'
p163
ag161
ag129
ag162
ag163
ag161
ag162
ag163
ag162
ag163
asS'um_before'
p164
(lp165
g161
ag129
ag129
ag161
ag129
ag163
ag129
ag163
ag129
ag162
ag129
ag129
ag161
ag129
ag163
ag161
ag129
ag162
ag129
ag163
ag129
ag162
ag162
ag163
asS'um_after'
p166
(lp167
g161
ag129
ag129
ag161
ag129
ag163
ag129
ag163
ag129
ag162
ag129
ag129
ag161
ag129
ag163
ag161
ag129
ag162
ag129
ag163
ag129
ag162
ag162
ag163
asS'is_normalized_entropy_less_than_threshold'
p168
(lp169
g50
(g51
(S'b1'
p170
I0
I1
tp171
Rp172
(I3
S'|'
p173
NNNI-1
I-1
I0
tp174
bS'\x00'
p175
tp176
Rp177
ag177
ag177
ag50
(g172
S'\x01'
p178
tp179
Rp180
ag180
ag177
ag177
ag177
ag177
ag180
ag180
ag177
ag177
ag177
ag177
ag180
ag177
ag180
ag180
ag177
ag177
ag177
ag180
ag180
asaa(lp181
S'index'
p182
aI35912
aatp183
Rp184
.