ccollections
OrderedDict
p0
((lp1
(lp2
S'combination_dict'
p3
ag0
((lp4
(lp5
S'r_to_g_config'
p6
aS'tr'
p7
aa(lp8
S'num_turns'
p9
aI2
aa(lp10
S'start_direction'
p11
acutils_ms
StartDirection
p12
(I1
tp13
Rp14
aa(lp15
S'assistance_type'
p16
acutils_ms
AssistanceType
p17
(I1
tp18
Rp19
aa(lp20
S'start_mode'
p21
aS't'
p22
aa(lp23
S'ui_given_a_noise'
p24
aF0.5
aa(lp25
S'um_given_ui_noise'
p26
aF0.5
aa(lp27
S'entropy_threshold'
p28
aF0.7
aatp29
Rp30
aa(lp31
S'data'
p32
accollections
defaultdict
p33
(c__builtin__
list
p34
tp35
Rp36
S'a'
p37
(lp38
S'mode_l'
p39
aS'mode_r'
p40
ag40
ag40
aS'move_p'
p41
ag40
ag41
ag40
ag39
ag40
ag40
ag40
ag39
ag41
ag40
ag41
ag41
ag41
ag41
ag41
ag41
ag41
ag40
ag41
ag41
ag40
ag40
ag40
ag41
ag41
ag40
ag40
ag40
ag40
ag41
ag41
ag40
ag39
ag39
ag40
ag41
ag39
ag39
ag40
ag39
ag41
ag40
ag40
ag39
ag40
ag39
ag41
ag39
ag39
ag39
ag40
ag39
ag39
ag41
ag40
ag40
ag41
ag40
ag40
ag39
ag39
ag39
ag40
ag39
ag40
ag41
ag39
ag39
ag40
ag40
ag39
ag40
ag41
asS'assistance_match_with_ground_truth'
p42
(lp43
I00
aI00
aI00
aI01
aI01
aI01
aI00
aI00
aI00
aI00
aI00
aI00
aI01
aI00
aI01
aI00
aI00
aI00
aI00
aI00
aI00
aI00
aI01
aI00
aI01
aI00
aI00
aI01
aI00
aI00
aI00
aI00
aI00
aI01
aI00
aI01
aI00
aI00
aI00
aI01
aI00
aI00
aI00
aI00
aI01
aI00
aI00
aI00
aI00
aI00
aI01
aI01
aI00
aI00
aI00
aI00
aI00
aI01
aI01
aI00
aI01
aI00
aI00
aI00
aI00
aI00
aI00
aI00
aI00
aI01
aI00
aI00
aI00
aI00
aI00
aI00
aI01
aI01
asS'is_u_intended_equals_um'
p44
(lp45
I00
aI00
aI00
aI01
aI01
aI01
aI00
aI01
aI00
aI00
aI00
aI01
aI01
aI00
aI01
aI00
aI00
aI00
aI00
aI00
aI00
aI00
aI01
aI00
aI01
aI00
aI00
aI01
aI00
aI00
aI00
aI00
aI00
aI01
aI00
aI01
aI01
aI01
aI00
aI01
aI01
aI01
aI00
aI01
aI01
aI00
aI00
aI01
aI00
aI01
aI01
aI01
aI00
aI00
aI00
aI01
aI00
aI01
aI01
aI00
aI01
aI00
aI00
aI01
aI01
aI01
aI00
aI01
aI00
aI01
aI01
aI00
aI00
aI00
aI01
aI00
aI01
aI01
asS'total_steps'
p46
I78
sS'normalized_h_of_p_ui_given_um'
p47
(lp48
cnumpy.core.multiarray
scalar
p49
(cnumpy
dtype
p50
(S'f8'
p51
I0
I1
tp52
Rp53
(I3
S'<'
p54
NNNI-1
I-1
I0
tp55
bS'\xd8m\x83<\xb9\xa3\xe9?'
p56
tp57
Rp58
ag49
(g53
S'j\xa0\xf6}&\xb5\xec?'
p59
tp60
Rp61
ag49
(g53
S'j\xa0\xf6}&\xb5\xec?'
p62
tp63
Rp64
ag49
(g53
S'\xdc\xadf\xea{\xe6\xe0?'
p65
tp66
Rp67
ag49
(g53
S'\x90\xad\x02\xdaV@\xdd?'
p68
tp69
Rp70
ag49
(g53
S'\xdc\xadf\xea{\xe6\xe0?'
p71
tp72
Rp73
ag49
(g53
S'\x80\xafbFf\x80\xec?'
p74
tp75
Rp76
ag49
(g53
S't\xd1\xed\xc8#\xee\xed?'
p77
tp78
Rp79
ag49
(g53
S'\xb0\xb7:!\xae\x9a\xee?'
p80
tp81
Rp82
ag49
(g53
S'\xf0u\x06T\xf3\x8c\xe8?'
p83
tp84
Rp85
ag49
(g53
S'j\xa0\xf6}&\xb5\xec?'
p86
tp87
Rp88
ag49
(g53
S't\xd1\xed\xc8#\xee\xed?'
p89
tp90
Rp91
ag49
(g53
S'\x9e\x9ec\xbao\xbf\xe6?'
p92
tp93
Rp94
ag49
(g53
S'\x80\xafbFf\x80\xec?'
p95
tp96
Rp97
ag49
(g53
S'\xdc\xadf\xea{\xe6\xe0?'
p98
tp99
Rp100
ag49
(g53
S'\xa2\xfa\xe9\x9c\xb5\xf3\xec?'
p101
tp102
Rp103
ag49
(g53
S'\xa2\xfa\xe9\x9c\xb5\xf3\xec?'
p104
tp105
Rp106
ag49
(g53
S'\xa2\xfa\xe9\x9c\xb5\xf3\xec?'
p107
tp108
Rp109
ag49
(g53
S'\xa2\xfa\xe9\x9c\xb5\xf3\xec?'
p110
tp111
Rp112
ag49
(g53
S'\xa2\xfa\xe9\x9c\xb5\xf3\xec?'
p113
tp114
Rp115
ag49
(g53
S'\xa2\xfa\xe9\x9c\xb5\xf3\xec?'
p116
tp117
Rp118
ag49
(g53
S'\x80\xafbFf\x80\xec?'
p119
tp120
Rp121
ag49
(g53
S'\xdc\xadf\xea{\xe6\xe0?'
p122
tp123
Rp124
ag49
(g53
S'\xa2\xfa\xe9\x9c\xb5\xf3\xec?'
p125
tp126
Rp127
ag49
(g53
S'\x90\xad\x02\xdaV@\xdd?'
p128
tp129
Rp130
ag49
(g53
S'\xf0u\x06T\xf3\x8c\xe8?'
p131
tp132
Rp133
ag49
(g53
S'j\xa0\xf6}&\xb5\xec?'
p134
tp135
Rp136
ag49
(g53
S'\xdc\xadf\xea{\xe6\xe0?'
p137
tp138
Rp139
ag49
(g53
S'\xa2\xfa\xe9\x9c\xb5\xf3\xec?'
p140
tp141
Rp142
ag49
(g53
S'\x80\xafbFf\x80\xec?'
p143
tp144
Rp145
ag49
(g53
S'\xf0u\x06T\xf3\x8c\xe8?'
p146
tp147
Rp148
ag49
(g53
S'j\xa0\xf6}&\xb5\xec?'
p149
tp150
Rp151
ag49
(g53
S'\xf0u\x06T\xf3\x8c\xe8?'
p152
tp153
Rp154
ag49
(g53
S'\xdc\xadf\xea{\xe6\xe0?'
p155
tp156
Rp157
ag49
(g53
S'\xa2\xfa\xe9\x9c\xb5\xf3\xec?'
p158
tp159
Rp160
ag49
(g53
S'\x90\xad\x02\xdaV@\xdd?'
p161
tp162
Rp163
ag49
(g53
S't\xd1\xed\xc8#\xee\xed?'
p164
tp165
Rp166
ag49
(g53
S'\xbb\x83\xb7=\xd3\xdc\xe8?'
p167
tp168
Rp169
ag49
(g53
S'\xd8m\x83<\xb9\xa3\xe9?'
p170
tp171
Rp172
ag49
(g53
S'\xdc\xadf\xea{\xe6\xe0?'
p173
tp174
Rp175
ag49
(g53
S'\x9e\x16w\xe4k\xe9\xec?'
p176
tp177
Rp178
ag49
(g53
S'\xbb\x83\xb7=\xd3\xdc\xe8?'
p179
tp180
Rp181
ag49
(g53
S'\xd8m\x83<\xb9\xa3\xe9?'
p182
tp183
Rp184
ag49
(g53
S't\xd1\xed\xc8#\xee\xed?'
p185
tp186
Rp187
ag49
(g53
S'\x9e\x9ec\xbao\xbf\xe6?'
p188
tp189
Rp190
ag49
(g53
S'\xa2\xfa\xe9\x9c\xb5\xf3\xec?'
p191
tp192
Rp193
ag49
(g53
S'j\xa0\xf6}&\xb5\xec?'
p194
tp195
Rp196
ag49
(g53
S't\xd1\xed\xc8#\xee\xed?'
p197
tp198
Rp199
ag49
(g53
S'\xd8m\x83<\xb9\xa3\xe9?'
p200
tp201
Rp202
ag49
(g53
S't\xd1\xed\xc8#\xee\xed?'
p203
tp204
Rp205
ag49
(g53
S'\x9e\x9ec\xbao\xbf\xe6?'
p206
tp207
Rp208
ag49
(g53
S'\x90\xad\x02\xdaV@\xdd?'
p209
tp210
Rp211
ag49
(g53
S'\xb0\xb7:!\xae\x9a\xee?'
p212
tp213
Rp214
ag49
(g53
S'\xb0\xb7:!\xae\x9a\xee?'
p215
tp216
Rp217
ag49
(g53
S'\xd8m\x83<\xb9\xa3\xe9?'
p218
tp219
Rp220
ag49
(g53
S't\xd1\xed\xc8#\xee\xed?'
p221
tp222
Rp223
ag49
(g53
S'\xb0\xb7:!\xae\x9a\xee?'
p224
tp225
Rp226
ag49
(g53
S'\x9e\x9ec\xbao\xbf\xe6?'
p227
tp228
Rp229
ag49
(g53
S'\x90\xad\x02\xdaV@\xdd?'
p230
tp231
Rp232
ag49
(g53
S'j\xa0\xf6}&\xb5\xec?'
p233
tp234
Rp235
ag49
(g53
S'\xdc\xadf\xea{\xe6\xe0?'
p236
tp237
Rp238
ag49
(g53
S'\x80\xafbFf\x80\xec?'
p239
tp240
Rp241
ag49
(g53
S'\xf0u\x06T\xf3\x8c\xe8?'
p242
tp243
Rp244
ag49
(g53
S't\xd1\xed\xc8#\xee\xed?'
p245
tp246
Rp247
ag49
(g53
S'\xbb\x83\xb7=\xd3\xdc\xe8?'
p248
tp249
Rp250
ag49
(g53
S'\xbb\x83\xb7=\xd3\xdc\xe8?'
p251
tp252
Rp253
ag49
(g53
S'\xd8m\x83<\xb9\xa3\xe9?'
p254
tp255
Rp256
ag49
(g53
S't\xd1\xed\xc8#\xee\xed?'
p257
tp258
Rp259
ag49
(g53
S'\xd8m\x83<\xb9\xa3\xe9?'
p260
tp261
Rp262
ag49
(g53
S'\xdc\xadf\xea{\xe6\xe0?'
p263
tp264
Rp265
ag49
(g53
S'\x9e\x16w\xe4k\xe9\xec?'
p266
tp267
Rp268
ag49
(g53
S'\xb0\xb7:!\xae\x9a\xee?'
p269
tp270
Rp271
ag49
(g53
S'\xd8m\x83<\xb9\xa3\xe9?'
p272
tp273
Rp274
ag49
(g53
S'j\xa0\xf6}&\xb5\xec?'
p275
tp276
Rp277
ag49
(g53
S't\xd1\xed\xc8#\xee\xed?'
p278
tp279
Rp280
ag49
(g53
S'\xd8m\x83<\xb9\xa3\xe9?'
p281
tp282
Rp283
ag49
(g53
S'\xdc\xadf\xea{\xe6\xe0?'
p284
tp285
Rp286
ag49
(g53
S'\x90\xad\x02\xdaV@\xdd?'
p287
tp288
Rp289
asS'sp'
p290
(lp291
(S'p0'
p292
I0
S'x'
p293
tp294
a(g292
I0
g293
tp295
ag295
a(g292
I0
S'y'
p296
tp297
a(S'p1'
p298
I0
g296
tp299
a(g298
I0
S't'
p300
tp301
a(g298
I0
g296
tp302
a(g298
I0
g293
tp303
a(g292
I0
g293
tp304
a(g292
I0
g293
tp305
ag295
a(g292
I0
g300
tp306
a(g292
I0
g296
tp307
a(g292
I0
g293
tp308
ag297
a(g292
I0
g296
tp309
ag309
ag309
ag309
ag309
ag309
ag308
ag297
ag309
ag299
a(g298
I0
g296
tp310
a(g298
I0
g296
tp311
ag301
a(g298
I0
g300
tp312
ag302
ag310
ag311
ag310
ag301
ag312
a(g298
F1.5707963267948966
g300
tp313
a(g298
F1.5707963267948966
g296
tp314
a(g298
F1.5707963267948966
g296
tp315
a(g298
F1.5707963267948966
g300
tp316
a(g298
F1.5707963267948966
g293
tp317
a(g298
F1.5707963267948966
g296
tp318
ag315
ag316
ag314
a(g298
F1.5707963267948966
g293
tp319
a(g292
F1.5707963267948966
g293
tp320
a(g292
F1.5707963267948966
g293
tp321
a(g292
F1.5707963267948966
g300
tp322
a(g292
F1.5707963267948966
g293
tp323
ag322
a(g292
F1.5707963267948966
g296
tp324
a(g298
F1.5707963267948966
g296
tp325
a(g298
F1.5707963267948966
g296
tp326
ag326
ag316
ag314
ag326
ag319
a(S'p2'
p327
F1.5707963267948966
g293
tp328
a(g327
F1.5707963267948966
g293
tp329
a(g327
F1.5707963267948966
g296
tp330
a(g327
F1.5707963267948966
g293
tp331
a(g327
F1.5707963267948966
g293
tp332
a(g327
F1.5707963267948966
g300
tp333
a(g327
F1.5707963267948966
g300
tp334
ag334
a(g327
F1.5707963267948966
g293
tp335
ag333
ag335
ag330
a(g327
F1.5707963267948966
g300
tp336
a(g327
F1.5707963267948966
g300
tp337
ag335
ag329
ag333
ag335
ag330
a(S'p3'
p338
F1.5707963267948966
g296
tp339
asS's'
p340
(lp341
(g292
I0
g22
tp342
ag294
ag295
ag295
ag297
ag299
ag301
ag302
ag303
ag304
ag305
ag295
ag306
ag307
ag308
ag297
ag309
ag309
ag309
ag309
ag309
ag309
ag308
ag297
ag309
ag299
ag310
ag311
ag301
ag312
ag302
ag310
ag311
ag310
ag301
ag312
ag313
ag314
ag315
ag316
ag317
ag318
ag315
ag316
ag314
ag319
ag320
ag321
ag322
ag323
ag322
ag324
ag325
ag326
ag326
ag316
ag314
ag326
ag319
ag328
ag329
ag330
ag331
ag332
ag333
ag334
ag334
ag335
ag333
ag335
ag330
ag336
ag337
ag335
ag329
ag333
ag335
ag330
asS'ui'
p343
(lp344
S'hs'
p345
aS'hp'
p346
ag346
ag346
ag290
ag346
ag345
ag345
ag345
ag290
ag346
aS'ss'
p347
ag345
ag290
ag346
ag346
ag346
ag290
ag290
ag290
ag345
ag347
ag346
ag290
ag290
ag290
ag290
ag345
ag290
ag290
ag346
ag347
ag347
ag346
ag347
ag290
ag290
ag290
ag345
ag346
ag290
ag290
ag345
ag345
ag345
ag290
ag347
ag290
ag290
ag346
ag345
ag290
ag345
ag347
ag346
ag345
ag346
ag345
ag290
ag346
ag345
ag347
ag290
ag347
ag290
ag290
ag346
ag346
ag290
ag346
ag345
ag290
ag346
ag346
ag347
ag346
ag345
ag290
asS'um_before'
p348
(lp349
g346
ag347
ag347
ag346
ag290
ag346
ag345
ag345
ag347
ag290
ag347
ag345
ag345
ag345
ag346
ag347
ag347
ag347
ag347
ag347
ag347
ag345
ag346
ag347
ag290
ag290
ag347
ag346
ag347
ag345
ag290
ag347
ag290
ag346
ag347
ag290
ag345
ag290
ag346
ag346
ag346
ag290
ag346
ag345
ag345
ag347
ag347
ag345
ag346
ag345
ag345
ag290
ag347
ag347
ag346
ag345
ag347
ag345
ag290
ag347
ag346
ag345
ag290
ag345
ag290
ag290
ag346
ag345
ag346
ag346
ag346
ag347
ag346
ag347
ag345
ag346
ag346
ag290
asS'um_after'
p350
(lp351
g346
ag347
ag347
ag346
ag290
ag346
ag345
ag345
ag347
ag290
ag347
ag345
ag345
ag345
ag346
ag347
ag347
ag347
ag347
ag347
ag347
ag345
ag346
ag347
ag290
ag290
ag347
ag346
ag347
ag345
ag290
ag347
ag290
ag346
ag347
ag290
ag345
ag290
ag346
ag346
ag346
ag290
ag346
ag345
ag345
ag347
ag347
ag345
ag346
ag345
ag345
ag290
ag347
ag347
ag346
ag345
ag347
ag345
ag290
ag347
ag346
ag345
ag290
ag345
ag290
ag290
ag346
ag345
ag346
ag346
ag346
ag347
ag346
ag347
ag345
ag346
ag346
ag290
asS'is_normalized_entropy_less_than_threshold'
p352
(lp353
g49
(g50
(S'b1'
p354
I0
I1
tp355
Rp356
(I3
S'|'
p357
NNNI-1
I-1
I0
tp358
bS'\x00'
p359
tp360
Rp361
ag361
ag361
ag49
(g356
S'\x01'
p362
tp363
Rp364
ag364
ag364
ag361
ag361
ag361
ag361
ag361
ag361
ag361
ag361
ag364
ag361
ag361
ag361
ag361
ag361
ag361
ag361
ag364
ag361
ag364
ag361
ag361
ag364
ag361
ag361
ag361
ag361
ag361
ag364
ag361
ag364
ag361
ag361
ag361
ag364
ag361
ag361
ag361
ag361
ag361
ag361
ag361
ag361
ag361
ag361
ag361
ag364
ag361
ag361
ag361
ag361
ag361
ag361
ag364
ag361
ag364
ag361
ag361
ag361
ag361
ag361
ag361
ag361
ag361
ag364
ag361
ag361
ag361
ag361
ag361
ag361
ag364
ag364
asaa(lp365
S'index'
p366
aI17322
aatp367
Rp368
.