ccollections
OrderedDict
p0
((lp1
(lp2
S'combination_dict'
p3
ag0
((lp4
(lp5
S'r_to_g_config'
p6
aS'tl'
p7
aa(lp8
S'num_turns'
p9
aI3
aa(lp10
S'start_direction'
p11
acutils_ms
StartDirection
p12
(I0
tp13
Rp14
aa(lp15
S'assistance_type'
p16
acutils_ms
AssistanceType
p17
(I0
tp18
Rp19
aa(lp20
S'start_mode'
p21
aS't'
p22
aa(lp23
S'ui_given_a_noise'
p24
aF0.3
aa(lp25
S'um_given_ui_noise'
p26
aF0.7
aa(lp27
S'entropy_threshold'
p28
aF0.5
aatp29
Rp30
aa(lp31
S'data'
p32
accollections
defaultdict
p33
(c__builtin__
list
p34
tp35
Rp36
S'a'
p37
(lp38
S'mode_r'
p39
aS'mode_l'
p40
aS'move_n'
p41
ag39
ag39
ag41
ag40
ag39
ag40
ag40
ag40
ag41
ag40
ag41
ag40
aS'move_p'
p42
ag42
ag42
ag42
ag42
ag40
ag42
ag39
ag42
ag39
ag42
ag40
ag40
ag40
ag40
ag40
ag39
ag39
ag41
ag39
ag39
ag40
ag42
ag39
ag40
ag40
ag39
ag39
ag42
ag42
ag40
ag39
ag42
ag42
ag39
ag42
ag42
ag39
ag40
ag40
ag40
ag40
ag41
ag39
ag41
ag40
ag40
ag40
ag42
ag42
ag42
ag40
ag42
ag40
ag39
ag42
ag39
ag40
ag42
ag40
ag41
ag39
ag42
ag39
ag39
ag42
ag40
ag40
ag41
ag40
ag40
ag41
ag40
ag40
ag40
ag41
ag39
ag42
ag40
ag40
ag42
ag40
ag42
asS'assistance_match_with_ground_truth'
p43
(lp44
I00
aI01
aI00
aI00
aI01
aI01
aI00
aI00
aI00
aI00
aI01
aI00
aI01
aI01
aI01
aI00
aI00
aI00
aI00
aI01
aI01
aI00
aI01
aI00
aI01
aI00
aI00
aI00
aI00
aI00
aI00
aI00
aI01
aI01
aI00
aI00
aI00
aI00
aI00
aI00
aI00
aI00
aI01
aI00
aI00
aI00
aI01
aI00
aI00
aI01
aI00
aI00
aI00
aI00
aI00
aI00
aI01
aI00
aI01
aI01
aI00
aI00
aI01
aI00
aI00
aI01
aI01
aI00
aI00
aI01
aI00
aI00
aI01
aI01
aI01
aI01
aI01
aI00
aI00
aI01
aI00
aI00
aI01
aI00
aI00
aI01
aI00
aI00
aI00
aI01
aI01
aI01
aI00
aI00
aI01
aI00
aI01
aI01
asS'is_u_intended_equals_um'
p45
(lp46
I00
aI01
aI00
aI00
aI01
aI01
aI00
aI01
aI00
aI01
aI01
aI00
aI01
aI01
aI01
aI00
aI00
aI00
aI00
aI01
aI01
aI00
aI01
aI00
aI01
aI00
aI00
aI00
aI01
aI00
aI00
aI00
aI01
aI01
aI01
aI00
aI00
aI00
aI00
aI01
aI00
aI00
aI01
aI00
aI01
aI00
aI01
aI00
aI00
aI01
aI00
aI00
aI01
aI00
aI00
aI00
aI01
aI00
aI01
aI01
aI00
aI00
aI01
aI00
aI00
aI01
aI01
aI01
aI00
aI01
aI00
aI00
aI01
aI01
aI01
aI01
aI01
aI00
aI00
aI01
aI00
aI01
aI01
aI00
aI00
aI01
aI00
aI00
aI00
aI01
aI01
aI01
aI01
aI00
aI01
aI01
aI01
aI01
asS'total_steps'
p47
I98
sS'normalized_h_of_p_ui_given_um'
p48
(lp49
cnumpy.core.multiarray
scalar
p50
(cnumpy
dtype
p51
(S'f8'
p52
I0
I1
tp53
Rp54
(I3
S'<'
p55
NNNI-1
I-1
I0
tp56
bS'\x9e\xf190\\\xb4\xea?'
p57
tp58
Rp59
ag50
(g54
S'\xe4A\xabD\x92\xab\xdc?'
p60
tp61
Rp62
ag50
(g54
S'V\x9cl\xcb\xba\x84\xe9?'
p63
tp64
Rp65
ag50
(g54
S't\xb4+W\x11\x9c\xd9?'
p66
tp67
Rp68
ag50
(g54
S'\x9a%\x1e\xbaf\xe2\xd2?'
p69
tp70
Rp71
ag50
(g54
S'\xe2\xd2\xa5]\xb7\x8b\xe3?'
p72
tp73
Rp74
ag50
(g54
S'\xb0\xc0u\xa6\xf6\xd8\xe9?'
p75
tp76
Rp77
ag50
(g54
S'\x8c\xe1\x945\xa6\x00\xe7?'
p78
tp79
Rp80
ag50
(g54
S'\xd8\xcbZ7\xbf\x10\xe6?'
p81
tp82
Rp83
ag50
(g54
S'N\x12B\x1f?\xfe\xee?'
p84
tp85
Rp86
ag50
(g54
S'\xe4A\xabD\x92\xab\xdc?'
p87
tp88
Rp89
ag50
(g54
S'\xc0\xe8\xfcs\xfa\x84\xe6?'
p90
tp91
Rp92
ag50
(g54
S'\xe4A\xabD\x92\xab\xdc?'
p93
tp94
Rp95
ag50
(g54
S'\xe2\xd2\xa5]\xb7\x8b\xe3?'
p96
tp97
Rp98
ag50
(g54
S'\xe4A\xabD\x92\xab\xdc?'
p99
tp100
Rp101
ag50
(g54
S'\x88\xaan`(\x9d\xe6?'
p102
tp103
Rp104
ag50
(g54
S'\x88\xaan`(\x9d\xe6?'
p105
tp106
Rp107
ag50
(g54
S'\x88\xaan`(\x9d\xe6?'
p108
tp109
Rp110
ag50
(g54
S'\x88\xaan`(\x9d\xe6?'
p111
tp112
Rp113
ag50
(g54
S'\xee\x80U\x90\xf1\x95\xdf?'
p114
tp115
Rp116
ag50
(g54
S'\xe4A\xabD\x92\xab\xdc?'
p117
tp118
Rp119
ag50
(g54
S'JD\x0b\xde\xaf\xf4\xe5?'
p120
tp121
Rp122
ag50
(g54
S'\x9a%\x1e\xbaf\xe2\xd2?'
p123
tp124
Rp125
ag50
(g54
S'JD\x0b\xde\xaf\xf4\xe5?'
p126
tp127
Rp128
ag50
(g54
S'\x9a%\x1e\xbaf\xe2\xd2?'
p129
tp130
Rp131
ag50
(g54
S'\x88\xaan`(\x9d\xe6?'
p132
tp133
Rp134
ag50
(g54
S'\xd8\xcbZ7\xbf\x10\xe6?'
p135
tp136
Rp137
ag50
(g54
S'\xd8\xcbZ7\xbf\x10\xe6?'
p138
tp139
Rp140
ag50
(g54
S'N\x12B\x1f?\xfe\xee?'
p141
tp142
Rp143
ag50
(g54
S'\xd8\xcbZ7\xbf\x10\xe6?'
p144
tp145
Rp146
ag50
(g54
S'\xb0\xc0u\xa6\xf6\xd8\xe9?'
p147
tp148
Rp149
ag50
(g54
S't\xb4+W\x11\x9c\xd9?'
p150
tp151
Rp152
ag50
(g54
S'\x9a%\x1e\xbaf\xe2\xd2?'
p153
tp154
Rp155
ag50
(g54
S'\xe2\xd2\xa5]\xb7\x8b\xe3?'
p156
tp157
Rp158
ag50
(g54
S'\x8c\xe1\x945\xa6\x00\xe7?'
p159
tp160
Rp161
ag50
(g54
S'\x9e\xf190\\\xb4\xea?'
p162
tp163
Rp164
ag50
(g54
S'\xd8\xcbZ7\xbf\x10\xe6?'
p165
tp166
Rp167
ag50
(g54
S'JD\x0b\xde\xaf\xf4\xe5?'
p168
tp169
Rp170
ag50
(g54
S'\x9e\xf190\\\xb4\xea?'
p171
tp172
Rp173
ag50
(g54
S'N\x12B\x1f?\xfe\xee?'
p174
tp175
Rp176
ag50
(g54
S'\xb0\xc0u\xa6\xf6\xd8\xe9?'
p177
tp178
Rp179
ag50
(g54
S't\xb4+W\x11\x9c\xd9?'
p180
tp181
Rp182
ag50
(g54
S'\x9a%\x1e\xbaf\xe2\xd2?'
p183
tp184
Rp185
ag50
(g54
S'\x88\xaan`(\x9d\xe6?'
p186
tp187
Rp188
ag50
(g54
S';\xb5\xb7\xf3\x94\x02\xe9?'
p189
tp190
Rp191
ag50
(g54
S'\xb0\xc0u\xa6\xf6\xd8\xe9?'
p192
tp193
Rp194
ag50
(g54
S'\x9a%\x1e\xbaf\xe2\xd2?'
p195
tp196
Rp197
ag50
(g54
S'\x88\xaan`(\x9d\xe6?'
p198
tp199
Rp200
ag50
(g54
S'JD\x0b\xde\xaf\xf4\xe5?'
p201
tp202
Rp203
ag50
(g54
S'\x9a%\x1e\xbaf\xe2\xd2?'
p204
tp205
Rp206
ag50
(g54
S'\x88\xaan`(\x9d\xe6?'
p207
tp208
Rp209
ag50
(g54
S'JD\x0b\xde\xaf\xf4\xe5?'
p210
tp211
Rp212
ag50
(g54
S'\x8c\xe1\x945\xa6\x00\xe7?'
p213
tp214
Rp215
ag50
(g54
S'\xd8\xcbZ7\xbf\x10\xe6?'
p216
tp217
Rp218
ag50
(g54
S'\xd8\xcbZ7\xbf\x10\xe6?'
p219
tp220
Rp221
ag50
(g54
S'\xd8\xcbZ7\xbf\x10\xe6?'
p222
tp223
Rp224
ag50
(g54
S'\xe4A\xabD\x92\xab\xdc?'
p225
tp226
Rp227
ag50
(g54
S'V\x9cl\xcb\xba\x84\xe9?'
p228
tp229
Rp230
ag50
(g54
S'\x9a%\x1e\xbaf\xe2\xd2?'
p231
tp232
Rp233
ag50
(g54
S'\xe2\xd2\xa5]\xb7\x8b\xe3?'
p234
tp235
Rp236
ag50
(g54
S'\xd8\xcbZ7\xbf\x10\xe6?'
p237
tp238
Rp239
ag50
(g54
S'\xd8\xcbZ7\xbf\x10\xe6?'
p240
tp241
Rp242
ag50
(g54
S'\xe4A\xabD\x92\xab\xdc?'
p243
tp244
Rp245
ag50
(g54
S'\x88\xaan`(\x9d\xe6?'
p246
tp247
Rp248
ag50
(g54
S'\x88\xaan`(\x9d\xe6?'
p249
tp250
Rp251
ag50
(g54
S'\xee\x80U\x90\xf1\x95\xdf?'
p252
tp253
Rp254
ag50
(g54
S'\xe4A\xabD\x92\xab\xdc?'
p255
tp256
Rp257
ag50
(g54
S';\xb5\xb7\xf3\x94\x02\xe9?'
p258
tp259
Rp260
ag50
(g54
S'\xb0\xc0u\xa6\xf6\xd8\xe9?'
p261
tp262
Rp263
ag50
(g54
S'\x9a%\x1e\xbaf\xe2\xd2?'
p264
tp265
Rp266
ag50
(g54
S'JD\x0b\xde\xaf\xf4\xe5?'
p267
tp268
Rp269
ag50
(g54
S'\x9e\xf190\\\xb4\xea?'
p270
tp271
Rp272
ag50
(g54
S'\xe4A\xabD\x92\xab\xdc?'
p273
tp274
Rp275
ag50
(g54
S'\xee\x80U\x90\xf1\x95\xdf?'
p276
tp277
Rp278
ag50
(g54
S'\xe4A\xabD\x92\xab\xdc?'
p279
tp280
Rp281
ag50
(g54
S'\xe2\xd2\xa5]\xb7\x8b\xe3?'
p282
tp283
Rp284
ag50
(g54
S'\x9a%\x1e\xbaf\xe2\xd2?'
p285
tp286
Rp287
ag50
(g54
S'JD\x0b\xde\xaf\xf4\xe5?'
p288
tp289
Rp290
ag50
(g54
S't\xb4+W\x11\x9c\xd9?'
p291
tp292
Rp293
ag50
(g54
S'\x9a%\x1e\xbaf\xe2\xd2?'
p294
tp295
Rp296
ag50
(g54
S'\x88\xaan`(\x9d\xe6?'
p297
tp298
Rp299
ag50
(g54
S'N\x12B\x1f?\xfe\xee?'
p300
tp301
Rp302
ag50
(g54
S'\xe4A\xabD\x92\xab\xdc?'
p303
tp304
Rp305
ag50
(g54
S'\xc0\xe8\xfcs\xfa\x84\xe6?'
p306
tp307
Rp308
ag50
(g54
S'\xd8\xcbZ7\xbf\x10\xe6?'
p309
tp310
Rp311
ag50
(g54
S'\xe4A\xabD\x92\xab\xdc?'
p312
tp313
Rp314
ag50
(g54
S'\xc0\xe8\xfcs\xfa\x84\xe6?'
p315
tp316
Rp317
ag50
(g54
S'\xd8\xcbZ7\xbf\x10\xe6?'
p318
tp319
Rp320
ag50
(g54
S'\xd8\xcbZ7\xbf\x10\xe6?'
p321
tp322
Rp323
ag50
(g54
S'\xe4A\xabD\x92\xab\xdc?'
p324
tp325
Rp326
ag50
(g54
S'\xe2\xd2\xa5]\xb7\x8b\xe3?'
p327
tp328
Rp329
ag50
(g54
S'\x9a%\x1e\xbaf\xe2\xd2?'
p330
tp331
Rp332
ag50
(g54
S';\xb5\xb7\xf3\x94\x02\xe9?'
p333
tp334
Rp335
ag50
(g54
S'\xd8\xcbZ7\xbf\x10\xe6?'
p336
tp337
Rp338
ag50
(g54
S'\xe4A\xabD\x92\xab\xdc?'
p339
tp340
Rp341
ag50
(g54
S';\xb5\xb7\xf3\x94\x02\xe9?'
p342
tp343
Rp344
ag50
(g54
S'\xe4A\xabD\x92\xab\xdc?'
p345
tp346
Rp347
ag50
(g54
S'\xee\x80U\x90\xf1\x95\xdf?'
p348
tp349
Rp350
asS'sp'
p351
(lp352
(S'p0'
p353
I0
S'y'
p354
tp355
a(g353
I0
S'x'
p356
tp357
a(g353
I0
S't'
p358
tp359
ag359
a(g353
I0
g356
tp360
a(S'p1'
p361
I0
g356
tp362
a(g361
I0
g354
tp363
a(g353
I0
g354
tp364
a(g353
I0
g354
tp365
a(g353
I0
g354
tp366
ag357
a(g353
I0
g354
tp367
ag357
ag362
a(g361
I0
g358
tp368
a(g361
I0
g358
tp369
ag369
ag369
ag369
a(g361
F1.5707963267948966
g358
tp370
a(g361
F1.5707963267948966
g354
tp371
a(g361
F1.5707963267948966
g356
tp372
a(g361
F1.5707963267948966
g354
tp373
ag372
ag373
a(g353
F1.5707963267948966
g354
tp374
a(g353
F1.5707963267948966
g354
tp375
ag375
a(g353
F1.5707963267948966
g354
tp376
ag375
a(g353
F1.5707963267948966
g358
tp377
ag377
a(g353
F1.5707963267948966
g356
tp378
a(g361
F1.5707963267948966
g356
tp379
a(g361
F1.5707963267948966
g356
tp380
a(g361
F1.5707963267948966
g358
tp381
a(g361
I0
g358
tp382
a(g361
I0
g354
tp383
a(g361
I0
g356
tp384
a(g361
I0
g356
tp385
ag363
ag363
a(g361
I0
g358
tp386
ag369
a(g361
I0
g356
tp387
ag363
ag386
ag369
ag383
ag386
ag369
ag383
ag364
ag365
ag365
ag365
ag357
ag359
ag360
ag362
a(g361
I0
g356
tp388
ag388
ag368
ag369
ag369
ag370
ag371
a(g361
F1.5707963267948966
g358
tp389
a(g361
F1.5707963267948966
g356
tp390
ag373
ag372
ag381
ag371
a(S'p2'
p391
F1.5707963267948966
g354
tp392
a(g391
F1.5707963267948966
g356
tp393
a(S'p3'
p394
F1.5707963267948966
g356
tp395
a(g394
F1.5707963267948966
g354
tp396
a(g394
F1.5707963267948966
g356
tp397
ag397
ag396
a(g391
F1.5707963267948966
g354
tp398
a(g391
F1.5707963267948966
g354
tp399
ag393
a(g391
F1.5707963267948966
g354
tp400
a(g391
F1.5707963267948966
g354
tp401
ag393
ag400
ag401
ag401
ag393
ag395
ag396
a(g394
F1.5707963267948966
g358
tp402
a(g394
F1.5707963267948966
g358
tp403
a(g394
F1.5707963267948966
g354
tp404
ag402
ag404
a(S'p4'
p405
F1.5707963267948966
g354
tp406
asS's'
p407
(lp408
(g353
I0
g22
tp409
ag355
ag357
ag359
ag359
ag360
ag362
ag363
ag364
ag365
ag366
ag357
ag367
ag357
ag362
ag368
ag369
ag369
ag369
ag369
ag370
ag371
ag372
ag373
ag372
ag373
ag374
ag375
ag375
ag376
ag375
ag377
ag377
ag378
ag379
ag380
ag381
ag382
ag383
ag384
ag385
ag363
ag363
ag386
ag369
ag387
ag363
ag386
ag369
ag383
ag386
ag369
ag383
ag364
ag365
ag365
ag365
ag357
ag359
ag360
ag362
ag388
ag388
ag368
ag369
ag369
ag370
ag371
ag389
ag390
ag373
ag372
ag381
ag371
ag392
ag393
ag395
ag396
ag397
ag397
ag396
ag398
ag399
ag393
ag400
ag401
ag393
ag400
ag401
ag401
ag393
ag395
ag396
ag402
ag403
ag404
ag402
ag404
asS'ui'
p410
(lp411
S'ss'
p412
aS'hs'
p413
ag413
aS'hp'
p414
ag414
ag413
ag413
ag413
ag351
ag414
ag412
ag414
ag413
ag413
ag413
ag351
ag351
ag351
ag351
ag351
ag413
ag351
ag414
ag413
ag414
ag351
ag413
ag413
ag351
ag351
ag414
ag414
ag414
ag413
ag414
ag413
ag413
ag351
ag412
ag414
ag414
ag414
ag412
ag351
ag414
ag414
ag414
ag351
ag351
ag414
ag351
ag412
ag412
ag413
ag412
ag413
ag413
ag412
ag414
ag351
ag413
ag413
ag413
ag412
ag413
ag351
ag413
ag412
ag414
ag414
ag351
ag414
ag413
ag412
ag414
ag351
ag414
ag412
ag412
ag414
ag351
ag414
ag413
ag414
ag413
ag413
ag414
ag413
ag413
ag413
ag412
ag414
ag414
ag412
ag413
ag414
ag412
ag351
asS'um_before'
p415
(lp416
g413
ag413
ag413
ag351
ag414
ag412
ag414
ag412
ag412
ag351
ag413
ag414
ag413
ag412
ag413
ag412
ag412
ag412
ag412
ag351
ag413
ag413
ag414
ag413
ag414
ag412
ag412
ag412
ag351
ag412
ag414
ag351
ag414
ag412
ag412
ag413
ag412
ag413
ag413
ag351
ag414
ag351
ag414
ag412
ag414
ag414
ag414
ag412
ag413
ag414
ag412
ag413
ag412
ag412
ag412
ag412
ag413
ag413
ag414
ag412
ag412
ag412
ag413
ag412
ag412
ag351
ag413
ag414
ag414
ag414
ag413
ag413
ag413
ag351
ag413
ag412
ag414
ag413
ag351
ag414
ag412
ag351
ag413
ag414
ag412
ag413
ag414
ag412
ag412
ag413
ag412
ag414
ag414
ag412
ag413
ag414
ag413
ag351
asS'um_after'
p417
(lp418
g413
ag413
ag413
aNag414
ag412
ag414
ag412
ag412
ag351
ag413
ag414
ag413
ag412
ag413
ag412
ag412
ag412
ag412
ag351
ag413
ag413
ag414
ag413
ag414
ag412
ag412
ag412
ag351
ag412
ag414
aNag414
ag412
ag412
ag413
ag412
ag413
ag413
ag351
ag414
aNag414
ag412
ag414
ag414
ag414
ag412
ag413
ag414
ag412
ag413
ag412
ag412
ag412
ag412
ag413
ag413
ag414
ag412
ag412
ag412
ag413
ag412
ag412
ag351
ag413
ag414
ag414
ag414
ag413
ag413
ag413
ag351
ag413
ag412
ag414
ag413
aNag414
ag412
ag351
ag413
ag414
ag412
ag413
ag414
ag412
ag412
ag413
ag412
ag414
ag414
ag412
ag413
ag414
ag413
ag351
asS'is_normalized_entropy_less_than_threshold'
p419
(lp420
g50
(g51
(S'b1'
p421
I0
I1
tp422
Rp423
(I3
S'|'
p424
NNNI-1
I-1
I0
tp425
bS'\x00'
p426
tp427
Rp428
ag50
(g423
S'\x01'
p429
tp430
Rp431
ag428
ag431
ag431
ag428
ag428
ag428
ag428
ag428
ag431
ag428
ag431
ag428
ag431
ag428
ag428
ag428
ag428
ag431
ag431
ag428
ag431
ag428
ag431
ag428
ag428
ag428
ag428
ag428
ag428
ag431
ag431
ag428
ag428
ag428
ag428
ag428
ag428
ag428
ag428
ag431
ag431
ag428
ag428
ag428
ag431
ag428
ag428
ag431
ag428
ag428
ag428
ag428
ag428
ag428
ag431
ag428
ag431
ag428
ag428
ag428
ag431
ag428
ag428
ag431
ag431
ag428
ag428
ag431
ag428
ag428
ag431
ag431
ag431
ag428
ag431
ag428
ag431
ag431
ag428
ag428
ag431
ag428
ag428
ag431
ag428
ag428
ag428
ag431
ag428
ag431
ag428
ag428
ag431
ag428
ag431
ag431
asaa(lp432
S'index'
p433
aI48359
aatp434
Rp435
.