ccollections
OrderedDict
p0
((lp1
(lp2
S'combination_dict'
p3
ag0
((lp4
(lp5
S'r_to_g_config'
p6
aS'tr'
p7
aa(lp8
S'num_turns'
p9
aI1
aa(lp10
S'start_direction'
p11
acutils_ms
StartDirection
p12
(I0
tp13
Rp14
aa(lp15
S'assistance_type'
p16
acutils_ms
AssistanceType
p17
(I0
tp18
Rp19
aa(lp20
S'start_mode'
p21
aS'y'
p22
aa(lp23
S'ui_given_a_noise'
p24
aF0.3
aa(lp25
S'um_given_ui_noise'
p26
aF0.7
aa(lp27
S'entropy_threshold'
p28
aF0.6
aatp29
Rp30
aa(lp31
S'data'
p32
accollections
defaultdict
p33
(c__builtin__
list
p34
tp35
Rp36
S'a'
p37
(lp38
S'mode_l'
p39
aS'mode_r'
p40
ag40
ag39
aS'move_p'
p41
ag40
ag40
ag41
ag39
ag39
ag41
ag39
ag41
asS'assistance_match_with_ground_truth'
p42
(lp43
I00
aI00
aI00
aI01
aI00
aI00
aI01
aI01
aI00
aI01
aI01
aI01
aI01
asS'is_u_intended_equals_um'
p44
(lp45
I01
aI00
aI00
aI01
aI00
aI00
aI01
aI01
aI00
aI01
aI01
aI01
aI01
asS'total_steps'
p46
I13
sS'normalized_h_of_p_ui_given_um'
p47
(lp48
cnumpy.core.multiarray
scalar
p49
(cnumpy
dtype
p50
(S'f8'
p51
I0
I1
tp52
Rp53
(I3
S'<'
p54
NNNI-1
I-1
I0
tp55
bS'\xb2\xc7=\xcfY\xb3\xe9?'
p56
tp57
Rp58
ag49
(g53
S'J\x147\xd2\xdc\x1e\xe8?'
p59
tp60
Rp61
ag49
(g53
S'\x89\xf1\xa7Y\xad\x19\xe6?'
p62
tp63
Rp64
ag49
(g53
S'\xd1\xf6\x0fd\xa4\xa7\xe4?'
p65
tp66
Rp67
ag49
(g53
S'\xb1j\xc1\xaa\x80"\xe7?'
p68
tp69
Rp70
ag49
(g53
S'\x02Co\x8d\xb3\x8f\xe5?'
p71
tp72
Rp73
ag49
(g53
S'\x12m\x99M\x9c \xd0?'
p74
tp75
Rp76
ag49
(g53
S'$\xa79\x1a\x10,\xd2?'
p77
tp78
Rp79
ag49
(g53
S'\x1b\xd9\xe5IG\xe4\xea?'
p80
tp81
Rp82
ag49
(g53
S'\xd1\xf6\x0fd\xa4\xa7\xe4?'
p83
tp84
Rp85
ag49
(g53
S'$\xa79\x1a\x10,\xd2?'
p86
tp87
Rp88
ag49
(g53
S'\xd1\xf6\x0fd\xa4\xa7\xe4?'
p89
tp90
Rp91
ag49
(g53
S'$\xa79\x1a\x10,\xd2?'
p92
tp93
Rp94
asS'sp'
p95
(lp96
(S'p0'
p97
I0
S't'
p98
tp99
a(g97
I0
g98
tp100
a(g97
I0
S'y'
p101
tp102
a(g97
I0
S'x'
p103
tp104
a(g97
I0
g98
tp105
a(g97
I0
g98
tp106
a(g97
I0
g103
tp107
a(S'p1'
p108
I0
g103
tp109
a(g108
I0
g103
tp110
a(g108
I0
g98
tp111
a(g108
F1.5707963267948966
g98
tp112
a(g108
F1.5707963267948966
g101
tp113
a(S'p2'
p114
F1.5707963267948966
g101
tp115
asS's'
p116
(lp117
(g97
I0
g22
tp118
ag99
ag100
ag102
ag104
ag105
ag106
ag107
ag109
ag110
ag111
ag112
ag113
asS'ui'
p119
(lp120
S'hp'
p121
aS'hs'
p122
ag122
ag121
ag122
ag121
ag121
ag95
ag95
ag122
ag95
aS'ss'
p123
ag95
asS'um_before'
p124
(lp125
g121
ag123
ag122
ag122
ag122
ag95
ag121
ag95
ag123
ag122
ag95
ag122
ag95
asS'um_after'
p126
(lp127
g121
ag123
ag122
ag122
ag122
ag95
ag121
ag95
ag123
ag122
ag95
ag122
ag95
asS'is_normalized_entropy_less_than_threshold'
p128
(lp129
g49
(g50
(S'b1'
p130
I0
I1
tp131
Rp132
(I3
S'|'
p133
NNNI-1
I-1
I0
tp134
bS'\x00'
p135
tp136
Rp137
ag137
ag137
ag137
ag137
ag137
ag49
(g132
S'\x01'
p138
tp139
Rp140
ag140
ag137
ag137
ag140
ag137
ag140
asaa(lp141
S'index'
p142
aI1162
aatp143
Rp144
.