ccollections
OrderedDict
p0
((lp1
(lp2
S'combination_dict'
p3
ag0
((lp4
(lp5
S'r_to_g_config'
p6
aS'br'
p7
aa(lp8
S'num_turns'
p9
aI2
aa(lp10
S'start_direction'
p11
acutils_ms
StartDirection
p12
(I0
tp13
Rp14
aa(lp15
S'assistance_type'
p16
acutils_ms
AssistanceType
p17
(I0
tp18
Rp19
aa(lp20
S'start_mode'
p21
aS't'
p22
aa(lp23
S'ui_given_a_noise'
p24
aF0.5
aa(lp25
S'um_given_ui_noise'
p26
aF0.5
aa(lp27
S'entropy_threshold'
p28
aF0.5
aatp29
Rp30
aa(lp31
S'data'
p32
accollections
defaultdict
p33
(c__builtin__
list
p34
tp35
Rp36
S'a'
p37
(lp38
S'mode_r'
p39
ag39
ag39
ag39
aS'mode_l'
p40
aS'move_p'
p41
ag40
ag39
ag41
ag40
ag39
ag41
ag39
ag39
ag39
ag40
ag39
aS'move_n'
p42
ag40
ag40
ag40
ag40
ag39
ag40
ag42
ag39
ag41
ag40
ag39
ag40
ag39
ag39
ag42
ag39
ag41
ag39
ag41
ag39
ag41
ag39
ag41
ag40
ag39
ag40
ag40
ag41
ag39
ag40
ag39
ag40
ag42
ag40
ag41
asS'assistance_match_with_ground_truth'
p43
(lp44
I00
aI00
aI00
aI00
aI01
aI00
aI00
aI01
aI00
aI00
aI01
aI01
aI00
aI00
aI00
aI00
aI01
aI00
aI00
aI00
aI00
aI00
aI00
aI01
aI01
aI01
aI00
aI00
aI00
aI00
aI00
aI01
aI01
aI01
aI00
aI01
aI01
aI00
aI01
aI01
aI00
aI00
aI00
aI00
aI01
aI00
aI00
aI00
aI00
aI01
aI01
aI01
aI01
asS'is_u_intended_equals_um'
p45
(lp46
I01
aI01
aI01
aI00
aI01
aI00
aI00
aI01
aI00
aI00
aI01
aI01
aI01
aI01
aI00
aI00
aI01
aI01
aI00
aI00
aI00
aI00
aI00
aI01
aI01
aI01
aI00
aI00
aI00
aI00
aI01
aI01
aI01
aI01
aI01
aI01
aI01
aI01
aI01
aI01
aI00
aI00
aI00
aI00
aI01
aI01
aI00
aI00
aI00
aI01
aI01
aI01
aI01
asS'total_steps'
p47
I53
sS'normalized_h_of_p_ui_given_um'
p48
(lp49
cnumpy.core.multiarray
scalar
p50
(cnumpy
dtype
p51
(S'f8'
p52
I0
I1
tp53
Rp54
(I3
S'<'
p55
NNNI-1
I-1
I0
tp56
bS'\x9aL\xad\xf1\x98B\xe0?'
p57
tp58
Rp59
ag50
(g54
S'\x9aL\xad\xf1\x98B\xe0?'
p60
tp61
Rp62
ag50
(g54
S'H\xe1\xc25\x07\x05\xe3?'
p63
tp64
Rp65
ag50
(g54
S'\x05O\xca\xf2\tD\xed?'
p66
tp67
Rp68
ag50
(g54
S'\xa0CJK\x1d\x8e\xcb?'
p69
tp70
Rp71
ag50
(g54
S'\xd2\x19U\x85\xc8\x9d\xe4?'
p72
tp73
Rp74
ag50
(g54
S'\xfe\x9e\xf6aEv\xe0?'
p75
tp76
Rp77
ag50
(g54
S'\x94\xbe\x9e<\xea\x82\xdb?'
p78
tp79
Rp80
ag50
(g54
S'\xd2\x19U\x85\xc8\x9d\xe4?'
p81
tp82
Rp83
ag50
(g54
S'\xfe\x9e\xf6aEv\xe0?'
p84
tp85
Rp86
ag50
(g54
S'\x94\xbe\x9e<\xea\x82\xdb?'
p87
tp88
Rp89
ag50
(g54
S'\x9c\x8d\x96\xf9\xb2\x10\xd0?'
p90
tp91
Rp92
ag50
(g54
S'H\xe1\xc25\x07\x05\xe3?'
p93
tp94
Rp95
ag50
(g54
S'\x9aL\xad\xf1\x98B\xe0?'
p96
tp97
Rp98
ag50
(g54
S'\x05O\xca\xf2\tD\xed?'
p99
tp100
Rp101
ag50
(g54
S'\xfe\x9e\xf6aEv\xe0?'
p102
tp103
Rp104
ag50
(g54
S'\x94\xbe\x9e<\xea\x82\xdb?'
p105
tp106
Rp107
ag50
(g54
S'\x1a\xe2\x91\x9b}\xdb\xe8?'
p108
tp109
Rp110
ag50
(g54
S'\x9ax%\xfe\xf6\x0f\xdf?'
p111
tp112
Rp113
ag50
(g54
S'\x9ax%\xfe\xf6\x0f\xdf?'
p114
tp115
Rp116
ag50
(g54
S'TAg\x19-K\xe5?'
p117
tp118
Rp119
ag50
(g54
S'\xfe\x9e\xf6aEv\xe0?'
p120
tp121
Rp122
ag50
(g54
S'\x05O\xca\xf2\tD\xed?'
p123
tp124
Rp125
ag50
(g54
S'\xa0CJK\x1d\x8e\xcb?'
p126
tp127
Rp128
ag50
(g54
S'\x90:\x1b9\xc3j\xcf?'
p129
tp130
Rp131
ag50
(g54
S'\x94\xbe\x9e<\xea\x82\xdb?'
p132
tp133
Rp134
ag50
(g54
S'\xd2\x19U\x85\xc8\x9d\xe4?'
p135
tp136
Rp137
ag50
(g54
S'TAg\x19-K\xe5?'
p138
tp139
Rp140
ag50
(g54
S'\x05O\xca\xf2\tD\xed?'
p141
tp142
Rp143
ag50
(g54
S'\xfe\x9e\xf6aEv\xe0?'
p144
tp145
Rp146
ag50
(g54
S'\x9aL\xad\xf1\x98B\xe0?'
p147
tp148
Rp149
ag50
(g54
S'\x94\xbe\x9e<\xea\x82\xdb?'
p150
tp151
Rp152
ag50
(g54
S'\x90:\x1b9\xc3j\xcf?'
p153
tp154
Rp155
ag50
(g54
S'\x94\xbe\x9e<\xea\x82\xdb?'
p156
tp157
Rp158
ag50
(g54
S'\xba\xb5\t\xa9}J\xe5?'
p159
tp160
Rp161
ag50
(g54
S'\x94\xbe\x9e<\xea\x82\xdb?'
p162
tp163
Rp164
ag50
(g54
S'\x9c\x8d\x96\xf9\xb2\x10\xd0?'
p165
tp166
Rp167
ag50
(g54
S'H\xe1\xc25\x07\x05\xe3?'
p168
tp169
Rp170
ag50
(g54
S'\x9c\x8d\x96\xf9\xb2\x10\xd0?'
p171
tp172
Rp173
ag50
(g54
S'\x94\xbe\x9e<\xea\x82\xdb?'
p174
tp175
Rp176
ag50
(g54
S'\xd2\x19U\x85\xc8\x9d\xe4?'
p177
tp178
Rp179
ag50
(g54
S'\xfe\x9e\xf6aEv\xe0?'
p180
tp181
Rp182
ag50
(g54
S'\x05O\xca\xf2\tD\xed?'
p183
tp184
Rp185
ag50
(g54
S'\x9ax%\xfe\xf6\x0f\xdf?'
p186
tp187
Rp188
ag50
(g54
S'\xa0CJK\x1d\x8e\xcb?'
p189
tp190
Rp191
ag50
(g54
S'\xb2\x9b\x82\xa2\x90\xf8\xe6?'
p192
tp193
Rp194
ag50
(g54
S'\x05O\xca\xf2\tD\xed?'
p195
tp196
Rp197
ag50
(g54
S'\xfe\x9e\xf6aEv\xe0?'
p198
tp199
Rp200
ag50
(g54
S'\x05O\xca\xf2\tD\xed?'
p201
tp202
Rp203
ag50
(g54
S'\xa0CJK\x1d\x8e\xcb?'
p204
tp205
Rp206
ag50
(g54
S'\x90:\x1b9\xc3j\xcf?'
p207
tp208
Rp209
ag50
(g54
S'\xa0CJK\x1d\x8e\xcb?'
p210
tp211
Rp212
ag50
(g54
S'\x9c\x8d\x96\xf9\xb2\x10\xd0?'
p213
tp214
Rp215
asS'sp'
p216
(lp217
(S'p0'
p218
I0
S't'
p219
tp220
ag220
a(g218
I0
g219
tp221
a(g218
I0
S'y'
p222
tp223
a(g218
I0
S'x'
p224
tp225
a(g218
I0
g222
tp226
a(g218
I0
g219
tp227
a(g218
I0
g224
tp228
ag226
ag227
ag228
a(S'p1'
p229
I0
g224
tp230
a(g229
I0
g224
tp231
a(g229
I0
g224
tp232
a(g229
I0
g219
tp233
a(g229
I0
g224
tp234
a(g229
I0
g222
tp235
a(g229
I0
g219
tp236
ag236
ag236
a(g229
I0
g219
tp237
ag234
ag233
a(g229
I0
g222
tp238
a(S'p2'
p239
I0
g222
tp240
a(g239
I0
g219
tp241
a(g239
I0
g224
tp242
a(g229
I0
g224
tp243
ag233
ag234
ag232
ag235
ag240
ag241
a(g239
I0
g222
tp244
ag241
a(g239
F1.5707963267948966
g219
tp245
a(g239
I0
g219
tp246
ag245
a(g239
F1.5707963267948966
g224
tp247
a(g239
F1.5707963267948966
g222
tp248
a(g239
F1.5707963267948966
g219
tp249
a(g239
F1.5707963267948966
g222
tp250
ag250
a(g239
F1.5707963267948966
g224
tp251
a(g229
F1.5707963267948966
g224
tp252
a(g229
F1.5707963267948966
g219
tp253
a(g229
F1.5707963267948966
g224
tp254
ag253
a(g229
F1.5707963267948966
g222
tp255
a(g239
F1.5707963267948966
g222
tp256
ag251
a(S'p3'
p257
F1.5707963267948966
g224
tp258
asS's'
p259
(lp260
(g218
I0
g22
tp261
ag220
ag220
ag221
ag223
ag225
ag226
ag227
ag228
ag226
ag227
ag228
ag230
ag231
ag232
ag233
ag234
ag235
ag236
ag236
ag236
ag237
ag234
ag233
ag238
ag240
ag241
ag242
ag243
ag233
ag234
ag232
ag235
ag240
ag241
ag244
ag241
ag245
ag246
ag245
ag247
ag248
ag249
ag250
ag250
ag251
ag252
ag253
ag254
ag253
ag255
ag256
ag251
asS'ui'
p262
(lp263
g216
ag216
aS'ss'
p264
aS'hp'
p265
aS'hs'
p266
ag266
ag216
ag265
ag216
ag266
ag266
ag266
ag265
ag216
ag266
ag265
ag265
ag216
ag266
ag266
ag264
ag266
ag266
ag266
ag264
ag265
ag266
ag266
ag264
ag266
ag216
ag265
ag264
ag265
ag265
ag265
ag216
ag264
ag216
ag265
ag216
ag266
ag266
ag266
ag266
ag216
ag266
ag266
ag265
ag265
ag264
ag266
ag216
asS'um_before'
p267
(lp268
g216
ag216
ag264
ag266
ag266
ag265
ag265
ag265
ag265
ag265
ag265
ag216
ag264
ag216
ag266
ag265
ag265
ag265
ag216
ag216
ag264
ag265
ag266
ag266
ag264
ag265
ag265
ag264
ag266
ag265
ag216
ag265
ag264
ag265
ag266
ag265
ag216
ag264
ag216
ag265
ag265
ag265
ag266
ag216
ag266
ag264
ag266
ag265
ag266
ag266
ag264
ag266
ag216
asS'um_after'
p269
(lp270
g216
ag216
ag264
ag266
ag266
ag265
ag265
ag265
ag265
ag265
ag265
ag216
ag264
ag216
ag266
ag265
ag265
ag265
aNaNag264
ag265
ag266
ag266
ag264
ag265
ag265
ag264
ag266
ag265
ag216
ag265
ag264
ag265
ag266
ag265
ag216
ag264
ag216
ag265
ag265
ag265
ag266
aNag266
ag264
ag266
ag265
ag266
ag266
ag264
ag266
ag216
asS'is_normalized_entropy_less_than_threshold'
p271
(lp272
g50
(g51
(S'b1'
p273
I0
I1
tp274
Rp275
(I3
S'|'
p276
NNNI-1
I-1
I0
tp277
bS'\x00'
p278
tp279
Rp280
ag280
ag280
ag280
ag50
(g275
S'\x01'
p281
tp282
Rp283
ag280
ag280
ag283
ag280
ag280
ag283
ag283
ag280
ag280
ag280
ag280
ag283
ag280
ag283
ag283
ag280
ag280
ag280
ag283
ag283
ag283
ag280
ag280
ag280
ag280
ag280
ag283
ag283
ag283
ag280
ag283
ag283
ag280
ag283
ag283
ag280
ag280
ag280
ag283
ag283
ag280
ag280
ag280
ag280
ag283
ag283
ag283
ag283
asaa(lp284
S'index'
p285
aI96500
aatp286
Rp287
.