ccollections
OrderedDict
p0
((lp1
(lp2
S'combination_dict'
p3
ag0
((lp4
(lp5
S'r_to_g_config'
p6
aS'br'
p7
aa(lp8
S'num_turns'
p9
aI3
aa(lp10
S'start_direction'
p11
acutils_ms
StartDirection
p12
(I1
tp13
Rp14
aa(lp15
S'assistance_type'
p16
acutils_ms
AssistanceType
p17
(I0
tp18
Rp19
aa(lp20
S'start_mode'
p21
aS'x'
p22
aa(lp23
S'ui_given_a_noise'
p24
aF0.3
aa(lp25
S'um_given_ui_noise'
p26
aF0.7
aa(lp27
S'entropy_threshold'
p28
aF0.6
aatp29
Rp30
aa(lp31
S'data'
p32
accollections
defaultdict
p33
(c__builtin__
list
p34
tp35
Rp36
S'a'
p37
(lp38
S'mode_r'
p39
aS'mode_l'
p40
ag39
ag39
aS'move_n'
p41
ag41
ag40
ag40
ag40
ag39
ag41
ag41
ag41
ag41
ag41
ag40
ag40
ag41
ag41
ag40
ag40
ag40
aS'move_p'
p42
ag42
ag40
ag40
ag40
ag42
ag40
ag40
ag40
ag40
ag40
ag42
ag40
ag41
ag40
ag39
ag39
ag39
ag39
ag42
ag39
ag39
ag41
ag40
ag40
ag40
ag39
ag39
ag40
ag41
ag40
ag42
ag40
ag40
ag41
ag40
ag39
ag39
ag42
ag39
ag42
asS'assistance_match_with_ground_truth'
p43
(lp44
I00
aI00
aI00
aI01
aI00
aI00
aI00
aI00
aI00
aI01
aI00
aI00
aI00
aI00
aI00
aI00
aI01
aI00
aI01
aI00
aI00
aI01
aI00
aI01
aI00
aI00
aI01
aI00
aI00
aI00
aI00
aI00
aI01
aI01
aI01
aI00
aI00
aI00
aI00
aI00
aI01
aI01
aI00
aI01
aI00
aI00
aI00
aI00
aI00
aI00
aI01
aI00
aI00
aI01
aI00
aI01
aI01
aI00
aI00
aI01
aI00
aI01
aI01
asS'is_u_intended_equals_um'
p45
(lp46
I00
aI00
aI00
aI01
aI00
aI00
aI01
aI01
aI00
aI01
aI00
aI00
aI00
aI00
aI00
aI01
aI01
aI00
aI01
aI00
aI00
aI01
aI00
aI01
aI01
aI01
aI01
aI00
aI01
aI00
aI01
aI01
aI01
aI01
aI01
aI00
aI00
aI00
aI01
aI01
aI01
aI01
aI00
aI01
aI00
aI00
aI00
aI00
aI00
aI00
aI01
aI00
aI01
aI01
aI00
aI01
aI01
aI00
aI01
aI01
aI01
aI01
aI01
asS'total_steps'
p47
I63
sS'normalized_h_of_p_ui_given_um'
p48
(lp49
cnumpy.core.multiarray
scalar
p50
(cnumpy
dtype
p51
(S'f8'
p52
I0
I1
tp53
Rp54
(I3
S'<'
p55
NNNI-1
I-1
I0
tp56
bS'\xf6\xa2\xe1\xe1(@\xe9?'
p57
tp58
Rp59
ag50
(g54
S'\x95\xb8\xf7\xeb\x9ab\xe5?'
p60
tp61
Rp62
ag50
(g54
S'I\xa0\xb8\xf9\xa12\xe9?'
p63
tp64
Rp65
ag50
(g54
S'\xc1\x8f}C+\x03\xde?'
p66
tp67
Rp68
ag50
(g54
S'\xbb\xa1\xe0\x00<\xd6\xde?'
p69
tp70
Rp71
ag50
(g54
S'\xa6\t\xd3\xcfZb\xec?'
p72
tp73
Rp74
ag50
(g54
S'\x14^mhGj\xeb?'
p75
tp76
Rp77
ag50
(g54
S'\x14^mhGj\xeb?'
p78
tp79
Rp80
ag50
(g54
S'\x95\xb8\xf7\xeb\x9ab\xe5?'
p81
tp82
Rp83
ag50
(g54
S'\xc1\x8f}C+\x03\xde?'
p84
tp85
Rp86
ag50
(g54
S'e\x18\xcf\x7fjj\xe5?'
p87
tp88
Rp89
ag50
(g54
S'\xbb\xa1\xe0\x00<\xd6\xde?'
p90
tp91
Rp92
ag50
(g54
S'\xbb\xa1\xe0\x00<\xd6\xde?'
p93
tp94
Rp95
ag50
(g54
S'\xbb\xa1\xe0\x00<\xd6\xde?'
p96
tp97
Rp98
ag50
(g54
S'\xa6\t\xd3\xcfZb\xec?'
p99
tp100
Rp101
ag50
(g54
S'\x14^mhGj\xeb?'
p102
tp103
Rp104
ag50
(g54
S"F\xae'\xe5<*\xd6?"
p105
tp106
Rp107
ag50
(g54
S'\xbb\xa1\xe0\x00<\xd6\xde?'
p108
tp109
Rp110
ag50
(g54
S'\xa1\xf70.\xf4\x93\xcb?'
p111
tp112
Rp113
ag50
(g54
S'>\xf6\xfeT\x92\xe5\xe8?'
p114
tp115
Rp116
ag50
(g54
S'>\xf6\xfeT\x92\xe5\xe8?'
p117
tp118
Rp119
ag50
(g54
S"F\xae'\xe5<*\xd6?"
p120
tp121
Rp122
ag50
(g54
S'\xf4\xf1\x9f\xc3\xb9\xff\xe2?'
p123
tp124
Rp125
ag50
(g54
S'~}\xdc\xc8\x01\xe4\xde?'
p126
tp127
Rp128
ag50
(g54
S'\x14^mhGj\xeb?'
p129
tp130
Rp131
ag50
(g54
S'\x14^mhGj\xeb?'
p132
tp133
Rp134
ag50
(g54
S"F\xae'\xe5<*\xd6?"
p135
tp136
Rp137
ag50
(g54
S'l\xd2\xe8`\xe2\xd1\xe6?'
p138
tp139
Rp140
ag50
(g54
S'\x14^mhGj\xeb?'
p141
tp142
Rp143
ag50
(g54
S'>\xf6\xfeT\x92\xe5\xe8?'
p144
tp145
Rp146
ag50
(g54
S'\x14^mhGj\xeb?'
p147
tp148
Rp149
ag50
(g54
S'\x14^mhGj\xeb?'
p150
tp151
Rp152
ag50
(g54
S"F\xae'\xe5<*\xd6?"
p153
tp154
Rp155
ag50
(g54
S'~}\xdc\xc8\x01\xe4\xde?'
p156
tp157
Rp158
ag50
(g54
S"F\xae'\xe5<*\xd6?"
p159
tp160
Rp161
ag50
(g54
S'e\x18\xcf\x7fjj\xe5?'
p162
tp163
Rp164
ag50
(g54
S'\x95\xb8\xf7\xeb\x9ab\xe5?'
p165
tp166
Rp167
ag50
(g54
S'I\xa0\xb8\xf9\xa12\xe9?'
p168
tp169
Rp170
ag50
(g54
S'oFr\x889N\xe7?'
p171
tp172
Rp173
ag50
(g54
S'oFr\x889N\xe7?'
p174
tp175
Rp176
ag50
(g54
S'\xc1\x8f}C+\x03\xde?'
p177
tp178
Rp179
ag50
(g54
S'~}\xdc\xc8\x01\xe4\xde?'
p180
tp181
Rp182
ag50
(g54
S'I\xa0\xb8\xf9\xa12\xe9?'
p183
tp184
Rp185
ag50
(g54
S'\xc1\x8f}C+\x03\xde?'
p186
tp187
Rp188
ag50
(g54
S'\xa6\t\xd3\xcfZb\xec?'
p189
tp190
Rp191
ag50
(g54
S'>\xf6\xfeT\x92\xe5\xe8?'
p192
tp193
Rp194
ag50
(g54
S'>\xf6\xfeT\x92\xe5\xe8?'
p195
tp196
Rp197
ag50
(g54
S'\x95\xb8\xf7\xeb\x9ab\xe5?'
p198
tp199
Rp200
ag50
(g54
S'I\xa0\xb8\xf9\xa12\xe9?'
p201
tp202
Rp203
ag50
(g54
S'\xf6\xa2\xe1\xe1(@\xe9?'
p204
tp205
Rp206
ag50
(g54
S"F\xae'\xe5<*\xd6?"
p207
tp208
Rp209
ag50
(g54
S'\xa6\t\xd3\xcfZb\xec?'
p210
tp211
Rp212
ag50
(g54
S'\x14^mhGj\xeb?'
p213
tp214
Rp215
ag50
(g54
S'~}\xdc\xc8\x01\xe4\xde?'
p216
tp217
Rp218
ag50
(g54
S'>\xf6\xfeT\x92\xe5\xe8?'
p219
tp220
Rp221
ag50
(g54
S"F\xae'\xe5<*\xd6?"
p222
tp223
Rp224
ag50
(g54
S'\xa1\xf70.\xf4\x93\xcb?'
p225
tp226
Rp227
ag50
(g54
S'\x95\xb8\xf7\xeb\x9ab\xe5?'
p228
tp229
Rp230
ag50
(g54
S'oFr\x889N\xe7?'
p231
tp232
Rp233
ag50
(g54
S'\xc1\x8f}C+\x03\xde?'
p234
tp235
Rp236
ag50
(g54
S'\xd8\xe3\x90\xedC\x15\xeb?'
p237
tp238
Rp239
ag50
(g54
S'\xc1\x8f}C+\x03\xde?'
p240
tp241
Rp242
ag50
(g54
S'~}\xdc\xc8\x01\xe4\xde?'
p243
tp244
Rp245
asS'sp'
p246
(lp247
(S'p0'
p248
I0
S't'
p249
tp250
a(g248
I0
S'x'
p251
tp252
a(g248
I0
g251
tp253
a(g248
I0
S'y'
p254
tp255
ag255
a(g248
I0
g249
tp256
a(g248
I0
g249
tp257
ag257
ag252
ag255
a(g248
I0
g254
tp258
ag258
ag258
ag258
ag256
ag257
a(g248
I0
g254
tp259
ag259
a(S'p1'
p260
I0
g254
tp261
a(g260
I0
g254
tp262
ag262
a(g260
I0
g251
tp263
ag263
a(S'p2'
p264
I0
g251
tp265
a(g264
I0
g251
tp266
ag266
a(g264
I0
g249
tp267
a(g264
I0
g251
tp268
ag266
a(g264
I0
g251
tp269
ag266
ag266
ag267
a(g264
F1.5707963267948966
g249
tp270
a(g264
F1.5707963267948966
g254
tp271
a(g260
F1.5707963267948966
g254
tp272
a(g260
F1.5707963267948966
g249
tp273
a(g260
F1.5707963267948966
g249
tp274
a(g260
F1.5707963267948966
g249
tp275
ag275
a(g260
F1.5707963267948966
g251
tp276
a(g264
F1.5707963267948966
g251
tp277
a(g264
F1.5707963267948966
g251
tp278
a(g264
F1.5707963267948966
g254
tp279
a(g264
F1.5707963267948966
g249
tp280
a(g264
F1.5707963267948966
g249
tp281
ag281
a(g264
F1.5707963267948966
g251
tp282
ag278
a(g264
F1.5707963267948966
g249
tp283
ag271
ag280
a(g264
I0
g249
tp284
ag270
ag281
ag271
a(S'p3'
p285
F1.5707963267948966
g254
tp286
a(g285
F1.5707963267948966
g249
tp287
a(g285
F1.5707963267948966
g249
tp288
a(g285
F1.5707963267948966
g251
tp289
a(g285
F1.5707963267948966
g249
tp290
ag289
a(S'p4'
p291
F1.5707963267948966
g251
tp292
asS's'
p293
(lp294
(g248
I0
g22
tp295
ag250
ag252
ag253
ag255
ag255
ag256
ag257
ag257
ag252
ag255
ag258
ag258
ag258
ag258
ag256
ag257
ag259
ag259
ag261
ag262
ag262
ag263
ag263
ag265
ag266
ag266
ag267
ag268
ag266
ag269
ag266
ag266
ag267
ag270
ag271
ag272
ag273
ag274
ag275
ag275
ag276
ag277
ag278
ag279
ag280
ag281
ag281
ag282
ag278
ag283
ag271
ag280
ag284
ag270
ag281
ag271
ag286
ag287
ag288
ag289
ag290
ag289
asS'ui'
p296
(lp297
S'hp'
p298
aS'hs'
p299
ag299
ag298
aS'ss'
p300
ag298
ag299
ag300
ag299
ag298
ag300
ag300
ag300
ag300
ag299
ag246
ag299
ag300
ag300
ag299
ag299
ag299
ag246
ag246
ag300
ag298
ag299
ag298
ag299
ag299
ag246
ag300
ag299
ag246
ag299
ag246
ag299
ag298
ag298
ag300
ag298
ag246
ag298
ag298
ag300
ag298
ag299
ag299
ag298
ag298
ag299
ag300
ag300
ag246
ag246
ag300
ag300
ag246
ag298
ag298
ag299
ag298
ag246
asS'um_before'
p301
(lp302
g299
ag298
ag246
ag298
ag299
ag298
ag300
ag300
ag298
ag298
ag246
ag299
ag299
ag299
ag298
ag300
ag299
ag299
ag300
ag246
ag246
ag299
ag300
ag246
ag300
ag300
ag299
ag298
ag300
ag246
ag300
ag300
ag299
ag246
ag299
ag246
ag298
ag246
ag300
ag300
ag298
ag246
ag246
ag298
ag298
ag246
ag246
ag298
ag246
ag299
ag299
ag298
ag300
ag246
ag246
ag299
ag300
ag298
ag300
ag298
ag299
ag298
ag246
asS'um_after'
p303
(lp304
g299
ag298
ag246
ag298
aNag298
ag300
ag300
ag298
ag298
ag246
aNaNaNag298
ag300
ag299
aNag300
ag246
ag246
ag299
aNag246
ag300
ag300
ag299
ag298
ag300
ag246
ag300
ag300
ag299
ag246
ag299
ag246
ag298
ag246
ag300
ag300
ag298
ag246
ag246
ag298
ag298
ag246
ag246
ag298
ag246
ag299
ag299
ag298
ag300
ag246
ag246
ag299
ag300
ag298
ag300
ag298
ag299
ag298
ag246
asS'is_normalized_entropy_less_than_threshold'
p305
(lp306
g50
(g51
(S'b1'
p307
I0
I1
tp308
Rp309
(I3
S'|'
p310
NNNI-1
I-1
I0
tp311
bS'\x00'
p312
tp313
Rp314
ag314
ag314
ag50
(g309
S'\x01'
p315
tp316
Rp317
ag317
ag314
ag314
ag314
ag314
ag317
ag314
ag317
ag317
ag317
ag314
ag314
ag317
ag317
ag317
ag314
ag314
ag317
ag317
ag317
ag314
ag314
ag317
ag314
ag314
ag314
ag314
ag314
ag317
ag317
ag317
ag314
ag314
ag314
ag314
ag314
ag317
ag317
ag314
ag317
ag314
ag314
ag314
ag314
ag314
ag314
ag317
ag314
ag314
ag317
ag314
ag317
ag317
ag314
ag314
ag317
ag314
ag317
ag317
asaa(lp318
S'index'
p319
aI110769
aatp320
Rp321
.