ccollections
OrderedDict
p0
((lp1
(lp2
S'combination_dict'
p3
ag0
((lp4
(lp5
S'r_to_g_config'
p6
aS'tr'
p7
aa(lp8
S'num_turns'
p9
aI2
aa(lp10
S'start_direction'
p11
acutils_ms
StartDirection
p12
(I0
tp13
Rp14
aa(lp15
S'assistance_type'
p16
acutils_ms
AssistanceType
p17
(I1
tp18
Rp19
aa(lp20
S'start_mode'
p21
aS't'
p22
aa(lp23
S'ui_given_a_noise'
p24
aF0.5
aa(lp25
S'um_given_ui_noise'
p26
aF0.3
aa(lp27
S'entropy_threshold'
p28
aF0.6
aatp29
Rp30
aa(lp31
S'data'
p32
accollections
defaultdict
p33
(c__builtin__
list
p34
tp35
Rp36
S'a'
p37
(lp38
S'mode_r'
p39
aS'move_p'
p40
ag39
ag39
aS'mode_l'
p41
ag40
ag39
ag39
ag41
ag39
ag39
ag39
ag40
ag39
ag40
ag39
ag41
asS'assistance_match_with_ground_truth'
p42
(lp43
I01
aI01
aI00
aI00
aI01
aI01
aI00
aI00
aI00
aI00
aI00
aI01
aI01
aI01
aI00
aI00
aI00
asS'is_u_intended_equals_um'
p44
(lp45
I01
aI01
aI01
aI01
aI01
aI01
aI01
aI01
aI01
aI01
aI01
aI01
aI01
aI01
aI01
aI01
aI00
asS'total_steps'
p46
I17
sS'normalized_h_of_p_ui_given_um'
p47
(lp48
cnumpy.core.multiarray
scalar
p49
(cnumpy
dtype
p50
(S'f8'
p51
I0
I1
tp52
Rp53
(I3
S'<'
p54
NNNI-1
I-1
I0
tp55
bS'\xc0\xa6v\xb3\xbc\xb5\xdb?'
p56
tp57
Rp58
ag49
(g53
S'\x94\xaf\xaa!]\xda\xcf?'
p59
tp60
Rp61
ag49
(g53
S'\x01G\x8eO\x06\x17\xe5?'
p62
tp63
Rp64
ag49
(g53
S'\xcb\xcc\x80d\xb2u\xe9?'
p65
tp66
Rp67
ag49
(g53
S'\xae\xd8\xa2OcQ\xca?'
p68
tp69
Rp70
ag49
(g53
S'\x94\xaf\xaa!]\xda\xcf?'
p71
tp72
Rp73
ag49
(g53
S'\xba\t\xe1\xbc\xa7\x91\xec?'
p74
tp75
Rp76
ag49
(g53
S'\xcb\xcc\x80d\xb2u\xe9?'
p77
tp78
Rp79
ag49
(g53
S'~}9&\xfe\xf7\xe1?'
p80
tp81
Rp82
ag49
(g53
S'\x01G\x8eO\x06\x17\xe5?'
p83
tp84
Rp85
ag49
(g53
S'\xba\t\xe1\xbc\xa7\x91\xec?'
p86
tp87
Rp88
ag49
(g53
S'\xc0\xa6v\xb3\xbc\xb5\xdb?'
p89
tp90
Rp91
ag49
(g53
S'\x94\xaf\xaa!]\xda\xcf?'
p92
tp93
Rp94
ag49
(g53
S'\xc0\xa6v\xb3\xbc\xb5\xdb?'
p95
tp96
Rp97
ag49
(g53
S'0\x95FN\x1e&\xe7?'
p98
tp99
Rp100
ag49
(g53
S'\xcb\xcc\x80d\xb2u\xe9?'
p101
tp102
Rp103
ag49
(g53
S'\xbclc\x05%@\xea?'
p104
tp105
Rp106
asS'sp'
p107
(lp108
(S'p0'
p109
I0
S'x'
p110
tp111
a(S'p1'
p112
I0
g110
tp113
a(g112
I0
g110
tp114
a(g112
I0
S't'
p115
tp116
a(g112
I0
S'y'
p117
tp118
a(S'p2'
p119
I0
g117
tp120
a(g119
I0
g117
tp121
a(g119
I0
g110
tp122
a(g112
I0
g110
tp123
ag114
a(g112
I0
g110
tp124
a(g112
I0
g117
tp125
ag120
a(g119
I0
g115
tp126
a(g119
I0
g117
tp127
ag122
a(S'p3'
p128
I0
g110
tp129
asS's'
p130
(lp131
(g109
I0
g22
tp132
ag111
ag113
ag114
ag116
ag118
ag120
ag121
ag122
ag123
ag114
ag124
ag125
ag120
ag126
ag127
ag122
asS'ui'
p133
(lp134
S'hp'
p135
ag107
ag107
aS'ss'
p136
aS'hs'
p137
ag107
ag136
ag135
ag137
ag107
ag136
ag135
ag107
ag135
ag135
ag137
ag136
asS'um_before'
p138
(lp139
g135
ag107
ag107
ag137
ag137
ag107
ag136
ag137
ag136
ag107
ag136
ag135
ag107
ag135
ag137
ag137
ag107
asS'um_after'
p140
(lp141
g135
ag107
ag107
ag137
ag137
ag107
ag136
ag137
ag136
ag107
ag136
ag135
ag107
ag135
ag137
ag137
ag107
asS'is_normalized_entropy_less_than_threshold'
p142
(lp143
g49
(g50
(S'b1'
p144
I0
I1
tp145
Rp146
(I3
S'|'
p147
NNNI-1
I-1
I0
tp148
bS'\x01'
p149
tp150
Rp151
ag151
ag49
(g146
S'\x00'
p152
tp153
Rp154
ag154
ag151
ag151
ag154
ag154
ag151
ag154
ag154
ag151
ag151
ag151
ag154
ag154
ag154
asaa(lp155
S'index'
p156
aI11663
aatp157
Rp158
.