ccollections
OrderedDict
p0
((lp1
(lp2
S'combination_dict'
p3
ag0
((lp4
(lp5
S'r_to_g_config'
p6
aS'tr'
p7
aa(lp8
S'num_turns'
p9
aI1
aa(lp10
S'start_direction'
p11
acutils_ms
StartDirection
p12
(I0
tp13
Rp14
aa(lp15
S'assistance_type'
p16
acutils_ms
AssistanceType
p17
(I1
tp18
Rp19
aa(lp20
S'start_mode'
p21
aS'y'
p22
aa(lp23
S'ui_given_a_noise'
p24
aF0.7
aa(lp25
S'um_given_ui_noise'
p26
aF0.1
aa(lp27
S'entropy_threshold'
p28
aF0.8
aatp29
Rp30
aa(lp31
S'data'
p32
accollections
defaultdict
p33
(c__builtin__
list
p34
tp35
Rp36
S'a'
p37
(lp38
S'mode_l'
p39
aS'move_p'
p40
aS'mode_r'
p41
ag41
ag40
ag39
ag39
ag39
ag40
ag39
ag40
asS'assistance_match_with_ground_truth'
p42
(lp43
I01
aI00
aI00
aI01
aI01
aI00
aI00
aI01
aI01
aI01
aI01
asS'is_u_intended_equals_um'
p44
(lp45
I01
aI01
aI01
aI01
aI01
aI01
aI01
aI01
aI01
aI01
aI01
asS'total_steps'
p46
I11
sS'normalized_h_of_p_ui_given_um'
p47
(lp48
cnumpy.core.multiarray
scalar
p49
(cnumpy
dtype
p50
(S'f8'
p51
I0
I1
tp52
Rp53
(I3
S'<'
p54
NNNI-1
I-1
I0
tp55
bS'<\xe8(G\xc3\xfd\xd2?'
p56
tp57
Rp58
ag49
(g53
S'6\xfa\x9a\xca\xb4\\\xe3?'
p59
tp60
Rp61
ag49
(g53
S'\x0e\xe4\r\x94y\xd0\xc6?'
p62
tp63
Rp64
ag49
(g53
S'\xab\x7f\xfds\xb8O\xc2?'
p65
tp66
Rp67
ag49
(g53
S'Lr#nB\xc6\xbb?'
p68
tp69
Rp70
ag49
(g53
S'\r\x05\xac\xce\x13\xe1\xe0?'
p71
tp72
Rp73
ag49
(g53
S'\r\x05\xac\xce\x13\xe1\xe0?'
p74
tp75
Rp76
ag49
(g53
S'<\xe8(G\xc3\xfd\xd2?'
p77
tp78
Rp79
ag49
(g53
S'Lr#nB\xc6\xbb?'
p80
tp81
Rp82
ag49
(g53
S'<\xe8(G\xc3\xfd\xd2?'
p83
tp84
Rp85
ag49
(g53
S'Lr#nB\xc6\xbb?'
p86
tp87
Rp88
asS'sp'
p89
(lp90
(S'p0'
p91
I0
S'x'
p92
tp93
a(g91
I0
S't'
p94
tp95
a(g91
I0
g94
tp96
a(g91
I0
g92
tp97
a(S'p1'
p98
I0
g92
tp99
a(g98
I0
g92
tp100
ag100
a(g98
I0
g94
tp101
a(g98
F1.5707963267948966
g94
tp102
a(g98
F1.5707963267948966
S'y'
p103
tp104
a(S'p2'
p105
F1.5707963267948966
g103
tp106
asS's'
p107
(lp108
(g91
I0
g22
tp109
ag93
ag95
ag96
ag97
ag99
ag100
ag100
ag101
ag102
ag104
asS'ui'
p110
(lp111
S'ss'
p112
aS'hs'
p113
ag112
aS'hp'
p114
ag114
ag89
ag89
ag113
ag89
ag113
ag89
asS'um_before'
p115
(lp116
g113
ag113
ag112
ag114
ag89
ag89
ag89
ag113
ag89
ag113
ag89
asS'um_after'
p117
(lp118
g113
ag113
ag112
ag114
ag89
ag89
ag89
ag113
ag89
ag113
ag89
asS'is_normalized_entropy_less_than_threshold'
p119
(lp120
g49
(g50
(S'b1'
p121
I0
I1
tp122
Rp123
(I3
S'|'
p124
NNNI-1
I-1
I0
tp125
bS'\x01'
p126
tp127
Rp128
ag128
ag128
ag128
ag128
ag128
ag128
ag128
ag128
ag128
ag128
asaa(lp129
S'index'
p130
aI3038
aatp131
Rp132
.