ccollections
OrderedDict
p0
((lp1
(lp2
S'combination_dict'
p3
ag0
((lp4
(lp5
S'r_to_g_config'
p6
aS'tl'
p7
aa(lp8
S'num_turns'
p9
aI3
aa(lp10
S'start_direction'
p11
acutils_ms
StartDirection
p12
(I0
tp13
Rp14
aa(lp15
S'assistance_type'
p16
acutils_ms
AssistanceType
p17
(I0
tp18
Rp19
aa(lp20
S'start_mode'
p21
aS't'
p22
aa(lp23
S'ui_given_a_noise'
p24
aF0.3
aa(lp25
S'um_given_ui_noise'
p26
aF0.5
aa(lp27
S'entropy_threshold'
p28
aF0.5
aatp29
Rp30
aa(lp31
S'data'
p32
accollections
defaultdict
p33
(c__builtin__
list
p34
tp35
Rp36
S'a'
p37
(lp38
S'mode_r'
p39
ag39
aS'mode_l'
p40
ag40
ag40
ag39
aS'move_n'
p41
ag39
aS'move_p'
p42
ag40
ag40
ag39
ag40
ag41
ag40
ag41
ag41
ag39
ag39
ag39
ag42
ag39
ag39
ag40
ag39
ag42
ag40
ag39
ag40
ag40
ag39
ag39
ag42
ag40
ag42
ag39
ag39
ag42
ag40
ag41
ag40
ag39
ag41
ag40
ag40
ag42
ag39
ag39
ag40
ag42
ag42
ag42
ag40
ag42
ag40
ag41
ag40
ag40
ag39
ag41
ag39
ag42
ag39
ag39
ag42
asS'assistance_match_with_ground_truth'
p43
(lp44
I00
aI00
aI00
aI00
aI00
aI01
aI01
aI01
aI00
aI00
aI00
aI00
aI01
aI00
aI01
aI00
aI01
aI00
aI00
aI01
aI00
aI00
aI00
aI00
aI01
aI00
aI00
aI00
aI00
aI00
aI00
aI01
aI00
aI01
aI00
aI00
aI01
aI01
aI01
aI00
aI00
aI01
aI01
aI00
aI01
aI00
aI00
aI00
aI01
aI00
aI00
aI01
aI01
aI00
aI01
aI00
aI00
aI00
aI01
aI01
aI01
aI00
aI00
aI01
aI01
asS'is_u_intended_equals_um'
p45
(lp46
I00
aI00
aI01
aI00
aI00
aI01
aI01
aI01
aI00
aI01
aI00
aI00
aI01
aI00
aI01
aI00
aI01
aI01
aI00
aI01
aI01
aI00
aI00
aI00
aI01
aI00
aI00
aI00
aI01
aI00
aI00
aI01
aI00
aI01
aI01
aI00
aI01
aI01
aI01
aI00
aI00
aI01
aI01
aI00
aI01
aI01
aI00
aI00
aI01
aI00
aI00
aI01
aI01
aI00
aI01
aI00
aI00
aI00
aI01
aI01
aI01
aI01
aI01
aI01
aI01
asS'total_steps'
p47
I65
sS'normalized_h_of_p_ui_given_um'
p48
(lp49
cnumpy.core.multiarray
scalar
p50
(cnumpy
dtype
p51
(S'f8'
p52
I0
I1
tp53
Rp54
(I3
S'<'
p55
NNNI-1
I-1
I0
tp56
bS'~\xeb\xe4\x06J\xff\xdf?'
p57
tp58
Rp59
ag50
(g54
S'\xd0z\xd7\xe0\x7f\x84\xe8?'
p60
tp61
Rp62
ag50
(g54
S'\x95\xcd\xda\x08\x8b\xcc\xe7?'
p63
tp64
Rp65
ag50
(g54
S'n\xb5\xb9#\xfef\xe8?'
p66
tp67
Rp68
ag50
(g54
S'\x11\x14\x17r\xf2\xcb\xe3?'
p69
tp70
Rp71
ag50
(g54
S'\xb0\x8c?S\x92U\xd1?'
p72
tp73
Rp74
ag50
(g54
S'\x80\xc6\xf1f\x94\x1b\xc4?'
p75
tp76
Rp77
ag50
(g54
S'\xb0\x8c?S\x92U\xd1?'
p78
tp79
Rp80
ag50
(g54
S'\x12\xd7i\x87M\xd7\xe1?'
p81
tp82
Rp83
ag50
(g54
S'\x95\xcd\xda\x08\x8b\xcc\xe7?'
p84
tp85
Rp86
ag50
(g54
S'\x11\x14\x17r\xf2\xcb\xe3?'
p87
tp88
Rp89
ag50
(g54
S'\xd0z\xd7\xe0\x7f\x84\xe8?'
p90
tp91
Rp92
ag50
(g54
S'\xa8\x9du\xa26\xe5\xc9?'
p93
tp94
Rp95
ag50
(g54
S'\x125\xf74\xe4\xe3\xe7?'
p96
tp97
Rp98
ag50
(g54
S'\xa8\x9du\xa26\xe5\xc9?'
p99
tp100
Rp101
ag50
(g54
S'\xdd1y5\xb0\xbc\xe4?'
p102
tp103
Rp104
ag50
(g54
S'\x80\xc6\xf1f\x94\x1b\xc4?'
p105
tp106
Rp107
ag50
(g54
S':\xd1\x93\xa2A\xec\xe6?'
p108
tp109
Rp110
ag50
(g54
S'~\xeb\xe4\x06J\xff\xdf?'
p111
tp112
Rp113
ag50
(g54
S'\xb0\x8c?S\x92U\xd1?'
p114
tp115
Rp116
ag50
(g54
S'7\xfe?\x98\xb1\xf6\xe7?'
p117
tp118
Rp119
ag50
(g54
S'~\xeb\xe4\x06J\xff\xdf?'
p120
tp121
Rp122
ag50
(g54
S'\xd0z\xd7\xe0\x7f\x84\xe8?'
p123
tp124
Rp125
ag50
(g54
S'\x11\x14\x17r\xf2\xcb\xe3?'
p126
tp127
Rp128
ag50
(g54
S'\xb0\x8c?S\x92U\xd1?'
p129
tp130
Rp131
ag50
(g54
S'\xb0BWI\x9d\x9a\xea?'
p132
tp133
Rp134
ag50
(g54
S'\x11\x14\x17r\xf2\xcb\xe3?'
p135
tp136
Rp137
ag50
(g54
S'\xd0z\xd7\xe0\x7f\x84\xe8?'
p138
tp139
Rp140
ag50
(g54
S'\x95\xcd\xda\x08\x8b\xcc\xe7?'
p141
tp142
Rp143
ag50
(g54
S'\x11\x14\x17r\xf2\xcb\xe3?'
p144
tp145
Rp146
ag50
(g54
S'~\xeb\xe4\x06J\xff\xdf?'
p147
tp148
Rp149
ag50
(g54
S'\xb0\x8c?S\x92U\xd1?'
p150
tp151
Rp152
ag50
(g54
S'\xb0BWI\x9d\x9a\xea?'
p153
tp154
Rp155
ag50
(g54
S'\xa8\x9du\xa26\xe5\xc9?'
p156
tp157
Rp158
ag50
(g54
S'7\xfe?\x98\xb1\xf6\xe7?'
p159
tp160
Rp161
ag50
(g54
S'~\xeb\xe4\x06J\xff\xdf?'
p162
tp163
Rp164
ag50
(g54
S'\xb0\x8c?S\x92U\xd1?'
p165
tp166
Rp167
ag50
(g54
S'\x10\xfd\xb8\\k-\xe1?'
p168
tp169
Rp170
ag50
(g54
S'\xa8\x9du\xa26\xe5\xc9?'
p171
tp172
Rp173
ag50
(g54
S'\x125\xf74\xe4\xe3\xe7?'
p174
tp175
Rp176
ag50
(g54
S'\x11\x14\x17r\xf2\xcb\xe3?'
p177
tp178
Rp179
ag50
(g54
S'\xb0\x8c?S\x92U\xd1?'
p180
tp181
Rp182
ag50
(g54
S'\x80\xc6\xf1f\x94\x1b\xc4?'
p183
tp184
Rp185
ag50
(g54
S'n\xb5\xb9#\xfef\xe8?'
p186
tp187
Rp188
ag50
(g54
S'\xa8\x9du\xa26\xe5\xc9?'
p189
tp190
Rp191
ag50
(g54
S'7\xfe?\x98\xb1\xf6\xe7?'
p192
tp193
Rp194
ag50
(g54
S'~\xeb\xe4\x06J\xff\xdf?'
p195
tp196
Rp197
ag50
(g54
S'\xd0z\xd7\xe0\x7f\x84\xe8?'
p198
tp199
Rp200
ag50
(g54
S'\xa8\x9du\xa26\xe5\xc9?'
p201
tp202
Rp203
ag50
(g54
S'\x12\xd7i\x87M\xd7\xe1?'
p204
tp205
Rp206
ag50
(g54
S'\x12\xd7i\x87M\xd7\xe1?'
p207
tp208
Rp209
ag50
(g54
S'\x10\xfd\xb8\\k-\xe1?'
p210
tp211
Rp212
ag50
(g54
S'\xa8\x9du\xa26\xe5\xc9?'
p213
tp214
Rp215
ag50
(g54
S'\x12\xd7i\x87M\xd7\xe1?'
p216
tp217
Rp218
ag50
(g54
S'\xa8\x9du\xa26\xe5\xc9?'
p219
tp220
Rp221
ag50
(g54
S'\x125\xf74\xe4\xe3\xe7?'
p222
tp223
Rp224
ag50
(g54
S'n\xb5\xb9#\xfef\xe8?'
p225
tp226
Rp227
ag50
(g54
S'\x11\x14\x17r\xf2\xcb\xe3?'
p228
tp229
Rp230
ag50
(g54
S'\xb0\x8c?S\x92U\xd1?'
p231
tp232
Rp233
ag50
(g54
S'\x80\xc6\xf1f\x94\x1b\xc4?'
p234
tp235
Rp236
ag50
(g54
S'\xb0\x8c?S\x92U\xd1?'
p237
tp238
Rp239
ag50
(g54
S'7\xfe?\x98\xb1\xf6\xe7?'
p240
tp241
Rp242
ag50
(g54
S':\xd1\x93\xa2A\xec\xe6?'
p243
tp244
Rp245
ag50
(g54
S'\xb0\x8c?S\x92U\xd1?'
p246
tp247
Rp248
ag50
(g54
S'\x10\xfd\xb8\\k-\xe1?'
p249
tp250
Rp251
asS'sp'
p252
(lp253
(S'p0'
p254
I0
g22
tp255
a(g254
I0
S'y'
p256
tp257
a(g254
I0
g256
tp258
a(g254
I0
g256
tp259
a(g254
I0
S't'
p260
tp261
a(g254
I0
S'x'
p262
tp263
a(S'p1'
p264
I0
g262
tp265
a(g264
I0
g256
tp266
a(g254
I0
g256
tp267
ag258
ag261
ag257
a(g254
I0
g262
tp268
a(g254
I0
g256
tp269
ag268
a(g254
I0
g262
tp270
ag265
a(g264
I0
g262
tp271
ag271
ag266
a(g264
I0
g262
tp272
ag272
a(g264
I0
g260
tp273
a(g264
I0
g262
tp274
ag266
a(g264
I0
g260
tp275
ag274
ag273
a(g264
I0
g260
tp276
ag274
ag274
ag266
ag275
a(g264
I0
g256
tp277
ag272
ag272
ag266
a(S'p2'
p278
I0
g256
tp279
a(g278
I0
g262
tp280
a(g278
I0
g256
tp281
a(g278
I0
g260
tp282
a(g278
I0
g262
tp283
a(S'p3'
p284
I0
g262
tp285
a(g284
I0
g262
tp286
a(g284
I0
g260
tp287
a(g284
I0
g256
tp288
ag288
a(g284
I0
g262
tp289
ag287
a(g284
I0
g260
tp290
ag290
a(g284
F1.5707963267948966
g260
tp291
a(g284
F1.5707963267948966
g256
tp292
a(g278
F1.5707963267948966
g256
tp293
a(g278
F1.5707963267948966
g262
tp294
a(g278
F1.5707963267948966
g256
tp295
a(g278
F1.5707963267948966
g256
tp296
a(g278
F1.5707963267948966
g260
tp297
a(g278
F1.5707963267948966
g262
tp298
a(g284
F1.5707963267948966
g262
tp299
a(g284
F1.5707963267948966
g256
tp300
a(g284
F1.5707963267948966
g262
tp301
a(g284
F1.5707963267948966
g262
tp302
ag300
a(S'p4'
p303
F1.5707963267948966
g256
tp304
asS's'
p305
(lp306
g255
ag255
ag257
ag258
ag259
ag261
ag263
ag265
ag266
ag267
ag258
ag261
ag257
ag268
ag269
ag268
ag270
ag265
ag271
ag271
ag266
ag272
ag272
ag273
ag274
ag266
ag275
ag274
ag273
ag276
ag274
ag274
ag266
ag275
ag277
ag272
ag272
ag266
ag279
ag280
ag281
ag282
ag283
ag285
ag286
ag287
ag288
ag288
ag289
ag287
ag290
ag290
ag291
ag292
ag293
ag294
ag295
ag296
ag297
ag298
ag299
ag300
ag301
ag302
ag300
asS'ui'
p307
(lp308
S'hp'
p309
ag309
aS'ss'
p310
ag252
aS'hs'
p311
ag309
ag310
ag311
ag252
ag311
ag252
ag309
ag311
ag310
ag311
ag310
ag310
ag309
ag309
ag309
ag252
ag309
ag310
ag311
ag309
ag252
ag311
ag309
ag310
ag311
ag309
ag252
ag311
ag311
ag252
ag309
ag309
ag252
ag311
ag310
ag311
ag309
ag310
ag311
ag311
ag252
ag310
ag309
ag311
ag252
ag310
ag252
ag311
ag310
ag311
ag309
ag311
ag252
ag309
ag310
ag309
ag252
ag310
ag309
ag252
asS'um_before'
p312
(lp313
g252
ag311
ag310
ag252
ag309
ag309
ag310
ag309
ag310
ag310
ag309
ag311
ag311
ag309
ag311
ag252
ag310
ag310
ag252
ag309
ag311
ag252
ag311
ag309
ag309
ag309
ag309
ag311
ag310
ag309
ag252
ag309
ag309
ag311
ag311
ag252
ag309
ag252
ag311
ag309
ag309
ag309
ag310
ag252
ag311
ag311
ag252
ag311
ag311
ag310
ag310
ag252
ag311
ag310
ag311
ag309
ag252
ag309
ag309
ag310
ag309
ag311
ag310
ag309
ag252
asS'um_after'
p314
(lp315
Nag311
ag310
ag252
ag309
ag309
ag310
ag309
ag310
ag310
ag309
ag311
ag311
ag309
ag311
ag252
ag310
ag310
aNag309
ag311
aNag311
ag309
ag309
ag309
ag309
ag311
ag310
ag309
aNag309
ag309
ag311
ag311
aNag309
ag252
ag311
ag309
ag309
ag309
ag310
ag252
ag311
ag311
aNag311
ag311
ag310
ag310
ag252
ag311
ag310
ag311
ag309
ag252
ag309
ag309
ag310
ag309
ag311
ag310
ag309
ag252
asS'is_normalized_entropy_less_than_threshold'
p316
(lp317
g50
(g51
(S'b1'
p318
I0
I1
tp319
Rp320
(I3
S'|'
p321
NNNI-1
I-1
I0
tp322
bS'\x01'
p323
tp324
Rp325
ag50
(g320
S'\x00'
p326
tp327
Rp328
ag328
ag328
ag328
ag325
ag325
ag325
ag328
ag328
ag328
ag328
ag325
ag328
ag325
ag328
ag325
ag328
ag325
ag325
ag328
ag325
ag328
ag328
ag325
ag328
ag328
ag328
ag328
ag328
ag325
ag325
ag328
ag325
ag328
ag325
ag325
ag328
ag325
ag328
ag328
ag325
ag325
ag328
ag325
ag328
ag325
ag328
ag325
ag328
ag328
ag328
ag325
ag328
ag325
ag328
ag328
ag328
ag325
ag325
ag325
ag328
ag328
ag325
ag328
asaa(lp329
S'index'
p330
aI48305
aatp331
Rp332
.