ccollections
OrderedDict
p0
((lp1
(lp2
S'combination_dict'
p3
ag0
((lp4
(lp5
S'r_to_g_config'
p6
aS'bl'
p7
aa(lp8
S'num_turns'
p9
aI1
aa(lp10
S'start_direction'
p11
acutils_ms
StartDirection
p12
(I1
tp13
Rp14
aa(lp15
S'assistance_type'
p16
acutils_ms
AssistanceType
p17
(I1
tp18
Rp19
aa(lp20
S'start_mode'
p21
aS't'
p22
aa(lp23
S'ui_given_a_noise'
p24
aF0.7
aa(lp25
S'um_given_ui_noise'
p26
aF0.3
aa(lp27
S'entropy_threshold'
p28
aF0.8
aatp29
Rp30
aa(lp31
S'data'
p32
accollections
defaultdict
p33
(c__builtin__
list
p34
tp35
Rp36
S'a'
p37
(lp38
S'mode_l'
p39
ag39
ag39
ag39
ag39
ag39
aS'move_n'
p40
aS'mode_r'
p41
ag39
ag40
ag41
ag41
ag40
ag41
ag39
ag41
ag39
ag41
ag41
ag39
ag39
ag40
ag41
ag40
ag41
ag41
aS'move_p'
p42
ag41
ag40
ag41
ag40
asS'assistance_match_with_ground_truth'
p43
(lp44
I00
aI00
aI00
aI00
aI00
aI01
aI00
aI00
aI01
aI00
aI00
aI01
aI01
aI00
aI00
aI00
aI00
aI00
aI00
aI00
aI01
aI00
aI01
aI01
aI00
aI01
aI01
aI01
aI00
aI01
aI01
asS'is_u_intended_equals_um'
p45
(lp46
I01
aI01
aI01
aI01
aI01
aI01
aI01
aI01
aI01
aI01
aI01
aI01
aI01
aI01
aI00
aI01
aI01
aI01
aI01
aI01
aI01
aI01
aI01
aI00
aI01
aI01
aI01
aI01
aI01
aI01
aI01
asS'total_steps'
p47
I31
sS'normalized_h_of_p_ui_given_um'
p48
(lp49
cnumpy.core.multiarray
scalar
p50
(cnumpy
dtype
p51
(S'f8'
p52
I0
I1
tp53
Rp54
(I3
S'<'
p55
NNNI-1
I-1
I0
tp56
bS'2U\xbc\x05\xddb\xdf?'
p57
tp58
Rp59
ag50
(g54
S'2U\xbc\x05\xddb\xdf?'
p60
tp61
Rp62
ag50
(g54
S'2U\xbc\x05\xddb\xdf?'
p63
tp64
Rp65
ag50
(g54
S'2U\xbc\x05\xddb\xdf?'
p66
tp67
Rp68
ag50
(g54
S'2U\xbc\x05\xddb\xdf?'
p69
tp70
Rp71
ag50
(g54
S'\xc0/\x8c\x9c\x9a2\xd7?'
p72
tp73
Rp74
ag50
(g54
S'\xf2\xa6\xfb\xed\xf6\x0e\xe3?'
p75
tp76
Rp77
ag50
(g54
S'\xc8\xe8\xdf\xa9R\x9f\xe5?'
p78
tp79
Rp80
ag50
(g54
S'\xc0/\x8c\x9c\x9a2\xd7?'
p81
tp82
Rp83
ag50
(g54
S'\xf2\xa6\xfb\xed\xf6\x0e\xe3?'
p84
tp85
Rp86
ag50
(g54
S'\x14v\xa3(8\x17\xe5?'
p87
tp88
Rp89
ag50
(g54
S"Z\x82'cn\xb6\xd6?"
p90
tp91
Rp92
ag50
(g54
S'*\xac\x94\xcdk+\xdb?'
p93
tp94
Rp95
ag50
(g54
S'\xc8\xe8\xdf\xa9R\x9f\xe5?'
p96
tp97
Rp98
ag50
(g54
S'\xbe\xfa\x0e\x8fH4\xec?'
p99
tp100
Rp101
ag50
(g54
S'\xc8\xe8\xdf\xa9R\x9f\xe5?'
p102
tp103
Rp104
ag50
(g54
S'\xb5/\x07\xf2:W\xdb?'
p105
tp106
Rp107
ag50
(g54
S'\x06\x9e:zL\xd9\xe7?'
p108
tp109
Rp110
ag50
(g54
S'\xc8\xe8\xdf\xa9R\x9f\xe5?'
p111
tp112
Rp113
ag50
(g54
S'2U\xbc\x05\xddb\xdf?'
p114
tp115
Rp116
ag50
(g54
S'\xc0/\x8c\x9c\x9a2\xd7?'
p117
tp118
Rp119
ag50
(g54
S'\xf2\xa6\xfb\xed\xf6\x0e\xe3?'
p120
tp121
Rp122
ag50
(g54
S"Z\x82'cn\xb6\xd6?"
p123
tp124
Rp125
ag50
(g54
S'E\xabf\xba\x01B\xe2?'
p126
tp127
Rp128
ag50
(g54
S'\x06\x9e:zL\xd9\xe7?'
p129
tp130
Rp131
ag50
(g54
S"Z\x82'cn\xb6\xd6?"
p132
tp133
Rp134
ag50
(g54
S'p\xc4\x9a\xc4J\x04\xcf?'
p135
tp136
Rp137
ag50
(g54
S"Z\x82'cn\xb6\xd6?"
p138
tp139
Rp140
ag50
(g54
S'\xf2\xa6\xfb\xed\xf6\x0e\xe3?'
p141
tp142
Rp143
ag50
(g54
S"Z\x82'cn\xb6\xd6?"
p144
tp145
Rp146
ag50
(g54
S'*\xac\x94\xcdk+\xdb?'
p147
tp148
Rp149
asS'sp'
p150
(lp151
(S'p0'
p152
I0
S't'
p153
tp154
ag154
ag154
ag154
ag154
a(g152
I0
S'y'
p155
tp156
a(g152
I0
S'x'
p157
tp158
a(g152
I0
g153
tp159
ag156
ag158
a(g152
I0
g157
tp160
a(g152
I0
g155
tp161
a(S'p1'
p162
I0
g155
tp163
a(g162
I0
g157
tp164
a(g162
I0
g155
tp165
ag164
a(g152
I0
g157
tp166
a(g152
I0
g157
tp167
ag159
ag154
ag156
ag158
ag161
ag163
a(g162
I0
g155
tp168
a(g162
I0
g153
tp169
a(g162
F1.5707963267948966
g153
tp170
a(g162
F1.5707963267948966
g157
tp171
a(g162
F1.5707963267948966
g153
tp172
ag171
a(S'p2'
p173
F1.5707963267948966
g157
tp174
asS's'
p175
(lp176
(g152
I0
g22
tp177
ag154
ag154
ag154
ag154
ag154
ag156
ag158
ag159
ag156
ag158
ag160
ag161
ag163
ag164
ag165
ag164
ag166
ag167
ag159
ag154
ag156
ag158
ag161
ag163
ag168
ag169
ag170
ag171
ag172
ag171
asS'ui'
p178
(lp179
S'ss'
p180
ag180
aS'hs'
p181
ag180
ag180
ag181
ag181
ag181
ag181
ag181
ag150
ag181
ag180
aS'hp'
p182
ag181
ag181
ag180
ag180
ag181
ag180
ag181
ag181
ag150
ag180
ag180
ag181
ag150
ag180
ag181
ag182
ag180
asS'um_before'
p183
(lp184
g180
ag180
ag180
ag180
ag180
ag181
ag181
ag181
ag181
ag181
ag150
ag182
ag180
ag181
ag182
ag181
ag150
ag180
ag181
ag180
ag181
ag181
ag182
ag150
ag180
ag182
ag150
ag182
ag181
ag182
ag180
asS'um_after'
p185
(lp186
g180
ag180
ag180
ag180
ag180
ag181
ag181
ag181
ag181
ag181
ag150
ag182
ag180
ag181
ag182
ag181
ag150
ag180
ag181
ag180
ag181
ag181
ag182
ag180
ag180
ag182
ag150
ag182
ag181
ag182
ag180
asS'is_normalized_entropy_less_than_threshold'
p187
(lp188
g50
(g51
(S'b1'
p189
I0
I1
tp190
Rp191
(I3
S'|'
p192
NNNI-1
I-1
I0
tp193
bS'\x01'
p194
tp195
Rp196
ag196
ag196
ag196
ag196
ag196
ag196
ag196
ag196
ag196
ag196
ag196
ag196
ag196
ag50
(g191
S'\x00'
p197
tp198
Rp199
ag196
ag196
ag196
ag196
ag196
ag196
ag196
ag196
ag196
ag196
ag196
ag196
ag196
ag196
ag196
ag196
asaa(lp200
S'index'
p201
aI65483
aatp202
Rp203
.