ccollections
OrderedDict
p0
((lp1
(lp2
S'combination_dict'
p3
ag0
((lp4
(lp5
S'r_to_g_config'
p6
aS'tl'
p7
aa(lp8
S'num_turns'
p9
aI3
aa(lp10
S'start_direction'
p11
acutils_ms
StartDirection
p12
(I1
tp13
Rp14
aa(lp15
S'assistance_type'
p16
acutils_ms
AssistanceType
p17
(I0
tp18
Rp19
aa(lp20
S'start_mode'
p21
aS't'
p22
aa(lp23
S'ui_given_a_noise'
p24
aF0.3
aa(lp25
S'um_given_ui_noise'
p26
aF0.3
aa(lp27
S'entropy_threshold'
p28
aF0.8
aatp29
Rp30
aa(lp31
S'data'
p32
accollections
defaultdict
p33
(c__builtin__
list
p34
tp35
Rp36
S'a'
p37
(lp38
S'mode_l'
p39
aS'move_p'
p40
ag39
aS'move_n'
p41
aS'mode_r'
p42
ag40
ag39
ag39
ag41
ag42
ag40
ag40
ag39
ag39
ag39
ag39
ag40
ag39
ag39
ag40
ag39
ag39
ag41
ag42
ag42
ag40
ag39
ag40
ag39
ag39
ag40
ag39
ag39
ag39
ag41
ag42
ag42
ag40
ag39
ag40
ag42
ag40
ag42
ag41
ag41
asS'assistance_match_with_ground_truth'
p43
(lp44
I01
aI01
aI01
aI00
aI01
aI01
aI00
aI01
aI00
aI01
aI00
aI00
aI00
aI00
aI00
aI01
aI00
aI00
aI01
aI01
aI00
aI01
aI00
aI00
aI01
aI00
aI01
aI00
aI00
aI01
aI01
aI00
aI00
aI01
aI01
aI00
aI01
aI00
aI01
aI01
aI01
aI01
aI01
aI00
aI01
asS'is_u_intended_equals_um'
p45
(lp46
I01
aI01
aI01
aI00
aI01
aI01
aI00
aI01
aI00
aI01
aI00
aI01
aI00
aI00
aI01
aI01
aI01
aI01
aI01
aI01
aI00
aI01
aI00
aI01
aI01
aI01
aI01
aI01
aI00
aI01
aI01
aI00
aI01
aI01
aI01
aI01
aI01
aI01
aI01
aI01
aI01
aI01
aI01
aI00
aI01
asS'total_steps'
p47
I45
sS'normalized_h_of_p_ui_given_um'
p48
(lp49
cnumpy.core.multiarray
scalar
p50
(cnumpy
dtype
p51
(S'f8'
p52
I0
I1
tp53
Rp54
(I3
S'<'
p55
NNNI-1
I-1
I0
tp56
bS'\xcf\x9f&\xd5f\x9b\xd3?'
p57
tp58
Rp59
ag50
(g54
S'\xe9\xc6\x18Q\x05r\xce?'
p60
tp61
Rp62
ag50
(g54
S'\xcf\x9f&\xd5f\x9b\xd3?'
p63
tp64
Rp65
ag50
(g54
S'\x95\xfb\xd9/=E\xec?'
p66
tp67
Rp68
ag50
(g54
S'\x82\xf7[\xca\tC\xbe?'
p69
tp70
Rp71
ag50
(g54
S'\xe9\xc6\x18Q\x05r\xce?'
p72
tp73
Rp74
ag50
(g54
S'\xb3~\x8e\xa3x\xd4\xe4?'
p75
tp76
Rp77
ag50
(g54
S'\xcf\x9f&\xd5f\x9b\xd3?'
p78
tp79
Rp80
ag50
(g54
S'\x95\xfb\xd9/=E\xec?'
p81
tp82
Rp83
ag50
(g54
S'\x82\xf7[\xca\tC\xbe?'
p84
tp85
Rp86
ag50
(g54
S'n\xf9q4\xe7\xe8\xe1?'
p87
tp88
Rp89
ag50
(g54
S'\x1a\x01\xc4\r98\xe4?'
p90
tp91
Rp92
ag50
(g54
S'\x030?\xdam\xe6\xe7?'
p93
tp94
Rp95
ag50
(g54
S'\x030?\xdam\xe6\xe7?'
p96
tp97
Rp98
ag50
(g54
S'\xcd\xe0\x9c~b\x9a\xe8?'
p99
tp100
Rp101
ag50
(g54
S'\xcf\x9f&\xd5f\x9b\xd3?'
p102
tp103
Rp104
ag50
(g54
S'\x1a\x01\xc4\r98\xe4?'
p105
tp106
Rp107
ag50
(g54
S'\xcd\xe0\x9c~b\x9a\xe8?'
p108
tp109
Rp110
ag50
(g54
S'\xcf\x9f&\xd5f\x9b\xd3?'
p111
tp112
Rp113
ag50
(g54
S'\xe9\xc6\x18Q\x05r\xce?'
p114
tp115
Rp116
ag50
(g54
S'\xb3~\x8e\xa3x\xd4\xe4?'
p117
tp118
Rp119
ag50
(g54
S'\xcf\x9f&\xd5f\x9b\xd3?'
p120
tp121
Rp122
ag50
(g54
S'\x95\xfb\xd9/=E\xec?'
p123
tp124
Rp125
ag50
(g54
S'\xc9\x04\xa8d\xc9\x0b\xe9?'
p126
tp127
Rp128
ag50
(g54
S'\x82\xf7[\xca\tC\xbe?'
p129
tp130
Rp131
ag50
(g54
S'\x1a\x01\xc4\r98\xe4?'
p132
tp133
Rp134
ag50
(g54
S'\xcf\x9f&\xd5f\x9b\xd3?'
p135
tp136
Rp137
ag50
(g54
S'\x1a\x01\xc4\r98\xe4?'
p138
tp139
Rp140
ag50
(g54
S'\xb3~\x8e\xa3x\xd4\xe4?'
p141
tp142
Rp143
ag50
(g54
S'\xcf\x9f&\xd5f\x9b\xd3?'
p144
tp145
Rp146
ag50
(g54
S'\xe9\xc6\x18Q\x05r\xce?'
p147
tp148
Rp149
ag50
(g54
S'\xb3~\x8e\xa3x\xd4\xe4?'
p150
tp151
Rp152
ag50
(g54
S'\xcd\xe0\x9c~b\x9a\xe8?'
p153
tp154
Rp155
ag50
(g54
S'\xcf\x9f&\xd5f\x9b\xd3?'
p156
tp157
Rp158
ag50
(g54
S'\xde\xbdS5\xf9f\xd1?'
p159
tp160
Rp161
ag50
(g54
S'\xc9\x04\xa8d\xc9\x0b\xe9?'
p162
tp163
Rp164
ag50
(g54
S'\x82\xf7[\xca\tC\xbe?'
p165
tp166
Rp167
ag50
(g54
S'\x1a\x01\xc4\r98\xe4?'
p168
tp169
Rp170
ag50
(g54
S'\xcf\x9f&\xd5f\x9b\xd3?'
p171
tp172
Rp173
ag50
(g54
S'\xe9\xc6\x18Q\x05r\xce?'
p174
tp175
Rp176
ag50
(g54
S'\x82\xf7[\xca\tC\xbe?'
p177
tp178
Rp179
ag50
(g54
S'\xe9\xc6\x18Q\x05r\xce?'
p180
tp181
Rp182
ag50
(g54
S'\x82\xf7[\xca\tC\xbe?'
p183
tp184
Rp185
ag50
(g54
S'\xfa\x9b.\xa7\xe7;\xe8?'
p186
tp187
Rp188
ag50
(g54
S'\xde\xbdS5\xf9f\xd1?'
p189
tp190
Rp191
asS'sp'
p192
(lp193
(S'p0'
p194
I0
S'y'
p195
tp196
a(S'p1'
p197
I0
g195
tp198
a(g197
I0
S'x'
p199
tp200
a(g194
I0
g199
tp201
a(g194
I0
g195
tp202
ag198
ag198
ag200
ag201
ag202
ag202
a(g194
I0
S't'
p203
tp204
ag204
ag204
a(g194
I0
g203
tp205
ag196
ag204
ag205
ag196
ag198
ag198
ag200
ag201
a(g194
I0
g199
tp206
ag202
ag204
ag196
ag204
ag204
ag196
ag198
ag198
a(g197
I0
g195
tp207
ag200
a(S'p2'
p208
I0
g199
tp209
a(g208
I0
g199
tp210
a(g208
I0
g195
tp211
a(g208
I0
g203
tp212
a(g208
I0
g195
tp213
a(S'p3'
p214
I0
g195
tp215
a(g214
I0
g203
tp216
a(g214
F1.5707963267948966
g203
tp217
a(g214
F1.5707963267948966
g199
tp218
ag218
a(S'p4'
p219
F1.5707963267948966
g199
tp220
asS's'
p221
(lp222
(g194
I0
g22
tp223
ag196
ag198
ag200
ag201
ag202
ag198
ag198
ag200
ag201
ag202
ag202
ag204
ag204
ag204
ag205
ag196
ag204
ag205
ag196
ag198
ag198
ag200
ag201
ag206
ag202
ag204
ag196
ag204
ag204
ag196
ag198
ag198
ag207
ag200
ag209
ag210
ag211
ag212
ag213
ag215
ag216
ag217
ag218
ag218
asS'ui'
p224
(lp225
S'hs'
p226
ag192
ag226
aS'ss'
p227
aS'hp'
p228
ag192
ag226
ag226
ag192
ag228
ag192
ag192
ag228
ag228
ag192
ag226
ag228
ag192
ag226
ag192
ag226
ag226
ag192
ag228
ag228
ag192
ag226
ag228
ag227
ag192
ag192
ag227
ag227
ag226
ag227
ag227
ag228
ag226
ag226
ag192
ag228
ag192
ag228
ag228
ag227
asS'um_before'
p229
(lp230
g226
ag192
ag226
ag192
ag228
ag192
ag227
ag226
ag192
ag228
ag227
ag228
ag228
ag228
ag192
ag226
ag228
ag192
ag226
ag192
ag227
ag226
ag192
ag227
ag228
ag228
ag226
ag228
ag227
ag226
ag192
ag227
ag192
ag226
ag227
ag227
ag228
ag228
ag226
ag192
ag228
ag192
ag228
ag228
ag227
asS'um_after'
p231
(lp232
g226
ag192
ag226
ag192
ag228
ag192
aNag226
ag192
ag228
aNag228
aNaNag192
ag226
ag228
ag192
ag226
ag192
aNag226
ag192
ag227
ag228
ag228
ag226
ag228
aNag226
ag192
aNag192
ag226
ag227
ag227
ag228
ag228
ag226
ag192
ag228
ag192
ag228
aNag227
asS'is_normalized_entropy_less_than_threshold'
p233
(lp234
g50
(g51
(S'b1'
p235
I0
I1
tp236
Rp237
(I3
S'|'
p238
NNNI-1
I-1
I0
tp239
bS'\x01'
p240
tp241
Rp242
ag242
ag242
ag50
(g237
S'\x00'
p243
tp244
Rp245
ag242
ag242
ag242
ag242
ag245
ag242
ag242
ag242
ag242
ag242
ag242
ag242
ag242
ag242
ag242
ag242
ag242
ag242
ag245
ag242
ag242
ag242
ag242
ag242
ag242
ag242
ag242
ag242
ag242
ag242
ag242
ag242
ag242
ag242
ag242
ag242
ag242
ag242
ag242
ag242
ag242
asaa(lp246
S'index'
p247
aI53883
aatp248
Rp249
.