ccollections
OrderedDict
p0
((lp1
(lp2
S'combination_dict'
p3
ag0
((lp4
(lp5
S'r_to_g_config'
p6
aS'tr'
p7
aa(lp8
S'num_turns'
p9
aI3
aa(lp10
S'start_direction'
p11
acutils_ms
StartDirection
p12
(I0
tp13
Rp14
aa(lp15
S'assistance_type'
p16
acutils_ms
AssistanceType
p17
(I1
tp18
Rp19
aa(lp20
S'start_mode'
p21
aS'y'
p22
aa(lp23
S'ui_given_a_noise'
p24
aF0.7
aa(lp25
S'um_given_ui_noise'
p26
aF0.7
aa(lp27
S'entropy_threshold'
p28
aF0.7
aatp29
Rp30
aa(lp31
S'data'
p32
accollections
defaultdict
p33
(c__builtin__
list
p34
tp35
Rp36
S'a'
p37
(lp38
S'mode_l'
p39
ag39
aS'move_p'
p40
aS'mode_r'
p41
ag41
ag41
ag40
ag39
ag39
ag40
ag39
ag40
ag39
ag40
ag39
ag39
ag39
ag40
ag39
ag40
ag39
ag40
ag39
ag40
asS'assistance_match_with_ground_truth'
p42
(lp43
I00
aI01
aI01
aI00
aI00
aI01
aI01
aI00
aI01
aI01
aI01
aI01
aI00
aI00
aI00
aI00
aI01
aI00
aI01
aI00
aI01
aI01
aI01
aI01
asS'is_u_intended_equals_um'
p44
(lp45
I00
aI01
aI01
aI00
aI00
aI01
aI00
aI01
aI01
aI00
aI00
aI01
aI01
aI00
aI00
aI00
aI00
aI00
aI01
aI00
aI00
aI01
aI00
aI00
asS'total_steps'
p46
I24
sS'normalized_h_of_p_ui_given_um'
p47
(lp48
cnumpy.core.multiarray
scalar
p49
(cnumpy
dtype
p50
(S'f8'
p51
I0
I1
tp52
Rp53
(I3
S'<'
p54
NNNI-1
I-1
I0
tp55
bS'\xd6\xb8\xc1\xac}Y\xed?'
p56
tp57
Rp58
ag49
(g53
S'&J\x97\x11O\xfc\xdd?'
p59
tp60
Rp61
ag49
(g53
S'3,6\xc4\x7f\xcb\xd6?'
p62
tp63
Rp64
ag49
(g53
S'M\xe6Z\x9c%u\xe6?'
p65
tp66
Rp67
ag49
(g53
S'M\xe6Z\x9c%u\xe6?'
p68
tp69
Rp70
ag49
(g53
S'j\xbd\xb1\xa5\x83\x1b\xd8?'
p71
tp72
Rp73
ag49
(g53
S'x\xe3\xd5L=\x13\xe2?'
p74
tp75
Rp76
ag49
(g53
S'd#&vm,\xe8?'
p77
tp78
Rp79
ag49
(g53
S'&J\x97\x11O\xfc\xdd?'
p80
tp81
Rp82
ag49
(g53
S'\xff\xb4\xeb\x84\xbd\x87\xe2?'
p83
tp84
Rp85
ag49
(g53
S'M\xd6\xfe@\xa2\xf3\xe2?'
p86
tp87
Rp88
ag49
(g53
S'3,6\xc4\x7f\xcb\xd6?'
p89
tp90
Rp91
ag49
(g53
S'd#&vm,\xe8?'
p92
tp93
Rp94
ag49
(g53
S'3\xae\xb5\x1c\x00m\xe8?'
p95
tp96
Rp97
ag49
(g53
S'\xd6\xb8\xc1\xac}Y\xed?'
p98
tp99
Rp100
ag49
(g53
S'\xd6\xb8\xc1\xac}Y\xed?'
p101
tp102
Rp103
ag49
(g53
S'M\xd6\xfe@\xa2\xf3\xe2?'
p104
tp105
Rp106
ag49
(g53
S'3\xae\xb5\x1c\x00m\xe8?'
p107
tp108
Rp109
ag49
(g53
S'&J\x97\x11O\xfc\xdd?'
p110
tp111
Rp112
ag49
(g53
S'3\xae\xb5\x1c\x00m\xe8?'
p113
tp114
Rp115
ag49
(g53
S'M\xd6\xfe@\xa2\xf3\xe2?'
p116
tp117
Rp118
ag49
(g53
S'3,6\xc4\x7f\xcb\xd6?'
p119
tp120
Rp121
ag49
(g53
S'M\xd6\xfe@\xa2\xf3\xe2?'
p122
tp123
Rp124
ag49
(g53
S'\xff\xb4\xeb\x84\xbd\x87\xe2?'
p125
tp126
Rp127
asS'sp'
p128
(lp129
(S'p0'
p130
I0
S'y'
p131
tp132
a(g130
I0
S'x'
p133
tp134
a(S'p1'
p135
I0
g133
tp136
a(g135
I0
g133
tp137
ag137
a(g135
I0
g131
tp138
a(S'p2'
p139
I0
g131
tp140
a(g139
I0
g131
tp141
a(g139
I0
g133
tp142
a(S'p3'
p143
I0
g133
tp144
a(g143
I0
S't'
p145
tp146
a(g143
F1.5707963267948966
g145
tp147
a(g143
I0
g145
tp148
a(g143
I0
g133
tp149
a(g143
I0
g133
tp150
ag150
ag146
ag149
ag146
ag149
ag146
ag147
a(g143
F1.5707963267948966
g131
tp151
a(S'p4'
p152
F1.5707963267948966
g131
tp153
asS's'
p154
(lp155
(g130
I0
g22
tp156
ag132
ag134
ag136
ag137
ag137
ag138
ag140
ag141
ag142
ag144
ag146
ag147
ag148
ag149
ag150
ag150
ag146
ag149
ag146
ag149
ag146
ag147
ag151
asS'ui'
p157
(lp158
g128
aS'hs'
p159
ag159
ag128
ag128
aS'hp'
p160
ag128
aS'ss'
p161
ag159
ag128
ag159
ag128
ag161
ag159
ag159
ag159
ag160
ag128
ag159
ag159
ag159
ag128
ag159
ag128
asS'um_before'
p162
(lp163
g128
ag159
ag128
ag128
ag128
ag160
ag161
ag161
ag159
ag159
ag160
ag128
ag161
ag160
ag128
ag128
ag160
ag160
ag159
ag160
ag160
ag128
ag160
ag159
asS'um_after'
p164
(lp165
g128
ag159
ag128
ag128
ag128
ag160
ag128
ag161
ag159
ag128
ag159
ag128
ag161
ag160
ag128
ag128
ag159
ag160
ag159
ag160
ag159
ag128
ag159
ag128
asS'is_normalized_entropy_less_than_threshold'
p166
(lp167
g49
(g50
(S'b1'
p168
I0
I1
tp169
Rp170
(I3
S'|'
p171
NNNI-1
I-1
I0
tp172
bS'\x00'
p173
tp174
Rp175
ag49
(g170
S'\x01'
p176
tp177
Rp178
ag178
ag175
ag175
ag178
ag178
ag175
ag178
ag178
ag178
ag178
ag175
ag175
ag175
ag175
ag178
ag175
ag178
ag175
ag178
ag178
ag178
ag178
asaa(lp179
S'index'
p180
aI22379
aatp181
Rp182
.