ccollections
OrderedDict
p0
((lp1
(lp2
S'combination_dict'
p3
ag0
((lp4
(lp5
S'r_to_g_config'
p6
aS'tl'
p7
aa(lp8
S'num_turns'
p9
aI3
aa(lp10
S'start_direction'
p11
acutils_ms
StartDirection
p12
(I1
tp13
Rp14
aa(lp15
S'assistance_type'
p16
acutils_ms
AssistanceType
p17
(I1
tp18
Rp19
aa(lp20
S'start_mode'
p21
aS't'
p22
aa(lp23
S'ui_given_a_noise'
p24
aF0.7
aa(lp25
S'um_given_ui_noise'
p26
aF0.1
aa(lp27
S'entropy_threshold'
p28
aF0.6
aatp29
Rp30
aa(lp31
S'data'
p32
accollections
defaultdict
p33
(c__builtin__
list
p34
tp35
Rp36
S'a'
p37
(lp38
S'mode_l'
p39
aS'move_p'
p40
ag39
aS'mode_r'
p41
ag41
ag41
ag41
aS'move_n'
p42
ag39
ag41
ag39
ag42
ag39
ag39
ag41
ag39
ag39
ag41
ag41
ag39
ag39
ag39
ag41
ag42
ag39
ag39
ag42
ag39
ag41
ag40
ag41
ag40
ag39
ag40
ag39
ag41
ag39
ag40
ag41
ag41
ag40
ag41
ag41
ag41
ag41
ag40
ag39
ag41
ag42
ag39
ag42
ag39
ag42
asS'assistance_match_with_ground_truth'
p43
(lp44
I01
aI01
aI00
aI00
aI00
aI00
aI01
aI01
aI00
aI00
aI01
aI01
aI00
aI00
aI00
aI00
aI00
aI00
aI00
aI00
aI00
aI00
aI01
aI00
aI00
aI01
aI00
aI00
aI01
aI00
aI01
aI01
aI00
aI01
aI00
aI00
aI01
aI00
aI00
aI01
aI00
aI00
aI00
aI00
aI01
aI01
aI00
aI01
aI00
aI01
aI00
aI01
aI01
asS'is_u_intended_equals_um'
p45
(lp46
I01
aI01
aI01
aI01
aI01
aI01
aI01
aI01
aI01
aI01
aI01
aI01
aI01
aI01
aI01
aI01
aI01
aI01
aI01
aI01
aI01
aI01
aI01
aI01
aI01
aI01
aI01
aI01
aI01
aI01
aI01
aI01
aI01
aI01
aI01
aI01
aI01
aI01
aI01
aI01
aI01
aI01
aI01
aI01
aI01
aI01
aI01
aI01
aI01
aI01
aI01
aI01
aI01
asS'total_steps'
p47
I53
sS'normalized_h_of_p_ui_given_um'
p48
(lp49
cnumpy.core.multiarray
scalar
p50
(cnumpy
dtype
p51
(S'f8'
p52
I0
I1
tp53
Rp54
(I3
S'<'
p55
NNNI-1
I-1
I0
tp56
bS'w5zS\xb8D\xc5?'
p57
tp58
Rp59
ag50
(g54
S'\xbb:\xef\xf6"\x8d\xbe?'
p60
tp61
Rp62
ag50
(g54
S'^B\x99X@4\xd6?'
p63
tp64
Rp65
ag50
(g54
S'\xc2\x90+\x80\x93\xdb\xd3?'
p66
tp67
Rp68
ag50
(g54
S'\xc1Iy\tx\x18\xd9?'
p69
tp70
Rp71
ag50
(g54
S'\xc1Iy\tx\x18\xd9?'
p72
tp73
Rp74
ag50
(g54
S'V\xa7\xe6R5\xc1\xc7?'
p75
tp76
Rp77
ag50
(g54
S'\x8d\xffh\x8b\t\x02\xcb?'
p78
tp79
Rp80
ag50
(g54
S'^B\x99X@4\xd6?'
p81
tp82
Rp83
ag50
(g54
S'\xc2\x90+\x80\x93\xdb\xd3?'
p84
tp85
Rp86
ag50
(g54
S'w5zS\xb8D\xc5?'
p87
tp88
Rp89
ag50
(g54
S'\x8d\xffh\x8b\t\x02\xcb?'
p90
tp91
Rp92
ag50
(g54
S'\r\x88\x93;\xc2\x18\xd6?'
p93
tp94
Rp95
ag50
(g54
S'^B\x99X@4\xd6?'
p96
tp97
Rp98
ag50
(g54
S'\xc1Iy\tx\x18\xd9?'
p99
tp100
Rp101
ag50
(g54
S'[?\x01\x95\xd3B\xe3?'
p102
tp103
Rp104
ag50
(g54
S'^B\x99X@4\xd6?'
p105
tp106
Rp107
ag50
(g54
S'\xc2\x90+\x80\x93\xdb\xd3?'
p108
tp109
Rp110
ag50
(g54
S'\xc2bvuqI\xe0?'
p111
tp112
Rp113
ag50
(g54
S'[?\x01\x95\xd3B\xe3?'
p114
tp115
Rp116
ag50
(g54
S'\r\x88\x93;\xc2\x18\xd6?'
p117
tp118
Rp119
ag50
(g54
S'^B\x99X@4\xd6?'
p120
tp121
Rp122
ag50
(g54
S'V\xa7\xe6R5\xc1\xc7?'
p123
tp124
Rp125
ag50
(g54
S'\x02\xe6.G2\x11\xd7?'
p126
tp127
Rp128
ag50
(g54
S'\r\x88\x93;\xc2\x18\xd6?'
p129
tp130
Rp131
ag50
(g54
S'w5zS\xb8D\xc5?'
p132
tp133
Rp134
ag50
(g54
S'\xf4y\x8f\x84wf\xe4?'
p135
tp136
Rp137
ag50
(g54
S'^B\x99X@4\xd6?'
p138
tp139
Rp140
ag50
(g54
S'V\xa7\xe6R5\xc1\xc7?'
p141
tp142
Rp143
ag50
(g54
S'\xd8\xf2\xa1\x07a\xa6\xdd?'
p144
tp145
Rp146
ag50
(g54
S'V\xa7\xe6R5\xc1\xc7?'
p147
tp148
Rp149
ag50
(g54
S'\xbb:\xef\xf6"\x8d\xbe?'
p150
tp151
Rp152
ag50
(g54
S'\r\x88\x93;\xc2\x18\xd6?'
p153
tp154
Rp155
ag50
(g54
S'\xbb:\xef\xf6"\x8d\xbe?'
p156
tp157
Rp158
ag50
(g54
S'^B\x99X@4\xd6?'
p159
tp160
Rp161
ag50
(g54
S'\xc2bvuqI\xe0?'
p162
tp163
Rp164
ag50
(g54
S'w5zS\xb8D\xc5?'
p165
tp166
Rp167
ag50
(g54
S'\xd8\xf2\xa1\x07a\xa6\xdd?'
p168
tp169
Rp170
ag50
(g54
S'\xc1Iy\tx\x18\xd9?'
p171
tp172
Rp173
ag50
(g54
S'V\xa7\xe6R5\xc1\xc7?'
p174
tp175
Rp176
ag50
(g54
S'\xd8\xf2\xa1\x07a\xa6\xdd?'
p177
tp178
Rp179
ag50
(g54
S'\xc2\x90+\x80\x93\xdb\xd3?'
p180
tp181
Rp182
ag50
(g54
S'\xc2\x90+\x80\x93\xdb\xd3?'
p183
tp184
Rp185
ag50
(g54
S'\xc2\x90+\x80\x93\xdb\xd3?'
p186
tp187
Rp188
ag50
(g54
S'V\xa7\xe6R5\xc1\xc7?'
p189
tp190
Rp191
ag50
(g54
S'\xbb:\xef\xf6"\x8d\xbe?'
p192
tp193
Rp194
ag50
(g54
S'^B\x99X@4\xd6?'
p195
tp196
Rp197
ag50
(g54
S'V\xa7\xe6R5\xc1\xc7?'
p198
tp199
Rp200
ag50
(g54
S'\x02\xe6.G2\x11\xd7?'
p201
tp202
Rp203
ag50
(g54
S'w5zS\xb8D\xc5?'
p204
tp205
Rp206
ag50
(g54
S'\x02\xe6.G2\x11\xd7?'
p207
tp208
Rp209
ag50
(g54
S'w5zS\xb8D\xc5?'
p210
tp211
Rp212
ag50
(g54
S'\x8d\xffh\x8b\t\x02\xcb?'
p213
tp214
Rp215
asS'sp'
p216
(lp217
(S'p0'
p218
I0
S'y'
p219
tp220
a(S'p1'
p221
I0
g219
tp222
a(g221
I0
S't'
p223
tp224
a(g221
I0
g223
tp225
a(g221
I0
g223
tp226
ag226
a(g221
I0
S'x'
p227
tp228
a(S'p2'
p229
I0
g227
tp230
a(g229
I0
g219
tp231
a(g221
I0
g219
tp232
a(g221
I0
g227
tp233
ag230
a(g229
I0
g227
tp234
ag231
a(S'p3'
p235
I0
g219
tp236
a(g235
I0
g219
tp237
a(g235
I0
g223
tp238
a(g235
I0
g223
tp239
a(g235
I0
g219
tp240
ag237
a(g235
I0
g219
tp241
ag238
a(g235
I0
g227
tp242
a(g235
I0
g219
tp243
ag241
a(g235
I0
g227
tp244
a(g229
I0
g227
tp245
ag231
a(g229
I0
g223
tp246
a(g229
I0
g219
tp247
ag246
a(g229
F1.5707963267948966
g223
tp248
a(g229
I0
g223
tp249
ag248
a(g229
F1.5707963267948966
g227
tp250
a(g229
F1.5707963267948966
g223
tp251
a(g229
F1.5707963267948966
g219
tp252
a(g229
F1.5707963267948966
g227
tp253
a(g229
F1.5707963267948966
g227
tp254
a(g229
F1.5707963267948966
g219
tp255
ag253
a(g229
F1.5707963267948966
g227
tp256
ag256
ag256
ag255
a(g235
F1.5707963267948966
g219
tp257
a(g235
F1.5707963267948966
g223
tp258
a(g235
F1.5707963267948966
g227
tp259
a(g235
F1.5707963267948966
g219
tp260
a(g235
F1.5707963267948966
g227
tp261
ag260
ag261
a(S'p4'
p262
F1.5707963267948966
g227
tp263
asS's'
p264
(lp265
(g218
I0
g22
tp266
ag220
ag222
ag224
ag225
ag226
ag226
ag228
ag230
ag231
ag232
ag233
ag230
ag234
ag231
ag236
ag237
ag238
ag239
ag240
ag237
ag241
ag238
ag242
ag243
ag241
ag244
ag245
ag231
ag246
ag247
ag246
ag248
ag249
ag248
ag250
ag251
ag252
ag253
ag254
ag255
ag253
ag256
ag256
ag256
ag255
ag257
ag258
ag259
ag260
ag261
ag260
ag261
asS'ui'
p267
(lp268
S'hs'
p269
ag216
aS'hp'
p270
aS'ss'
p271
ag216
ag216
ag270
ag271
ag270
ag271
ag269
ag271
ag271
ag270
ag216
ag216
ag270
ag271
ag269
ag216
ag271
ag270
ag270
ag270
ag271
ag269
ag216
ag270
ag270
ag269
ag270
ag216
ag271
ag216
ag270
ag271
ag269
ag216
ag216
ag270
ag216
ag271
ag271
ag271
ag270
ag216
ag270
ag270
ag270
ag269
ag270
ag269
ag271
asS'um_before'
p272
(lp273
g269
ag216
ag270
ag271
ag216
ag216
ag270
ag271
ag270
ag271
ag269
ag271
ag271
ag270
ag216
ag216
ag270
ag271
ag269
ag216
ag271
ag270
ag270
ag270
ag271
ag269
ag216
ag270
ag270
ag269
ag270
ag216
ag271
ag216
ag270
ag269
ag269
ag269
ag216
ag270
ag269
ag271
ag271
ag271
ag270
ag216
ag270
ag270
ag270
ag269
ag270
ag269
ag271
asS'um_after'
p274
(lp275
g269
ag216
ag270
ag271
ag216
ag216
ag270
ag271
ag270
ag271
ag269
ag271
ag271
ag270
ag216
ag216
ag270
ag271
ag269
ag216
ag271
ag270
ag270
ag270
ag271
ag269
ag216
ag270
ag270
ag269
ag270
ag216
ag271
ag216
ag270
ag269
ag269
ag269
ag216
ag270
ag269
ag271
ag271
ag271
ag270
ag216
ag270
ag270
ag270
ag269
ag270
ag269
ag271
asS'is_normalized_entropy_less_than_threshold'
p276
(lp277
g50
(g51
(S'b1'
p278
I0
I1
tp279
Rp280
(I3
S'|'
p281
NNNI-1
I-1
I0
tp282
bS'\x01'
p283
tp284
Rp285
ag285
ag285
ag285
ag285
ag285
ag285
ag285
ag285
ag285
ag285
ag285
ag285
ag285
ag285
ag50
(g280
S'\x00'
p286
tp287
Rp288
ag285
ag285
ag285
ag288
ag285
ag285
ag285
ag285
ag285
ag285
ag288
ag285
ag285
ag285
ag285
ag285
ag285
ag285
ag285
ag285
ag285
ag285
ag285
ag285
ag285
ag285
ag285
ag285
ag285
ag285
ag285
ag285
ag285
ag285
ag285
ag285
ag285
asaa(lp289
S'index'
p290
aI55810
aatp291
Rp292
.