ccollections
OrderedDict
p0
((lp1
(lp2
S'combination_dict'
p3
ag0
((lp4
(lp5
S'r_to_g_config'
p6
aS'br'
p7
aa(lp8
S'num_turns'
p9
aI1
aa(lp10
S'start_direction'
p11
acutils_ms
StartDirection
p12
(I1
tp13
Rp14
aa(lp15
S'assistance_type'
p16
acutils_ms
AssistanceType
p17
(I0
tp18
Rp19
aa(lp20
S'start_mode'
p21
aS'x'
p22
aa(lp23
S'ui_given_a_noise'
p24
aF0.7
aa(lp25
S'um_given_ui_noise'
p26
aF0.1
aa(lp27
S'entropy_threshold'
p28
aF0.6
aatp29
Rp30
aa(lp31
S'data'
p32
accollections
defaultdict
p33
(c__builtin__
list
p34
tp35
Rp36
S'a'
p37
(lp38
S'mode_r'
p39
ag39
ag39
aS'mode_l'
p40
ag40
aS'move_n'
p41
ag39
ag39
aS'move_p'
p42
ag39
ag42
ag39
ag39
ag42
ag40
ag42
asS'assistance_match_with_ground_truth'
p43
(lp44
I00
aI00
aI00
aI00
aI01
aI01
aI00
aI01
aI01
aI01
aI00
aI00
aI01
aI00
aI01
aI01
asS'is_u_intended_equals_um'
p45
(lp46
I01
aI01
aI01
aI01
aI01
aI01
aI01
aI01
aI01
aI01
aI01
aI01
aI01
aI01
aI01
aI01
asS'total_steps'
p47
I16
sS'normalized_h_of_p_ui_given_um'
p48
(lp49
cnumpy.core.multiarray
scalar
p50
(cnumpy
dtype
p51
(S'f8'
p52
I0
I1
tp53
Rp54
(I3
S'<'
p55
NNNI-1
I-1
I0
tp56
bS'\xba~M\x8d\xf8(\xdd?'
p57
tp58
Rp59
ag50
(g54
S'\xba~M\x8d\xf8(\xdd?'
p60
tp61
Rp62
ag50
(g54
S'\x87\xccM\x86?\x81\xe8?'
p63
tp64
Rp65
ag50
(g54
S'[kj\x99n\xc2\xe3?'
p66
tp67
Rp68
ag50
(g54
S'\xef\xe0\x81\x17j\x84\xcd?'
p69
tp70
Rp71
ag50
(g54
S'\xbfc\xb8\x06\xbc\x07\xc9?'
p72
tp73
Rp74
ag50
(g54
S'\xba~M\x8d\xf8(\xdd?'
p75
tp76
Rp77
ag50
(g54
S'\x9a\x06\xa8j\xe0\xdf\xb2?'
p78
tp79
Rp80
ag50
(g54
S'd\x8e\x03mQI\xbc?'
p81
tp82
Rp83
ag50
(g54
S'\x9a\x06\xa8j\xe0\xdf\xb2?'
p84
tp85
Rp86
ag50
(g54
S'*a\xa2\x8f\x97\xa7\xdb?'
p87
tp88
Rp89
ag50
(g54
S'\xe1%\xf0\x94\xa7r\xe8?'
p90
tp91
Rp92
ag50
(g54
S'\x9a\x06\xa8j\xe0\xdf\xb2?'
p93
tp94
Rp95
ag50
(g54
S'\x07\xcbhT\xba\xe2\xd7?'
p96
tp97
Rp98
ag50
(g54
S'\xef\xe0\x81\x17j\x84\xcd?'
p99
tp100
Rp101
ag50
(g54
S'd\x8e\x03mQI\xbc?'
p102
tp103
Rp104
asS'sp'
p105
(lp106
(S'p0'
p107
I0
S'x'
p108
tp109
ag109
a(g107
I0
S't'
p110
tp111
a(g107
I0
g110
tp112
a(g107
I0
S'y'
p113
tp114
a(S'p1'
p115
I0
g113
tp116
a(g115
I0
g113
tp117
a(g115
I0
g110
tp118
a(g115
F1.5707963267948966
g110
tp119
a(g115
F1.5707963267948966
g108
tp120
a(g115
F1.5707963267948966
g110
tp121
a(g115
F1.5707963267948966
g110
tp122
ag120
a(g115
F1.5707963267948966
g113
tp123
a(g115
F1.5707963267948966
g108
tp124
a(S'p2'
p125
F1.5707963267948966
g108
tp126
asS's'
p127
(lp128
(g107
I0
g22
tp129
ag109
ag109
ag111
ag112
ag114
ag116
ag117
ag118
ag119
ag120
ag121
ag122
ag120
ag123
ag124
asS'ui'
p130
(lp131
S'hp'
p132
aS'ss'
p133
aS'hs'
p134
ag133
ag134
ag133
ag133
ag132
ag105
ag132
ag105
ag133
ag132
ag105
ag134
ag105
asS'um_before'
p135
(lp136
g133
ag133
ag134
ag133
ag134
ag133
ag133
ag132
ag105
ag132
ag134
ag105
ag132
ag132
ag134
ag105
asS'um_after'
p137
(lp138
g133
ag133
ag134
ag133
ag134
ag133
ag133
ag132
ag105
ag132
ag134
ag105
ag132
ag132
ag134
ag105
asS'is_normalized_entropy_less_than_threshold'
p139
(lp140
g50
(g51
(S'b1'
p141
I0
I1
tp142
Rp143
(I3
S'|'
p144
NNNI-1
I-1
I0
tp145
bS'\x01'
p146
tp147
Rp148
ag148
ag50
(g143
S'\x00'
p149
tp150
Rp151
ag151
ag148
ag148
ag148
ag148
ag148
ag148
ag148
ag151
ag148
ag148
ag148
ag148
asaa(lp152
S'index'
p153
aI91819
aatp154
Rp155
.