ccollections
OrderedDict
p0
((lp1
(lp2
S'combination_dict'
p3
ag0
((lp4
(lp5
S'r_to_g_config'
p6
aS'tr'
p7
aa(lp8
S'num_turns'
p9
aI3
aa(lp10
S'start_direction'
p11
acutils_ms
StartDirection
p12
(I0
tp13
Rp14
aa(lp15
S'assistance_type'
p16
acutils_ms
AssistanceType
p17
(I2
tp18
Rp19
aa(lp20
S'start_mode'
p21
aS't'
p22
aa(lp23
S'ui_given_a_noise'
p24
aF0.1
aa(lp25
S'um_given_ui_noise'
p26
aF0.7
aa(lp27
S'entropy_threshold'
p28
aF0.5
aatp29
Rp30
aa(lp31
S'data'
p32
accollections
defaultdict
p33
(c__builtin__
list
p34
tp35
Rp36
S'a'
p37
(lp38
S'mode_r'
p39
ag39
aS'move_p'
p40
ag39
ag40
aS'mode_l'
p41
ag39
ag40
ag41
ag40
ag41
ag40
ag39
ag39
ag41
ag40
ag41
ag41
ag39
ag40
ag39
ag39
ag39
ag39
ag40
ag41
ag41
ag39
ag39
ag39
ag40
ag40
ag41
ag40
ag41
ag40
ag41
ag40
ag41
ag40
ag41
ag41
ag39
ag40
ag40
ag39
ag39
ag39
ag40
ag41
ag41
ag41
ag40
ag39
ag39
ag40
ag41
ag40
ag41
ag41
ag41
ag39
ag39
ag39
ag39
ag40
ag39
ag39
ag39
ag40
ag39
ag40
ag39
ag39
ag40
ag41
ag41
ag39
ag39
ag40
ag39
ag40
ag39
ag40
asS'assistance_match_with_ground_truth'
p42
(lp43
I00
aI01
aI00
aI01
aI01
aI00
aI01
aI00
aI01
aI01
aI01
aI00
aI00
aI00
aI01
aI01
aI00
aI00
aI01
aI00
aI00
aI00
aI00
aI01
aI00
aI00
aI00
aI00
aI00
aI01
aI00
aI00
aI01
aI00
aI01
aI00
aI01
aI00
aI01
aI00
aI00
aI00
aI01
aI00
aI01
aI00
aI00
aI01
aI01
aI00
aI00
aI01
aI00
aI00
aI01
aI00
aI01
aI00
aI00
aI00
aI00
aI00
aI00
aI00
aI01
aI00
aI00
aI00
aI01
aI00
aI01
aI00
aI00
aI01
aI01
aI00
aI00
aI00
aI01
aI00
aI01
aI01
aI01
aI01
asS'is_u_intended_equals_um'
p44
(lp45
I00
aI00
aI00
aI00
aI00
aI00
aI00
aI00
aI00
aI00
aI00
aI00
aI00
aI00
aI00
aI00
aI00
aI00
aI00
aI00
aI00
aI00
aI00
aI00
aI00
aI00
aI00
aI00
aI00
aI00
aI00
aI00
aI00
aI00
aI00
aI00
aI00
aI00
aI00
aI00
aI00
aI00
aI00
aI00
aI00
aI00
aI00
aI00
aI00
aI00
aI00
aI00
aI00
aI00
aI00
aI00
aI00
aI00
aI00
aI00
aI00
aI00
aI00
aI00
aI00
aI00
aI00
aI00
aI00
aI00
aI00
aI00
aI00
aI00
aI00
aI00
aI00
aI00
aI00
aI00
aI00
aI00
aI00
aI00
asS'total_steps'
p46
I84
sS'normalized_h_of_p_ui_given_um'
p47
(lp48
cnumpy.core.multiarray
scalar
p49
(cnumpy
dtype
p50
(S'f8'
p51
I0
I1
tp52
Rp53
(I3
S'<'
p54
NNNI-1
I-1
I0
tp55
bS'B\x8a\xfd\x06]\x97\xe3?'
p56
tp57
Rp58
ag58
ag58
ag58
ag58
ag58
ag58
ag58
ag58
ag58
ag58
ag58
ag58
ag58
ag58
ag58
ag58
ag58
ag58
ag58
ag58
ag58
ag58
ag58
ag58
ag58
ag58
ag58
ag58
ag58
ag58
ag58
ag58
ag58
ag58
ag58
ag58
ag58
ag58
ag58
ag58
ag58
ag58
ag58
ag58
ag58
ag58
ag58
ag58
ag58
ag58
ag58
ag58
ag58
ag58
ag58
ag58
ag58
ag58
ag58
ag58
ag58
ag58
ag58
ag58
ag58
ag58
ag58
ag58
ag58
ag58
ag58
ag58
ag58
ag58
ag58
ag58
ag58
ag58
ag58
ag58
ag58
ag58
ag58
asS'sp'
p59
(lp60
(S'p0'
p61
I0
S't'
p62
tp63
a(g61
I0
S'x'
p64
tp65
a(g61
I0
g62
tp66
ag65
a(S'p1'
p67
I0
g64
tp68
a(g67
I0
S'y'
p69
tp70
a(g67
I0
g62
tp71
a(g67
I0
g64
tp72
a(g67
I0
g62
tp73
a(g67
F1.5707963267948966
g62
tp74
a(g67
F1.5707963267948966
g69
tp75
a(g67
F1.5707963267948966
g64
tp76
a(g67
F1.5707963267948966
g64
tp77
a(g67
F1.5707963267948966
g62
tp78
ag75
a(S'p2'
p79
F1.5707963267948966
g69
tp80
a(g79
F1.5707963267948966
g69
tp81
a(g79
F1.5707963267948966
g62
tp82
a(g79
F1.5707963267948966
g64
tp83
a(g67
F1.5707963267948966
g64
tp84
a(g67
F1.5707963267948966
g64
tp85
ag85
ag85
a(g67
F1.5707963267948966
g69
tp86
a(g61
F1.5707963267948966
g69
tp87
a(g61
F1.5707963267948966
g69
tp88
a(g61
F1.5707963267948966
g62
tp89
a(g61
F1.5707963267948966
g62
tp90
a(g61
F1.5707963267948966
g62
tp91
a(g61
F1.5707963267948966
g64
tp92
a(g61
F1.5707963267948966
g64
tp93
a(g61
F1.5707963267948966
g69
tp94
a(g61
F1.5707963267948966
g64
tp95
ag94
ag95
ag94
ag95
ag94
ag95
ag94
ag88
ag89
ag92
ag93
a(g67
F1.5707963267948966
g64
tp96
ag77
ag85
ag86
ag80
ag81
ag81
a(g79
F1.5707963267948966
g64
tp97
a(g79
F1.5707963267948966
g62
tp98
a(g79
F1.5707963267948966
g62
tp99
ag83
a(g79
F1.5707963267948966
g69
tp100
ag97
ag100
a(g79
F1.5707963267948966
g69
tp101
ag101
ag82
a(g79
F1.5707963267948966
g62
tp102
ag99
ag99
ag83
ag84
ag85
ag85
ag86
ag76
ag86
ag76
ag85
ag86
ag80
ag81
ag82
ag99
ag83
ag98
ag83
a(S'p3'
p103
F1.5707963267948966
g64
tp104
a(g103
F1.5707963267948966
g69
tp105
a(S'p4'
p106
F1.5707963267948966
g69
tp107
asS's'
p108
(lp109
(g61
I0
g22
tp110
ag63
ag65
ag66
ag65
ag68
ag70
ag71
ag72
ag73
ag74
ag75
ag76
ag77
ag78
ag75
ag80
ag81
ag82
ag83
ag84
ag85
ag85
ag85
ag86
ag87
ag88
ag89
ag90
ag91
ag92
ag93
ag94
ag95
ag94
ag95
ag94
ag95
ag94
ag95
ag94
ag88
ag89
ag92
ag93
ag96
ag77
ag85
ag86
ag80
ag81
ag81
ag97
ag98
ag99
ag83
ag100
ag97
ag100
ag101
ag101
ag82
ag102
ag99
ag99
ag83
ag84
ag85
ag85
ag86
ag76
ag86
ag76
ag85
ag86
ag80
ag81
ag82
ag99
ag83
ag98
ag83
ag104
ag105
asS'ui'
p111
(lp112
S'hp'
p113
ag113
ag59
ag113
ag59
aS'hs'
p114
ag113
ag59
ag114
ag59
ag59
ag59
ag113
ag113
ag113
ag59
ag114
ag113
ag113
ag59
ag113
ag113
ag113
ag113
aS'ss'
p115
ag114
ag114
ag114
ag113
ag113
ag59
ag113
ag114
ag59
ag114
ag59
ag113
ag59
ag114
ag59
ag114
ag114
ag113
ag59
ag59
ag59
ag113
ag113
ag59
ag114
ag114
ag114
ag59
ag113
ag113
ag113
ag114
ag59
ag59
ag59
ag114
ag59
ag113
ag113
ag115
ag59
ag113
ag113
ag113
ag59
ag113
ag59
ag115
ag113
ag59
ag115
ag114
ag113
ag59
ag59
ag113
ag59
ag113
ag59
asS'um_before'
p116
(lp117
g59
ag113
ag114
ag113
ag59
ag113
ag113
ag113
ag114
ag59
ag114
ag114
ag59
ag114
ag114
ag59
ag115
ag113
ag113
ag115
ag115
ag115
ag115
ag113
ag115
ag115
ag113
ag115
ag59
ag113
ag115
ag113
ag114
ag113
ag114
ag113
ag114
ag113
ag114
ag113
ag115
ag113
ag113
ag115
ag59
ag59
ag115
ag113
ag59
ag115
ag115
ag114
ag114
ag115
ag113
ag113
ag114
ag113
ag59
ag59
ag113
ag59
ag115
ag115
ag113
ag115
ag115
ag115
ag113
ag114
ag113
ag114
ag115
ag113
ag59
ag115
ag113
ag115
ag113
ag114
ag113
ag59
ag113
ag59
asS'um_after'
p118
(lp119
g59
ag113
ag114
ag113
ag59
ag113
ag113
ag113
ag114
ag59
ag114
ag114
ag59
ag114
ag114
ag59
ag115
ag113
ag113
ag115
ag115
ag115
ag115
ag113
ag115
ag115
ag113
ag115
ag59
ag113
ag115
ag113
ag114
ag113
ag114
ag113
ag114
ag113
ag114
ag113
ag115
ag113
ag113
ag115
ag59
ag59
ag115
ag113
ag59
ag115
ag115
ag114
ag114
ag115
ag113
ag113
ag114
ag113
ag59
ag59
ag113
ag59
ag115
ag115
ag113
ag115
ag115
ag115
ag113
ag114
ag113
ag114
ag115
ag113
ag59
ag115
ag113
ag115
ag113
ag114
ag113
ag59
ag113
ag59
asS'is_normalized_entropy_less_than_threshold'
p120
(lp121
g49
(g50
(S'b1'
p122
I0
I1
tp123
Rp124
(I3
S'|'
p125
NNNI-1
I-1
I0
tp126
bS'\x01'
p127
tp128
Rp129
ag129
ag129
ag129
ag129
ag129
ag129
ag129
ag129
ag129
ag129
ag129
ag129
ag129
ag129
ag129
ag129
ag129
ag129
ag129
ag129
ag129
ag129
ag129
ag129
ag129
ag129
ag129
ag129
ag129
ag129
ag129
ag129
ag129
ag129
ag129
ag129
ag129
ag129
ag129
ag129
ag129
ag129
ag129
ag129
ag129
ag129
ag129
ag129
ag129
ag129
ag129
ag129
ag129
ag129
ag129
ag129
ag129
ag129
ag129
ag129
ag129
ag129
ag129
ag129
ag129
ag129
ag129
ag129
ag129
ag129
ag129
ag129
ag129
ag129
ag129
ag129
ag129
ag129
ag129
ag129
ag129
ag129
ag129
asaa(lp130
S'index'
p131
aI22552
aatp132
Rp133
.