ccollections
OrderedDict
p0
((lp1
(lp2
S'combination_dict'
p3
ag0
((lp4
(lp5
S'r_to_g_config'
p6
aS'tr'
p7
aa(lp8
S'num_turns'
p9
aI2
aa(lp10
S'start_direction'
p11
acutils_ms
StartDirection
p12
(I1
tp13
Rp14
aa(lp15
S'assistance_type'
p16
acutils_ms
AssistanceType
p17
(I0
tp18
Rp19
aa(lp20
S'start_mode'
p21
aS't'
p22
aa(lp23
S'ui_given_a_noise'
p24
aF0.5
aa(lp25
S'um_given_ui_noise'
p26
aF0.7
aa(lp27
S'entropy_threshold'
p28
aF0.5
aatp29
Rp30
aa(lp31
S'data'
p32
accollections
defaultdict
p33
(c__builtin__
list
p34
tp35
Rp36
S'a'
p37
(lp38
S'mode_l'
p39
ag39
aS'move_p'
p40
aS'mode_r'
p41
ag39
ag39
ag39
ag39
ag39
ag39
ag39
ag41
ag39
ag40
ag40
ag41
ag40
ag41
ag40
ag41
ag41
ag39
ag39
ag41
ag40
ag41
ag41
ag39
ag40
asS'assistance_match_with_ground_truth'
p42
(lp43
I00
aI01
aI00
aI00
aI00
aI00
aI00
aI00
aI00
aI00
aI00
aI00
aI01
aI00
aI01
aI01
aI01
aI00
aI01
aI00
aI00
aI00
aI00
aI01
aI01
aI00
aI00
aI01
aI01
asS'is_u_intended_equals_um'
p44
(lp45
I00
aI01
aI01
aI00
aI00
aI00
aI00
aI00
aI00
aI00
aI01
aI00
aI01
aI00
aI01
aI01
aI01
aI01
aI01
aI00
aI00
aI00
aI01
aI01
aI01
aI01
aI00
aI01
aI01
asS'total_steps'
p46
I29
sS'normalized_h_of_p_ui_given_um'
p47
(lp48
cnumpy.core.multiarray
scalar
p49
(cnumpy
dtype
p50
(S'f8'
p51
I0
I1
tp52
Rp53
(I3
S'<'
p54
NNNI-1
I-1
I0
tp55
bS'"1"\n\x0e\x82\xeb?'
p56
tp57
Rp58
ag49
(g53
S'86L+D\xcf\xe3?'
p59
tp60
Rp61
ag49
(g53
S'\xa2\x93\xb8E=\xa2\xec?'
p62
tp63
Rp64
ag49
(g53
S'1b\xd9luU\xe4?'
p65
tp66
Rp67
ag49
(g53
S'\x97\xf7\x8d_?\xef\xea?'
p68
tp69
Rp70
ag49
(g53
S'"1"\n\x0e\x82\xeb?'
p71
tp72
Rp73
ag49
(g53
S'"1"\n\x0e\x82\xeb?'
p74
tp75
Rp76
ag49
(g53
S'"1"\n\x0e\x82\xeb?'
p77
tp78
Rp79
ag49
(g53
S'\x97\xf7\x8d_?\xef\xea?'
p80
tp81
Rp82
ag49
(g53
S'"1"\n\x0e\x82\xeb?'
p83
tp84
Rp85
ag49
(g53
S'\x9a\xaa\xd2\xef\xaa\x19\xea?'
p86
tp87
Rp88
ag49
(g53
S'1b\xd9luU\xe4?'
p89
tp90
Rp91
ag49
(g53
S'86L+D\xcf\xe3?'
p92
tp93
Rp94
ag49
(g53
S'?\xa8\xab\xc0w\xdf\xe7?'
p95
tp96
Rp97
ag49
(g53
S'\n\x8e%\x07\xa2\xc4\xe3?'
p98
tp99
Rp100
ag49
(g53
S'>\xa0\xf0n@\xb8\xd8?'
p101
tp102
Rp103
ag49
(g53
S'\n\x8e%\x07\xa2\xc4\xe3?'
p104
tp105
Rp106
ag49
(g53
S'\xb3yMx+\xaa\xea?'
p107
tp108
Rp109
ag49
(g53
S'\n\x8e%\x07\xa2\xc4\xe3?'
p110
tp111
Rp112
ag49
(g53
S'\x1e\xa0h\xfe\x9a\xc4\xe8?'
p113
tp114
Rp115
ag49
(g53
S'1b\xd9luU\xe4?'
p116
tp117
Rp118
ag49
(g53
S'"1"\n\x0e\x82\xeb?'
p119
tp120
Rp121
ag49
(g53
S'\x9a\xaa\xd2\xef\xaa\x19\xea?'
p122
tp123
Rp124
ag49
(g53
S'>\xa0\xf0n@\xb8\xd8?'
p125
tp126
Rp127
ag49
(g53
S'\n\x8e%\x07\xa2\xc4\xe3?'
p128
tp129
Rp130
ag49
(g53
S'\xb3yMx+\xaa\xea?'
p131
tp132
Rp133
ag49
(g53
S'1b\xd9luU\xe4?'
p134
tp135
Rp136
ag49
(g53
S'86L+D\xcf\xe3?'
p137
tp138
Rp139
ag49
(g53
S'\n\x8e%\x07\xa2\xc4\xe3?'
p140
tp141
Rp142
asS'sp'
p143
(lp144
(S'p0'
p145
I0
S't'
p146
tp147
a(g145
I0
S'y'
p148
tp149
a(g145
I0
S'x'
p150
tp151
a(g145
I0
g146
tp152
a(g145
I0
g146
tp153
ag147
ag147
ag147
ag153
ag147
a(g145
I0
g150
tp154
ag152
ag149
a(g145
I0
g148
tp155
a(S'p1'
p156
I0
g148
tp157
a(g156
I0
g146
tp158
a(g156
F1.5707963267948966
g146
tp159
a(g156
I0
g146
tp160
ag159
a(g156
F1.5707963267948966
g146
tp161
a(g156
F1.5707963267948966
g148
tp162
a(g156
F1.5707963267948966
g148
tp163
a(g156
F1.5707963267948966
g146
tp164
a(g156
F1.5707963267948966
g150
tp165
a(S'p2'
p166
F1.5707963267948966
g150
tp167
a(g166
F1.5707963267948966
g150
tp168
a(g166
F1.5707963267948966
g146
tp169
a(g166
F1.5707963267948966
g148
tp170
a(S'p3'
p171
F1.5707963267948966
g148
tp172
asS's'
p173
(lp174
(g145
I0
g22
tp175
ag147
ag149
ag151
ag152
ag153
ag147
ag147
ag147
ag153
ag147
ag154
ag152
ag149
ag155
ag157
ag158
ag159
ag160
ag159
ag161
ag162
ag163
ag164
ag165
ag167
ag168
ag169
ag170
asS'ui'
p176
(lp177
S'hs'
p178
ag178
ag143
aS'ss'
p179
ag178
aS'hp'
p180
ag178
ag143
ag178
ag178
ag178
ag180
ag178
ag143
ag143
ag180
ag143
ag178
ag143
ag178
ag180
ag143
ag180
ag180
ag143
ag180
ag179
ag178
ag179
asS'um_before'
p181
(lp182
g143
ag178
ag178
ag178
ag179
ag143
ag143
ag143
ag179
ag143
ag180
ag178
ag178
ag179
ag143
ag180
ag143
ag179
ag143
ag143
ag178
ag143
ag180
ag180
ag143
ag179
ag178
ag178
ag143
asS'um_after'
p183
(lp184
g143
ag178
ag178
ag178
ag179
ag143
ag143
ag143
ag179
ag143
ag180
ag178
ag178
ag179
ag143
ag180
ag143
ag179
ag143
ag143
ag178
ag143
ag180
ag180
ag143
ag179
ag178
ag178
ag143
asS'is_normalized_entropy_less_than_threshold'
p185
(lp186
g49
(g50
(S'b1'
p187
I0
I1
tp188
Rp189
(I3
S'|'
p190
NNNI-1
I-1
I0
tp191
bS'\x00'
p192
tp193
Rp194
ag194
ag194
ag194
ag194
ag194
ag194
ag194
ag194
ag194
ag194
ag194
ag194
ag194
ag194
ag49
(g189
S'\x01'
p195
tp196
Rp197
ag194
ag194
ag194
ag194
ag194
ag194
ag194
ag197
ag194
ag194
ag194
ag194
ag194
asaa(lp198
S'index'
p199
aI15759
aatp200
Rp201
.