ccollections
OrderedDict
p0
((lp1
(lp2
S'combination_dict'
p3
ag0
((lp4
(lp5
S'r_to_g_config'
p6
aS'tr'
p7
aa(lp8
S'num_turns'
p9
aI1
aa(lp10
S'start_direction'
p11
acutils_ms
StartDirection
p12
(I1
tp13
Rp14
aa(lp15
S'assistance_type'
p16
acutils_ms
AssistanceType
p17
(I1
tp18
Rp19
aa(lp20
S'start_mode'
p21
aS'x'
p22
aa(lp23
S'ui_given_a_noise'
p24
aF0.5
aa(lp25
S'um_given_ui_noise'
p26
aF0.1
aa(lp27
S'entropy_threshold'
p28
aF0.9
aatp29
Rp30
aa(lp31
S'data'
p32
accollections
defaultdict
p33
(c__builtin__
list
p34
tp35
Rp36
S'a'
p37
(lp38
S'mode_r'
p39
ag39
aS'move_p'
p40
ag39
ag40
ag39
ag40
ag39
ag40
ag39
ag40
ag39
ag40
asS'assistance_match_with_ground_truth'
p41
(lp42
I00
aI01
aI00
aI01
aI01
aI01
aI00
aI01
aI01
aI01
aI00
aI01
aI01
asS'is_u_intended_equals_um'
p43
(lp44
I01
aI01
aI01
aI01
aI01
aI01
aI01
aI01
aI01
aI01
aI01
aI01
aI01
asS'total_steps'
p45
I13
sS'normalized_h_of_p_ui_given_um'
p46
(lp47
cnumpy.core.multiarray
scalar
p48
(cnumpy
dtype
p49
(S'f8'
p50
I0
I1
tp51
Rp52
(I3
S'<'
p53
NNNI-1
I-1
I0
tp54
bS'\xb4y\x92\x05A/\xdd?'
p55
tp56
Rp57
ag48
(g52
S'[\x98\xc6F9/\xaf?'
p58
tp59
Rp60
ag48
(g52
S'5`\x80\x8f\xd8\xf9\xd3?'
p61
tp62
Rp63
ag48
(g52
S'[\x98\xc6F9/\xaf?'
p64
tp65
Rp66
ag48
(g52
S'y\x0c\xa1~\x90\x00\xc4?'
p67
tp68
Rp69
ag48
(g52
S'[\x98\xc6F9/\xaf?'
p70
tp71
Rp72
ag48
(g52
S'5`\x80\x8f\xd8\xf9\xd3?'
p73
tp74
Rp75
ag48
(g52
S'[\x98\xc6F9/\xaf?'
p76
tp77
Rp78
ag48
(g52
S'y\x0c\xa1~\x90\x00\xc4?'
p79
tp80
Rp81
ag48
(g52
S'[\x98\xc6F9/\xaf?'
p82
tp83
Rp84
ag48
(g52
S'5`\x80\x8f\xd8\xf9\xd3?'
p85
tp86
Rp87
ag48
(g52
S'[\x98\xc6F9/\xaf?'
p88
tp89
Rp90
ag48
(g52
S'y\x0c\xa1~\x90\x00\xc4?'
p91
tp92
Rp93
asS'sp'
p94
(lp95
(S'p0'
p96
I0
S'x'
p97
tp98
a(g96
I0
S'y'
p99
tp100
a(g96
I0
g97
tp101
ag100
a(S'p1'
p102
I0
g99
tp103
a(g102
I0
S't'
p104
tp105
a(g102
I0
g99
tp106
ag105
a(g102
F1.5707963267948966
g104
tp107
a(g102
F1.5707963267948966
g97
tp108
a(g102
F1.5707963267948966
g104
tp109
ag108
a(S'p2'
p110
F1.5707963267948966
g97
tp111
asS's'
p112
(lp113
(g96
I0
g22
tp114
ag98
ag100
ag101
ag100
ag103
ag105
ag106
ag105
ag107
ag108
ag109
ag108
asS'ui'
p115
(lp116
S'ss'
p117
aS'hp'
p118
ag117
ag118
ag94
ag118
aS'hs'
p119
ag118
ag94
ag118
ag119
ag118
ag94
asS'um_before'
p120
(lp121
g117
ag118
ag119
ag118
ag94
ag118
ag119
ag118
ag94
ag118
ag119
ag118
ag94
asS'um_after'
p122
(lp123
g117
ag118
ag119
ag118
ag94
ag118
ag119
ag118
ag94
ag118
ag119
ag118
ag94
asS'is_normalized_entropy_less_than_threshold'
p124
(lp125
g48
(g49
(S'b1'
p126
I0
I1
tp127
Rp128
(I3
S'|'
p129
NNNI-1
I-1
I0
tp130
bS'\x01'
p131
tp132
Rp133
ag133
ag133
ag133
ag133
ag133
ag133
ag133
ag133
ag133
ag133
ag133
ag133
asaa(lp134
S'index'
p135
aI6841
aatp136
Rp137
.