ccollections
OrderedDict
p0
((lp1
(lp2
S'combination_dict'
p3
ag0
((lp4
(lp5
S'r_to_g_config'
p6
aS'tr'
p7
aa(lp8
S'num_turns'
p9
aI2
aa(lp10
S'start_direction'
p11
acutils_ms
StartDirection
p12
(I1
tp13
Rp14
aa(lp15
S'assistance_type'
p16
acutils_ms
AssistanceType
p17
(I1
tp18
Rp19
aa(lp20
S'start_mode'
p21
aS't'
p22
aa(lp23
S'ui_given_a_noise'
p24
aF0.5
aa(lp25
S'um_given_ui_noise'
p26
aF0.7
aa(lp27
S'entropy_threshold'
p28
aF0.6
aatp29
Rp30
aa(lp31
S'data'
p32
accollections
defaultdict
p33
(c__builtin__
list
p34
tp35
Rp36
S'a'
p37
(lp38
S'mode_l'
p39
ag39
ag39
ag39
aS'move_p'
p40
aS'mode_r'
p41
ag41
ag41
ag39
ag40
ag39
ag40
ag39
ag41
asS'assistance_match_with_ground_truth'
p42
(lp43
I00
aI00
aI00
aI01
aI00
aI00
aI00
aI00
aI01
aI01
aI01
aI01
aI00
aI00
asS'is_u_intended_equals_um'
p44
(lp45
I00
aI00
aI00
aI01
aI01
aI01
aI00
aI01
aI01
aI01
aI01
aI01
aI01
aI00
asS'total_steps'
p46
I14
sS'normalized_h_of_p_ui_given_um'
p47
(lp48
cnumpy.core.multiarray
scalar
p49
(cnumpy
dtype
p50
(S'f8'
p51
I0
I1
tp52
Rp53
(I3
S'<'
p54
NNNI-1
I-1
I0
tp55
bS'\x18\x7fc0\x96X\xec?'
p56
tp57
Rp58
ag49
(g53
S'\x18\x7fc0\x96X\xec?'
p59
tp60
Rp61
ag49
(g53
S'\x18\x7fc0\x96X\xec?'
p62
tp63
Rp64
ag49
(g53
S'5\n\xdft\x9f\xb0\xda?'
p65
tp66
Rp67
ag49
(g53
S'\x997\xf5\xd0p\r\xe8?'
p68
tp69
Rp70
ag49
(g53
S'\xde\xc4j\xd6=\x1e\xed?'
p71
tp72
Rp73
ag49
(g53
S'\xfe\x88\xcb\xacq\xe0\xed?'
p74
tp75
Rp76
ag49
(g53
S'\xc9^\xd5\xcf\xfb\xef\xea?'
p77
tp78
Rp79
ag49
(g53
S'5\n\xdft\x9f\xb0\xda?'
p80
tp81
Rp82
ag49
(g53
S'\xf3O\x96\xc2\x0b\xff\xe2?'
p83
tp84
Rp85
ag49
(g53
S'5\n\xdft\x9f\xb0\xda?'
p86
tp87
Rp88
ag49
(g53
S'\xf3O\x96\xc2\x0b\xff\xe2?'
p89
tp90
Rp91
ag49
(g53
S'$\x1c\xaea\xc7\x9a\xea?'
p92
tp93
Rp94
ag49
(g53
S'\xfe\x88\xcb\xacq\xe0\xed?'
p95
tp96
Rp97
asS'sp'
p98
(lp99
(S'p0'
p100
I0
S't'
p101
tp102
ag102
ag102
a(g100
I0
S'y'
p103
tp104
a(g100
I0
S'x'
p105
tp106
a(g100
I0
g105
tp107
a(g100
I0
g105
tp108
a(g100
I0
g101
tp109
ag104
a(S'p1'
p110
I0
g103
tp111
a(g110
I0
g105
tp112
a(S'p2'
p113
I0
g105
tp114
a(g113
I0
g103
tp115
a(S'p3'
p116
I0
g103
tp117
asS's'
p118
(lp119
(g100
I0
g22
tp120
ag102
ag102
ag102
ag104
ag106
ag107
ag108
ag109
ag104
ag111
ag112
ag114
ag115
asS'ui'
p121
(lp122
S'ss'
p123
ag98
aS'hs'
p124
ag124
aS'hp'
p125
ag123
ag125
ag124
ag124
ag124
ag124
ag123
ag125
ag98
asS'um_before'
p126
(lp127
g98
ag98
ag98
ag124
ag124
ag123
ag98
ag124
ag124
ag98
ag124
ag98
ag125
ag98
asS'um_after'
p128
(lp129
g98
ag98
ag98
ag124
ag124
ag123
ag98
ag124
ag124
ag98
ag124
ag98
ag125
ag98
asS'is_normalized_entropy_less_than_threshold'
p130
(lp131
g49
(g50
(S'b1'
p132
I0
I1
tp133
Rp134
(I3
S'|'
p135
NNNI-1
I-1
I0
tp136
bS'\x00'
p137
tp138
Rp139
ag139
ag139
ag49
(g134
S'\x01'
p140
tp141
Rp142
ag139
ag139
ag139
ag139
ag142
ag142
ag142
ag142
ag139
ag139
asaa(lp143
S'index'
p144
aI17360
aatp145
Rp146
.