ccollections
OrderedDict
p0
((lp1
(lp2
S'combination_dict'
p3
ag0
((lp4
(lp5
S'r_to_g_config'
p6
aS'bl'
p7
aa(lp8
S'num_turns'
p9
aI1
aa(lp10
S'start_direction'
p11
acutils_ms
StartDirection
p12
(I0
tp13
Rp14
aa(lp15
S'assistance_type'
p16
acutils_ms
AssistanceType
p17
(I0
tp18
Rp19
aa(lp20
S'start_mode'
p21
aS't'
p22
aa(lp23
S'ui_given_a_noise'
p24
aF0.1
aa(lp25
S'um_given_ui_noise'
p26
aF0.7
aa(lp27
S'entropy_threshold'
p28
aF0.9
aatp29
Rp30
aa(lp31
S'data'
p32
accollections
defaultdict
p33
(c__builtin__
list
p34
tp35
Rp36
S'a'
p37
(lp38
S'mode_r'
p39
ag39
ag39
aS'move_n'
p40
ag40
ag40
ag40
ag40
aS'mode_l'
p41
ag41
ag41
ag41
ag41
aS'move_p'
p42
ag41
ag40
ag40
ag40
ag40
asS'assistance_match_with_ground_truth'
p43
(lp44
I00
aI00
aI01
aI00
aI00
aI00
aI00
aI01
aI00
aI00
aI00
aI00
aI01
aI01
aI01
aI00
aI00
aI00
aI01
asS'is_u_intended_equals_um'
p45
(lp46
I00
aI00
aI01
aI00
aI00
aI00
aI00
aI01
aI00
aI00
aI00
aI00
aI01
aI01
aI01
aI00
aI00
aI00
aI01
asS'total_steps'
p47
I19
sS'normalized_h_of_p_ui_given_um'
p48
(lp49
cnumpy.core.multiarray
scalar
p50
(cnumpy
dtype
p51
(S'f8'
p52
I0
I1
tp53
Rp54
(I3
S'<'
p55
NNNI-1
I-1
I0
tp56
bS'\xac\x1e\xe9Q\xa1m\xd6?'
p57
tp58
Rp59
ag50
(g54
S'\x8e\x82".y\xe4\xdf?'
p60
tp61
Rp62
ag50
(g54
S'\x82\x7fA\xe5+\r\xd0?'
p63
tp64
Rp65
ag50
(g54
S']\xa7\xdd\xf1%\x1f\xd9?'
p66
tp67
Rp68
ag50
(g54
S'=\x9d7\xfbM\x83\xd9?'
p69
tp70
Rp71
ag50
(g54
S']\xa7\xdd\xf1%\x1f\xd9?'
p72
tp73
Rp74
ag50
(g54
S'\x0eB\x96h\xe09\xde?'
p75
tp76
Rp77
ag50
(g54
S')\x9a\x81\x9fk\xb2\xc2?'
p78
tp79
Rp80
ag50
(g54
S'\xf0`\x01\xa5\x1b\x15\xe2?'
p81
tp82
Rp83
ag50
(g54
S'\xf0`\x01\xa5\x1b\x15\xe2?'
p84
tp85
Rp86
ag50
(g54
S'\x812\n\xfeyv\xda?'
p87
tp88
Rp89
ag50
(g54
S'\x812\n\xfeyv\xda?'
p90
tp91
Rp92
ag50
(g54
S'\xea_\xae\x81\xe2N\xd1?'
p93
tp94
Rp95
ag50
(g54
S'E\xdb\xc1G\xae\xb0\xbe?'
p96
tp97
Rp98
ag50
(g54
S'\xea_\xae\x81\xe2N\xd1?'
p99
tp100
Rp101
ag50
(g54
S']\xa7\xdd\xf1%\x1f\xd9?'
p102
tp103
Rp104
ag50
(g54
S']\xa7\xdd\xf1%\x1f\xd9?'
p105
tp106
Rp107
ag50
(g54
S'\x0eB\x96h\xe09\xde?'
p108
tp109
Rp110
ag50
(g54
S')\x9a\x81\x9fk\xb2\xc2?'
p111
tp112
Rp113
asS'sp'
p114
(lp115
(S'p0'
p116
I0
g22
tp117
ag117
a(g116
I0
S'x'
p118
tp119
ag119
ag119
ag119
ag119
a(S'p1'
p120
I0
g118
tp121
ag121
ag121
ag121
ag121
a(g120
I0
S't'
p122
tp123
a(g120
F1.5707963267948966
g122
tp124
a(g120
F1.5707963267948966
S'y'
p125
tp126
ag126
ag126
ag126
a(S'p2'
p127
F1.5707963267948966
g125
tp128
asS's'
p129
(lp130
g117
ag117
ag117
ag119
ag119
ag119
ag119
ag119
ag121
ag121
ag121
ag121
ag121
ag123
ag124
ag126
ag126
ag126
ag126
asS'ui'
p131
(lp132
S'hp'
p133
ag114
ag133
aS'ss'
p134
ag114
ag134
ag134
ag134
ag133
aS'hs'
p135
ag135
ag135
ag135
ag114
ag135
ag134
ag134
ag134
ag134
asS'um_before'
p136
(lp137
g135
ag114
ag133
ag133
ag114
ag133
ag135
ag134
ag133
ag133
ag134
ag134
ag135
ag114
ag135
ag133
ag133
ag135
ag134
asS'um_after'
p138
(lp139
NaNag133
aNaNaNaNag134
aNaNaNaNag135
ag114
ag135
aNaNaNag134
asS'is_normalized_entropy_less_than_threshold'
p140
(lp141
g50
(g51
(S'b1'
p142
I0
I1
tp143
Rp144
(I3
S'|'
p145
NNNI-1
I-1
I0
tp146
bS'\x01'
p147
tp148
Rp149
ag149
ag149
ag149
ag149
ag149
ag149
ag149
ag149
ag149
ag149
ag149
ag149
ag149
ag149
ag149
ag149
ag149
ag149
asaa(lp150
S'index'
p151
aI57797
aatp152
Rp153
.