ccollections
OrderedDict
p0
((lp1
(lp2
S'combination_dict'
p3
ag0
((lp4
(lp5
S'r_to_g_config'
p6
aS'bl'
p7
aa(lp8
S'num_turns'
p9
aI2
aa(lp10
S'start_direction'
p11
acutils_ms
StartDirection
p12
(I1
tp13
Rp14
aa(lp15
S'assistance_type'
p16
acutils_ms
AssistanceType
p17
(I0
tp18
Rp19
aa(lp20
S'start_mode'
p21
aS'x'
p22
aa(lp23
S'ui_given_a_noise'
p24
aF0.7
aa(lp25
S'um_given_ui_noise'
p26
aF0.3
aa(lp27
S'entropy_threshold'
p28
aF0.8
aatp29
Rp30
aa(lp31
S'data'
p32
accollections
defaultdict
p33
(c__builtin__
list
p34
tp35
Rp36
S'a'
p37
(lp38
S'mode_r'
p39
aS'move_n'
p40
ag40
aS'mode_l'
p41
ag40
ag40
ag40
ag41
ag39
ag41
ag39
ag39
ag41
ag41
ag41
ag39
ag39
ag40
ag39
ag39
ag39
ag41
ag41
ag39
ag40
ag41
ag39
ag39
ag40
ag39
ag39
ag41
ag39
ag39
ag40
ag41
ag39
ag41
ag41
ag40
ag41
ag40
ag41
ag40
ag41
ag41
ag41
ag41
aS'move_p'
p42
ag39
ag42
ag41
ag40
asS'assistance_match_with_ground_truth'
p43
(lp44
I01
aI00
aI00
aI01
aI00
aI00
aI01
aI00
aI00
aI00
aI00
aI00
aI00
aI00
aI00
aI00
aI01
aI00
aI00
aI00
aI00
aI00
aI00
aI01
aI01
aI00
aI00
aI01
aI00
aI00
aI00
aI00
aI00
aI01
aI00
aI00
aI00
aI00
aI01
aI00
aI01
aI01
aI01
aI01
aI00
aI00
aI00
aI01
aI00
aI01
aI01
aI01
aI01
asS'is_u_intended_equals_um'
p45
(lp46
I01
aI01
aI01
aI01
aI01
aI01
aI01
aI01
aI01
aI01
aI01
aI01
aI01
aI01
aI01
aI01
aI01
aI01
aI01
aI01
aI01
aI01
aI01
aI01
aI01
aI01
aI01
aI01
aI01
aI01
aI01
aI01
aI01
aI01
aI01
aI01
aI01
aI01
aI01
aI01
aI01
aI01
aI01
aI01
aI01
aI01
aI01
aI01
aI00
aI01
aI01
aI01
aI01
asS'total_steps'
p47
I53
sS'normalized_h_of_p_ui_given_um'
p48
(lp49
cnumpy.core.multiarray
scalar
p50
(cnumpy
dtype
p51
(S'f8'
p52
I0
I1
tp53
Rp54
(I3
S'<'
p55
NNNI-1
I-1
I0
tp56
bS'\xb1\xa0\x83\x97\x83O\xe4?'
p57
tp58
Rp59
ag50
(g54
S'\xc1WD\x9c(\xbb\xe4?'
p60
tp61
Rp62
ag50
(g54
S'v\xbd\x99\x13*\x91\xe9?'
p63
tp64
Rp65
ag50
(g54
S'x\xcd.\xcf(\x85\xe1?'
p66
tp67
Rp68
ag50
(g54
S'\xc1WD\x9c(\xbb\xe4?'
p69
tp70
Rp71
ag50
(g54
S'\xc1WD\x9c(\xbb\xe4?'
p72
tp73
Rp74
ag50
(g54
S'\xb5\xdf\xea\xe0\x16H\xd2?'
p75
tp76
Rp77
ag50
(g54
S'yG\x0bP(\xb6\xea?'
p78
tp79
Rp80
ag50
(g54
S'\x11\xa8~\xb7\x9e^\xed?'
p81
tp82
Rp83
ag50
(g54
S'yG\x0bP(\xb6\xea?'
p84
tp85
Rp86
ag50
(g54
S'\xc4\xad\xf5~\xd7\x06\xe3?'
p87
tp88
Rp89
ag50
(g54
S'\x11\xa8~\xb7\x9e^\xed?'
p90
tp91
Rp92
ag50
(g54
S'\xce\x00RX\xbe\x0e\xe9?'
p93
tp94
Rp95
ag50
(g54
S'\xce\x00RX\xbe\x0e\xe9?'
p96
tp97
Rp98
ag50
(g54
S'yG\x0bP(\xb6\xea?'
p99
tp100
Rp101
ag50
(g54
S'^\x00\xbb1]Q\xe5?'
p102
tp103
Rp104
ag50
(g54
S'\xb1\xa0\x83\x97\x83O\xe4?'
p105
tp106
Rp107
ag50
(g54
S'\xc1WD\x9c(\xbb\xe4?'
p108
tp109
Rp110
ag50
(g54
S'^\x00\xbb1]Q\xe5?'
p111
tp112
Rp113
ag50
(g54
S'\xc4\xad\xf5~\xd7\x06\xe3?'
p114
tp115
Rp116
ag50
(g54
S'\x11\xa8~\xb7\x9e^\xed?'
p117
tp118
Rp119
ag50
(g54
S'\xce\x00RX\xbe\x0e\xe9?'
p120
tp121
Rp122
ag50
(g54
S'yG\x0bP(\xb6\xea?'
p123
tp124
Rp125
ag50
(g54
S'\xb1\xa0\x83\x97\x83O\xe4?'
p126
tp127
Rp128
ag50
(g54
S'\xb5\xdf\xea\xe0\x16H\xd2?'
p129
tp130
Rp131
ag50
(g54
S'yG\x0bP(\xb6\xea?'
p132
tp133
Rp134
ag50
(g54
S'\xc4\xad\xf5~\xd7\x06\xe3?'
p135
tp136
Rp137
ag50
(g54
S'\xb1\xa0\x83\x97\x83O\xe4?'
p138
tp139
Rp140
ag50
(g54
S'\xc1WD\x9c(\xbb\xe4?'
p141
tp142
Rp143
ag50
(g54
S'\xc4\xad\xf5~\xd7\x06\xe3?'
p144
tp145
Rp146
ag50
(g54
S'\x11\xa8~\xb7\x9e^\xed?'
p147
tp148
Rp149
ag50
(g54
S'yG\x0bP(\xb6\xea?'
p150
tp151
Rp152
ag50
(g54
S'^\x00\xbb1]Q\xe5?'
p153
tp154
Rp155
ag50
(g54
S'\xb1\xa0\x83\x97\x83O\xe4?'
p156
tp157
Rp158
ag50
(g54
S'v\xbd\x99\x13*\x91\xe9?'
p159
tp160
Rp161
ag50
(g54
S'yG\x0bP(\xb6\xea?'
p162
tp163
Rp164
ag50
(g54
S'\x11\xa8~\xb7\x9e^\xed?'
p165
tp166
Rp167
ag50
(g54
S'\xce\x00RX\xbe\x0e\xe9?'
p168
tp169
Rp170
ag50
(g54
S'x\xcd.\xcf(\x85\xe1?'
p171
tp172
Rp173
ag50
(g54
S'v\xbd\x99\x13*\x91\xe9?'
p174
tp175
Rp176
ag50
(g54
S'x\xcd.\xcf(\x85\xe1?'
p177
tp178
Rp179
ag50
(g54
S'\xb5\xdf\xea\xe0\x16H\xd2?'
p180
tp181
Rp182
ag50
(g54
S'x\xcd.\xcf(\x85\xe1?'
p183
tp184
Rp185
ag50
(g54
S'\xb5\xdf\xea\xe0\x16H\xd2?'
p186
tp187
Rp188
ag50
(g54
S'\xce\x00RX\xbe\x0e\xe9?'
p189
tp190
Rp191
ag50
(g54
S'\x88\xf7\xf2{\xf4\x08\xe3?'
p192
tp193
Rp194
ag50
(g54
S'\xce\x00RX\xbe\x0e\xe9?'
p195
tp196
Rp197
ag50
(g54
S'x\xcd.\xcf(\x85\xe1?'
p198
tp199
Rp200
ag50
(g54
S'\x02k\r\x1a\xc7\xb3\xe9?'
p201
tp202
Rp203
ag50
(g54
S'\xb1\xa0\x83\x97\x83O\xe4?'
p204
tp205
Rp206
ag50
(g54
S'\x9c\xfb\x000\x81\xcf\xd2?'
p207
tp208
Rp209
ag50
(g54
S'x\xcd.\xcf(\x85\xe1?'
p210
tp211
Rp212
ag50
(g54
S'\xb5\xdf\xea\xe0\x16H\xd2?'
p213
tp214
Rp215
asS'sp'
p216
(lp217
(S'p0'
p218
I0
S'y'
p219
tp220
a(g218
I0
g219
tp221
a(g218
I0
S't'
p222
tp223
a(g218
I0
g219
tp224
ag221
ag221
a(S'p1'
p225
I0
g219
tp226
a(g225
I0
g222
tp227
a(g225
I0
g219
tp228
ag227
a(g225
I0
g222
tp229
ag228
a(g225
I0
g219
tp230
ag230
ag227
a(g225
I0
g222
tp231
a(g225
I0
S'x'
p232
tp233
a(g218
I0
g232
tp234
a(g218
I0
g232
tp235
a(g218
I0
g232
tp236
a(g218
I0
g222
tp237
a(g218
I0
g222
tp238
a(g218
I0
g232
tp239
ag220
ag226
ag227
ag229
ag233
ag234
ag236
ag237
ag239
ag235
ag220
ag223
ag239
ag237
ag238
ag224
ag223
ag224
ag226
a(g225
I0
g232
tp240
a(S'p2'
p241
I0
g232
tp242
a(g241
I0
g232
tp243
a(g241
I0
g232
tp244
ag243
a(g241
I0
g222
tp245
a(g241
I0
g219
tp246
a(g241
I0
g222
tp247
a(g241
F1.5707963267948966
g222
tp248
a(g241
F1.5707963267948966
g219
tp249
a(S'p3'
p250
F1.5707963267948966
g219
tp251
asS's'
p252
(lp253
(g218
I0
g22
tp254
ag220
ag221
ag223
ag224
ag221
ag221
ag226
ag227
ag228
ag227
ag229
ag228
ag230
ag230
ag227
ag231
ag233
ag234
ag235
ag236
ag237
ag238
ag239
ag220
ag226
ag227
ag229
ag233
ag234
ag236
ag237
ag239
ag235
ag220
ag223
ag239
ag237
ag238
ag224
ag223
ag224
ag226
ag240
ag242
ag243
ag244
ag243
ag245
ag246
ag247
ag248
ag249
asS'ui'
p255
(lp256
g216
ag216
aS'ss'
p257
ag257
ag216
aS'hp'
p258
ag257
ag258
aS'hs'
p259
ag216
ag257
ag258
ag258
ag257
ag259
ag216
ag257
ag216
ag258
ag257
ag258
ag257
ag258
ag257
ag258
ag258
ag258
ag257
ag257
ag258
ag259
ag258
ag216
ag258
ag258
ag259
ag257
ag216
ag259
ag258
ag259
ag257
ag259
ag257
ag258
ag257
ag216
ag259
ag216
ag258
ag216
ag259
ag257
asS'um_before'
p260
(lp261
g258
ag216
ag258
ag259
ag216
ag216
ag257
ag258
ag259
ag258
ag257
ag259
ag216
ag216
ag258
ag216
ag258
ag216
ag216
ag257
ag259
ag216
ag258
ag258
ag257
ag258
ag257
ag258
ag216
ag257
ag259
ag258
ag216
ag258
ag258
ag258
ag259
ag216
ag259
ag258
ag259
ag257
ag259
ag257
ag216
ag257
ag216
ag259
ag259
ag258
ag216
ag259
ag257
asS'um_after'
p262
(lp263
g258
ag216
ag258
ag259
ag216
ag216
ag257
ag258
ag259
ag258
ag257
ag259
ag216
ag216
ag258
ag216
ag258
ag216
ag216
ag257
ag259
ag216
ag258
ag258
ag257
ag258
ag257
ag258
ag216
ag257
ag259
ag258
ag216
ag258
ag258
ag258
ag259
ag216
ag259
ag258
ag259
ag257
ag259
ag257
ag216
ag257
ag216
ag259
ag259
ag258
ag216
ag259
ag257
asS'is_normalized_entropy_less_than_threshold'
p264
(lp265
g50
(g51
(S'b1'
p266
I0
I1
tp267
Rp268
(I3
S'|'
p269
NNNI-1
I-1
I0
tp270
bS'\x01'
p271
tp272
Rp273
ag273
ag273
ag273
ag273
ag273
ag273
ag50
(g268
S'\x00'
p274
tp275
Rp276
ag276
ag276
ag273
ag276
ag273
ag273
ag276
ag273
ag273
ag273
ag273
ag273
ag276
ag273
ag276
ag273
ag273
ag276
ag273
ag273
ag273
ag273
ag276
ag276
ag273
ag273
ag273
ag276
ag276
ag273
ag273
ag273
ag273
ag273
ag273
ag273
ag273
ag273
ag273
ag273
ag276
ag273
ag273
ag273
ag273
asaa(lp277
S'index'
p278
aI72680
aatp279
Rp280
.