ccollections
OrderedDict
p0
((lp1
(lp2
S'combination_dict'
p3
ag0
((lp4
(lp5
S'r_to_g_config'
p6
aS'tr'
p7
aa(lp8
S'num_turns'
p9
aI3
aa(lp10
S'start_direction'
p11
acutils_ms
StartDirection
p12
(I0
tp13
Rp14
aa(lp15
S'assistance_type'
p16
acutils_ms
AssistanceType
p17
(I1
tp18
Rp19
aa(lp20
S'start_mode'
p21
aS't'
p22
aa(lp23
S'ui_given_a_noise'
p24
aF0.5
aa(lp25
S'um_given_ui_noise'
p26
aF0.3
aa(lp27
S'entropy_threshold'
p28
aF0.8
aatp29
Rp30
aa(lp31
S'data'
p32
accollections
defaultdict
p33
(c__builtin__
list
p34
tp35
Rp36
S'a'
p37
(lp38
S'mode_r'
p39
ag39
aS'mode_l'
p40
aS'move_p'
p41
ag40
ag41
ag39
ag41
ag39
ag41
ag40
ag41
ag41
ag40
ag41
ag40
ag41
ag40
ag41
ag39
ag39
ag41
ag40
ag41
ag40
ag41
ag39
ag39
ag39
ag41
ag40
ag41
ag40
ag40
ag40
ag41
ag40
ag41
ag39
ag41
ag39
ag39
ag39
ag39
ag41
ag40
ag41
ag39
ag39
ag40
ag41
ag40
ag41
ag39
ag41
asS'assistance_match_with_ground_truth'
p42
(lp43
I00
aI00
aI01
aI01
aI01
aI00
aI01
aI00
aI01
aI00
aI01
aI00
aI00
aI01
aI01
aI01
aI00
aI01
aI01
aI00
aI01
aI01
aI01
aI00
aI01
aI01
aI00
aI00
aI01
aI00
aI01
aI00
aI00
aI00
aI01
aI00
aI01
aI01
aI01
aI00
aI00
aI00
aI00
aI01
aI00
aI01
aI00
aI00
aI00
aI01
aI01
aI01
aI01
aI01
aI01
asS'is_u_intended_equals_um'
p44
(lp45
I01
aI00
aI01
aI01
aI01
aI01
aI01
aI01
aI01
aI01
aI01
aI00
aI01
aI01
aI01
aI01
aI00
aI01
aI01
aI01
aI01
aI01
aI01
aI01
aI00
aI01
aI01
aI01
aI01
aI01
aI01
aI01
aI01
aI01
aI01
aI00
aI01
aI01
aI01
aI01
aI01
aI01
aI01
aI01
aI00
aI00
aI00
aI01
aI00
aI01
aI01
aI00
aI01
aI01
aI01
asS'total_steps'
p46
I55
sS'normalized_h_of_p_ui_given_um'
p47
(lp48
cnumpy.core.multiarray
scalar
p49
(cnumpy
dtype
p50
(S'f8'
p51
I0
I1
tp52
Rp53
(I3
S'<'
p54
NNNI-1
I-1
I0
tp55
bS'\x17L\xbfL\xc4t\xe3?'
p56
tp57
Rp58
ag49
(g53
S'W[\x8c\xf1\x7f\x90\xea?'
p59
tp60
Rp61
ag49
(g53
S'c\x85O+N\xf4\xd1?'
p62
tp63
Rp64
ag49
(g53
S'3\x83\xe8\x91\xae@\xd0?'
p65
tp66
Rp67
ag49
(g53
S'c\x85O+N\xf4\xd1?'
p68
tp69
Rp70
ag49
(g53
S').\x01X\x87\xa8\xe6?'
p71
tp72
Rp73
ag49
(g53
S'\xf3<8\xd5x\xff\xca?'
p74
tp75
Rp76
ag49
(g53
S').\x01X\x87\xa8\xe6?'
p77
tp78
Rp79
ag49
(g53
S'\xf3<8\xd5x\xff\xca?'
p80
tp81
Rp82
ag49
(g53
S'\x00\x98\xf1G\x19\xf4\xe0?'
p83
tp84
Rp85
ag49
(g53
S'c\x85O+N\xf4\xd1?'
p86
tp87
Rp88
ag49
(g53
S'M\xe9*\xd7\x94\xbd\xeb?'
p89
tp90
Rp91
ag49
(g53
S'\x00\x98\xf1G\x19\xf4\xe0?'
p92
tp93
Rp94
ag49
(g53
S'c\x85O+N\xf4\xd1?'
p95
tp96
Rp97
ag49
(g53
S'3\x83\xe8\x91\xae@\xd0?'
p98
tp99
Rp100
ag49
(g53
S'c\x85O+N\xf4\xd1?'
p101
tp102
Rp103
ag49
(g53
S'M\xe9*\xd7\x94\xbd\xeb?'
p104
tp105
Rp106
ag49
(g53
S'c\x85O+N\xf4\xd1?'
p107
tp108
Rp109
ag49
(g53
S'3\x83\xe8\x91\xae@\xd0?'
p110
tp111
Rp112
ag49
(g53
S'\x17L\xbfL\xc4t\xe3?'
p113
tp114
Rp115
ag49
(g53
S'\xf3<8\xd5x\xff\xca?'
p116
tp117
Rp118
ag49
(g53
S'3\x83\xe8\x91\xae@\xd0?'
p119
tp120
Rp121
ag49
(g53
S'c\x85O+N\xf4\xd1?'
p122
tp123
Rp124
ag49
(g53
S'\x00\x98\xf1G\x19\xf4\xe0?'
p125
tp126
Rp127
ag49
(g53
S'DJw\xf8Rq\xe6?'
p128
tp129
Rp130
ag49
(g53
S'3\x83\xe8\x91\xae@\xd0?'
p131
tp132
Rp133
ag49
(g53
S'\x17L\xbfL\xc4t\xe3?'
p134
tp135
Rp136
ag49
(g53
S'\x9ecV\x05G\x98\xe7?'
p137
tp138
Rp139
ag49
(g53
S'\xf3<8\xd5x\xff\xca?'
p140
tp141
Rp142
ag49
(g53
S'\x00\x98\xf1G\x19\xf4\xe0?'
p143
tp144
Rp145
ag49
(g53
S'c\x85O+N\xf4\xd1?'
p146
tp147
Rp148
ag49
(g53
S'\x00\x98\xf1G\x19\xf4\xe0?'
p149
tp150
Rp151
ag49
(g53
S'\x8a_\xdf/{h\xe0?'
p152
tp153
Rp154
ag49
(g53
S'\x8a_\xdf/{h\xe0?'
p155
tp156
Rp157
ag49
(g53
S'c\x85O+N\xf4\xd1?'
p158
tp159
Rp160
ag49
(g53
S'M\xe9*\xd7\x94\xbd\xeb?'
p161
tp162
Rp163
ag49
(g53
S'c\x85O+N\xf4\xd1?'
p164
tp165
Rp166
ag49
(g53
S'3\x83\xe8\x91\xae@\xd0?'
p167
tp168
Rp169
ag49
(g53
S'\xf3<8\xd5x\xff\xca?'
p170
tp171
Rp172
ag49
(g53
S').\x01X\x87\xa8\xe6?'
p173
tp174
Rp175
ag49
(g53
S'\x9ecV\x05G\x98\xe7?'
p176
tp177
Rp178
ag49
(g53
S'\x17L\xbfL\xc4t\xe3?'
p179
tp180
Rp181
ag49
(g53
S'\x9ecV\x05G\x98\xe7?'
p182
tp183
Rp184
ag49
(g53
S'\xf3<8\xd5x\xff\xca?'
p185
tp186
Rp187
ag49
(g53
S'M\xe9*\xd7\x94\xbd\xeb?'
p188
tp189
Rp190
ag49
(g53
S'DJw\xf8Rq\xe6?'
p191
tp192
Rp193
ag49
(g53
S'M\xe9*\xd7\x94\xbd\xeb?'
p194
tp195
Rp196
ag49
(g53
S'\x17L\xbfL\xc4t\xe3?'
p197
tp198
Rp199
ag49
(g53
S'W[\x8c\xf1\x7f\x90\xea?'
p200
tp201
Rp202
ag49
(g53
S'c\x85O+N\xf4\xd1?'
p203
tp204
Rp205
ag49
(g53
S'3\x83\xe8\x91\xae@\xd0?'
p206
tp207
Rp208
ag49
(g53
S'DJw\xf8Rq\xe6?'
p209
tp210
Rp211
ag49
(g53
S'3\x83\xe8\x91\xae@\xd0?'
p212
tp213
Rp214
ag49
(g53
S'\xf3<8\xd5x\xff\xca?'
p215
tp216
Rp217
ag49
(g53
S'3\x83\xe8\x91\xae@\xd0?'
p218
tp219
Rp220
asS'sp'
p221
(lp222
(S'p0'
p223
I0
S't'
p224
tp225
a(g223
I0
S'y'
p226
tp227
a(g223
I0
S'x'
p228
tp229
a(S'p1'
p230
I0
g228
tp231
a(g230
I0
g224
tp232
a(g230
I0
g226
tp233
a(g230
I0
g224
tp234
ag233
ag234
a(g230
I0
g228
tp235
ag232
a(g230
I0
g224
tp236
ag235
ag232
a(g230
F1.5707963267948966
g224
tp237
a(g230
F1.5707963267948966
g226
tp238
a(g223
F1.5707963267948966
g226
tp239
a(g223
F1.5707963267948966
g228
tp240
a(g230
F1.5707963267948966
g228
tp241
a(g230
F1.5707963267948966
g228
tp242
a(g230
F1.5707963267948966
g226
tp243
a(S'p2'
p244
F1.5707963267948966
g226
tp245
a(g244
F1.5707963267948966
g228
tp246
a(g244
F1.5707963267948966
g226
tp247
ag246
a(S'p3'
p248
F1.5707963267948966
g228
tp249
a(g248
F1.5707963267948966
g228
tp250
a(g248
F1.5707963267948966
g228
tp251
a(g248
F1.5707963267948966
g226
tp252
a(g248
F1.5707963267948966
g224
tp253
a(g248
F1.5707963267948966
g226
tp254
ag253
a(g248
F1.5707963267948966
g224
tp255
ag255
ag254
a(g244
F1.5707963267948966
g226
tp256
ag246
ag249
ag252
a(g248
F1.5707963267948966
g228
tp257
ag251
ag250
ag251
ag252
ag256
ag246
a(g230
F1.5707963267948966
g228
tp258
ag242
a(g230
F1.5707963267948966
g224
tp259
ag238
ag245
ag246
ag249
ag252
a(S'p4'
p260
F1.5707963267948966
g226
tp261
asS's'
p262
(lp263
(g223
I0
g22
tp264
ag225
ag227
ag229
ag231
ag232
ag233
ag234
ag233
ag234
ag235
ag232
ag236
ag235
ag232
ag237
ag238
ag239
ag240
ag241
ag242
ag243
ag245
ag246
ag247
ag246
ag249
ag250
ag251
ag252
ag253
ag254
ag253
ag255
ag255
ag254
ag256
ag246
ag249
ag252
ag257
ag251
ag250
ag251
ag252
ag256
ag246
ag258
ag242
ag259
ag238
ag245
ag246
ag249
ag252
asS'ui'
p265
(lp266
S'hp'
p267
ag267
aS'hs'
p268
ag221
ag268
ag268
ag267
ag268
ag267
ag267
ag268
ag221
ag267
ag268
ag221
ag268
ag267
ag268
ag221
ag267
ag267
ag221
ag268
ag267
ag268
ag221
aS'ss'
p269
ag221
ag267
ag267
ag269
ag267
ag267
ag267
ag268
ag221
ag268
ag267
ag267
ag221
ag267
ag221
ag221
ag267
ag269
ag268
ag267
ag267
ag269
ag267
ag221
ag221
ag221
ag267
ag221
asS'um_before'
p270
(lp271
g269
ag268
ag268
ag221
ag268
ag268
ag267
ag268
ag267
ag267
ag268
ag269
ag267
ag268
ag221
ag268
ag269
ag268
ag221
ag269
ag267
ag221
ag268
ag267
ag267
ag221
ag269
ag221
ag267
ag267
ag268
ag267
ag221
ag221
ag268
ag269
ag268
ag221
ag267
ag268
ag221
ag269
ag221
ag267
ag269
ag267
ag269
ag269
ag268
ag268
ag221
ag267
ag221
ag267
ag221
asS'um_after'
p272
(lp273
g269
ag268
ag268
ag221
ag268
ag268
ag267
ag268
ag267
ag267
ag268
ag269
ag267
ag268
ag221
ag268
ag269
ag268
ag221
ag269
ag267
ag221
ag268
ag267
ag268
ag221
ag269
ag221
ag267
ag267
ag268
ag267
ag221
ag221
ag268
ag269
ag268
ag221
ag267
ag268
ag221
ag269
ag221
ag267
ag269
ag268
ag269
ag269
ag268
ag268
ag221
ag268
ag221
ag267
ag221
asS'is_normalized_entropy_less_than_threshold'
p274
(lp275
g49
(g50
(S'b1'
p276
I0
I1
tp277
Rp278
(I3
S'|'
p279
NNNI-1
I-1
I0
tp280
bS'\x01'
p281
tp282
Rp283
ag49
(g278
S'\x00'
p284
tp285
Rp286
ag283
ag283
ag283
ag283
ag283
ag283
ag283
ag283
ag283
ag286
ag283
ag283
ag283
ag283
ag286
ag283
ag283
ag283
ag283
ag283
ag283
ag283
ag283
ag283
ag283
ag283
ag283
ag283
ag283
ag283
ag283
ag283
ag283
ag286
ag283
ag283
ag283
ag283
ag283
ag283
ag283
ag283
ag286
ag283
ag286
ag283
ag286
ag283
ag283
ag283
ag283
ag283
ag283
asaa(lp287
S'index'
p288
aI21283
aatp289
Rp290
.