ccollections
OrderedDict
p0
((lp1
(lp2
S'combination_dict'
p3
ag0
((lp4
(lp5
S'r_to_g_config'
p6
aS'tl'
p7
aa(lp8
S'num_turns'
p9
aI1
aa(lp10
S'start_direction'
p11
acutils_ms
StartDirection
p12
(I0
tp13
Rp14
aa(lp15
S'assistance_type'
p16
acutils_ms
AssistanceType
p17
(I1
tp18
Rp19
aa(lp20
S'start_mode'
p21
aS'y'
p22
aa(lp23
S'ui_given_a_noise'
p24
aF0.7
aa(lp25
S'um_given_ui_noise'
p26
aF0.7
aa(lp27
S'entropy_threshold'
p28
aF0.9
aatp29
Rp30
aa(lp31
S'data'
p32
accollections
defaultdict
p33
(c__builtin__
list
p34
tp35
Rp36
S'a'
p37
(lp38
S'mode_l'
p39
ag39
aS'move_n'
p40
ag39
ag39
aS'move_p'
p41
ag41
ag41
ag39
ag41
ag41
aS'mode_r'
p42
ag39
ag40
ag39
ag40
ag40
ag40
ag42
ag42
ag42
ag40
ag40
ag39
ag39
ag39
ag41
ag41
ag39
ag39
ag41
ag39
ag41
ag39
ag39
ag41
ag39
ag41
ag39
ag41
asS'assistance_match_with_ground_truth'
p43
(lp44
I00
aI01
aI01
aI00
aI01
aI00
aI00
aI00
aI01
aI00
aI00
aI00
aI01
aI00
aI01
aI00
aI00
aI00
aI00
aI00
aI01
aI00
aI01
aI00
aI00
aI01
aI00
aI00
aI00
aI01
aI01
aI00
aI00
aI00
aI01
aI00
aI01
aI01
aI01
aI01
asS'is_u_intended_equals_um'
p45
(lp46
I01
aI01
aI01
aI01
aI00
aI01
aI01
aI01
aI00
aI01
aI01
aI01
aI00
aI01
aI00
aI01
aI01
aI01
aI01
aI01
aI01
aI01
aI01
aI01
aI01
aI01
aI01
aI01
aI01
aI01
aI01
aI01
aI01
aI01
aI01
aI01
aI00
aI01
aI00
aI01
asS'total_steps'
p47
I40
sS'normalized_h_of_p_ui_given_um'
p48
(lp49
cnumpy.core.multiarray
scalar
p50
(cnumpy
dtype
p51
(S'f8'
p52
I0
I1
tp53
Rp54
(I3
S'<'
p55
NNNI-1
I-1
I0
tp56
bS's5\xa8d\xfc\x80\xed?'
p57
tp58
Rp59
ag50
(g54
S'\xffW\xfc\xe8\xd3\xad\xdd?'
p60
tp61
Rp62
ag50
(g54
S'\x13/u\x08*_\xe3?'
p63
tp64
Rp65
ag50
(g54
S's5\xa8d\xfc\x80\xed?'
p66
tp67
Rp68
ag50
(g54
S'\x9b\xb4\xf8k\xd0S\xeb?'
p69
tp70
Rp71
ag50
(g54
S'8\xd2\xe3\xe1T%\xe8?'
p72
tp73
Rp74
ag50
(g54
S'8\xd2\xe3\xe1T%\xe8?'
p75
tp76
Rp77
ag50
(g54
S'\xa7z\xc2\xfd\x84\\\xef?'
p78
tp79
Rp80
ag50
(g54
S'\x9b\xb4\xf8k\xd0S\xeb?'
p81
tp82
Rp83
ag50
(g54
S'8\xd2\xe3\xe1T%\xe8?'
p84
tp85
Rp86
ag50
(g54
S'\xa6\x10\x17\xd1O1\xeb?'
p87
tp88
Rp89
ag50
(g54
S"\\}'q+\xe9\xe7?"
p90
tp91
Rp92
ag50
(g54
S'\x9b\xb4\xf8k\xd0S\xeb?'
p93
tp94
Rp95
ag50
(g54
S'\x18-\xbfH\xaej\xed?'
p96
tp97
Rp98
ag50
(g54
S'\x9b\xb4\xf8k\xd0S\xeb?'
p99
tp100
Rp101
ag50
(g54
S'u\xe8\xa3n\x00\xbf\xeb?'
p102
tp103
Rp104
ag50
(g54
S'u\xe8\xa3n\x00\xbf\xeb?'
p105
tp106
Rp107
ag50
(g54
S':\xda\xefbm\xe3\xed?'
p108
tp109
Rp110
ag50
(g54
S"\\}'q+\xe9\xe7?"
p111
tp112
Rp113
ag50
(g54
S'\x80\x19r^\xa3N\xe6?'
p114
tp115
Rp116
ag50
(g54
S'\x01\xfb\x8bGx\xa6\xe5?'
p117
tp118
Rp119
ag50
(g54
S'u\xe8\xa3n\x00\xbf\xeb?'
p120
tp121
Rp122
ag50
(g54
S'\x13/u\x08*_\xe3?'
p123
tp124
Rp125
ag50
(g54
S'\x1c\x0f\x89\xbe\xaeh\xe6?'
p126
tp127
Rp128
ag50
(g54
S'\x1c\x0f\x89\xbe\xaeh\xe6?'
p129
tp130
Rp131
ag50
(g54
S'\xffW\xfc\xe8\xd3\xad\xdd?'
p132
tp133
Rp134
ag50
(g54
S'8\xd2\xe3\xe1T%\xe8?'
p135
tp136
Rp137
ag50
(g54
S'\xa7z\xc2\xfd\x84\\\xef?'
p138
tp139
Rp140
ag50
(g54
S's5\xa8d\xfc\x80\xed?'
p141
tp142
Rp143
ag50
(g54
S'\xffW\xfc\xe8\xd3\xad\xdd?'
p144
tp145
Rp146
ag50
(g54
S'\x9f\xe3\x1a\x9e\xf5\t\xe7?'
p147
tp148
Rp149
ag50
(g54
S'\x1c\x0f\x89\xbe\xaeh\xe6?'
p150
tp151
Rp152
ag50
(g54
S'\xa7z\xc2\xfd\x84\\\xef?'
p153
tp154
Rp155
ag50
(g54
S's5\xa8d\xfc\x80\xed?'
p156
tp157
Rp158
ag50
(g54
S'\xffW\xfc\xe8\xd3\xad\xdd?'
p159
tp160
Rp161
ag50
(g54
S'\xa7z\xc2\xfd\x84\\\xef?'
p162
tp163
Rp164
ag50
(g54
S'\x9b\xb4\xf8k\xd0S\xeb?'
p165
tp166
Rp167
ag50
(g54
S'\x9f\xe3\x1a\x9e\xf5\t\xe7?'
p168
tp169
Rp170
ag50
(g54
S'\x9b\xb4\xf8k\xd0S\xeb?'
p171
tp172
Rp173
ag50
(g54
S'\x9f\xe3\x1a\x9e\xf5\t\xe7?'
p174
tp175
Rp176
asS'sp'
p177
(lp178
(S'p0'
p179
I0
S'y'
p180
tp181
a(g179
I0
S'x'
p182
tp183
a(S'p1'
p184
I0
g182
tp185
a(g184
I0
g182
tp186
a(g184
I0
S't'
p187
tp188
a(g184
I0
g187
tp189
ag189
a(g184
I0
g182
tp190
ag188
ag189
a(g184
I0
g180
tp191
a(g179
I0
g180
tp192
ag183
a(g179
I0
g180
tp193
ag183
a(g179
I0
g182
tp194
ag194
a(g179
I0
g187
tp195
a(g179
I0
g187
tp196
a(g179
I0
g187
tp197
a(g179
I0
g182
tp198
ag194
ag185
a(g184
I0
g182
tp199
ag199
ag188
ag189
ag190
ag186
ag188
a(g184
F1.5707963267948966
g187
tp200
a(g184
I0
g187
tp201
ag190
ag186
ag188
ag190
ag188
ag200
a(g184
F1.5707963267948966
g180
tp202
a(S'p2'
p203
F1.5707963267948966
g180
tp204
asS's'
p205
(lp206
(g179
I0
g22
tp207
ag181
ag183
ag185
ag186
ag188
ag189
ag189
ag190
ag188
ag189
ag191
ag192
ag183
ag193
ag183
ag194
ag194
ag195
ag196
ag197
ag198
ag194
ag185
ag199
ag199
ag188
ag189
ag190
ag186
ag188
ag200
ag201
ag190
ag186
ag188
ag190
ag188
ag200
ag202
asS'ui'
p208
(lp209
S'ss'
p210
aS'hp'
p211
ag210
ag177
aS'hs'
p212
ag211
ag177
ag210
ag210
ag210
ag212
ag211
ag212
ag210
ag211
ag211
ag177
ag212
ag211
ag177
ag177
ag211
ag210
ag210
ag211
ag210
ag177
ag210
ag211
ag212
ag177
ag177
ag210
ag177
ag210
ag211
ag210
ag177
ag211
ag177
asS'um_before'
p213
(lp214
g177
ag212
ag210
ag177
ag211
ag210
ag210
ag211
ag211
ag210
ag212
ag210
ag211
ag211
ag211
ag177
ag177
ag212
ag210
ag177
ag211
ag177
ag210
ag210
ag210
ag212
ag210
ag211
ag177
ag212
ag177
ag210
ag211
ag177
ag212
ag211
ag211
ag177
ag211
ag177
asS'um_after'
p215
(lp216
g177
ag212
ag210
ag177
ag212
ag210
ag210
ag211
ag212
ag210
ag212
ag210
ag212
ag211
ag212
ag177
ag177
ag212
ag210
ag177
ag211
ag177
ag210
ag210
ag210
ag212
ag210
ag211
ag177
ag212
ag177
ag210
ag211
ag177
ag212
ag211
ag212
ag177
ag212
ag177
asS'is_normalized_entropy_less_than_threshold'
p217
(lp218
g50
(g51
(S'b1'
p219
I0
I1
tp220
Rp221
(I3
S'|'
p222
NNNI-1
I-1
I0
tp223
bS'\x00'
p224
tp225
Rp226
ag50
(g221
S'\x01'
p227
tp228
Rp229
ag229
ag226
ag229
ag229
ag229
ag226
ag229
ag229
ag229
ag229
ag229
ag226
ag229
ag229
ag229
ag226
ag229
ag229
ag229
ag229
ag229
ag229
ag229
ag229
ag229
ag226
ag226
ag229
ag229
ag229
ag226
ag226
ag229
ag226
ag229
ag229
ag229
ag229
asaa(lp230
S'index'
p231
aI31997
aatp232
Rp233
.