ccollections
OrderedDict
p0
((lp1
(lp2
S'combination_dict'
p3
ag0
((lp4
(lp5
S'r_to_g_config'
p6
aS'tl'
p7
aa(lp8
S'num_turns'
p9
aI1
aa(lp10
S'start_direction'
p11
acutils_ms
StartDirection
p12
(I1
tp13
Rp14
aa(lp15
S'assistance_type'
p16
acutils_ms
AssistanceType
p17
(I0
tp18
Rp19
aa(lp20
S'start_mode'
p21
aS'x'
p22
aa(lp23
S'ui_given_a_noise'
p24
aF0.7
aa(lp25
S'um_given_ui_noise'
p26
aF0.3
aa(lp27
S'entropy_threshold'
p28
aF0.9
aatp29
Rp30
aa(lp31
S'data'
p32
accollections
defaultdict
p33
(c__builtin__
list
p34
tp35
Rp36
S'a'
p37
(lp38
S'mode_r'
p39
ag39
ag39
ag39
aS'mode_l'
p40
ag40
ag39
aS'move_p'
p41
ag40
ag41
ag39
ag40
asS'assistance_match_with_ground_truth'
p42
(lp43
I00
aI00
aI00
aI00
aI00
aI00
aI01
aI00
aI01
aI01
aI00
aI00
asS'is_u_intended_equals_um'
p44
(lp45
I00
aI00
aI00
aI01
aI01
aI01
aI01
aI01
aI01
aI01
aI01
aI01
asS'total_steps'
p46
I12
sS'normalized_h_of_p_ui_given_um'
p47
(lp48
cnumpy.core.multiarray
scalar
p49
(cnumpy
dtype
p50
(S'f8'
p51
I0
I1
tp52
Rp53
(I3
S'<'
p54
NNNI-1
I-1
I0
tp55
bS'`\xfb\x8b\xf2\xf2\xa8\xe4?'
p56
tp57
Rp58
ag49
(g53
S'R\xb2\xb5C\xbc\xda\xea?'
p59
tp60
Rp61
ag49
(g53
S'`\xfb\x8b\xf2\xf2\xa8\xe4?'
p62
tp63
Rp64
ag49
(g53
S'p\xb18\xe2\x12u\xca?'
p65
tp66
Rp67
ag49
(g53
S'Z\x93\xfa\xed\xf9\xfe\xd5?'
p68
tp69
Rp70
ag49
(g53
S'<\xdcsc\x8d\x1c\xe8?'
p71
tp72
Rp73
ag49
(g53
S'\x87\x02\x16\xa0\xad\xf5\xd0?'
p74
tp75
Rp76
ag49
(g53
S'\xf3\xb3j\xc56\xb1\xe5?'
p77
tp78
Rp79
ag49
(g53
S'\xc7\xab\x85:\x80<\xd2?'
p80
tp81
Rp82
ag49
(g53
S'\x05 \xe0[bB\xd1?'
p83
tp84
Rp85
ag49
(g53
S'p\xb18\xe2\x12u\xca?'
p86
tp87
Rp88
ag49
(g53
S'\xf0)*\xdb\xdd\x96\xec?'
p89
tp90
Rp91
asS'sp'
p92
(lp93
(S'p0'
p94
I0
g22
tp95
ag95
ag95
a(g94
I0
S't'
p96
tp97
a(g94
I0
g96
tp98
a(g94
I0
S'x'
p99
tp100
a(g94
I0
S'y'
p101
tp102
a(g94
I0
g96
tp103
a(g94
I0
g101
tp104
a(S'p1'
p105
I0
g101
tp106
a(g105
I0
g99
tp107
a(S'p2'
p108
I0
g99
tp109
asS's'
p110
(lp111
g95
ag95
ag95
ag95
ag97
ag98
ag100
ag102
ag103
ag104
ag106
ag107
asS'ui'
p112
(lp113
S'ss'
p114
aS'hp'
p115
aS'hs'
p116
ag116
ag92
ag115
ag115
ag116
ag116
ag92
ag115
ag116
asS'um_before'
p117
(lp118
g92
ag114
ag92
ag116
ag92
ag115
ag115
ag115
ag116
ag92
ag116
ag114
asS'um_after'
p119
(lp120
NaNaNag116
ag92
ag115
ag115
ag115
ag116
ag92
ag116
ag114
asS'is_normalized_entropy_less_than_threshold'
p121
(lp122
g49
(g50
(S'b1'
p123
I0
I1
tp124
Rp125
(I3
S'|'
p126
NNNI-1
I-1
I0
tp127
bS'\x01'
p128
tp129
Rp130
ag130
ag130
ag130
ag130
ag130
ag130
ag130
ag130
ag130
ag130
ag130
asaa(lp131
S'index'
p132
aI34294
aatp133
Rp134
.