ccollections
OrderedDict
p0
((lp1
(lp2
S'combination_dict'
p3
ag0
((lp4
(lp5
S'r_to_g_config'
p6
aS'bl'
p7
aa(lp8
S'num_turns'
p9
aI1
aa(lp10
S'start_direction'
p11
acutils_ms
StartDirection
p12
(I0
tp13
Rp14
aa(lp15
S'assistance_type'
p16
acutils_ms
AssistanceType
p17
(I1
tp18
Rp19
aa(lp20
S'start_mode'
p21
aS'y'
p22
aa(lp23
S'ui_given_a_noise'
p24
aF0.1
aa(lp25
S'um_given_ui_noise'
p26
aF0.1
aa(lp27
S'entropy_threshold'
p28
aF0.9
aatp29
Rp30
aa(lp31
S'data'
p32
accollections
defaultdict
p33
(c__builtin__
list
p34
tp35
Rp36
S'a'
p37
(lp38
S'mode_l'
p39
aS'move_n'
p40
ag39
ag39
aS'move_p'
p41
ag41
ag39
ag39
ag40
asS'assistance_match_with_ground_truth'
p42
(lp43
I01
aI01
aI00
aI01
aI00
aI01
aI00
aI01
aI01
asS'is_u_intended_equals_um'
p44
(lp45
I01
aI01
aI01
aI01
aI01
aI01
aI01
aI01
aI01
asS'total_steps'
p46
I9
sS'normalized_h_of_p_ui_given_um'
p47
(lp48
cnumpy.core.multiarray
scalar
p49
(cnumpy
dtype
p50
(S'f8'
p51
I0
I1
tp52
Rp53
(I3
S'<'
p54
NNNI-1
I-1
I0
tp55
bS'\xa4\xcf@\xa5\xf5\xfa\xa6?'
p56
tp57
Rp58
ag49
(g53
S'\x1c\xd5\x931\xb9\x17\xa4?'
p59
tp60
Rp61
ag49
(g53
S'b\xe4\xf4\xc7\xf7T\xe3?'
p62
tp63
Rp64
ag49
(g53
S'\xa4\xcf@\xa5\xf5\xfa\xa6?'
p65
tp66
Rp67
ag49
(g53
S'\xb0*]pU`\xd3?'
p68
tp69
Rp70
ag49
(g53
S'"i\x0c\xbb\xa4\xae\xa2?'
p71
tp72
Rp73
ag49
(g53
S'b\xe4\xf4\xc7\xf7T\xe3?'
p74
tp75
Rp76
ag49
(g53
S'\xa4\xcf@\xa5\xf5\xfa\xa6?'
p77
tp78
Rp79
ag49
(g53
S'\x1c\xd5\x931\xb9\x17\xa4?'
p80
tp81
Rp82
asS'sp'
p83
(lp84
(S'p0'
p85
I0
S'x'
p86
tp87
a(S'p1'
p88
I0
g86
tp89
a(g88
I0
g86
tp90
a(g88
I0
S't'
p91
tp92
a(g88
I0
g91
tp93
a(g88
F1.5707963267948966
g91
tp94
a(g88
F1.5707963267948966
g91
tp95
a(g88
F1.5707963267948966
S'y'
p96
tp97
a(S'p2'
p98
F1.5707963267948966
g96
tp99
asS's'
p100
(lp101
(g85
I0
g22
tp102
ag87
ag89
ag90
ag92
ag93
ag94
ag95
ag97
asS'ui'
p103
(lp104
S'hs'
p105
aS'ss'
p106
ag83
ag105
ag83
ag83
ag83
ag105
ag106
asS'um_before'
p107
(lp108
g105
ag106
ag83
ag105
ag106
ag83
ag83
ag105
ag106
asS'um_after'
p109
(lp110
g105
ag106
ag83
ag105
ag106
ag83
ag83
ag105
ag106
asS'is_normalized_entropy_less_than_threshold'
p111
(lp112
g49
(g50
(S'b1'
p113
I0
I1
tp114
Rp115
(I3
S'|'
p116
NNNI-1
I-1
I0
tp117
bS'\x01'
p118
tp119
Rp120
ag120
ag120
ag120
ag120
ag120
ag120
ag120
ag120
asaa(lp121
S'index'
p122
aI60046
aatp123
Rp124
.