ccollections
OrderedDict
p0
((lp1
(lp2
S'combination_dict'
p3
ag0
((lp4
(lp5
S'r_to_g_config'
p6
aS'tr'
p7
aa(lp8
S'num_turns'
p9
aI2
aa(lp10
S'start_direction'
p11
acutils_ms
StartDirection
p12
(I0
tp13
Rp14
aa(lp15
S'assistance_type'
p16
acutils_ms
AssistanceType
p17
(I0
tp18
Rp19
aa(lp20
S'start_mode'
p21
aS'y'
p22
aa(lp23
S'ui_given_a_noise'
p24
aF0.5
aa(lp25
S'um_given_ui_noise'
p26
aF0.1
aa(lp27
S'entropy_threshold'
p28
aF0.6
aatp29
Rp30
aa(lp31
S'data'
p32
accollections
defaultdict
p33
(c__builtin__
list
p34
tp35
Rp36
S'a'
p37
(lp38
S'mode_l'
p39
aS'move_p'
p40
aS'mode_r'
p41
ag41
ag40
ag41
ag39
ag39
ag39
ag39
ag40
ag41
ag41
ag39
ag40
ag40
ag41
ag41
ag40
ag41
ag39
ag39
ag40
asS'assistance_match_with_ground_truth'
p42
(lp43
I01
aI00
aI00
aI01
aI01
aI00
aI00
aI00
aI00
aI01
aI01
aI00
aI00
aI01
aI00
aI00
aI00
aI01
aI01
aI00
aI00
aI01
aI01
asS'is_u_intended_equals_um'
p44
(lp45
I01
aI01
aI01
aI01
aI01
aI01
aI01
aI00
aI00
aI01
aI01
aI01
aI01
aI01
aI01
aI01
aI01
aI01
aI01
aI01
aI01
aI01
aI01
asS'total_steps'
p46
I23
sS'normalized_h_of_p_ui_given_um'
p47
(lp48
cnumpy.core.multiarray
scalar
p49
(cnumpy
dtype
p50
(S'f8'
p51
I0
I1
tp52
Rp53
(I3
S'<'
p54
NNNI-1
I-1
I0
tp55
bS'$\xe7\xf0\xcb\xe5\xe8\xbb?'
p56
tp57
Rp58
ag49
(g53
S'\xa9\x00\xad\xd7\xc9\x98\xdf?'
p59
tp60
Rp61
ag49
(g53
S'\xca5q\x82@\x19\xd9?'
p62
tp63
Rp64
ag49
(g53
S'\x90\xfb,\x18\xd3\x15\xc2?'
p65
tp66
Rp67
ag49
(g53
S'\xa4\x88\xbb\x1f5m\xc4?'
p68
tp69
Rp70
ag49
(g53
S'\x8d\xa0\r\xc8\x93\x96\xde?'
p71
tp72
Rp73
ag49
(g53
S'\xd1\xc5\xd9\x84\xd4b\xda?'
p74
tp75
Rp76
ag49
(g53
S'\xa6\xcd\xcf\xa1\x91\xb7\xee?'
p77
tp78
Rp79
ag49
(g53
S'\xa6\xcd\xcf\xa1\x91\xb7\xee?'
p80
tp81
Rp82
ag49
(g53
S'$\xe7\xf0\xcb\xe5\xe8\xbb?'
p83
tp84
Rp85
ag49
(g53
S'\xa4\x88\xbb\x1f5m\xc4?'
p86
tp87
Rp88
ag49
(g53
S'\xca5q\x82@\x19\xd9?'
p89
tp90
Rp91
ag49
(g53
S'\x8d\xa0\r\xc8\x93\x96\xde?'
p92
tp93
Rp94
ag49
(g53
S'$\xe7\xf0\xcb\xe5\xe8\xbb?'
p95
tp96
Rp97
ag49
(g53
S'~^\x16\x0e8\x9b\xd4?'
p98
tp99
Rp100
ag49
(g53
S'\xa9\x00\xad\xd7\xc9\x98\xdf?'
p101
tp102
Rp103
ag49
(g53
S'\xa6\x0c\x0e\n\xcf\xba\xdb?'
p104
tp105
Rp106
ag49
(g53
S'\x90\xfb,\x18\xd3\x15\xc2?'
p107
tp108
Rp109
ag49
(g53
S'\xa4\x88\xbb\x1f5m\xc4?'
p110
tp111
Rp112
ag49
(g53
S'\x8d\xa0\r\xc8\x93\x96\xde?'
p113
tp114
Rp115
ag49
(g53
S'\xd1\xc5\xd9\x84\xd4b\xda?'
p116
tp117
Rp118
ag49
(g53
S'$\xe7\xf0\xcb\xe5\xe8\xbb?'
p119
tp120
Rp121
ag49
(g53
S'\xa4\x88\xbb\x1f5m\xc4?'
p122
tp123
Rp124
asS'sp'
p125
(lp126
(S'p0'
p127
I0
S'x'
p128
tp129
a(g127
I0
S't'
p130
tp131
a(g127
I0
g130
tp132
a(g127
I0
g128
tp133
a(S'p1'
p134
I0
g128
tp135
a(g134
I0
g130
tp136
a(g134
I0
g130
tp137
a(g134
I0
g130
tp138
ag138
a(g134
I0
S'y'
p139
tp140
a(S'p2'
p141
I0
g139
tp142
a(g141
I0
g139
tp143
a(g141
I0
g128
tp144
a(g141
I0
g130
tp145
a(g141
I0
g130
tp146
a(g141
I0
g139
tp147
a(g141
I0
g139
tp148
a(g141
I0
g130
tp149
a(g141
F1.5707963267948966
g130
tp150
a(g141
F1.5707963267948966
g139
tp151
a(g141
F1.5707963267948966
g139
tp152
a(g141
F1.5707963267948966
g128
tp153
a(S'p3'
p154
F1.5707963267948966
g128
tp155
asS's'
p156
(lp157
(g127
I0
g22
tp158
ag129
ag131
ag132
ag133
ag135
ag136
ag137
ag138
ag138
ag140
ag142
ag143
ag144
ag145
ag146
ag147
ag148
ag149
ag150
ag151
ag152
ag153
asS'ui'
p159
(lp160
S'hs'
p161
ag161
ag125
aS'hp'
p162
ag125
ag161
aS'ss'
p163
ag163
ag162
ag161
ag125
ag125
ag162
ag161
ag163
ag161
ag163
ag162
ag125
ag161
ag163
ag161
ag125
asS'um_before'
p164
(lp165
g161
ag161
ag125
ag162
ag125
ag161
ag163
ag125
ag125
ag161
ag125
ag125
ag161
ag161
ag163
ag161
ag163
ag162
ag125
ag161
ag163
ag161
ag125
asS'um_after'
p166
(lp167
g161
ag161
ag125
ag162
ag125
ag161
ag163
ag125
ag125
ag161
ag125
ag125
ag161
ag161
ag163
ag161
ag163
ag162
ag125
ag161
ag163
ag161
ag125
asS'is_normalized_entropy_less_than_threshold'
p168
(lp169
g49
(g50
(S'b1'
p170
I0
I1
tp171
Rp172
(I3
S'|'
p173
NNNI-1
I-1
I0
tp174
bS'\x01'
p175
tp176
Rp177
ag177
ag177
ag177
ag177
ag177
ag177
ag49
(g172
S'\x00'
p178
tp179
Rp180
ag180
ag177
ag177
ag177
ag177
ag177
ag177
ag177
ag177
ag177
ag177
ag177
ag177
ag177
ag177
asaa(lp181
S'index'
p182
aI10813
aatp183
Rp184
.