ccollections
OrderedDict
p0
((lp1
(lp2
S'combination_dict'
p3
ag0
((lp4
(lp5
S'r_to_g_config'
p6
aS'br'
p7
aa(lp8
S'num_turns'
p9
aI1
aa(lp10
S'start_direction'
p11
acutils_ms
StartDirection
p12
(I1
tp13
Rp14
aa(lp15
S'assistance_type'
p16
acutils_ms
AssistanceType
p17
(I0
tp18
Rp19
aa(lp20
S'start_mode'
p21
aS'x'
p22
aa(lp23
S'ui_given_a_noise'
p24
aF0.1
aa(lp25
S'um_given_ui_noise'
p26
aF0.7
aa(lp27
S'entropy_threshold'
p28
aF0.5
aatp29
Rp30
aa(lp31
S'data'
p32
accollections
defaultdict
p33
(c__builtin__
list
p34
tp35
Rp36
S'a'
p37
(lp38
S'mode_r'
p39
aS'mode_l'
p40
ag40
aS'move_n'
p41
ag39
ag39
ag39
aS'move_p'
p42
ag42
ag42
ag39
ag42
ag42
ag42
ag42
asS'assistance_match_with_ground_truth'
p43
(lp44
I00
aI00
aI01
aI01
aI00
aI00
aI01
aI00
aI00
aI01
aI01
aI00
aI00
aI00
aI01
asS'is_u_intended_equals_um'
p45
(lp46
I00
aI00
aI01
aI01
aI00
aI00
aI01
aI00
aI00
aI01
aI01
aI00
aI00
aI00
aI01
asS'total_steps'
p47
I15
sS'normalized_h_of_p_ui_given_um'
p48
(lp49
cnumpy.core.multiarray
scalar
p50
(cnumpy
dtype
p51
(S'f8'
p52
I0
I1
tp53
Rp54
(I3
S'<'
p55
NNNI-1
I-1
I0
tp56
bS'*\xe32\xaa\x8b3\xe0?'
p57
tp58
Rp59
ag50
(g54
S'w\xf3\xa2z\x1f\xf4\xc8?'
p60
tp61
Rp62
ag50
(g54
S'\x1e\xf0\x9a\x8b\xa1!\xb0?'
p63
tp64
Rp65
ag50
(g54
S'\x98\xd6\x86\xdd\xbaD\xc6?'
p66
tp67
Rp68
ag50
(g54
S'\x01\xf0?\x98\xcf\xf5\xcb?'
p69
tp70
Rp71
ag50
(g54
S'2r\\\x83\xb4\x03\xd6?'
p72
tp73
Rp74
ag50
(g54
S'/\x92\xddF\x1e\xe1\xbd?'
p75
tp76
Rp77
ag50
(g54
S'\xb9\xa2\xa6\x97bs\xd6?'
p78
tp79
Rp80
ag50
(g54
S'kp\x85\xbc\xa6\x10\xd8?'
p81
tp82
Rp83
ag50
(g54
S'\x94\xc3,L\x18V\xca?'
p84
tp85
Rp86
ag50
(g54
S'/\x92\xddF\x1e\xe1\xbd?'
p87
tp88
Rp89
ag50
(g54
S'\xb9\xa2\xa6\x97bs\xd6?'
p90
tp91
Rp92
ag50
(g54
S'kp\x85\xbc\xa6\x10\xd8?'
p93
tp94
Rp95
ag50
(g54
S'\xb9\xa2\xa6\x97bs\xd6?'
p96
tp97
Rp98
ag50
(g54
S'\x94\xc3,L\x18V\xca?'
p99
tp100
Rp101
asS'sp'
p102
(lp103
(S'p0'
p104
I0
S't'
p105
tp106
ag106
a(g104
I0
S'y'
p107
tp108
a(S'p1'
p109
I0
g107
tp110
ag110
ag110
a(g109
I0
g105
tp111
ag111
ag111
a(g109
F1.5707963267948966
g105
tp112
a(g109
F1.5707963267948966
S'x'
p113
tp114
ag114
ag114
ag114
a(S'p2'
p115
F1.5707963267948966
g113
tp116
asS's'
p117
(lp118
(g104
I0
g22
tp119
ag106
ag106
ag108
ag110
ag110
ag110
ag111
ag111
ag111
ag112
ag114
ag114
ag114
ag114
asS'ui'
p120
(lp121
S'hp'
p122
aS'hs'
p123
ag123
aS'ss'
p124
ag122
ag122
ag122
ag123
ag102
ag102
ag122
ag102
ag102
ag102
ag102
asS'um_before'
p125
(lp126
g123
ag122
ag123
ag124
ag124
ag102
ag122
ag123
ag122
ag102
ag122
ag123
ag122
ag123
ag102
asS'um_after'
p127
(lp128
g123
aNag123
ag124
aNaNag122
aNaNag102
ag122
aNaNaNag102
asS'is_normalized_entropy_less_than_threshold'
p129
(lp130
g50
(g51
(S'b1'
p131
I0
I1
tp132
Rp133
(I3
S'|'
p134
NNNI-1
I-1
I0
tp135
bS'\x00'
p136
tp137
Rp138
ag50
(g133
S'\x01'
p139
tp140
Rp141
ag141
ag141
ag141
ag141
ag141
ag141
ag141
ag141
ag141
ag141
ag141
ag141
ag141
asaa(lp142
S'index'
p143
aI91354
aatp144
Rp145
.