ccollections
OrderedDict
p0
((lp1
(lp2
S'combination_dict'
p3
ag0
((lp4
(lp5
S'r_to_g_config'
p6
aS'tr'
p7
aa(lp8
S'num_turns'
p9
aI2
aa(lp10
S'start_direction'
p11
acutils_ms
StartDirection
p12
(I1
tp13
Rp14
aa(lp15
S'assistance_type'
p16
acutils_ms
AssistanceType
p17
(I1
tp18
Rp19
aa(lp20
S'start_mode'
p21
aS't'
p22
aa(lp23
S'ui_given_a_noise'
p24
aF0.5
aa(lp25
S'um_given_ui_noise'
p26
aF0.1
aa(lp27
S'entropy_threshold'
p28
aF0.5
aatp29
Rp30
aa(lp31
S'data'
p32
accollections
defaultdict
p33
(c__builtin__
list
p34
tp35
Rp36
S'a'
p37
(lp38
S'mode_l'
p39
aS'move_p'
p40
aS'mode_r'
p41
ag39
ag39
ag40
ag39
ag40
ag41
ag40
ag41
ag41
ag41
ag41
ag40
ag39
ag39
ag40
ag39
ag40
asS'assistance_match_with_ground_truth'
p42
(lp43
I01
aI00
aI00
aI00
aI01
aI01
aI01
aI00
aI01
aI00
aI00
aI00
aI00
aI01
aI01
aI00
aI01
aI01
aI01
aI01
asS'is_u_intended_equals_um'
p44
(lp45
I01
aI01
aI01
aI01
aI01
aI01
aI01
aI01
aI01
aI01
aI01
aI00
aI01
aI01
aI01
aI00
aI01
aI01
aI01
aI01
asS'total_steps'
p46
I20
sS'normalized_h_of_p_ui_given_um'
p47
(lp48
cnumpy.core.multiarray
scalar
p49
(cnumpy
dtype
p50
(S'f8'
p51
I0
I1
tp52
Rp53
(I3
S'<'
p54
NNNI-1
I-1
I0
tp55
bS'\xb2q\xbbM:7\xc7?'
p56
tp57
Rp58
ag49
(g53
S'\xe9\x90\xd7"]P\xde?'
p59
tp60
Rp61
ag49
(g53
S'|;\xf72f\xc2\xe6?'
p62
tp63
Rp64
ag49
(g53
S'\x9cSG\x140%\xd2?'
p65
tp66
Rp67
ag49
(g53
S'\xb2q\xbbM:7\xc7?'
p68
tp69
Rp70
ag49
(g53
S'\xb8\xc1\x7f;\xfa\x8c\xc7?'
p71
tp72
Rp73
ag49
(g53
S'\xb2q\xbbM:7\xc7?'
p74
tp75
Rp76
ag49
(g53
S'\xe9\x90\xd7"]P\xde?'
p77
tp78
Rp79
ag49
(g53
S'\xbeo\x14\x98\x9d;\xbc?'
p80
tp81
Rp82
ag49
(g53
S'\xe9\x90\xd7"]P\xde?'
p83
tp84
Rp85
ag49
(g53
S'\xa3\xb0LSI\x0c\xd4?'
p86
tp87
Rp88
ag49
(g53
S'\x8e\xf0Ur\x88g\xe5?'
p89
tp90
Rp91
ag49
(g53
S'\xa3\xb0LSI\x0c\xd4?'
p92
tp93
Rp94
ag49
(g53
S'\xbeo\x14\x98\x9d;\xbc?'
p95
tp96
Rp97
ag49
(g53
S'\xb8\xc1\x7f;\xfa\x8c\xc7?'
p98
tp99
Rp100
ag49
(g53
S'\x1c\xb3\x16\xe5\xde\x8e\xe9?'
p101
tp102
Rp103
ag49
(g53
S'\xb2q\xbbM:7\xc7?'
p104
tp105
Rp106
ag49
(g53
S'\xb8\xc1\x7f;\xfa\x8c\xc7?'
p107
tp108
Rp109
ag49
(g53
S'\xb2q\xbbM:7\xc7?'
p110
tp111
Rp112
ag49
(g53
S'\xb8\xc1\x7f;\xfa\x8c\xc7?'
p113
tp114
Rp115
asS'sp'
p116
(lp117
(S'p0'
p118
I0
S'y'
p119
tp120
a(g118
I0
S'x'
p121
tp122
a(g118
I0
S't'
p123
tp124
a(g118
I0
g123
tp125
ag120
a(S'p1'
p126
I0
g119
tp127
a(g126
I0
g121
tp128
a(g126
I0
g123
tp129
a(g126
I0
g121
tp130
ag129
a(g126
I0
g123
tp131
a(g126
I0
g123
tp132
ag131
ag130
a(S'p2'
p133
I0
g121
tp134
a(g133
I0
g121
tp135
a(g133
I0
g123
tp136
a(g133
F1.5707963267948966
g123
tp137
a(g133
F1.5707963267948966
g119
tp138
a(S'p3'
p139
F1.5707963267948966
g119
tp140
asS's'
p141
(lp142
(g118
I0
g22
tp143
ag120
ag122
ag124
ag125
ag120
ag127
ag128
ag129
ag130
ag129
ag131
ag132
ag131
ag130
ag134
ag135
ag136
ag137
ag138
asS'ui'
p144
(lp145
S'hs'
p146
ag116
aS'hp'
p147
ag146
ag146
ag116
ag146
ag146
ag147
ag146
ag116
ag147
ag116
ag147
ag116
ag116
ag146
ag116
aS'ss'
p148
ag116
asS'um_before'
p149
(lp150
g146
ag146
ag146
ag148
ag146
ag116
ag146
ag146
ag147
ag146
ag116
ag148
ag116
ag147
ag116
ag116
ag146
ag116
ag146
ag116
asS'um_after'
p151
(lp152
g146
ag146
ag146
ag148
ag146
ag116
ag146
ag146
ag147
ag146
ag116
ag148
ag116
ag147
ag116
ag116
ag146
ag116
ag146
ag116
asS'is_normalized_entropy_less_than_threshold'
p153
(lp154
g49
(g50
(S'b1'
p155
I0
I1
tp156
Rp157
(I3
S'|'
p158
NNNI-1
I-1
I0
tp159
bS'\x01'
p160
tp161
Rp162
ag162
ag49
(g157
S'\x00'
p163
tp164
Rp165
ag162
ag162
ag162
ag162
ag162
ag162
ag162
ag162
ag165
ag162
ag162
ag162
ag165
ag162
ag162
ag162
ag162
asaa(lp166
S'index'
p167
aI17209
aatp168
Rp169
.