ccollections
OrderedDict
p0
((lp1
(lp2
S'combination_dict'
p3
ag0
((lp4
(lp5
S'r_to_g_config'
p6
aS'tl'
p7
aa(lp8
S'num_turns'
p9
aI3
aa(lp10
S'start_direction'
p11
acutils_ms
StartDirection
p12
(I1
tp13
Rp14
aa(lp15
S'assistance_type'
p16
acutils_ms
AssistanceType
p17
(I1
tp18
Rp19
aa(lp20
S'start_mode'
p21
aS'x'
p22
aa(lp23
S'ui_given_a_noise'
p24
aF0.3
aa(lp25
S'um_given_ui_noise'
p26
aF0.3
aa(lp27
S'entropy_threshold'
p28
aF0.8
aatp29
Rp30
aa(lp31
S'data'
p32
accollections
defaultdict
p33
(c__builtin__
list
p34
tp35
Rp36
S'a'
p37
(lp38
S'mode_r'
p39
aS'move_p'
p40
aS'mode_l'
p41
aS'move_n'
p42
ag39
ag40
ag41
ag39
ag42
ag39
ag40
ag39
ag40
ag40
ag39
ag42
ag39
ag40
ag41
ag42
ag39
ag40
ag41
ag42
asS'assistance_match_with_ground_truth'
p43
(lp44
I01
aI01
aI01
aI00
aI01
aI01
aI00
aI01
aI01
aI01
aI01
aI01
aI00
aI01
aI01
aI00
aI01
aI00
aI01
aI01
aI01
aI01
aI01
aI01
asS'is_u_intended_equals_um'
p45
(lp46
I00
aI00
aI01
aI01
aI01
aI01
aI00
aI01
aI01
aI00
aI01
aI01
aI01
aI01
aI01
aI01
aI00
aI01
aI01
aI01
aI01
aI00
aI01
aI01
asS'total_steps'
p47
I24
sS'normalized_h_of_p_ui_given_um'
p48
(lp49
cnumpy.core.multiarray
scalar
p50
(cnumpy
dtype
p51
(S'f8'
p52
I0
I1
tp53
Rp54
(I3
S'<'
p55
NNNI-1
I-1
I0
tp56
bS'\xc7\xcf\xfe5\x8a^\xe6?'
p57
tp58
Rp59
ag50
(g54
S'V\xc0|\xfa\x06\xff\xe8?'
p60
tp61
Rp62
ag50
(g54
S'Z\xfb\x7f\x05\x92\xe1\xbb?'
p63
tp64
Rp65
ag50
(g54
S'~<\x9aL\xfb\x86\xe6?'
p66
tp67
Rp68
ag50
(g54
S'p(\x1f\xaa\xd8\xc2\xc5?'
p69
tp70
Rp71
ag50
(g54
S'S\x99\x18\x99\r\xd2\xd4?'
p72
tp73
Rp74
ag50
(g54
S'\xde\xe3\xad\xbdX\xed\xed?'
p75
tp76
Rp77
ag50
(g54
S'p(\x1f\xaa\xd8\xc2\xc5?'
p78
tp79
Rp80
ag50
(g54
S'\xedq\x8f\x04\xc9\x9f\xd2?'
p81
tp82
Rp83
ag50
(g54
S'\xc7\xcf\xfe5\x8a^\xe6?'
p84
tp85
Rp86
ag50
(g54
S'S\x99\x18\x99\r\xd2\xd4?'
p87
tp88
Rp89
ag50
(g54
S'p(\x1f\xaa\xd8\xc2\xc5?'
p90
tp91
Rp92
ag50
(g54
S'\xe54^\x99\xb0\xcc\xe7?'
p93
tp94
Rp95
ag50
(g54
S'S\x99\x18\x99\r\xd2\xd4?'
p96
tp97
Rp98
ag50
(g54
S'p(\x1f\xaa\xd8\xc2\xc5?'
p99
tp100
Rp101
ag50
(g54
S'~<\x9aL\xfb\x86\xe6?'
p102
tp103
Rp104
ag50
(g54
S'4gH\xe7\x84\x8a\xe5?'
p105
tp106
Rp107
ag50
(g54
S'\xe54^\x99\xb0\xcc\xe7?'
p108
tp109
Rp110
ag50
(g54
S'Z\xfb\x7f\x05\x92\xe1\xbb?'
p111
tp112
Rp113
ag50
(g54
S'\xedq\x8f\x04\xc9\x9f\xd2?'
p114
tp115
Rp116
ag50
(g54
S'p(\x1f\xaa\xd8\xc2\xc5?'
p117
tp118
Rp119
ag50
(g54
S'V\xc0|\xfa\x06\xff\xe8?'
p120
tp121
Rp122
ag50
(g54
S'Z\xfb\x7f\x05\x92\xe1\xbb?'
p123
tp124
Rp125
ag50
(g54
S'\xedq\x8f\x04\xc9\x9f\xd2?'
p126
tp127
Rp128
asS'sp'
p129
(lp130
(S'p0'
p131
I0
S'y'
p132
tp133
a(S'p1'
p134
I0
g132
tp135
a(g134
I0
S'x'
p136
tp137
a(g131
I0
g136
tp138
ag133
ag135
a(g134
I0
S't'
p139
tp140
a(g134
I0
g136
tp141
a(S'p2'
p142
I0
g136
tp143
a(g142
I0
g132
tp144
a(S'p3'
p145
I0
g132
tp146
a(g145
I0
g139
tp147
a(g145
I0
g139
tp148
a(g145
F1.5707963267948966
g139
tp149
a(g145
F1.5707963267948966
g136
tp150
a(g142
F1.5707963267948966
g136
tp151
a(g142
F1.5707963267948966
g132
tp152
a(g134
F1.5707963267948966
g132
tp153
a(g134
F1.5707963267948966
g136
tp154
a(g142
F1.5707963267948966
g136
tp155
ag152
a(g145
F1.5707963267948966
g132
tp156
a(g145
F1.5707963267948966
g136
tp157
a(S'p4'
p158
F1.5707963267948966
g136
tp159
asS's'
p160
(lp161
(g131
I0
g22
tp162
ag133
ag135
ag137
ag138
ag133
ag135
ag140
ag141
ag143
ag144
ag146
ag147
ag148
ag149
ag150
ag151
ag152
ag153
ag154
ag155
ag152
ag156
ag157
asS'ui'
p163
(lp164
S'hp'
p165
aS'ss'
p166
aS'hs'
p167
ag129
ag165
ag129
ag129
ag165
ag166
ag129
ag129
ag165
ag166
ag129
ag165
ag129
ag165
ag165
ag167
ag166
ag165
ag165
ag167
ag166
asS'um_before'
p168
(lp169
g129
ag165
ag167
ag129
ag165
ag129
ag165
ag165
ag166
ag129
ag129
ag165
ag166
ag129
ag165
ag129
ag166
ag166
ag167
ag166
ag165
ag165
ag167
ag166
asS'um_after'
p170
(lp171
g165
ag129
ag167
ag129
ag165
ag129
ag165
ag165
ag166
ag165
ag129
ag165
ag166
ag129
ag165
ag129
ag165
ag166
ag167
ag166
ag165
ag129
ag167
ag166
asS'is_normalized_entropy_less_than_threshold'
p172
(lp173
g50
(g51
(S'b1'
p174
I0
I1
tp175
Rp176
(I3
S'|'
p177
NNNI-1
I-1
I0
tp178
bS'\x01'
p179
tp180
Rp181
ag181
ag181
ag181
ag181
ag181
ag50
(g176
S'\x00'
p182
tp183
Rp184
ag181
ag181
ag181
ag181
ag181
ag181
ag181
ag181
ag181
ag181
ag181
ag181
ag181
ag181
ag181
ag181
ag181
asaa(lp185
S'index'
p186
aI54685
aatp187
Rp188
.