ccollections
OrderedDict
p0
((lp1
(lp2
S'combination_dict'
p3
ag0
((lp4
(lp5
S'r_to_g_config'
p6
aS'tl'
p7
aa(lp8
S'num_turns'
p9
aI3
aa(lp10
S'start_direction'
p11
acutils_ms
StartDirection
p12
(I0
tp13
Rp14
aa(lp15
S'assistance_type'
p16
acutils_ms
AssistanceType
p17
(I1
tp18
Rp19
aa(lp20
S'start_mode'
p21
aS'y'
p22
aa(lp23
S'ui_given_a_noise'
p24
aF0.7
aa(lp25
S'um_given_ui_noise'
p26
aF0.1
aa(lp27
S'entropy_threshold'
p28
aF0.6
aatp29
Rp30
aa(lp31
S'data'
p32
accollections
defaultdict
p33
(c__builtin__
list
p34
tp35
Rp36
S'a'
p37
(lp38
S'mode_l'
p39
aS'mode_r'
p40
ag40
ag40
ag40
aS'move_n'
p41
ag41
ag41
ag39
ag39
ag40
ag40
ag41
ag40
aS'move_p'
p42
ag39
ag42
ag39
ag42
ag39
ag41
ag40
ag40
ag40
ag40
ag41
ag40
ag39
ag42
ag40
ag40
ag42
ag39
ag41
ag39
ag40
ag42
ag39
ag42
ag40
ag42
ag40
ag42
ag39
ag40
ag39
ag42
ag39
ag39
ag39
ag40
ag42
asS'assistance_match_with_ground_truth'
p43
(lp44
I00
aI00
aI00
aI00
aI01
aI00
aI00
aI00
aI00
aI00
aI00
aI01
aI01
aI01
aI00
aI01
aI00
aI01
aI01
aI01
aI00
aI00
aI00
aI00
aI01
aI00
aI00
aI01
aI00
aI00
aI01
aI01
aI01
aI01
aI00
aI01
aI00
aI01
aI00
aI01
aI00
aI01
aI01
aI00
aI00
aI00
aI01
aI00
aI00
aI00
aI01
aI01
asS'is_u_intended_equals_um'
p45
(lp46
I01
aI01
aI01
aI01
aI01
aI01
aI01
aI01
aI01
aI01
aI01
aI01
aI01
aI01
aI01
aI01
aI01
aI01
aI01
aI01
aI01
aI01
aI01
aI01
aI01
aI01
aI01
aI01
aI01
aI01
aI01
aI01
aI01
aI01
aI01
aI01
aI01
aI01
aI01
aI01
aI01
aI01
aI01
aI01
aI01
aI01
aI01
aI01
aI01
aI01
aI01
aI01
asS'total_steps'
p47
I52
sS'normalized_h_of_p_ui_given_um'
p48
(lp49
cnumpy.core.multiarray
scalar
p50
(cnumpy
dtype
p51
(S'f8'
p52
I0
I1
tp53
Rp54
(I3
S'<'
p55
NNNI-1
I-1
I0
tp56
bS'\xad\xfb\xdc#\x8c"\xd3?'
p57
tp58
Rp59
ag50
(g54
S'\x82G\x10\xc4\x12\xc5\xd4?'
p60
tp61
Rp62
ag50
(g54
S'\x82G\x10\xc4\x12\xc5\xd4?'
p63
tp64
Rp65
ag50
(g54
S'\xa3\x99\xce\x91Tn\xdf?'
p66
tp67
Rp68
ag50
(g54
S'\x9f\xdf\xc4\x8d\x89\xda\xcb?'
p69
tp70
Rp71
ag50
(g54
S'\x10~\x8b|\n\x06\xd8?'
p72
tp73
Rp74
ag50
(g54
S'\x10~\x8b|\n\x06\xd8?'
p75
tp76
Rp77
ag50
(g54
S'v\xc4\xb3\xf0\xa6\xbc\xe7?'
p78
tp79
Rp80
ag50
(g54
S'\xb6\xb0\xf0O\x16\x95\xec?'
p81
tp82
Rp83
ag50
(g54
S'\xad\xfb\xdc#\x8c"\xd3?'
p84
tp85
Rp86
ag50
(g54
S'\x82G\x10\xc4\x12\xc5\xd4?'
p87
tp88
Rp89
ag50
(g54
S'\x9f\xdf\xc4\x8d\x89\xda\xcb?'
p90
tp91
Rp92
ag50
(g54
S'\x8dO\xef\xc4\xdc@\xc1?'
p93
tp94
Rp95
ag50
(g54
S'\x9f\xdf\xc4\x8d\x89\xda\xcb?'
p96
tp97
Rp98
ag50
(g54
S'BX\x80|z\x13\xe4?'
p99
tp100
Rp101
ag50
(g54
S'\x9c+-\x08A\x86\xcd?'
p102
tp103
Rp104
ag50
(g54
S'BX\x80|z\x13\xe4?'
p105
tp106
Rp107
ag50
(g54
S'\x9c+-\x08A\x86\xcd?'
p108
tp109
Rp110
ag50
(g54
S'\x1e\xfc\x1d\xd4\x15\xd8\xbb?'
p111
tp112
Rp113
ag50
(g54
S'\x9c+-\x08A\x86\xcd?'
p114
tp115
Rp116
ag50
(g54
S'\xb9slrX\x04\xe0?'
p117
tp118
Rp119
ag50
(g54
S'\x82G\x10\xc4\x12\xc5\xd4?'
p120
tp121
Rp122
ag50
(g54
S'\xa3\x99\xce\x91Tn\xdf?'
p123
tp124
Rp125
ag50
(g54
S'\x82G\x10\xc4\x12\xc5\xd4?'
p126
tp127
Rp128
ag50
(g54
S'\x9f\xdf\xc4\x8d\x89\xda\xcb?'
p129
tp130
Rp131
ag50
(g54
S'\x10~\x8b|\n\x06\xd8?'
p132
tp133
Rp134
ag50
(g54
S'\xdb\xe2\xc4g\n\xf9\xeb?'
p135
tp136
Rp137
ag50
(g54
S'\x9c+-\x08A\x86\xcd?'
p138
tp139
Rp140
ag50
(g54
S'g\xb0!j\x05P\xe2?'
p141
tp142
Rp143
ag50
(g54
S'\x82G\x10\xc4\x12\xc5\xd4?'
p144
tp145
Rp146
ag50
(g54
S'\x9f\xdf\xc4\x8d\x89\xda\xcb?'
p147
tp148
Rp149
ag50
(g54
S'\x1e\xfc\x1d\xd4\x15\xd8\xbb?'
p150
tp151
Rp152
ag50
(g54
S'\x9c+-\x08A\x86\xcd?'
p153
tp154
Rp155
ag50
(g54
S'\x8dO\xef\xc4\xdc@\xc1?'
p156
tp157
Rp158
ag50
(g54
S'\xad\xfb\xdc#\x8c"\xd3?'
p159
tp160
Rp161
ag50
(g54
S'\x9f\xdf\xc4\x8d\x89\xda\xcb?'
p162
tp163
Rp164
ag50
(g54
S'BX\x80|z\x13\xe4?'
p165
tp166
Rp167
ag50
(g54
S'\x9c+-\x08A\x86\xcd?'
p168
tp169
Rp170
ag50
(g54
S'g\xb0!j\x05P\xe2?'
p171
tp172
Rp173
ag50
(g54
S'\x9f\xdf\xc4\x8d\x89\xda\xcb?'
p174
tp175
Rp176
ag50
(g54
S'g\xb0!j\x05P\xe2?'
p177
tp178
Rp179
ag50
(g54
S'\x9f\xdf\xc4\x8d\x89\xda\xcb?'
p180
tp181
Rp182
ag50
(g54
S'\x1e\xfc\x1d\xd4\x15\xd8\xbb?'
p183
tp184
Rp185
ag50
(g54
S'\xad\xfb\xdc#\x8c"\xd3?'
p186
tp187
Rp188
ag50
(g54
S'\xdb\xe2\xc4g\n\xf9\xeb?'
p189
tp190
Rp191
ag50
(g54
S'\xb6\xb0\xf0O\x16\x95\xec?'
p192
tp193
Rp194
ag50
(g54
S'\x1e\xfc\x1d\xd4\x15\xd8\xbb?'
p195
tp196
Rp197
ag50
(g54
S'\xcaQ\xc7\xd5\xc5\x7f\xd9?'
p198
tp199
Rp200
ag50
(g54
S'\xcaQ\xc7\xd5\xc5\x7f\xd9?'
p201
tp202
Rp203
ag50
(g54
S'\xad\xfb\xdc#\x8c"\xd3?'
p204
tp205
Rp206
ag50
(g54
S'\x9f\xdf\xc4\x8d\x89\xda\xcb?'
p207
tp208
Rp209
ag50
(g54
S'\x1e\xfc\x1d\xd4\x15\xd8\xbb?'
p210
tp211
Rp212
asS'sp'
p213
(lp214
(S'p0'
p215
I0
S't'
p216
tp217
a(g215
I0
g216
tp218
ag218
a(g215
I0
g216
tp219
a(g215
I0
S'x'
p220
tp221
a(g215
I0
g220
tp222
ag222
a(g215
I0
S'y'
p223
tp224
a(g215
I0
g223
tp225
ag217
ag218
ag221
a(S'p1'
p226
I0
g220
tp227
a(g226
I0
g223
tp228
a(g226
I0
g216
tp229
a(g226
I0
g223
tp230
ag229
ag230
a(S'p2'
p231
I0
g223
tp232
a(g231
I0
g220
tp233
a(g231
I0
g216
tp234
a(g231
I0
g216
tp235
a(g231
I0
g216
tp236
ag235
a(g231
I0
g220
tp237
a(g226
I0
g220
tp238
a(g226
I0
g216
tp239
ag230
a(g226
I0
g220
tp240
a(g226
I0
g220
tp241
ag228
ag232
ag233
a(S'p3'
p242
I0
g220
tp243
a(g242
I0
g223
tp244
a(g242
I0
g216
tp245
a(g242
I0
g220
tp246
a(g242
I0
g216
tp247
a(g242
I0
g223
tp248
ag245
ag248
ag245
a(g242
F1.5707963267948966
g216
tp249
a(g242
F1.5707963267948966
g220
tp250
a(g242
F1.5707963267948966
g216
tp251
a(g242
I0
g216
tp252
ag249
a(g242
F1.5707963267948966
g216
tp253
ag253
ag250
a(g242
F1.5707963267948966
g223
tp254
a(S'p4'
p255
F1.5707963267948966
g223
tp256
asS's'
p257
(lp258
(g215
I0
g22
tp259
ag217
ag218
ag218
ag219
ag221
ag222
ag222
ag224
ag225
ag217
ag218
ag221
ag227
ag228
ag229
ag230
ag229
ag230
ag232
ag233
ag234
ag235
ag236
ag235
ag237
ag238
ag239
ag230
ag240
ag241
ag228
ag232
ag233
ag243
ag244
ag245
ag246
ag247
ag248
ag245
ag248
ag245
ag249
ag250
ag251
ag252
ag249
ag253
ag253
ag250
ag254
asS'ui'
p260
(lp261
S'hp'
p262
ag213
ag262
aS'ss'
p263
ag262
ag213
ag213
ag262
ag263
ag262
ag213
ag262
ag263
ag262
ag263
aS'hs'
p264
ag213
ag264
ag213
ag264
ag264
ag213
ag263
ag262
ag262
ag213
ag213
ag264
ag213
ag213
ag213
ag213
ag264
ag263
ag262
ag262
ag262
ag264
ag264
ag262
ag264
ag262
ag213
ag262
ag262
ag213
ag213
ag213
ag213
ag262
ag262
ag213
asS'um_before'
p265
(lp266
g262
ag213
ag213
ag263
ag262
ag213
ag213
ag262
ag263
ag262
ag213
ag262
ag263
ag262
ag262
ag264
ag262
ag264
ag213
ag264
ag264
ag213
ag263
ag213
ag262
ag213
ag264
ag264
ag264
ag213
ag262
ag213
ag264
ag263
ag262
ag262
ag262
ag264
ag264
ag262
ag264
ag262
ag213
ag262
ag264
ag263
ag213
ag213
ag213
ag262
ag262
ag213
asS'um_after'
p267
(lp268
g262
ag213
ag213
ag263
ag262
ag213
ag213
ag262
ag263
ag262
ag213
ag262
ag263
ag262
ag262
ag264
ag262
ag264
ag213
ag264
ag264
ag213
ag263
ag213
ag262
ag213
ag264
ag264
ag264
ag213
ag262
ag213
ag264
ag263
ag262
ag262
ag262
ag264
ag264
ag262
ag264
ag262
ag213
ag262
ag264
ag263
ag213
ag213
ag213
ag262
ag262
ag213
asS'is_normalized_entropy_less_than_threshold'
p269
(lp270
g50
(g51
(S'b1'
p271
I0
I1
tp272
Rp273
(I3
S'|'
p274
NNNI-1
I-1
I0
tp275
bS'\x01'
p276
tp277
Rp278
ag278
ag278
ag278
ag278
ag278
ag278
ag50
(g273
S'\x00'
p279
tp280
Rp281
ag281
ag278
ag278
ag278
ag278
ag278
ag281
ag278
ag281
ag278
ag278
ag278
ag278
ag278
ag278
ag278
ag278
ag278
ag281
ag278
ag278
ag278
ag278
ag278
ag278
ag278
ag278
ag278
ag281
ag278
ag278
ag278
ag278
ag278
ag278
ag278
ag281
ag281
ag278
ag278
ag278
ag278
ag278
ag278
asaa(lp282
S'index'
p283
aI51017
aatp284
Rp285
.