ccollections
OrderedDict
p0
((lp1
(lp2
S'combination_dict'
p3
ag0
((lp4
(lp5
S'r_to_g_config'
p6
aS'bl'
p7
aa(lp8
S'num_turns'
p9
aI3
aa(lp10
S'start_direction'
p11
acutils_ms
StartDirection
p12
(I1
tp13
Rp14
aa(lp15
S'assistance_type'
p16
acutils_ms
AssistanceType
p17
(I1
tp18
Rp19
aa(lp20
S'start_mode'
p21
aS't'
p22
aa(lp23
S'ui_given_a_noise'
p24
aF0.5
aa(lp25
S'um_given_ui_noise'
p26
aF0.1
aa(lp27
S'entropy_threshold'
p28
aF0.9
aatp29
Rp30
aa(lp31
S'data'
p32
accollections
defaultdict
p33
(c__builtin__
list
p34
tp35
Rp36
S'a'
p37
(lp38
S'mode_l'
p39
aS'mode_r'
p40
ag40
aS'move_n'
p41
ag40
ag41
ag41
ag39
ag40
ag41
ag40
ag40
ag40
ag41
ag40
ag41
ag39
ag41
ag40
ag39
ag39
ag41
ag40
ag41
ag40
ag41
ag40
aS'move_p'
p42
ag40
ag39
ag39
ag39
ag40
ag41
ag40
ag41
asS'assistance_match_with_ground_truth'
p43
(lp44
I00
aI00
aI01
aI00
aI01
aI00
aI01
aI00
aI01
aI00
aI00
aI00
aI01
aI00
aI01
aI01
aI01
aI01
aI00
aI00
aI01
aI00
aI01
aI00
aI01
aI01
aI01
aI01
aI00
aI00
aI00
aI00
aI01
aI00
aI01
aI01
asS'is_u_intended_equals_um'
p45
(lp46
I01
aI01
aI01
aI01
aI01
aI01
aI01
aI01
aI01
aI01
aI01
aI01
aI01
aI01
aI01
aI01
aI01
aI01
aI01
aI01
aI01
aI01
aI01
aI01
aI01
aI01
aI01
aI01
aI01
aI01
aI01
aI01
aI01
aI01
aI01
aI01
asS'total_steps'
p47
I36
sS'normalized_h_of_p_ui_given_um'
p48
(lp49
cnumpy.core.multiarray
scalar
p50
(cnumpy
dtype
p51
(S'f8'
p52
I0
I1
tp53
Rp54
(I3
S'<'
p55
NNNI-1
I-1
I0
tp56
bS'\x93\x89i\xe9\xb8d\xcb?'
p57
tp58
Rp59
ag50
(g54
S'5\x85\xbb EH\xe2?'
p60
tp61
Rp62
ag50
(g54
S'\x94@\xf8F\xda\xab\xb6?'
p63
tp64
Rp65
ag50
(g54
S'=\xd8T!\x7fd\xe0?'
p66
tp67
Rp68
ag50
(g54
S'\x94@\xf8F\xda\xab\xb6?'
p69
tp70
Rp71
ag50
(g54
S'\x8e\xf3<\x984=\xda?'
p72
tp73
Rp74
ag50
(g54
S'\xd2X\xc0c\xb2]\xbc?'
p75
tp76
Rp77
ag50
(g54
S'\x93\x89i\xe9\xb8d\xcb?'
p78
tp79
Rp80
ag50
(g54
S'\x94@\xf8F\xda\xab\xb6?'
p81
tp82
Rp83
ag50
(g54
S'\x8e\xf3<\x984=\xda?'
p84
tp85
Rp86
ag50
(g54
S'5\x85\xbb EH\xe2?'
p87
tp88
Rp89
ag50
(g54
S'5\x85\xbb EH\xe2?'
p90
tp91
Rp92
ag50
(g54
S'\x94@\xf8F\xda\xab\xb6?'
p93
tp94
Rp95
ag50
(g54
S'=\xd8T!\x7fd\xe0?'
p96
tp97
Rp98
ag50
(g54
S'\x94@\xf8F\xda\xab\xb6?'
p99
tp100
Rp101
ag50
(g54
S'\xd2X\xc0c\xb2]\xbc?'
p102
tp103
Rp104
ag50
(g54
S'\x8b\x18,>C\xf9\xc3?'
p105
tp106
Rp107
ag50
(g54
S'\xd2X\xc0c\xb2]\xbc?'
p108
tp109
Rp110
ag50
(g54
S'!\xecU\x01\xb6\x9a\xde?'
p111
tp112
Rp113
ag50
(g54
S'\x96"W^\x03\xdf\xdf?'
p114
tp115
Rp116
ag50
(g54
S'\x8b\x18,>C\xf9\xc3?'
p117
tp118
Rp119
ag50
(g54
S'=\xd8T!\x7fd\xe0?'
p120
tp121
Rp122
ag50
(g54
S'\x94@\xf8F\xda\xab\xb6?'
p123
tp124
Rp125
ag50
(g54
S'=\xd8T!\x7fd\xe0?'
p126
tp127
Rp128
ag50
(g54
S'\x94@\xf8F\xda\xab\xb6?'
p129
tp130
Rp131
ag50
(g54
S'\xd2X\xc0c\xb2]\xbc?'
p132
tp133
Rp134
ag50
(g54
S'\x94@\xf8F\xda\xab\xb6?'
p135
tp136
Rp137
ag50
(g54
S'c\x01\xc4\x15\x190\xb4?'
p138
tp139
Rp140
ag50
(g54
S'!\xecU\x01\xb6\x9a\xde?'
p141
tp142
Rp143
ag50
(g54
S'\x96"W^\x03\xdf\xdf?'
p144
tp145
Rp146
ag50
(g54
S'\x96"W^\x03\xdf\xdf?'
p147
tp148
Rp149
ag50
(g54
S'\x93\x89i\xe9\xb8d\xcb?'
p150
tp151
Rp152
ag50
(g54
S'\x94@\xf8F\xda\xab\xb6?'
p153
tp154
Rp155
ag50
(g54
S'=\xd8T!\x7fd\xe0?'
p156
tp157
Rp158
ag50
(g54
S'\x94@\xf8F\xda\xab\xb6?'
p159
tp160
Rp161
ag50
(g54
S'\xd2X\xc0c\xb2]\xbc?'
p162
tp163
Rp164
asS'sp'
p165
(lp166
(S'p0'
p167
I0
S'x'
p168
tp169
a(g167
I0
g168
tp170
a(g167
I0
S'y'
p171
tp172
a(g167
I0
g168
tp173
ag172
a(g167
I0
g171
tp174
a(S'p1'
p175
I0
g171
tp176
a(g175
I0
S't'
p177
tp178
a(g175
I0
g168
tp179
a(g167
I0
g168
tp180
ag170
ag170
ag172
ag173
ag172
ag176
a(g175
I0
g168
tp181
a(S'p2'
p182
I0
g168
tp183
a(g182
I0
g177
tp184
a(g182
I0
g177
tp185
a(g182
I0
g171
tp186
a(g182
I0
g168
tp187
a(g182
I0
g171
tp188
ag187
ag188
a(S'p3'
p189
I0
g171
tp190
a(g189
I0
g177
tp191
a(g189
F1.5707963267948966
g177
tp192
a(g189
F1.5707963267948966
g171
tp193
a(g189
F1.5707963267948966
g171
tp194
ag194
a(g189
F1.5707963267948966
g177
tp195
a(g189
F1.5707963267948966
g168
tp196
a(g189
F1.5707963267948966
g177
tp197
ag196
a(S'p4'
p198
F1.5707963267948966
g168
tp199
asS's'
p200
(lp201
(g167
I0
g22
tp202
ag169
ag170
ag172
ag173
ag172
ag174
ag176
ag178
ag179
ag180
ag170
ag170
ag172
ag173
ag172
ag176
ag181
ag183
ag184
ag185
ag186
ag187
ag188
ag187
ag188
ag190
ag191
ag192
ag193
ag194
ag194
ag195
ag196
ag197
ag196
asS'ui'
p203
(lp204
S'hp'
p205
ag165
ag205
aS'hs'
p206
ag205
aS'ss'
p207
ag207
ag205
ag205
ag165
ag205
ag165
ag205
ag206
ag205
ag207
ag206
ag207
ag206
ag165
ag206
ag206
ag205
ag206
ag205
ag207
ag205
ag165
ag206
ag165
ag206
ag205
ag205
ag207
ag205
ag207
asS'um_before'
p208
(lp209
g205
ag165
ag205
ag206
ag205
ag165
ag207
ag205
ag205
ag165
ag165
ag165
ag205
ag206
ag205
ag207
ag206
ag207
ag206
ag165
ag206
ag206
ag205
ag206
ag205
ag207
ag205
ag165
ag206
ag165
ag165
ag205
ag205
ag206
ag205
ag207
asS'um_after'
p210
(lp211
g205
ag165
ag205
ag206
ag205
ag165
ag207
ag205
ag205
ag165
ag165
ag165
ag205
ag206
ag205
ag207
ag206
ag207
ag206
ag165
ag206
ag206
ag205
ag206
ag205
ag207
ag205
ag165
ag206
ag165
ag165
ag205
ag205
ag206
ag205
ag207
asS'is_normalized_entropy_less_than_threshold'
p212
(lp213
g50
(g51
(S'b1'
p214
I0
I1
tp215
Rp216
(I3
S'|'
p217
NNNI-1
I-1
I0
tp218
bS'\x01'
p219
tp220
Rp221
ag221
ag221
ag221
ag221
ag221
ag221
ag221
ag221
ag221
ag221
ag221
ag221
ag221
ag221
ag221
ag221
ag221
ag221
ag221
ag221
ag221
ag221
ag221
ag221
ag221
ag221
ag221
ag221
ag221
ag221
ag221
ag221
ag221
ag221
ag221
asaa(lp222
S'index'
p223
aI84443
aatp224
Rp225
.