ccollections
OrderedDict
p0
((lp1
(lp2
S'combination_dict'
p3
ag0
((lp4
(lp5
S'r_to_g_config'
p6
aS'bl'
p7
aa(lp8
S'num_turns'
p9
aI1
aa(lp10
S'start_direction'
p11
acutils_ms
StartDirection
p12
(I1
tp13
Rp14
aa(lp15
S'assistance_type'
p16
acutils_ms
AssistanceType
p17
(I1
tp18
Rp19
aa(lp20
S'start_mode'
p21
aS't'
p22
aa(lp23
S'ui_given_a_noise'
p24
aF0.7
aa(lp25
S'um_given_ui_noise'
p26
aF0.3
aa(lp27
S'entropy_threshold'
p28
aF0.7
aatp29
Rp30
aa(lp31
S'data'
p32
accollections
defaultdict
p33
(c__builtin__
list
p34
tp35
Rp36
S'a'
p37
(lp38
S'mode_l'
p39
aS'mode_r'
p40
ag39
ag40
ag40
aS'move_n'
p41
ag40
ag40
ag40
ag40
ag40
ag40
aS'move_p'
p42
ag40
ag39
ag41
ag39
ag41
asS'assistance_match_with_ground_truth'
p43
(lp44
I00
aI00
aI00
aI00
aI01
aI01
aI00
aI00
aI00
aI00
aI00
aI01
aI01
aI00
aI01
aI00
aI01
aI01
asS'is_u_intended_equals_um'
p45
(lp46
I01
aI00
aI01
aI00
aI01
aI01
aI00
aI00
aI00
aI01
aI01
aI01
aI01
aI00
aI01
aI00
aI01
aI01
asS'total_steps'
p47
I18
sS'normalized_h_of_p_ui_given_um'
p48
(lp49
cnumpy.core.multiarray
scalar
p50
(cnumpy
dtype
p51
(S'f8'
p52
I0
I1
tp53
Rp54
(I3
S'<'
p55
NNNI-1
I-1
I0
tp56
bS'\xbb\x11D\x8di\xbc\xe3?'
p57
tp58
Rp59
ag50
(g54
S'\xeb\xdb5W\x12N\xe8?'
p60
tp61
Rp62
ag50
(g54
S'\xbb\x11D\x8di\xbc\xe3?'
p63
tp64
Rp65
ag50
(g54
S'>\x14\xb0!\xf6Q\xea?'
p66
tp67
Rp68
ag50
(g54
S'\x95S\x94\xc1\x81\xed\xd8?'
p69
tp70
Rp71
ag50
(g54
S'ZC{\xc5\x82\xe1\xd7?'
p72
tp73
Rp74
ag50
(g54
S'>\x14\xb0!\xf6Q\xea?'
p75
tp76
Rp77
ag50
(g54
S'>\x14\xb0!\xf6Q\xea?'
p78
tp79
Rp80
ag50
(g54
S'>\x14\xb0!\xf6Q\xea?'
p81
tp82
Rp83
ag50
(g54
S'\x1f\x8dA\x87\x8d\xcc\xe1?'
p84
tp85
Rp86
ag50
(g54
S'\x1f\x8dA\x87\x8d\xcc\xe1?'
p87
tp88
Rp89
ag50
(g54
S'\x95S\x94\xc1\x81\xed\xd8?'
p90
tp91
Rp92
ag50
(g54
S'q\xe98;K\xbf\xd9?'
p93
tp94
Rp95
ag50
(g54
S'\xeb\xdb5W\x12N\xe8?'
p96
tp97
Rp98
ag50
(g54
S'\xfa\xb1\xb6\xef)+\xd3?'
p99
tp100
Rp101
ag50
(g54
S'\xc1\xb0*\x95\t\xe3\xe9?'
p102
tp103
Rp104
ag50
(g54
S'\xfa\xb1\xb6\xef)+\xd3?'
p105
tp106
Rp107
ag50
(g54
S'ZC{\xc5\x82\xe1\xd7?'
p108
tp109
Rp110
asS'sp'
p111
(lp112
(S'p0'
p113
I0
S'x'
p114
tp115
a(g113
I0
S't'
p116
tp117
ag115
a(g113
I0
g114
tp118
a(g113
I0
S'y'
p119
tp120
a(S'p1'
p121
I0
g119
tp122
a(g121
I0
g119
tp123
ag123
ag123
a(g121
I0
g119
tp124
ag124
a(g121
I0
g116
tp125
a(g121
F1.5707963267948966
g116
tp126
a(g121
F1.5707963267948966
g119
tp127
a(g121
F1.5707963267948966
g114
tp128
a(g121
F1.5707963267948966
g119
tp129
ag128
a(S'p2'
p130
F1.5707963267948966
g114
tp131
asS's'
p132
(lp133
(g113
I0
g22
tp134
ag115
ag117
ag115
ag118
ag120
ag122
ag123
ag123
ag123
ag124
ag124
ag125
ag126
ag127
ag128
ag129
ag128
asS'ui'
p135
(lp136
S'hp'
p137
ag137
aS'hs'
p138
ag137
ag137
aS'ss'
p139
ag111
ag139
ag137
ag137
ag111
ag111
ag111
ag138
ag138
ag137
ag138
ag139
asS'um_before'
p140
(lp141
g137
ag138
ag137
ag139
ag137
ag139
ag139
ag139
ag139
ag111
ag111
ag137
ag111
ag138
ag138
ag137
ag138
ag139
asS'um_after'
p142
(lp143
g137
ag138
ag137
ag139
ag137
ag139
ag139
ag139
ag139
ag111
ag111
ag137
ag111
ag138
ag138
ag137
ag138
ag139
asS'is_normalized_entropy_less_than_threshold'
p144
(lp145
g50
(g51
(S'b1'
p146
I0
I1
tp147
Rp148
(I3
S'|'
p149
NNNI-1
I-1
I0
tp150
bS'\x01'
p151
tp152
Rp153
ag50
(g148
S'\x00'
p154
tp155
Rp156
ag153
ag156
ag153
ag153
ag156
ag156
ag156
ag153
ag153
ag153
ag153
ag156
ag153
ag156
ag153
ag153
asaa(lp157
S'index'
p158
aI65474
aatp159
Rp160
.