ccollections
OrderedDict
p0
((lp1
(lp2
S'combination_dict'
p3
ag0
((lp4
(lp5
S'r_to_g_config'
p6
aS'bl'
p7
aa(lp8
S'num_turns'
p9
aI3
aa(lp10
S'start_direction'
p11
acutils_ms
StartDirection
p12
(I1
tp13
Rp14
aa(lp15
S'assistance_type'
p16
acutils_ms
AssistanceType
p17
(I0
tp18
Rp19
aa(lp20
S'start_mode'
p21
aS'x'
p22
aa(lp23
S'ui_given_a_noise'
p24
aF0.7
aa(lp25
S'um_given_ui_noise'
p26
aF0.1
aa(lp27
S'entropy_threshold'
p28
aF0.6
aatp29
Rp30
aa(lp31
S'data'
p32
accollections
defaultdict
p33
(c__builtin__
list
p34
tp35
Rp36
S'a'
p37
(lp38
S'mode_r'
p39
aS'mode_l'
p40
ag40
aS'move_n'
p41
ag41
ag40
ag40
ag41
ag39
ag41
ag40
ag41
ag39
ag40
ag40
ag41
ag40
ag41
ag40
ag40
ag40
ag40
ag39
ag41
ag40
ag41
ag39
aS'move_p'
p42
ag39
ag42
ag42
ag39
ag40
ag41
asS'assistance_match_with_ground_truth'
p43
(lp44
I00
aI00
aI01
aI00
aI01
aI00
aI01
aI01
aI01
aI00
aI01
aI01
aI00
aI00
aI01
aI00
aI01
aI00
aI00
aI00
aI00
aI00
aI01
aI00
aI01
aI01
aI01
aI01
aI00
aI00
aI01
aI00
aI01
aI01
asS'is_u_intended_equals_um'
p45
(lp46
I01
aI01
aI01
aI01
aI01
aI01
aI01
aI01
aI01
aI01
aI01
aI01
aI01
aI01
aI01
aI01
aI01
aI01
aI01
aI01
aI01
aI01
aI01
aI01
aI01
aI01
aI01
aI01
aI01
aI01
aI01
aI01
aI01
aI01
asS'total_steps'
p47
I34
sS'normalized_h_of_p_ui_given_um'
p48
(lp49
cnumpy.core.multiarray
scalar
p50
(cnumpy
dtype
p51
(S'f8'
p52
I0
I1
tp53
Rp54
(I3
S'<'
p55
NNNI-1
I-1
I0
tp56
bS'\x15T\xeck\xec\x82\xc4?'
p57
tp58
Rp59
ag50
(g54
S'\ta\xf5\xa7\x10\x96\xe0?'
p60
tp61
Rp62
ag50
(g54
S'L\xa0\x17EZ\xf5\xc2?'
p63
tp64
Rp65
ag50
(g54
S'~<\xf6R\xb3#\xd5?'
p66
tp67
Rp68
ag50
(g54
S'\xa8\xa2PM#\x8b\xd4?'
p69
tp70
Rp71
ag50
(g54
S'\ta\xf5\xa7\x10\x96\xe0?'
p72
tp73
Rp74
ag50
(g54
S'L\xa0\x17EZ\xf5\xc2?'
p75
tp76
Rp77
ag50
(g54
S'\xa8\xa2PM#\x8b\xd4?'
p78
tp79
Rp80
ag50
(g54
S'\xa7\xa8\xab}u\xaf\xc3?'
p81
tp82
Rp83
ag50
(g54
S'~<\xf6R\xb3#\xd5?'
p84
tp85
Rp86
ag50
(g54
S'L\xa0\x17EZ\xf5\xc2?'
p87
tp88
Rp89
ag50
(g54
S'\xa8\xa2PM#\x8b\xd4?'
p90
tp91
Rp92
ag50
(g54
S'\x15T\xeck\xec\x82\xc4?'
p93
tp94
Rp95
ag50
(g54
S'\ta\xf5\xa7\x10\x96\xe0?'
p96
tp97
Rp98
ag50
(g54
S'L\xa0\x17EZ\xf5\xc2?'
p99
tp100
Rp101
ag50
(g54
S'\xe4\xd9\xdd\x84\xa6 \xd3?'
p102
tp103
Rp104
ag50
(g54
S'L\xa0\x17EZ\xf5\xc2?'
p105
tp106
Rp107
ag50
(g54
S'\xe4\xd9\xdd\x84\xa6 \xd3?'
p108
tp109
Rp110
ag50
(g54
S'\ta\xf5\xa7\x10\x96\xe0?'
p111
tp112
Rp113
ag50
(g54
S'\ta\xf5\xa7\x10\x96\xe0?'
p114
tp115
Rp116
ag50
(g54
S'\ta\xf5\xa7\x10\x96\xe0?'
p117
tp118
Rp119
ag50
(g54
S'\x9c\t\xb7\xd8@\xd4\xd3?'
p120
tp121
Rp122
ag50
(g54
S'\xa7\xa8\xab}u\xaf\xc3?'
p123
tp124
Rp125
ag50
(g54
S'\xe4\xd9\xdd\x84\xa6 \xd3?'
p126
tp127
Rp128
ag50
(g54
S'L\xa0\x17EZ\xf5\xc2?'
p129
tp130
Rp131
ag50
(g54
S'\xa8\xa2PM#\x8b\xd4?'
p132
tp133
Rp134
ag50
(g54
S'\xa7\xa8\xab}u\xaf\xc3?'
p135
tp136
Rp137
ag50
(g54
S'K}\x0c5l\xbf\xaf?'
p138
tp139
Rp140
ag50
(g54
S'VIQ\xe9\x14\x06\xeb?'
p141
tp142
Rp143
ag50
(g54
S'R\xa9)Le\n\xde?'
p144
tp145
Rp146
ag50
(g54
S'K}\x0c5l\xbf\xaf?'
p147
tp148
Rp149
ag50
(g54
S'\x15T\xeck\xec\x82\xc4?'
p150
tp151
Rp152
ag50
(g54
S'L\xa0\x17EZ\xf5\xc2?'
p153
tp154
Rp155
ag50
(g54
S'\xa8\xa2PM#\x8b\xd4?'
p156
tp157
Rp158
asS'sp'
p159
(lp160
(S'p0'
p161
I0
S't'
p162
tp163
a(g161
I0
g162
tp164
a(g161
I0
S'y'
p165
tp166
a(g161
I0
g165
tp167
a(S'p1'
p168
I0
g165
tp169
a(g168
I0
g165
tp170
a(g168
I0
S'x'
p171
tp172
a(S'p2'
p173
I0
g171
tp174
a(g173
I0
g165
tp175
a(g168
I0
g165
tp176
ag172
ag174
a(g173
I0
g162
tp177
a(g173
I0
g162
tp178
a(g173
I0
g165
tp179
a(g173
I0
g162
tp180
ag179
ag180
ag178
ag178
ag178
a(g173
I0
g171
tp181
ag175
ag180
ag179
a(S'p3'
p182
I0
g165
tp183
a(g182
I0
g162
tp184
a(g182
F1.5707963267948966
g162
tp185
a(g182
I0
g162
tp186
a(g182
I0
g162
tp187
ag185
a(g182
F1.5707963267948966
g165
tp188
a(g182
F1.5707963267948966
g171
tp189
a(S'p4'
p190
F1.5707963267948966
g171
tp191
asS's'
p192
(lp193
(g161
I0
g22
tp194
ag163
ag164
ag166
ag167
ag169
ag170
ag172
ag174
ag175
ag176
ag172
ag174
ag177
ag178
ag179
ag180
ag179
ag180
ag178
ag178
ag178
ag181
ag175
ag180
ag179
ag183
ag184
ag185
ag186
ag187
ag185
ag188
ag189
asS'ui'
p195
(lp196
S'hs'
p197
ag197
ag197
ag159
aS'ss'
p198
ag198
ag197
ag198
aS'hp'
p199
ag159
ag197
ag197
ag197
ag198
ag197
ag199
ag197
ag199
ag198
ag198
ag198
ag199
ag199
ag199
ag197
ag198
ag197
ag159
ag197
ag198
ag159
ag197
ag197
ag198
asS'um_before'
p200
(lp201
g197
ag198
ag197
ag159
ag198
ag198
ag197
ag198
ag199
ag159
ag197
ag198
ag197
ag198
ag197
ag199
ag197
ag199
ag198
ag198
ag198
ag199
ag199
ag199
ag197
ag198
ag199
ag159
ag198
ag198
ag159
ag197
ag197
ag198
asS'um_after'
p202
(lp203
g197
ag198
ag197
ag159
ag198
ag198
ag197
ag198
ag199
ag159
ag197
ag198
ag197
ag198
ag197
ag199
ag197
ag199
ag198
ag198
ag198
ag199
ag199
ag199
ag197
ag198
ag199
ag159
ag198
ag198
ag159
ag197
ag197
ag198
asS'is_normalized_entropy_less_than_threshold'
p204
(lp205
g50
(g51
(S'b1'
p206
I0
I1
tp207
Rp208
(I3
S'|'
p209
NNNI-1
I-1
I0
tp210
bS'\x01'
p211
tp212
Rp213
ag213
ag213
ag213
ag213
ag213
ag213
ag213
ag213
ag213
ag213
ag213
ag213
ag213
ag213
ag213
ag213
ag213
ag213
ag213
ag213
ag213
ag213
ag213
ag213
ag213
ag213
ag213
ag50
(g208
S'\x00'
p214
tp215
Rp216
ag213
ag213
ag213
ag213
ag213
asaa(lp217
S'index'
p218
aI82210
aatp219
Rp220
.