ccollections
OrderedDict
p0
((lp1
(lp2
S'combination_dict'
p3
ag0
((lp4
(lp5
S'r_to_g_config'
p6
aS'tr'
p7
aa(lp8
S'num_turns'
p9
aI2
aa(lp10
S'start_direction'
p11
acutils_ms
StartDirection
p12
(I0
tp13
Rp14
aa(lp15
S'assistance_type'
p16
acutils_ms
AssistanceType
p17
(I1
tp18
Rp19
aa(lp20
S'start_mode'
p21
aS'y'
p22
aa(lp23
S'ui_given_a_noise'
p24
aF0.7
aa(lp25
S'um_given_ui_noise'
p26
aF0.1
aa(lp27
S'entropy_threshold'
p28
aF0.7
aatp29
Rp30
aa(lp31
S'data'
p32
accollections
defaultdict
p33
(c__builtin__
list
p34
tp35
Rp36
S'a'
p37
(lp38
S'mode_l'
p39
aS'mode_r'
p40
ag39
ag39
ag39
ag39
ag39
ag40
ag40
ag40
ag39
aS'move_p'
p41
ag41
ag41
ag41
ag40
ag40
ag40
ag39
ag40
ag39
ag40
ag40
ag39
ag39
ag40
ag40
ag41
ag39
ag41
ag40
ag39
ag40
ag39
ag40
ag40
ag41
ag40
ag40
ag39
ag39
ag41
ag39
ag39
ag41
ag40
ag41
ag40
ag39
ag41
ag40
ag40
ag39
ag41
ag40
ag41
ag40
ag41
asS'assistance_match_with_ground_truth'
p42
(lp43
I00
aI00
aI00
aI00
aI00
aI00
aI00
aI00
aI00
aI00
aI01
aI00
aI00
aI00
aI01
aI00
aI00
aI00
aI00
aI00
aI00
aI00
aI00
aI00
aI00
aI00
aI01
aI00
aI01
aI00
aI00
aI00
aI00
aI00
aI00
aI01
aI01
aI00
aI00
aI00
aI01
aI00
aI00
aI01
aI01
aI01
aI01
aI00
aI01
aI01
aI00
aI00
aI01
aI00
aI01
aI00
aI01
aI01
asS'is_u_intended_equals_um'
p44
(lp45
I01
aI01
aI01
aI00
aI00
aI01
aI01
aI01
aI00
aI01
aI01
aI01
aI01
aI01
aI01
aI01
aI01
aI01
aI01
aI01
aI01
aI01
aI01
aI00
aI01
aI01
aI01
aI01
aI01
aI01
aI01
aI01
aI01
aI01
aI01
aI01
aI01
aI01
aI01
aI01
aI01
aI01
aI01
aI01
aI01
aI01
aI01
aI01
aI01
aI01
aI00
aI01
aI01
aI01
aI01
aI01
aI01
aI01
asS'total_steps'
p46
I58
sS'normalized_h_of_p_ui_given_um'
p47
(lp48
cnumpy.core.multiarray
scalar
p49
(cnumpy
dtype
p50
(S'f8'
p51
I0
I1
tp52
Rp53
(I3
S'<'
p54
NNNI-1
I-1
I0
tp55
bS'\xd6\xcc\xd2\xe2\x00\x17\xcd?'
p56
tp57
Rp58
ag49
(g53
S'\xc4i\xc3\x166\xe3\xd6?'
p59
tp60
Rp61
ag49
(g53
S'\xe6-\x13\x93,i\xce?'
p62
tp63
Rp64
ag49
(g53
S'f\xa7vP\x00{\xec?'
p65
tp66
Rp67
ag49
(g53
S'f\xa7vP\x00{\xec?'
p68
tp69
Rp70
ag49
(g53
S'\xe6-\x13\x93,i\xce?'
p71
tp72
Rp73
ag49
(g53
S'\xd6\xcc\xd2\xe2\x00\x17\xcd?'
p74
tp75
Rp76
ag49
(g53
S'\xce_\x8d\x93|7\xd4?'
p77
tp78
Rp79
ag49
(g53
S'\xd6:\xb8\\\xc8,\xee?'
p80
tp81
Rp82
ag49
(g53
S'\xc4i\xc3\x166\xe3\xd6?'
p83
tp84
Rp85
ag49
(g53
S'\xc9\xfc\xfe\xa7[\x84\xce?'
p86
tp87
Rp88
ag49
(g53
S'\x8e\x8c}\x93\xed\xa8\xda?'
p89
tp90
Rp91
ag49
(g53
S'\x8e\x8c}\x93\xed\xa8\xda?'
p92
tp93
Rp94
ag49
(g53
S'\x8e\x8c}\x93\xed\xa8\xda?'
p95
tp96
Rp97
ag49
(g53
S'v\xd4\x90D\x01\xb3\xc4?'
p98
tp99
Rp100
ag49
(g53
S'\xce_\x8d\x93|7\xd4?'
p101
tp102
Rp103
ag49
(g53
S'\xce_\x8d\x93|7\xd4?'
p104
tp105
Rp106
ag49
(g53
S'\xc4i\xc3\x166\xe3\xd6?'
p107
tp108
Rp109
ag49
(g53
S'\xd6\xcc\xd2\xe2\x00\x17\xcd?'
p110
tp111
Rp112
ag49
(g53
S'\xc4i\xc3\x166\xe3\xd6?'
p113
tp114
Rp115
ag49
(g53
S'\xd6\xcc\xd2\xe2\x00\x17\xcd?'
p116
tp117
Rp118
ag49
(g53
S'\xce_\x8d\x93|7\xd4?'
p119
tp120
Rp121
ag49
(g53
S'\xc4i\xc3\x166\xe3\xd6?'
p122
tp123
Rp124
ag49
(g53
S'f\xa7vP\x00{\xec?'
p125
tp126
Rp127
ag49
(g53
S'\xd6\xcc\xd2\xe2\x00\x17\xcd?'
p128
tp129
Rp130
ag49
(g53
S'\xce_\x8d\x93|7\xd4?'
p131
tp132
Rp133
ag49
(g53
S's\xb5\xf4\xf3\x1a#\xbe?'
p134
tp135
Rp136
ag49
(g53
S'\x8e\x8c}\x93\xed\xa8\xda?'
p137
tp138
Rp139
ag49
(g53
S'\xc9\xfc\xfe\xa7[\x84\xce?'
p140
tp141
Rp142
ag49
(g53
S"\\+w\x1e'N\xe1?"
p143
tp144
Rp145
ag49
(g53
S'\xc4i\xc3\x166\xe3\xd6?'
p146
tp147
Rp148
ag49
(g53
S'\xd6\xcc\xd2\xe2\x00\x17\xcd?'
p149
tp150
Rp151
ag49
(g53
S'\xc4i\xc3\x166\xe3\xd6?'
p152
tp153
Rp154
ag49
(g53
S'\xd6\xcc\xd2\xe2\x00\x17\xcd?'
p155
tp156
Rp157
ag49
(g53
S'\xce_\x8d\x93|7\xd4?'
p158
tp159
Rp160
ag49
(g53
S's\xb5\xf4\xf3\x1a#\xbe?'
p161
tp162
Rp163
ag49
(g53
S'v\xd4\x90D\x01\xb3\xc4?'
p164
tp165
Rp166
ag49
(g53
S'\xce_\x8d\x93|7\xd4?'
p167
tp168
Rp169
ag49
(g53
S'\xc4i\xc3\x166\xe3\xd6?'
p170
tp171
Rp172
ag49
(g53
S'\xe6-\x13\x93,i\xce?'
p173
tp174
Rp175
ag49
(g53
S'\xc9\xfc\xfe\xa7[\x84\xce?'
p176
tp177
Rp178
ag49
(g53
S'\x8e\x8c}\x93\xed\xa8\xda?'
p179
tp180
Rp181
ag49
(g53
S'\xe6-\x13\x93,i\xce?'
p182
tp183
Rp184
ag49
(g53
S'\xc9\xfc\xfe\xa7[\x84\xce?'
p185
tp186
Rp187
ag49
(g53
S'v\xd4\x90D\x01\xb3\xc4?'
p188
tp189
Rp190
ag49
(g53
S's\xb5\xf4\xf3\x1a#\xbe?'
p191
tp192
Rp193
ag49
(g53
S'v\xd4\x90D\x01\xb3\xc4?'
p194
tp195
Rp196
ag49
(g53
S'\xc4i\xc3\x166\xe3\xd6?'
p197
tp198
Rp199
ag49
(g53
S'\xc9\xfc\xfe\xa7[\x84\xce?'
p200
tp201
Rp202
ag49
(g53
S'v\xd4\x90D\x01\xb3\xc4?'
p203
tp204
Rp205
ag49
(g53
S'\xd6:\xb8\\\xc8,\xee?'
p206
tp207
Rp208
ag49
(g53
S'\xc4i\xc3\x166\xe3\xd6?'
p209
tp210
Rp211
ag49
(g53
S'\xc9\xfc\xfe\xa7[\x84\xce?'
p212
tp213
Rp214
ag49
(g53
S"\\+w\x1e'N\xe1?"
p215
tp216
Rp217
ag49
(g53
S's\xb5\xf4\xf3\x1a#\xbe?'
p218
tp219
Rp220
ag49
(g53
S"\\+w\x1e'N\xe1?"
p221
tp222
Rp223
ag49
(g53
S's\xb5\xf4\xf3\x1a#\xbe?'
p224
tp225
Rp226
ag49
(g53
S'v\xd4\x90D\x01\xb3\xc4?'
p227
tp228
Rp229
asS'sp'
p230
(lp231
(S'p0'
p232
I0
S't'
p233
tp234
a(g232
I0
S'y'
p235
tp236
a(g232
I0
g235
tp237
a(g232
I0
g235
tp238
ag238
ag237
ag234
a(g232
I0
g233
tp239
a(g232
I0
g233
tp240
ag236
a(g232
I0
S'x'
p241
tp242
a(g232
I0
g241
tp243
ag243
ag243
a(S'p1'
p244
I0
g241
tp245
a(g244
I0
g241
tp246
ag246
a(g244
I0
g233
tp247
a(g244
I0
g241
tp248
ag247
ag248
ag246
ag247
a(g244
I0
g233
tp249
ag248
ag246
a(g244
I0
g235
tp250
a(g232
I0
g235
tp251
ag242
a(g232
I0
g233
tp252
ag236
ag234
ag236
ag234
ag239
a(g232
I0
g241
tp253
ag245
ag246
ag247
a(g244
I0
g233
tp254
a(g244
I0
g235
tp255
ag251
ag237
ag242
ag245
ag250
a(S'p2'
p256
I0
g235
tp257
a(g256
I0
g241
tp258
a(g256
I0
g233
tp259
a(g256
F1.5707963267948966
g233
tp260
a(g256
F1.5707963267948966
g233
tp261
a(g256
F1.5707963267948966
g235
tp262
a(g256
F1.5707963267948966
g241
tp263
a(g256
F1.5707963267948966
g233
tp264
a(g256
F1.5707963267948966
g241
tp265
ag264
ag265
a(S'p3'
p266
F1.5707963267948966
g241
tp267
asS's'
p268
(lp269
(g232
I0
g22
tp270
ag234
ag236
ag237
ag238
ag238
ag237
ag234
ag239
ag240
ag236
ag242
ag243
ag243
ag243
ag245
ag246
ag246
ag247
ag248
ag247
ag248
ag246
ag247
ag249
ag248
ag246
ag250
ag251
ag242
ag252
ag236
ag234
ag236
ag234
ag239
ag253
ag245
ag246
ag247
ag254
ag255
ag251
ag237
ag242
ag245
ag250
ag257
ag258
ag259
ag260
ag261
ag262
ag263
ag264
ag265
ag264
ag265
asS'ui'
p271
(lp272
S'hp'
p273
aS'hs'
p274
aS'ss'
p275
ag273
ag275
ag275
ag273
ag275
ag230
ag274
ag274
ag275
ag275
ag230
ag230
ag275
ag275
ag273
ag273
ag274
ag273
ag275
ag274
ag230
ag274
ag275
ag273
ag275
ag274
ag274
ag274
ag273
ag274
ag274
ag275
ag273
ag230
ag275
ag274
ag273
ag274
ag275
ag275
ag274
ag230
ag273
ag230
ag274
ag274
ag230
ag274
ag274
ag274
ag230
ag273
ag274
ag273
ag230
asS'um_before'
p276
(lp277
g273
ag274
ag275
ag230
ag230
ag275
ag273
ag275
ag230
ag274
ag274
ag275
ag275
ag275
ag230
ag275
ag275
ag274
ag273
ag274
ag273
ag275
ag274
ag230
ag273
ag275
ag273
ag275
ag274
ag274
ag274
ag273
ag274
ag273
ag275
ag273
ag230
ag275
ag274
ag275
ag274
ag275
ag275
ag274
ag230
ag273
ag230
ag274
ag274
ag230
ag230
ag274
ag274
ag274
ag273
ag274
ag273
ag230
asS'um_after'
p278
(lp279
g273
ag274
ag275
ag230
ag230
ag275
ag273
ag275
ag230
ag274
ag274
ag275
ag275
ag275
ag230
ag275
ag275
ag274
ag273
ag274
ag273
ag275
ag274
ag230
ag273
ag275
ag273
ag275
ag274
ag274
ag274
ag273
ag274
ag273
ag275
ag273
ag230
ag275
ag274
ag275
ag274
ag275
ag275
ag274
ag230
ag273
ag230
ag274
ag274
ag230
ag230
ag274
ag274
ag274
ag273
ag274
ag273
ag230
asS'is_normalized_entropy_less_than_threshold'
p280
(lp281
g49
(g50
(S'b1'
p282
I0
I1
tp283
Rp284
(I3
S'|'
p285
NNNI-1
I-1
I0
tp286
bS'\x01'
p287
tp288
Rp289
ag289
ag289
ag49
(g284
S'\x00'
p290
tp291
Rp292
ag292
ag289
ag289
ag289
ag292
ag289
ag289
ag289
ag289
ag289
ag289
ag289
ag289
ag289
ag289
ag289
ag289
ag289
ag289
ag292
ag289
ag289
ag289
ag289
ag289
ag289
ag289
ag289
ag289
ag289
ag289
ag289
ag289
ag289
ag289
ag289
ag289
ag289
ag289
ag289
ag289
ag289
ag289
ag289
ag289
ag289
ag292
ag289
ag289
ag289
ag289
ag289
ag289
ag289
asaa(lp293
S'index'
p294
aI12628
aatp295
Rp296
.