ccollections
OrderedDict
p0
((lp1
(lp2
S'combination_dict'
p3
ag0
((lp4
(lp5
S'r_to_g_config'
p6
aS'bl'
p7
aa(lp8
S'num_turns'
p9
aI3
aa(lp10
S'start_direction'
p11
acutils_ms
StartDirection
p12
(I0
tp13
Rp14
aa(lp15
S'assistance_type'
p16
acutils_ms
AssistanceType
p17
(I1
tp18
Rp19
aa(lp20
S'start_mode'
p21
aS't'
p22
aa(lp23
S'ui_given_a_noise'
p24
aF0.5
aa(lp25
S'um_given_ui_noise'
p26
aF0.7
aa(lp27
S'entropy_threshold'
p28
aF0.7
aatp29
Rp30
aa(lp31
S'data'
p32
accollections
defaultdict
p33
(c__builtin__
list
p34
tp35
Rp36
S'a'
p37
(lp38
S'mode_r'
p39
ag39
aS'move_n'
p40
ag39
ag40
ag39
ag39
aS'mode_l'
p41
ag41
ag41
ag41
ag40
ag39
ag41
aS'move_p'
p42
ag42
ag39
ag40
ag41
ag40
ag39
ag40
ag41
ag40
ag41
ag40
ag39
ag40
ag41
ag39
ag40
asS'assistance_match_with_ground_truth'
p43
(lp44
I00
aI01
aI00
aI01
aI01
aI00
aI00
aI00
aI00
aI00
aI01
aI01
aI00
aI01
aI00
aI01
aI01
aI00
aI01
aI01
aI01
aI00
aI01
aI00
aI01
aI00
aI01
aI00
aI00
aI01
aI01
asS'is_u_intended_equals_um'
p45
(lp46
I00
aI01
aI00
aI01
aI01
aI00
aI01
aI00
aI00
aI00
aI01
aI00
aI01
aI01
aI00
aI01
aI01
aI00
aI01
aI00
aI01
aI00
aI01
aI00
aI01
aI00
aI00
aI00
aI01
aI00
aI01
asS'total_steps'
p47
I31
sS'normalized_h_of_p_ui_given_um'
p48
(lp49
cnumpy.core.multiarray
scalar
p50
(cnumpy
dtype
p51
(S'f8'
p52
I0
I1
tp53
Rp54
(I3
S'<'
p55
NNNI-1
I-1
I0
tp56
bS'\xfa\xe1\x1fp$\xfd\xea?'
p57
tp58
Rp59
ag50
(g54
S'\x1e\xbe\xfb\xe8H\xe8\xdf?'
p60
tp61
Rp62
ag50
(g54
S's\x1b\xda\xc1\xa4\x0b\xeb?'
p63
tp64
Rp65
ag50
(g54
S'\x1e\xbe\xfb\xe8H\xe8\xdf?'
p66
tp67
Rp68
ag50
(g54
S'\xd4tY\xa9j\xd0\xe2?'
p69
tp70
Rp71
ag50
(g54
S'\xfa\xe1\x1fp$\xfd\xea?'
p72
tp73
Rp74
ag50
(g54
S'+Qf\xc8\xaf\x0e\xe6?'
p75
tp76
Rp77
ag50
(g54
S'\xd2Q\xa5\xbc\xc4\xb7\xe7?'
p78
tp79
Rp80
ag50
(g54
S'\xd2Q\xa5\xbc\xc4\xb7\xe7?'
p81
tp82
Rp83
ag50
(g54
S'\xd2Q\xa5\xbc\xc4\xb7\xe7?'
p84
tp85
Rp86
ag50
(g54
S'\x14\x83{\x8f\xf0\x90\xd3?'
p87
tp88
Rp89
ag50
(g54
S'\xc8\x8e\xa4)\x96c\xe6?'
p90
tp91
Rp92
ag50
(g54
S'+Qf\xc8\xaf\x0e\xe6?'
p93
tp94
Rp95
ag50
(g54
S'\x14\x83{\x8f\xf0\x90\xd3?'
p96
tp97
Rp98
ag50
(g54
S'1*\x8d\xa6\xaf\x95\xe8?'
p99
tp100
Rp101
ag50
(g54
S'\x89l\x15V\x86\xcb\xe5?'
p102
tp103
Rp104
ag50
(g54
S'\x1e\xbe\xfb\xe8H\xe8\xdf?'
p105
tp106
Rp107
ag50
(g54
S'\x8c\xdaa\xfd\xe5\x01\xea?'
p108
tp109
Rp110
ag50
(g54
S'\x14\x83{\x8f\xf0\x90\xd3?'
p111
tp112
Rp113
ag50
(g54
S'\xc8\x8e\xa4)\x96c\xe6?'
p114
tp115
Rp116
ag50
(g54
S'\x1e\xbe\xfb\xe8H\xe8\xdf?'
p117
tp118
Rp119
ag50
(g54
S'\x8c\xdaa\xfd\xe5\x01\xea?'
p120
tp121
Rp122
ag50
(g54
S'\x14\x83{\x8f\xf0\x90\xd3?'
p123
tp124
Rp125
ag50
(g54
S'\x8c\xdaa\xfd\xe5\x01\xea?'
p126
tp127
Rp128
ag50
(g54
S'\x14\x83{\x8f\xf0\x90\xd3?'
p129
tp130
Rp131
ag50
(g54
S's\x1b\xda\xc1\xa4\x0b\xeb?'
p132
tp133
Rp134
ag50
(g54
S'ux\x13\x87S\x0e\xe1?'
p135
tp136
Rp137
ag50
(g54
S'\x8c\xdaa\xfd\xe5\x01\xea?'
p138
tp139
Rp140
ag50
(g54
S'T\xbbW\xa8\xea\xdc\xe8?'
p141
tp142
Rp143
ag50
(g54
S'ux\x13\x87S\x0e\xe1?'
p144
tp145
Rp146
ag50
(g54
S'\xd4tY\xa9j\xd0\xe2?'
p147
tp148
Rp149
asS'sp'
p150
(lp151
(S'p0'
p152
I0
S't'
p153
tp154
a(g152
I0
S'x'
p155
tp156
a(g152
I0
g153
tp157
ag156
a(S'p1'
p158
I0
g155
tp159
a(g158
I0
g155
tp160
a(g158
I0
g153
tp161
a(g158
I0
g153
tp162
ag162
ag162
a(g158
I0
S'y'
p163
tp164
a(S'p2'
p165
I0
g163
tp166
a(g165
I0
g155
tp167
a(g165
I0
g153
tp168
a(g165
I0
g153
tp169
a(g165
F1.5707963267948966
g153
tp170
a(g165
F1.5707963267948966
g155
tp171
a(g165
F1.5707963267948966
g163
tp172
a(g165
F1.5707963267948966
g155
tp173
a(S'p3'
p174
F1.5707963267948966
g155
tp175
a(g174
F1.5707963267948966
g163
tp176
a(g174
F1.5707963267948966
g153
tp177
a(g174
F1.5707963267948966
g163
tp178
ag177
ag178
a(g174
F1.5707963267948966
g155
tp179
ag176
ag177
a(g174
F1.5707963267948966
g155
tp180
ag176
a(S'p4'
p181
F1.5707963267948966
g163
tp182
asS's'
p183
(lp184
(g152
I0
g22
tp185
ag154
ag156
ag157
ag156
ag159
ag160
ag161
ag162
ag162
ag162
ag164
ag166
ag167
ag168
ag169
ag170
ag171
ag172
ag173
ag175
ag176
ag177
ag178
ag177
ag178
ag179
ag176
ag177
ag180
ag176
asS'ui'
p186
(lp187
S'ss'
p188
aS'hp'
p189
aS'hs'
p190
ag189
ag188
ag188
ag189
ag190
ag150
ag190
ag190
ag188
ag188
ag190
ag150
ag188
ag189
ag188
ag190
ag189
ag189
ag189
ag190
ag188
ag190
ag188
ag188
ag150
ag189
ag189
ag188
asS'um_before'
p191
(lp192
g188
ag189
ag190
ag189
ag188
ag188
ag190
ag188
ag188
ag188
ag190
ag150
ag190
ag190
ag188
ag150
ag189
ag189
ag190
ag150
ag189
ag189
ag190
ag189
ag190
ag190
ag150
ag189
ag189
ag150
ag188
asS'um_after'
p193
(lp194
g188
ag189
ag190
ag189
ag188
ag188
ag190
ag188
ag188
ag188
ag190
ag188
ag190
ag190
ag188
ag150
ag189
ag189
ag190
ag188
ag189
ag189
ag190
ag189
ag190
ag190
ag189
ag189
ag189
ag189
ag188
asS'is_normalized_entropy_less_than_threshold'
p195
(lp196
g50
(g51
(S'b1'
p197
I0
I1
tp198
Rp199
(I3
S'|'
p200
NNNI-1
I-1
I0
tp201
bS'\x00'
p202
tp203
Rp204
ag50
(g199
S'\x01'
p205
tp206
Rp207
ag204
ag207
ag207
ag204
ag207
ag204
ag204
ag204
ag207
ag207
ag207
ag207
ag204
ag207
ag207
ag204
ag207
ag207
ag207
ag204
ag207
ag204
ag207
ag204
ag207
ag204
ag204
ag207
ag207
asaa(lp208
S'index'
p209
aI78979
aatp210
Rp211
.