ccollections
OrderedDict
p0
((lp1
(lp2
S'combination_dict'
p3
ag0
((lp4
(lp5
S'r_to_g_config'
p6
aS'tr'
p7
aa(lp8
S'num_turns'
p9
aI1
aa(lp10
S'start_direction'
p11
acutils_ms
StartDirection
p12
(I0
tp13
Rp14
aa(lp15
S'assistance_type'
p16
acutils_ms
AssistanceType
p17
(I0
tp18
Rp19
aa(lp20
S'start_mode'
p21
aS't'
p22
aa(lp23
S'ui_given_a_noise'
p24
aF0.5
aa(lp25
S'um_given_ui_noise'
p26
aF0.7
aa(lp27
S'entropy_threshold'
p28
aF0.6
aatp29
Rp30
aa(lp31
S'data'
p32
accollections
defaultdict
p33
(c__builtin__
list
p34
tp35
Rp36
S'a'
p37
(lp38
S'mode_r'
p39
aS'move_p'
p40
aS'mode_l'
p41
ag40
ag40
ag41
ag40
ag39
ag41
ag40
ag39
ag39
ag39
ag39
ag40
ag41
ag40
ag41
ag40
asS'assistance_match_with_ground_truth'
p42
(lp43
I01
aI00
aI01
aI00
aI01
aI01
aI00
aI00
aI01
aI00
aI00
aI00
aI00
aI01
aI01
aI01
aI01
aI01
aI01
asS'is_u_intended_equals_um'
p44
(lp45
I01
aI00
aI01
aI01
aI01
aI01
aI00
aI00
aI01
aI00
aI00
aI00
aI00
aI01
aI01
aI01
aI01
aI01
aI01
asS'total_steps'
p46
I19
sS'normalized_h_of_p_ui_given_um'
p47
(lp48
cnumpy.core.multiarray
scalar
p49
(cnumpy
dtype
p50
(S'f8'
p51
I0
I1
tp52
Rp53
(I3
S'<'
p54
NNNI-1
I-1
I0
tp55
bS'\xb7k\xc2\x0b\xd5N\xe0?'
p56
tp57
Rp58
ag49
(g53
S'\xf8\x89S\x87.p\xea?'
p59
tp60
Rp61
ag49
(g53
S'B\xc3\x01D\x0bN\xdb?'
p62
tp63
Rp64
ag49
(g53
S'y\xfd\xca\xf0"\xa5\xec?'
p65
tp66
Rp67
ag49
(g53
S'u\x87\xfb\x04H\xea\xd6?'
p68
tp69
Rp70
ag49
(g53
S'B\xc3\x01D\x0bN\xdb?'
p71
tp72
Rp73
ag49
(g53
S'\xe6\xaa1\xff`\x86\xe9?'
p74
tp75
Rp76
ag49
(g53
S'\xd09f\x00\x84\x83\xe7?'
p77
tp78
Rp79
ag49
(g53
S'B\xc3\x01D\x0bN\xdb?'
p80
tp81
Rp82
ag49
(g53
S'\xe6\xaa1\xff`\x86\xe9?'
p83
tp84
Rp85
ag49
(g53
S'\xd09f\x00\x84\x83\xe7?'
p86
tp87
Rp88
ag49
(g53
S't/\x92\x9eA\x81\xe9?'
p89
tp90
Rp91
ag49
(g53
S'\xd09f\x00\x84\x83\xe7?'
p92
tp93
Rp94
ag49
(g53
S'\xb7k\xc2\x0b\xd5N\xe0?'
p95
tp96
Rp97
ag49
(g53
S'u\x87\xfb\x04H\xea\xd6?'
p98
tp99
Rp100
ag49
(g53
S'B\xc3\x01D\x0bN\xdb?'
p101
tp102
Rp103
ag49
(g53
S'u\x87\xfb\x04H\xea\xd6?'
p104
tp105
Rp106
ag49
(g53
S'B\xc3\x01D\x0bN\xdb?'
p107
tp108
Rp109
ag49
(g53
S'u\x87\xfb\x04H\xea\xd6?'
p110
tp111
Rp112
asS'sp'
p113
(lp114
(S'p0'
p115
I0
S'x'
p116
tp117
a(g115
I0
S'y'
p118
tp119
a(g115
I0
g116
tp120
a(g115
I0
g116
tp121
a(S'p1'
p122
I0
g116
tp123
a(g122
I0
S't'
p124
tp125
a(g122
I0
g118
tp126
a(g115
I0
g118
tp127
ag120
a(g115
I0
g124
tp128
a(g115
I0
g124
tp129
a(g115
I0
g124
tp130
ag129
ag117
ag123
ag125
a(g122
F1.5707963267948966
g124
tp131
a(g122
F1.5707963267948966
g118
tp132
a(S'p2'
p133
F1.5707963267948966
g118
tp134
asS's'
p135
(lp136
(g115
I0
g22
tp137
ag117
ag119
ag120
ag121
ag123
ag125
ag126
ag127
ag120
ag128
ag129
ag130
ag129
ag117
ag123
ag125
ag131
ag132
asS'ui'
p138
(lp139
g113
aS'hp'
p140
aS'hs'
p141
aS'ss'
p142
ag113
ag141
ag141
ag113
ag141
ag113
ag141
ag140
ag142
ag140
ag113
ag141
ag113
ag141
ag113
asS'um_before'
p143
(lp144
g140
ag140
ag141
ag142
ag113
ag141
ag141
ag142
ag141
ag141
ag142
ag113
ag142
ag140
ag113
ag141
ag113
ag141
ag113
asS'um_after'
p145
(lp146
g140
ag140
ag141
ag142
ag113
ag141
ag141
ag142
ag141
ag141
ag142
ag113
ag142
ag140
ag113
ag141
ag113
ag141
ag113
asS'is_normalized_entropy_less_than_threshold'
p147
(lp148
g49
(g50
(S'b1'
p149
I0
I1
tp150
Rp151
(I3
S'|'
p152
NNNI-1
I-1
I0
tp153
bS'\x01'
p154
tp155
Rp156
ag49
(g151
S'\x00'
p157
tp158
Rp159
ag156
ag159
ag156
ag156
ag159
ag159
ag156
ag159
ag159
ag159
ag159
ag156
ag156
ag156
ag156
ag156
ag156
asaa(lp160
S'index'
p161
aI567
aatp162
Rp163
.