ccollections
OrderedDict
p0
((lp1
(lp2
S'combination_dict'
p3
ag0
((lp4
(lp5
S'r_to_g_config'
p6
aS'tr'
p7
aa(lp8
S'num_turns'
p9
aI1
aa(lp10
S'start_direction'
p11
acutils_ms
StartDirection
p12
(I0
tp13
Rp14
aa(lp15
S'assistance_type'
p16
acutils_ms
AssistanceType
p17
(I1
tp18
Rp19
aa(lp20
S'start_mode'
p21
aS't'
p22
aa(lp23
S'ui_given_a_noise'
p24
aF0.7
aa(lp25
S'um_given_ui_noise'
p26
aF0.3
aa(lp27
S'entropy_threshold'
p28
aF0.5
aatp29
Rp30
aa(lp31
S'data'
p32
accollections
defaultdict
p33
(c__builtin__
list
p34
tp35
Rp36
S'a'
p37
(lp38
S'mode_r'
p39
ag39
ag39
ag39
ag39
aS'move_p'
p40
aS'mode_l'
p41
ag41
ag40
ag41
ag40
ag41
ag40
ag39
ag40
asS'assistance_match_with_ground_truth'
p42
(lp43
I00
aI00
aI00
aI00
aI01
aI01
aI00
aI01
aI00
aI01
aI01
aI01
aI00
aI01
aI01
asS'is_u_intended_equals_um'
p44
(lp45
I01
aI01
aI01
aI01
aI01
aI01
aI00
aI01
aI01
aI01
aI01
aI01
aI01
aI01
aI01
asS'total_steps'
p46
I15
sS'normalized_h_of_p_ui_given_um'
p47
(lp48
cnumpy.core.multiarray
scalar
p49
(cnumpy
dtype
p50
(S'f8'
p51
I0
I1
tp52
Rp53
(I3
S'<'
p54
NNNI-1
I-1
I0
tp55
bS'\x9c\x87\xed\x16\xc2K\xe4?'
p56
tp57
Rp58
ag49
(g53
S'\xdce\xa2\xf9\xa4>\xeb?'
p59
tp60
Rp61
ag49
(g53
S'\xdce\xa2\xf9\xa4>\xeb?'
p62
tp63
Rp64
ag49
(g53
S'\xdce\xa2\xf9\xa4>\xeb?'
p65
tp66
Rp67
ag49
(g53
S'\x8f\xfb\x04T\xb6\xbd\xcf?'
p68
tp69
Rp70
ag49
(g53
S'\xa5\x8cx\xe7}7\xd1?'
p71
tp72
Rp73
ag49
(g53
S'\xa4A\xa2L\x89\x9d\xe8?'
p74
tp75
Rp76
ag49
(g53
S'`\xd6\x92\xca\xd5\x1f\xda?'
p77
tp78
Rp79
ag49
(g53
S'\xe9\x8e\xa6K(\xb7\xeb?'
p80
tp81
Rp82
ag49
(g53
S'`\xd6\x92\xca\xd5\x1f\xda?'
p83
tp84
Rp85
ag49
(g53
S'\xa5\x8cx\xe7}7\xd1?'
p86
tp87
Rp88
ag49
(g53
S'`\xd6\x92\xca\xd5\x1f\xda?'
p89
tp90
Rp91
ag49
(g53
S'd\xcf5\xa9k\xdd\xdb?'
p92
tp93
Rp94
ag49
(g53
S'\x8f\xfb\x04T\xb6\xbd\xcf?'
p95
tp96
Rp97
ag49
(g53
S'\xa5\x8cx\xe7}7\xd1?'
p98
tp99
Rp100
asS'sp'
p101
(lp102
(S'p0'
p103
I0
S't'
p104
tp105
a(g103
I0
g104
tp106
ag106
ag106
a(g103
I0
S'x'
p107
tp108
a(S'p1'
p109
I0
g107
tp110
a(g109
I0
g107
tp111
a(g109
I0
g104
tp112
a(g109
I0
g107
tp113
ag112
a(g109
F1.5707963267948966
g104
tp114
a(g109
F1.5707963267948966
S'y'
p115
tp116
a(g109
F1.5707963267948966
g107
tp117
a(g109
F1.5707963267948966
g115
tp118
a(S'p2'
p119
F1.5707963267948966
g115
tp120
asS's'
p121
(lp122
(g103
I0
g22
tp123
ag105
ag106
ag106
ag106
ag108
ag110
ag111
ag112
ag113
ag112
ag114
ag116
ag117
ag118
asS'ui'
p124
(lp125
g101
aS'ss'
p126
ag126
ag126
aS'hp'
p127
ag101
ag126
ag126
ag101
aS'hs'
p128
ag101
ag128
ag128
ag101
ag101
asS'um_before'
p129
(lp130
g101
ag126
ag126
ag126
ag127
ag101
ag101
ag128
ag127
ag128
ag101
ag128
ag128
ag127
ag101
asS'um_after'
p131
(lp132
g101
ag126
ag126
ag126
ag127
ag101
ag101
ag128
ag127
ag128
ag101
ag128
ag128
ag127
ag101
asS'is_normalized_entropy_less_than_threshold'
p133
(lp134
g49
(g50
(S'b1'
p135
I0
I1
tp136
Rp137
(I3
S'|'
p138
NNNI-1
I-1
I0
tp139
bS'\x00'
p140
tp141
Rp142
ag142
ag142
ag142
ag49
(g137
S'\x01'
p143
tp144
Rp145
ag145
ag142
ag145
ag142
ag145
ag145
ag145
ag145
ag145
ag145
asaa(lp146
S'index'
p147
aI2255
aatp148
Rp149
.