ccollections
OrderedDict
p0
((lp1
(lp2
S'combination_dict'
p3
ag0
((lp4
(lp5
S'r_to_g_config'
p6
aS'bl'
p7
aa(lp8
S'num_turns'
p9
aI2
aa(lp10
S'start_direction'
p11
acutils_ms
StartDirection
p12
(I1
tp13
Rp14
aa(lp15
S'assistance_type'
p16
acutils_ms
AssistanceType
p17
(I0
tp18
Rp19
aa(lp20
S'start_mode'
p21
aS't'
p22
aa(lp23
S'ui_given_a_noise'
p24
aF0.1
aa(lp25
S'um_given_ui_noise'
p26
aF0.5
aa(lp27
S'entropy_threshold'
p28
aF0.9
aatp29
Rp30
aa(lp31
S'data'
p32
accollections
defaultdict
p33
(c__builtin__
list
p34
tp35
Rp36
S'a'
p37
(lp38
S'mode_l'
p39
ag39
aS'move_n'
p40
ag40
ag40
ag40
ag39
ag40
ag40
ag40
ag39
aS'mode_r'
p41
aS'move_p'
p42
ag39
ag40
asS'assistance_match_with_ground_truth'
p43
(lp44
I00
aI01
aI00
aI00
aI00
aI01
aI01
aI00
aI00
aI01
aI00
aI01
aI01
aI01
aI01
asS'is_u_intended_equals_um'
p45
(lp46
I00
aI01
aI00
aI00
aI00
aI01
aI01
aI00
aI00
aI01
aI01
aI01
aI01
aI01
aI01
asS'total_steps'
p47
I15
sS'normalized_h_of_p_ui_given_um'
p48
(lp49
cnumpy.core.multiarray
scalar
p50
(cnumpy
dtype
p51
(S'f8'
p52
I0
I1
tp53
Rp54
(I3
S'<'
p55
NNNI-1
I-1
I0
tp56
bS'\x82)@\xde\xf4\xe0\xd1?'
p57
tp58
Rp59
ag50
(g54
S'\x83\x81\xa4\xd3^\xf5\xc5?'
p60
tp61
Rp62
ag50
(g54
S'\xbaQj\xe9<\xbb\xd9?'
p63
tp64
Rp65
ag50
(g54
S'pS@\xca8\xdd\xe0?'
p66
tp67
Rp68
ag50
(g54
S'\xbaQj\xe9<\xbb\xd9?'
p69
tp70
Rp71
ag50
(g54
S'\x1fP\xfa\xe5\x17\x08\xb4?'
p72
tp73
Rp74
ag50
(g54
S'\x83\x81\xa4\xd3^\xf5\xc5?'
p75
tp76
Rp77
ag50
(g54
S'pS@\xca8\xdd\xe0?'
p78
tp79
Rp80
ag50
(g54
S'pS@\xca8\xdd\xe0?'
p81
tp82
Rp83
ag50
(g54
S'\x1fP\xfa\xe5\x17\x08\xb4?'
p84
tp85
Rp86
ag50
(g54
S'\xfc\x85\xb9\x87\x8f\xda\xe5?'
p87
tp88
Rp89
ag50
(g54
S'\xebIiB\xdd\xa4\xb0?'
p90
tp91
Rp92
ag50
(g54
S'b\xcd\xc2\xc0l|\xc3?'
p93
tp94
Rp95
ag50
(g54
S'\x83\x81\xa4\xd3^\xf5\xc5?'
p96
tp97
Rp98
ag50
(g54
S'\x1fP\xfa\xe5\x17\x08\xb4?'
p99
tp100
Rp101
asS'sp'
p102
(lp103
(S'p0'
p104
I0
g22
tp105
a(g104
I0
S'y'
p106
tp107
ag107
ag107
ag107
a(S'p1'
p108
I0
g106
tp109
a(g108
I0
S'x'
p110
tp111
ag111
ag111
a(S'p2'
p112
I0
g110
tp113
a(g112
I0
g106
tp114
a(g112
I0
S't'
p115
tp116
a(g112
F1.5707963267948966
g115
tp117
a(g112
F1.5707963267948966
g106
tp118
a(S'p3'
p119
F1.5707963267948966
g106
tp120
asS's'
p121
(lp122
g105
ag105
ag107
ag107
ag107
ag107
ag109
ag111
ag111
ag111
ag113
ag114
ag116
ag117
ag118
asS'ui'
p123
(lp124
S'hs'
p125
ag125
aS'hp'
p126
aS'ss'
p127
ag127
ag127
ag125
ag102
ag127
ag127
ag102
ag126
ag102
ag125
ag127
asS'um_before'
p128
(lp129
g127
ag125
ag125
ag102
ag125
ag127
ag125
ag102
ag102
ag127
ag126
ag126
ag102
ag125
ag127
asS'um_after'
p130
(lp131
Nag125
aNaNaNag127
ag125
aNaNag127
ag126
ag126
ag102
ag125
ag127
asS'is_normalized_entropy_less_than_threshold'
p132
(lp133
g50
(g51
(S'b1'
p134
I0
I1
tp135
Rp136
(I3
S'|'
p137
NNNI-1
I-1
I0
tp138
bS'\x01'
p139
tp140
Rp141
ag141
ag141
ag141
ag141
ag141
ag141
ag141
ag141
ag141
ag141
ag141
ag141
ag141
ag141
asaa(lp142
S'index'
p143
aI72944
aatp144
Rp145
.