ccollections
OrderedDict
p0
((lp1
(lp2
S'combination_dict'
p3
ag0
((lp4
(lp5
S'r_to_g_config'
p6
aS'tr'
p7
aa(lp8
S'num_turns'
p9
aI3
aa(lp10
S'start_direction'
p11
acutils_ms
StartDirection
p12
(I0
tp13
Rp14
aa(lp15
S'assistance_type'
p16
acutils_ms
AssistanceType
p17
(I0
tp18
Rp19
aa(lp20
S'start_mode'
p21
aS'y'
p22
aa(lp23
S'ui_given_a_noise'
p24
aF0.5
aa(lp25
S'um_given_ui_noise'
p26
aF0.5
aa(lp27
S'entropy_threshold'
p28
aF0.8
aatp29
Rp30
aa(lp31
S'data'
p32
accollections
defaultdict
p33
(c__builtin__
list
p34
tp35
Rp36
S'a'
p37
(lp38
S'mode_l'
p39
aS'move_p'
p40
aS'mode_r'
p41
ag41
ag40
ag41
ag40
ag40
ag41
ag41
ag41
ag41
ag41
ag40
ag40
ag41
ag41
ag41
ag41
ag41
ag41
ag40
ag40
ag40
ag40
ag40
ag41
ag40
ag40
ag41
ag41
ag41
ag41
ag41
ag41
ag40
ag41
ag41
ag40
ag40
ag40
ag41
ag40
ag41
ag40
ag40
ag41
ag41
ag40
ag41
ag41
ag41
ag41
ag40
ag40
ag40
ag40
ag41
ag41
ag41
ag40
ag41
ag41
ag41
ag40
ag41
ag41
ag40
ag39
ag40
ag40
ag41
ag41
ag41
ag40
ag39
ag40
ag40
ag41
ag41
ag41
ag40
ag41
ag41
ag40
ag41
ag41
ag40
ag41
ag40
ag41
ag41
ag41
ag41
ag41
ag41
ag41
ag41
ag41
ag41
ag41
ag41
ag41
ag40
ag41
ag41
ag40
ag41
ag41
ag41
ag41
ag41
ag41
ag40
ag41
ag40
ag41
ag40
ag41
ag40
ag40
ag40
ag41
ag41
ag41
ag41
ag40
ag41
ag40
ag41
ag40
ag41
ag40
ag41
ag41
ag41
ag41
ag40
ag40
ag40
ag41
ag40
ag40
ag40
ag41
ag40
ag40
ag39
ag39
ag40
ag41
ag41
ag40
ag41
ag41
ag40
asS'assistance_match_with_ground_truth'
p42
(lp43
I01
aI01
aI00
aI01
aI01
aI01
aI00
aI00
aI00
aI00
aI00
aI00
aI01
aI00
aI00
aI00
aI00
aI00
aI00
aI00
aI01
aI00
aI00
aI00
aI00
aI01
aI00
aI00
aI00
aI00
aI00
aI00
aI00
aI00
aI01
aI00
aI00
aI01
aI00
aI00
aI00
aI01
aI01
aI00
aI00
aI01
aI00
aI01
aI00
aI00
aI00
aI00
aI00
aI00
aI00
aI00
aI01
aI00
aI00
aI01
aI01
aI00
aI00
aI01
aI00
aI00
aI01
aI00
aI01
aI00
aI01
aI00
aI00
aI01
aI00
aI01
aI00
aI00
aI00
aI00
aI01
aI00
aI00
aI01
aI00
aI00
aI00
aI01
aI00
aI00
aI00
aI00
aI00
aI00
aI00
aI00
aI00
aI00
aI00
aI00
aI00
aI00
aI01
aI01
aI00
aI00
aI00
aI00
aI00
aI00
aI00
aI00
aI01
aI00
aI01
aI01
aI01
aI00
aI00
aI00
aI00
aI00
aI00
aI00
aI00
aI01
aI00
aI01
aI00
aI01
aI00
aI01
aI00
aI00
aI00
aI00
aI01
aI00
aI00
aI01
aI01
aI00
aI00
aI00
aI01
aI00
aI01
aI00
aI01
aI01
aI00
aI01
aI00
aI00
aI01
aI01
asS'is_u_intended_equals_um'
p44
(lp45
I01
aI01
aI00
aI01
aI01
aI01
aI00
aI01
aI01
aI01
aI00
aI01
aI01
aI00
aI01
aI00
aI01
aI00
aI00
aI01
aI01
aI00
aI00
aI00
aI00
aI01
aI01
aI00
aI01
aI00
aI01
aI00
aI00
aI01
aI01
aI01
aI00
aI01
aI00
aI00
aI01
aI01
aI01
aI01
aI00
aI01
aI00
aI01
aI01
aI00
aI00
aI00
aI01
aI00
aI00
aI00
aI01
aI00
aI00
aI01
aI01
aI00
aI00
aI01
aI01
aI00
aI01
aI00
aI01
aI00
aI01
aI00
aI00
aI01
aI00
aI01
aI00
aI01
aI00
aI00
aI01
aI01
aI00
aI01
aI01
aI00
aI01
aI01
aI01
aI01
aI00
aI00
aI00
aI00
aI00
aI00
aI00
aI00
aI00
aI00
aI00
aI00
aI01
aI01
aI00
aI01
aI01
aI00
aI00
aI01
aI00
aI00
aI01
aI01
aI01
aI01
aI01
aI01
aI01
aI00
aI00
aI01
aI00
aI01
aI00
aI01
aI01
aI01
aI01
aI01
aI01
aI01
aI01
aI00
aI01
aI01
aI01
aI00
aI00
aI01
aI01
aI00
aI00
aI00
aI01
aI00
aI01
aI00
aI01
aI01
aI00
aI01
aI01
aI00
aI01
aI01
asS'total_steps'
p46
I156
sS'normalized_h_of_p_ui_given_um'
p47
(lp48
cnumpy.core.multiarray
scalar
p49
(cnumpy
dtype
p50
(S'f8'
p51
I0
I1
tp52
Rp53
(I3
S'<'
p54
NNNI-1
I-1
I0
tp55
bS'\x9b7\xf8\xdd&\xf0\xd4?'
p56
tp57
Rp58
ag49
(g53
S'\x08\xc1,\xd3)\x7f\xdb?'
p59
tp60
Rp61
ag49
(g53
S'& t\x02\xd7\xcc\xe5?'
p62
tp63
Rp64
ag49
(g53
S'qO\x05A}`\xe1?'
p65
tp66
Rp67
ag49
(g53
S'\x08\xc1,\xd3)\x7f\xdb?'
p68
tp69
Rp70
ag49
(g53
S'qO\x05A}`\xe1?'
p71
tp72
Rp73
ag49
(g53
S'\x80\xf45I;\xe8\xe7?'
p74
tp75
Rp76
ag49
(g53
S'\xb7qN\x07\xba\xb9\xe4?'
p77
tp78
Rp79
ag49
(g53
S'\xf8~\xd2u\xca\xf9\xec?'
p80
tp81
Rp82
ag49
(g53
S'\xf8~\xd2u\xca\xf9\xec?'
p83
tp84
Rp85
ag49
(g53
S'\xcaNT%\xf4\x82\xe5?'
p86
tp87
Rp88
ag49
(g53
S'\xf8~\xd2u\xca\xf9\xec?'
p89
tp90
Rp91
ag49
(g53
S'qO\x05A}`\xe1?'
p92
tp93
Rp94
ag49
(g53
S'\x80\xf45I;\xe8\xe7?'
p95
tp96
Rp97
ag49
(g53
S'\xb7qN\x07\xba\xb9\xe4?'
p98
tp99
Rp100
ag49
(g53
S'\xcaNT%\xf4\x82\xe5?'
p101
tp102
Rp103
ag49
(g53
S'\xf8~\xd2u\xca\xf9\xec?'
p104
tp105
Rp106
ag49
(g53
S'& t\x02\xd7\xcc\xe5?'
p107
tp108
Rp109
ag49
(g53
S'\xcaNT%\xf4\x82\xe5?'
p110
tp111
Rp112
ag49
(g53
S'\xf8~\xd2u\xca\xf9\xec?'
p113
tp114
Rp115
ag49
(g53
S'qO\x05A}`\xe1?'
p116
tp117
Rp118
ag49
(g53
S'\x80\xf45I;\xe8\xe7?'
p119
tp120
Rp121
ag49
(g53
S'\x80\xf45I;\xe8\xe7?'
p122
tp123
Rp124
ag49
(g53
S'\x80\xf45I;\xe8\xe7?'
p125
tp126
Rp127
ag49
(g53
S'\x80\xf45I;\xe8\xe7?'
p128
tp129
Rp130
ag49
(g53
S'\x08\xc1,\xd3)\x7f\xdb?'
p131
tp132
Rp133
ag49
(g53
S'\xf8~\xd2u\xca\xf9\xec?'
p134
tp135
Rp136
ag49
(g53
S'\x80\xf45I;\xe8\xe7?'
p137
tp138
Rp139
ag49
(g53
S'\xb7qN\x07\xba\xb9\xe4?'
p140
tp141
Rp142
ag49
(g53
S'& t\x02\xd7\xcc\xe5?'
p143
tp144
Rp145
ag49
(g53
S'\xf8~\xd2u\xca\xf9\xec?'
p146
tp147
Rp148
ag49
(g53
S'\xcaNT%\xf4\x82\xe5?'
p149
tp150
Rp151
ag49
(g53
S'& t\x02\xd7\xcc\xe5?'
p152
tp153
Rp154
ag49
(g53
S'\xf8~\xd2u\xca\xf9\xec?'
p155
tp156
Rp157
ag49
(g53
S'qO\x05A}`\xe1?'
p158
tp159
Rp160
ag49
(g53
S'\xb7qN\x07\xba\xb9\xe4?'
p161
tp162
Rp163
ag49
(g53
S'& t\x02\xd7\xcc\xe5?'
p164
tp165
Rp166
ag49
(g53
S'qO\x05A}`\xe1?'
p167
tp168
Rp169
ag49
(g53
S'\x80\xf45I;\xe8\xe7?'
p170
tp171
Rp172
ag49
(g53
S'\x1c\xd5\x95\xceN\x92\xee?'
p173
tp174
Rp175
ag49
(g53
S'\xb7qN\x07\xba\xb9\xe4?'
p176
tp177
Rp178
ag49
(g53
S'qO\x05A}`\xe1?'
p179
tp180
Rp181
ag49
(g53
S'\x08\xc1,\xd3)\x7f\xdb?'
p182
tp183
Rp184
ag49
(g53
S'\xf8~\xd2u\xca\xf9\xec?'
p185
tp186
Rp187
ag49
(g53
S'\x80\xf45I;\xe8\xe7?'
p188
tp189
Rp190
ag49
(g53
S'\x08\xc1,\xd3)\x7f\xdb?'
p191
tp192
Rp193
ag49
(g53
S'& t\x02\xd7\xcc\xe5?'
p194
tp195
Rp196
ag49
(g53
S'qO\x05A}`\xe1?'
p197
tp198
Rp199
ag49
(g53
S'\xb7qN\x07\xba\xb9\xe4?'
p200
tp201
Rp202
ag49
(g53
S'\xcaNT%\xf4\x82\xe5?'
p203
tp204
Rp205
ag49
(g53
S'& t\x02\xd7\xcc\xe5?'
p206
tp207
Rp208
ag49
(g53
S'\xcaNT%\xf4\x82\xe5?'
p209
tp210
Rp211
ag49
(g53
S'\xf8~\xd2u\xca\xf9\xec?'
p212
tp213
Rp214
ag49
(g53
S'\x80\xf45I;\xe8\xe7?'
p215
tp216
Rp217
ag49
(g53
S'\x80\xf45I;\xe8\xe7?'
p218
tp219
Rp220
ag49
(g53
S'\x80\xf45I;\xe8\xe7?'
p221
tp222
Rp223
ag49
(g53
S'\x08\xc1,\xd3)\x7f\xdb?'
p224
tp225
Rp226
ag49
(g53
S'& t\x02\xd7\xcc\xe5?'
p227
tp228
Rp229
ag49
(g53
S'& t\x02\xd7\xcc\xe5?'
p230
tp231
Rp232
ag49
(g53
S'qO\x05A}`\xe1?'
p233
tp234
Rp235
ag49
(g53
S'\x08\xc1,\xd3)\x7f\xdb?'
p236
tp237
Rp238
ag49
(g53
S'& t\x02\xd7\xcc\xe5?'
p239
tp240
Rp241
ag49
(g53
S'& t\x02\xd7\xcc\xe5?'
p242
tp243
Rp244
ag49
(g53
S'qO\x05A}`\xe1?'
p245
tp246
Rp247
ag49
(g53
S'\xb7qN\x07\xba\xb9\xe4?'
p248
tp249
Rp250
ag49
(g53
S'& t\x02\xd7\xcc\xe5?'
p251
tp252
Rp253
ag49
(g53
S'qO\x05A}`\xe1?'
p254
tp255
Rp256
ag49
(g53
S'\x1c\xd5\x95\xceN\x92\xee?'
p257
tp258
Rp259
ag49
(g53
S'\x9b7\xf8\xdd&\xf0\xd4?'
p260
tp261
Rp262
ag49
(g53
S'\x80\xf45I;\xe8\xe7?'
p263
tp264
Rp265
ag49
(g53
S'\x08\xc1,\xd3)\x7f\xdb?'
p266
tp267
Rp268
ag49
(g53
S'& t\x02\xd7\xcc\xe5?'
p269
tp270
Rp271
ag49
(g53
S'\xcaNT%\xf4\x82\xe5?'
p272
tp273
Rp274
ag49
(g53
S'qO\x05A}`\xe1?'
p275
tp276
Rp277
ag49
(g53
S'\x1c\xd5\x95\xceN\x92\xee?'
p278
tp279
Rp280
ag49
(g53
S'\x9b7\xf8\xdd&\xf0\xd4?'
p281
tp282
Rp283
ag49
(g53
S'\x80\xf45I;\xe8\xe7?'
p284
tp285
Rp286
ag49
(g53
S'\xb7qN\x07\xba\xb9\xe4?'
p287
tp288
Rp289
ag49
(g53
S'& t\x02\xd7\xcc\xe5?'
p290
tp291
Rp292
ag49
(g53
S'\xcaNT%\xf4\x82\xe5?'
p293
tp294
Rp295
ag49
(g53
S'qO\x05A}`\xe1?'
p296
tp297
Rp298
ag49
(g53
S'\xb7qN\x07\xba\xb9\xe4?'
p299
tp300
Rp301
ag49
(g53
S'\xcaNT%\xf4\x82\xe5?'
p302
tp303
Rp304
ag49
(g53
S'qO\x05A}`\xe1?'
p305
tp306
Rp307
ag49
(g53
S'\xb7qN\x07\xba\xb9\xe4?'
p308
tp309
Rp310
ag49
(g53
S'& t\x02\xd7\xcc\xe5?'
p311
tp312
Rp313
ag49
(g53
S'\xf8~\xd2u\xca\xf9\xec?'
p314
tp315
Rp316
ag49
(g53
S'\x08\xc1,\xd3)\x7f\xdb?'
p317
tp318
Rp319
ag49
(g53
S'\xf8~\xd2u\xca\xf9\xec?'
p320
tp321
Rp322
ag49
(g53
S'\xb7qN\x07\xba\xb9\xe4?'
p323
tp324
Rp325
ag49
(g53
S'& t\x02\xd7\xcc\xe5?'
p326
tp327
Rp328
ag49
(g53
S'& t\x02\xd7\xcc\xe5?'
p329
tp330
Rp331
ag49
(g53
S'& t\x02\xd7\xcc\xe5?'
p332
tp333
Rp334
ag49
(g53
S'\xcaNT%\xf4\x82\xe5?'
p335
tp336
Rp337
ag49
(g53
S'& t\x02\xd7\xcc\xe5?'
p338
tp339
Rp340
ag49
(g53
S'& t\x02\xd7\xcc\xe5?'
p341
tp342
Rp343
ag49
(g53
S'& t\x02\xd7\xcc\xe5?'
p344
tp345
Rp346
ag49
(g53
S'\xcaNT%\xf4\x82\xe5?'
p347
tp348
Rp349
ag49
(g53
S'& t\x02\xd7\xcc\xe5?'
p350
tp351
Rp352
ag49
(g53
S'\xcaNT%\xf4\x82\xe5?'
p353
tp354
Rp355
ag49
(g53
S'& t\x02\xd7\xcc\xe5?'
p356
tp357
Rp358
ag49
(g53
S'& t\x02\xd7\xcc\xe5?'
p359
tp360
Rp361
ag49
(g53
S'qO\x05A}`\xe1?'
p362
tp363
Rp364
ag49
(g53
S'\x08\xc1,\xd3)\x7f\xdb?'
p365
tp366
Rp367
ag49
(g53
S'\xcaNT%\xf4\x82\xe5?'
p368
tp369
Rp370
ag49
(g53
S'\xf8~\xd2u\xca\xf9\xec?'
p371
tp372
Rp373
ag49
(g53
S'\xb7qN\x07\xba\xb9\xe4?'
p374
tp375
Rp376
ag49
(g53
S'& t\x02\xd7\xcc\xe5?'
p377
tp378
Rp379
ag49
(g53
S'& t\x02\xd7\xcc\xe5?'
p380
tp381
Rp382
ag49
(g53
S'\xf8~\xd2u\xca\xf9\xec?'
p383
tp384
Rp385
ag49
(g53
S'\xcaNT%\xf4\x82\xe5?'
p386
tp387
Rp388
ag49
(g53
S'\xcaNT%\xf4\x82\xe5?'
p389
tp390
Rp391
ag49
(g53
S'qO\x05A}`\xe1?'
p392
tp393
Rp394
ag49
(g53
S'\xb7qN\x07\xba\xb9\xe4?'
p395
tp396
Rp397
ag49
(g53
S'qO\x05A}`\xe1?'
p398
tp399
Rp400
ag49
(g53
S'\x08\xc1,\xd3)\x7f\xdb?'
p401
tp402
Rp403
ag49
(g53
S'qO\x05A}`\xe1?'
p404
tp405
Rp406
ag49
(g53
S'\xb7qN\x07\xba\xb9\xe4?'
p407
tp408
Rp409
ag49
(g53
S'\xf8~\xd2u\xca\xf9\xec?'
p410
tp411
Rp412
ag49
(g53
S'\x80\xf45I;\xe8\xe7?'
p413
tp414
Rp415
ag49
(g53
S'\x1c\xd5\x95\xceN\x92\xee?'
p416
tp417
Rp418
ag49
(g53
S'\xb7qN\x07\xba\xb9\xe4?'
p419
tp420
Rp421
ag49
(g53
S'\xcaNT%\xf4\x82\xe5?'
p422
tp423
Rp424
ag49
(g53
S'\xf8~\xd2u\xca\xf9\xec?'
p425
tp426
Rp427
ag49
(g53
S'& t\x02\xd7\xcc\xe5?'
p428
tp429
Rp430
ag49
(g53
S'qO\x05A}`\xe1?'
p431
tp432
Rp433
ag49
(g53
S'\xb7qN\x07\xba\xb9\xe4?'
p434
tp435
Rp436
ag49
(g53
S'qO\x05A}`\xe1?'
p437
tp438
Rp439
ag49
(g53
S'\xb7qN\x07\xba\xb9\xe4?'
p440
tp441
Rp442
ag49
(g53
S'qO\x05A}`\xe1?'
p443
tp444
Rp445
ag49
(g53
S'\xb7qN\x07\xba\xb9\xe4?'
p446
tp447
Rp448
ag49
(g53
S'qO\x05A}`\xe1?'
p449
tp450
Rp451
ag49
(g53
S'\xb7qN\x07\xba\xb9\xe4?'
p452
tp453
Rp454
ag49
(g53
S'\xcaNT%\xf4\x82\xe5?'
p455
tp456
Rp457
ag49
(g53
S'\xf8~\xd2u\xca\xf9\xec?'
p458
tp459
Rp460
ag49
(g53
S'\xf8~\xd2u\xca\xf9\xec?'
p461
tp462
Rp463
ag49
(g53
S'qO\x05A}`\xe1?'
p464
tp465
Rp466
ag49
(g53
S'\x1c\xd5\x95\xceN\x92\xee?'
p467
tp468
Rp469
ag49
(g53
S'\x1c\xd5\x95\xceN\x92\xee?'
p470
tp471
Rp472
ag49
(g53
S'\x08\xc1,\xd3)\x7f\xdb?'
p473
tp474
Rp475
ag49
(g53
S'qO\x05A}`\xe1?'
p476
tp477
Rp478
ag49
(g53
S'\x80\xf45I;\xe8\xe7?'
p479
tp480
Rp481
ag49
(g53
S'\x80\xf45I;\xe8\xe7?'
p482
tp483
Rp484
ag49
(g53
S'\x1c\xd5\x95\xceN\x92\xee?'
p485
tp486
Rp487
ag49
(g53
S'qO\x05A}`\xe1?'
p488
tp489
Rp490
ag49
(g53
S'\x80\xf45I;\xe8\xe7?'
p491
tp492
Rp493
ag49
(g53
S'\x08\xc1,\xd3)\x7f\xdb?'
p494
tp495
Rp496
ag49
(g53
S'v\xb3\xdd]-\x18\xe8?'
p497
tp498
Rp499
ag49
(g53
S'\x9b7\xf8\xdd&\xf0\xd4?'
p500
tp501
Rp502
ag49
(g53
S'\x08\xc1,\xd3)\x7f\xdb?'
p503
tp504
Rp505
ag49
(g53
S'& t\x02\xd7\xcc\xe5?'
p506
tp507
Rp508
ag49
(g53
S'qO\x05A}`\xe1?'
p509
tp510
Rp511
ag49
(g53
S'\xb7qN\x07\xba\xb9\xe4?'
p512
tp513
Rp514
ag49
(g53
S'& t\x02\xd7\xcc\xe5?'
p515
tp516
Rp517
ag49
(g53
S'qO\x05A}`\xe1?'
p518
tp519
Rp520
ag49
(g53
S'\x08\xc1,\xd3)\x7f\xdb?'
p521
tp522
Rp523
asS'sp'
p524
(lp525
(S'p0'
p526
I0
S'x'
p527
tp528
a(S'p1'
p529
I0
g527
tp530
ag530
a(g529
I0
S'y'
p531
tp532
a(S'p2'
p533
I0
g531
tp534
a(g533
I0
S't'
p535
tp536
ag536
a(g533
I0
g531
tp537
a(g533
I0
g531
tp538
ag538
ag538
ag538
ag536
ag536
ag537
ag537
ag538
ag538
ag538
ag538
ag536
ag536
ag536
ag536
ag536
a(g533
F1.5707963267948966
g535
tp539
a(g533
I0
g535
tp540
ag540
ag537
ag537
ag538
ag538
ag538
ag538
ag536
ag537
ag537
ag536
ag536
a(g533
I0
g535
tp541
ag537
ag536
ag539
ag540
ag540
ag539
ag539
a(g533
F1.5707963267948966
g527
tp542
a(g533
F1.5707963267948966
g535
tp543
ag543
ag543
ag543
ag540
ag540
ag540
ag540
ag539
ag539
ag539
ag542
a(S'p3'
p544
F1.5707963267948966
g527
tp545
ag545
ag545
a(g544
F1.5707963267948966
g531
tp546
a(g544
F1.5707963267948966
g527
tp547
ag547
ag546
a(g533
F1.5707963267948966
g531
tp548
a(g533
F1.5707963267948966
g527
tp549
ag549
ag545
ag545
ag545
ag546
ag548
ag549
ag549
ag543
ag543
ag543
ag542
ag543
ag543
ag542
ag543
ag543
ag540
ag539
ag540
ag537
ag537
ag537
ag537
ag537
ag537
ag537
ag537
ag537
ag537
ag537
ag537
ag537
ag536
ag539
ag539
ag540
ag537
ag537
ag537
ag538
ag538
ag538
ag536
ag537
ag536
ag539
ag542
ag543
ag540
ag540
ag541
ag537
ag537
ag538
ag538
ag536
ag537
ag536
ag537
ag536
ag537
ag536
ag537
ag537
ag538
ag538
ag536
ag541
ag541
ag539
ag542
ag542
ag542
a(g529
F1.5707963267948966
g527
tp550
a(g529
F1.5707963267948966
g531
tp551
ag551
a(g533
F1.5707963267948966
g531
tp552
ag552
ag549
ag545
ag545
ag546
ag547
ag547
ag546
a(S'p4'
p553
F1.5707963267948966
g531
tp554
asS's'
p555
(lp556
(g526
I0
g22
tp557
ag528
ag530
ag530
ag532
ag534
ag536
ag536
ag537
ag538
ag538
ag538
ag538
ag536
ag536
ag537
ag537
ag538
ag538
ag538
ag538
ag536
ag536
ag536
ag536
ag536
ag539
ag540
ag540
ag537
ag537
ag538
ag538
ag538
ag538
ag536
ag537
ag537
ag536
ag536
ag541
ag537
ag536
ag539
ag540
ag540
ag539
ag539
ag542
ag543
ag543
ag543
ag543
ag540
ag540
ag540
ag540
ag539
ag539
ag539
ag542
ag545
ag545
ag545
ag546
ag547
ag547
ag546
ag548
ag549
ag549
ag545
ag545
ag545
ag546
ag548
ag549
ag549
ag543
ag543
ag543
ag542
ag543
ag543
ag542
ag543
ag543
ag540
ag539
ag540
ag537
ag537
ag537
ag537
ag537
ag537
ag537
ag537
ag537
ag537
ag537
ag537
ag537
ag536
ag539
ag539
ag540
ag537
ag537
ag537
ag538
ag538
ag538
ag536
ag537
ag536
ag539
ag542
ag543
ag540
ag540
ag541
ag537
ag537
ag538
ag538
ag536
ag537
ag536
ag537
ag536
ag537
ag536
ag537
ag537
ag538
ag538
ag536
ag541
ag541
ag539
ag542
ag542
ag542
ag550
ag551
ag551
ag552
ag552
ag549
ag545
ag545
ag546
ag547
ag547
ag546
asS'ui'
p558
(lp559
S'hs'
p560
ag524
ag524
ag524
ag560
aS'hp'
p561
ag561
ag560
aS'ss'
p562
ag561
ag524
ag561
ag561
ag560
ag524
ag561
ag561
ag524
ag524
ag562
ag561
ag561
ag524
ag560
ag524
ag561
ag560
ag561
ag561
ag561
ag561
ag561
ag560
ag524
ag561
ag561
ag561
ag524
ag524
ag524
ag524
ag560
ag524
ag561
ag524
ag561
ag524
ag524
ag560
ag561
ag561
ag561
ag560
ag561
ag561
ag524
ag524
ag560
ag561
ag524
ag524
ag560
ag560
ag561
ag560
ag560
ag561
ag560
ag561
ag524
ag561
ag561
ag561
ag561
ag524
ag560
ag560
ag560
ag561
ag524
ag561
ag560
ag524
ag561
ag560
ag524
ag560
ag524
ag560
ag560
ag560
ag560
ag560
ag561
ag561
ag560
ag524
ag524
ag561
ag561
ag561
ag561
ag524
ag524
ag561
ag560
ag560
ag561
ag560
ag524
ag562
ag524
ag561
ag560
ag561
ag524
ag561
ag524
ag561
ag562
ag562
ag560
ag524
ag561
ag561
ag561
ag561
ag561
ag560
ag560
ag560
ag561
ag524
ag524
ag562
ag562
ag561
ag560
ag562
ag524
ag561
ag561
ag524
ag561
ag524
ag524
ag524
ag562
ag560
ag524
ag561
ag561
ag560
ag524
ag524
ag524
asS'um_before'
p563
(lp564
g560
ag524
ag560
ag561
ag524
ag561
ag561
ag560
ag562
ag562
ag524
ag562
ag561
ag561
ag560
ag524
ag562
ag560
ag524
ag562
ag561
ag561
ag561
ag561
ag561
ag524
ag562
ag561
ag560
ag560
ag562
ag524
ag560
ag562
ag561
ag560
ag560
ag561
ag561
ag562
ag560
ag561
ag524
ag562
ag561
ag524
ag560
ag561
ag560
ag524
ag560
ag524
ag562
ag561
ag561
ag561
ag524
ag560
ag560
ag561
ag524
ag560
ag560
ag561
ag560
ag560
ag561
ag562
ag560
ag561
ag524
ag560
ag524
ag561
ag562
ag560
ag561
ag560
ag560
ag524
ag561
ag560
ag524
ag561
ag560
ag560
ag562
ag524
ag562
ag560
ag560
ag560
ag560
ag524
ag560
ag560
ag560
ag524
ag560
ag524
ag560
ag560
ag561
ag524
ag524
ag562
ag560
ag560
ag560
ag562
ag524
ag524
ag561
ag560
ag561
ag524
ag561
ag560
ag562
ag561
ag562
ag560
ag524
ag562
ag560
ag561
ag560
ag561
ag560
ag561
ag560
ag561
ag560
ag524
ag562
ag562
ag561
ag562
ag562
ag524
ag561
ag561
ag561
ag562
ag561
ag561
ag524
ag562
ag560
ag524
ag560
ag561
ag560
ag560
ag561
ag524
asS'um_after'
p565
(lp566
g560
ag524
aNag561
ag524
ag561
aNag560
ag562
ag562
aNag562
ag561
aNag560
aNag562
aNaNag562
ag561
aNaNaNaNag524
ag562
aNag560
aNag562
aNaNag562
ag561
ag560
aNag561
aNag562
ag560
ag561
ag524
ag562
aNag524
aNag561
ag560
aNaNaNag562
aNaNaNag524
aNaNag561
ag524
aNaNag561
ag560
aNag561
ag562
ag560
aNag524
aNaNag561
ag562
ag560
aNag560
aNaNag561
ag560
aNag561
ag560
aNag562
ag524
ag562
ag560
aNaNaNaNaNaNaNaNaNaNaNaNag561
ag524
aNag562
ag560
aNaNag562
aNaNag561
ag560
ag561
ag524
ag561
ag560
ag562
aNag562
ag560
aNag562
aNag561
ag560
ag561
ag560
ag561
ag560
ag561
ag560
aNag562
ag562
ag561
ag562
ag562
ag524
ag561
aNaNag562
ag561
aNag524
aNag560
ag524
aNag561
ag560
aNag561
ag524
asS'is_normalized_entropy_less_than_threshold'
p567
(lp568
g49
(g50
(S'b1'
p569
I0
I1
tp570
Rp571
(I3
S'|'
p572
NNNI-1
I-1
I0
tp573
bS'\x01'
p574
tp575
Rp576
ag576
ag576
ag576
ag576
ag576
ag576
ag576
ag49
(g571
S'\x00'
p577
tp578
Rp579
ag579
ag576
ag579
ag576
ag576
ag576
ag576
ag579
ag576
ag576
ag579
ag576
ag576
ag576
ag576
ag576
ag576
ag579
ag576
ag576
ag576
ag579
ag576
ag576
ag579
ag576
ag576
ag576
ag576
ag576
ag579
ag576
ag576
ag576
ag579
ag576
ag576
ag576
ag576
ag576
ag576
ag576
ag576
ag579
ag576
ag576
ag576
ag576
ag576
ag576
ag576
ag576
ag576
ag576
ag576
ag576
ag576
ag576
ag579
ag576
ag576
ag576
ag576
ag576
ag576
ag579
ag576
ag576
ag576
ag576
ag576
ag576
ag576
ag576
ag576
ag576
ag576
ag579
ag576
ag579
ag576
ag576
ag576
ag576
ag576
ag576
ag576
ag576
ag576
ag576
ag576
ag576
ag576
ag576
ag576
ag576
ag579
ag576
ag576
ag576
ag579
ag576
ag576
ag576
ag576
ag576
ag576
ag576
ag576
ag579
ag576
ag579
ag576
ag576
ag579
ag576
ag576
ag576
ag576
ag576
ag576
ag576
ag576
ag576
ag576
ag579
ag579
ag576
ag579
ag579
ag576
ag576
ag576
ag576
ag579
ag576
ag576
ag576
ag576
ag576
ag576
ag576
ag576
ag576
ag576
ag576
ag576
asaa(lp580
S'index'
p581
aI20535
aatp582
Rp583
.