ccollections
OrderedDict
p0
((lp1
(lp2
S'combination_dict'
p3
ag0
((lp4
(lp5
S'r_to_g_config'
p6
aS'bl'
p7
aa(lp8
S'num_turns'
p9
aI3
aa(lp10
S'start_direction'
p11
acutils_ms
StartDirection
p12
(I1
tp13
Rp14
aa(lp15
S'assistance_type'
p16
acutils_ms
AssistanceType
p17
(I1
tp18
Rp19
aa(lp20
S'start_mode'
p21
aS'x'
p22
aa(lp23
S'ui_given_a_noise'
p24
aF0.7
aa(lp25
S'um_given_ui_noise'
p26
aF0.3
aa(lp27
S'entropy_threshold'
p28
aF0.5
aatp29
Rp30
aa(lp31
S'data'
p32
accollections
defaultdict
p33
(c__builtin__
list
p34
tp35
Rp36
S'a'
p37
(lp38
S'mode_r'
p39
aS'move_n'
p40
aS'mode_l'
p41
ag41
ag40
ag41
ag39
ag39
ag39
ag39
ag40
ag41
ag41
ag40
ag39
ag39
ag39
ag39
ag39
ag40
ag39
ag39
ag41
ag41
ag41
ag41
ag41
ag41
ag41
ag40
ag39
ag41
aS'move_p'
p42
ag42
ag39
ag42
ag41
ag42
ag41
ag42
ag39
ag41
ag42
ag39
ag42
ag39
ag40
ag41
ag40
asS'assistance_match_with_ground_truth'
p43
(lp44
I01
aI00
aI00
aI01
aI00
aI00
aI00
aI00
aI00
aI01
aI01
aI00
aI01
aI00
aI00
aI00
aI00
aI00
aI01
aI01
aI00
aI00
aI00
aI00
aI00
aI00
aI00
aI00
aI01
aI01
aI00
aI01
aI00
aI01
aI00
aI00
aI01
aI00
aI01
aI00
aI00
aI01
aI00
aI01
aI01
aI01
aI00
aI01
aI01
asS'is_u_intended_equals_um'
p45
(lp46
I01
aI01
aI00
aI01
aI01
aI01
aI01
aI01
aI01
aI01
aI01
aI00
aI01
aI01
aI01
aI01
aI01
aI01
aI01
aI01
aI01
aI00
aI00
aI01
aI00
aI01
aI00
aI00
aI01
aI01
aI00
aI01
aI01
aI01
aI01
aI01
aI01
aI01
aI01
aI01
aI00
aI01
aI01
aI01
aI01
aI01
aI01
aI01
aI01
asS'total_steps'
p47
I49
sS'normalized_h_of_p_ui_given_um'
p48
(lp49
cnumpy.core.multiarray
scalar
p50
(cnumpy
dtype
p51
(S'f8'
p52
I0
I1
tp53
Rp54
(I3
S'<'
p55
NNNI-1
I-1
I0
tp56
bS'\x87;\x8c\xbb\x11\xff\xd3?'
p57
tp58
Rp59
ag50
(g54
S'\xa9j9@\xf9\xc1\xe3?'
p60
tp61
Rp62
ag50
(g54
S'\x80\xee\xad*P\xac\xed?'
p63
tp64
Rp65
ag50
(g54
S'\xc1B1i$\x1c\xd3?'
p66
tp67
Rp68
ag50
(g54
S'\xa9j9@\xf9\xc1\xe3?'
p69
tp70
Rp71
ag50
(g54
S'n[ \x18\x1f\xee\xe5?'
p72
tp73
Rp74
ag50
(g54
S'b\xac\x13)\xac\xc6\xe4?'
p75
tp76
Rp77
ag50
(g54
S'b\xac\x13)\xac\xc6\xe4?'
p78
tp79
Rp80
ag50
(g54
S'b\xac\x13)\xac\xc6\xe4?'
p81
tp82
Rp83
ag50
(g54
S'\x87;\x8c\xbb\x11\xff\xd3?'
p84
tp85
Rp86
ag50
(g54
S'(\xab\x81\x14\xbd\x8d\xd5?'
p87
tp88
Rp89
ag50
(g54
S'\x80\xee\xad*P\xac\xed?'
p90
tp91
Rp92
ag50
(g54
S'\xc1B1i$\x1c\xd3?'
p93
tp94
Rp95
ag50
(g54
S'\xc5Zd\xfaG\xa9\xe6?'
p96
tp97
Rp98
ag50
(g54
S'b\xac\x13)\xac\xc6\xe4?'
p99
tp100
Rp101
ag50
(g54
S'b\xac\x13)\xac\xc6\xe4?'
p102
tp103
Rp104
ag50
(g54
S'\x1d5\x03\xb9$r\xe4?'
p105
tp106
Rp107
ag50
(g54
S'\x1d5\x03\xb9$r\xe4?'
p108
tp109
Rp110
ag50
(g54
S'\x87;\x8c\xbb\x11\xff\xd3?'
p111
tp112
Rp113
ag50
(g54
S'(\xab\x81\x14\xbd\x8d\xd5?'
p114
tp115
Rp116
ag50
(g54
S'b\xac\x13)\xac\xc6\xe4?'
p117
tp118
Rp119
ag50
(g54
S'\xf1\xd0\x84\xe0U\x9c\xec?'
p120
tp121
Rp122
ag50
(g54
S'\x80\xee\xad*P\xac\xed?'
p123
tp124
Rp125
ag50
(g54
S"\x9d\xe3\x92\xf6\xc8'\xdf?"
p126
tp127
Rp128
ag50
(g54
S'\x80\xee\xad*P\xac\xed?'
p129
tp130
Rp131
ag50
(g54
S"\x9d\xe3\x92\xf6\xc8'\xdf?"
p132
tp133
Rp134
ag50
(g54
S'\x80\xee\xad*P\xac\xed?'
p135
tp136
Rp137
ag50
(g54
S'\x80\xee\xad*P\xac\xed?'
p138
tp139
Rp140
ag50
(g54
S'\xc1B1i$\x1c\xd3?'
p141
tp142
Rp143
ag50
(g54
S'(\xab\x81\x14\xbd\x8d\xd5?'
p144
tp145
Rp146
ag50
(g54
S'\xf1\xd0\x84\xe0U\x9c\xec?'
p147
tp148
Rp149
ag50
(g54
S'\xc1B1i$\x1c\xd3?'
p150
tp151
Rp152
ag50
(g54
S'\xe3\xda\xdfp\xde\xb9\xe9?'
p153
tp154
Rp155
ag50
(g54
S' yz\x03\xa6\xad\xcf?'
p156
tp157
Rp158
ag50
(g54
S'b\xac\x13)\xac\xc6\xe4?'
p159
tp160
Rp161
ag50
(g54
S'\xc6\xd2dt5\xd0\xe8?'
p162
tp163
Rp164
ag50
(g54
S'\xc1B1i$\x1c\xd3?'
p165
tp166
Rp167
ag50
(g54
S'\xc6\xd2dt5\xd0\xe8?'
p168
tp169
Rp170
ag50
(g54
S'\xc1B1i$\x1c\xd3?'
p171
tp172
Rp173
ag50
(g54
S"n'\xc2U\x1a\xe5\xea?"
p174
tp175
Rp176
ag50
(g54
S'\xf1\xd0\x84\xe0U\x9c\xec?'
p177
tp178
Rp179
ag50
(g54
S'\xc1B1i$\x1c\xd3?'
p180
tp181
Rp182
ag50
(g54
S"n'\xc2U\x1a\xe5\xea?"
p183
tp184
Rp185
ag50
(g54
S'\x87;\x8c\xbb\x11\xff\xd3?'
p186
tp187
Rp188
ag50
(g54
S' yz\x03\xa6\xad\xcf?'
p189
tp190
Rp191
ag50
(g54
S'\x87;\x8c\xbb\x11\xff\xd3?'
p192
tp193
Rp194
ag50
(g54
S'\xa9j9@\xf9\xc1\xe3?'
p195
tp196
Rp197
ag50
(g54
S'\xc1B1i$\x1c\xd3?'
p198
tp199
Rp200
ag50
(g54
S'(\xab\x81\x14\xbd\x8d\xd5?'
p201
tp202
Rp203
asS'sp'
p204
(lp205
(S'p0'
p206
I0
S'y'
p207
tp208
a(g206
I0
S't'
p209
tp210
a(g206
I0
g209
tp211
a(g206
I0
g207
tp212
ag210
a(g206
I0
S'x'
p213
tp214
a(g206
I0
g213
tp215
ag215
ag215
ag208
a(S'p1'
p216
I0
g207
tp217
a(g216
I0
g207
tp218
a(g216
I0
g213
tp219
a(g216
I0
g209
tp220
a(g216
I0
g209
tp221
ag221
a(g216
I0
g209
tp222
ag222
a(g216
I0
g213
tp223
a(S'p2'
p224
I0
g213
tp225
a(g224
I0
g213
tp226
a(g224
I0
g209
tp227
a(g224
I0
g209
tp228
a(g224
I0
g209
tp229
ag228
ag229
ag228
ag228
a(g224
I0
g207
tp230
a(S'p3'
p231
I0
g207
tp232
a(g231
I0
g213
tp233
a(g231
I0
g209
tp234
a(g231
I0
g209
tp235
a(g231
F1.5707963267948966
g209
tp236
a(g231
I0
g209
tp237
a(g231
I0
g213
tp238
ag234
ag238
ag234
a(g231
I0
g207
tp239
ag233
ag234
ag239
a(g231
I0
g209
tp240
ag236
a(g231
F1.5707963267948966
g213
tp241
a(g231
F1.5707963267948966
g207
tp242
a(g231
F1.5707963267948966
g213
tp243
a(S'p4'
p244
F1.5707963267948966
g213
tp245
asS's'
p246
(lp247
(g206
I0
g22
tp248
ag208
ag210
ag211
ag212
ag210
ag214
ag215
ag215
ag215
ag208
ag217
ag218
ag219
ag220
ag221
ag221
ag222
ag222
ag223
ag225
ag226
ag227
ag228
ag229
ag228
ag229
ag228
ag228
ag230
ag232
ag233
ag234
ag235
ag236
ag237
ag238
ag234
ag238
ag234
ag239
ag233
ag234
ag239
ag240
ag236
ag241
ag242
ag243
asS'ui'
p249
(lp250
S'hp'
p251
ag251
aS'hs'
p252
ag252
ag251
ag252
aS'ss'
p253
ag253
ag253
ag251
ag253
ag252
ag252
ag252
ag251
ag252
ag251
ag204
ag251
ag253
ag251
ag253
ag252
ag204
ag253
ag204
ag204
ag204
ag252
ag253
ag253
ag252
ag253
ag204
ag253
ag251
ag252
ag251
ag252
ag204
ag253
ag252
ag204
ag251
ag204
ag251
ag251
ag252
ag253
asS'um_before'
p254
(lp255
g251
ag251
ag253
ag252
ag251
ag251
ag253
ag253
ag253
ag251
ag253
ag253
ag252
ag252
ag253
ag253
ag204
ag204
ag251
ag253
ag253
ag252
ag253
ag204
ag253
ag204
ag253
ag253
ag252
ag253
ag252
ag252
ag253
ag204
ag253
ag251
ag252
ag251
ag252
ag252
ag252
ag252
ag252
ag251
ag204
ag251
ag251
ag252
ag253
asS'um_after'
p256
(lp257
g251
ag251
ag253
ag252
ag251
ag251
ag253
ag253
ag253
ag251
ag253
ag253
ag252
ag252
ag253
ag253
ag204
ag204
ag251
ag253
ag253
ag252
ag253
ag204
ag253
ag204
ag253
ag253
ag252
ag253
ag252
ag252
ag253
ag204
ag253
ag251
ag252
ag251
ag252
ag252
ag252
ag252
ag252
ag251
ag204
ag251
ag251
ag252
ag253
asS'is_normalized_entropy_less_than_threshold'
p258
(lp259
g50
(g51
(S'b1'
p260
I0
I1
tp261
Rp262
(I3
S'|'
p263
NNNI-1
I-1
I0
tp264
bS'\x01'
p265
tp266
Rp267
ag50
(g262
S'\x00'
p268
tp269
Rp270
ag270
ag267
ag270
ag270
ag270
ag270
ag270
ag267
ag267
ag270
ag267
ag270
ag270
ag270
ag270
ag270
ag267
ag267
ag270
ag270
ag270
ag267
ag270
ag267
ag270
ag270
ag267
ag267
ag270
ag267
ag270
ag267
ag270
ag270
ag267
ag270
ag267
ag270
ag270
ag267
ag270
ag267
ag267
ag267
ag270
ag267
ag267
asaa(lp271
S'index'
p272
aI83851
aatp273
Rp274
.