ccollections
OrderedDict
p0
((lp1
(lp2
S'combination_dict'
p3
ag0
((lp4
(lp5
S'r_to_g_config'
p6
aS'tl'
p7
aa(lp8
S'num_turns'
p9
aI2
aa(lp10
S'start_direction'
p11
acutils_ms
StartDirection
p12
(I1
tp13
Rp14
aa(lp15
S'assistance_type'
p16
acutils_ms
AssistanceType
p17
(I0
tp18
Rp19
aa(lp20
S'start_mode'
p21
aS't'
p22
aa(lp23
S'ui_given_a_noise'
p24
aF0.5
aa(lp25
S'um_given_ui_noise'
p26
aF0.7
aa(lp27
S'entropy_threshold'
p28
aF0.9
aatp29
Rp30
aa(lp31
S'data'
p32
accollections
defaultdict
p33
(c__builtin__
list
p34
tp35
Rp36
S'a'
p37
(lp38
S'mode_l'
p39
ag39
ag39
ag39
aS'move_p'
p40
ag40
ag40
aS'mode_r'
p41
ag41
ag40
ag41
ag41
ag40
ag41
ag41
aS'move_n'
p42
ag39
ag42
ag41
ag41
ag41
ag41
ag40
ag40
asS'assistance_match_with_ground_truth'
p43
(lp44
I00
aI00
aI00
aI01
aI00
aI00
aI01
aI00
aI01
aI00
aI00
aI01
aI01
aI00
aI01
aI00
aI01
aI01
aI00
aI00
aI00
aI01
aI00
aI01
asS'is_u_intended_equals_um'
p45
(lp46
I00
aI00
aI00
aI01
aI00
aI00
aI01
aI00
aI01
aI01
aI00
aI01
aI01
aI00
aI01
aI01
aI01
aI01
aI00
aI00
aI00
aI01
aI00
aI01
asS'total_steps'
p47
I24
sS'normalized_h_of_p_ui_given_um'
p48
(lp49
cnumpy.core.multiarray
scalar
p50
(cnumpy
dtype
p51
(S'f8'
p52
I0
I1
tp53
Rp54
(I3
S'<'
p55
NNNI-1
I-1
I0
tp56
bS'\t|Z\xb4yh\xe1?'
p57
tp58
Rp59
ag50
(g54
S'\t|Z\xb4yh\xe1?'
p60
tp61
Rp62
ag50
(g54
S'\xf2\x02\xde\x19\xd4\xaa\xe7?'
p63
tp64
Rp65
ag50
(g54
S'\xbc \xf2(\x109\xdb?'
p66
tp67
Rp68
ag50
(g54
S'\x01\xa8\x0e\x89#\x16\xee?'
p69
tp70
Rp71
ag50
(g54
S"\xed7\xd5\x91\xc6'\xe3?"
p72
tp73
Rp74
ag50
(g54
S'\xf3~\xdb\xd9Kg\xe6?'
p75
tp76
Rp77
ag50
(g54
S'\xa6G\xf0\xc5\xc1\x8c\xe8?'
p78
tp79
Rp80
ag50
(g54
S'rv\xee6\x9b\x13\xd3?'
p81
tp82
Rp83
ag50
(g54
S'\xb9\xa3\x0c\x9aW?\xeb?'
p84
tp85
Rp86
ag50
(g54
S'\xa6G\xf0\xc5\xc1\x8c\xe8?'
p87
tp88
Rp89
ag50
(g54
S'rv\xee6\x9b\x13\xd3?'
p90
tp91
Rp92
ag50
(g54
S'\xf3~\xdb\xd9Kg\xe6?'
p93
tp94
Rp95
ag50
(g54
S'\x18\x0c\xed\xda\x8fO\xe4?'
p96
tp97
Rp98
ag50
(g54
S'rv\xee6\x9b\x13\xd3?'
p99
tp100
Rp101
ag50
(g54
S"d*:BH'\xe3?"
p102
tp103
Rp104
ag50
(g54
S'\xbc \xf2(\x109\xdb?'
p105
tp106
Rp107
ag50
(g54
S'gw\xbaB\x03\xeb\xdc?'
p108
tp109
Rp110
ag50
(g54
S'\x18\x0c\xed\xda\x8fO\xe4?'
p111
tp112
Rp113
ag50
(g54
S'\xa6G\xf0\xc5\xc1\x8c\xe8?'
p114
tp115
Rp116
ag50
(g54
S'T\x00\xda\x19\x98\x96\xe4?'
p117
tp118
Rp119
ag50
(g54
S'rv\xee6\x9b\x13\xd3?'
p120
tp121
Rp122
ag50
(g54
S"\xed7\xd5\x91\xc6'\xe3?"
p123
tp124
Rp125
ag50
(g54
S'\xf3~\xdb\xd9Kg\xe6?'
p126
tp127
Rp128
asS'sp'
p129
(lp130
(S'p0'
p131
I0
g22
tp132
ag132
ag132
a(g131
I0
S'y'
p133
tp134
a(g131
I0
g133
tp135
ag135
a(S'p1'
p136
I0
g133
tp137
ag137
a(g136
I0
S't'
p138
tp139
a(g136
I0
g133
tp140
ag140
ag139
a(g136
F1.5707963267948966
g138
tp141
ag141
a(g136
F1.5707963267948966
S'x'
p142
tp143
a(g136
F1.5707963267948966
g133
tp144
a(g136
F1.5707963267948966
g142
tp145
a(S'p2'
p146
F1.5707963267948966
g142
tp147
ag147
ag147
ag147
a(g146
F1.5707963267948966
g133
tp148
ag148
a(S'p3'
p149
F1.5707963267948966
g133
tp150
asS's'
p151
(lp152
g132
ag132
ag132
ag132
ag134
ag135
ag135
ag137
ag137
ag139
ag140
ag140
ag139
ag141
ag141
ag143
ag144
ag145
ag147
ag147
ag147
ag147
ag148
ag148
asS'ui'
p153
(lp154
S'hs'
p155
ag155
ag129
ag155
aS'hp'
p156
ag156
ag156
ag155
ag156
ag156
aS'ss'
p157
ag156
ag155
ag156
ag156
ag157
ag155
ag157
ag156
ag156
ag156
ag129
ag156
ag129
asS'um_before'
p158
(lp159
g129
ag129
ag157
ag155
ag157
ag156
ag129
ag155
ag156
ag155
ag155
ag156
ag129
ag129
ag156
ag156
ag155
ag157
ag129
ag155
ag157
ag156
ag156
ag129
asS'um_after'
p160
(lp161
NaNaNag155
ag157
aNag129
aNag156
ag155
aNag156
ag129
aNag156
ag156
ag155
ag157
aNaNaNag156
aNag129
asS'is_normalized_entropy_less_than_threshold'
p162
(lp163
g50
(g51
(S'b1'
p164
I0
I1
tp165
Rp166
(I3
S'|'
p167
NNNI-1
I-1
I0
tp168
bS'\x01'
p169
tp170
Rp171
ag171
ag171
ag171
ag50
(g166
S'\x00'
p172
tp173
Rp174
ag171
ag171
ag171
ag171
ag171
ag171
ag171
ag171
ag171
ag171
ag171
ag171
ag171
ag171
ag171
ag171
ag171
ag171
ag171
asaa(lp175
S'index'
p176
aI44591
aatp177
Rp178
.