ccollections
OrderedDict
p0
((lp1
(lp2
S'combination_dict'
p3
ag0
((lp4
(lp5
S'r_to_g_config'
p6
aS'br'
p7
aa(lp8
S'num_turns'
p9
aI3
aa(lp10
S'start_direction'
p11
acutils_ms
StartDirection
p12
(I1
tp13
Rp14
aa(lp15
S'assistance_type'
p16
acutils_ms
AssistanceType
p17
(I2
tp18
Rp19
aa(lp20
S'start_mode'
p21
aS't'
p22
aa(lp23
S'ui_given_a_noise'
p24
aF0.3
aa(lp25
S'um_given_ui_noise'
p26
aF0.7
aa(lp27
S'entropy_threshold'
p28
aF0.7
aatp29
Rp30
aa(lp31
S'data'
p32
accollections
defaultdict
p33
(c__builtin__
list
p34
tp35
Rp36
S'a'
p37
(lp38
S'mode_l'
p39
ag39
aS'move_n'
p40
ag40
aS'mode_r'
p41
ag39
ag41
aS'move_p'
p42
ag41
ag39
ag41
ag39
ag42
ag39
ag41
ag41
ag39
ag39
ag40
ag41
ag39
ag42
ag42
ag41
ag41
ag41
ag41
ag41
ag41
ag42
ag39
ag42
ag42
ag41
ag39
ag42
ag41
ag40
ag39
ag42
ag39
ag41
ag42
ag41
ag41
ag42
ag41
ag40
ag39
ag39
ag39
ag41
ag42
ag41
ag41
ag42
ag41
ag42
ag41
ag42
ag41
ag42
ag41
ag41
ag41
ag41
ag40
ag39
ag41
ag39
ag42
asS'assistance_match_with_ground_truth'
p43
(lp44
I00
aI01
aI00
aI01
aI00
aI00
aI01
aI00
aI00
aI00
aI00
aI01
aI00
aI00
aI00
aI00
aI00
aI01
aI00
aI00
aI01
aI00
aI00
aI00
aI00
aI00
aI00
aI00
aI01
aI00
aI01
aI00
aI01
aI00
aI01
aI01
aI01
aI01
aI01
aI00
aI00
aI01
aI00
aI00
aI01
aI00
aI01
aI00
aI00
aI00
aI00
aI01
aI00
aI00
aI00
aI01
aI00
aI01
aI01
aI00
aI01
aI01
aI00
aI00
aI00
aI01
aI01
aI00
aI00
aI01
aI01
asS'is_u_intended_equals_um'
p45
(lp46
I01
aI01
aI01
aI01
aI01
aI01
aI01
aI01
aI01
aI01
aI01
aI01
aI01
aI01
aI01
aI01
aI01
aI01
aI01
aI01
aI01
aI01
aI01
aI01
aI01
aI01
aI01
aI01
aI01
aI01
aI01
aI01
aI01
aI01
aI01
aI01
aI01
aI01
aI01
aI01
aI01
aI01
aI01
aI01
aI01
aI01
aI01
aI01
aI01
aI01
aI01
aI01
aI01
aI01
aI01
aI01
aI01
aI01
aI01
aI01
aI01
aI01
aI01
aI01
aI01
aI01
aI01
aI01
aI01
aI01
aI01
asS'total_steps'
p47
I71
sS'normalized_h_of_p_ui_given_um'
p48
(lp49
cnumpy.core.multiarray
scalar
p50
(cnumpy
dtype
p51
(S'f8'
p52
I0
I1
tp53
Rp54
(I3
S'<'
p55
NNNI-1
I-1
I0
tp56
bS'[Dj\xb2fs\xd9?'
p57
tp58
Rp59
ag59
ag59
ag59
ag59
ag59
ag59
ag59
ag59
ag59
ag59
ag59
ag59
ag59
ag59
ag59
ag59
ag59
ag59
ag59
ag59
ag59
ag59
ag59
ag59
ag59
ag59
ag59
ag59
ag59
ag59
ag59
ag59
ag59
ag59
ag59
ag59
ag59
ag59
ag59
ag59
ag59
ag59
ag59
ag59
ag59
ag59
ag59
ag59
ag59
ag59
ag59
ag59
ag59
ag59
ag59
ag59
ag59
ag59
ag59
ag59
ag59
ag59
ag59
ag59
ag59
ag59
ag59
ag59
ag59
ag59
asS'sp'
p60
(lp61
(S'p0'
p62
I0
S't'
p63
tp64
a(g62
I0
S'y'
p65
tp66
a(g62
I0
g65
tp67
a(S'p1'
p68
I0
g65
tp69
a(g68
I0
S'x'
p70
tp71
a(g68
I0
g65
tp72
a(g68
I0
g63
tp73
a(g68
I0
g65
tp74
ag71
ag72
ag71
a(g68
I0
g63
tp75
a(g68
I0
g70
tp76
a(S'p2'
p77
I0
g70
tp78
a(g77
I0
g70
tp79
a(g77
I0
g63
tp80
a(g77
I0
g63
tp81
a(g77
I0
g65
tp82
a(g68
I0
g65
tp83
ag71
ag75
a(g68
I0
g63
tp84
ag74
a(g68
I0
g65
tp85
ag85
ag85
ag85
ag85
ag73
ag76
ag75
ag84
a(g68
F1.5707963267948966
g63
tp86
a(g68
F1.5707963267948966
g65
tp87
a(g68
F1.5707963267948966
g70
tp88
a(g77
F1.5707963267948966
g70
tp89
a(g77
F1.5707963267948966
g65
tp90
a(S'p3'
p91
F1.5707963267948966
g65
tp92
a(g91
F1.5707963267948966
g70
tp93
a(g91
F1.5707963267948966
g65
tp94
a(g91
F1.5707963267948966
g63
tp95
a(g91
F1.5707963267948966
g70
tp96
a(g91
F1.5707963267948966
g63
tp97
a(g91
F1.5707963267948966
g63
tp98
ag96
a(g77
F1.5707963267948966
g70
tp99
ag90
a(g68
F1.5707963267948966
g65
tp100
a(g68
F1.5707963267948966
g65
tp101
ag101
a(g68
F1.5707963267948966
g63
tp102
a(g68
F1.5707963267948966
g70
tp103
a(g68
F1.5707963267948966
g63
tp104
a(g68
F1.5707963267948966
g63
tp105
a(g68
I0
g63
tp106
ag86
ag106
ag86
ag103
ag104
ag103
ag89
a(g77
F1.5707963267948966
g70
tp107
a(g77
F1.5707963267948966
g70
tp108
ag108
ag90
ag92
ag95
a(g91
F1.5707963267948966
g65
tp109
ag93
a(S'p4'
p110
F1.5707963267948966
g70
tp111
asS's'
p112
(lp113
(g62
I0
g22
tp114
ag64
ag66
ag67
ag69
ag71
ag72
ag73
ag74
ag71
ag72
ag71
ag75
ag76
ag78
ag79
ag80
ag81
ag82
ag83
ag71
ag75
ag84
ag74
ag85
ag85
ag85
ag85
ag85
ag73
ag76
ag75
ag84
ag86
ag87
ag88
ag89
ag90
ag92
ag93
ag94
ag95
ag96
ag97
ag98
ag96
ag99
ag90
ag100
ag101
ag101
ag102
ag103
ag104
ag105
ag106
ag86
ag106
ag86
ag103
ag104
ag103
ag89
ag107
ag108
ag108
ag90
ag92
ag95
ag109
ag93
asS'ui'
p115
(lp116
S'hs'
p117
aS'hp'
p118
aS'ss'
p119
ag119
ag118
ag118
ag117
ag119
ag118
ag117
ag119
ag117
ag60
ag117
ag119
ag117
ag119
ag118
ag119
ag119
ag117
ag60
ag60
ag117
ag60
ag118
ag118
ag119
ag118
ag118
ag118
ag118
ag60
ag117
ag117
ag60
ag118
ag119
ag117
ag118
ag118
ag118
ag60
ag117
ag117
ag60
ag118
ag119
ag119
ag119
ag118
ag118
ag60
ag60
ag118
ag117
ag119
ag119
ag117
ag119
ag118
ag117
ag60
ag119
ag60
ag118
ag119
ag118
ag118
ag117
ag117
asS'um_before'
p120
(lp121
g60
ag117
ag60
ag119
ag117
ag118
ag118
ag117
ag117
ag118
ag117
ag117
ag118
ag60
ag119
ag117
ag60
ag117
ag60
ag117
ag117
ag119
ag117
ag119
ag119
ag119
ag119
ag119
ag118
ag118
ag117
ag119
ag60
ag117
ag117
ag60
ag118
ag119
ag117
ag118
ag118
ag118
ag117
ag119
ag118
ag119
ag118
ag60
ag119
ag119
ag118
ag118
ag117
ag60
ag119
ag60
ag119
ag60
ag118
ag117
ag118
ag60
ag60
ag119
ag119
ag118
ag119
ag118
ag117
ag117
ag60
asS'um_after'
p122
(lp123
g60
ag117
ag60
ag119
ag117
ag118
ag118
ag117
ag117
ag118
ag117
ag117
ag118
ag60
ag119
ag117
ag60
ag117
ag60
ag117
ag117
ag119
ag117
ag119
ag119
ag119
ag119
ag119
ag118
ag118
ag117
ag119
ag60
ag117
ag117
ag60
ag118
ag119
ag117
ag118
ag118
ag118
ag117
ag119
ag118
ag119
ag118
ag60
ag119
ag119
ag118
ag118
ag117
ag60
ag119
ag60
ag119
ag60
ag118
ag117
ag118
ag60
ag60
ag119
ag119
ag118
ag119
ag118
ag117
ag117
ag60
asS'is_normalized_entropy_less_than_threshold'
p124
(lp125
g50
(g51
(S'b1'
p126
I0
I1
tp127
Rp128
(I3
S'|'
p129
NNNI-1
I-1
I0
tp130
bS'\x01'
p131
tp132
Rp133
ag133
ag133
ag133
ag133
ag133
ag133
ag133
ag133
ag133
ag133
ag133
ag133
ag133
ag133
ag133
ag133
ag133
ag133
ag133
ag133
ag133
ag133
ag133
ag133
ag133
ag133
ag133
ag133
ag133
ag133
ag133
ag133
ag133
ag133
ag133
ag133
ag133
ag133
ag133
ag133
ag133
ag133
ag133
ag133
ag133
ag133
ag133
ag133
ag133
ag133
ag133
ag133
ag133
ag133
ag133
ag133
ag133
ag133
ag133
ag133
ag133
ag133
ag133
ag133
ag133
ag133
ag133
ag133
ag133
ag133
asaa(lp134
S'index'
p135
aI114777
aatp136
Rp137
.