ccollections
OrderedDict
p0
((lp1
(lp2
S'combination_dict'
p3
ag0
((lp4
(lp5
S'r_to_g_config'
p6
aS'tr'
p7
aa(lp8
S'num_turns'
p9
aI3
aa(lp10
S'start_direction'
p11
acutils_ms
StartDirection
p12
(I0
tp13
Rp14
aa(lp15
S'assistance_type'
p16
acutils_ms
AssistanceType
p17
(I1
tp18
Rp19
aa(lp20
S'start_mode'
p21
aS'y'
p22
aa(lp23
S'ui_given_a_noise'
p24
aF0.3
aa(lp25
S'um_given_ui_noise'
p26
aF0.7
aa(lp27
S'entropy_threshold'
p28
aF0.5
aatp29
Rp30
aa(lp31
S'data'
p32
accollections
defaultdict
p33
(c__builtin__
list
p34
tp35
Rp36
S'a'
p37
(lp38
S'mode_l'
p39
aS'move_p'
p40
ag40
aS'mode_r'
p41
ag41
ag40
ag39
ag40
ag39
ag41
ag40
ag41
ag39
ag39
ag41
ag39
ag40
ag39
ag41
ag41
ag40
ag41
ag40
ag41
ag40
asS'assistance_match_with_ground_truth'
p42
(lp43
I01
aI00
aI00
aI00
aI01
aI01
aI01
aI01
aI00
aI01
aI00
aI00
aI00
aI00
aI00
aI01
aI01
aI00
aI00
aI01
aI01
aI01
aI00
aI01
aI01
asS'is_u_intended_equals_um'
p44
(lp45
I01
aI00
aI00
aI00
aI01
aI00
aI01
aI00
aI00
aI01
aI00
aI01
aI00
aI00
aI01
aI01
aI00
aI00
aI01
aI01
aI01
aI01
aI00
aI01
aI01
asS'total_steps'
p46
I25
sS'normalized_h_of_p_ui_given_um'
p47
(lp48
cnumpy.core.multiarray
scalar
p49
(cnumpy
dtype
p50
(S'f8'
p51
I0
I1
tp52
Rp53
(I3
S'<'
p54
NNNI-1
I-1
I0
tp55
bS'\x01Y\x06\xb3\xbbp\xde?'
p56
tp57
Rp58
ag49
(g53
S'G@s_\xad\x15\xe4?'
p59
tp60
Rp61
ag49
(g53
S'\x8a}4H\x8a\x9f\xe1?'
p62
tp63
Rp64
ag49
(g53
S'\xa7\xbb\xf5\xcf\xa5;\xe8?'
p65
tp66
Rp67
ag49
(g53
S'\xcc\xaa\xe21\xf7\x9d\xdb?'
p68
tp69
Rp70
ag49
(g53
S'\xf4%\xad\x0b<|\xdd?'
p71
tp72
Rp73
ag49
(g53
S'\x01Y\x06\xb3\xbbp\xde?'
p74
tp75
Rp76
ag49
(g53
S'\xf4%\xad\x0b<|\xdd?'
p77
tp78
Rp79
ag49
(g53
S'\x00;\xa8\x9c\x85\x94\xea?'
p80
tp81
Rp82
ag49
(g53
S'\xcc\xaa\xe21\xf7\x9d\xdb?'
p83
tp84
Rp85
ag49
(g53
S'\x8a}4H\x8a\x9f\xe1?'
p86
tp87
Rp88
ag49
(g53
S'\x13\x0e\xd5]*\xc9\xed?'
p89
tp90
Rp91
ag49
(g53
S'G\x9a\xbb\xfe\xca\x13\xea?'
p92
tp93
Rp94
ag49
(g53
S'\x00;\xa8\x9c\x85\x94\xea?'
p95
tp96
Rp97
ag49
(g53
S'\x13\x0e\xd5]*\xc9\xed?'
p98
tp99
Rp100
ag49
(g53
S'\x01Y\x06\xb3\xbbp\xde?'
p101
tp102
Rp103
ag49
(g53
S'\xf4%\xad\x0b<|\xdd?'
p104
tp105
Rp106
ag49
(g53
S'\x00;\xa8\x9c\x85\x94\xea?'
p107
tp108
Rp109
ag49
(g53
S'\n!\xc7\x14\xcf\xe0\xea?'
p110
tp111
Rp112
ag49
(g53
S'\xcc\xaa\xe21\xf7\x9d\xdb?'
p113
tp114
Rp115
ag49
(g53
S'\x01p\x08E\xea\x84\xd3?'
p116
tp117
Rp118
ag49
(g53
S'\xcc\xaa\xe21\xf7\x9d\xdb?'
p119
tp120
Rp121
ag49
(g53
S'\x8a}4H\x8a\x9f\xe1?'
p122
tp123
Rp124
ag49
(g53
S'\xcc\xaa\xe21\xf7\x9d\xdb?'
p125
tp126
Rp127
ag49
(g53
S'\x01p\x08E\xea\x84\xd3?'
p128
tp129
Rp130
asS'sp'
p131
(lp132
(S'p0'
p133
I0
S'x'
p134
tp135
a(g133
I0
g134
tp136
a(g133
I0
S't'
p137
tp138
a(g133
I0
g137
tp139
a(g133
I0
g134
tp140
a(S'p1'
p141
I0
g134
tp142
a(g141
I0
g137
tp143
a(g141
F1.5707963267948966
g137
tp144
a(g141
F1.5707963267948966
g134
tp145
a(g141
F1.5707963267948966
S'y'
p146
tp147
a(g141
F1.5707963267948966
g134
tp148
a(g141
F1.5707963267948966
g137
tp149
a(g141
F1.5707963267948966
g137
tp150
ag145
ag149
a(g141
F1.5707963267948966
g146
tp151
a(S'p2'
p152
F1.5707963267948966
g146
tp153
a(g152
F1.5707963267948966
g137
tp154
a(g152
F1.5707963267948966
g137
tp155
a(g152
F1.5707963267948966
g134
tp156
a(S'p3'
p157
F1.5707963267948966
g134
tp158
a(g157
F1.5707963267948966
g146
tp159
a(g157
F1.5707963267948966
g134
tp160
ag159
a(S'p4'
p161
F1.5707963267948966
g146
tp162
asS's'
p163
(lp164
(g133
I0
g22
tp165
ag135
ag136
ag138
ag139
ag140
ag142
ag143
ag144
ag145
ag147
ag148
ag149
ag150
ag145
ag149
ag151
ag153
ag154
ag155
ag156
ag158
ag159
ag160
ag159
asS'ui'
p166
(lp167
S'hs'
p168
ag131
ag131
ag168
aS'hp'
p169
ag131
aS'ss'
p170
ag131
ag131
ag169
ag169
ag131
ag170
ag169
ag169
ag168
ag169
ag169
ag170
ag131
ag131
ag169
ag131
ag169
ag131
asS'um_before'
p171
(lp172
g168
ag170
ag168
ag131
ag169
ag169
ag168
ag169
ag169
ag169
ag168
ag168
ag131
ag169
ag168
ag168
ag169
ag169
ag170
ag169
ag131
ag169
ag168
ag169
ag131
asS'um_after'
p173
(lp174
g168
ag170
ag168
ag131
ag169
ag131
ag168
ag131
ag169
ag169
ag168
ag168
ag131
ag169
ag168
ag168
ag131
ag169
ag170
ag169
ag131
ag169
ag168
ag169
ag131
asS'is_normalized_entropy_less_than_threshold'
p175
(lp176
g49
(g50
(S'b1'
p177
I0
I1
tp178
Rp179
(I3
S'|'
p180
NNNI-1
I-1
I0
tp181
bS'\x01'
p182
tp183
Rp184
ag49
(g179
S'\x00'
p185
tp186
Rp187
ag187
ag187
ag184
ag184
ag184
ag184
ag187
ag184
ag187
ag187
ag187
ag187
ag187
ag184
ag184
ag187
ag187
ag184
ag184
ag184
ag187
ag184
ag184
asaa(lp188
S'index'
p189
aI21951
aatp190
Rp191
.