ccollections
OrderedDict
p0
((lp1
(lp2
S'combination_dict'
p3
ag0
((lp4
(lp5
S'r_to_g_config'
p6
aS'tr'
p7
aa(lp8
S'num_turns'
p9
aI1
aa(lp10
S'start_direction'
p11
acutils_ms
StartDirection
p12
(I0
tp13
Rp14
aa(lp15
S'assistance_type'
p16
acutils_ms
AssistanceType
p17
(I0
tp18
Rp19
aa(lp20
S'start_mode'
p21
aS'y'
p22
aa(lp23
S'ui_given_a_noise'
p24
aF0.5
aa(lp25
S'um_given_ui_noise'
p26
aF0.5
aa(lp27
S'entropy_threshold'
p28
aF0.5
aatp29
Rp30
aa(lp31
S'data'
p32
accollections
defaultdict
p33
(c__builtin__
list
p34
tp35
Rp36
S'a'
p37
(lp38
S'mode_l'
p39
aS'mode_r'
p40
ag40
ag40
ag39
ag39
ag39
ag39
ag40
aS'move_p'
p41
ag39
ag40
ag39
ag41
ag40
ag41
ag39
ag41
ag39
ag40
ag41
ag39
ag39
ag39
ag39
ag41
ag39
ag39
ag40
ag39
ag40
ag39
ag41
ag39
ag39
ag41
ag39
ag40
asS'assistance_match_with_ground_truth'
p42
(lp43
I00
aI00
aI00
aI00
aI00
aI00
aI00
aI00
aI01
aI01
aI00
aI00
aI01
aI00
aI01
aI00
aI01
aI00
aI00
aI01
aI01
aI00
aI00
aI00
aI01
aI00
aI00
aI00
aI00
aI00
aI00
aI01
aI00
aI00
aI01
aI01
aI00
aI00
asS'is_u_intended_equals_um'
p44
(lp45
I01
aI00
aI00
aI01
aI00
aI00
aI00
aI01
aI01
aI01
aI01
aI00
aI01
aI00
aI01
aI00
aI01
aI00
aI01
aI01
aI01
aI00
aI00
aI00
aI01
aI00
aI00
aI01
aI00
aI01
aI01
aI01
aI00
aI00
aI01
aI01
aI01
aI00
asS'total_steps'
p46
I38
sS'normalized_h_of_p_ui_given_um'
p47
(lp48
cnumpy.core.multiarray
scalar
p49
(cnumpy
dtype
p50
(S'f8'
p51
I0
I1
tp52
Rp53
(I3
S'<'
p54
NNNI-1
I-1
I0
tp55
bS'\xbeP=!\x96\xda\xe4?'
p56
tp57
Rp58
ag49
(g53
S'X\xea`\xb6\xcc\xbe\xef?'
p59
tp60
Rp61
ag49
(g53
S'X\xea`\xb6\xcc\xbe\xef?'
p62
tp63
Rp64
ag49
(g53
S'\xc6\x8dT1\xd9%\xeb?'
p65
tp66
Rp67
ag49
(g53
S'\x17\xf8\n\xe7\x95W\xea?'
p68
tp69
Rp70
ag49
(g53
S'\x17\xf8\n\xe7\x95W\xea?'
p71
tp72
Rp73
ag49
(g53
S'\x17\xf8\n\xe7\x95W\xea?'
p74
tp75
Rp76
ag49
(g53
S'\xbeP=!\x96\xda\xe4?'
p77
tp78
Rp79
ag49
(g53
S'\xf3\x89U\xbc(\x8e\xd3?'
p80
tp81
Rp82
ag49
(g53
S'\x9f`\x06Y(K\xd6?'
p83
tp84
Rp85
ag49
(g53
S'\xbeP=!\x96\xda\xe4?'
p86
tp87
Rp88
ag49
(g53
S'X\xea`\xb6\xcc\xbe\xef?'
p89
tp90
Rp91
ag49
(g53
S'H\xa3\x97.x8\xde?'
p92
tp93
Rp94
ag49
(g53
S'|\xf4O1\xb5\x9c\xe6?'
p95
tp96
Rp97
ag49
(g53
S'\xf3\x89U\xbc(\x8e\xd3?'
p98
tp99
Rp100
ag49
(g53
S'\\*d\x93\xe1\xf4\xe0?'
p101
tp102
Rp103
ag49
(g53
S'H\xa3\x97.x8\xde?'
p104
tp105
Rp106
ag49
(g53
S'\\*d\x93\xe1\xf4\xe0?'
p107
tp108
Rp109
ag49
(g53
S'\xbeP=!\x96\xda\xe4?'
p110
tp111
Rp112
ag49
(g53
S'\xf3\x89U\xbc(\x8e\xd3?'
p113
tp114
Rp115
ag49
(g53
S'\x9f`\x06Y(K\xd6?'
p116
tp117
Rp118
ag49
(g53
S'<"@\x80t\xb7\xe9?'
p119
tp120
Rp121
ag49
(g53
S'<"@\x80t\xb7\xe9?'
p122
tp123
Rp124
ag49
(g53
S'<"@\x80t\xb7\xe9?'
p125
tp126
Rp127
ag49
(g53
S'H\xa3\x97.x8\xde?'
p128
tp129
Rp130
ag49
(g53
S'\\*d\x93\xe1\xf4\xe0?'
p131
tp132
Rp133
ag49
(g53
S'<"@\x80t\xb7\xe9?'
p134
tp135
Rp136
ag49
(g53
S'\xbeP=!\x96\xda\xe4?'
p137
tp138
Rp139
ag49
(g53
S'X\xea`\xb6\xcc\xbe\xef?'
p140
tp141
Rp142
ag49
(g53
S'\xbeP=!\x96\xda\xe4?'
p143
tp144
Rp145
ag49
(g53
S'\xc6\x8dT1\xd9%\xeb?'
p146
tp147
Rp148
ag49
(g53
S'H\xa3\x97.x8\xde?'
p149
tp150
Rp151
ag49
(g53
S'\\*d\x93\xe1\xf4\xe0?'
p152
tp153
Rp154
ag49
(g53
S'\x17\xf8\n\xe7\x95W\xea?'
p155
tp156
Rp157
ag49
(g53
S'H\xa3\x97.x8\xde?'
p158
tp159
Rp160
ag49
(g53
S'\x9f`\x06Y(K\xd6?'
p161
tp162
Rp163
ag49
(g53
S'\xbeP=!\x96\xda\xe4?'
p164
tp165
Rp166
ag49
(g53
S'\xber3\\\xb3>\xe9?'
p167
tp168
Rp169
asS'sp'
p170
(lp171
(S'p0'
p172
I0
S't'
p173
tp174
a(g172
I0
g173
tp175
ag175
a(g172
I0
S'y'
p176
tp177
a(g172
I0
g176
tp178
ag178
ag178
ag174
a(g172
I0
S'x'
p179
tp180
a(S'p1'
p181
I0
g179
tp182
a(g181
I0
g176
tp183
a(g172
I0
g176
tp184
a(g172
I0
g179
tp185
a(g172
I0
g173
tp186
ag180
a(g172
I0
g176
tp187
ag185
ag187
ag174
ag180
ag182
a(g181
I0
g179
tp188
ag188
ag188
a(g181
I0
g173
tp189
a(g181
I0
g179
tp190
ag188
ag183
ag184
ag174
ag177
ag185
ag187
ag178
ag185
ag182
ag183
a(S'p2'
p191
I0
g176
tp192
asS's'
p193
(lp194
(g172
I0
g22
tp195
ag174
ag175
ag175
ag177
ag178
ag178
ag178
ag174
ag180
ag182
ag183
ag184
ag185
ag186
ag180
ag187
ag185
ag187
ag174
ag180
ag182
ag188
ag188
ag188
ag189
ag190
ag188
ag183
ag184
ag174
ag177
ag185
ag187
ag178
ag185
ag182
ag183
asS'ui'
p196
(lp197
g170
aS'hp'
p198
ag198
ag170
ag198
aS'hs'
p199
ag170
aS'ss'
p200
ag198
ag199
ag198
ag170
ag199
ag170
ag198
ag199
ag198
ag170
ag170
ag198
ag170
ag170
ag199
ag198
ag199
ag170
ag199
ag198
ag170
ag198
ag198
ag199
ag170
ag170
ag170
ag199
ag198
ag198
asS'um_before'
p201
(lp202
g198
ag200
ag200
ag199
ag170
ag170
ag170
ag198
ag198
ag170
ag198
ag200
ag199
ag199
ag198
ag198
ag199
ag198
ag198
ag198
ag170
ag200
ag200
ag200
ag199
ag198
ag200
ag198
ag200
ag198
ag199
ag199
ag198
ag170
ag199
ag170
ag198
ag170
asS'um_after'
p203
(lp204
g198
ag200
ag200
ag199
ag170
ag170
ag170
ag198
ag198
ag170
ag198
ag200
ag199
ag199
ag198
ag198
ag199
ag198
ag198
ag198
ag170
ag200
ag200
ag200
ag199
ag198
ag200
ag198
ag200
ag198
ag199
ag199
ag198
ag170
ag199
ag170
ag198
ag170
asS'is_normalized_entropy_less_than_threshold'
p205
(lp206
g49
(g50
(S'b1'
p207
I0
I1
tp208
Rp209
(I3
S'|'
p210
NNNI-1
I-1
I0
tp211
bS'\x00'
p212
tp213
Rp214
ag214
ag214
ag214
ag214
ag214
ag214
ag214
ag49
(g209
S'\x01'
p215
tp216
Rp217
ag217
ag214
ag214
ag217
ag214
ag217
ag214
ag217
ag214
ag214
ag217
ag217
ag214
ag214
ag214
ag217
ag214
ag214
ag214
ag214
ag214
ag214
ag217
ag214
ag214
ag217
ag217
ag214
ag214
asaa(lp218
S'index'
p219
aI1308
aatp220
Rp221
.