ccollections
OrderedDict
p0
((lp1
(lp2
S'combination_dict'
p3
ag0
((lp4
(lp5
S'r_to_g_config'
p6
aS'tr'
p7
aa(lp8
S'num_turns'
p9
aI3
aa(lp10
S'start_direction'
p11
acutils_ms
StartDirection
p12
(I0
tp13
Rp14
aa(lp15
S'assistance_type'
p16
acutils_ms
AssistanceType
p17
(I1
tp18
Rp19
aa(lp20
S'start_mode'
p21
aS't'
p22
aa(lp23
S'ui_given_a_noise'
p24
aF0.3
aa(lp25
S'um_given_ui_noise'
p26
aF0.3
aa(lp27
S'entropy_threshold'
p28
aF0.5
aatp29
Rp30
aa(lp31
S'data'
p32
accollections
defaultdict
p33
(c__builtin__
list
p34
tp35
Rp36
S'a'
p37
(lp38
S'mode_r'
p39
ag39
aS'move_p'
p40
aS'mode_l'
p41
ag41
ag41
ag40
ag41
ag40
ag41
ag40
ag41
ag40
ag41
ag40
ag41
ag40
ag41
ag40
ag39
ag40
ag39
ag41
ag40
ag41
ag40
ag41
ag40
ag39
ag41
ag41
ag40
ag39
ag41
ag40
ag41
ag40
ag41
ag40
ag39
ag40
asS'assistance_match_with_ground_truth'
p42
(lp43
I00
aI01
aI00
aI00
aI00
aI01
aI01
aI01
aI01
aI01
aI00
aI00
aI00
aI01
aI01
aI01
aI00
aI01
aI00
aI01
aI01
aI00
aI00
aI01
aI01
aI01
aI01
aI00
aI00
aI00
aI01
aI00
aI00
aI01
aI01
aI01
aI00
aI01
aI01
aI01
aI01
asS'is_u_intended_equals_um'
p44
(lp45
I01
aI01
aI01
aI01
aI00
aI01
aI01
aI01
aI01
aI01
aI01
aI01
aI01
aI01
aI01
aI01
aI00
aI01
aI00
aI01
aI01
aI00
aI01
aI01
aI01
aI01
aI00
aI00
aI00
aI00
aI00
aI00
aI00
aI01
aI01
aI01
aI01
aI01
aI01
aI01
aI01
asS'total_steps'
p46
I41
sS'normalized_h_of_p_ui_given_um'
p47
(lp48
cnumpy.core.multiarray
scalar
p49
(cnumpy
dtype
p50
(S'f8'
p51
I0
I1
tp52
Rp53
(I3
S'<'
p54
NNNI-1
I-1
I0
tp55
bS'\xbe\xde\xf7\x86Fs\xe1?'
p56
tp57
Rp58
ag49
(g53
S'\x12wK\x1c\xcc\xb2\xc9?'
p59
tp60
Rp61
ag49
(g53
S'E&<\xad\xab\xcf\xe2?'
p62
tp63
Rp64
ag49
(g53
S'\xa6\xa9t\xfe\xa1\x8d\xe6?'
p65
tp66
Rp67
ag49
(g53
S'\xfd4\xf8\x9e\xc1\x17\xe3?'
p68
tp69
Rp70
ag49
(g53
S'\xdd^#\xa0\xb5\x10\xd0?'
p71
tp72
Rp73
ag49
(g53
S'n\xb3\x01\xb6\xc4\xf4\xc5?'
p74
tp75
Rp76
ag49
(g53
S'\xdd^#\xa0\xb5\x10\xd0?'
p77
tp78
Rp79
ag49
(g53
S'n\xb3\x01\xb6\xc4\xf4\xc5?'
p80
tp81
Rp82
ag49
(g53
S'\xdd^#\xa0\xb5\x10\xd0?'
p83
tp84
Rp85
ag49
(g53
S'E&<\xad\xab\xcf\xe2?'
p86
tp87
Rp88
ag49
(g53
S'\xa6\xa9t\xfe\xa1\x8d\xe6?'
p89
tp90
Rp91
ag49
(g53
S'E&<\xad\xab\xcf\xe2?'
p92
tp93
Rp94
ag49
(g53
S'\xdd^#\xa0\xb5\x10\xd0?'
p95
tp96
Rp97
ag49
(g53
S'n\xb3\x01\xb6\xc4\xf4\xc5?'
p98
tp99
Rp100
ag49
(g53
S'\xdd^#\xa0\xb5\x10\xd0?'
p101
tp102
Rp103
ag49
(g53
S'm\x00\xa5\xec\x0c\x97\xe4?'
p104
tp105
Rp106
ag49
(g53
S'\xdd^#\xa0\xb5\x10\xd0?'
p107
tp108
Rp109
ag49
(g53
S'5\xeb\x8c\xf8\xcbO\xec?'
p110
tp111
Rp112
ag49
(g53
S'\x12wK\x1c\xcc\xb2\xc9?'
p113
tp114
Rp115
ag49
(g53
S'n\xb3\x01\xb6\xc4\xf4\xc5?'
p116
tp117
Rp118
ag49
(g53
S'\x1e\xa3\x97\xa2J\xde\xe8?'
p119
tp120
Rp121
ag49
(g53
S'\xa6\xa9t\xfe\xa1\x8d\xe6?'
p122
tp123
Rp124
ag49
(g53
S'n\xb3\x01\xb6\xc4\xf4\xc5?'
p125
tp126
Rp127
ag49
(g53
S'\xdd^#\xa0\xb5\x10\xd0?'
p128
tp129
Rp130
ag49
(g53
S'n\xb3\x01\xb6\xc4\xf4\xc5?'
p131
tp132
Rp133
ag49
(g53
S'\xa7\xad\n\x1b\x1c[\xdf?'
p134
tp135
Rp136
ag49
(g53
S'5\xeb\x8c\xf8\xcbO\xec?'
p137
tp138
Rp139
ag49
(g53
S'\x1e\xa3\x97\xa2J\xde\xe8?'
p140
tp141
Rp142
ag49
(g53
S'\xfd4\xf8\x9e\xc1\x17\xe3?'
p143
tp144
Rp145
ag49
(g53
S'\xa7\xad\n\x1b\x1c[\xdf?'
p146
tp147
Rp148
ag49
(g53
S'm\x00\xa5\xec\x0c\x97\xe4?'
p149
tp150
Rp151
ag49
(g53
S'\x1e\xa3\x97\xa2J\xde\xe8?'
p152
tp153
Rp154
ag49
(g53
S'\xdd^#\xa0\xb5\x10\xd0?'
p155
tp156
Rp157
ag49
(g53
S'n\xb3\x01\xb6\xc4\xf4\xc5?'
p158
tp159
Rp160
ag49
(g53
S'\xdd^#\xa0\xb5\x10\xd0?'
p161
tp162
Rp163
ag49
(g53
S'E&<\xad\xab\xcf\xe2?'
p164
tp165
Rp166
ag49
(g53
S'\xdd^#\xa0\xb5\x10\xd0?'
p167
tp168
Rp169
ag49
(g53
S'n\xb3\x01\xb6\xc4\xf4\xc5?'
p170
tp171
Rp172
ag49
(g53
S'\x12wK\x1c\xcc\xb2\xc9?'
p173
tp174
Rp175
ag49
(g53
S'n\xb3\x01\xb6\xc4\xf4\xc5?'
p176
tp177
Rp178
asS'sp'
p179
(lp180
(S'p0'
p181
I0
S't'
p182
tp183
a(g181
I0
S'x'
p184
tp185
a(g181
I0
S'y'
p186
tp187
a(g181
I0
g186
tp188
a(g181
I0
g186
tp189
a(g181
I0
g184
tp190
a(S'p1'
p191
I0
g184
tp192
a(g191
I0
g182
tp193
a(g191
F1.5707963267948966
g182
tp194
a(g191
F1.5707963267948966
g186
tp195
a(g191
F1.5707963267948966
g182
tp196
a(g191
I0
g182
tp197
a(g191
I0
g184
tp198
ag193
ag194
ag195
a(g181
F1.5707963267948966
g186
tp199
a(g181
F1.5707963267948966
g184
tp200
a(g181
F1.5707963267948966
g182
tp201
a(g181
F1.5707963267948966
g184
tp202
a(g191
F1.5707963267948966
g184
tp203
a(g191
F1.5707963267948966
g182
tp204
ag197
ag194
ag195
a(S'p2'
p205
F1.5707963267948966
g186
tp206
a(g205
F1.5707963267948966
g184
tp207
a(g205
F1.5707963267948966
g182
tp208
a(g205
F1.5707963267948966
g186
tp209
a(g205
F1.5707963267948966
g186
tp210
ag207
a(g191
F1.5707963267948966
g184
tp211
ag204
ag195
ag206
ag207
a(g205
F1.5707963267948966
g186
tp212
ag207
a(S'p3'
p213
F1.5707963267948966
g184
tp214
a(g213
F1.5707963267948966
g186
tp215
a(S'p4'
p216
F1.5707963267948966
g186
tp217
asS's'
p218
(lp219
(g181
I0
g22
tp220
ag183
ag185
ag187
ag188
ag189
ag190
ag192
ag193
ag194
ag195
ag196
ag197
ag198
ag193
ag194
ag195
ag199
ag200
ag201
ag202
ag203
ag204
ag197
ag194
ag195
ag206
ag207
ag208
ag209
ag210
ag207
ag211
ag204
ag195
ag206
ag207
ag212
ag207
ag214
ag215
asS'ui'
p221
(lp222
g179
aS'hp'
p223
aS'ss'
p224
ag224
aS'hs'
p225
ag225
ag179
ag225
ag179
ag225
ag223
ag224
ag223
ag225
ag179
ag225
ag224
ag225
ag223
ag223
ag179
ag223
ag224
ag179
ag225
ag179
ag225
ag179
ag223
ag179
ag223
ag224
ag223
ag225
ag179
ag225
ag223
ag225
ag179
ag223
ag179
asS'um_before'
p226
(lp227
g179
ag223
ag223
ag224
ag179
ag225
ag179
ag225
ag179
ag225
ag223
ag224
ag223
ag225
ag179
ag225
ag224
ag225
ag225
ag223
ag179
ag225
ag224
ag179
ag225
ag179
ag223
ag225
ag225
ag179
ag223
ag224
ag225
ag225
ag179
ag225
ag223
ag225
ag179
ag223
ag179
asS'um_after'
p228
(lp229
g179
ag223
ag223
ag224
ag179
ag225
ag179
ag225
ag179
ag225
ag223
ag224
ag223
ag225
ag179
ag225
ag224
ag225
ag225
ag223
ag179
ag225
ag224
ag179
ag225
ag179
ag225
ag225
ag225
ag179
ag225
ag224
ag225
ag225
ag179
ag225
ag223
ag225
ag179
ag223
ag179
asS'is_normalized_entropy_less_than_threshold'
p230
(lp231
g49
(g50
(S'b1'
p232
I0
I1
tp233
Rp234
(I3
S'|'
p235
NNNI-1
I-1
I0
tp236
bS'\x00'
p237
tp238
Rp239
ag49
(g234
S'\x01'
p240
tp241
Rp242
ag239
ag239
ag239
ag242
ag242
ag242
ag242
ag242
ag239
ag239
ag239
ag242
ag242
ag242
ag239
ag242
ag239
ag242
ag242
ag239
ag239
ag242
ag242
ag242
ag242
ag239
ag239
ag239
ag242
ag239
ag239
ag242
ag242
ag242
ag239
ag242
ag242
ag242
ag242
asaa(lp243
S'index'
p244
aI21058
aatp245
Rp246
.