ccollections
OrderedDict
p0
((lp1
(lp2
S'combination_dict'
p3
ag0
((lp4
(lp5
S'r_to_g_config'
p6
aS'br'
p7
aa(lp8
S'num_turns'
p9
aI2
aa(lp10
S'start_direction'
p11
acutils_ms
StartDirection
p12
(I0
tp13
Rp14
aa(lp15
S'assistance_type'
p16
acutils_ms
AssistanceType
p17
(I0
tp18
Rp19
aa(lp20
S'start_mode'
p21
aS'y'
p22
aa(lp23
S'ui_given_a_noise'
p24
aF0.7
aa(lp25
S'um_given_ui_noise'
p26
aF0.3
aa(lp27
S'entropy_threshold'
p28
aF0.7
aatp29
Rp30
aa(lp31
S'data'
p32
accollections
defaultdict
p33
(c__builtin__
list
p34
tp35
Rp36
S'a'
p37
(lp38
S'mode_l'
p39
aS'mode_r'
p40
aS'move_p'
p41
ag39
ag41
ag39
ag41
ag39
ag40
aS'move_n'
p42
ag39
ag39
ag41
ag39
ag40
ag40
ag40
ag41
ag39
ag41
asS'assistance_match_with_ground_truth'
p43
(lp44
I00
aI01
aI00
aI01
aI01
aI01
aI01
aI00
aI01
aI01
aI00
aI01
aI00
aI00
aI00
aI00
aI01
aI00
aI01
aI01
asS'is_u_intended_equals_um'
p45
(lp46
I01
aI01
aI01
aI01
aI01
aI01
aI01
aI01
aI01
aI01
aI01
aI01
aI01
aI01
aI01
aI01
aI01
aI01
aI01
aI01
asS'total_steps'
p47
I20
sS'normalized_h_of_p_ui_given_um'
p48
(lp49
cnumpy.core.multiarray
scalar
p50
(cnumpy
dtype
p51
(S'f8'
p52
I0
I1
tp53
Rp54
(I3
S'<'
p55
NNNI-1
I-1
I0
tp56
bS'\xa5\x8fV\x83\x88\xca\xe4?'
p57
tp58
Rp59
ag50
(g54
S'\xe1\x1ah\x13\x91B\xd4?'
p60
tp61
Rp62
ag50
(g54
S'\x18\xee\xd3\x96 I\xdb?'
p63
tp64
Rp65
ag50
(g54
S'|\xbfo4f\x0b\xda?'
p66
tp67
Rp68
ag50
(g54
S'\x93\xa1\xaaG\xa9=\xc0?'
p69
tp70
Rp71
ag50
(g54
S'|\xbfo4f\x0b\xda?'
p72
tp73
Rp74
ag50
(g54
S'\x93\xa1\xaaG\xa9=\xc0?'
p75
tp76
Rp77
ag50
(g54
S'\xa5\x8fV\x83\x88\xca\xe4?'
p78
tp79
Rp80
ag50
(g54
S'\xe1\x1ah\x13\x91B\xd4?'
p81
tp82
Rp83
ag50
(g54
S'##\x02\x14\xa7\x07\xc9?'
p84
tp85
Rp86
ag50
(g54
S'\xd4\x8b,B\x07\xf2\xe4?'
p87
tp88
Rp89
ag50
(g54
S'|\xbfo4f\x0b\xda?'
p90
tp91
Rp92
ag50
(g54
S'\x18\xee\xd3\x96 I\xdb?'
p93
tp94
Rp95
ag50
(g54
S'\xa5\x8fV\x83\x88\xca\xe4?'
p96
tp97
Rp98
ag50
(g54
S'\xd6+\xf2\x92W\xd1\xdc?'
p99
tp100
Rp101
ag50
(g54
S'\xd6+\xf2\x92W\xd1\xdc?'
p102
tp103
Rp104
ag50
(g54
S'\xe1\x1ah\x13\x91B\xd4?'
p105
tp106
Rp107
ag50
(g54
S'\x18\xee\xd3\x96 I\xdb?'
p108
tp109
Rp110
ag50
(g54
S'|\xbfo4f\x0b\xda?'
p111
tp112
Rp113
ag50
(g54
S'\x93\xa1\xaaG\xa9=\xc0?'
p114
tp115
Rp116
asS'sp'
p117
(lp118
(S'p0'
p119
I0
S't'
p120
tp121
a(g119
I0
S'x'
p122
tp123
a(g119
I0
S'y'
p124
tp125
a(g119
I0
g122
tp126
a(S'p1'
p127
I0
g122
tp128
a(g127
I0
g120
tp129
a(g127
F1.5707963267948966
g120
tp130
a(g127
F1.5707963267948966
g122
tp131
a(g127
F1.5707963267948966
g124
tp132
a(S'p2'
p133
F1.5707963267948966
g124
tp134
a(g133
F1.5707963267948966
g124
tp135
a(g133
F1.5707963267948966
g122
tp136
a(g133
F1.5707963267948966
g124
tp137
a(g133
F1.5707963267948966
g120
tp138
a(g133
F1.5707963267948966
g120
tp139
ag139
a(g133
F1.5707963267948966
g122
tp140
ag137
ag136
a(S'p3'
p141
F1.5707963267948966
g122
tp142
asS's'
p143
(lp144
(g119
I0
g22
tp145
ag121
ag123
ag125
ag126
ag128
ag129
ag130
ag131
ag132
ag134
ag135
ag136
ag137
ag138
ag139
ag139
ag140
ag137
ag136
asS'ui'
p146
(lp147
S'hs'
p148
aS'hp'
p149
ag117
ag149
ag117
ag149
ag117
ag149
ag149
aS'ss'
p150
ag150
ag117
ag117
ag149
ag150
ag148
ag149
ag149
ag149
ag117
asS'um_before'
p151
(lp152
g149
ag149
ag149
ag148
ag117
ag148
ag117
ag149
ag149
ag150
ag150
ag148
ag149
ag149
ag150
ag150
ag149
ag149
ag148
ag117
asS'um_after'
p153
(lp154
g149
ag149
ag149
ag148
ag117
ag148
ag117
ag149
ag149
ag150
ag150
ag148
ag149
ag149
ag150
ag150
ag149
ag149
ag148
ag117
asS'is_normalized_entropy_less_than_threshold'
p155
(lp156
g50
(g51
(S'b1'
p157
I0
I1
tp158
Rp159
(I3
S'|'
p160
NNNI-1
I-1
I0
tp161
bS'\x01'
p162
tp163
Rp164
ag164
ag164
ag164
ag164
ag164
ag164
ag164
ag164
ag164
ag164
ag164
ag164
ag164
ag164
ag164
ag164
ag164
ag164
ag164
asaa(lp165
S'index'
p166
aI97475
aatp167
Rp168
.