ccollections
OrderedDict
p0
((lp1
(lp2
S'combination_dict'
p3
ag0
((lp4
(lp5
S'r_to_g_config'
p6
aS'br'
p7
aa(lp8
S'num_turns'
p9
aI1
aa(lp10
S'start_direction'
p11
acutils_ms
StartDirection
p12
(I1
tp13
Rp14
aa(lp15
S'assistance_type'
p16
acutils_ms
AssistanceType
p17
(I0
tp18
Rp19
aa(lp20
S'start_mode'
p21
aS'x'
p22
aa(lp23
S'ui_given_a_noise'
p24
aF0.1
aa(lp25
S'um_given_ui_noise'
p26
aF0.3
aa(lp27
S'entropy_threshold'
p28
aF0.8
aatp29
Rp30
aa(lp31
S'data'
p32
accollections
defaultdict
p33
(c__builtin__
list
p34
tp35
Rp36
S'a'
p37
(lp38
S'mode_r'
p39
aS'move_n'
p40
ag40
ag40
ag39
aS'move_p'
p41
ag39
ag39
ag41
asS'assistance_match_with_ground_truth'
p42
(lp43
I01
aI00
aI00
aI01
aI01
aI01
aI00
aI01
aI01
asS'is_u_intended_equals_um'
p44
(lp45
I01
aI00
aI00
aI01
aI01
aI01
aI00
aI01
aI01
asS'total_steps'
p46
I9
sS'normalized_h_of_p_ui_given_um'
p47
(lp48
cnumpy.core.multiarray
scalar
p49
(cnumpy
dtype
p50
(S'f8'
p51
I0
I1
tp52
Rp53
(I3
S'<'
p54
NNNI-1
I-1
I0
tp55
bS'bB-\xe0.\xff\xaf?'
p56
tp57
Rp58
ag49
(g53
S'\xedm\x91\x9b"p\xe5?'
p59
tp60
Rp61
ag49
(g53
S'\xedm\x91\x9b"p\xe5?'
p62
tp63
Rp64
ag49
(g53
S'\xa1\xab\t\x9a\xcbj\xb0?'
p65
tp66
Rp67
ag49
(g53
S'bB-\xe0.\xff\xaf?'
p68
tp69
Rp70
ag49
(g53
S'2\x91>\xe3\x13\xba\xb2?'
p71
tp72
Rp73
ag49
(g53
S';\x96\xcb\xb2\xf64\xe0?'
p74
tp75
Rp76
ag49
(g53
S'bB-\xe0.\xff\xaf?'
p77
tp78
Rp79
ag49
(g53
S'2\x91>\xe3\x13\xba\xb2?'
p80
tp81
Rp82
asS'sp'
p83
(lp84
(S'p0'
p85
I0
S'y'
p86
tp87
ag87
ag87
a(S'p1'
p88
I0
g86
tp89
a(g88
I0
S't'
p90
tp91
a(g88
F1.5707963267948966
g90
tp92
ag92
a(g88
F1.5707963267948966
S'x'
p93
tp94
a(S'p2'
p95
F1.5707963267948966
g93
tp96
asS's'
p97
(lp98
(g85
I0
g22
tp99
ag87
ag87
ag87
ag89
ag91
ag92
ag92
ag94
asS'ui'
p100
(lp101
S'hp'
p102
aS'ss'
p103
ag103
ag103
ag102
ag83
ag102
ag102
ag83
asS'um_before'
p104
(lp105
g102
ag102
ag102
ag103
ag102
ag83
ag83
ag102
ag83
asS'um_after'
p106
(lp107
g102
aNaNag103
ag102
ag83
aNag102
ag83
asS'is_normalized_entropy_less_than_threshold'
p108
(lp109
g49
(g50
(S'b1'
p110
I0
I1
tp111
Rp112
(I3
S'|'
p113
NNNI-1
I-1
I0
tp114
bS'\x01'
p115
tp116
Rp117
ag117
ag117
ag117
ag117
ag117
ag117
ag117
ag117
asaa(lp118
S'index'
p119
aI91281
aatp120
Rp121
.