ccollections
OrderedDict
p0
((lp1
(lp2
S'combination_dict'
p3
ag0
((lp4
(lp5
S'r_to_g_config'
p6
aS'tr'
p7
aa(lp8
S'num_turns'
p9
aI1
aa(lp10
S'start_direction'
p11
acutils_ms
StartDirection
p12
(I1
tp13
Rp14
aa(lp15
S'assistance_type'
p16
acutils_ms
AssistanceType
p17
(I0
tp18
Rp19
aa(lp20
S'start_mode'
p21
aS'x'
p22
aa(lp23
S'ui_given_a_noise'
p24
aF0.5
aa(lp25
S'um_given_ui_noise'
p26
aF0.7
aa(lp27
S'entropy_threshold'
p28
aF0.5
aatp29
Rp30
aa(lp31
S'data'
p32
accollections
defaultdict
p33
(c__builtin__
list
p34
tp35
Rp36
S'a'
p37
(lp38
S'mode_r'
p39
aS'mode_l'
p40
ag40
ag40
ag40
aS'move_p'
p41
ag39
ag39
ag39
ag41
ag40
ag39
ag40
ag41
ag39
ag39
ag41
ag40
ag39
ag39
ag39
ag41
ag39
ag41
ag40
ag39
ag41
ag39
ag41
ag39
ag41
ag41
ag39
ag40
ag39
ag39
ag39
ag39
ag41
ag39
ag40
ag41
ag39
ag40
ag40
ag40
ag40
ag40
ag41
asS'assistance_match_with_ground_truth'
p42
(lp43
I00
aI00
aI00
aI00
aI01
aI01
aI00
aI00
aI01
aI00
aI00
aI00
aI01
aI00
aI00
aI01
aI00
aI00
aI00
aI00
aI01
aI01
aI01
aI00
aI00
aI01
aI00
aI01
aI00
aI01
aI00
aI00
aI00
aI00
aI00
aI00
aI00
aI01
aI01
aI00
aI01
aI01
aI00
aI00
aI00
aI00
aI00
aI01
aI01
asS'is_u_intended_equals_um'
p44
(lp45
I00
aI00
aI00
aI00
aI01
aI01
aI00
aI01
aI01
aI00
aI00
aI00
aI01
aI00
aI00
aI01
aI00
aI00
aI00
aI01
aI01
aI01
aI01
aI00
aI00
aI01
aI00
aI01
aI00
aI01
aI00
aI00
aI00
aI00
aI01
aI00
aI00
aI01
aI01
aI00
aI01
aI01
aI00
aI00
aI00
aI00
aI00
aI01
aI01
asS'total_steps'
p46
I49
sS'normalized_h_of_p_ui_given_um'
p47
(lp48
cnumpy.core.multiarray
scalar
p49
(cnumpy
dtype
p50
(S'f8'
p51
I0
I1
tp52
Rp53
(I3
S'<'
p54
NNNI-1
I-1
I0
tp55
bS'\x10\x00\xbe7l\xc3\xec?'
p56
tp57
Rp58
ag49
(g53
S'\xe4d\x94P")\xea?'
p59
tp60
Rp61
ag49
(g53
S'\x8bS&Uc\xe3\xe7?'
p62
tp63
Rp64
ag49
(g53
S'\xe4d\x94P")\xea?'
p65
tp66
Rp67
ag49
(g53
S'\x9c\xf7V\xd0#\xd6\xe4?'
p68
tp69
Rp70
ag49
(g53
S'k\xa3^\xd62*\xe2?'
p71
tp72
Rp73
ag49
(g53
S'9]$\\.c\xe8?'
p74
tp75
Rp76
ag49
(g53
S'\xaa\x9c\x7fu\x08\xa5\xee?'
p77
tp78
Rp79
ag49
(g53
S'\xa8\xf9(\x9ans\xe1?'
p80
tp81
Rp82
ag49
(g53
S'8;\x01u\xcaL\xea?'
p83
tp84
Rp85
ag49
(g53
S'\x8bS&Uc\xe3\xe7?'
p86
tp87
Rp88
ag49
(g53
S'\x10\x00\xbe7l\xc3\xec?'
p89
tp90
Rp91
ag49
(g53
S'\x9c\xf7V\xd0#\xd6\xe4?'
p92
tp93
Rp94
ag49
(g53
S'\x19\xb1\xdd\xf0\xddr\xea?'
p95
tp96
Rp97
ag49
(g53
S'9]$\\.c\xe8?'
p98
tp99
Rp100
ag49
(g53
S'\xa8\xf9(\x9ans\xe1?'
p101
tp102
Rp103
ag49
(g53
S'8;\x01u\xcaL\xea?'
p104
tp105
Rp106
ag49
(g53
S'\xc07\x18\xba\x0f\x91\xe3?'
p107
tp108
Rp109
ag49
(g53
S'9]$\\.c\xe8?'
p110
tp111
Rp112
ag49
(g53
S'\xaa\x9c\x7fu\x08\xa5\xee?'
p113
tp114
Rp115
ag49
(g53
S'\xa8\xf9(\x9ans\xe1?'
p116
tp117
Rp118
ag49
(g53
S'k\xa3^\xd62*\xe2?'
p119
tp120
Rp121
ag49
(g53
S'\xa8\xf9(\x9ans\xe1?'
p122
tp123
Rp124
ag49
(g53
S'8;\x01u\xcaL\xea?'
p125
tp126
Rp127
ag49
(g53
S'\x8bS&Uc\xe3\xe7?'
p128
tp129
Rp130
ag49
(g53
S'\xa8\xf9(\x9ans\xe1?'
p131
tp132
Rp133
ag49
(g53
S'\x19\xb1\xdd\xf0\xddr\xea?'
p134
tp135
Rp136
ag49
(g53
S'\xa8\xf9(\x9ans\xe1?'
p137
tp138
Rp139
ag49
(g53
S'\x19\xb1\xdd\xf0\xddr\xea?'
p140
tp141
Rp142
ag49
(g53
S'\xa8\xf9(\x9ans\xe1?'
p143
tp144
Rp145
ag49
(g53
S'\x92C\x18\x82M\xc6\xea?'
p146
tp147
Rp148
ag49
(g53
S'\x19\xb1\xdd\xf0\xddr\xea?'
p149
tp150
Rp151
ag49
(g53
S'\x10\x00\xbe7l\xc3\xec?'
p152
tp153
Rp154
ag49
(g53
S'\xc07\x18\xba\x0f\x91\xe3?'
p155
tp156
Rp157
ag49
(g53
S'\xaa\x9c\x7fu\x08\xa5\xee?'
p158
tp159
Rp160
ag49
(g53
S'9]$\\.c\xe8?'
p161
tp162
Rp163
ag49
(g53
S'9]$\\.c\xe8?'
p164
tp165
Rp166
ag49
(g53
S'\xa8\xf9(\x9ans\xe1?'
p167
tp168
Rp169
ag49
(g53
S'k\xa3^\xd62*\xe2?'
p170
tp171
Rp172
ag49
(g53
S'\x10\x00\xbe7l\xc3\xec?'
p173
tp174
Rp175
ag49
(g53
S'\x9c\xf7V\xd0#\xd6\xe4?'
p176
tp177
Rp178
ag49
(g53
S'k\xa3^\xd62*\xe2?'
p179
tp180
Rp181
ag49
(g53
S'\x10\x00\xbe7l\xc3\xec?'
p182
tp183
Rp184
ag49
(g53
S'\xe4d\x94P")\xea?'
p185
tp186
Rp187
ag49
(g53
S'\xe4d\x94P")\xea?'
p188
tp189
Rp190
ag49
(g53
S'\xe4d\x94P")\xea?'
p191
tp192
Rp193
ag49
(g53
S'\x8bS&Uc\xe3\xe7?'
p194
tp195
Rp196
ag49
(g53
S'\x9c\xf7V\xd0#\xd6\xe4?'
p197
tp198
Rp199
ag49
(g53
S'k\xa3^\xd62*\xe2?'
p200
tp201
Rp202
asS'sp'
p203
(lp204
(S'p0'
p205
I0
S't'
p206
tp207
a(g205
I0
g206
tp208
a(g205
I0
g206
tp209
ag208
a(g205
I0
S'y'
p210
tp211
a(S'p1'
p212
I0
g210
tp213
a(g212
I0
g210
tp214
a(g212
I0
g210
tp215
a(g212
I0
g206
tp216
a(g212
I0
S'x'
p217
tp218
a(g205
I0
g217
tp219
ag207
ag211
a(g205
I0
g217
tp220
a(g205
I0
g217
tp221
a(g205
I0
g210
tp222
a(g205
I0
g206
tp223
a(g205
I0
g217
tp224
ag221
a(g205
I0
g217
tp225
ag222
ag213
ag216
ag218
ag219
ag222
ag220
ag222
ag220
ag222
a(g205
I0
g210
tp226
ag220
ag207
ag224
ag225
ag221
ag221
ag222
ag213
a(g212
I0
g217
tp227
a(g212
I0
g206
tp228
a(g212
F1.5707963267948966
g206
tp229
a(g212
F1.5707963267948966
g210
tp230
a(g212
F1.5707963267948966
g210
tp231
ag231
ag231
a(g212
F1.5707963267948966
g210
tp232
a(g212
F1.5707963267948966
g217
tp233
a(S'p2'
p234
F1.5707963267948966
g217
tp235
asS's'
p236
(lp237
(g205
I0
g22
tp238
ag207
ag208
ag209
ag208
ag211
ag213
ag214
ag215
ag216
ag218
ag219
ag207
ag211
ag220
ag221
ag222
ag223
ag224
ag221
ag225
ag222
ag213
ag216
ag218
ag219
ag222
ag220
ag222
ag220
ag222
ag226
ag220
ag207
ag224
ag225
ag221
ag221
ag222
ag213
ag227
ag228
ag229
ag230
ag231
ag231
ag231
ag232
ag233
asS'ui'
p239
(lp240
S'hp'
p241
aS'ss'
p242
aS'hs'
p243
ag203
ag241
ag203
ag241
ag241
ag241
ag241
ag242
ag242
ag241
ag203
ag242
ag241
ag243
ag243
ag242
ag243
ag241
ag203
ag241
ag203
ag241
ag203
ag242
ag241
ag241
ag243
ag242
ag203
ag203
ag241
ag241
ag203
ag241
ag203
ag203
ag243
ag241
ag203
ag241
ag241
ag242
ag242
ag243
ag243
ag203
asS'um_before'
p244
(lp245
g243
ag203
ag242
ag203
ag243
ag203
ag203
ag242
ag241
ag241
ag242
ag243
ag243
ag243
ag203
ag241
ag241
ag241
ag203
ag242
ag241
ag203
ag241
ag241
ag242
ag241
ag243
ag241
ag243
ag241
ag242
ag243
ag243
ag241
ag242
ag203
ag203
ag241
ag203
ag243
ag243
ag203
ag243
ag203
ag203
ag203
ag242
ag243
ag203
asS'um_after'
p246
(lp247
g243
ag203
ag242
ag203
ag243
ag203
ag203
ag242
ag241
ag241
ag242
ag243
ag243
ag243
ag203
ag241
ag241
ag241
ag203
ag242
ag241
ag203
ag241
ag241
ag242
ag241
ag243
ag241
ag243
ag241
ag242
ag243
ag243
ag241
ag242
ag203
ag203
ag241
ag203
ag243
ag243
ag203
ag243
ag203
ag203
ag203
ag242
ag243
ag203
asS'is_normalized_entropy_less_than_threshold'
p248
(lp249
g49
(g50
(S'b1'
p250
I0
I1
tp251
Rp252
(I3
S'|'
p253
NNNI-1
I-1
I0
tp254
bS'\x00'
p255
tp256
Rp257
ag257
ag257
ag257
ag257
ag257
ag257
ag257
ag257
ag257
ag257
ag257
ag257
ag257
ag257
ag257
ag257
ag257
ag257
ag257
ag257
ag257
ag257
ag257
ag257
ag257
ag257
ag257
ag257
ag257
ag257
ag257
ag257
ag257
ag257
ag257
ag257
ag257
ag257
ag257
ag257
ag257
ag257
ag257
ag257
ag257
ag257
ag257
ag257
asaa(lp258
S'index'
p259
aI5354
aatp260
Rp261
.