ccollections
OrderedDict
p0
((lp1
(lp2
S'combination_dict'
p3
ag0
((lp4
(lp5
S'r_to_g_config'
p6
aS'tl'
p7
aa(lp8
S'num_turns'
p9
aI1
aa(lp10
S'start_direction'
p11
acutils_ms
StartDirection
p12
(I1
tp13
Rp14
aa(lp15
S'assistance_type'
p16
acutils_ms
AssistanceType
p17
(I1
tp18
Rp19
aa(lp20
S'start_mode'
p21
aS'x'
p22
aa(lp23
S'ui_given_a_noise'
p24
aF0.5
aa(lp25
S'um_given_ui_noise'
p26
aF0.1
aa(lp27
S'entropy_threshold'
p28
aF0.9
aatp29
Rp30
aa(lp31
S'data'
p32
accollections
defaultdict
p33
(c__builtin__
list
p34
tp35
Rp36
S'a'
p37
(lp38
S'mode_r'
p39
aS'mode_l'
p40
aS'move_p'
p41
ag39
ag39
ag39
ag41
ag41
ag41
ag39
ag41
ag40
ag41
ag39
aS'move_n'
p42
ag39
ag41
ag40
ag42
asS'assistance_match_with_ground_truth'
p43
(lp44
I00
aI01
aI01
aI00
aI00
aI01
aI00
aI00
aI00
aI01
aI00
aI01
aI01
aI01
aI00
aI01
aI01
aI01
aI01
asS'is_u_intended_equals_um'
p45
(lp46
I01
aI00
aI01
aI01
aI01
aI01
aI01
aI01
aI01
aI01
aI01
aI01
aI01
aI00
aI01
aI01
aI01
aI01
aI01
asS'total_steps'
p47
I19
sS'normalized_h_of_p_ui_given_um'
p48
(lp49
cnumpy.core.multiarray
scalar
p50
(cnumpy
dtype
p51
(S'f8'
p52
I0
I1
tp53
Rp54
(I3
S'<'
p55
NNNI-1
I-1
I0
tp56
bS'\x8a%\x0b\xbc\xd5\x06\xe4?'
p57
tp58
Rp59
ag50
(g54
S'\xfar\x959R6\xe2?'
p60
tp61
Rp62
ag50
(g54
S'\x11\xd5\xf9\x98#\xfb\xc3?'
p63
tp64
Rp65
ag50
(g54
S'\xca"\x04!\x87\x93\xcb?'
p66
tp67
Rp68
ag50
(g54
S'\xca"\x04!\x87\x93\xcb?'
p69
tp70
Rp71
ag50
(g54
S'&\xfb\xacP\xa4:\xb6?'
p72
tp73
Rp74
ag50
(g54
S'\x01s\xa3U\xe6\x1c\xd7?'
p75
tp76
Rp77
ag50
(g54
S'\x01s\xa3U\xe6\x1c\xd7?'
p78
tp79
Rp80
ag50
(g54
S'r\xb4$\xf8\xdf\xd2\xe1?'
p81
tp82
Rp83
ag50
(g54
S'&\xfb\xacP\xa4:\xb6?'
p84
tp85
Rp86
ag50
(g54
S'-\xa1R\xcf\x94\xf4\xe6?'
p87
tp88
Rp89
ag50
(g54
S'\x86\x07\x91\x16\x1d\x94\xb2?'
p90
tp91
Rp92
ag50
(g54
S'\x11\xd5\xf9\x98#\xfb\xc3?'
p93
tp94
Rp95
ag50
(g54
S'D@D\xc9\x9d\x81\xe9?'
p96
tp97
Rp98
ag50
(g54
S'\xcd\x95\x03\xd0=\x8b\xe1?'
p99
tp100
Rp101
ag50
(g54
S'&\xfb\xacP\xa4:\xb6?'
p102
tp103
Rp104
ag50
(g54
S'\x11\xd5\xf9\x98#\xfb\xc3?'
p105
tp106
Rp107
ag50
(g54
S'\x86\x07\x91\x16\x1d\x94\xb2?'
p108
tp109
Rp110
ag50
(g54
S'\xbb\xc2\x8c\xc5f\x86\xbc?'
p111
tp112
Rp113
asS'sp'
p114
(lp115
(S'p0'
p116
I0
S't'
p117
tp118
a(g116
I0
S'y'
p119
tp120
a(S'p1'
p121
I0
g119
tp122
a(g121
I0
g119
tp123
ag123
a(g121
I0
g117
tp124
a(g121
I0
g117
tp125
ag125
a(g121
I0
g119
tp126
ag124
a(g121
I0
S'x'
p127
tp128
a(g121
I0
g117
tp129
a(g121
F1.5707963267948966
g117
tp130
a(g121
F1.5707963267948966
g127
tp131
a(g116
F1.5707963267948966
g127
tp132
a(g116
F1.5707963267948966
g119
tp133
a(g121
F1.5707963267948966
g119
tp134
a(g121
F1.5707963267948966
g127
tp135
a(S'p2'
p136
F1.5707963267948966
g127
tp137
asS's'
p138
(lp139
(g116
I0
g22
tp140
ag118
ag120
ag122
ag123
ag123
ag124
ag125
ag125
ag126
ag124
ag128
ag129
ag130
ag131
ag132
ag133
ag134
ag135
asS'ui'
p141
(lp142
S'hs'
p143
aS'hp'
p144
ag114
aS'ss'
p145
ag143
ag144
ag145
ag145
ag143
ag144
ag144
ag143
ag114
ag144
ag114
ag144
ag114
ag143
ag145
asS'um_before'
p146
(lp147
g143
ag144
ag114
ag145
ag145
ag144
ag145
ag145
ag143
ag144
ag144
ag143
ag114
ag114
ag114
ag144
ag114
ag143
ag145
asS'um_after'
p148
(lp149
g143
ag143
ag114
ag145
ag145
ag144
ag145
ag145
ag143
ag144
ag144
ag143
ag114
ag144
ag114
ag144
ag114
ag143
ag145
asS'is_normalized_entropy_less_than_threshold'
p150
(lp151
g50
(g51
(S'b1'
p152
I0
I1
tp153
Rp154
(I3
S'|'
p155
NNNI-1
I-1
I0
tp156
bS'\x01'
p157
tp158
Rp159
ag159
ag159
ag159
ag159
ag159
ag159
ag159
ag159
ag159
ag159
ag159
ag159
ag159
ag159
ag159
ag159
ag159
ag159
asaa(lp160
S'index'
p161
aI35646
aatp162
Rp163
.