ccollections
OrderedDict
p0
((lp1
(lp2
S'combination_dict'
p3
ag0
((lp4
(lp5
S'r_to_g_config'
p6
aS'tl'
p7
aa(lp8
S'num_turns'
p9
aI3
aa(lp10
S'start_direction'
p11
acutils_ms
StartDirection
p12
(I0
tp13
Rp14
aa(lp15
S'assistance_type'
p16
acutils_ms
AssistanceType
p17
(I0
tp18
Rp19
aa(lp20
S'start_mode'
p21
aS'y'
p22
aa(lp23
S'ui_given_a_noise'
p24
aF0.3
aa(lp25
S'um_given_ui_noise'
p26
aF0.7
aa(lp27
S'entropy_threshold'
p28
aF0.7
aatp29
Rp30
aa(lp31
S'data'
p32
accollections
defaultdict
p33
(c__builtin__
list
p34
tp35
Rp36
S'a'
p37
(lp38
S'mode_l'
p39
ag39
ag39
ag39
ag39
ag39
ag39
ag39
ag39
aS'move_n'
p40
aS'mode_r'
p41
aS'move_p'
p42
ag41
ag41
ag42
ag41
ag41
ag39
ag42
ag41
ag39
ag40
ag41
ag41
ag42
ag39
ag39
ag42
ag39
ag42
ag39
ag39
ag39
ag39
ag42
ag39
ag39
ag39
ag39
ag39
ag39
ag39
ag39
ag42
ag39
ag42
asS'assistance_match_with_ground_truth'
p43
(lp44
I00
aI00
aI00
aI00
aI00
aI00
aI00
aI00
aI01
aI01
aI01
aI00
aI00
aI01
aI01
aI00
aI00
aI01
aI01
aI00
aI01
aI01
aI00
aI01
aI00
aI00
aI01
aI00
aI01
aI00
aI00
aI00
aI00
aI01
aI00
aI00
aI00
aI00
aI00
aI00
aI00
aI00
aI01
aI00
aI01
aI01
asS'is_u_intended_equals_um'
p45
(lp46
I00
aI00
aI00
aI00
aI00
aI00
aI00
aI00
aI01
aI01
aI01
aI00
aI00
aI01
aI01
aI01
aI00
aI01
aI01
aI00
aI01
aI01
aI00
aI01
aI00
aI00
aI01
aI00
aI01
aI00
aI00
aI00
aI00
aI01
aI00
aI00
aI00
aI00
aI00
aI00
aI00
aI00
aI01
aI00
aI01
aI01
asS'total_steps'
p47
I46
sS'normalized_h_of_p_ui_given_um'
p48
(lp49
cnumpy.core.multiarray
scalar
p50
(cnumpy
dtype
p51
(S'f8'
p52
I0
I1
tp53
Rp54
(I3
S'<'
p55
NNNI-1
I-1
I0
tp56
bS"'}P\xbdj\x84\xe6?"
p57
tp58
Rp59
ag50
(g54
S"'}P\xbdj\x84\xe6?"
p60
tp61
Rp62
ag50
(g54
S'\xf0jUb\x07-\xe4?'
p63
tp64
Rp65
ag50
(g54
S'\xf0jUb\x07-\xe4?'
p66
tp67
Rp68
ag50
(g54
S"'}P\xbdj\x84\xe6?"
p69
tp70
Rp71
ag50
(g54
S"'}P\xbdj\x84\xe6?"
p72
tp73
Rp74
ag50
(g54
S'\xf0jUb\x07-\xe4?'
p75
tp76
Rp77
ag50
(g54
S'\xf0jUb\x07-\xe4?'
p78
tp79
Rp80
ag50
(g54
S'\xfctv\xe2\xff\xfe\xd8?'
p81
tp82
Rp83
ag50
(g54
S'\xee\xe3\xc2\x883\xd7\xd0?'
p84
tp85
Rp86
ag50
(g54
S'\x9c\x8a6\xb5\xee\xb2\xe0?'
p87
tp88
Rp89
ag50
(g54
S'\xdf\xbc\x9f\xe7\xcd\x88\xe7?'
p90
tp91
Rp92
ag50
(g54
S'Z\x8aZ\xda$\xb7\xe7?'
p93
tp94
Rp95
ag50
(g54
S'\x9c\x8a6\xb5\xee\xb2\xe0?'
p96
tp97
Rp98
ag50
(g54
S'\xa7\xd7\x1fsjS\xd7?'
p99
tp100
Rp101
ag50
(g54
S'\x9ab\xf5\x8f\x9e[\xeb?'
p102
tp103
Rp104
ag50
(g54
S'>}\x87\xc1"\xbb\xe9?'
p105
tp106
Rp107
ag50
(g54
S'\xfctv\xe2\xff\xfe\xd8?'
p108
tp109
Rp110
ag50
(g54
S'\xa7\xd7\x1fsjS\xd7?'
p111
tp112
Rp113
ag50
(g54
S'>}\x87\xc1"\xbb\xe9?'
p114
tp115
Rp116
ag50
(g54
S'\xfctv\xe2\xff\xfe\xd8?'
p117
tp118
Rp119
ag50
(g54
S'\xee\xe3\xc2\x883\xd7\xd0?'
p120
tp121
Rp122
ag50
(g54
S'Z\x8aZ\xda$\xb7\xe7?'
p123
tp124
Rp125
ag50
(g54
S'\x9c\x8a6\xb5\xee\xb2\xe0?'
p126
tp127
Rp128
ag50
(g54
S'\x9e\xb6\xc6\x93\xc2\xf7\xe9?'
p129
tp130
Rp131
ag50
(g54
S'\x9e\xb4l(\xf2#\xe6?'
p132
tp133
Rp134
ag50
(g54
S'\xfctv\xe2\xff\xfe\xd8?'
p135
tp136
Rp137
ag50
(g54
S'\x9e\xb6\xc6\x93\xc2\xf7\xe9?'
p138
tp139
Rp140
ag50
(g54
S'\xfctv\xe2\xff\xfe\xd8?'
p141
tp142
Rp143
ag50
(g54
S'\x9e\xb6\xc6\x93\xc2\xf7\xe9?'
p144
tp145
Rp146
ag50
(g54
S"'}P\xbdj\x84\xe6?"
p147
tp148
Rp149
ag50
(g54
S'\x9e\xb4l(\xf2#\xe6?'
p150
tp151
Rp152
ag50
(g54
S'\xf0jUb\x07-\xe4?'
p153
tp154
Rp155
ag50
(g54
S'\xfctv\xe2\xff\xfe\xd8?'
p156
tp157
Rp158
ag50
(g54
S'\x9e\xb6\xc6\x93\xc2\xf7\xe9?'
p159
tp160
Rp161
ag50
(g54
S'\x9e\xb4l(\xf2#\xe6?'
p162
tp163
Rp164
ag50
(g54
S"'}P\xbdj\x84\xe6?"
p165
tp166
Rp167
ag50
(g54
S'\xf0jUb\x07-\xe4?'
p168
tp169
Rp170
ag50
(g54
S'\x9e\xb4l(\xf2#\xe6?'
p171
tp172
Rp173
ag50
(g54
S'\x9e\xb4l(\xf2#\xe6?'
p174
tp175
Rp176
ag50
(g54
S'\x9e\xb4l(\xf2#\xe6?'
p177
tp178
Rp179
ag50
(g54
S'\xf0jUb\x07-\xe4?'
p180
tp181
Rp182
ag50
(g54
S'\xfctv\xe2\xff\xfe\xd8?'
p183
tp184
Rp185
ag50
(g54
S'\x9e\xb6\xc6\x93\xc2\xf7\xe9?'
p186
tp187
Rp188
ag50
(g54
S'\xfctv\xe2\xff\xfe\xd8?'
p189
tp190
Rp191
ag50
(g54
S'\xa7\xd7\x1fsjS\xd7?'
p192
tp193
Rp194
asS'sp'
p195
(lp196
(S'p0'
p197
I0
S'y'
p198
tp199
ag199
ag199
ag199
ag199
ag199
ag199
ag199
a(g197
I0
S'x'
p200
tp201
a(S'p1'
p202
I0
g200
tp203
a(g202
I0
g198
tp204
a(g202
I0
g200
tp205
a(g202
I0
g200
tp206
ag204
a(S'p2'
p207
I0
g198
tp208
a(g207
I0
g198
tp209
a(g207
I0
g200
tp210
a(g207
I0
S't'
p211
tp212
a(g207
F1.5707963267948966
g211
tp213
a(g207
F1.5707963267948966
g198
tp214
a(g207
F1.5707963267948966
g200
tp215
a(S'p3'
p216
F1.5707963267948966
g200
tp217
a(g216
F1.5707963267948966
g200
tp218
a(g216
F1.5707963267948966
g198
tp219
a(g216
F1.5707963267948966
g211
tp220
ag220
a(g216
F1.5707963267948966
g198
tp221
ag220
ag221
ag220
a(g216
F1.5707963267948966
g211
tp222
ag222
ag222
ag221
ag220
ag220
ag222
ag222
ag222
ag222
ag222
ag222
ag221
ag220
ag221
a(S'p4'
p223
F1.5707963267948966
g198
tp224
asS's'
p225
(lp226
(g197
I0
g22
tp227
ag199
ag199
ag199
ag199
ag199
ag199
ag199
ag199
ag201
ag203
ag204
ag205
ag206
ag204
ag208
ag209
ag210
ag212
ag213
ag214
ag215
ag217
ag218
ag219
ag220
ag220
ag221
ag220
ag221
ag220
ag222
ag222
ag222
ag221
ag220
ag220
ag222
ag222
ag222
ag222
ag222
ag222
ag221
ag220
ag221
asS'ui'
p228
(lp229
S'hs'
p230
ag195
ag230
aS'hp'
p231
ag195
ag195
ag231
ag230
ag230
aS'ss'
p232
ag231
ag195
ag231
ag231
ag195
ag232
ag232
ag230
ag230
ag231
ag230
ag232
ag231
ag231
ag231
ag230
ag230
ag232
ag195
ag195
ag230
ag195
ag230
ag230
ag195
ag230
ag195
ag195
ag230
ag231
ag231
ag230
ag230
ag231
ag230
ag195
asS'um_before'
p233
(lp234
g195
ag195
ag232
ag232
ag195
ag195
ag232
ag232
ag230
ag232
ag231
ag230
ag195
ag231
ag195
ag232
ag230
ag230
ag195
ag230
ag230
ag232
ag195
ag231
ag231
ag231
ag230
ag231
ag230
ag231
ag195
ag231
ag232
ag230
ag231
ag231
ag195
ag232
ag231
ag231
ag231
ag232
ag230
ag231
ag230
ag195
asS'um_after'
p235
(lp236
g195
ag195
aNaNag195
ag195
aNaNag230
ag232
ag231
ag230
ag195
ag231
ag195
ag232
ag230
ag230
ag195
ag230
ag230
ag232
ag195
ag231
ag231
aNag230
ag231
ag230
ag231
ag195
aNaNag230
ag231
aNag195
aNaNaNaNaNag230
ag231
ag230
ag195
asS'is_normalized_entropy_less_than_threshold'
p237
(lp238
g50
(g51
(S'b1'
p239
I0
I1
tp240
Rp241
(I3
S'|'
p242
NNNI-1
I-1
I0
tp243
bS'\x00'
p244
tp245
Rp246
ag246
ag50
(g241
S'\x01'
p247
tp248
Rp249
ag249
ag246
ag246
ag249
ag249
ag249
ag249
ag249
ag246
ag246
ag249
ag249
ag246
ag246
ag249
ag249
ag246
ag249
ag249
ag246
ag249
ag246
ag249
ag249
ag246
ag249
ag246
ag246
ag249
ag249
ag249
ag246
ag249
ag246
ag249
ag249
ag249
ag249
ag249
ag249
ag246
ag249
ag249
asaa(lp250
S'index'
p251
aI49172
aatp252
Rp253
.