ccollections
OrderedDict
p0
((lp1
(lp2
S'combination_dict'
p3
ag0
((lp4
(lp5
S'r_to_g_config'
p6
aS'bl'
p7
aa(lp8
S'num_turns'
p9
aI3
aa(lp10
S'start_direction'
p11
acutils_ms
StartDirection
p12
(I0
tp13
Rp14
aa(lp15
S'assistance_type'
p16
acutils_ms
AssistanceType
p17
(I1
tp18
Rp19
aa(lp20
S'start_mode'
p21
aS'y'
p22
aa(lp23
S'ui_given_a_noise'
p24
aF0.5
aa(lp25
S'um_given_ui_noise'
p26
aF0.3
aa(lp27
S'entropy_threshold'
p28
aF0.7
aatp29
Rp30
aa(lp31
S'data'
p32
accollections
defaultdict
p33
(c__builtin__
list
p34
tp35
Rp36
S'a'
p37
(lp38
S'mode_l'
p39
aS'move_n'
p40
ag39
ag40
ag39
aS'mode_r'
p41
ag39
ag41
ag39
ag39
ag41
ag41
ag40
ag39
ag39
ag40
ag40
ag39
ag40
ag39
aS'move_p'
p42
ag42
ag39
ag40
ag39
ag39
ag41
ag40
ag40
ag41
ag41
ag41
ag41
ag39
ag41
ag41
ag39
ag39
ag40
ag39
ag39
ag40
ag39
ag40
ag41
ag41
ag39
ag39
ag40
asS'assistance_match_with_ground_truth'
p43
(lp44
I01
aI00
aI01
aI01
aI00
aI00
aI00
aI00
aI00
aI00
aI00
aI01
aI00
aI00
aI01
aI00
aI00
aI01
aI01
aI01
aI00
aI01
aI01
aI00
aI00
aI00
aI01
aI00
aI01
aI00
aI00
aI00
aI00
aI00
aI00
aI00
aI00
aI01
aI00
aI00
aI01
aI01
aI01
aI01
aI00
aI00
aI00
aI01
aI01
asS'is_u_intended_equals_um'
p45
(lp46
I01
aI01
aI01
aI01
aI00
aI01
aI00
aI01
aI01
aI00
aI01
aI01
aI01
aI00
aI01
aI01
aI01
aI01
aI01
aI01
aI01
aI01
aI01
aI01
aI00
aI00
aI01
aI01
aI01
aI01
aI01
aI01
aI01
aI00
aI01
aI01
aI00
aI01
aI01
aI00
aI01
aI01
aI01
aI01
aI01
aI01
aI00
aI01
aI01
asS'total_steps'
p47
I49
sS'normalized_h_of_p_ui_given_um'
p48
(lp49
cnumpy.core.multiarray
scalar
p50
(cnumpy
dtype
p51
(S'f8'
p52
I0
I1
tp53
Rp54
(I3
S'<'
p55
NNNI-1
I-1
I0
tp56
bS'*\x84l\xd3\xceh\xd6?'
p57
tp58
Rp59
ag50
(g54
S'\xa6\xeb\xeeZ-c\xe8?'
p60
tp61
Rp62
ag50
(g54
S'*\x84l\xd3\xceh\xd6?'
p63
tp64
Rp65
ag50
(g54
S'\xc8IH\x04\xe2\x93\xc8?'
p66
tp67
Rp68
ag50
(g54
S'\xae\xe50\xd4\xb0(\xe7?'
p69
tp70
Rp71
ag50
(g54
S'\xd8\x81+\x9a2h\xec?'
p72
tp73
Rp74
ag50
(g54
S'\xae\xe50\xd4\xb0(\xe7?'
p75
tp76
Rp77
ag50
(g54
S'SMjBK\xa7\xeb?'
p78
tp79
Rp80
ag50
(g54
S'd:\x18X\x08\xc3\xe5?'
p81
tp82
Rp83
ag50
(g54
S'\xae\xe50\xd4\xb0(\xe7?'
p84
tp85
Rp86
ag50
(g54
S'SMjBK\xa7\xeb?'
p87
tp88
Rp89
ag50
(g54
S'\xa0{\xb6\xa6\x8b\xe0\xd8?'
p90
tp91
Rp92
ag50
(g54
S'\xa6\xeb\xeeZ-c\xe8?'
p93
tp94
Rp95
ag50
(g54
S'\xe6Q\xc7\xbc+\xc4\xea?'
p96
tp97
Rp98
ag50
(g54
S'*\x84l\xd3\xceh\xd6?'
p99
tp100
Rp101
ag50
(g54
S'\xf8\x86\xbe\x1c/9\xe6?'
p102
tp103
Rp104
ag50
(g54
S'\xa6\xeb\xeeZ-c\xe8?'
p105
tp106
Rp107
ag50
(g54
S'*\x84l\xd3\xceh\xd6?'
p108
tp109
Rp110
ag50
(g54
S'\xc8IH\x04\xe2\x93\xc8?'
p111
tp112
Rp113
ag50
(g54
S'*\x84l\xd3\xceh\xd6?'
p114
tp115
Rp116
ag50
(g54
S'\x1e\x17"\xa2\xcd[\xe5?'
p117
tp118
Rp119
ag50
(g54
S'D\x1c\xf9\xb3rr\xe0?'
p120
tp121
Rp122
ag50
(g54
S'*\x84l\xd3\xceh\xd6?'
p123
tp124
Rp125
ag50
(g54
S'\xf8\x86\xbe\x1c/9\xe6?'
p126
tp127
Rp128
ag50
(g54
S'\xe6Q\xc7\xbc+\xc4\xea?'
p129
tp130
Rp131
ag50
(g54
S'\xae\xe50\xd4\xb0(\xe7?'
p132
tp133
Rp134
ag50
(g54
S'\xa0{\xb6\xa6\x8b\xe0\xd8?'
p135
tp136
Rp137
ag50
(g54
S'\xf8\x86\xbe\x1c/9\xe6?'
p138
tp139
Rp140
ag50
(g54
S'\xc8IH\x04\xe2\x93\xc8?'
p141
tp142
Rp143
ag50
(g54
S'SMjBK\xa7\xeb?'
p144
tp145
Rp146
ag50
(g54
S'SMjBK\xa7\xeb?'
p147
tp148
Rp149
ag50
(g54
S'\x96\x08n\x13P\xd3\xe5?'
p150
tp151
Rp152
ag50
(g54
S'\xd8\x81+\x9a2h\xec?'
p153
tp154
Rp155
ag50
(g54
S'\xae\xe50\xd4\xb0(\xe7?'
p156
tp157
Rp158
ag50
(g54
S'SMjBK\xa7\xeb?'
p159
tp160
Rp161
ag50
(g54
S'\xd8\x81+\x9a2h\xec?'
p162
tp163
Rp164
ag50
(g54
S'\xe6Q\xc7\xbc+\xc4\xea?'
p165
tp166
Rp167
ag50
(g54
S'*\x84l\xd3\xceh\xd6?'
p168
tp169
Rp170
ag50
(g54
S'\xa6\xeb\xeeZ-c\xe8?'
p171
tp172
Rp173
ag50
(g54
S'\xe6Q\xc7\xbc+\xc4\xea?'
p174
tp175
Rp176
ag50
(g54
S'*\x84l\xd3\xceh\xd6?'
p177
tp178
Rp179
ag50
(g54
S'\xc8IH\x04\xe2\x93\xc8?'
p180
tp181
Rp182
ag50
(g54
S'*\x84l\xd3\xceh\xd6?'
p183
tp184
Rp185
ag50
(g54
S'\xc8IH\x04\xe2\x93\xc8?'
p186
tp187
Rp188
ag50
(g54
S'SMjBK\xa7\xeb?'
p189
tp190
Rp191
ag50
(g54
S'\xd8\x81+\x9a2h\xec?'
p192
tp193
Rp194
ag50
(g54
S'\xe6Q\xc7\xbc+\xc4\xea?'
p195
tp196
Rp197
ag50
(g54
S'*\x84l\xd3\xceh\xd6?'
p198
tp199
Rp200
ag50
(g54
S'\xc8IH\x04\xe2\x93\xc8?'
p201
tp202
Rp203
asS'sp'
p204
(lp205
(S'p0'
p206
I0
S'x'
p207
tp208
a(g206
I0
S'y'
p209
tp210
ag208
a(S'p1'
p211
I0
g207
tp212
a(g211
I0
g209
tp213
a(g211
I0
g207
tp214
ag213
a(g206
I0
g209
tp215
a(g206
I0
g209
tp216
a(g206
I0
S't'
p217
tp218
a(g206
I0
g217
tp219
a(g206
I0
g207
tp220
ag210
a(g206
I0
g209
tp221
ag208
a(g206
I0
g207
tp222
ag210
ag208
ag212
a(g211
I0
g217
tp223
a(g211
I0
g217
tp224
a(g211
F1.5707963267948966
g217
tp225
a(g211
F1.5707963267948966
g209
tp226
a(g206
F1.5707963267948966
g209
tp227
a(g206
F1.5707963267948966
g209
tp228
a(g206
F1.5707963267948966
g217
tp229
a(g206
F1.5707963267948966
g207
tp230
a(g206
F1.5707963267948966
g207
tp231
a(g211
F1.5707963267948966
g207
tp232
a(g211
F1.5707963267948966
g207
tp233
ag233
a(g211
F1.5707963267948966
g207
tp234
a(g211
F1.5707963267948966
g217
tp235
a(g211
F1.5707963267948966
g207
tp236
ag233
ag235
a(g211
F1.5707963267948966
g217
tp237
ag226
a(g211
F1.5707963267948966
g217
tp238
ag237
ag226
a(S'p2'
p239
F1.5707963267948966
g209
tp240
a(g239
F1.5707963267948966
g207
tp241
a(S'p3'
p242
F1.5707963267948966
g207
tp243
a(g242
F1.5707963267948966
g207
tp244
a(g242
F1.5707963267948966
g217
tp245
a(g242
F1.5707963267948966
g217
tp246
a(g242
F1.5707963267948966
g209
tp247
a(S'p4'
p248
F1.5707963267948966
g209
tp249
asS's'
p250
(lp251
(g206
I0
g22
tp252
ag208
ag210
ag208
ag212
ag213
ag214
ag213
ag215
ag216
ag218
ag219
ag220
ag210
ag221
ag208
ag222
ag210
ag208
ag212
ag223
ag224
ag225
ag226
ag227
ag228
ag229
ag230
ag231
ag232
ag233
ag233
ag234
ag235
ag236
ag233
ag235
ag237
ag226
ag238
ag237
ag226
ag240
ag241
ag243
ag244
ag245
ag246
ag247
asS'ui'
p253
(lp254
S'hs'
p255
aS'ss'
p256
ag255
ag256
ag255
aS'hp'
p257
ag257
ag204
ag256
ag257
ag204
ag257
ag255
ag204
ag255
ag256
ag256
ag255
ag256
ag255
ag204
ag204
ag255
ag256
ag255
ag255
ag257
ag256
ag256
ag204
ag204
ag256
ag256
ag255
ag204
ag204
ag255
ag255
ag256
ag204
ag255
ag256
ag256
ag256
ag204
ag257
ag255
ag255
ag256
asS'um_before'
p258
(lp259
g255
ag257
ag255
ag256
ag257
ag255
ag257
ag204
ag256
ag257
ag204
ag257
ag257
ag204
ag255
ag204
ag257
ag255
ag256
ag255
ag256
ag204
ag255
ag204
ag204
ag257
ag257
ag204
ag256
ag204
ag204
ag256
ag255
ag257
ag204
ag255
ag204
ag255
ag257
ag204
ag255
ag256
ag255
ag256
ag204
ag255
ag204
ag255
ag256
asS'um_after'
p260
(lp261
g255
ag257
ag255
ag256
ag257
ag255
ag257
ag204
ag256
ag257
ag204
ag257
ag257
ag204
ag255
ag204
ag257
ag255
ag256
ag255
ag256
ag204
ag255
ag204
ag204
ag257
ag257
ag204
ag256
ag204
ag204
ag256
ag255
ag257
ag204
ag255
ag204
ag255
ag257
ag204
ag255
ag256
ag255
ag256
ag204
ag255
ag204
ag255
ag256
asS'is_normalized_entropy_less_than_threshold'
p262
(lp263
g50
(g51
(S'b1'
p264
I0
I1
tp265
Rp266
(I3
S'|'
p267
NNNI-1
I-1
I0
tp268
bS'\x01'
p269
tp270
Rp271
ag50
(g266
S'\x00'
p272
tp273
Rp274
ag271
ag271
ag274
ag274
ag274
ag274
ag271
ag274
ag274
ag271
ag274
ag274
ag271
ag271
ag274
ag271
ag271
ag271
ag271
ag271
ag271
ag271
ag274
ag274
ag271
ag271
ag271
ag274
ag274
ag271
ag274
ag274
ag274
ag274
ag274
ag271
ag274
ag274
ag271
ag271
ag271
ag271
ag274
ag274
ag274
ag271
ag271
asaa(lp275
S'index'
p276
aI79670
aatp277
Rp278
.