ccollections
OrderedDict
p0
((lp1
(lp2
S'combination_dict'
p3
ag0
((lp4
(lp5
S'r_to_g_config'
p6
aS'tr'
p7
aa(lp8
S'num_turns'
p9
aI3
aa(lp10
S'start_direction'
p11
acutils_ms
StartDirection
p12
(I1
tp13
Rp14
aa(lp15
S'assistance_type'
p16
acutils_ms
AssistanceType
p17
(I0
tp18
Rp19
aa(lp20
S'start_mode'
p21
aS'x'
p22
aa(lp23
S'ui_given_a_noise'
p24
aF0.5
aa(lp25
S'um_given_ui_noise'
p26
aF0.1
aa(lp27
S'entropy_threshold'
p28
aF0.5
aatp29
Rp30
aa(lp31
S'data'
p32
accollections
defaultdict
p33
(c__builtin__
list
p34
tp35
Rp36
S'a'
p37
(lp38
S'mode_r'
p39
aS'mode_l'
p40
aS'move_p'
p41
ag39
ag39
ag40
ag39
ag41
ag40
ag40
ag41
asS'assistance_match_with_ground_truth'
p42
(lp43
I00
aI01
aI01
aI00
aI00
aI00
aI01
aI01
aI00
aI01
aI01
asS'is_u_intended_equals_um'
p44
(lp45
I01
aI01
aI01
aI01
aI01
aI01
aI01
aI01
aI01
aI01
aI01
asS'total_steps'
p46
I11
sS'normalized_h_of_p_ui_given_um'
p47
(lp48
cnumpy.core.multiarray
scalar
p49
(cnumpy
dtype
p50
(S'f8'
p51
I0
I1
tp52
Rp53
(I3
S'<'
p54
NNNI-1
I-1
I0
tp55
bS'\xb8\x8d#tJ\x87\xe2?'
p56
tp57
Rp58
ag49
(g53
S'\xf0\xb1\xd0ZT\xbe\xb0?'
p59
tp60
Rp61
ag49
(g53
S'\x12\x17>Z\xbfR\xcb?'
p62
tp63
Rp64
ag49
(g53
S'\x03\xeb\xbc\x82\xdb\xf8\xdb?'
p65
tp66
Rp67
ag49
(g53
S'\xb8\x8d#tJ\x87\xe2?'
p68
tp69
Rp70
ag49
(g53
S'^\x88/b\x82\xa2\xde?'
p71
tp72
Rp73
ag49
(g53
S'\x86\xf1\xf3k3\x82\xc2?'
p74
tp75
Rp76
ag49
(g53
S'\x12\x17>Z\xbfR\xcb?'
p77
tp78
Rp79
ag49
(g53
S'^\x88/b\x82\xa2\xde?'
p80
tp81
Rp82
ag49
(g53
S'\xf0\xb1\xd0ZT\xbe\xb0?'
p83
tp84
Rp85
ag49
(g53
S'\x12\x17>Z\xbfR\xcb?'
p86
tp87
Rp88
asS'sp'
p89
(lp90
(S'p0'
p91
I0
S't'
p92
tp93
a(g91
I0
S'y'
p94
tp95
a(S'p1'
p96
I0
g94
tp97
a(g96
I0
g94
tp98
a(g96
I0
S'x'
p99
tp100
a(S'p2'
p101
I0
g99
tp102
a(g101
I0
g94
tp103
a(S'p3'
p104
I0
g94
tp105
a(g104
I0
g94
tp106
a(g104
I0
g99
tp107
a(S'p4'
p108
I0
g99
tp109
asS's'
p110
(lp111
(g91
I0
g22
tp112
ag93
ag95
ag97
ag98
ag100
ag102
ag103
ag105
ag106
ag107
asS'ui'
p113
(lp114
S'hs'
p115
ag115
aS'hp'
p116
ag89
ag115
ag89
ag89
ag89
ag89
ag115
ag89
asS'um_before'
p117
(lp118
g115
ag115
ag89
ag89
ag115
ag89
ag116
ag89
ag89
ag115
ag89
asS'um_after'
p119
(lp120
g115
ag115
ag89
ag89
ag115
ag89
ag116
ag89
ag89
ag115
ag89
asS'is_normalized_entropy_less_than_threshold'
p121
(lp122
g49
(g50
(S'b1'
p123
I0
I1
tp124
Rp125
(I3
S'|'
p126
NNNI-1
I-1
I0
tp127
bS'\x00'
p128
tp129
Rp130
ag49
(g125
S'\x01'
p131
tp132
Rp133
ag133
ag133
ag130
ag133
ag133
ag133
ag133
ag133
ag133
asaa(lp134
S'index'
p135
aI24400
aatp136
Rp137
.