ccollections
OrderedDict
p0
((lp1
(lp2
S'combination_dict'
p3
ag0
((lp4
(lp5
S'r_to_g_config'
p6
aS'bl'
p7
aa(lp8
S'num_turns'
p9
aI2
aa(lp10
S'start_direction'
p11
acutils_ms
StartDirection
p12
(I1
tp13
Rp14
aa(lp15
S'assistance_type'
p16
acutils_ms
AssistanceType
p17
(I1
tp18
Rp19
aa(lp20
S'start_mode'
p21
aS't'
p22
aa(lp23
S'ui_given_a_noise'
p24
aF0.7
aa(lp25
S'um_given_ui_noise'
p26
aF0.7
aa(lp27
S'entropy_threshold'
p28
aF0.5
aatp29
Rp30
aa(lp31
S'data'
p32
accollections
defaultdict
p33
(c__builtin__
list
p34
tp35
Rp36
S'a'
p37
(lp38
S'mode_l'
p39
aS'mode_r'
p40
ag40
aS'move_n'
p41
ag39
ag41
ag39
aS'move_p'
p42
ag39
ag40
ag41
ag40
ag39
ag40
ag40
ag40
ag39
ag40
ag40
ag41
asS'assistance_match_with_ground_truth'
p43
(lp44
I00
aI00
aI01
aI01
aI01
aI01
aI01
aI01
aI00
aI01
aI00
aI00
aI00
aI00
aI00
aI00
aI00
aI00
aI01
aI01
asS'is_u_intended_equals_um'
p45
(lp46
I01
aI01
aI01
aI01
aI01
aI01
aI01
aI01
aI01
aI01
aI01
aI01
aI01
aI00
aI01
aI01
aI01
aI01
aI01
aI01
asS'total_steps'
p47
I20
sS'normalized_h_of_p_ui_given_um'
p48
(lp49
cnumpy.core.multiarray
scalar
p50
(cnumpy
dtype
p51
(S'f8'
p52
I0
I1
tp53
Rp54
(I3
S'<'
p55
NNNI-1
I-1
I0
tp56
bS'7A\x01\x00\xe6\xa8\xe6?'
p57
tp58
Rp59
ag50
(g54
S':\x05F2\t\x9d\xe9?'
p60
tp61
Rp62
ag50
(g54
S'\n\x1c\xad}f\x80\xe0?'
p63
tp64
Rp65
ag50
(g54
S'\xdc\x9a7\xf5\xe2:\xe1?'
p66
tp67
Rp68
ag50
(g54
S'\xf1s\x07\x07"}\xe5?'
p69
tp70
Rp71
ag50
(g54
S'\xdc\x9a7\xf5\xe2:\xe1?'
p72
tp73
Rp74
ag50
(g54
S'\xf1s\x07\x07"}\xe5?'
p75
tp76
Rp77
ag50
(g54
S'\xb6\x8a\xd5\x0e\xd9\t\xd6?'
p78
tp79
Rp80
ag50
(g54
S'7A\x01\x00\xe6\xa8\xe6?'
p81
tp82
Rp83
ag50
(g54
S'\n\x1c\xad}f\x80\xe0?'
p84
tp85
Rp86
ag50
(g54
S'(\x0b\xd0\x83\x05\xe4\xec?'
p87
tp88
Rp89
ag50
(g54
S'\xcc\xbf\r^\xe2\xa7\xec?'
p90
tp91
Rp92
ag50
(g54
S'7A\x01\x00\xe6\xa8\xe6?'
p93
tp94
Rp95
ag50
(g54
S'\x8eny\xdf\x1d]\xeb?'
p96
tp97
Rp98
ag50
(g54
S':\x05F2\t\x9d\xe9?'
p99
tp100
Rp101
ag50
(g54
S'\xcc\xbf\r^\xe2\xa7\xec?'
p102
tp103
Rp104
ag50
(g54
S'7A\x01\x00\xe6\xa8\xe6?'
p105
tp106
Rp107
ag50
(g54
S':\x05F2\t\x9d\xe9?'
p108
tp109
Rp110
ag50
(g54
S'\n\x1c\xad}f\x80\xe0?'
p111
tp112
Rp113
ag50
(g54
S'\xdc\x9a7\xf5\xe2:\xe1?'
p114
tp115
Rp116
asS'sp'
p117
(lp118
(S'p0'
p119
I0
S'x'
p120
tp121
a(g119
I0
g120
tp122
a(g119
I0
S'y'
p123
tp124
a(S'p1'
p125
I0
g123
tp126
a(g125
I0
g120
tp127
a(S'p2'
p128
I0
g120
tp129
a(g128
I0
S't'
p130
tp131
a(g128
F1.5707963267948966
g130
tp132
a(g128
F1.5707963267948966
g120
tp133
a(g128
F1.5707963267948966
g123
tp134
a(g128
F1.5707963267948966
g120
tp135
a(g128
F1.5707963267948966
g130
tp136
ag133
a(g128
F1.5707963267948966
g120
tp137
a(g128
F1.5707963267948966
g120
tp138
ag136
ag133
ag138
ag134
a(S'p3'
p139
F1.5707963267948966
g123
tp140
asS's'
p141
(lp142
(g119
I0
g22
tp143
ag121
ag122
ag124
ag126
ag127
ag129
ag131
ag132
ag133
ag134
ag135
ag136
ag133
ag137
ag138
ag136
ag133
ag138
ag134
asS'ui'
p144
(lp145
S'hp'
p146
ag117
aS'hs'
p147
ag147
ag147
aS'ss'
p148
ag147
ag117
ag146
ag146
ag146
ag146
ag146
ag146
ag146
ag146
ag147
ag117
ag146
ag148
asS'um_before'
p149
(lp150
g146
ag117
ag146
ag148
ag147
ag148
ag147
ag117
ag146
ag146
ag147
ag147
ag146
ag148
ag117
ag147
ag146
ag117
ag146
ag148
asS'um_after'
p151
(lp152
g146
ag117
ag146
ag148
ag147
ag148
ag147
ag117
ag146
ag146
ag147
ag147
ag146
ag148
ag117
ag147
ag146
ag117
ag146
ag148
asS'is_normalized_entropy_less_than_threshold'
p153
(lp154
g50
(g51
(S'b1'
p155
I0
I1
tp156
Rp157
(I3
S'|'
p158
NNNI-1
I-1
I0
tp159
bS'\x00'
p160
tp161
Rp162
ag162
ag162
ag162
ag162
ag162
ag162
ag50
(g157
S'\x01'
p163
tp164
Rp165
ag162
ag162
ag162
ag162
ag162
ag162
ag162
ag162
ag162
ag162
ag162
ag162
asaa(lp166
S'index'
p167
aI75150
aatp168
Rp169
.