ccollections
OrderedDict
p0
((lp1
(lp2
S'combination_dict'
p3
ag0
((lp4
(lp5
S'r_to_g_config'
p6
aS'tr'
p7
aa(lp8
S'num_turns'
p9
aI3
aa(lp10
S'start_direction'
p11
acutils_ms
StartDirection
p12
(I0
tp13
Rp14
aa(lp15
S'assistance_type'
p16
acutils_ms
AssistanceType
p17
(I1
tp18
Rp19
aa(lp20
S'start_mode'
p21
aS't'
p22
aa(lp23
S'ui_given_a_noise'
p24
aF0.5
aa(lp25
S'um_given_ui_noise'
p26
aF0.5
aa(lp27
S'entropy_threshold'
p28
aF0.7
aatp29
Rp30
aa(lp31
S'data'
p32
accollections
defaultdict
p33
(c__builtin__
list
p34
tp35
Rp36
S'a'
p37
(lp38
S'mode_r'
p39
aS'move_p'
p40
aS'mode_l'
p41
ag40
ag40
ag39
ag41
ag40
ag41
ag41
ag40
ag39
ag39
ag40
ag41
ag40
ag39
ag39
ag40
ag41
ag40
ag41
ag39
ag41
ag41
ag40
ag41
ag39
ag41
ag40
ag41
ag40
ag41
ag40
ag41
ag40
ag41
ag40
asS'assistance_match_with_ground_truth'
p42
(lp43
I01
aI00
aI01
aI00
aI00
aI00
aI01
aI00
aI00
aI01
aI01
aI00
aI01
aI00
aI01
aI01
aI00
aI01
aI01
aI01
aI01
aI00
aI00
aI00
aI01
aI00
aI00
aI00
aI01
aI00
aI01
aI01
aI01
aI00
aI01
aI00
aI01
aI01
asS'is_u_intended_equals_um'
p44
(lp45
I01
aI01
aI01
aI00
aI01
aI00
aI01
aI01
aI00
aI01
aI01
aI01
aI01
aI00
aI01
aI01
aI01
aI01
aI01
aI01
aI01
aI01
aI00
aI00
aI01
aI01
aI01
aI00
aI00
aI01
aI00
aI01
aI00
aI01
aI01
aI01
aI01
aI01
asS'total_steps'
p46
I38
sS'normalized_h_of_p_ui_given_um'
p47
(lp48
cnumpy.core.multiarray
scalar
p49
(cnumpy
dtype
p50
(S'f8'
p51
I0
I1
tp52
Rp53
(I3
S'<'
p54
NNNI-1
I-1
I0
tp55
bS'#B\xae\xf4\x1dP\xe1?'
p56
tp57
Rp58
ag49
(g53
S'\xf0\x11\xe09\x142\xe7?'
p59
tp60
Rp61
ag49
(g53
S'\xfb\t*a\xf8\xbe\xd9?'
p62
tp63
Rp64
ag49
(g53
S'\xae\xf2\xd9\xdc\x84a\xee?'
p65
tp66
Rp67
ag49
(g53
S'u!6\xad;\xc0\xe9?'
p68
tp69
Rp70
ag49
(g53
S'\x18\x0cRN;\x02\xec?'
p71
tp72
Rp73
ag49
(g53
S'\xfb\t*a\xf8\xbe\xd9?'
p74
tp75
Rp76
ag49
(g53
S'\xf0\x11\xe09\x142\xe7?'
p77
tp78
Rp79
ag49
(g53
S'\xe6c\xd5\x0e\xca~\xea?'
p80
tp81
Rp82
ag49
(g53
S'\xfb\t*a\xf8\xbe\xd9?'
p83
tp84
Rp85
ag49
(g53
S'\xf2\x84\xd0Y\x801\xdd?'
p86
tp87
Rp88
ag49
(g53
S'\xaa\x1b\x07r\xb5Y\xea?'
p89
tp90
Rp91
ag49
(g53
S'#B\xae\xf4\x1dP\xe1?'
p92
tp93
Rp94
ag49
(g53
S'\xae\xf2\xd9\xdc\x84a\xee?'
p95
tp96
Rp97
ag49
(g53
S'\xfb\t*a\xf8\xbe\xd9?'
p98
tp99
Rp100
ag49
(g53
S'\xf2\x84\xd0Y\x801\xdd?'
p101
tp102
Rp103
ag49
(g53
S'\xaa\x1b\x07r\xb5Y\xea?'
p104
tp105
Rp106
ag49
(g53
S'#B\xae\xf4\x1dP\xe1?'
p107
tp108
Rp109
ag49
(g53
S'\xf2\x84\xd0Y\x801\xdd?'
p110
tp111
Rp112
ag49
(g53
S'\xfb\t*a\xf8\xbe\xd9?'
p113
tp114
Rp115
ag49
(g53
S'\xf2\x84\xd0Y\x801\xdd?'
p116
tp117
Rp118
ag49
(g53
S'\xe1\xcdE\xfcPw\xe4?'
p119
tp120
Rp121
ag49
(g53
S'\x18\x0cRN;\x02\xec?'
p122
tp123
Rp124
ag49
(g53
S'\xe6c\xd5\x0e\xca~\xea?'
p125
tp126
Rp127
ag49
(g53
S'\xfb\t*a\xf8\xbe\xd9?'
p128
tp129
Rp130
ag49
(g53
S'\xf0\x11\xe09\x142\xe7?'
p131
tp132
Rp133
ag49
(g53
S'\xe1\xcdE\xfcPw\xe4?'
p134
tp135
Rp136
ag49
(g53
S'\x18\x0cRN;\x02\xec?'
p137
tp138
Rp139
ag49
(g53
S'\x88\x1a\xa8\xe1\xf4\xa9\xe2?'
p140
tp141
Rp142
ag49
(g53
S'\xf0\x11\xe09\x142\xe7?'
p143
tp144
Rp145
ag49
(g53
S'\x88\x1a\xa8\xe1\xf4\xa9\xe2?'
p146
tp147
Rp148
ag49
(g53
S'\xf2\x84\xd0Y\x801\xdd?'
p149
tp150
Rp151
ag49
(g53
S'\x88\x1a\xa8\xe1\xf4\xa9\xe2?'
p152
tp153
Rp154
ag49
(g53
S'\xf0\x11\xe09\x142\xe7?'
p155
tp156
Rp157
ag49
(g53
S'\xfb\t*a\xf8\xbe\xd9?'
p158
tp159
Rp160
ag49
(g53
S'\xf0\x11\xe09\x142\xe7?'
p161
tp162
Rp163
ag49
(g53
S'\xfb\t*a\xf8\xbe\xd9?'
p164
tp165
Rp166
ag49
(g53
S'\xf2\x84\xd0Y\x801\xdd?'
p167
tp168
Rp169
asS'sp'
p170
(lp171
(S'p0'
p172
I0
S'x'
p173
tp174
a(g172
I0
S'y'
p175
tp176
a(g172
I0
g173
tp177
a(g172
I0
g173
tp178
a(g172
I0
S't'
p179
tp180
a(g172
I0
g175
tp181
ag177
ag176
a(g172
I0
g175
tp182
ag177
a(S'p1'
p183
I0
g173
tp184
a(g183
I0
g173
tp185
a(g183
I0
g175
tp186
a(g172
I0
g175
tp187
ag177
ag184
ag185
ag186
a(S'p2'
p188
I0
g175
tp189
a(g188
I0
g173
tp190
a(S'p3'
p191
I0
g173
tp192
a(g191
I0
g175
tp193
a(g191
I0
g173
tp194
a(g191
I0
g173
tp195
a(g191
I0
g179
tp196
a(g191
I0
g173
tp197
ag193
ag194
ag196
ag197
ag196
a(g191
F1.5707963267948966
g179
tp198
a(g191
F1.5707963267948966
g175
tp199
a(g191
F1.5707963267948966
g179
tp200
ag199
ag200
ag199
a(S'p4'
p201
F1.5707963267948966
g175
tp202
asS's'
p203
(lp204
(g172
I0
g22
tp205
ag174
ag176
ag177
ag178
ag180
ag181
ag177
ag176
ag182
ag177
ag184
ag185
ag186
ag187
ag177
ag184
ag185
ag186
ag189
ag190
ag192
ag193
ag194
ag195
ag196
ag197
ag193
ag194
ag196
ag197
ag196
ag198
ag199
ag200
ag199
ag200
ag199
asS'ui'
p206
(lp207
S'hp'
p208
ag208
aS'hs'
p209
ag209
aS'ss'
p210
ag210
ag209
ag208
ag209
ag209
ag170
ag170
ag208
ag170
ag209
ag170
ag170
ag170
ag170
ag209
ag170
ag208
ag209
ag209
ag209
ag208
ag208
ag209
ag209
ag170
ag209
ag209
ag209
ag208
ag209
ag208
ag208
ag170
asS'um_before'
p211
(lp212
g208
ag208
ag209
ag210
ag209
ag209
ag209
ag208
ag170
ag209
ag170
ag170
ag208
ag210
ag209
ag170
ag170
ag208
ag170
ag209
ag170
ag208
ag209
ag170
ag209
ag208
ag208
ag209
ag210
ag208
ag210
ag170
ag210
ag208
ag209
ag208
ag209
ag170
asS'um_after'
p213
(lp214
g208
ag208
ag209
ag210
ag209
ag209
ag209
ag208
ag170
ag209
ag170
ag170
ag208
ag210
ag209
ag170
ag170
ag208
ag170
ag209
ag170
ag208
ag209
ag170
ag209
ag208
ag208
ag209
ag209
ag208
ag209
ag170
ag209
ag208
ag209
ag208
ag209
ag170
asS'is_normalized_entropy_less_than_threshold'
p215
(lp216
g49
(g50
(S'b1'
p217
I0
I1
tp218
Rp219
(I3
S'|'
p220
NNNI-1
I-1
I0
tp221
bS'\x01'
p222
tp223
Rp224
ag49
(g219
S'\x00'
p225
tp226
Rp227
ag224
ag227
ag227
ag227
ag224
ag227
ag227
ag224
ag224
ag227
ag224
ag227
ag224
ag224
ag227
ag224
ag224
ag224
ag224
ag224
ag227
ag227
ag224
ag227
ag224
ag227
ag224
ag227
ag224
ag224
ag224
ag227
ag224
ag227
ag224
ag224
asaa(lp228
S'index'
p229
aI21329
aatp230
Rp231
.