ccollections
OrderedDict
p0
((lp1
(lp2
S'combination_dict'
p3
ag0
((lp4
(lp5
S'r_to_g_config'
p6
aS'bl'
p7
aa(lp8
S'num_turns'
p9
aI2
aa(lp10
S'start_direction'
p11
acutils_ms
StartDirection
p12
(I0
tp13
Rp14
aa(lp15
S'assistance_type'
p16
acutils_ms
AssistanceType
p17
(I1
tp18
Rp19
aa(lp20
S'start_mode'
p21
aS'y'
p22
aa(lp23
S'ui_given_a_noise'
p24
aF0.7
aa(lp25
S'um_given_ui_noise'
p26
aF0.7
aa(lp27
S'entropy_threshold'
p28
aF0.8
aatp29
Rp30
aa(lp31
S'data'
p32
accollections
defaultdict
p33
(c__builtin__
list
p34
tp35
Rp36
S'a'
p37
(lp38
S'mode_l'
p39
ag39
ag39
aS'move_n'
p40
aS'mode_r'
p41
ag40
ag39
ag39
ag41
ag40
ag41
ag40
ag41
ag41
aS'move_p'
p42
ag41
ag42
ag41
ag41
ag39
ag39
ag39
ag41
ag40
ag41
ag39
ag39
ag41
ag40
ag39
ag39
ag39
ag40
ag39
ag40
ag41
ag39
ag39
ag39
ag39
ag40
ag39
ag40
ag39
ag39
ag39
ag41
ag41
ag40
ag39
ag40
ag41
ag39
ag41
ag40
ag39
ag41
ag40
ag41
ag41
ag39
ag39
ag39
ag39
ag39
ag41
ag41
ag41
ag40
ag39
ag41
ag40
ag39
ag39
ag41
ag41
ag40
ag39
ag40
asS'assistance_match_with_ground_truth'
p43
(lp44
I00
aI00
aI01
aI01
aI01
aI00
aI00
aI00
aI01
aI01
aI01
aI01
aI00
aI01
aI01
aI00
aI01
aI00
aI00
aI00
aI00
aI00
aI01
aI00
aI00
aI00
aI00
aI01
aI00
aI00
aI00
aI01
aI00
aI01
aI01
aI00
aI00
aI00
aI00
aI01
aI00
aI01
aI00
aI00
aI00
aI00
aI00
aI01
aI01
aI01
aI00
aI00
aI00
aI01
aI01
aI00
aI01
aI00
aI00
aI00
aI00
aI00
aI00
aI00
aI00
aI00
aI00
aI01
aI00
aI00
aI01
aI00
aI00
aI00
aI00
aI01
aI01
aI01
aI01
asS'is_u_intended_equals_um'
p45
(lp46
I00
aI00
aI01
aI01
aI01
aI00
aI00
aI01
aI01
aI01
aI01
aI01
aI01
aI01
aI01
aI01
aI01
aI00
aI01
aI01
aI00
aI01
aI01
aI00
aI01
aI00
aI01
aI01
aI01
aI01
aI00
aI01
aI00
aI01
aI01
aI01
aI01
aI00
aI00
aI01
aI01
aI01
aI01
aI00
aI01
aI01
aI01
aI01
aI00
aI01
aI00
aI01
aI01
aI01
aI01
aI01
aI01
aI00
aI01
aI01
aI00
aI01
aI01
aI01
aI01
aI00
aI01
aI01
aI01
aI01
aI01
aI01
aI01
aI01
aI01
aI01
aI00
aI01
aI01
asS'total_steps'
p47
I79
sS'normalized_h_of_p_ui_given_um'
p48
(lp49
cnumpy.core.multiarray
scalar
p50
(cnumpy
dtype
p51
(S'f8'
p52
I0
I1
tp53
Rp54
(I3
S'<'
p55
NNNI-1
I-1
I0
tp56
bS'\xc1\xb3\x9b\xa5\x94\x07\xef?'
p57
tp58
Rp59
ag50
(g54
S'\xc1\xb3\x9b\xa5\x94\x07\xef?'
p60
tp61
Rp62
ag50
(g54
S'\xf8\x1b\xc6\xe7x\x9c\xdf?'
p63
tp64
Rp65
ag50
(g54
S'/|\xae\x0b\xd4\xf4\xe6?'
p66
tp67
Rp68
ag50
(g54
S'\\{V?\xd5\x95\xe4?'
p69
tp70
Rp71
ag50
(g54
S'Y\t\x19\xc0jt\xed?'
p72
tp73
Rp74
ag50
(g54
S'\xc1\xb3\x9b\xa5\x94\x07\xef?'
p75
tp76
Rp77
ag50
(g54
S'\xa4a\x15\x13\xb7\x7f\xe9?'
p78
tp79
Rp80
ag50
(g54
S'\\{V?\xd5\x95\xe4?'
p81
tp82
Rp83
ag50
(g54
S'/|\xae\x0b\xd4\xf4\xe6?'
p84
tp85
Rp86
ag50
(g54
S'\\{V?\xd5\x95\xe4?'
p87
tp88
Rp89
ag50
(g54
S'/|\xae\x0b\xd4\xf4\xe6?'
p90
tp91
Rp92
ag50
(g54
S' \xcb\xbdy\xfb\xa3\xee?'
p93
tp94
Rp95
ag50
(g54
S'\\{V?\xd5\x95\xe4?'
p96
tp97
Rp98
ag50
(g54
S';\xce\xe9\xb8?/\xe0?'
p99
tp100
Rp101
ag50
(g54
S' \xcb\xbdy\xfb\xa3\xee?'
p102
tp103
Rp104
ag50
(g54
S';\xce\xe9\xb8?/\xe0?'
p105
tp106
Rp107
ag50
(g54
S'\xd6\xfb\x9f\xad\xeb\xe4\xeb?'
p108
tp109
Rp110
ag50
(g54
S'lew\xe2f\xf3\xe5?'
p111
tp112
Rp113
ag50
(g54
S'\x8c\x86R\x18`f\xec?'
p114
tp115
Rp116
ag50
(g54
S'\xc1\xb3\x9b\xa5\x94\x07\xef?'
p117
tp118
Rp119
ag50
(g54
S'\xa4a\x15\x13\xb7\x7f\xe9?'
p120
tp121
Rp122
ag50
(g54
S'\\{V?\xd5\x95\xe4?'
p123
tp124
Rp125
ag50
(g54
S'Y\t\x19\xc0jt\xed?'
p126
tp127
Rp128
ag50
(g54
S'lew\xe2f\xf3\xe5?'
p129
tp130
Rp131
ag50
(g54
S'\xc1\xb3\x9b\xa5\x94\x07\xef?'
p132
tp133
Rp134
ag50
(g54
S'\xa4a\x15\x13\xb7\x7f\xe9?'
p135
tp136
Rp137
ag50
(g54
S'\\{V?\xd5\x95\xe4?'
p138
tp139
Rp140
ag50
(g54
S'\xbd\xfbD\x17\x8f\x9d\xeb?'
p141
tp142
Rp143
ag50
(g54
S'\x8c\x86R\x18`f\xec?'
p144
tp145
Rp146
ag50
(g54
S'\xc1\xb3\x9b\xa5\x94\x07\xef?'
p147
tp148
Rp149
ag50
(g54
S'\xf8\x1b\xc6\xe7x\x9c\xdf?'
p150
tp151
Rp152
ag50
(g54
S'Y\t\x19\xc0jt\xed?'
p153
tp154
Rp155
ag50
(g54
S'\xf8\x1b\xc6\xe7x\x9c\xdf?'
p156
tp157
Rp158
ag50
(g54
S'/|\xae\x0b\xd4\xf4\xe6?'
p159
tp160
Rp161
ag50
(g54
S'lew\xe2f\xf3\xe5?'
p162
tp163
Rp164
ag50
(g54
S'\x8c\x86R\x18`f\xec?'
p165
tp166
Rp167
ag50
(g54
S'\xc1\xb3\x9b\xa5\x94\x07\xef?'
p168
tp169
Rp170
ag50
(g54
S'\xc1\xb3\x9b\xa5\x94\x07\xef?'
p171
tp172
Rp173
ag50
(g54
S'\xf8\x1b\xc6\xe7x\x9c\xdf?'
p174
tp175
Rp176
ag50
(g54
S'\xbd\xfbD\x17\x8f\x9d\xeb?'
p177
tp178
Rp179
ag50
(g54
S'\xf8\x1b\xc6\xe7x\x9c\xdf?'
p180
tp181
Rp182
ag50
(g54
S'\xbd\xfbD\x17\x8f\x9d\xeb?'
p183
tp184
Rp185
ag50
(g54
S'\xc1\xb3\x9b\xa5\x94\x07\xef?'
p186
tp187
Rp188
ag50
(g54
S'\x8c\x86R\x18`f\xec?'
p189
tp190
Rp191
ag50
(g54
S'\xa4a\x15\x13\xb7\x7f\xe9?'
p192
tp193
Rp194
ag50
(g54
S' \xcb\xbdy\xfb\xa3\xee?'
p195
tp196
Rp197
ag50
(g54
S'\\{V?\xd5\x95\xe4?'
p198
tp199
Rp200
ag50
(g54
S'\x86\xac\xc7@\x828\xe2?'
p201
tp202
Rp203
ag50
(g54
S'\xf8\x1b\xc6\xe7x\x9c\xdf?'
p204
tp205
Rp206
ag50
(g54
S'Y\t\x19\xc0jt\xed?'
p207
tp208
Rp209
ag50
(g54
S'lew\xe2f\xf3\xe5?'
p210
tp211
Rp212
ag50
(g54
S'\xa4a\x15\x13\xb7\x7f\xe9?'
p213
tp214
Rp215
ag50
(g54
S'\\{V?\xd5\x95\xe4?'
p216
tp217
Rp218
ag50
(g54
S'/|\xae\x0b\xd4\xf4\xe6?'
p219
tp220
Rp221
ag50
(g54
S'\xa4a\x15\x13\xb7\x7f\xe9?'
p222
tp223
Rp224
ag50
(g54
S'\\{V?\xd5\x95\xe4?'
p225
tp226
Rp227
ag50
(g54
S'Y\t\x19\xc0jt\xed?'
p228
tp229
Rp230
ag50
(g54
S' \xcb\xbdy\xfb\xa3\xee?'
p231
tp232
Rp233
ag50
(g54
S'lew\xe2f\xf3\xe5?'
p234
tp235
Rp236
ag50
(g54
S'\xc1\xb3\x9b\xa5\x94\x07\xef?'
p237
tp238
Rp239
ag50
(g54
S'\x8c\x86R\x18`f\xec?'
p240
tp241
Rp242
ag50
(g54
S'\x8c\x86R\x18`f\xec?'
p243
tp244
Rp245
ag50
(g54
S'\x8c\x86R\x18`f\xec?'
p246
tp247
Rp248
ag50
(g54
S'\xa4a\x15\x13\xb7\x7f\xe9?'
p249
tp250
Rp251
ag50
(g54
S'\xd6\xfb\x9f\xad\xeb\xe4\xeb?'
p252
tp253
Rp254
ag50
(g54
S' \xcb\xbdy\xfb\xa3\xee?'
p255
tp256
Rp257
ag50
(g54
S'\\{V?\xd5\x95\xe4?'
p258
tp259
Rp260
ag50
(g54
S'\xbd\xfbD\x17\x8f\x9d\xeb?'
p261
tp262
Rp263
ag50
(g54
S'\xa4a\x15\x13\xb7\x7f\xe9?'
p264
tp265
Rp266
ag50
(g54
S'\\{V?\xd5\x95\xe4?'
p267
tp268
Rp269
ag50
(g54
S'\xbd\xfbD\x17\x8f\x9d\xeb?'
p270
tp271
Rp272
ag50
(g54
S'\x8c\x86R\x18`f\xec?'
p273
tp274
Rp275
ag50
(g54
S'\xa4a\x15\x13\xb7\x7f\xe9?'
p276
tp277
Rp278
ag50
(g54
S' \xcb\xbdy\xfb\xa3\xee?'
p279
tp280
Rp281
ag50
(g54
S'\\{V?\xd5\x95\xe4?'
p282
tp283
Rp284
ag50
(g54
S'\x86\xac\xc7@\x828\xe2?'
p285
tp286
Rp287
ag50
(g54
S'\xf8\x1b\xc6\xe7x\x9c\xdf?'
p288
tp289
Rp290
ag50
(g54
S'/|\xae\x0b\xd4\xf4\xe6?'
p291
tp292
Rp293
asS'sp'
p294
(lp295
(S'p0'
p296
I0
S'y'
p297
tp298
ag298
a(g296
I0
S'x'
p299
tp300
a(S'p1'
p301
I0
g299
tp302
a(g301
I0
g297
tp303
a(g296
I0
g297
tp304
ag298
a(g296
I0
S't'
p305
tp306
a(g296
I0
g299
tp307
ag302
ag303
a(S'p2'
p308
I0
g297
tp309
a(g308
I0
g297
tp310
a(g308
I0
g305
tp311
a(g308
F1.5707963267948966
g305
tp312
a(g308
I0
g305
tp313
ag312
a(g308
F1.5707963267948966
g305
tp314
a(g308
F1.5707963267948966
g297
tp315
a(g308
F1.5707963267948966
g297
tp316
a(g308
F1.5707963267948966
g297
tp317
a(g308
F1.5707963267948966
g305
tp318
a(g308
F1.5707963267948966
g299
tp319
a(g301
F1.5707963267948966
g299
tp320
a(g301
F1.5707963267948966
g305
tp321
a(g301
F1.5707963267948966
g305
tp322
a(g301
F1.5707963267948966
g299
tp323
a(g301
F1.5707963267948966
g297
tp324
a(g301
F1.5707963267948966
g305
tp325
a(g301
F1.5707963267948966
g305
tp326
ag322
a(g301
F1.5707963267948966
g297
tp327
a(g296
F1.5707963267948966
g297
tp328
a(g296
F1.5707963267948966
g299
tp329
a(g301
F1.5707963267948966
g299
tp330
ag321
ag326
ag322
ag322
ag327
ag325
ag327
ag325
ag322
ag326
ag323
a(g301
F1.5707963267948966
g299
tp331
ag324
a(g308
F1.5707963267948966
g297
tp332
a(g308
F1.5707963267948966
g299
tp333
ag320
ag321
ag323
ag324
ag332
ag318
ag319
ag320
ag331
ag321
ag322
ag326
ag326
ag326
ag323
a(g301
F1.5707963267948966
g299
tp334
ag331
ag324
ag325
ag323
ag324
ag325
ag326
ag323
ag331
ag324
ag332
ag333
a(S'p3'
p335
F1.5707963267948966
g299
tp336
asS's'
p337
(lp338
(g296
I0
g22
tp339
ag298
ag298
ag300
ag302
ag303
ag304
ag298
ag306
ag307
ag302
ag303
ag309
ag310
ag311
ag312
ag313
ag312
ag314
ag315
ag316
ag317
ag318
ag319
ag320
ag321
ag322
ag323
ag324
ag325
ag326
ag322
ag327
ag328
ag329
ag330
ag321
ag326
ag322
ag322
ag327
ag325
ag327
ag325
ag322
ag326
ag323
ag331
ag324
ag332
ag333
ag320
ag321
ag323
ag324
ag332
ag318
ag319
ag320
ag331
ag321
ag322
ag326
ag326
ag326
ag323
ag334
ag331
ag324
ag325
ag323
ag324
ag325
ag326
ag323
ag331
ag324
ag332
ag333
asS'ui'
p340
(lp341
S'hs'
p342
aS'hp'
p343
ag342
aS'ss'
p344
ag343
ag344
ag344
ag342
ag343
ag342
ag343
ag342
ag342
ag343
ag294
ag344
ag294
ag344
ag344
ag342
ag343
ag342
ag343
ag342
ag344
ag343
ag343
ag342
ag342
ag344
ag342
ag342
ag343
ag342
ag344
ag342
ag343
ag343
ag294
ag342
ag344
ag342
ag343
ag343
ag344
ag343
ag343
ag343
ag344
ag343
ag344
ag344
ag342
ag343
ag344
ag343
ag343
ag344
ag344
ag342
ag294
ag342
ag342
ag342
ag342
ag343
ag342
ag294
ag343
ag343
ag343
ag343
ag344
ag343
ag343
ag343
ag342
ag342
ag342
asS'um_before'
p345
(lp346
g294
ag294
ag342
ag344
ag343
ag294
ag294
ag343
ag343
ag344
ag343
ag344
ag344
ag343
ag294
ag344
ag294
ag294
ag342
ag344
ag294
ag343
ag343
ag294
ag342
ag294
ag343
ag343
ag343
ag344
ag294
ag342
ag294
ag342
ag344
ag342
ag344
ag294
ag294
ag342
ag343
ag342
ag343
ag294
ag344
ag343
ag344
ag343
ag342
ag342
ag294
ag342
ag343
ag343
ag344
ag343
ag343
ag294
ag344
ag342
ag294
ag344
ag344
ag344
ag343
ag294
ag344
ag343
ag343
ag343
ag343
ag343
ag344
ag343
ag344
ag343
ag342
ag342
ag344
asS'um_after'
p347
(lp348
g294
ag294
ag342
ag344
ag343
ag294
ag294
ag343
ag343
ag344
ag343
ag344
ag344
ag343
ag294
ag344
ag294
ag294
ag342
ag344
ag294
ag343
ag343
ag294
ag342
ag294
ag343
ag343
ag343
ag344
ag294
ag342
ag294
ag342
ag344
ag342
ag344
ag294
ag294
ag342
ag343
ag342
ag343
ag294
ag344
ag343
ag344
ag343
ag344
ag342
ag294
ag342
ag343
ag343
ag344
ag343
ag343
ag294
ag344
ag342
ag294
ag344
ag344
ag344
ag343
ag294
ag344
ag343
ag343
ag343
ag343
ag343
ag344
ag343
ag344
ag343
ag344
ag342
ag344
asS'is_normalized_entropy_less_than_threshold'
p349
(lp350
g50
(g51
(S'b1'
p351
I0
I1
tp352
Rp353
(I3
S'|'
p354
NNNI-1
I-1
I0
tp355
bS'\x00'
p356
tp357
Rp358
ag358
ag50
(g353
S'\x01'
p359
tp360
Rp361
ag361
ag361
ag358
ag358
ag361
ag361
ag361
ag361
ag361
ag358
ag361
ag361
ag358
ag361
ag358
ag361
ag358
ag358
ag361
ag361
ag358
ag361
ag358
ag361
ag361
ag358
ag358
ag358
ag361
ag358
ag361
ag361
ag361
ag358
ag358
ag358
ag361
ag358
ag361
ag358
ag358
ag358
ag361
ag358
ag361
ag361
ag361
ag358
ag361
ag361
ag361
ag361
ag361
ag361
ag358
ag358
ag361
ag358
ag358
ag358
ag358
ag361
ag358
ag358
ag361
ag358
ag361
ag361
ag358
ag358
ag361
ag358
ag361
ag361
ag361
ag361
asaa(lp362
S'index'
p363
aI70384
aatp364
Rp365
.