ccollections
OrderedDict
p0
((lp1
(lp2
S'combination_dict'
p3
ag0
((lp4
(lp5
S'r_to_g_config'
p6
aS'tl'
p7
aa(lp8
S'num_turns'
p9
aI3
aa(lp10
S'start_direction'
p11
acutils_ms
StartDirection
p12
(I1
tp13
Rp14
aa(lp15
S'assistance_type'
p16
acutils_ms
AssistanceType
p17
(I0
tp18
Rp19
aa(lp20
S'start_mode'
p21
aS't'
p22
aa(lp23
S'ui_given_a_noise'
p24
aF0.3
aa(lp25
S'um_given_ui_noise'
p26
aF0.3
aa(lp27
S'entropy_threshold'
p28
aF0.5
aatp29
Rp30
aa(lp31
S'data'
p32
accollections
defaultdict
p33
(c__builtin__
list
p34
tp35
Rp36
S'a'
p37
(lp38
S'mode_l'
p39
ag39
aS'move_p'
p40
ag40
aS'mode_r'
p41
ag39
ag41
ag40
ag39
ag40
ag41
ag41
ag40
ag39
aS'move_n'
p42
ag41
ag40
ag40
ag41
ag40
ag39
ag40
ag39
ag40
ag39
ag39
ag41
ag41
ag42
ag39
ag42
ag39
ag42
ag41
ag40
ag41
ag40
ag41
ag42
asS'assistance_match_with_ground_truth'
p43
(lp44
I00
aI01
aI00
aI00
aI00
aI00
aI01
aI00
aI01
aI00
aI00
aI01
aI01
aI01
aI00
aI01
aI00
aI00
aI01
aI00
aI01
aI00
aI01
aI01
aI00
aI00
aI00
aI01
aI00
aI01
aI00
aI01
aI01
aI01
aI01
aI01
aI01
aI01
aI01
asS'is_u_intended_equals_um'
p45
(lp46
I01
aI01
aI01
aI01
aI00
aI00
aI01
aI01
aI01
aI01
aI01
aI01
aI01
aI01
aI01
aI01
aI01
aI01
aI01
aI01
aI01
aI01
aI01
aI01
aI00
aI00
aI00
aI01
aI00
aI01
aI00
aI01
aI01
aI01
aI01
aI01
aI01
aI01
aI01
asS'total_steps'
p47
I39
sS'normalized_h_of_p_ui_given_um'
p48
(lp49
cnumpy.core.multiarray
scalar
p50
(cnumpy
dtype
p51
(S'f8'
p52
I0
I1
tp53
Rp54
(I3
S'<'
p55
NNNI-1
I-1
I0
tp56
bS'\x9cXn\x90\r\x9c\xde?'
p57
tp58
Rp59
ag50
(g54
S'\xf0\xe0\x85S\xf4p\xb4?'
p60
tp61
Rp62
ag50
(g54
S'\xb2q\x81\xe2\x92\xb3\xe4?'
p63
tp64
Rp65
ag50
(g54
S'\x92H\xa1\x97%\x06\xea?'
p66
tp67
Rp68
ag50
(g54
S'\xc9\x16U\x18\xf2^\xe2?'
p69
tp70
Rp71
ag50
(g54
S'\xa9\x89\x88}\xd4=\xe6?'
p72
tp73
Rp74
ag50
(g54
S'\x7f\x0e\xba\x00o\x13\xbf?'
p75
tp76
Rp77
ag50
(g54
S'\x1b\x92T\x07\xd2#\xe7?'
p78
tp79
Rp80
ag50
(g54
S'\xf0\xe0\x85S\xf4p\xb4?'
p81
tp82
Rp83
ag50
(g54
S'\x92H\xa1\x97%\x06\xea?'
p84
tp85
Rp86
ag50
(g54
S'\x96\x01\xd2\xe5\x9c\xa0\xe5?'
p87
tp88
Rp89
ag50
(g54
S'\x7f\x0e\xba\x00o\x13\xbf?'
p90
tp91
Rp92
ag50
(g54
S'\xaa!a`\\\x84\xd0?'
p93
tp94
Rp95
ag50
(g54
S'\xf0\xe0\x85S\xf4p\xb4?'
p96
tp97
Rp98
ag50
(g54
S'\xab\xb5a\xbam\xb7\xe7?'
p99
tp100
Rp101
ag50
(g54
S'\x7f\x0e\xba\x00o\x13\xbf?'
p102
tp103
Rp104
ag50
(g54
S'\xb2q\x81\xe2\x92\xb3\xe4?'
p105
tp106
Rp107
ag50
(g54
S'\x92H\xa1\x97%\x06\xea?'
p108
tp109
Rp110
ag50
(g54
S'\x7f\x0e\xba\x00o\x13\xbf?'
p111
tp112
Rp113
ag50
(g54
S'\x1b\x92T\x07\xd2#\xe7?'
p114
tp115
Rp116
ag50
(g54
S'\xf0\xe0\x85S\xf4p\xb4?'
p117
tp118
Rp119
ag50
(g54
S'\x1b\x92T\x07\xd2#\xe7?'
p120
tp121
Rp122
ag50
(g54
S'\xf0\xe0\x85S\xf4p\xb4?'
p123
tp124
Rp125
ag50
(g54
S'\xaa!a`\\\x84\xd0?'
p126
tp127
Rp128
ag50
(g54
S'\xe8\xcb&E-/\xe2?'
p129
tp130
Rp131
ag50
(g54
S'\xa9\x89\x88}\xd4=\xe6?'
p132
tp133
Rp134
ag50
(g54
S'\x02\xad\xec^\xd9\x1c\xe4?'
p135
tp136
Rp137
ag50
(g54
S'\x7f\x0e\xba\x00o\x13\xbf?'
p138
tp139
Rp140
ag50
(g54
S'\x8e\x8e\xb7\x15\xe0\x1f\xe7?'
p141
tp142
Rp143
ag50
(g54
S'\xf0\xe0\x85S\xf4p\xb4?'
p144
tp145
Rp146
ag50
(g54
S'\x8e\x8e\xb7\x15\xe0\x1f\xe7?'
p147
tp148
Rp149
ag50
(g54
S'\xf0\xe0\x85S\xf4p\xb4?'
p150
tp151
Rp152
ag50
(g54
S'\xa2\x94\x13\x89\x96c\xc2?'
p153
tp154
Rp155
ag50
(g54
S'\x7f\x0e\xba\x00o\x13\xbf?'
p156
tp157
Rp158
ag50
(g54
S'\xaa!a`\\\x84\xd0?'
p159
tp160
Rp161
ag50
(g54
S'\x7f\x0e\xba\x00o\x13\xbf?'
p162
tp163
Rp164
ag50
(g54
S'\xaa!a`\\\x84\xd0?'
p165
tp166
Rp167
ag50
(g54
S'\x7f\x0e\xba\x00o\x13\xbf?'
p168
tp169
Rp170
ag50
(g54
S'\xa2\x94\x13\x89\x96c\xc2?'
p171
tp172
Rp173
asS'sp'
p174
(lp175
(S'p0'
p176
I0
S't'
p177
tp178
a(g176
I0
S'y'
p179
tp180
a(g176
I0
g179
tp181
a(g176
I0
S'x'
p182
tp183
a(g176
I0
g177
tp184
a(g176
I0
g182
tp185
a(g176
I0
g179
tp186
a(g176
I0
g177
tp187
ag180
ag183
a(g176
I0
g182
tp188
ag186
a(S'p1'
p189
I0
g179
tp190
a(g189
I0
g182
tp191
a(g176
I0
g182
tp192
ag186
ag181
ag183
ag186
ag187
ag180
ag187
ag180
ag190
a(g189
I0
g179
tp193
a(g189
I0
g177
tp194
a(g189
I0
g177
tp195
a(g189
I0
g182
tp196
a(g189
I0
g179
tp197
ag191
ag197
ag191
a(S'p2'
p198
I0
g182
tp199
a(g198
I0
g179
tp200
a(S'p3'
p201
I0
g179
tp202
a(g201
I0
g177
tp203
a(g201
F1.5707963267948966
g177
tp204
a(g201
F1.5707963267948966
g182
tp205
a(S'p4'
p206
F1.5707963267948966
g182
tp207
asS's'
p208
(lp209
(g176
I0
g22
tp210
ag178
ag180
ag181
ag183
ag184
ag185
ag186
ag187
ag180
ag183
ag188
ag186
ag190
ag191
ag192
ag186
ag181
ag183
ag186
ag187
ag180
ag187
ag180
ag190
ag193
ag194
ag195
ag196
ag197
ag191
ag197
ag191
ag199
ag200
ag202
ag203
ag204
ag205
asS'ui'
p211
(lp212
S'ss'
p213
aS'hs'
p214
ag174
ag174
ag174
ag214
aS'hp'
p215
ag213
ag214
ag174
ag213
ag215
ag174
ag214
ag174
ag214
ag213
ag215
ag215
ag174
ag214
ag174
ag214
ag213
ag214
ag215
ag174
ag215
ag213
ag214
ag215
ag214
ag213
ag174
ag174
ag215
ag174
ag215
ag213
asS'um_before'
p216
(lp217
g213
ag214
ag213
ag214
ag214
ag215
ag215
ag215
ag214
ag214
ag213
ag215
ag174
ag214
ag174
ag215
ag213
ag214
ag215
ag215
ag214
ag215
ag214
ag174
ag174
ag215
ag174
ag215
ag215
ag214
ag215
ag214
ag213
ag215
ag174
ag215
ag174
ag215
ag213
asS'um_after'
p218
(lp219
g213
ag214
ag213
ag214
ag214
ag215
ag215
ag215
ag214
ag214
ag213
ag215
ag174
ag214
ag174
ag215
ag213
ag214
ag215
ag215
ag214
ag215
ag214
ag174
ag174
ag215
ag174
ag215
ag215
ag214
ag215
ag214
ag213
ag215
ag174
ag215
ag174
ag215
ag213
asS'is_normalized_entropy_less_than_threshold'
p220
(lp221
g50
(g51
(S'b1'
p222
I0
I1
tp223
Rp224
(I3
S'|'
p225
NNNI-1
I-1
I0
tp226
bS'\x01'
p227
tp228
Rp229
ag229
ag50
(g224
S'\x00'
p230
tp231
Rp232
ag232
ag232
ag232
ag229
ag232
ag229
ag232
ag232
ag229
ag229
ag229
ag232
ag229
ag232
ag232
ag229
ag232
ag229
ag232
ag229
ag229
ag232
ag232
ag232
ag229
ag232
ag229
ag232
ag229
ag229
ag229
ag229
ag229
ag229
ag229
ag229
asaa(lp233
S'index'
p234
aI53854
aatp235
Rp236
.