ccollections
OrderedDict
p0
((lp1
(lp2
S'combination_dict'
p3
ag0
((lp4
(lp5
S'r_to_g_config'
p6
aS'tl'
p7
aa(lp8
S'num_turns'
p9
aI2
aa(lp10
S'start_direction'
p11
acutils_ms
StartDirection
p12
(I1
tp13
Rp14
aa(lp15
S'assistance_type'
p16
acutils_ms
AssistanceType
p17
(I1
tp18
Rp19
aa(lp20
S'start_mode'
p21
aS't'
p22
aa(lp23
S'ui_given_a_noise'
p24
aF0.7
aa(lp25
S'um_given_ui_noise'
p26
aF0.5
aa(lp27
S'entropy_threshold'
p28
aF0.8
aatp29
Rp30
aa(lp31
S'data'
p32
accollections
defaultdict
p33
(c__builtin__
list
p34
tp35
Rp36
S'a'
p37
(lp38
S'mode_l'
p39
aS'mode_r'
p40
ag40
aS'move_p'
p41
ag41
ag40
ag39
ag41
ag39
ag40
ag39
ag39
ag40
ag39
ag41
ag41
ag41
ag41
ag39
ag40
aS'move_n'
p42
ag40
ag41
ag39
ag40
ag41
ag39
ag42
ag39
ag39
ag39
ag39
ag40
ag39
ag41
ag39
ag40
ag41
ag40
ag41
ag39
ag39
ag39
ag39
ag39
ag39
ag42
ag40
ag41
ag40
ag40
ag39
ag39
ag39
ag41
ag39
ag40
ag42
ag40
ag39
ag40
ag41
ag40
ag41
ag39
ag40
ag42
ag40
ag42
ag40
ag39
ag42
ag40
ag41
asS'assistance_match_with_ground_truth'
p43
(lp44
I00
aI00
aI01
aI00
aI00
aI00
aI01
aI00
aI00
aI00
aI00
aI00
aI00
aI01
aI00
aI00
aI00
aI01
aI00
aI01
aI00
aI01
aI00
aI00
aI01
aI01
aI01
aI01
aI00
aI00
aI00
aI00
aI00
aI01
aI01
aI00
aI01
aI00
aI01
aI00
aI00
aI00
aI00
aI00
aI00
aI01
aI00
aI01
aI00
aI00
aI00
aI00
aI00
aI01
aI01
aI00
aI01
aI01
aI00
aI00
aI01
aI00
aI01
aI00
aI00
aI01
aI00
aI01
aI00
aI00
aI01
aI01
aI01
aI01
asS'is_u_intended_equals_um'
p45
(lp46
I01
aI00
aI01
aI01
aI01
aI01
aI01
aI01
aI01
aI01
aI01
aI01
aI01
aI01
aI01
aI01
aI01
aI01
aI01
aI00
aI01
aI00
aI01
aI01
aI01
aI01
aI01
aI01
aI00
aI00
aI01
aI01
aI01
aI01
aI01
aI01
aI01
aI01
aI01
aI01
aI01
aI01
aI01
aI01
aI01
aI01
aI01
aI01
aI01
aI00
aI01
aI01
aI01
aI01
aI01
aI01
aI01
aI01
aI01
aI01
aI01
aI01
aI00
aI01
aI01
aI01
aI01
aI00
aI01
aI01
aI01
aI01
aI00
aI01
asS'total_steps'
p47
I74
sS'normalized_h_of_p_ui_given_um'
p48
(lp49
cnumpy.core.multiarray
scalar
p50
(cnumpy
dtype
p51
(S'f8'
p52
I0
I1
tp53
Rp54
(I3
S'<'
p55
NNNI-1
I-1
I0
tp56
bS't.\x91~\xd8\xc8\xe4?'
p57
tp58
Rp59
ag50
(g54
S'\xfa\xd6\xc1;\xefP\xed?'
p60
tp61
Rp62
ag50
(g54
S'\x9c\xa2\x93\x80\xf6Z\xd3?'
p63
tp64
Rp65
ag50
(g54
S'eL\xc5\xeb61\xed?'
p66
tp67
Rp68
ag50
(g54
S'\x00kk\xc4iO\xea?'
p69
tp70
Rp71
ag50
(g54
S'\xa8\n\x9f\xbf\xd2e\xe0?'
p72
tp73
Rp74
ag50
(g54
S'H\xd2\xdcr!>\xd5?'
p75
tp76
Rp77
ag50
(g54
S'\x99\xd5\x19p\x90~\xe3?'
p78
tp79
Rp80
ag50
(g54
S't.\x91~\xd8\xc8\xe4?'
p81
tp82
Rp83
ag50
(g54
S'\xa8\n\x9f\xbf\xd2e\xe0?'
p84
tp85
Rp86
ag50
(g54
S'\xdd\xba\xe8N_[\xe4?'
p87
tp88
Rp89
ag50
(g54
S't.\x91~\xd8\xc8\xe4?'
p90
tp91
Rp92
ag50
(g54
S'\xa8\n\x9f\xbf\xd2e\xe0?'
p93
tp94
Rp95
ag50
(g54
S'H\xd2\xdcr!>\xd5?'
p96
tp97
Rp98
ag50
(g54
S'eL\xc5\xeb61\xed?'
p99
tp100
Rp101
ag50
(g54
S'eL\xc5\xeb61\xed?'
p102
tp103
Rp104
ag50
(g54
S'eL\xc5\xeb61\xed?'
p105
tp106
Rp107
ag50
(g54
S'\x12\x97\xab\x1bn\x1e\xdb?'
p108
tp109
Rp110
ag50
(g54
S't.\x91~\xd8\xc8\xe4?'
p111
tp112
Rp113
ag50
(g54
S'\xb4-\xc8\xbf\x8e\x15\xe6?'
p114
tp115
Rp116
ag50
(g54
S'z\xac\x89\xcc\xe7\xe9\xe4?'
p117
tp118
Rp119
ag50
(g54
S'\xb4-\xc8\xbf\x8e\x15\xe6?'
p120
tp121
Rp122
ag50
(g54
S'\x99\xd5\x19p\x90~\xe3?'
p123
tp124
Rp125
ag50
(g54
S't.\x91~\xd8\xc8\xe4?'
p126
tp127
Rp128
ag50
(g54
S'\x9c\xa2\x93\x80\xf6Z\xd3?'
p129
tp130
Rp131
ag50
(g54
S'\x12\x97\xab\x1bn\x1e\xdb?'
p132
tp133
Rp134
ag50
(g54
S'H\xd2\xdcr!>\xd5?'
p135
tp136
Rp137
ag50
(g54
S'\r\xady\xf3\x99!\xe6?'
p138
tp139
Rp140
ag50
(g54
S'H\xdec\xfdi.\xeb?'
p141
tp142
Rp143
ag50
(g54
S'H\xdec\xfdi.\xeb?'
p144
tp145
Rp146
ag50
(g54
S'\xdd\xba\xe8N_[\xe4?'
p147
tp148
Rp149
ag50
(g54
S't.\x91~\xd8\xc8\xe4?'
p150
tp151
Rp152
ag50
(g54
S'\xa8\n\x9f\xbf\xd2e\xe0?'
p153
tp154
Rp155
ag50
(g54
S'H\xd2\xdcr!>\xd5?'
p156
tp157
Rp158
ag50
(g54
S'\x12\x97\xab\x1bn\x1e\xdb?'
p159
tp160
Rp161
ag50
(g54
S't.\x91~\xd8\xc8\xe4?'
p162
tp163
Rp164
ag50
(g54
S'\x9c\xa2\x93\x80\xf6Z\xd3?'
p165
tp166
Rp167
ag50
(g54
S'\x00kk\xc4iO\xea?'
p168
tp169
Rp170
ag50
(g54
S'\x9c\xa2\x93\x80\xf6Z\xd3?'
p171
tp172
Rp173
ag50
(g54
S'eL\xc5\xeb61\xed?'
p174
tp175
Rp176
ag50
(g54
S'\xdd\xba\xe8N_[\xe4?'
p177
tp178
Rp179
ag50
(g54
S'\xdd\xba\xe8N_[\xe4?'
p180
tp181
Rp182
ag50
(g54
S'\xdd\xba\xe8N_[\xe4?'
p183
tp184
Rp185
ag50
(g54
S'\xdd\xba\xe8N_[\xe4?'
p186
tp187
Rp188
ag50
(g54
S'\xdd\xba\xe8N_[\xe4?'
p189
tp190
Rp191
ag50
(g54
S'H\xd2\xdcr!>\xd5?'
p192
tp193
Rp194
ag50
(g54
S'z\xac\x89\xcc\xe7\xe9\xe4?'
p195
tp196
Rp197
ag50
(g54
S'\x9c\xa2\x93\x80\xf6Z\xd3?'
p198
tp199
Rp200
ag50
(g54
S'\x00kk\xc4iO\xea?'
p201
tp202
Rp203
ag50
(g54
S'\xfa\xd6\xc1;\xefP\xed?'
p204
tp205
Rp206
ag50
(g54
S'\xa8\n\x9f\xbf\xd2e\xe0?'
p207
tp208
Rp209
ag50
(g54
S'\xdd\xba\xe8N_[\xe4?'
p210
tp211
Rp212
ag50
(g54
S'\xdd\xba\xe8N_[\xe4?'
p213
tp214
Rp215
ag50
(g54
S'H\xd2\xdcr!>\xd5?'
p216
tp217
Rp218
ag50
(g54
S'\x12\x97\xab\x1bn\x1e\xdb?'
p219
tp220
Rp221
ag50
(g54
S't.\x91~\xd8\xc8\xe4?'
p222
tp223
Rp224
ag50
(g54
S'\x9c\xa2\x93\x80\xf6Z\xd3?'
p225
tp226
Rp227
ag50
(g54
S'\r\xady\xf3\x99!\xe6?'
p228
tp229
Rp230
ag50
(g54
S'\xa8\n\x9f\xbf\xd2e\xe0?'
p231
tp232
Rp233
ag50
(g54
S't.\x91~\xd8\xc8\xe4?'
p234
tp235
Rp236
ag50
(g54
S'\x9c\xa2\x93\x80\xf6Z\xd3?'
p237
tp238
Rp239
ag50
(g54
S'\x00kk\xc4iO\xea?'
p240
tp241
Rp242
ag50
(g54
S'\xb4-\xc8\xbf\x8e\x15\xe6?'
p243
tp244
Rp245
ag50
(g54
S'eL\xc5\xeb61\xed?'
p246
tp247
Rp248
ag50
(g54
S't.\x91~\xd8\xc8\xe4?'
p249
tp250
Rp251
ag50
(g54
S'\x9c\xa2\x93\x80\xf6Z\xd3?'
p252
tp253
Rp254
ag50
(g54
S',bg5\x9a\x8a\xe6?'
p255
tp256
Rp257
ag50
(g54
S'\xb4-\xc8\xbf\x8e\x15\xe6?'
p258
tp259
Rp260
ag50
(g54
S',bg5\x9a\x8a\xe6?'
p261
tp262
Rp263
ag50
(g54
S'\xa8\n\x9f\xbf\xd2e\xe0?'
p264
tp265
Rp266
ag50
(g54
S'H\xd2\xdcr!>\xd5?'
p267
tp268
Rp269
ag50
(g54
S'\r\xady\xf3\x99!\xe6?'
p270
tp271
Rp272
ag50
(g54
S'\xb4-\xc8\xbf\x8e\x15\xe6?'
p273
tp274
Rp275
ag50
(g54
S'\x12\x97\xab\x1bn\x1e\xdb?'
p276
tp277
Rp278
asS'sp'
p279
(lp280
(S'p0'
p281
I0
S'x'
p282
tp283
a(g281
I0
g282
tp284
a(g281
I0
S'y'
p285
tp286
a(g281
I0
g285
tp287
a(g281
I0
g282
tp288
a(g281
I0
S't'
p289
tp290
a(g281
I0
g285
tp291
a(g281
I0
g289
tp292
ag283
ag290
a(g281
I0
g289
tp293
ag283
ag290
ag291
ag287
ag287
ag287
a(S'p1'
p294
I0
g285
tp295
a(g294
I0
g289
tp296
a(g294
I0
g282
tp297
a(g281
I0
g282
tp298
ag286
ag292
ag283
ag286
ag295
a(g294
I0
g282
tp299
a(S'p2'
p300
I0
g282
tp301
a(g300
I0
g282
tp302
ag302
a(g300
I0
g282
tp303
a(g300
I0
g285
tp304
a(g300
I0
g282
tp305
a(g300
I0
g289
tp306
a(g300
F1.5707963267948966
g289
tp307
a(g300
F1.5707963267948966
g282
tp308
a(g300
F1.5707963267948966
g285
tp309
a(g300
F1.5707963267948966
g282
tp310
ag309
a(g294
F1.5707963267948966
g285
tp311
a(g294
F1.5707963267948966
g285
tp312
ag312
ag312
ag312
ag312
a(g294
F1.5707963267948966
g282
tp313
a(g281
F1.5707963267948966
g282
tp314
a(g281
F1.5707963267948966
g285
tp315
a(g281
F1.5707963267948966
g282
tp316
a(g281
F1.5707963267948966
g282
tp317
a(g281
F1.5707963267948966
g289
tp318
a(g281
F1.5707963267948966
g289
tp319
ag319
a(g281
F1.5707963267948966
g285
tp320
a(g294
F1.5707963267948966
g285
tp321
a(g294
F1.5707963267948966
g289
tp322
a(g294
F1.5707963267948966
g282
tp323
a(g300
F1.5707963267948966
g282
tp324
a(g300
F1.5707963267948966
g289
tp325
ag308
ag309
ag310
ag309
ag311
ag322
ag323
a(g294
F1.5707963267948966
g289
tp326
ag323
ag326
a(g294
F1.5707963267948966
g285
tp327
ag313
ag324
ag309
a(S'p3'
p328
F1.5707963267948966
g285
tp329
asS's'
p330
(lp331
(g281
I0
g22
tp332
ag283
ag284
ag286
ag287
ag288
ag290
ag291
ag292
ag283
ag290
ag293
ag283
ag290
ag291
ag287
ag287
ag287
ag295
ag296
ag297
ag298
ag286
ag292
ag283
ag286
ag295
ag299
ag301
ag302
ag302
ag303
ag304
ag305
ag306
ag307
ag308
ag309
ag310
ag309
ag311
ag312
ag312
ag312
ag312
ag312
ag313
ag314
ag315
ag316
ag317
ag318
ag319
ag319
ag320
ag321
ag322
ag323
ag324
ag325
ag308
ag309
ag310
ag309
ag311
ag322
ag323
ag326
ag323
ag326
ag327
ag313
ag324
ag309
asS'ui'
p333
(lp334
S'hp'
p335
aS'ss'
p336
ag335
ag336
ag335
ag335
aS'hs'
p337
ag335
ag335
ag337
ag336
ag336
ag337
ag337
ag336
ag279
ag336
ag337
ag336
ag335
ag279
ag279
ag335
ag335
ag335
ag279
ag337
ag336
ag335
ag335
ag336
ag335
ag337
ag337
ag279
ag337
ag335
ag337
ag335
ag337
ag335
ag337
ag336
ag336
ag336
ag337
ag335
ag335
ag337
ag335
ag337
ag336
ag337
ag337
ag335
ag336
ag335
ag336
ag337
ag335
ag335
ag337
ag335
ag279
ag335
ag335
ag335
ag279
ag335
ag337
ag337
ag336
ag279
ag279
asS'um_before'
p338
(lp339
g335
ag336
ag335
ag336
ag337
ag337
ag337
ag335
ag335
ag337
ag336
ag335
ag337
ag337
ag336
ag336
ag336
ag279
ag335
ag279
ag279
ag279
ag335
ag335
ag335
ag279
ag337
ag336
ag279
ag279
ag336
ag335
ag337
ag337
ag279
ag335
ag335
ag337
ag335
ag336
ag336
ag336
ag336
ag336
ag336
ag337
ag279
ag335
ag337
ag336
ag337
ag336
ag336
ag337
ag279
ag335
ag335
ag336
ag337
ag335
ag335
ag337
ag279
ag336
ag335
ag335
ag337
ag279
ag337
ag337
ag337
ag336
ag279
ag279
asS'um_after'
p340
(lp341
g335
ag336
ag335
ag336
ag337
ag337
ag337
ag335
ag335
ag337
ag336
ag335
ag337
ag337
ag336
ag336
ag336
ag279
ag335
ag335
ag279
ag335
ag335
ag335
ag335
ag279
ag337
ag336
ag279
ag279
ag336
ag335
ag337
ag337
ag279
ag335
ag335
ag337
ag335
ag336
ag336
ag336
ag336
ag336
ag336
ag337
ag279
ag335
ag337
ag336
ag337
ag336
ag336
ag337
ag279
ag335
ag335
ag336
ag337
ag335
ag335
ag337
ag335
ag336
ag335
ag335
ag337
ag335
ag337
ag337
ag337
ag336
ag335
ag279
asS'is_normalized_entropy_less_than_threshold'
p342
(lp343
g50
(g51
(S'b1'
p344
I0
I1
tp345
Rp346
(I3
S'|'
p347
NNNI-1
I-1
I0
tp348
bS'\x01'
p349
tp350
Rp351
ag50
(g346
S'\x00'
p352
tp353
Rp354
ag351
ag354
ag354
ag351
ag351
ag351
ag351
ag351
ag351
ag351
ag351
ag351
ag354
ag354
ag354
ag351
ag351
ag351
ag351
ag351
ag351
ag351
ag351
ag351
ag351
ag351
ag354
ag354
ag351
ag351
ag351
ag351
ag351
ag351
ag351
ag354
ag351
ag354
ag351
ag351
ag351
ag351
ag351
ag351
ag351
ag351
ag354
ag354
ag351
ag351
ag351
ag351
ag351
ag351
ag351
ag351
ag351
ag351
ag351
ag354
ag351
ag354
ag351
ag351
ag351
ag351
ag351
ag351
ag351
ag351
ag351
ag351
asaa(lp355
S'index'
p356
aI46331
aatp357
Rp358
.