ccollections
OrderedDict
p0
((lp1
(lp2
S'combination_dict'
p3
ag0
((lp4
(lp5
S'r_to_g_config'
p6
aS'br'
p7
aa(lp8
S'num_turns'
p9
aI3
aa(lp10
S'start_direction'
p11
acutils_ms
StartDirection
p12
(I1
tp13
Rp14
aa(lp15
S'assistance_type'
p16
acutils_ms
AssistanceType
p17
(I0
tp18
Rp19
aa(lp20
S'start_mode'
p21
aS't'
p22
aa(lp23
S'ui_given_a_noise'
p24
aF0.7
aa(lp25
S'um_given_ui_noise'
p26
aF0.3
aa(lp27
S'entropy_threshold'
p28
aF0.6
aatp29
Rp30
aa(lp31
S'data'
p32
accollections
defaultdict
p33
(c__builtin__
list
p34
tp35
Rp36
S'a'
p37
(lp38
S'mode_l'
p39
aS'move_n'
p40
ag40
aS'mode_r'
p41
ag40
ag39
ag39
ag40
ag41
ag41
ag39
ag39
ag40
ag41
ag40
ag40
ag41
ag39
ag40
ag39
ag41
ag40
ag41
ag41
ag41
ag41
ag40
ag41
ag41
ag39
aS'move_p'
p42
ag41
ag41
ag42
ag41
ag39
ag39
ag40
ag39
ag41
ag41
ag39
ag41
ag41
ag39
ag39
ag39
ag40
ag39
ag39
ag39
ag41
ag41
ag40
ag39
ag40
ag39
ag41
ag40
ag39
ag39
ag41
ag42
ag41
ag41
ag39
ag40
ag39
ag40
ag39
ag39
ag41
ag42
ag41
ag40
ag41
ag39
ag41
ag41
ag39
ag41
ag41
ag39
ag41
ag40
ag39
ag41
ag41
ag42
asS'assistance_match_with_ground_truth'
p43
(lp44
I01
aI00
aI00
aI01
aI00
aI00
aI01
aI00
aI00
aI00
aI00
aI01
aI00
aI01
aI00
aI00
aI00
aI01
aI00
aI00
aI01
aI00
aI00
aI00
aI00
aI01
aI01
aI00
aI00
aI01
aI01
aI00
aI01
aI01
aI00
aI00
aI01
aI00
aI00
aI00
aI00
aI00
aI00
aI00
aI00
aI00
aI01
aI00
aI00
aI00
aI00
aI00
aI01
aI00
aI01
aI00
aI00
aI01
aI01
aI00
aI00
aI01
aI00
aI00
aI00
aI01
aI00
aI01
aI00
aI00
aI00
aI01
aI01
aI01
aI00
aI00
aI00
aI00
aI00
aI00
aI00
aI00
aI00
aI01
aI01
aI00
aI00
aI01
aI01
asS'is_u_intended_equals_um'
p45
(lp46
I01
aI01
aI01
aI01
aI01
aI01
aI01
aI01
aI01
aI01
aI01
aI01
aI01
aI01
aI01
aI01
aI01
aI01
aI01
aI01
aI01
aI01
aI01
aI01
aI01
aI01
aI01
aI01
aI01
aI01
aI01
aI01
aI01
aI01
aI01
aI01
aI01
aI01
aI01
aI01
aI01
aI01
aI01
aI01
aI01
aI01
aI01
aI01
aI01
aI01
aI01
aI01
aI01
aI01
aI01
aI01
aI01
aI01
aI01
aI01
aI01
aI01
aI01
aI01
aI01
aI01
aI01
aI01
aI01
aI01
aI01
aI01
aI01
aI01
aI01
aI01
aI01
aI01
aI01
aI01
aI01
aI01
aI01
aI01
aI01
aI01
aI01
aI01
aI01
asS'total_steps'
p47
I89
sS'normalized_h_of_p_ui_given_um'
p48
(lp49
cnumpy.core.multiarray
scalar
p50
(cnumpy
dtype
p51
(S'f8'
p52
I0
I1
tp53
Rp54
(I3
S'<'
p55
NNNI-1
I-1
I0
tp56
bS'\xbf]w\xd1t\x8a\xe0?'
p57
tp58
Rp59
ag50
(g54
S'\x9e\x92B\r\xce\xc5\xe9?'
p60
tp61
Rp62
ag50
(g54
S'N\xfeh\t\x88\x08\xe5?'
p63
tp64
Rp65
ag50
(g54
S'\r(\x8eU#F\xe1?'
p66
tp67
Rp68
ag50
(g54
S';e\xd1\x8d\xaa\xaf\xe9?'
p69
tp70
Rp71
ag50
(g54
S'4&U\xd1:}\xe8?'
p72
tp73
Rp74
ag50
(g54
S'\xbf]w\xd1t\x8a\xe0?'
p75
tp76
Rp77
ag50
(g54
S'N\xfeh\t\x88\x08\xe5?'
p78
tp79
Rp80
ag50
(g54
S'\xce\x06\xd5\xd4\xef\xc2\xe0?'
p81
tp82
Rp83
ag50
(g54
S'\xfe\x11\x839\x9f\xfa\xe9?'
p84
tp85
Rp86
ag50
(g54
S'\n!\nl{\n\xe1?'
p87
tp88
Rp89
ag50
(g54
S'\xbf]w\xd1t\x8a\xe0?'
p90
tp91
Rp92
ag50
(g54
S'N\xfeh\t\x88\x08\xe5?'
p93
tp94
Rp95
ag50
(g54
S'\r(\x8eU#F\xe1?'
p96
tp97
Rp98
ag50
(g54
S'\x9e\x92B\r\xce\xc5\xe9?'
p99
tp100
Rp101
ag50
(g54
S'N\xfeh\t\x88\x08\xe5?'
p102
tp103
Rp104
ag50
(g54
S'\xfe\x11\x839\x9f\xfa\xe9?'
p105
tp106
Rp107
ag50
(g54
S'\xbf]w\xd1t\x8a\xe0?'
p108
tp109
Rp110
ag50
(g54
S';e\xd1\x8d\xaa\xaf\xe9?'
p111
tp112
Rp113
ag50
(g54
S'\x8dj~\x96\xcb^\xe7?'
p114
tp115
Rp116
ag50
(g54
S'\r(\x8eU#F\xe1?'
p117
tp118
Rp119
ag50
(g54
S'N\xfeh\t\x88\x08\xe5?'
p120
tp121
Rp122
ag50
(g54
S'\xcf\x13\x91\x0f\x80V\xe6?'
p123
tp124
Rp125
ag50
(g54
S'\xcf\x13\x91\x0f\x80V\xe6?'
p126
tp127
Rp128
ag50
(g54
S'\xcf\x13\x91\x0f\x80V\xe6?'
p129
tp130
Rp131
ag50
(g54
S'\r(\x8eU#F\xe1?'
p132
tp133
Rp134
ag50
(g54
S'$\xd0\x81\x9d4\xd1\xd3?'
p135
tp136
Rp137
ag50
(g54
S'\xcf\x13\x91\x0f\x80V\xe6?'
p138
tp139
Rp140
ag50
(g54
S'\xfe\x11\x839\x9f\xfa\xe9?'
p141
tp142
Rp143
ag50
(g54
S'\xbf]w\xd1t\x8a\xe0?'
p144
tp145
Rp146
ag50
(g54
S'\xa5P\x16w)\xe0\xdc?'
p147
tp148
Rp149
ag50
(g54
S'\xcf\x13\x91\x0f\x80V\xe6?'
p150
tp151
Rp152
ag50
(g54
S'\r(\x8eU#F\xe1?'
p153
tp154
Rp155
ag50
(g54
S'\xa5P\x16w)\xe0\xdc?'
p156
tp157
Rp158
ag50
(g54
S'\xfe\x11\x839\x9f\xfa\xe9?'
p159
tp160
Rp161
ag50
(g54
S'4&U\xd1:}\xe8?'
p162
tp163
Rp164
ag50
(g54
S'\xbf]w\xd1t\x8a\xe0?'
p165
tp166
Rp167
ag50
(g54
S';e\xd1\x8d\xaa\xaf\xe9?'
p168
tp169
Rp170
ag50
(g54
S'\x8dj~\x96\xcb^\xe7?'
p171
tp172
Rp173
ag50
(g54
S'\xcf\x13\x91\x0f\x80V\xe6?'
p174
tp175
Rp176
ag50
(g54
S'\xfe\x11\x839\x9f\xfa\xe9?'
p177
tp178
Rp179
ag50
(g54
S'\x8dj~\x96\xcb^\xe7?'
p180
tp181
Rp182
ag50
(g54
S'\xcf\x13\x91\x0f\x80V\xe6?'
p183
tp184
Rp185
ag50
(g54
S'\xfe\x11\x839\x9f\xfa\xe9?'
p186
tp187
Rp188
ag50
(g54
S'4&U\xd1:}\xe8?'
p189
tp190
Rp191
ag50
(g54
S'\n!\nl{\n\xe1?'
p192
tp193
Rp194
ag50
(g54
S'\xbf]w\xd1t\x8a\xe0?'
p195
tp196
Rp197
ag50
(g54
S';e\xd1\x8d\xaa\xaf\xe9?'
p198
tp199
Rp200
ag50
(g54
S'4&U\xd1:}\xe8?'
p201
tp202
Rp203
ag50
(g54
S'4&U\xd1:}\xe8?'
p204
tp205
Rp206
ag50
(g54
S'\x8dj~\x96\xcb^\xe7?'
p207
tp208
Rp209
ag50
(g54
S'\xce\x06\xd5\xd4\xef\xc2\xe0?'
p210
tp211
Rp212
ag50
(g54
S'\r(\x8eU#F\xe1?'
p213
tp214
Rp215
ag50
(g54
S';e\xd1\x8d\xaa\xaf\xe9?'
p216
tp217
Rp218
ag50
(g54
S'\xbf]w\xd1t\x8a\xe0?'
p219
tp220
Rp221
ag50
(g54
S';e\xd1\x8d\xaa\xaf\xe9?'
p222
tp223
Rp224
ag50
(g54
S'\x8dj~\x96\xcb^\xe7?'
p225
tp226
Rp227
ag50
(g54
S'\r(\x8eU#F\xe1?'
p228
tp229
Rp230
ag50
(g54
S'$\xd0\x81\x9d4\xd1\xd3?'
p231
tp232
Rp233
ag50
(g54
S'\n!\nl{\n\xe1?'
p234
tp235
Rp236
ag50
(g54
S'\x8dj~\x96\xcb^\xe7?'
p237
tp238
Rp239
ag50
(g54
S'\r(\x8eU#F\xe1?'
p240
tp241
Rp242
ag50
(g54
S'\xac\tk\xe7\x9a\xac\xe6?'
p243
tp244
Rp245
ag50
(g54
S'\xce\x06\xd5\xd4\xef\xc2\xe0?'
p246
tp247
Rp248
ag50
(g54
S'\xfe\x11\x839\x9f\xfa\xe9?'
p249
tp250
Rp251
ag50
(g54
S'\xbf]w\xd1t\x8a\xe0?'
p252
tp253
Rp254
ag50
(g54
S';e\xd1\x8d\xaa\xaf\xe9?'
p255
tp256
Rp257
ag50
(g54
S'\xbf]w\xd1t\x8a\xe0?'
p258
tp259
Rp260
ag50
(g54
S'\x9e\x92B\r\xce\xc5\xe9?'
p261
tp262
Rp263
ag50
(g54
S'\n!\nl{\n\xe1?'
p264
tp265
Rp266
ag50
(g54
S'\x8dj~\x96\xcb^\xe7?'
p267
tp268
Rp269
ag50
(g54
S'\r(\x8eU#F\xe1?'
p270
tp271
Rp272
ag50
(g54
S'\xa5P\x16w)\xe0\xdc?'
p273
tp274
Rp275
ag50
(g54
S'\r(\x8eU#F\xe1?'
p276
tp277
Rp278
ag50
(g54
S'N\xfeh\t\x88\x08\xe5?'
p279
tp280
Rp281
ag50
(g54
S'\xfe\x11\x839\x9f\xfa\xe9?'
p282
tp283
Rp284
ag50
(g54
S'\x8dj~\x96\xcb^\xe7?'
p285
tp286
Rp287
ag50
(g54
S'\xce\x06\xd5\xd4\xef\xc2\xe0?'
p288
tp289
Rp290
ag50
(g54
S'\xfe\x11\x839\x9f\xfa\xe9?'
p291
tp292
Rp293
ag50
(g54
S'\x8dj~\x96\xcb^\xe7?'
p294
tp295
Rp296
ag50
(g54
S'\xcf\x13\x91\x0f\x80V\xe6?'
p297
tp298
Rp299
ag50
(g54
S'\xfe\x11\x839\x9f\xfa\xe9?'
p300
tp301
Rp302
ag50
(g54
S'\x8dj~\x96\xcb^\xe7?'
p303
tp304
Rp305
ag50
(g54
S'\r(\x8eU#F\xe1?'
p306
tp307
Rp308
ag50
(g54
S'$\xd0\x81\x9d4\xd1\xd3?'
p309
tp310
Rp311
ag50
(g54
S'\x8dj~\x96\xcb^\xe7?'
p312
tp313
Rp314
ag50
(g54
S'\xcf\x13\x91\x0f\x80V\xe6?'
p315
tp316
Rp317
ag50
(g54
S'\r(\x8eU#F\xe1?'
p318
tp319
Rp320
ag50
(g54
S'\xa5P\x16w)\xe0\xdc?'
p321
tp322
Rp323
asS'sp'
p324
(lp325
(S'p0'
p326
I0
S'y'
p327
tp328
a(g326
I0
g327
tp329
a(g326
I0
S'x'
p330
tp331
a(g326
I0
g327
tp332
a(g326
I0
S't'
p333
tp334
a(g326
I0
g333
tp335
ag328
ag331
a(g326
I0
g330
tp336
a(g326
I0
g333
tp337
a(g326
I0
g333
tp338
ag328
ag331
ag332
ag329
ag331
ag337
ag328
ag334
a(g326
I0
g330
tp339
ag332
ag331
a(g326
I0
g330
tp340
ag340
ag340
ag332
a(S'p1'
p341
I0
g327
tp342
a(g341
I0
g327
tp343
a(g341
I0
g330
tp344
a(g341
I0
g333
tp345
a(g341
F1.5707963267948966
g333
tp346
a(g341
F1.5707963267948966
g333
tp347
a(g341
F1.5707963267948966
g330
tp348
a(S'p2'
p349
F1.5707963267948966
g330
tp350
a(g349
F1.5707963267948966
g333
tp351
a(g349
F1.5707963267948966
g333
tp352
a(g349
F1.5707963267948966
g327
tp353
a(g349
F1.5707963267948966
g333
tp354
a(g349
F1.5707963267948966
g330
tp355
a(g349
F1.5707963267948966
g330
tp356
ag351
ag355
ag356
ag351
ag352
a(g349
F1.5707963267948966
g333
tp357
ag353
ag354
ag352
ag352
ag355
a(g349
F1.5707963267948966
g330
tp358
a(g349
F1.5707963267948966
g327
tp359
ag354
ag353
ag354
ag355
ag359
a(S'p3'
p360
F1.5707963267948966
g327
tp361
a(g360
F1.5707963267948966
g327
tp362
a(g360
F1.5707963267948966
g333
tp363
a(g360
F1.5707963267948966
g330
tp364
a(g349
F1.5707963267948966
g330
tp365
ag358
ag351
ag353
ag354
ag353
a(g341
F1.5707963267948966
g327
tp366
a(g341
F1.5707963267948966
g327
tp367
a(g341
F1.5707963267948966
g333
tp368
ag348
ag350
ag359
a(g349
F1.5707963267948966
g330
tp369
ag351
ag355
ag358
ag351
ag355
ag356
ag351
ag355
ag359
ag361
ag363
a(g360
F1.5707963267948966
g333
tp370
ag364
a(S'p4'
p371
F1.5707963267948966
g330
tp372
asS's'
p373
(lp374
(g326
I0
g22
tp375
ag328
ag329
ag331
ag332
ag334
ag335
ag328
ag331
ag336
ag337
ag338
ag328
ag331
ag332
ag329
ag331
ag337
ag328
ag334
ag339
ag332
ag331
ag340
ag340
ag340
ag332
ag342
ag343
ag344
ag345
ag346
ag347
ag348
ag350
ag351
ag352
ag353
ag354
ag355
ag356
ag351
ag355
ag356
ag351
ag352
ag357
ag353
ag354
ag352
ag352
ag355
ag358
ag359
ag354
ag353
ag354
ag355
ag359
ag361
ag362
ag363
ag364
ag365
ag358
ag351
ag353
ag354
ag353
ag366
ag367
ag368
ag348
ag350
ag359
ag369
ag351
ag355
ag358
ag351
ag355
ag356
ag351
ag355
ag359
ag361
ag363
ag370
ag364
asS'ui'
p376
(lp377
S'hs'
p378
ag378
ag324
aS'hp'
p379
ag378
aS'ss'
p380
ag379
ag378
ag380
ag324
ag380
ag378
ag378
ag379
ag380
ag378
ag324
ag378
ag379
ag378
ag379
ag378
ag324
ag324
ag379
ag379
ag380
ag324
ag378
ag380
ag324
ag324
ag380
ag324
ag378
ag324
ag324
ag379
ag379
ag324
ag324
ag379
ag324
ag378
ag324
ag380
ag378
ag380
ag324
ag324
ag379
ag380
ag380
ag379
ag379
ag379
ag379
ag379
ag380
ag380
ag379
ag324
ag380
ag380
ag324
ag379
ag379
ag378
ag324
ag380
ag379
ag379
ag324
ag379
ag378
ag378
ag380
ag380
ag378
ag379
ag324
ag379
ag380
ag379
ag380
ag378
ag324
ag379
ag324
asS'um_before'
p381
(lp382
g378
ag324
ag378
ag379
ag379
ag324
ag378
ag378
ag380
ag378
ag380
ag378
ag378
ag379
ag324
ag378
ag378
ag378
ag379
ag379
ag379
ag378
ag324
ag324
ag324
ag379
ag380
ag324
ag378
ag378
ag324
ag324
ag379
ag324
ag378
ag324
ag378
ag379
ag379
ag324
ag378
ag379
ag324
ag378
ag324
ag380
ag378
ag379
ag324
ag324
ag379
ag380
ag379
ag379
ag378
ag379
ag379
ag379
ag380
ag380
ag379
ag379
ag380
ag380
ag378
ag378
ag379
ag378
ag324
ag380
ag379
ag379
ag324
ag379
ag378
ag378
ag379
ag380
ag378
ag379
ag324
ag378
ag379
ag379
ag380
ag379
ag324
ag379
ag324
asS'um_after'
p383
(lp384
g378
ag324
ag378
ag379
ag379
ag324
ag378
ag378
ag380
ag378
ag380
ag378
ag378
ag379
ag324
ag378
ag378
ag378
ag379
ag379
ag379
ag378
ag324
ag324
ag324
ag379
ag380
ag324
ag378
ag378
ag324
ag324
ag379
ag324
ag378
ag324
ag378
ag379
ag379
ag324
ag378
ag379
ag324
ag378
ag324
ag380
ag378
ag379
ag324
ag324
ag379
ag380
ag379
ag379
ag378
ag379
ag379
ag379
ag380
ag380
ag379
ag379
ag380
ag380
ag378
ag378
ag379
ag378
ag324
ag380
ag379
ag379
ag324
ag379
ag378
ag378
ag379
ag380
ag378
ag379
ag324
ag378
ag379
ag379
ag380
ag379
ag324
ag379
ag324
asS'is_normalized_entropy_less_than_threshold'
p385
(lp386
g50
(g51
(S'b1'
p387
I0
I1
tp388
Rp389
(I3
S'|'
p390
NNNI-1
I-1
I0
tp391
bS'\x01'
p392
tp393
Rp394
ag50
(g389
S'\x00'
p395
tp396
Rp397
ag397
ag394
ag397
ag397
ag394
ag397
ag394
ag397
ag394
ag394
ag397
ag394
ag397
ag397
ag397
ag394
ag397
ag397
ag394
ag397
ag397
ag397
ag397
ag394
ag394
ag397
ag397
ag394
ag394
ag397
ag394
ag394
ag397
ag397
ag394
ag397
ag397
ag397
ag397
ag397
ag397
ag397
ag397
ag394
ag394
ag397
ag397
ag397
ag397
ag394
ag394
ag397
ag394
ag397
ag397
ag394
ag394
ag394
ag397
ag394
ag397
ag394
ag397
ag394
ag397
ag394
ag397
ag394
ag397
ag394
ag394
ag394
ag397
ag397
ag397
ag394
ag397
ag397
ag397
ag397
ag397
ag394
ag394
ag397
ag397
ag394
ag394
asaa(lp398
S'index'
p399
aI111862
aatp400
Rp401
.