ccollections
OrderedDict
p0
((lp1
(lp2
S'combination_dict'
p3
ag0
((lp4
(lp5
S'r_to_g_config'
p6
aS'tl'
p7
aa(lp8
S'num_turns'
p9
aI3
aa(lp10
S'start_direction'
p11
acutils_ms
StartDirection
p12
(I1
tp13
Rp14
aa(lp15
S'assistance_type'
p16
acutils_ms
AssistanceType
p17
(I0
tp18
Rp19
aa(lp20
S'start_mode'
p21
aS't'
p22
aa(lp23
S'ui_given_a_noise'
p24
aF0.1
aa(lp25
S'um_given_ui_noise'
p26
aF0.5
aa(lp27
S'entropy_threshold'
p28
aF0.5
aatp29
Rp30
aa(lp31
S'data'
p32
accollections
defaultdict
p33
(c__builtin__
list
p34
tp35
Rp36
S'a'
p37
(lp38
S'mode_l'
p39
aS'mode_r'
p40
ag40
ag40
aS'move_p'
p41
ag39
aS'move_n'
p42
ag40
ag41
ag41
ag40
ag40
ag39
ag39
ag40
ag40
ag40
ag41
ag40
ag41
ag41
ag41
ag41
ag41
ag40
ag42
ag42
ag42
ag42
asS'assistance_match_with_ground_truth'
p43
(lp44
I00
aI00
aI00
aI01
aI01
aI01
aI01
aI01
aI00
aI01
aI00
aI00
aI00
aI00
aI00
aI00
aI01
aI01
aI00
aI00
aI00
aI00
aI00
aI01
aI01
aI00
aI00
aI00
aI01
asS'is_u_intended_equals_um'
p45
(lp46
I00
aI00
aI00
aI01
aI01
aI01
aI01
aI01
aI00
aI01
aI00
aI00
aI00
aI00
aI00
aI00
aI01
aI01
aI00
aI00
aI00
aI00
aI00
aI01
aI01
aI00
aI00
aI00
aI01
asS'total_steps'
p47
I29
sS'normalized_h_of_p_ui_given_um'
p48
(lp49
cnumpy.core.multiarray
scalar
p50
(cnumpy
dtype
p51
(S'f8'
p52
I0
I1
tp53
Rp54
(I3
S'<'
p55
NNNI-1
I-1
I0
tp56
bS'\x91U\x87\xa2\x1f\xd6\xe4?'
p57
tp58
Rp59
ag50
(g54
S'L\x16\n\xc8\x10\xf6\xe6?'
p60
tp61
Rp62
ag50
(g54
S'\x08&\xdf]X\n\xe7?'
p63
tp64
Rp65
ag50
(g54
S'\x1a\x9e\xe0\xac\xb0z\xc2?'
p66
tp67
Rp68
ag50
(g54
S'\xd5\xb6\xc6b\t4\xbd?'
p69
tp70
Rp71
ag50
(g54
S'@\x1c\xd8\xde\xc2Z\xb8?'
p72
tp73
Rp74
ag50
(g54
S'\xcb\xdd\xbe/\xed\xb8\xa9?'
p75
tp76
Rp77
ag50
(g54
S'\x1a\x9e\xe0\xac\xb0z\xc2?'
p78
tp79
Rp80
ag50
(g54
S'bq\xdd\t\x15\xdc\xd7?'
p81
tp82
Rp83
ag50
(g54
S'\xd5\xb6\xc6b\t4\xbd?'
p84
tp85
Rp86
ag50
(g54
S'\x08&\xdf]X\n\xe7?'
p87
tp88
Rp89
ag50
(g54
S'\xea\x832\xa3+\xfc\xe3?'
p90
tp91
Rp92
ag50
(g54
S'\xd9\x02Q\xca\xbd\xf1\xd4?'
p93
tp94
Rp95
ag50
(g54
S'\x91U\x87\xa2\x1f\xd6\xe4?'
p96
tp97
Rp98
ag50
(g54
S'\x08&\xdf]X\n\xe7?'
p99
tp100
Rp101
ag50
(g54
S'L\x16\n\xc8\x10\xf6\xe6?'
p102
tp103
Rp104
ag50
(g54
S'\x1a\x9e\xe0\xac\xb0z\xc2?'
p105
tp106
Rp107
ag50
(g54
S'\xd5\xb6\xc6b\t4\xbd?'
p108
tp109
Rp110
ag50
(g54
S'L\x16\n\xc8\x10\xf6\xe6?'
p111
tp112
Rp113
ag50
(g54
S'}z/\xed\xc8\x03\xdd?'
p114
tp115
Rp116
ag50
(g54
S'bq\xdd\t\x15\xdc\xd7?'
p117
tp118
Rp119
ag50
(g54
S'V\xb9\x01\x9f=\xfc\xd6?'
p120
tp121
Rp122
ag50
(g54
S'}z/\xed\xc8\x03\xdd?'
p123
tp124
Rp125
ag50
(g54
S'\xd5\xb6\xc6b\t4\xbd?'
p126
tp127
Rp128
ag50
(g54
S'\x1a\x9e\xe0\xac\xb0z\xc2?'
p129
tp130
Rp131
ag50
(g54
S'\x08\x0b\xfaT\n\xc7\xca?'
p132
tp133
Rp134
ag50
(g54
S'\x18\xa4S`\x16\x1c\xdd?'
p135
tp136
Rp137
ag50
(g54
S'\x18\xa4S`\x16\x1c\xdd?'
p138
tp139
Rp140
ag50
(g54
S'\xcb\xdd\xbe/\xed\xb8\xa9?'
p141
tp142
Rp143
asS'sp'
p144
(lp145
(S'p0'
p146
I0
S'x'
p147
tp148
a(g146
I0
g147
tp149
a(g146
I0
g147
tp150
a(g146
I0
S'y'
p151
tp152
a(S'p1'
p153
I0
g151
tp154
a(g153
I0
g147
tp155
a(S'p2'
p156
I0
g147
tp157
a(g156
I0
g151
tp158
ag158
a(S'p3'
p159
I0
g151
tp160
a(g159
I0
g151
tp161
a(g159
I0
g147
tp162
ag162
a(g159
I0
g151
tp163
ag161
a(g159
I0
g151
tp164
a(g159
I0
S't'
p165
tp166
a(g159
F1.5707963267948966
g165
tp167
a(g159
I0
g165
tp168
ag168
ag168
ag168
ag168
ag167
a(g159
F1.5707963267948966
g147
tp169
ag169
ag169
ag169
a(S'p4'
p170
F1.5707963267948966
g147
tp171
asS's'
p172
(lp173
(g146
I0
g22
tp174
ag148
ag149
ag150
ag152
ag154
ag155
ag157
ag158
ag158
ag160
ag161
ag162
ag162
ag163
ag161
ag164
ag166
ag167
ag168
ag168
ag168
ag168
ag168
ag167
ag169
ag169
ag169
ag169
asS'ui'
p175
(lp176
S'hs'
p177
aS'hp'
p178
ag178
ag178
ag144
ag177
aS'ss'
p179
ag178
ag144
ag144
ag178
ag178
ag177
ag177
ag179
ag179
ag178
ag144
ag178
ag144
ag144
ag144
ag144
ag144
ag179
ag179
ag179
ag179
ag179
asS'um_before'
p180
(lp181
g178
ag179
ag144
ag178
ag144
ag177
ag179
ag178
ag178
ag144
ag144
ag177
ag179
ag178
ag144
ag179
ag178
ag144
ag179
ag177
ag178
ag179
ag177
ag144
ag178
ag177
ag178
ag178
ag179
asS'um_after'
p182
(lp183
g178
ag179
ag144
ag178
ag144
ag177
ag179
ag178
aNag144
ag144
ag177
aNag178
ag144
ag179
ag178
ag144
ag179
aNaNaNaNag144
ag178
aNaNaNag179
asS'is_normalized_entropy_less_than_threshold'
p184
(lp185
g50
(g51
(S'b1'
p186
I0
I1
tp187
Rp188
(I3
S'|'
p189
NNNI-1
I-1
I0
tp190
bS'\x00'
p191
tp192
Rp193
ag193
ag193
ag50
(g188
S'\x01'
p194
tp195
Rp196
ag196
ag196
ag196
ag196
ag196
ag196
ag193
ag193
ag196
ag193
ag193
ag193
ag196
ag196
ag193
ag196
ag196
ag196
ag196
ag196
ag196
ag196
ag196
ag196
ag196
asaa(lp197
S'index'
p198
aI53707
aatp199
Rp200
.