ccollections
OrderedDict
p0
((lp1
(lp2
S'combination_dict'
p3
ag0
((lp4
(lp5
S'r_to_g_config'
p6
aS'tl'
p7
aa(lp8
S'num_turns'
p9
aI2
aa(lp10
S'start_direction'
p11
acutils_ms
StartDirection
p12
(I0
tp13
Rp14
aa(lp15
S'assistance_type'
p16
acutils_ms
AssistanceType
p17
(I0
tp18
Rp19
aa(lp20
S'start_mode'
p21
aS'y'
p22
aa(lp23
S'ui_given_a_noise'
p24
aF0.5
aa(lp25
S'um_given_ui_noise'
p26
aF0.7
aa(lp27
S'entropy_threshold'
p28
aF0.6
aatp29
Rp30
aa(lp31
S'data'
p32
accollections
defaultdict
p33
(c__builtin__
list
p34
tp35
Rp36
S'a'
p37
(lp38
S'mode_l'
p39
ag39
aS'move_n'
p40
ag39
ag40
ag39
ag40
aS'mode_r'
p41
ag41
ag41
ag41
ag41
ag39
ag39
aS'move_p'
p42
ag41
ag41
ag41
ag42
ag41
ag41
ag42
ag39
ag42
ag42
ag41
ag41
ag40
asS'assistance_match_with_ground_truth'
p43
(lp44
I00
aI01
aI00
aI01
aI00
aI01
aI01
aI00
aI00
aI00
aI00
aI00
aI00
aI01
aI01
aI00
aI00
aI01
aI00
aI00
aI01
aI00
aI01
aI00
aI01
aI00
aI01
aI01
asS'is_u_intended_equals_um'
p45
(lp46
I01
aI01
aI01
aI01
aI01
aI01
aI01
aI01
aI00
aI00
aI00
aI01
aI00
aI01
aI01
aI00
aI00
aI01
aI01
aI01
aI01
aI01
aI01
aI00
aI01
aI00
aI01
aI01
asS'total_steps'
p47
I28
sS'normalized_h_of_p_ui_given_um'
p48
(lp49
cnumpy.core.multiarray
scalar
p50
(cnumpy
dtype
p51
(S'f8'
p52
I0
I1
tp53
Rp54
(I3
S'<'
p55
NNNI-1
I-1
I0
tp56
bS']\xbe\xef;\xc3M\xe2?'
p57
tp58
Rp59
ag50
(g54
S'\xaf\xf7<\xfdW \xc8?'
p60
tp61
Rp62
ag50
(g54
S'0\xc0\x92\x8a\x10B\xea?'
p63
tp64
Rp65
ag50
(g54
S'\xaf\xf7<\xfdW \xc8?'
p66
tp67
Rp68
ag50
(g54
S'0\xc0\x92\x8a\x10B\xea?'
p69
tp70
Rp71
ag50
(g54
S'\xaf\xf7<\xfdW \xc8?'
p72
tp73
Rp74
ag50
(g54
S'\xa4$T\x19\xb4J\xd2?'
p75
tp76
Rp77
ag50
(g54
S'\xe6\xdeR\xfc\xe6=\xe5?'
p78
tp79
Rp80
ag50
(g54
S'~\xc3.\x83>\xa6\xec?'
p81
tp82
Rp83
ag50
(g54
S'~\xc3.\x83>\xa6\xec?'
p84
tp85
Rp86
ag50
(g54
S'~\xc3.\x83>\xa6\xec?'
p87
tp88
Rp89
ag50
(g54
S'.\xb1S\xb6t\xac\xe8?'
p90
tp91
Rp92
ag50
(g54
S'<\x0cKe\x0c\xbc\xe0?'
p93
tp94
Rp95
ag50
(g54
S'\xaf\xf7<\xfdW \xc8?'
p96
tp97
Rp98
ag50
(g54
S'\xba\x06\x16\x1c\x93V\xe9?'
p99
tp100
Rp101
ag50
(g54
S'~\xc3.\x83>\xa6\xec?'
p102
tp103
Rp104
ag50
(g54
S'~\xc3.\x83>\xa6\xec?'
p105
tp106
Rp107
ag50
(g54
S'\xefz\n\xafy\x91\xe6?'
p108
tp109
Rp110
ag50
(g54
S'\x84\xbf\xbe\xfe2\x87\xe7?'
p111
tp112
Rp113
ag50
(g54
S'\xe6\xdeR\xfc\xe6=\xe5?'
p114
tp115
Rp116
ag50
(g54
S'\xefz\n\xafy\x91\xe6?'
p117
tp118
Rp119
ag50
(g54
S'\xda\xeb^\xe0`\xef\xee?'
p120
tp121
Rp122
ag50
(g54
S'\xaf\xf7<\xfdW \xc8?'
p123
tp124
Rp125
ag50
(g54
S'&\x81\x98_<\xab\xe3?'
p126
tp127
Rp128
ag50
(g54
S'\xba\x06\x16\x1c\x93V\xe9?'
p129
tp130
Rp131
ag50
(g54
S'~\xc3.\x83>\xa6\xec?'
p132
tp133
Rp134
ag50
(g54
S'\xefz\n\xafy\x91\xe6?'
p135
tp136
Rp137
ag50
(g54
S'\xa4$T\x19\xb4J\xd2?'
p138
tp139
Rp140
asS'sp'
p141
(lp142
(S'p0'
p143
I0
S'y'
p144
tp145
a(g143
I0
S'x'
p146
tp147
a(g143
I0
g144
tp148
ag147
ag148
ag147
a(S'p1'
p149
I0
g146
tp150
a(g149
I0
g146
tp151
a(g149
I0
g146
tp152
ag152
ag152
a(g149
I0
S't'
p153
tp154
ag154
a(g149
I0
g144
tp155
a(S'p2'
p156
I0
g144
tp157
a(g156
I0
g144
tp158
ag158
a(g156
I0
g153
tp159
a(g156
I0
g144
tp160
a(g156
I0
g144
tp161
ag159
a(g156
I0
g146
tp162
a(g156
I0
g153
tp163
a(g156
I0
g153
tp164
a(g156
F1.5707963267948966
g153
tp165
a(g156
F1.5707963267948966
g153
tp166
a(g156
F1.5707963267948966
g146
tp167
a(S'p3'
p168
F1.5707963267948966
g146
tp169
asS's'
p170
(lp171
(g143
I0
g22
tp172
ag145
ag147
ag148
ag147
ag148
ag147
ag150
ag151
ag152
ag152
ag152
ag154
ag154
ag155
ag157
ag158
ag158
ag159
ag160
ag161
ag159
ag162
ag163
ag164
ag165
ag166
ag167
asS'ui'
p173
(lp174
S'ss'
p175
aS'hs'
p176
ag175
ag176
aS'hp'
p177
ag176
ag175
ag175
ag176
ag177
ag177
ag176
ag176
ag176
ag141
ag177
ag177
ag177
ag176
ag141
ag177
ag177
ag176
ag175
ag141
ag177
ag175
ag175
asS'um_before'
p178
(lp179
g175
ag176
ag177
ag176
ag177
ag176
ag175
ag175
ag141
ag141
ag141
ag176
ag177
ag176
ag141
ag141
ag141
ag177
ag176
ag175
ag177
ag177
ag176
ag175
ag141
ag141
ag177
ag175
asS'um_after'
p180
(lp181
g175
ag176
ag177
ag176
ag177
ag176
ag175
ag175
ag141
ag141
ag141
ag176
aNag176
ag141
ag141
ag141
ag177
ag176
ag175
ag177
ag177
ag176
ag175
ag141
ag141
ag177
ag175
asS'is_normalized_entropy_less_than_threshold'
p182
(lp183
g50
(g51
(S'b1'
p184
I0
I1
tp185
Rp186
(I3
S'|'
p187
NNNI-1
I-1
I0
tp188
bS'\x01'
p189
tp190
Rp191
ag191
ag50
(g186
S'\x00'
p192
tp193
Rp194
ag191
ag194
ag191
ag191
ag194
ag194
ag194
ag194
ag194
ag191
ag191
ag194
ag194
ag194
ag194
ag194
ag194
ag194
ag194
ag191
ag194
ag194
ag194
ag194
ag191
asaa(lp195
S'index'
p196
aI39763
aatp197
Rp198
.