ccollections
OrderedDict
p0
((lp1
(lp2
S'combination_dict'
p3
ag0
((lp4
(lp5
S'r_to_g_config'
p6
aS'tr'
p7
aa(lp8
S'num_turns'
p9
aI2
aa(lp10
S'start_direction'
p11
acutils_ms
StartDirection
p12
(I0
tp13
Rp14
aa(lp15
S'assistance_type'
p16
acutils_ms
AssistanceType
p17
(I0
tp18
Rp19
aa(lp20
S'start_mode'
p21
aS't'
p22
aa(lp23
S'ui_given_a_noise'
p24
aF0.7
aa(lp25
S'um_given_ui_noise'
p26
aF0.3
aa(lp27
S'entropy_threshold'
p28
aF0.8
aatp29
Rp30
aa(lp31
S'data'
p32
accollections
defaultdict
p33
(c__builtin__
list
p34
tp35
Rp36
S'a'
p37
(lp38
S'mode_r'
p39
ag39
ag39
ag39
aS'move_p'
p40
ag39
ag39
ag39
ag39
ag40
aS'mode_l'
p41
ag40
ag40
ag41
ag40
ag39
ag41
ag41
ag40
ag41
ag41
ag40
ag40
ag39
ag40
ag39
ag40
ag40
ag40
ag40
ag40
ag39
ag40
asS'assistance_match_with_ground_truth'
p42
(lp43
I00
aI00
aI00
aI01
aI01
aI00
aI00
aI00
aI01
aI00
aI01
aI00
aI00
aI01
aI01
aI00
aI00
aI01
aI00
aI00
aI01
aI00
aI01
aI01
aI01
aI01
aI00
aI00
aI00
aI00
aI01
aI01
aI01
asS'is_u_intended_equals_um'
p44
(lp45
I01
aI01
aI01
aI01
aI01
aI01
aI00
aI00
aI01
aI01
aI01
aI01
aI01
aI01
aI01
aI01
aI01
aI01
aI01
aI01
aI01
aI01
aI01
aI01
aI01
aI01
aI01
aI01
aI01
aI01
aI01
aI01
aI01
asS'total_steps'
p46
I33
sS'normalized_h_of_p_ui_given_um'
p47
(lp48
cnumpy.core.multiarray
scalar
p49
(cnumpy
dtype
p50
(S'f8'
p51
I0
I1
tp52
Rp53
(I3
S'<'
p54
NNNI-1
I-1
I0
tp55
bS'\x82\xab\xfb3w\xf1\xe3?'
p56
tp57
Rp58
ag49
(g53
S'\x82\xab\xfb3w\xf1\xe3?'
p59
tp60
Rp61
ag49
(g53
S'\x82\xab\xfb3w\xf1\xe3?'
p62
tp63
Rp64
ag49
(g53
S'\xb0>\x01\x8ex\xaa\xd0?'
p65
tp66
Rp67
ag49
(g53
S'OmlZ\x1e\x19\xd1?'
p68
tp69
Rp70
ag49
(g53
S'\x82\xab\xfb3w\xf1\xe3?'
p71
tp72
Rp73
ag49
(g53
S',a\xf4\x93T\xb8\xee?'
p74
tp75
Rp76
ag49
(g53
S',a\xf4\x93T\xb8\xee?'
p77
tp78
Rp79
ag49
(g53
S'\xb0>\x01\x8ex\xaa\xd0?'
p80
tp81
Rp82
ag49
(g53
S'4\x8b\xa3W\xa5\x9a\xe2?'
p83
tp84
Rp85
ag49
(g53
S'\x14\xeb[\x84B-\xcd?'
p86
tp87
Rp88
ag49
(g53
S'4\x8b\xa3W\xa5\x9a\xe2?'
p89
tp90
Rp91
ag49
(g53
S'\xec\xa6\x11V\xad\x14\xe6?'
p92
tp93
Rp94
ag49
(g53
S'\x14\xeb[\x84B-\xcd?'
p95
tp96
Rp97
ag49
(g53
S'OmlZ\x1e\x19\xd1?'
p98
tp99
Rp100
ag49
(g53
S'\x8b`F\xda\xf7\x8d\xe0?'
p101
tp102
Rp103
ag49
(g53
S'\xb0\xe9f\x12\xd8\xcb\xe9?'
p104
tp105
Rp106
ag49
(g53
S'\x14\xeb[\x84B-\xcd?'
p107
tp108
Rp109
ag49
(g53
S'4\x8b\xa3W\xa5\x9a\xe2?'
p110
tp111
Rp112
ag49
(g53
S')gE\xfa\x99\x1b\xec?'
p113
tp114
Rp115
ag49
(g53
S'\x14\xeb[\x84B-\xcd?'
p116
tp117
Rp118
ag49
(g53
S'4\x8b\xa3W\xa5\x9a\xe2?'
p119
tp120
Rp121
ag49
(g53
S'OmlZ\x1e\x19\xd1?'
p122
tp123
Rp124
ag49
(g53
S'\xb0>\x01\x8ex\xaa\xd0?'
p125
tp126
Rp127
ag49
(g53
S'OmlZ\x1e\x19\xd1?'
p128
tp129
Rp130
ag49
(g53
S'\xb0>\x01\x8ex\xaa\xd0?'
p131
tp132
Rp133
ag49
(g53
S'4\x8b\xa3W\xa5\x9a\xe2?'
p134
tp135
Rp136
ag49
(g53
S'4\x8b\xa3W\xa5\x9a\xe2?'
p137
tp138
Rp139
ag49
(g53
S'4\x8b\xa3W\xa5\x9a\xe2?'
p140
tp141
Rp142
ag49
(g53
S'4\x8b\xa3W\xa5\x9a\xe2?'
p143
tp144
Rp145
ag49
(g53
S'OmlZ\x1e\x19\xd1?'
p146
tp147
Rp148
ag49
(g53
S'\xb0>\x01\x8ex\xaa\xd0?'
p149
tp150
Rp151
ag49
(g53
S'OmlZ\x1e\x19\xd1?'
p152
tp153
Rp154
asS'sp'
p155
(lp156
(S'p0'
p157
I0
S't'
p158
tp159
ag159
ag159
a(g157
I0
S'x'
p160
tp161
a(S'p1'
p162
I0
g160
tp163
a(g162
I0
g160
tp164
a(g162
I0
g160
tp165
ag165
a(g162
I0
S'y'
p166
tp167
a(g157
I0
g166
tp168
a(g157
I0
g160
tp169
a(g157
I0
g160
tp170
a(g157
I0
g166
tp171
ag169
ag163
a(g162
I0
g158
tp172
a(g162
I0
g158
tp173
a(g162
I0
g166
tp174
ag168
a(g157
I0
g166
tp175
ag169
ag170
ag163
ag167
a(S'p2'
p176
I0
g166
tp177
a(g176
I0
g158
tp178
a(g176
I0
g158
tp179
ag179
ag179
ag179
a(g176
F1.5707963267948966
g158
tp180
a(g176
F1.5707963267948966
g160
tp181
a(S'p3'
p182
F1.5707963267948966
g160
tp183
asS's'
p184
(lp185
(g157
I0
g22
tp186
ag159
ag159
ag159
ag161
ag163
ag164
ag165
ag165
ag167
ag168
ag169
ag170
ag171
ag169
ag163
ag172
ag173
ag174
ag168
ag175
ag169
ag170
ag163
ag167
ag177
ag178
ag179
ag179
ag179
ag179
ag180
ag181
asS'ui'
p187
(lp188
g155
aS'hs'
p189
ag189
aS'hp'
p190
ag155
ag155
ag155
aS'ss'
p191
ag190
ag191
ag189
ag191
ag155
ag189
ag155
ag189
ag189
ag189
ag191
ag191
ag189
ag191
ag191
ag190
ag191
ag190
ag191
ag155
ag155
ag155
ag155
ag190
ag155
asS'um_before'
p192
(lp193
g155
ag155
ag155
ag190
ag155
ag155
ag191
ag191
ag190
ag191
ag189
ag191
ag190
ag189
ag155
ag189
ag155
ag189
ag191
ag191
ag189
ag191
ag155
ag190
ag155
ag190
ag191
ag191
ag191
ag191
ag155
ag190
ag155
asS'um_after'
p194
(lp195
g155
ag155
ag155
ag190
ag155
ag155
ag191
ag191
ag190
ag191
ag189
ag191
ag190
ag189
ag155
ag189
ag155
ag189
ag191
ag191
ag189
ag191
ag155
ag190
ag155
ag190
ag191
ag191
ag191
ag191
ag155
ag190
ag155
asS'is_normalized_entropy_less_than_threshold'
p196
(lp197
g49
(g50
(S'b1'
p198
I0
I1
tp199
Rp200
(I3
S'|'
p201
NNNI-1
I-1
I0
tp202
bS'\x01'
p203
tp204
Rp205
ag205
ag205
ag205
ag205
ag205
ag49
(g200
S'\x00'
p206
tp207
Rp208
ag208
ag205
ag205
ag205
ag205
ag205
ag205
ag205
ag205
ag208
ag205
ag205
ag208
ag205
ag205
ag205
ag205
ag205
ag205
ag205
ag205
ag205
ag205
ag205
ag205
ag205
asaa(lp209
S'index'
p210
aI10286
aatp211
Rp212
.