ccollections
OrderedDict
p0
((lp1
(lp2
S'combination_dict'
p3
ag0
((lp4
(lp5
S'r_to_g_config'
p6
aS'tr'
p7
aa(lp8
S'num_turns'
p9
aI1
aa(lp10
S'start_direction'
p11
acutils_ms
StartDirection
p12
(I0
tp13
Rp14
aa(lp15
S'assistance_type'
p16
acutils_ms
AssistanceType
p17
(I0
tp18
Rp19
aa(lp20
S'start_mode'
p21
aS't'
p22
aa(lp23
S'ui_given_a_noise'
p24
aF0.1
aa(lp25
S'um_given_ui_noise'
p26
aF0.5
aa(lp27
S'entropy_threshold'
p28
aF0.6
aatp29
Rp30
aa(lp31
S'data'
p32
accollections
defaultdict
p33
(c__builtin__
list
p34
tp35
Rp36
S'a'
p37
(lp38
S'mode_r'
p39
ag39
aS'move_p'
p40
ag40
aS'mode_l'
p41
ag41
ag41
ag41
ag41
ag41
ag41
ag40
ag40
ag40
ag40
ag41
ag41
ag40
asS'assistance_match_with_ground_truth'
p42
(lp43
I00
aI01
aI00
aI01
aI00
aI00
aI00
aI00
aI00
aI00
aI01
aI00
aI00
aI00
aI01
aI00
aI01
aI01
asS'is_u_intended_equals_um'
p44
(lp45
I00
aI01
aI00
aI01
aI00
aI00
aI00
aI00
aI00
aI00
aI01
aI00
aI00
aI00
aI01
aI00
aI01
aI01
asS'total_steps'
p46
I18
sS'normalized_h_of_p_ui_given_um'
p47
(lp48
cnumpy.core.multiarray
scalar
p49
(cnumpy
dtype
p50
(S'f8'
p51
I0
I1
tp52
Rp53
(I3
S'<'
p54
NNNI-1
I-1
I0
tp55
bS'\xf6(\xcc\x93y"\xc2?'
p56
tp57
Rp58
ag49
(g53
S'6\xb4\xcf4\x17u\xba?'
p59
tp60
Rp61
ag49
(g53
S'S\xdd\xdd[^*\xe0?'
p62
tp63
Rp64
ag49
(g53
S'\x00.9V\xec\xc7\xc5?'
p65
tp66
Rp67
ag49
(g53
S'5\xef\xd7\x1cq\x91\xd7?'
p68
tp69
Rp70
ag49
(g53
S'5\xef\xd7\x1cq\x91\xd7?'
p71
tp72
Rp73
ag49
(g53
S'GF\xed{\x056\xdd?'
p74
tp75
Rp76
ag49
(g53
S'5\xef\xd7\x1cq\x91\xd7?'
p77
tp78
Rp79
ag49
(g53
S'5\xef\xd7\x1cq\x91\xd7?'
p80
tp81
Rp82
ag49
(g53
S'5\xef\xd7\x1cq\x91\xd7?'
p83
tp84
Rp85
ag49
(g53
S'\xb3\xa05mr`\xb2?'
p86
tp87
Rp88
ag49
(g53
S'\x01\xcc\xd7p\x12!\xd6?'
p89
tp90
Rp91
ag49
(g53
S'.\x9e_\x9e\xf0s\xe1?'
p92
tp93
Rp94
ag49
(g53
S'S\xdd\xdd[^*\xe0?'
p95
tp96
Rp97
ag49
(g53
S'\x00.9V\xec\xc7\xc5?'
p98
tp99
Rp100
ag49
(g53
S'GF\xed{\x056\xdd?'
p101
tp102
Rp103
ag49
(g53
S'\xb3\xa05mr`\xb2?'
p104
tp105
Rp106
ag49
(g53
S'\x00.9V\xec\xc7\xc5?'
p107
tp108
Rp109
asS'sp'
p110
(lp111
(S'p0'
p112
I0
g22
tp113
a(g112
I0
S'x'
p114
tp115
ag115
a(S'p1'
p116
I0
g114
tp117
ag117
ag117
ag117
ag117
ag117
ag117
a(g116
I0
S't'
p118
tp119
ag119
ag119
ag119
a(g116
F1.5707963267948966
g118
tp120
ag120
a(g116
F1.5707963267948966
S'y'
p121
tp122
a(S'p2'
p123
F1.5707963267948966
g121
tp124
asS's'
p125
(lp126
g113
ag113
ag115
ag115
ag117
ag117
ag117
ag117
ag117
ag117
ag117
ag119
ag119
ag119
ag119
ag120
ag120
ag122
asS'ui'
p127
(lp128
S'hp'
p129
ag129
aS'hs'
p130
ag110
ag130
ag130
ag130
ag130
ag110
ag130
ag130
ag110
ag110
ag130
ag110
ag130
ag130
ag110
asS'um_before'
p131
(lp132
S'ss'
p133
ag129
ag130
ag110
ag110
ag110
ag129
ag110
ag110
ag110
ag130
ag129
ag133
ag130
ag110
ag129
ag130
ag110
asS'um_after'
p134
(lp135
Nag129
aNag110
aNaNaNaNaNaNag130
aNaNaNag110
aNag130
ag110
asS'is_normalized_entropy_less_than_threshold'
p136
(lp137
g49
(g50
(S'b1'
p138
I0
I1
tp139
Rp140
(I3
S'|'
p141
NNNI-1
I-1
I0
tp142
bS'\x01'
p143
tp144
Rp145
ag145
ag145
ag145
ag145
ag145
ag145
ag145
ag145
ag145
ag145
ag145
ag145
ag145
ag145
ag145
ag145
ag145
asaa(lp146
S'index'
p147
aI110
aatp148
Rp149
.