ccollections
OrderedDict
p0
((lp1
(lp2
S'combination_dict'
p3
ag0
((lp4
(lp5
S'r_to_g_config'
p6
aS'tr'
p7
aa(lp8
S'num_turns'
p9
aI3
aa(lp10
S'start_direction'
p11
acutils_ms
StartDirection
p12
(I1
tp13
Rp14
aa(lp15
S'assistance_type'
p16
acutils_ms
AssistanceType
p17
(I0
tp18
Rp19
aa(lp20
S'start_mode'
p21
aS'x'
p22
aa(lp23
S'ui_given_a_noise'
p24
aF0.7
aa(lp25
S'um_given_ui_noise'
p26
aF0.7
aa(lp27
S'entropy_threshold'
p28
aF0.7
aatp29
Rp30
aa(lp31
S'data'
p32
accollections
defaultdict
p33
(c__builtin__
list
p34
tp35
Rp36
S'a'
p37
(lp38
S'mode_r'
p39
aS'move_p'
p40
ag40
ag39
ag39
ag40
aS'mode_l'
p41
ag40
ag41
ag40
ag39
ag41
ag39
ag41
ag40
ag41
ag41
ag41
ag41
ag40
ag39
ag40
ag41
ag41
ag41
ag41
ag39
ag39
ag39
ag40
ag39
ag40
ag41
ag40
ag41
ag39
ag40
ag39
ag40
asS'assistance_match_with_ground_truth'
p42
(lp43
I01
aI00
aI00
aI00
aI01
aI01
aI01
aI01
aI01
aI00
aI00
aI00
aI00
aI01
aI00
aI00
aI00
aI00
aI01
aI00
aI01
aI01
aI00
aI00
aI00
aI00
aI00
aI00
aI01
aI00
aI01
aI00
aI01
aI01
aI00
aI01
aI00
aI01
aI01
asS'is_u_intended_equals_um'
p44
(lp45
I01
aI01
aI00
aI01
aI01
aI01
aI01
aI01
aI01
aI00
aI01
aI01
aI01
aI01
aI01
aI00
aI01
aI01
aI01
aI00
aI01
aI01
aI00
aI00
aI00
aI01
aI00
aI00
aI01
aI00
aI01
aI01
aI01
aI01
aI01
aI01
aI00
aI01
aI01
asS'total_steps'
p46
I39
sS'normalized_h_of_p_ui_given_um'
p47
(lp48
cnumpy.core.multiarray
scalar
p49
(cnumpy
dtype
p50
(S'f8'
p51
I0
I1
tp52
Rp53
(I3
S'<'
p54
NNNI-1
I-1
I0
tp55
bS'lc\x07\xbb\xc2~\xe2?'
p56
tp57
Rp58
ag49
(g53
S'\x0fq\xd4\x9c\x0c\xcc\xee?'
p59
tp60
Rp61
ag49
(g53
S'\x80\xe8P\xed\xf6\xec\xe9?'
p62
tp63
Rp64
ag49
(g53
S'\x8c+\x80gwU\xea?'
p65
tp66
Rp67
ag49
(g53
S'lc\x07\xbb\xc2~\xe2?'
p68
tp69
Rp70
ag49
(g53
S'\xa1\x8c\x84\xd0)\xa5\xe4?'
p71
tp72
Rp73
ag49
(g53
S'x\x047L\xaa\xb4\xe9?'
p74
tp75
Rp76
ag49
(g53
S'\xa1\x8c\x84\xd0)\xa5\xe4?'
p77
tp78
Rp79
ag49
(g53
S'x\x047L\xaa\xb4\xe9?'
p80
tp81
Rp82
ag49
(g53
S'\x80\xe8P\xed\xf6\xec\xe9?'
p83
tp84
Rp85
ag49
(g53
S'q\xb9\x1f\x1d\x8e\xd3\xeb?'
p86
tp87
Rp88
ag49
(g53
S'6\xc3\x0e:\xae\t\xea?'
p89
tp90
Rp91
ag49
(g53
S'q\xb9\x1f\x1d\x8e\xd3\xeb?'
p92
tp93
Rp94
ag49
(g53
S'x\x047L\xaa\xb4\xe9?'
p95
tp96
Rp97
ag49
(g53
S'\xe4\x1b/Q\x06\xa9\xe6?'
p98
tp99
Rp100
ag49
(g53
S'\xa6+\xa5\x1ch\xec\xed?'
p101
tp102
Rp103
ag49
(g53
S'\x18-S\x9b\xaf\x9e\xe7?'
p104
tp105
Rp106
ag49
(g53
S'\x18-S\x9b\xaf\x9e\xe7?'
p107
tp108
Rp109
ag49
(g53
S'x\x047L\xaa\xb4\xe9?'
p110
tp111
Rp112
ag49
(g53
S'\x80\xe8P\xed\xf6\xec\xe9?'
p113
tp114
Rp115
ag49
(g53
S'lc\x07\xbb\xc2~\xe2?'
p116
tp117
Rp118
ag49
(g53
S'\xa1\x8c\x84\xd0)\xa5\xe4?'
p119
tp120
Rp121
ag49
(g53
S'\xa6+\xa5\x1ch\xec\xed?'
p122
tp123
Rp124
ag49
(g53
S'\xa6+\xa5\x1ch\xec\xed?'
p125
tp126
Rp127
ag49
(g53
S'\xa6+\xa5\x1ch\xec\xed?'
p128
tp129
Rp130
ag49
(g53
S'6\xc3\x0e:\xae\t\xea?'
p131
tp132
Rp133
ag49
(g53
S'/e\x8f\n\xe3\xf7\xec?'
p134
tp135
Rp136
ag49
(g53
S'/e\x8f\n\xe3\xf7\xec?'
p137
tp138
Rp139
ag49
(g53
S'lc\x07\xbb\xc2~\xe2?'
p140
tp141
Rp142
ag49
(g53
S'\x80\xe8P\xed\xf6\xec\xe9?'
p143
tp144
Rp145
ag49
(g53
S'lc\x07\xbb\xc2~\xe2?'
p146
tp147
Rp148
ag49
(g53
S'\xe4\x1b/Q\x06\xa9\xe6?'
p149
tp150
Rp151
ag49
(g53
S'x\x047L\xaa\xb4\xe9?'
p152
tp153
Rp154
ag49
(g53
S'\xa1\x8c\x84\xd0)\xa5\xe4?'
p155
tp156
Rp157
ag49
(g53
S'6\xc3\x0e:\xae\t\xea?'
p158
tp159
Rp160
ag49
(g53
S'lc\x07\xbb\xc2~\xe2?'
p161
tp162
Rp163
ag49
(g53
S'\x80\xe8P\xed\xf6\xec\xe9?'
p164
tp165
Rp166
ag49
(g53
S'lc\x07\xbb\xc2~\xe2?'
p167
tp168
Rp169
ag49
(g53
S'\xa1\x8c\x84\xd0)\xa5\xe4?'
p170
tp171
Rp172
asS'sp'
p173
(lp174
(S'p0'
p175
I0
S'y'
p176
tp177
a(g175
I0
g176
tp178
a(g175
I0
S'x'
p179
tp180
a(g175
I0
g179
tp181
ag177
a(S'p1'
p182
I0
g176
tp183
a(g182
I0
g179
tp184
a(S'p2'
p185
I0
g179
tp186
a(g185
I0
S't'
p187
tp188
a(g185
I0
g176
tp189
a(g185
I0
g179
tp190
a(g185
I0
g176
tp191
ag190
ag188
a(g185
I0
g179
tp192
a(g185
I0
g179
tp193
a(g185
I0
g179
tp194
ag194
ag188
ag189
a(g185
I0
g187
tp195
a(g185
F1.5707963267948966
g187
tp196
a(g185
F1.5707963267948966
g187
tp197
ag197
ag197
a(g185
F1.5707963267948966
g179
tp198
a(g185
F1.5707963267948966
g179
tp199
ag199
a(g185
F1.5707963267948966
g176
tp200
a(g185
F1.5707963267948966
g179
tp201
ag200
a(g185
F1.5707963267948966
g187
tp202
a(g185
F1.5707963267948966
g176
tp203
a(S'p3'
p204
F1.5707963267948966
g176
tp205
a(g204
F1.5707963267948966
g187
tp206
a(g204
F1.5707963267948966
g179
tp207
a(g204
F1.5707963267948966
g187
tp208
ag207
a(S'p4'
p209
F1.5707963267948966
g179
tp210
asS's'
p211
(lp212
(g175
I0
g22
tp213
ag177
ag178
ag180
ag181
ag177
ag183
ag184
ag186
ag188
ag189
ag190
ag191
ag190
ag188
ag192
ag193
ag194
ag194
ag188
ag189
ag195
ag196
ag197
ag197
ag197
ag198
ag199
ag199
ag200
ag201
ag200
ag202
ag203
ag205
ag206
ag207
ag208
ag207
asS'ui'
p214
(lp215
S'hp'
p216
aS'hs'
p217
aS'ss'
p218
ag216
ag216
ag217
ag216
ag216
ag217
ag173
ag216
ag218
ag216
ag217
ag217
ag217
ag218
ag218
ag217
ag173
ag216
ag173
ag216
ag217
ag216
ag217
ag216
ag217
ag216
ag217
ag216
ag216
ag217
ag173
ag173
ag216
ag218
ag216
ag173
asS'um_before'
p219
(lp220
g216
ag218
ag217
ag218
ag216
ag173
ag217
ag173
ag217
ag217
ag217
ag216
ag217
ag217
ag216
ag173
ag218
ag218
ag217
ag217
ag216
ag173
ag173
ag173
ag173
ag216
ag173
ag173
ag216
ag217
ag216
ag216
ag217
ag173
ag216
ag216
ag217
ag216
ag173
asS'um_after'
p221
(lp222
g216
ag218
ag217
ag218
ag216
ag173
ag217
ag173
ag217
ag217
ag217
ag216
ag217
ag217
ag216
ag173
ag218
ag218
ag217
ag217
ag216
ag173
ag173
ag173
ag173
ag216
ag173
ag173
ag216
ag217
ag216
ag216
ag217
ag173
ag216
ag216
ag217
ag216
ag173
asS'is_normalized_entropy_less_than_threshold'
p223
(lp224
g49
(g50
(S'b1'
p225
I0
I1
tp226
Rp227
(I3
S'|'
p228
NNNI-1
I-1
I0
tp229
bS'\x01'
p230
tp231
Rp232
ag49
(g227
S'\x00'
p233
tp234
Rp235
ag235
ag235
ag232
ag232
ag235
ag232
ag235
ag235
ag235
ag235
ag235
ag235
ag235
ag235
ag235
ag235
ag235
ag235
ag232
ag232
ag235
ag235
ag235
ag235
ag235
ag235
ag232
ag235
ag232
ag235
ag235
ag232
ag235
ag232
ag235
ag232
ag232
asaa(lp236
S'index'
p237
aI24776
aatp238
Rp239
.