ccollections
OrderedDict
p0
((lp1
(lp2
S'combination_dict'
p3
ag0
((lp4
(lp5
S'r_to_g_config'
p6
aS'br'
p7
aa(lp8
S'num_turns'
p9
aI2
aa(lp10
S'start_direction'
p11
acutils_ms
StartDirection
p12
(I0
tp13
Rp14
aa(lp15
S'assistance_type'
p16
acutils_ms
AssistanceType
p17
(I0
tp18
Rp19
aa(lp20
S'start_mode'
p21
aS'y'
p22
aa(lp23
S'ui_given_a_noise'
p24
aF0.7
aa(lp25
S'um_given_ui_noise'
p26
aF0.7
aa(lp27
S'entropy_threshold'
p28
aF0.5
aatp29
Rp30
aa(lp31
S'data'
p32
accollections
defaultdict
p33
(c__builtin__
list
p34
tp35
Rp36
S'a'
p37
(lp38
S'mode_l'
p39
ag39
aS'mode_r'
p40
ag39
ag39
ag39
aS'move_p'
p41
ag41
ag40
ag40
aS'move_n'
p42
ag39
ag39
ag40
ag40
ag40
ag40
ag41
ag40
ag41
ag40
ag40
ag42
ag40
ag41
ag40
ag41
asS'assistance_match_with_ground_truth'
p43
(lp44
I00
aI00
aI00
aI00
aI00
aI01
aI00
aI01
aI00
aI01
aI00
aI00
aI00
aI00
aI00
aI00
aI01
aI00
aI01
aI01
aI00
aI01
aI01
aI01
aI01
aI01
aI01
asS'is_u_intended_equals_um'
p45
(lp46
I01
aI00
aI00
aI01
aI00
aI01
aI00
aI01
aI00
aI01
aI00
aI01
aI00
aI00
aI00
aI00
aI01
aI01
aI01
aI01
aI00
aI01
aI01
aI01
aI01
aI01
aI01
asS'total_steps'
p47
I27
sS'normalized_h_of_p_ui_given_um'
p48
(lp49
cnumpy.core.multiarray
scalar
p50
(cnumpy
dtype
p51
(S'f8'
p52
I0
I1
tp53
Rp54
(I3
S'<'
p55
NNNI-1
I-1
I0
tp56
bS'\xbc L\xf6\xc6\x95\xe9?'
p57
tp58
Rp59
ag50
(g54
S'\xe0\x9e%\x912W\xe7?'
p60
tp61
Rp62
ag50
(g54
S']\x05\xf0\xf1\xa0\xd7\xe3?'
p63
tp64
Rp65
ag50
(g54
S'\xbc L\xf6\xc6\x95\xe9?'
p66
tp67
Rp68
ag50
(g54
S'\xdc\xfb\x97X\xe8\xd0\xea?'
p69
tp70
Rp71
ag50
(g54
S'\x06\x04\xe28rH\xd7?'
p72
tp73
Rp74
ag50
(g54
S'\xc9\x99l\xa2=Z\xee?'
p75
tp76
Rp77
ag50
(g54
S'*B\x92MLr\xdc?'
p78
tp79
Rp80
ag50
(g54
S'\xf9\nGRKu\xeb?'
p81
tp82
Rp83
ag50
(g54
S'~<\x1eN\xe7\xc5\xd7?'
p84
tp85
Rp86
ag50
(g54
S'\xec\x81@\xd4)\xaf\xe5?'
p87
tp88
Rp89
ag50
(g54
S'\xbc L\xf6\xc6\x95\xe9?'
p90
tp91
Rp92
ag50
(g54
S'\xe0\x9e%\x912W\xe7?'
p93
tp94
Rp95
ag50
(g54
S'\xf9\nGRKu\xeb?'
p96
tp97
Rp98
ag50
(g54
S'g\x99p\x9dY]\xe2?'
p99
tp100
Rp101
ag50
(g54
S'g\x99p\x9dY]\xe2?'
p102
tp103
Rp104
ag50
(g54
S'~<\x1eN\xe7\xc5\xd7?'
p105
tp106
Rp107
ag50
(g54
S'\x82?DS,k\xe9?'
p108
tp109
Rp110
ag50
(g54
S'~<\x1eN\xe7\xc5\xd7?'
p111
tp112
Rp113
ag50
(g54
S'*B\x92MLr\xdc?'
p114
tp115
Rp116
ag50
(g54
S'\xf9\nGRKu\xeb?'
p117
tp118
Rp119
ag50
(g54
S'~<\x1eN\xe7\xc5\xd7?'
p120
tp121
Rp122
ag50
(g54
S'\xe8!\xd3\x94\xd4\\\xde?'
p123
tp124
Rp125
ag50
(g54
S'~<\x1eN\xe7\xc5\xd7?'
p126
tp127
Rp128
ag50
(g54
S'*B\x92MLr\xdc?'
p129
tp130
Rp131
ag50
(g54
S'~<\x1eN\xe7\xc5\xd7?'
p132
tp133
Rp134
ag50
(g54
S'*B\x92MLr\xdc?'
p135
tp136
Rp137
asS'sp'
p138
(lp139
(S'p0'
p140
I0
S'y'
p141
tp142
a(g140
I0
S't'
p143
tp144
a(g140
I0
g141
tp145
ag142
a(g140
I0
g141
tp146
a(g140
I0
S'x'
p147
tp148
a(g140
I0
g147
tp149
a(S'p1'
p150
I0
g147
tp151
a(g150
I0
g147
tp152
a(g150
I0
g141
tp153
a(g140
I0
g141
tp154
ag142
ag144
a(g140
I0
g143
tp155
a(g140
I0
g143
tp156
ag156
a(g140
I0
g147
tp157
a(g140
I0
g143
tp158
ag157
ag151
ag152
ag153
a(S'p2'
p159
I0
g141
tp160
a(g159
I0
g143
tp161
a(g159
F1.5707963267948966
g143
tp162
a(g159
F1.5707963267948966
g147
tp163
a(S'p3'
p164
F1.5707963267948966
g147
tp165
asS's'
p166
(lp167
(g140
I0
g22
tp168
ag142
ag144
ag145
ag142
ag146
ag148
ag149
ag151
ag152
ag153
ag154
ag142
ag144
ag155
ag156
ag156
ag157
ag158
ag157
ag151
ag152
ag153
ag160
ag161
ag162
ag163
asS'ui'
p169
(lp170
S'hs'
p171
aS'hp'
p172
ag172
ag171
ag171
ag171
ag172
ag138
ag138
ag172
aS'ss'
p173
ag171
ag171
ag138
ag172
ag173
ag172
ag138
ag172
ag138
ag172
ag172
ag173
ag172
ag138
ag172
ag138
asS'um_before'
p174
(lp175
g173
ag172
ag171
ag173
ag138
ag171
ag173
ag138
ag138
ag172
ag138
ag173
ag172
ag138
ag173
ag173
ag172
ag171
ag172
ag138
ag138
ag172
ag173
ag172
ag138
ag172
ag138
asS'um_after'
p176
(lp177
g173
ag172
ag171
ag173
ag138
ag171
ag173
ag138
ag138
ag172
ag138
ag173
ag172
ag138
ag173
ag173
ag172
ag171
ag172
ag138
ag138
ag172
ag173
ag172
ag138
ag172
ag138
asS'is_normalized_entropy_less_than_threshold'
p178
(lp179
g50
(g51
(S'b1'
p180
I0
I1
tp181
Rp182
(I3
S'|'
p183
NNNI-1
I-1
I0
tp184
bS'\x00'
p185
tp186
Rp187
ag187
ag187
ag187
ag187
ag50
(g182
S'\x01'
p188
tp189
Rp190
ag187
ag190
ag187
ag190
ag187
ag187
ag187
ag187
ag187
ag187
ag190
ag187
ag190
ag190
ag187
ag190
ag190
ag190
ag190
ag190
ag190
asaa(lp191
S'index'
p192
aI97557
aatp193
Rp194
.