ccollections
OrderedDict
p0
((lp1
(lp2
S'combination_dict'
p3
ag0
((lp4
(lp5
S'r_to_g_config'
p6
aS'tr'
p7
aa(lp8
S'num_turns'
p9
aI2
aa(lp10
S'start_direction'
p11
acutils_ms
StartDirection
p12
(I0
tp13
Rp14
aa(lp15
S'assistance_type'
p16
acutils_ms
AssistanceType
p17
(I1
tp18
Rp19
aa(lp20
S'start_mode'
p21
aS'y'
p22
aa(lp23
S'ui_given_a_noise'
p24
aF0.7
aa(lp25
S'um_given_ui_noise'
p26
aF0.1
aa(lp27
S'entropy_threshold'
p28
aF0.8
aatp29
Rp30
aa(lp31
S'data'
p32
accollections
defaultdict
p33
(c__builtin__
list
p34
tp35
Rp36
S'a'
p37
(lp38
S'mode_l'
p39
aS'move_p'
p40
ag40
ag40
ag40
aS'mode_r'
p41
ag40
ag39
ag39
ag40
ag39
ag40
ag39
ag39
ag39
ag40
ag40
ag39
ag40
ag40
ag40
ag39
ag39
ag40
ag39
ag39
ag40
ag41
ag40
ag39
ag39
ag41
ag41
ag41
ag39
ag40
ag41
ag40
ag39
ag41
ag39
ag39
ag41
ag41
ag40
ag40
ag41
ag39
ag41
ag40
ag41
ag40
ag39
ag40
asS'assistance_match_with_ground_truth'
p42
(lp43
I01
aI00
aI00
aI00
aI00
aI01
aI00
aI00
aI01
aI00
aI01
aI01
aI00
aI00
aI01
aI00
aI01
aI00
aI00
aI00
aI01
aI00
aI01
aI00
aI00
aI01
aI01
aI01
aI01
aI00
aI00
aI00
aI00
aI00
aI01
aI00
aI01
aI00
aI00
aI00
aI00
aI00
aI00
aI01
aI00
aI00
aI00
aI00
aI01
aI01
aI01
aI01
aI01
aI01
asS'is_u_intended_equals_um'
p44
(lp45
I01
aI01
aI01
aI01
aI01
aI01
aI01
aI01
aI01
aI01
aI01
aI01
aI01
aI01
aI01
aI01
aI01
aI01
aI01
aI01
aI01
aI01
aI01
aI01
aI01
aI01
aI01
aI01
aI01
aI01
aI01
aI01
aI01
aI01
aI01
aI01
aI01
aI01
aI01
aI01
aI01
aI01
aI01
aI01
aI01
aI01
aI01
aI01
aI01
aI01
aI01
aI01
aI01
aI01
asS'total_steps'
p46
I54
sS'normalized_h_of_p_ui_given_um'
p47
(lp48
cnumpy.core.multiarray
scalar
p49
(cnumpy
dtype
p50
(S'f8'
p51
I0
I1
tp52
Rp53
(I3
S'<'
p54
NNNI-1
I-1
I0
tp55
bS'\xe5\xb6\xc0H\xb3u\xd0?'
p56
tp57
Rp58
ag49
(g53
S'(c\xb8\xf2\xb1\x1d\xd9?'
p59
tp60
Rp61
ag49
(g53
S'(c\xb8\xf2\xb1\x1d\xd9?'
p62
tp63
Rp64
ag49
(g53
S'(c\xb8\xf2\xb1\x1d\xd9?'
p65
tp66
Rp67
ag49
(g53
S'yJ\xdc\xb80\x12\xd9?'
p68
tp69
Rp70
ag49
(g53
S'_\xea\xe1\xb3N\x89\xc7?'
p71
tp72
Rp73
ag49
(g53
S'v\xcc\xb4"\xde\xc2\xe2?'
p74
tp75
Rp76
ag49
(g53
S'8&wJrd\xdb?'
p77
tp78
Rp79
ag49
(g53
S'\xe5\xb6\xc0H\xb3u\xd0?'
p80
tp81
Rp82
ag49
(g53
S'v\xcc\xb4"\xde\xc2\xe2?'
p83
tp84
Rp85
ag49
(g53
S'\xe5\xb6\xc0H\xb3u\xd0?'
p86
tp87
Rp88
ag49
(g53
S'r\\A\xf5\xb7E\xc7?'
p89
tp90
Rp91
ag49
(g53
S'\x8b\x96yg\xc2\x82\xdd?'
p92
tp93
Rp94
ag49
(g53
S'8&wJrd\xdb?'
p95
tp96
Rp97
ag49
(g53
S'\xe5\xb6\xc0H\xb3u\xd0?'
p98
tp99
Rp100
ag49
(g53
S'(c\xb8\xf2\xb1\x1d\xd9?'
p101
tp102
Rp103
ag49
(g53
S'r\\A\xf5\xb7E\xc7?'
p104
tp105
Rp106
ag49
(g53
S'8&wJrd\xdb?'
p107
tp108
Rp109
ag49
(g53
S'(c\xb8\xf2\xb1\x1d\xd9?'
p110
tp111
Rp112
ag49
(g53
S'(c\xb8\xf2\xb1\x1d\xd9?'
p113
tp114
Rp115
ag49
(g53
S'r\\A\xf5\xb7E\xc7?'
p116
tp117
Rp118
ag49
(g53
S'\x8b\x96yg\xc2\x82\xdd?'
p119
tp120
Rp121
ag49
(g53
S'\xe5\xb6\xc0H\xb3u\xd0?'
p122
tp123
Rp124
ag49
(g53
S'(c\xb8\xf2\xb1\x1d\xd9?'
p125
tp126
Rp127
ag49
(g53
S'8&wJrd\xdb?'
p128
tp129
Rp130
ag49
(g53
S'\xe5\xb6\xc0H\xb3u\xd0?'
p131
tp132
Rp133
ag49
(g53
S'r\\A\xf5\xb7E\xc7?'
p134
tp135
Rp136
ag49
(g53
S'_\xea\xe1\xb3N\x89\xc7?'
p137
tp138
Rp139
ag49
(g53
S'r\\A\xf5\xb7E\xc7?'
p140
tp141
Rp142
ag49
(g53
S'\x8b\x96yg\xc2\x82\xdd?'
p143
tp144
Rp145
ag49
(g53
S'!\xf7\xbbt\xec2\xd5?'
p146
tp147
Rp148
ag49
(g53
S'\x1d;\xd8\x1f\xd4\x0b\xd5?'
p149
tp150
Rp151
ag49
(g53
S'\x1d;\xd8\x1f\xd4\x0b\xd5?'
p152
tp153
Rp154
ag49
(g53
S'\xe6lFn\x86\x9b\xd3?'
p155
tp156
Rp157
ag49
(g53
S'\xe5\xb6\xc0H\xb3u\xd0?'
p158
tp159
Rp160
ag49
(g53
S'(c\xb8\xf2\xb1\x1d\xd9?'
p161
tp162
Rp163
ag49
(g53
S'_\xea\xe1\xb3N\x89\xc7?'
p164
tp165
Rp166
ag49
(g53
S'(c\xb8\xf2\xb1\x1d\xd9?'
p167
tp168
Rp169
ag49
(g53
S'!\xf7\xbbt\xec2\xd5?'
p170
tp171
Rp172
ag49
(g53
S'\xe6lFn\x86\x9b\xd3?'
p173
tp174
Rp175
ag49
(g53
S'\x8b\x96yg\xc2\x82\xdd?'
p176
tp177
Rp178
ag49
(g53
S'!\xf7\xbbt\xec2\xd5?'
p179
tp180
Rp181
ag49
(g53
S'\x1d;\xd8\x1f\xd4\x0b\xd5?'
p182
tp183
Rp184
ag49
(g53
S'_\xea\xe1\xb3N\x89\xc7?'
p185
tp186
Rp187
ag49
(g53
S'(c\xb8\xf2\xb1\x1d\xd9?'
p188
tp189
Rp190
ag49
(g53
S'yJ\xdc\xb80\x12\xd9?'
p191
tp192
Rp193
ag49
(g53
S'\xe6lFn\x86\x9b\xd3?'
p194
tp195
Rp196
ag49
(g53
S'!\xf7\xbbt\xec2\xd5?'
p197
tp198
Rp199
ag49
(g53
S'_\xea\xe1\xb3N\x89\xc7?'
p200
tp201
Rp202
ag49
(g53
S'r\\A\xf5\xb7E\xc7?'
p203
tp204
Rp205
ag49
(g53
S'_\xea\xe1\xb3N\x89\xc7?'
p206
tp207
Rp208
ag49
(g53
S'r\\A\xf5\xb7E\xc7?'
p209
tp210
Rp211
ag49
(g53
S'\xe5\xb6\xc0H\xb3u\xd0?'
p212
tp213
Rp214
ag49
(g53
S'r\\A\xf5\xb7E\xc7?'
p215
tp216
Rp217
asS'sp'
p218
(lp219
(S'p0'
p220
I0
S'x'
p221
tp222
a(g220
I0
g221
tp223
ag223
ag223
a(g220
I0
S't'
p224
tp225
a(g220
I0
g221
tp226
a(g220
I0
S'y'
p227
tp228
a(g220
I0
g227
tp229
ag222
ag228
ag222
a(S'p1'
p230
I0
g221
tp231
a(g230
I0
g221
tp232
a(g230
I0
g221
tp233
a(g230
I0
g224
tp234
a(g230
I0
g224
tp235
a(g230
F1.5707963267948966
g224
tp236
a(g230
I0
g224
tp237
ag235
ag235
ag236
a(g230
F1.5707963267948966
g224
tp238
a(g230
F1.5707963267948966
g227
tp239
a(g220
F1.5707963267948966
g227
tp240
a(g220
F1.5707963267948966
g227
tp241
a(g220
F1.5707963267948966
g221
tp242
a(g230
F1.5707963267948966
g221
tp243
a(g230
F1.5707963267948966
g227
tp244
a(S'p2'
p245
F1.5707963267948966
g227
tp246
a(g245
F1.5707963267948966
g227
tp247
a(g245
F1.5707963267948966
g224
tp248
a(g245
F1.5707963267948966
g224
tp249
ag249
a(g245
F1.5707963267948966
g227
tp250
a(g245
F1.5707963267948966
g221
tp251
a(g230
F1.5707963267948966
g221
tp252
ag244
ag240
a(g220
F1.5707963267948966
g224
tp253
a(g220
F1.5707963267948966
g227
tp254
a(g220
F1.5707963267948966
g227
tp255
ag253
a(g220
F1.5707963267948966
g224
tp256
a(g220
F1.5707963267948966
g221
tp257
a(g220
F1.5707963267948966
g221
tp258
a(g220
F1.5707963267948966
g224
tp259
ag254
ag253
ag257
ag243
ag244
ag246
ag251
a(S'p3'
p260
F1.5707963267948966
g221
tp261
asS's'
p262
(lp263
(g220
I0
g22
tp264
ag222
ag223
ag223
ag223
ag225
ag226
ag228
ag229
ag222
ag228
ag222
ag231
ag232
ag233
ag234
ag235
ag236
ag237
ag235
ag235
ag236
ag238
ag239
ag240
ag241
ag242
ag243
ag244
ag246
ag247
ag248
ag249
ag249
ag250
ag251
ag252
ag244
ag240
ag253
ag254
ag255
ag253
ag256
ag257
ag258
ag259
ag254
ag253
ag257
ag243
ag244
ag246
ag251
asS'ui'
p265
(lp266
S'hp'
p267
aS'ss'
p268
ag267
ag268
aS'hs'
p269
ag267
ag269
ag269
ag269
ag267
ag269
ag268
ag218
ag268
ag269
ag268
ag218
ag268
ag268
ag268
ag218
ag268
ag269
ag268
ag268
ag269
ag218
ag267
ag218
ag268
ag267
ag268
ag268
ag269
ag269
ag268
ag267
ag268
ag267
ag269
ag218
ag267
ag268
ag267
ag268
ag269
ag269
ag267
ag267
ag218
ag267
ag218
ag269
ag218
asS'um_before'
p270
(lp271
g269
ag268
ag268
ag268
ag269
ag267
ag267
ag268
ag269
ag267
ag269
ag218
ag218
ag268
ag269
ag268
ag218
ag268
ag268
ag268
ag218
ag218
ag269
ag268
ag268
ag269
ag218
ag267
ag218
ag218
ag267
ag268
ag268
ag269
ag269
ag268
ag267
ag268
ag267
ag269
ag218
ag267
ag268
ag267
ag268
ag269
ag269
ag267
ag267
ag218
ag267
ag218
ag269
ag218
asS'um_after'
p272
(lp273
g269
ag268
ag268
ag268
ag269
ag267
ag267
ag268
ag269
ag267
ag269
ag218
ag218
ag268
ag269
ag268
ag218
ag268
ag268
ag268
ag218
ag218
ag269
ag268
ag268
ag269
ag218
ag267
ag218
ag218
ag267
ag268
ag268
ag269
ag269
ag268
ag267
ag268
ag267
ag269
ag218
ag267
ag268
ag267
ag268
ag269
ag269
ag267
ag267
ag218
ag267
ag218
ag269
ag218
asS'is_normalized_entropy_less_than_threshold'
p274
(lp275
g49
(g50
(S'b1'
p276
I0
I1
tp277
Rp278
(I3
S'|'
p279
NNNI-1
I-1
I0
tp280
bS'\x01'
p281
tp282
Rp283
ag283
ag283
ag283
ag283
ag283
ag283
ag283
ag283
ag283
ag283
ag283
ag283
ag283
ag283
ag283
ag283
ag283
ag283
ag283
ag283
ag283
ag283
ag283
ag283
ag283
ag283
ag283
ag283
ag283
ag283
ag283
ag283
ag283
ag283
ag283
ag283
ag283
ag283
ag283
ag283
ag283
ag283
ag283
ag283
ag283
ag283
ag283
ag283
ag283
ag283
ag283
ag283
ag283
asaa(lp284
S'index'
p285
aI12635
aatp286
Rp287
.