ccollections
OrderedDict
p0
((lp1
(lp2
S'combination_dict'
p3
ag0
((lp4
(lp5
S'r_to_g_config'
p6
aS'tr'
p7
aa(lp8
S'num_turns'
p9
aI2
aa(lp10
S'start_direction'
p11
acutils_ms
StartDirection
p12
(I0
tp13
Rp14
aa(lp15
S'assistance_type'
p16
acutils_ms
AssistanceType
p17
(I1
tp18
Rp19
aa(lp20
S'start_mode'
p21
aS'y'
p22
aa(lp23
S'ui_given_a_noise'
p24
aF0.5
aa(lp25
S'um_given_ui_noise'
p26
aF0.7
aa(lp27
S'entropy_threshold'
p28
aF0.5
aatp29
Rp30
aa(lp31
S'data'
p32
accollections
defaultdict
p33
(c__builtin__
list
p34
tp35
Rp36
S'a'
p37
(lp38
S'mode_l'
p39
aS'move_p'
p40
ag39
ag40
ag40
ag39
ag39
ag40
aS'mode_r'
p41
ag39
ag39
ag40
ag39
ag39
ag40
ag39
ag40
ag39
ag39
ag40
ag41
ag41
ag39
ag40
ag41
ag41
ag40
ag41
ag39
ag40
ag39
ag40
asS'assistance_match_with_ground_truth'
p42
(lp43
I01
aI00
aI01
aI00
aI00
aI00
aI01
aI00
aI00
aI00
aI01
aI01
aI00
aI01
aI01
aI01
aI01
aI00
aI01
aI00
aI00
aI00
aI01
aI00
aI00
aI01
aI00
aI00
aI01
aI01
aI01
aI01
asS'is_u_intended_equals_um'
p44
(lp45
I01
aI01
aI01
aI01
aI01
aI01
aI01
aI01
aI01
aI01
aI01
aI01
aI00
aI01
aI01
aI01
aI01
aI00
aI01
aI01
aI01
aI01
aI01
aI01
aI01
aI01
aI01
aI01
aI01
aI01
aI01
aI01
asS'total_steps'
p46
I32
sS'normalized_h_of_p_ui_given_um'
p47
(lp48
cnumpy.core.multiarray
scalar
p49
(cnumpy
dtype
p50
(S'f8'
p51
I0
I1
tp52
Rp53
(I3
S'<'
p54
NNNI-1
I-1
I0
tp55
bS"J\xd9\xa77;'\xd9?"
p56
tp57
Rp58
ag49
(g53
S'\x88x\x87\x94\xa9\x9e\xe2?'
p59
tp60
Rp61
ag49
(g53
S"J\xd9\xa77;'\xd9?"
p62
tp63
Rp64
ag49
(g53
S'\xb5\x83\xce\xdbY\xa1\xe3?'
p65
tp66
Rp67
ag49
(g53
S'\x88x\x87\x94\xa9\x9e\xe2?'
p68
tp69
Rp70
ag49
(g53
S'\x82\xc5\xbfa%\x91\xdd?'
p71
tp72
Rp73
ag49
(g53
S"J\xd9\xa77;'\xd9?"
p74
tp75
Rp76
ag49
(g53
S'|e.\x0eT?\xed?'
p77
tp78
Rp79
ag49
(g53
S')\x0c,m\xac\xf0\xeb?'
p80
tp81
Rp82
ag49
(g53
S'\x82\xc5\xbfa%\x91\xdd?'
p83
tp84
Rp85
ag49
(g53
S"J\xd9\xa77;'\xd9?"
p86
tp87
Rp88
ag49
(g53
S'\xd7\xa7w\xed\x0f)\xde?'
p89
tp90
Rp91
ag49
(g53
S'\x88FD\x10a\xc7\xe7?'
p92
tp93
Rp94
ag49
(g53
S"J\xd9\xa77;'\xd9?"
p95
tp96
Rp97
ag49
(g53
S'\xd7\xa7w\xed\x0f)\xde?'
p98
tp99
Rp100
ag49
(g53
S"J\xd9\xa77;'\xd9?"
p101
tp102
Rp103
ag49
(g53
S'\xd7\xa7w\xed\x0f)\xde?'
p104
tp105
Rp106
ag49
(g53
S'\x88FD\x10a\xc7\xe7?'
p107
tp108
Rp109
ag49
(g53
S"J\xd9\xa77;'\xd9?"
p110
tp111
Rp112
ag49
(g53
S'|e.\x0eT?\xed?'
p113
tp114
Rp115
ag49
(g53
S'\x85\xe5\xaac\x8a`\xea?'
p116
tp117
Rp118
ag49
(g53
S')\x0c,m\xac\xf0\xeb?'
p119
tp120
Rp121
ag49
(g53
S"J\xd9\xa77;'\xd9?"
p122
tp123
Rp124
ag49
(g53
S'|e.\x0eT?\xed?'
p125
tp126
Rp127
ag49
(g53
S'\xed\xd1E\x1a\x88\xc8\xe4?'
p128
tp129
Rp130
ag49
(g53
S'\r\x8c\x9c%\x0f\xb7\xcf?'
p131
tp132
Rp133
ag49
(g53
S'\xb5\x83\xce\xdbY\xa1\xe3?'
p134
tp135
Rp136
ag49
(g53
S')\x0c,m\xac\xf0\xeb?'
p137
tp138
Rp139
ag49
(g53
S"J\xd9\xa77;'\xd9?"
p140
tp141
Rp142
ag49
(g53
S'\xd7\xa7w\xed\x0f)\xde?'
p143
tp144
Rp145
ag49
(g53
S"J\xd9\xa77;'\xd9?"
p146
tp147
Rp148
ag49
(g53
S'\xd7\xa7w\xed\x0f)\xde?'
p149
tp150
Rp151
asS'sp'
p152
(lp153
(S'p0'
p154
I0
S'x'
p155
tp156
a(g154
I0
S'y'
p157
tp158
ag156
a(g154
I0
g155
tp159
ag158
a(g154
I0
g157
tp160
ag156
a(g154
I0
S't'
p161
tp162
a(g154
I0
g157
tp163
ag160
ag156
a(S'p1'
p164
I0
g155
tp165
a(g164
I0
g155
tp166
a(g164
I0
g161
tp167
a(g164
F1.5707963267948966
g161
tp168
a(g164
F1.5707963267948966
g157
tp169
a(S'p2'
p170
F1.5707963267948966
g157
tp171
a(g170
F1.5707963267948966
g157
tp172
a(g170
F1.5707963267948966
g155
tp173
a(g170
F1.5707963267948966
g161
tp174
a(g170
F1.5707963267948966
g161
tp175
a(g170
F1.5707963267948966
g157
tp176
ag173
ag174
a(g170
F1.5707963267948966
g161
tp177
a(g170
F1.5707963267948966
g155
tp178
a(g164
F1.5707963267948966
g155
tp179
a(g164
F1.5707963267948966
g161
tp180
ag169
ag171
ag173
a(S'p3'
p181
F1.5707963267948966
g155
tp182
asS's'
p183
(lp184
(g154
I0
g22
tp185
ag156
ag158
ag156
ag159
ag158
ag160
ag156
ag162
ag163
ag160
ag156
ag165
ag166
ag167
ag168
ag169
ag171
ag172
ag173
ag174
ag175
ag176
ag173
ag174
ag177
ag178
ag179
ag180
ag169
ag171
ag173
asS'ui'
p186
(lp187
S'hs'
p188
aS'hp'
p189
ag188
ag152
ag188
ag152
ag188
ag188
aS'ss'
p190
ag190
ag188
ag152
ag188
ag188
ag152
ag188
ag190
ag188
ag188
ag190
ag152
ag152
ag188
ag190
ag190
ag190
ag190
ag189
ag190
ag152
ag190
ag152
asS'um_before'
p191
(lp192
g188
ag189
ag188
ag190
ag189
ag190
ag188
ag188
ag188
ag190
ag188
ag152
ag152
ag188
ag152
ag188
ag152
ag152
ag188
ag188
ag152
ag188
ag188
ag188
ag190
ag189
ag190
ag188
ag188
ag152
ag188
ag152
asS'um_after'
p193
(lp194
g188
ag189
ag188
ag190
ag189
ag190
ag188
ag188
ag188
ag190
ag188
ag152
ag152
ag188
ag152
ag188
ag152
ag152
ag188
ag188
ag152
ag188
ag188
ag188
ag190
ag189
ag190
ag188
ag188
ag152
ag188
ag152
asS'is_normalized_entropy_less_than_threshold'
p195
(lp196
g49
(g50
(S'b1'
p197
I0
I1
tp198
Rp199
(I3
S'|'
p200
NNNI-1
I-1
I0
tp201
bS'\x01'
p202
tp203
Rp204
ag49
(g199
S'\x00'
p205
tp206
Rp207
ag204
ag207
ag207
ag204
ag204
ag207
ag207
ag204
ag204
ag204
ag207
ag204
ag204
ag204
ag204
ag207
ag204
ag207
ag207
ag207
ag204
ag207
ag207
ag204
ag207
ag207
ag204
ag204
ag204
ag204
asaa(lp208
S'index'
p209
aI12553
aatp210
Rp211
.