ccollections
OrderedDict
p0
((lp1
(lp2
S'combination_dict'
p3
ag0
((lp4
(lp5
S'r_to_g_config'
p6
aS'tr'
p7
aa(lp8
S'num_turns'
p9
aI3
aa(lp10
S'start_direction'
p11
acutils_ms
StartDirection
p12
(I1
tp13
Rp14
aa(lp15
S'assistance_type'
p16
acutils_ms
AssistanceType
p17
(I0
tp18
Rp19
aa(lp20
S'start_mode'
p21
aS't'
p22
aa(lp23
S'ui_given_a_noise'
p24
aF0.5
aa(lp25
S'um_given_ui_noise'
p26
aF0.7
aa(lp27
S'entropy_threshold'
p28
aF0.9
aatp29
Rp30
aa(lp31
S'data'
p32
accollections
defaultdict
p33
(c__builtin__
list
p34
tp35
Rp36
S'a'
p37
(lp38
S'mode_l'
p39
ag39
ag39
ag39
ag39
ag39
aS'move_p'
p40
ag40
ag40
ag40
ag39
ag40
ag40
ag39
ag39
ag40
ag39
ag39
ag40
ag40
ag39
ag40
asS'assistance_match_with_ground_truth'
p41
(lp42
I00
aI00
aI00
aI00
aI00
aI01
aI00
aI00
aI00
aI01
aI01
aI00
aI01
aI00
aI01
aI01
aI00
aI01
aI00
aI01
aI01
aI01
asS'is_u_intended_equals_um'
p43
(lp44
I01
aI00
aI00
aI00
aI00
aI01
aI00
aI00
aI00
aI01
aI01
aI00
aI01
aI01
aI01
aI01
aI01
aI01
aI00
aI01
aI01
aI01
asS'total_steps'
p45
I22
sS'normalized_h_of_p_ui_given_um'
p46
(lp47
cnumpy.core.multiarray
scalar
p48
(cnumpy
dtype
p49
(S'f8'
p50
I0
I1
tp51
Rp52
(I3
S'<'
p53
NNNI-1
I-1
I0
tp54
bS'\x06/Ru\xca\xda\xe5?'
p55
tp56
Rp57
ag48
(g52
S'\xcdK\\\x18?\xa8\xe7?'
p58
tp59
Rp60
ag48
(g52
S'\xcdK\\\x18?\xa8\xe7?'
p61
tp62
Rp63
ag48
(g52
S'\xcdK\\\x18?\xa8\xe7?'
p64
tp65
Rp66
ag48
(g52
S'\xcdK\\\x18?\xa8\xe7?'
p67
tp68
Rp69
ag48
(g52
S'\xdb\xa3\xdc\xb0\x95\x88\xd4?'
p70
tp71
Rp72
ag48
(g52
S'\x14\xcbm<i\x8c\xdf?'
p73
tp74
Rp75
ag48
(g52
S'\x14\xcbm<i\x8c\xdf?'
p76
tp77
Rp78
ag48
(g52
S'\n\x1c\x94\x84\x96&\xec?'
p79
tp80
Rp81
ag48
(g52
S'O\x19\xbfl"\xfb\xc8?'
p82
tp83
Rp84
ag48
(g52
S'\xdb\xa3\xdc\xb0\x95\x88\xd4?'
p85
tp86
Rp87
ag48
(g52
S'X3\xb5\xf5\xb4\xb9\xe5?'
p88
tp89
Rp90
ag48
(g52
S'O\x19\xbfl"\xfb\xc8?'
p91
tp92
Rp93
ag48
(g52
S'\x06/Ru\xca\xda\xe5?'
p94
tp95
Rp96
ag48
(g52
S'\xdb\xa3\xdc\xb0\x95\x88\xd4?'
p97
tp98
Rp99
ag48
(g52
S'O\x19\xbfl"\xfb\xc8?'
p100
tp101
Rp102
ag48
(g52
S'\x06/Ru\xca\xda\xe5?'
p103
tp104
Rp105
ag48
(g52
S'\xdb\xa3\xdc\xb0\x95\x88\xd4?'
p106
tp107
Rp108
ag48
(g52
S'\x14\xcbm<i\x8c\xdf?'
p109
tp110
Rp111
ag48
(g52
S'O\x19\xbfl"\xfb\xc8?'
p112
tp113
Rp114
ag48
(g52
S'\xdb\xa3\xdc\xb0\x95\x88\xd4?'
p115
tp116
Rp117
ag48
(g52
S'O\x19\xbfl"\xfb\xc8?'
p118
tp119
Rp120
asS'sp'
p121
(lp122
(S'p0'
p123
I0
S't'
p124
tp125
ag125
ag125
ag125
ag125
a(g123
I0
S'y'
p126
tp127
ag127
ag127
ag127
a(S'p1'
p128
I0
g126
tp129
a(g128
I0
S'x'
p130
tp131
ag131
a(S'p2'
p132
I0
g130
tp133
a(g132
I0
g130
tp134
a(g132
I0
g124
tp135
a(g132
F1.5707963267948966
g124
tp136
a(g132
F1.5707963267948966
g124
tp137
a(g132
F1.5707963267948966
g126
tp138
ag138
a(S'p3'
p139
F1.5707963267948966
g126
tp140
a(g139
F1.5707963267948966
g130
tp141
a(S'p4'
p142
F1.5707963267948966
g130
tp143
asS's'
p144
(lp145
(g123
I0
g22
tp146
ag125
ag125
ag125
ag125
ag125
ag127
ag127
ag127
ag127
ag129
ag131
ag131
ag133
ag134
ag135
ag136
ag137
ag138
ag138
ag140
ag141
asS'ui'
p147
(lp148
S'hs'
p149
aS'hp'
p150
ag121
ag149
ag149
ag149
ag121
ag121
ag121
ag121
ag149
ag121
ag121
ag121
ag149
ag121
ag121
ag149
ag121
ag121
ag121
ag121
asS'um_before'
p151
(lp152
g121
ag150
ag150
ag150
ag150
ag149
ag150
ag150
aS'ss'
p153
ag121
ag149
ag149
ag121
ag121
ag149
ag121
ag121
ag149
ag150
ag121
ag149
ag121
asS'um_after'
p154
(lp155
g121
aNaNaNaNag149
aNaNaNag121
ag149
aNag121
ag121
ag149
ag121
ag121
ag149
aNag121
ag149
ag121
asS'is_normalized_entropy_less_than_threshold'
p156
(lp157
g48
(g49
(S'b1'
p158
I0
I1
tp159
Rp160
(I3
S'|'
p161
NNNI-1
I-1
I0
tp162
bS'\x01'
p163
tp164
Rp165
ag165
ag165
ag165
ag165
ag165
ag165
ag165
ag165
ag165
ag165
ag165
ag165
ag165
ag165
ag165
ag165
ag165
ag165
ag165
ag165
ag165
asaa(lp166
S'index'
p167
aI25393
aatp168
Rp169
.