ccollections
OrderedDict
p0
((lp1
(lp2
S'combination_dict'
p3
ag0
((lp4
(lp5
S'r_to_g_config'
p6
aS'tr'
p7
aa(lp8
S'num_turns'
p9
aI3
aa(lp10
S'start_direction'
p11
acutils_ms
StartDirection
p12
(I0
tp13
Rp14
aa(lp15
S'assistance_type'
p16
acutils_ms
AssistanceType
p17
(I0
tp18
Rp19
aa(lp20
S'start_mode'
p21
aS't'
p22
aa(lp23
S'ui_given_a_noise'
p24
aF0.7
aa(lp25
S'um_given_ui_noise'
p26
aF0.7
aa(lp27
S'entropy_threshold'
p28
aF0.7
aatp29
Rp30
aa(lp31
S'data'
p32
accollections
defaultdict
p33
(c__builtin__
list
p34
tp35
Rp36
S'a'
p37
(lp38
S'mode_r'
p39
ag39
aS'mode_l'
p40
aS'move_p'
p41
ag39
ag39
ag39
ag40
ag41
ag41
ag39
ag39
ag39
ag40
ag40
ag40
ag41
ag40
ag39
ag39
ag40
ag40
ag41
ag39
ag41
ag40
ag39
ag41
ag39
ag41
ag40
ag41
ag40
ag40
ag41
ag40
ag40
ag40
ag41
ag40
ag41
ag39
ag41
ag39
ag39
ag39
ag39
ag39
ag39
ag41
asS'assistance_match_with_ground_truth'
p42
(lp43
I00
aI00
aI01
aI00
aI00
aI00
aI00
aI01
aI00
aI00
aI00
aI00
aI00
aI00
aI00
aI01
aI00
aI00
aI00
aI00
aI00
aI01
aI01
aI01
aI00
aI00
aI01
aI00
aI01
aI01
aI01
aI00
aI00
aI01
aI01
aI00
aI00
aI01
aI01
aI01
aI00
aI01
aI00
aI00
aI00
aI00
aI00
aI00
aI01
aI01
asS'is_u_intended_equals_um'
p44
(lp45
I01
aI01
aI01
aI00
aI01
aI01
aI01
aI01
aI01
aI00
aI01
aI01
aI01
aI01
aI01
aI01
aI00
aI00
aI01
aI01
aI01
aI01
aI01
aI01
aI00
aI00
aI01
aI00
aI01
aI01
aI01
aI00
aI01
aI01
aI01
aI01
aI01
aI01
aI01
aI01
aI00
aI01
aI00
aI01
aI01
aI01
aI00
aI01
aI01
aI01
asS'total_steps'
p46
I50
sS'normalized_h_of_p_ui_given_um'
p47
(lp48
cnumpy.core.multiarray
scalar
p49
(cnumpy
dtype
p50
(S'f8'
p51
I0
I1
tp52
Rp53
(I3
S'<'
p54
NNNI-1
I-1
I0
tp55
bS'F?Y\x88\xd6\xcd\xeb?'
p56
tp57
Rp58
ag49
(g53
S'9\xddt\xa3 -\xeb?'
p59
tp60
Rp61
ag49
(g53
S'~\x81\xbe\xb1a\xd8\xe5?'
p62
tp63
Rp64
ag49
(g53
S'\x97\x9f\x01\t\xc8\x80\xe9?'
p65
tp66
Rp67
ag49
(g53
S'F?Y\x88\xd6\xcd\xeb?'
p68
tp69
Rp70
ag49
(g53
S'F?Y\x88\xd6\xcd\xeb?'
p71
tp72
Rp73
ag49
(g53
S'9\xddt\xa3 -\xeb?'
p74
tp75
Rp76
ag49
(g53
S'~\x81\xbe\xb1a\xd8\xe5?'
p77
tp78
Rp79
ag49
(g53
S'\r\xdd\xb8\xa0\r%\xd4?'
p80
tp81
Rp82
ag49
(g53
S'\x97\x9f\x01\t\xc8\x80\xe9?'
p83
tp84
Rp85
ag49
(g53
S'F?Y\x88\xd6\xcd\xeb?'
p86
tp87
Rp88
ag49
(g53
S'F?Y\x88\xd6\xcd\xeb?'
p89
tp90
Rp91
ag49
(g53
S'9\xddt\xa3 -\xeb?'
p92
tp93
Rp94
ag49
(g53
S'\x80\x8b+m\xde\x18\xe9?'
p95
tp96
Rp97
ag49
(g53
S'\x80\x8b+m\xde\x18\xe9?'
p98
tp99
Rp100
ag49
(g53
S'~\x81\xbe\xb1a\xd8\xe5?'
p101
tp102
Rp103
ag49
(g53
S'S\x1d\xfc`.{\xe7?'
p104
tp105
Rp106
ag49
(g53
S'\xbc\xf0\x9f\xc1\x8e\x82\xee?'
p107
tp108
Rp109
ag49
(g53
S'F?Y\x88\xd6\xcd\xeb?'
p110
tp111
Rp112
ag49
(g53
S'9\xddt\xa3 -\xeb?'
p113
tp114
Rp115
ag49
(g53
S'\x80\x8b+m\xde\x18\xe9?'
p116
tp117
Rp118
ag49
(g53
S'~\x81\xbe\xb1a\xd8\xe5?'
p119
tp120
Rp121
ag49
(g53
S'\xaa\xe6|6Q\x87\xe3?'
p122
tp123
Rp124
ag49
(g53
S'\xaa\x07\x81\xba\xa57\xe6?'
p125
tp126
Rp127
ag49
(g53
S'S\x1d\xfc`.{\xe7?'
p128
tp129
Rp130
ag49
(g53
S'\xbc\xf0\x9f\xc1\x8e\x82\xee?'
p131
tp132
Rp133
ag49
(g53
S'\xaa\x07\x81\xba\xa57\xe6?'
p134
tp135
Rp136
ag49
(g53
S'\x97\x9f\x01\t\xc8\x80\xe9?'
p137
tp138
Rp139
ag49
(g53
S'\xaa\x07\x81\xba\xa57\xe6?'
p140
tp141
Rp142
ag49
(g53
S'\xaa\xe6|6Q\x87\xe3?'
p143
tp144
Rp145
ag49
(g53
S'~\x81\xbe\xb1a\xd8\xe5?'
p146
tp147
Rp148
ag49
(g53
S'S\x1d\xfc`.{\xe7?'
p149
tp150
Rp151
ag49
(g53
S'B\x04\x1fi\x05\xae\xe9?'
p152
tp153
Rp154
ag49
(g53
S'~\x81\xbe\xb1a\xd8\xe5?'
p155
tp156
Rp157
ag49
(g53
S'\xaa\xe6|6Q\x87\xe3?'
p158
tp159
Rp160
ag49
(g53
S'B\x04\x1fi\x05\xae\xe9?'
p161
tp162
Rp163
ag49
(g53
S'\x80\x8b+m\xde\x18\xe9?'
p164
tp165
Rp166
ag49
(g53
S'~\x81\xbe\xb1a\xd8\xe5?'
p167
tp168
Rp169
ag49
(g53
S'\xaa\xe6|6Q\x87\xe3?'
p170
tp171
Rp172
ag49
(g53
S'~\x81\xbe\xb1a\xd8\xe5?'
p173
tp174
Rp175
ag49
(g53
S'\x97\x9f\x01\t\xc8\x80\xe9?'
p176
tp177
Rp178
ag49
(g53
S'\xaa\x07\x81\xba\xa57\xe6?'
p179
tp180
Rp181
ag49
(g53
S'\x97\x9f\x01\t\xc8\x80\xe9?'
p182
tp183
Rp184
ag49
(g53
S'F?Y\x88\xd6\xcd\xeb?'
p185
tp186
Rp187
ag49
(g53
S'F?Y\x88\xd6\xcd\xeb?'
p188
tp189
Rp190
ag49
(g53
S'F?Y\x88\xd6\xcd\xeb?'
p191
tp192
Rp193
ag49
(g53
S'c\xc9\xf6\x95\x7f\x82\xe5?'
p194
tp195
Rp196
ag49
(g53
S'F?Y\x88\xd6\xcd\xeb?'
p197
tp198
Rp199
ag49
(g53
S'\xaa\x07\x81\xba\xa57\xe6?'
p200
tp201
Rp202
ag49
(g53
S'\xaa\xe6|6Q\x87\xe3?'
p203
tp204
Rp205
asS'sp'
p206
(lp207
(S'p0'
p208
I0
S't'
p209
tp210
a(g208
I0
S'y'
p211
tp212
a(g208
I0
S'x'
p213
tp214
a(g208
I0
g209
tp215
ag210
ag210
ag212
ag214
a(g208
I0
g213
tp216
ag215
ag210
ag210
ag212
a(g208
I0
g211
tp217
ag217
ag214
a(g208
I0
g211
tp218
a(g208
I0
g209
tp219
ag210
ag212
ag217
ag214
a(S'p1'
p220
I0
g213
tp221
a(g220
I0
g211
tp222
a(g220
I0
g209
tp223
a(g220
I0
g213
tp224
ag222
a(g220
I0
g213
tp225
ag222
a(S'p2'
p226
I0
g211
tp227
a(g226
I0
g213
tp228
a(g226
I0
g211
tp229
a(g226
I0
g211
tp230
ag228
a(S'p3'
p231
I0
g213
tp232
a(g231
I0
g213
tp233
a(g231
I0
g213
tp234
a(g231
I0
g209
tp235
a(g231
F1.5707963267948966
g209
tp236
a(g231
F1.5707963267948966
g211
tp237
a(g231
F1.5707963267948966
g213
tp238
a(g231
F1.5707963267948966
g211
tp239
ag238
a(g231
F1.5707963267948966
g213
tp240
ag240
ag240
ag240
ag240
ag239
a(S'p4'
p241
F1.5707963267948966
g211
tp242
asS's'
p243
(lp244
(g208
I0
g22
tp245
ag210
ag212
ag214
ag215
ag210
ag210
ag212
ag214
ag216
ag215
ag210
ag210
ag212
ag217
ag217
ag214
ag218
ag219
ag210
ag212
ag217
ag214
ag221
ag222
ag223
ag224
ag222
ag225
ag222
ag227
ag228
ag229
ag230
ag228
ag232
ag233
ag234
ag235
ag236
ag237
ag238
ag239
ag238
ag240
ag240
ag240
ag240
ag240
ag239
asS'ui'
p246
(lp247
S'hp'
p248
ag248
aS'hs'
p249
ag206
ag206
ag248
ag206
ag249
aS'ss'
p250
ag250
ag249
ag206
ag248
ag206
ag206
ag249
ag248
ag249
ag206
ag206
ag248
ag249
ag206
ag248
ag206
ag250
ag206
ag250
ag206
ag206
ag249
ag249
ag248
ag206
ag206
ag206
ag250
ag250
ag249
ag206
ag206
ag248
ag249
ag250
ag206
ag248
ag248
ag249
ag248
ag206
asS'um_before'
p251
(lp252
g206
ag249
ag249
ag249
ag206
ag206
ag249
ag249
ag250
ag249
ag206
ag206
ag249
ag206
ag206
ag249
ag248
ag248
ag206
ag249
ag206
ag249
ag206
ag248
ag248
ag248
ag248
ag249
ag248
ag206
ag249
ag248
ag250
ag249
ag206
ag250
ag206
ag249
ag206
ag249
ag249
ag248
ag249
ag206
ag206
ag206
ag250
ag206
ag248
ag206
asS'um_after'
p253
(lp254
g206
ag249
ag249
ag249
ag206
ag206
ag249
ag249
ag250
ag249
ag206
ag206
ag249
ag206
ag206
ag249
ag248
ag248
ag206
ag249
ag206
ag249
ag206
ag248
ag248
ag248
ag248
ag249
ag248
ag206
ag249
ag248
ag250
ag249
ag206
ag250
ag206
ag249
ag206
ag249
ag249
ag248
ag249
ag206
ag206
ag206
aNag206
ag248
ag206
asS'is_normalized_entropy_less_than_threshold'
p255
(lp256
g49
(g50
(S'b1'
p257
I0
I1
tp258
Rp259
(I3
S'|'
p260
NNNI-1
I-1
I0
tp261
bS'\x00'
p262
tp263
Rp264
ag264
ag49
(g259
S'\x01'
p265
tp266
Rp267
ag264
ag264
ag264
ag264
ag267
ag267
ag264
ag264
ag264
ag264
ag264
ag264
ag267
ag264
ag264
ag264
ag264
ag264
ag267
ag267
ag267
ag264
ag264
ag267
ag264
ag267
ag267
ag267
ag264
ag264
ag267
ag267
ag264
ag264
ag267
ag267
ag267
ag264
ag267
ag264
ag264
ag264
ag264
ag267
ag264
ag267
ag267
asaa(lp268
S'index'
p269
aI19974
aatp270
Rp271
.