ccollections
OrderedDict
p0
((lp1
(lp2
S'combination_dict'
p3
ag0
((lp4
(lp5
S'r_to_g_config'
p6
aS'tl'
p7
aa(lp8
S'num_turns'
p9
aI3
aa(lp10
S'start_direction'
p11
acutils_ms
StartDirection
p12
(I0
tp13
Rp14
aa(lp15
S'assistance_type'
p16
acutils_ms
AssistanceType
p17
(I0
tp18
Rp19
aa(lp20
S'start_mode'
p21
aS'y'
p22
aa(lp23
S'ui_given_a_noise'
p24
aF0.1
aa(lp25
S'um_given_ui_noise'
p26
aF0.3
aa(lp27
S'entropy_threshold'
p28
aF0.6
aatp29
Rp30
aa(lp31
S'data'
p32
accollections
defaultdict
p33
(c__builtin__
list
p34
tp35
Rp36
S'a'
p37
(lp38
S'mode_l'
p39
aS'move_n'
p40
ag40
ag40
ag40
aS'mode_r'
p41
ag39
aS'move_p'
p42
ag41
ag42
ag42
ag41
ag40
ag40
ag41
ag39
ag39
ag42
ag42
asS'assistance_match_with_ground_truth'
p43
(lp44
I01
aI00
aI00
aI00
aI01
aI00
aI01
aI01
aI01
aI00
aI01
aI01
aI00
aI01
aI00
aI00
aI01
aI00
aI01
asS'is_u_intended_equals_um'
p45
(lp46
I01
aI00
aI00
aI00
aI01
aI01
aI01
aI01
aI01
aI00
aI01
aI01
aI00
aI01
aI01
aI00
aI01
aI00
aI01
asS'total_steps'
p47
I19
sS'normalized_h_of_p_ui_given_um'
p48
(lp49
cnumpy.core.multiarray
scalar
p50
(cnumpy
dtype
p51
(S'f8'
p52
I0
I1
tp53
Rp54
(I3
S'<'
p55
NNNI-1
I-1
I0
tp56
bS'TQ\x95\xdaot\xa5?'
p57
tp58
Rp59
ag50
(g54
S'\x8a\xb4N+\x84\xe4\xd8?'
p60
tp61
Rp62
ag50
(g54
S'\xa3!\x06\x13jV\xe0?'
p63
tp64
Rp65
ag50
(g54
S'\x8a\xb4N+\x84\xe4\xd8?'
p66
tp67
Rp68
ag50
(g54
S'\x11\xd9\xa7Cw\x07\xc4?'
p69
tp70
Rp71
ag50
(g54
S'*%>\x8b\n\xd8\xe4?'
p72
tp73
Rp74
ag50
(g54
S'TQ\x95\xdaot\xa5?'
p75
tp76
Rp77
ag50
(g54
S'u.\xe3;\xb5r\xb2?'
p78
tp79
Rp80
ag50
(g54
S'|d\xf5/Y|\xbc?'
p81
tp82
Rp83
ag50
(g54
S'\x0eah\t\xc2\x0e\xe0?'
p84
tp85
Rp86
ag50
(g54
S'u.\xe3;\xb5r\xb2?'
p87
tp88
Rp89
ag50
(g54
S'|d\xf5/Y|\xbc?'
p90
tp91
Rp92
ag50
(g54
S'\xa3!\x06\x13jV\xe0?'
p93
tp94
Rp95
ag50
(g54
S'\x11\xd9\xa7Cw\x07\xc4?'
p96
tp97
Rp98
ag50
(g54
S'*%>\x8b\n\xd8\xe4?'
p99
tp100
Rp101
ag50
(g54
S'\xb2\x92\x8a\xf8\tC\xe5?'
p102
tp103
Rp104
ag50
(g54
S'TQ\x95\xdaot\xa5?'
p105
tp106
Rp107
ag50
(g54
S'\x0eah\t\xc2\x0e\xe0?'
p108
tp109
Rp110
ag50
(g54
S'u.\xe3;\xb5r\xb2?'
p111
tp112
Rp113
asS'sp'
p114
(lp115
(S'p0'
p116
I0
S'x'
p117
tp118
ag118
ag118
ag118
a(S'p1'
p119
I0
g117
tp120
a(g119
I0
S't'
p121
tp122
a(g119
I0
S'y'
p123
tp124
a(S'p2'
p125
I0
g123
tp126
a(g125
I0
g121
tp127
ag127
a(g125
F1.5707963267948966
g121
tp128
a(g125
F1.5707963267948966
g117
tp129
ag129
a(S'p3'
p130
F1.5707963267948966
g117
tp131
a(g130
F1.5707963267948966
g121
tp132
a(g130
F1.5707963267948966
g121
tp133
a(g130
F1.5707963267948966
g123
tp134
ag134
a(S'p4'
p135
F1.5707963267948966
g123
tp136
asS's'
p137
(lp138
(g116
I0
g22
tp139
ag118
ag118
ag118
ag118
ag120
ag122
ag124
ag126
ag127
ag127
ag128
ag129
ag129
ag131
ag132
ag133
ag134
ag134
asS'ui'
p140
(lp141
S'hs'
p142
ag114
aS'hp'
p143
aS'ss'
p144
ag144
ag142
ag142
ag114
ag143
ag114
ag114
ag143
ag144
ag144
ag142
ag142
ag142
ag114
ag114
asS'um_before'
p145
(lp146
g142
ag114
ag143
ag114
ag144
ag142
ag142
ag114
ag143
ag144
ag114
ag143
ag143
ag144
ag142
ag144
ag142
ag144
ag114
asS'um_after'
p147
(lp148
g142
aNaNaNag144
ag142
ag142
ag114
ag143
aNag114
ag143
aNag144
ag142
ag144
ag142
aNag114
asS'is_normalized_entropy_less_than_threshold'
p149
(lp150
g50
(g51
(S'b1'
p151
I0
I1
tp152
Rp153
(I3
S'|'
p154
NNNI-1
I-1
I0
tp155
bS'\x01'
p156
tp157
Rp158
ag158
ag158
ag158
ag158
ag50
(g153
S'\x00'
p159
tp160
Rp161
ag158
ag158
ag158
ag158
ag158
ag158
ag158
ag158
ag161
ag161
ag158
ag158
ag158
asaa(lp162
S'index'
p163
aI48867
aatp164
Rp165
.