ccollections
OrderedDict
p0
((lp1
(lp2
S'combination_dict'
p3
ag0
((lp4
(lp5
S'r_to_g_config'
p6
aS'tl'
p7
aa(lp8
S'num_turns'
p9
aI2
aa(lp10
S'start_direction'
p11
acutils_ms
StartDirection
p12
(I1
tp13
Rp14
aa(lp15
S'assistance_type'
p16
acutils_ms
AssistanceType
p17
(I0
tp18
Rp19
aa(lp20
S'start_mode'
p21
aS'x'
p22
aa(lp23
S'ui_given_a_noise'
p24
aF0.3
aa(lp25
S'um_given_ui_noise'
p26
aF0.1
aa(lp27
S'entropy_threshold'
p28
aF0.6
aatp29
Rp30
aa(lp31
S'data'
p32
accollections
defaultdict
p33
(c__builtin__
list
p34
tp35
Rp36
S'a'
p37
(lp38
S'mode_r'
p39
aS'move_p'
p40
ag39
ag39
ag40
aS'mode_l'
p41
ag40
ag39
aS'move_n'
p42
ag39
ag40
ag41
ag39
ag40
ag39
ag40
ag41
ag40
asS'assistance_match_with_ground_truth'
p43
(lp44
I01
aI01
aI00
aI01
aI00
aI01
aI01
aI01
aI01
aI01
aI00
aI00
aI01
aI00
aI01
aI00
aI01
aI01
asS'is_u_intended_equals_um'
p45
(lp46
I01
aI01
aI01
aI01
aI01
aI01
aI01
aI01
aI01
aI01
aI01
aI01
aI01
aI01
aI01
aI01
aI01
aI01
asS'total_steps'
p47
I18
sS'normalized_h_of_p_ui_given_um'
p48
(lp49
cnumpy.core.multiarray
scalar
p50
(cnumpy
dtype
p51
(S'f8'
p52
I0
I1
tp53
Rp54
(I3
S'<'
p55
NNNI-1
I-1
I0
tp56
bS'\x17\x9fl\x07H\xae\xb2?'
p57
tp58
Rp59
ag50
(g54
S'82\xfc\xbe\xaf\x8c\xbd?'
p60
tp61
Rp62
ag50
(g54
S'8b\xbb\x06\xd8\xa3\xda?'
p63
tp64
Rp65
ag50
(g54
S'\x17\x9fl\x07H\xae\xb2?'
p66
tp67
Rp68
ag50
(g54
S'6\xa4\x07aA{\xde?'
p69
tp70
Rp71
ag50
(g54
S'JI\xe7W\x9e\xa7\xb0?'
p72
tp73
Rp74
ag50
(g54
S'82\xfc\xbe\xaf\x8c\xbd?'
p75
tp76
Rp77
ag50
(g54
S'\x17\x9fl\x07H\xae\xb2?'
p78
tp79
Rp80
ag50
(g54
S',\x0e\xce\xba\x0c\xf0\x9e?'
p81
tp82
Rp83
ag50
(g54
S'\x17\x9fl\x07H\xae\xb2?'
p84
tp85
Rp86
ag50
(g54
S'6\xa4\x07aA{\xde?'
p87
tp88
Rp89
ag50
(g54
S'\n\x95\xc6i\x0e\x8c\xe0?'
p90
tp91
Rp92
ag50
(g54
S'\x17\x9fl\x07H\xae\xb2?'
p93
tp94
Rp95
ag50
(g54
S'\x84S\xb3\xfcP\xc9\xe0?'
p96
tp97
Rp98
ag50
(g54
S'\x17\x9fl\x07H\xae\xb2?'
p99
tp100
Rp101
ag50
(g54
S'6\xa4\x07aA{\xde?'
p102
tp103
Rp104
ag50
(g54
S'JI\xe7W\x9e\xa7\xb0?'
p105
tp106
Rp107
ag50
(g54
S'82\xfc\xbe\xaf\x8c\xbd?'
p108
tp109
Rp110
asS'sp'
p111
(lp112
(S'p0'
p113
I0
S'y'
p114
tp115
a(S'p1'
p116
I0
g114
tp117
a(g116
I0
g114
tp118
a(g116
I0
S't'
p119
tp120
a(g116
I0
S'x'
p121
tp122
a(g116
I0
g119
tp123
a(g116
F1.5707963267948966
g119
tp124
a(g116
F1.5707963267948966
g121
tp125
a(S'p2'
p126
F1.5707963267948966
g121
tp127
a(g126
F1.5707963267948966
g114
tp128
a(g126
F1.5707963267948966
g119
tp129
a(g126
F1.5707963267948966
g121
tp130
ag128
a(g126
F1.5707963267948966
g121
tp131
ag128
ag129
a(g126
F1.5707963267948966
g114
tp132
a(S'p3'
p133
F1.5707963267948966
g114
tp134
asS's'
p135
(lp136
(g113
I0
g22
tp137
ag115
ag117
ag118
ag120
ag122
ag123
ag124
ag125
ag127
ag128
ag129
ag130
ag128
ag131
ag128
ag129
ag132
asS'ui'
p138
(lp139
S'hs'
p140
ag111
aS'hp'
p141
ag141
ag141
ag140
ag111
ag141
aS'ss'
p142
ag141
ag141
ag140
ag141
ag140
ag141
ag141
ag140
ag111
asS'um_before'
p143
(lp144
g141
ag111
ag111
ag141
ag141
ag140
ag111
ag141
ag142
ag141
ag141
ag141
ag141
ag140
ag141
ag141
ag140
ag111
asS'um_after'
p145
(lp146
g141
ag111
ag111
ag141
ag141
ag140
ag111
ag141
ag142
ag141
ag141
ag141
ag141
ag140
ag141
ag141
ag140
ag111
asS'is_normalized_entropy_less_than_threshold'
p147
(lp148
g50
(g51
(S'b1'
p149
I0
I1
tp150
Rp151
(I3
S'|'
p152
NNNI-1
I-1
I0
tp153
bS'\x01'
p154
tp155
Rp156
ag156
ag156
ag156
ag156
ag156
ag156
ag156
ag156
ag156
ag156
ag156
ag156
ag156
ag156
ag156
ag156
ag156
asaa(lp157
S'index'
p158
aI43411
aatp159
Rp160
.