ccollections
OrderedDict
p0
((lp1
(lp2
S'combination_dict'
p3
ag0
((lp4
(lp5
S'r_to_g_config'
p6
aS'tr'
p7
aa(lp8
S'num_turns'
p9
aI3
aa(lp10
S'start_direction'
p11
acutils_ms
StartDirection
p12
(I0
tp13
Rp14
aa(lp15
S'assistance_type'
p16
acutils_ms
AssistanceType
p17
(I2
tp18
Rp19
aa(lp20
S'start_mode'
p21
aS'y'
p22
aa(lp23
S'ui_given_a_noise'
p24
aF0.5
aa(lp25
S'um_given_ui_noise'
p26
aF0.5
aa(lp27
S'entropy_threshold'
p28
aF0.9
aatp29
Rp30
aa(lp31
S'data'
p32
accollections
defaultdict
p33
(c__builtin__
list
p34
tp35
Rp36
S'a'
p37
(lp38
S'mode_l'
p39
ag39
aS'move_p'
p40
aS'mode_r'
p41
ag41
ag41
ag40
ag39
ag39
ag40
ag41
ag41
ag41
ag41
ag40
ag41
ag40
ag39
ag40
ag40
ag41
ag41
ag40
ag39
ag40
ag39
ag41
ag40
ag40
ag39
ag40
ag41
ag41
ag41
ag40
ag41
ag40
ag41
ag40
ag41
ag39
ag39
ag41
ag40
ag39
ag40
ag41
ag40
ag41
ag40
ag41
ag41
ag41
ag41
ag40
ag39
ag39
ag39
ag40
ag39
ag40
ag41
ag41
ag40
ag39
ag41
ag40
ag41
ag39
ag39
ag41
ag41
ag39
ag39
ag39
ag39
ag41
ag40
ag41
ag39
ag39
ag40
ag41
ag41
ag40
ag39
ag41
ag40
ag39
ag41
ag40
ag39
ag40
ag39
ag40
ag40
ag40
ag41
ag41
ag40
ag41
ag40
ag39
ag40
ag40
ag39
ag40
ag41
ag41
ag40
ag41
ag40
ag41
ag39
ag40
ag41
ag40
ag41
ag39
ag41
ag40
ag39
ag39
ag39
ag40
ag39
ag40
ag39
ag41
ag41
ag40
ag39
ag39
ag41
ag40
ag41
ag40
ag39
ag41
ag40
ag41
ag41
ag40
ag39
ag40
ag39
ag40
ag41
ag40
ag41
ag40
asS'assistance_match_with_ground_truth'
p42
(lp43
I00
aI01
aI01
aI00
aI00
aI01
aI00
aI00
aI01
aI01
aI00
aI00
aI00
aI01
aI01
aI01
aI00
aI01
aI00
aI01
aI00
aI00
aI00
aI01
aI00
aI00
aI01
aI00
aI00
aI01
aI00
aI00
aI00
aI01
aI01
aI01
aI00
aI01
aI00
aI00
aI00
aI00
aI01
aI00
aI01
aI00
aI01
aI00
aI01
aI00
aI00
aI00
aI00
aI01
aI01
aI00
aI00
aI01
aI00
aI01
aI00
aI00
aI01
aI00
aI00
aI01
aI01
aI00
aI00
aI00
aI00
aI00
aI00
aI00
aI00
aI00
aI01
aI00
aI00
aI00
aI01
aI00
aI00
aI01
aI01
aI00
aI01
aI00
aI00
aI00
aI00
aI01
aI00
aI01
aI00
aI00
aI00
aI00
aI01
aI00
aI01
aI00
aI01
aI00
aI00
aI01
aI00
aI00
aI01
aI01
aI01
aI00
aI00
aI01
aI01
aI01
aI00
aI00
aI00
aI01
aI00
aI00
aI00
aI01
aI00
aI01
aI00
aI00
aI00
aI01
aI00
aI00
aI00
aI01
aI01
aI01
aI00
aI00
aI01
aI00
aI00
aI01
aI00
aI01
aI00
aI01
aI01
aI01
aI00
aI01
aI01
asS'is_u_intended_equals_um'
p44
(lp45
I00
aI00
aI00
aI00
aI00
aI00
aI00
aI00
aI00
aI00
aI00
aI00
aI00
aI00
aI00
aI00
aI00
aI00
aI00
aI00
aI00
aI00
aI00
aI00
aI00
aI00
aI00
aI00
aI00
aI00
aI00
aI00
aI00
aI00
aI00
aI00
aI00
aI00
aI00
aI00
aI00
aI00
aI00
aI00
aI00
aI00
aI00
aI00
aI00
aI00
aI00
aI00
aI00
aI00
aI00
aI00
aI00
aI00
aI00
aI00
aI00
aI00
aI00
aI00
aI00
aI00
aI00
aI00
aI00
aI00
aI00
aI00
aI00
aI00
aI00
aI00
aI00
aI00
aI00
aI00
aI00
aI00
aI00
aI00
aI00
aI00
aI00
aI00
aI00
aI00
aI00
aI00
aI00
aI00
aI00
aI00
aI00
aI00
aI00
aI00
aI00
aI00
aI00
aI00
aI00
aI00
aI00
aI00
aI00
aI00
aI00
aI00
aI00
aI00
aI00
aI00
aI00
aI00
aI00
aI00
aI00
aI00
aI00
aI00
aI00
aI00
aI00
aI00
aI00
aI00
aI00
aI00
aI00
aI00
aI00
aI00
aI00
aI00
aI00
aI00
aI00
aI00
aI00
aI00
aI00
aI00
aI00
aI00
aI00
aI00
aI00
asS'total_steps'
p46
I151
sS'normalized_h_of_p_ui_given_um'
p47
(lp48
cnumpy.core.multiarray
scalar
p49
(cnumpy
dtype
p50
(S'f8'
p51
I0
I1
tp52
Rp53
(I3
S'<'
p54
NNNI-1
I-1
I0
tp55
bS'B\x8a\xfd\x06]\x97\xe3?'
p56
tp57
Rp58
ag58
ag58
ag58
ag58
ag58
ag58
ag58
ag58
ag58
ag58
ag58
ag58
ag58
ag58
ag58
ag58
ag58
ag58
ag58
ag58
ag58
ag58
ag58
ag58
ag58
ag58
ag58
ag58
ag58
ag58
ag58
ag58
ag58
ag58
ag58
ag58
ag58
ag58
ag58
ag58
ag58
ag58
ag58
ag58
ag58
ag58
ag58
ag58
ag58
ag58
ag58
ag58
ag58
ag58
ag58
ag58
ag58
ag58
ag58
ag58
ag58
ag58
ag58
ag58
ag58
ag58
ag58
ag58
ag58
ag58
ag58
ag58
ag58
ag58
ag58
ag58
ag58
ag58
ag58
ag58
ag58
ag58
ag58
ag58
ag58
ag58
ag58
ag58
ag58
ag58
ag58
ag58
ag58
ag58
ag58
ag58
ag58
ag58
ag58
ag58
ag58
ag58
ag58
ag58
ag58
ag58
ag58
ag58
ag58
ag58
ag58
ag58
ag58
ag58
ag58
ag58
ag58
ag58
ag58
ag58
ag58
ag58
ag58
ag58
ag58
ag58
ag58
ag58
ag58
ag58
ag58
ag58
ag58
ag58
ag58
ag58
ag58
ag58
ag58
ag58
ag58
ag58
ag58
ag58
ag58
ag58
ag58
ag58
ag58
ag58
asS'sp'
p59
(lp60
(S'p0'
p61
I0
S'y'
p62
tp63
a(g61
I0
S'x'
p64
tp65
a(S'p1'
p66
I0
g64
tp67
a(g66
I0
g64
tp68
ag68
a(g66
I0
g62
tp69
a(g61
I0
g62
tp70
ag63
ag65
ag67
ag68
a(g66
I0
g64
tp71
ag71
ag69
a(S'p2'
p72
I0
g62
tp73
a(g72
I0
S't'
p74
tp75
a(g72
I0
g64
tp76
a(g72
I0
g74
tp77
a(g72
I0
g74
tp78
a(g72
F1.5707963267948966
g74
tp79
a(g72
F1.5707963267948966
g74
tp80
a(g72
I0
g74
tp81
ag76
ag77
ag76
a(g72
I0
g62
tp82
ag75
ag78
ag76
ag77
a(g72
I0
g62
tp83
a(g72
I0
g62
tp84
a(g72
I0
g62
tp85
ag75
ag79
a(g72
F1.5707963267948966
g64
tp86
a(g66
F1.5707963267948966
g64
tp87
a(g66
F1.5707963267948966
g62
tp88
a(g66
F1.5707963267948966
g64
tp89
a(g66
F1.5707963267948966
g74
tp90
a(g66
F1.5707963267948966
g74
tp91
a(g66
F1.5707963267948966
g64
tp92
ag88
a(g66
F1.5707963267948966
g74
tp93
a(g66
F1.5707963267948966
g62
tp94
ag89
ag88
ag89
ag88
ag89
a(g66
F1.5707963267948966
g64
tp95
a(g66
F1.5707963267948966
g64
tp96
ag95
ag88
a(g72
F1.5707963267948966
g62
tp97
a(g72
F1.5707963267948966
g62
tp98
a(g72
F1.5707963267948966
g62
tp99
a(g72
F1.5707963267948966
g64
tp100
a(g72
F1.5707963267948966
g62
tp101
ag100
ag87
ag96
ag88
a(g61
F1.5707963267948966
g62
tp102
a(g61
F1.5707963267948966
g74
tp103
a(g61
F1.5707963267948966
g64
tp104
a(g66
F1.5707963267948966
g64
tp105
ag90
a(g66
F1.5707963267948966
g74
tp106
ag92
ag95
ag90
ag106
ag106
ag106
ag92
ag88
ag89
ag90
ag106
ag94
ag89
ag95
ag88
ag97
a(g72
F1.5707963267948966
g74
tp107
ag86
ag101
ag107
ag81
ag76
ag77
ag76
ag77
ag78
ag78
ag83
ag85
ag75
ag83
ag75
ag76
ag77
ag78
ag76
ag77
ag83
ag84
ag75
ag79
ag86
a(g72
F1.5707963267948966
g74
tp108
a(g72
F1.5707963267948966
g62
tp109
ag100
a(S'p3'
p110
F1.5707963267948966
g64
tp111
a(g110
F1.5707963267948966
g62
tp112
a(g110
F1.5707963267948966
g64
tp113
a(g110
F1.5707963267948966
g74
tp114
a(g110
F1.5707963267948966
g64
tp115
ag112
a(g110
F1.5707963267948966
g74
tp116
a(g110
F1.5707963267948966
g74
tp117
ag117
a(g110
F1.5707963267948966
g62
tp118
a(g72
F1.5707963267948966
g62
tp119
ag100
ag101
ag107
ag80
ag86
ag101
ag99
ag107
ag86
ag111
ag112
ag116
ag115
ag112
ag113
a(g110
F1.5707963267948966
g64
tp120
ag112
ag116
ag118
ag119
ag100
ag111
ag112
ag113
ag112
a(S'p4'
p121
F1.5707963267948966
g62
tp122
asS's'
p123
(lp124
(g61
I0
g22
tp125
ag63
ag65
ag67
ag68
ag68
ag69
ag70
ag63
ag65
ag67
ag68
ag71
ag71
ag69
ag73
ag75
ag76
ag77
ag78
ag79
ag80
ag81
ag76
ag77
ag76
ag82
ag75
ag78
ag76
ag77
ag83
ag84
ag85
ag75
ag79
ag86
ag87
ag88
ag89
ag90
ag91
ag92
ag88
ag93
ag94
ag89
ag88
ag89
ag88
ag89
ag95
ag96
ag95
ag88
ag97
ag98
ag99
ag100
ag101
ag100
ag87
ag96
ag88
ag102
ag103
ag104
ag105
ag90
ag106
ag92
ag95
ag90
ag106
ag106
ag106
ag92
ag88
ag89
ag90
ag106
ag94
ag89
ag95
ag88
ag97
ag107
ag86
ag101
ag107
ag81
ag76
ag77
ag76
ag77
ag78
ag78
ag83
ag85
ag75
ag83
ag75
ag76
ag77
ag78
ag76
ag77
ag83
ag84
ag75
ag79
ag86
ag108
ag109
ag100
ag111
ag112
ag113
ag114
ag115
ag112
ag116
ag117
ag117
ag118
ag119
ag100
ag101
ag107
ag80
ag86
ag101
ag99
ag107
ag86
ag111
ag112
ag116
ag115
ag112
ag113
ag120
ag112
ag116
ag118
ag119
ag100
ag111
ag112
ag113
ag112
asS'ui'
p126
(lp127
S'hs'
p128
ag128
ag59
aS'hp'
p129
aS'ss'
p130
ag129
ag130
ag128
ag128
ag59
ag59
ag59
ag59
ag128
ag128
ag129
ag129
ag128
ag59
ag59
ag128
ag128
ag130
ag128
ag129
ag129
ag129
ag130
ag59
ag128
ag59
ag59
ag130
ag129
ag59
ag129
ag130
ag129
ag130
ag129
ag59
ag59
ag129
ag59
ag128
ag128
ag129
ag59
ag129
ag59
ag128
ag130
ag59
ag129
ag59
ag59
ag59
ag59
ag129
ag128
ag59
ag130
ag129
ag129
ag128
ag129
ag59
ag59
ag128
ag128
ag128
ag130
ag128
ag128
ag129
ag129
ag129
ag128
ag128
ag59
ag128
ag59
ag128
ag129
ag59
ag128
ag129
ag59
ag129
ag130
ag129
ag128
ag130
ag130
ag130
ag59
ag59
ag128
ag129
ag128
ag129
ag59
ag128
ag130
ag129
ag59
ag59
ag59
ag129
ag129
ag129
ag59
ag128
ag128
ag59
ag129
ag130
ag128
ag59
ag129
ag59
ag59
ag128
ag128
ag129
ag128
ag130
ag129
ag59
ag129
ag59
ag128
ag129
ag129
ag59
ag129
ag59
ag129
ag129
ag59
ag128
ag129
ag129
ag128
ag59
ag59
ag59
ag59
ag128
ag129
ag59
asS'um_before'
p131
(lp132
g130
ag128
ag59
ag130
ag130
ag129
ag130
ag130
ag128
ag59
ag130
ag59
ag59
ag129
ag59
ag129
ag129
ag128
ag130
ag59
ag59
ag130
ag129
ag128
ag129
ag129
ag129
ag130
ag129
ag128
ag128
ag59
ag130
ag129
ag59
ag129
ag130
ag129
ag128
ag128
ag130
ag129
ag129
ag129
ag128
ag128
ag129
ag128
ag129
ag128
ag59
ag130
ag59
ag129
ag59
ag130
ag59
ag128
ag129
ag128
ag130
ag130
ag129
ag130
ag129
ag129
ag59
ag128
ag59
ag129
ag59
ag128
ag59
ag59
ag59
ag129
ag129
ag128
ag128
ag59
ag128
ag128
ag59
ag129
ag59
ag129
ag129
ag129
ag129
ag130
ag129
ag128
ag129
ag128
ag130
ag130
ag128
ag130
ag129
ag128
ag129
ag129
ag128
ag130
ag129
ag128
ag128
ag59
ag129
ag59
ag129
ag128
ag128
ag128
ag59
ag129
ag128
ag128
ag129
ag129
ag129
ag59
ag59
ag128
ag130
ag128
ag129
ag129
ag59
ag129
ag129
ag59
ag129
ag129
ag59
ag129
ag129
ag129
ag129
ag128
ag59
ag129
ag129
ag128
ag130
ag128
ag59
ag129
ag128
ag129
ag59
asS'um_after'
p133
(lp134
g130
ag128
ag59
ag130
ag130
ag129
ag130
ag130
ag128
ag59
ag130
ag59
ag59
ag129
ag59
ag129
ag129
ag128
ag130
ag59
ag59
ag130
ag129
ag128
ag129
ag129
ag129
ag130
ag129
ag128
ag128
ag59
ag130
ag129
ag59
ag129
ag130
ag129
ag128
ag128
ag130
ag129
ag129
ag129
ag128
ag128
ag129
ag128
ag129
ag128
ag59
ag130
ag59
ag129
ag59
ag130
ag59
ag128
ag129
ag128
ag130
ag130
ag129
ag130
ag129
ag129
ag59
ag128
ag59
ag129
ag59
ag128
ag59
ag59
ag59
ag129
ag129
ag128
ag128
ag59
ag128
ag128
ag59
ag129
ag59
ag129
ag129
ag129
ag129
ag130
ag129
ag128
ag129
ag128
ag130
ag130
ag128
ag130
ag129
ag128
ag129
ag129
ag128
ag130
ag129
ag128
ag128
ag59
ag129
ag59
ag129
ag128
ag128
ag128
ag59
ag129
ag128
ag128
ag129
ag129
ag129
ag59
ag59
ag128
ag130
ag128
ag129
ag129
ag59
ag129
ag129
ag59
ag129
ag129
ag59
ag129
ag129
ag129
ag129
ag128
ag59
ag129
ag129
ag128
ag130
ag128
ag59
ag129
ag128
ag129
ag59
asS'is_normalized_entropy_less_than_threshold'
p135
(lp136
g49
(g50
(S'b1'
p137
I0
I1
tp138
Rp139
(I3
S'|'
p140
NNNI-1
I-1
I0
tp141
bS'\x01'
p142
tp143
Rp144
ag144
ag144
ag144
ag144
ag144
ag144
ag144
ag144
ag144
ag144
ag144
ag144
ag144
ag144
ag144
ag144
ag144
ag144
ag144
ag144
ag144
ag144
ag144
ag144
ag144
ag144
ag144
ag144
ag144
ag144
ag144
ag144
ag144
ag144
ag144
ag144
ag144
ag144
ag144
ag144
ag144
ag144
ag144
ag144
ag144
ag144
ag144
ag144
ag144
ag144
ag144
ag144
ag144
ag144
ag144
ag144
ag144
ag144
ag144
ag144
ag144
ag144
ag144
ag144
ag144
ag144
ag144
ag144
ag144
ag144
ag144
ag144
ag144
ag144
ag144
ag144
ag144
ag144
ag144
ag144
ag144
ag144
ag144
ag144
ag144
ag144
ag144
ag144
ag144
ag144
ag144
ag144
ag144
ag144
ag144
ag144
ag144
ag144
ag144
ag144
ag144
ag144
ag144
ag144
ag144
ag144
ag144
ag144
ag144
ag144
ag144
ag144
ag144
ag144
ag144
ag144
ag144
ag144
ag144
ag144
ag144
ag144
ag144
ag144
ag144
ag144
ag144
ag144
ag144
ag144
ag144
ag144
ag144
ag144
ag144
ag144
ag144
ag144
ag144
ag144
ag144
ag144
ag144
ag144
ag144
ag144
ag144
ag144
ag144
ag144
asaa(lp145
S'index'
p146
aI23745
aatp147
Rp148
.