ccollections
OrderedDict
p0
((lp1
(lp2
S'combination_dict'
p3
ag0
((lp4
(lp5
S'r_to_g_config'
p6
aS'tl'
p7
aa(lp8
S'num_turns'
p9
aI1
aa(lp10
S'start_direction'
p11
acutils_ms
StartDirection
p12
(I1
tp13
Rp14
aa(lp15
S'assistance_type'
p16
acutils_ms
AssistanceType
p17
(I0
tp18
Rp19
aa(lp20
S'start_mode'
p21
aS't'
p22
aa(lp23
S'ui_given_a_noise'
p24
aF0.7
aa(lp25
S'um_given_ui_noise'
p26
aF0.5
aa(lp27
S'entropy_threshold'
p28
aF0.8
aatp29
Rp30
aa(lp31
S'data'
p32
accollections
defaultdict
p33
(c__builtin__
list
p34
tp35
Rp36
S'a'
p37
(lp38
S'mode_l'
p39
aS'mode_r'
p40
ag40
aS'move_p'
p41
ag41
ag40
ag40
ag40
ag40
ag41
ag39
ag40
ag39
ag39
ag40
ag41
ag40
ag39
asS'assistance_match_with_ground_truth'
p42
(lp43
I00
aI00
aI01
aI00
aI01
aI00
aI00
aI00
aI01
aI00
aI00
aI00
aI00
aI00
aI01
aI01
aI00
aI00
asS'is_u_intended_equals_um'
p44
(lp45
I01
aI01
aI01
aI00
aI01
aI01
aI01
aI01
aI01
aI00
aI01
aI01
aI01
aI01
aI01
aI01
aI01
aI01
asS'total_steps'
p46
I18
sS'normalized_h_of_p_ui_given_um'
p47
(lp48
cnumpy.core.multiarray
scalar
p49
(cnumpy
dtype
p50
(S'f8'
p51
I0
I1
tp52
Rp53
(I3
S'<'
p54
NNNI-1
I-1
I0
tp55
bS'\xd2\xe1\xa3\x06\x0c\x83\xef?'
p56
tp57
Rp58
ag49
(g53
S'b_\x16\xb0\xbc\x9f\xe5?'
p59
tp60
Rp61
ag49
(g53
S'\x05\x9fM\x92 \xb0\xe3?'
p62
tp63
Rp64
ag49
(g53
S'Rf\x879\xfdV\xe8?'
p65
tp66
Rp67
ag49
(g53
S'\x90\xa7P\x01\x1fF\xda?'
p68
tp69
Rp70
ag49
(g53
S'b_\x16\xb0\xbc\x9f\xe5?'
p71
tp72
Rp73
ag49
(g53
S'b_\x16\xb0\xbc\x9f\xe5?'
p74
tp75
Rp76
ag49
(g53
S'\xe0M\x1d;@~\xe6?'
p77
tp78
Rp79
ag49
(g53
S'\x05\x9fM\x92 \xb0\xe3?'
p80
tp81
Rp82
ag49
(g53
S'\xbbk\xa4z\xf06\xee?'
p83
tp84
Rp85
ag49
(g53
S'\xe0?t\x1d\xd7h\xe4?'
p86
tp87
Rp88
ag49
(g53
S'\xf4>\x8c\xb8\xfd,\xe9?'
p89
tp90
Rp91
ag49
(g53
S'\xe0?t\x1d\xd7h\xe4?'
p92
tp93
Rp94
ag49
(g53
S'\xd2\xe1\xa3\x06\x0c\x83\xef?'
p95
tp96
Rp97
ag49
(g53
S'\x05\x9fM\x92 \xb0\xe3?'
p98
tp99
Rp100
ag49
(g53
S'\x90\xa7P\x01\x1fF\xda?'
p101
tp102
Rp103
ag49
(g53
S'\xf4>\x8c\xb8\xfd,\xe9?'
p104
tp105
Rp106
ag49
(g53
S'?h\x8c\x1d\xa2\xdf\xe1?'
p107
tp108
Rp109
asS'sp'
p110
(lp111
(S'p0'
p112
I0
S'x'
p113
tp114
a(g112
I0
g113
tp115
a(g112
I0
S'y'
p116
tp117
ag117
a(S'p1'
p118
I0
g116
tp119
a(g118
I0
g116
tp120
ag120
a(g118
I0
g116
tp121
a(g118
I0
S't'
p122
tp123
a(g118
I0
g113
tp124
a(g112
I0
g113
tp125
a(g112
I0
g122
tp126
a(g112
I0
g122
tp127
ag114
ag117
ag119
a(g118
I0
g113
tp128
a(S'p2'
p129
I0
g113
tp130
asS's'
p131
(lp132
(g112
I0
g22
tp133
ag114
ag115
ag117
ag117
ag119
ag120
ag120
ag121
ag123
ag124
ag125
ag126
ag127
ag114
ag117
ag119
ag128
asS'ui'
p134
(lp135
S'hp'
p136
aS'ss'
p137
ag136
ag110
ag110
ag137
ag136
ag136
ag136
ag110
ag110
aS'hs'
p138
ag110
ag136
ag136
ag110
ag110
ag137
asS'um_before'
p139
(lp140
g136
ag137
ag136
ag138
ag110
ag137
ag137
ag110
ag136
ag136
ag110
ag138
ag110
ag136
ag136
ag110
ag138
ag137
asS'um_after'
p141
(lp142
g136
ag137
ag136
aNag110
ag137
ag137
ag110
ag136
ag136
ag110
ag138
ag110
ag136
ag136
ag110
ag138
ag137
asS'is_normalized_entropy_less_than_threshold'
p143
(lp144
g49
(g50
(S'b1'
p145
I0
I1
tp146
Rp147
(I3
S'|'
p148
NNNI-1
I-1
I0
tp149
bS'\x00'
p150
tp151
Rp152
ag49
(g147
S'\x01'
p153
tp154
Rp155
ag155
ag155
ag155
ag155
ag155
ag155
ag155
ag152
ag155
ag155
ag155
ag152
ag155
ag155
ag155
ag155
asaa(lp156
S'index'
p157
aI35132
aatp158
Rp159
.