ccollections
OrderedDict
p0
((lp1
(lp2
S'combination_dict'
p3
ag0
((lp4
(lp5
S'r_to_g_config'
p6
aS'br'
p7
aa(lp8
S'num_turns'
p9
aI1
aa(lp10
S'start_direction'
p11
acutils_ms
StartDirection
p12
(I1
tp13
Rp14
aa(lp15
S'assistance_type'
p16
acutils_ms
AssistanceType
p17
(I2
tp18
Rp19
aa(lp20
S'start_mode'
p21
aS't'
p22
aa(lp23
S'ui_given_a_noise'
p24
aF0.1
aa(lp25
S'um_given_ui_noise'
p26
aF0.3
aa(lp27
S'entropy_threshold'
p28
aF0.5
aatp29
Rp30
aa(lp31
S'data'
p32
accollections
defaultdict
p33
(c__builtin__
list
p34
tp35
Rp36
S'a'
p37
(lp38
S'mode_l'
p39
aS'mode_r'
p40
aS'move_n'
p41
ag40
aS'move_p'
p42
ag40
ag42
asS'assistance_match_with_ground_truth'
p43
(lp44
I00
aI01
aI01
aI01
aI01
aI01
aI01
asS'is_u_intended_equals_um'
p45
(lp46
I01
aI01
aI01
aI01
aI01
aI01
aI01
asS'total_steps'
p47
I7
sS'normalized_h_of_p_ui_given_um'
p48
(lp49
cnumpy.core.multiarray
scalar
p50
(cnumpy
dtype
p51
(S'f8'
p52
I0
I1
tp53
Rp54
(I3
S'<'
p55
NNNI-1
I-1
I0
tp56
bS'\xaa\x07\xfb\xe8\x03\x02\xe5?'
p57
tp58
Rp59
ag59
ag59
ag59
ag59
ag59
ag59
asS'sp'
p60
(lp61
(S'p0'
p62
I0
S'x'
p63
tp64
a(g62
I0
S'y'
p65
tp66
a(S'p1'
p67
I0
g65
tp68
a(g67
I0
S't'
p69
tp70
a(g67
F1.5707963267948966
g69
tp71
a(g67
F1.5707963267948966
g63
tp72
a(S'p2'
p73
F1.5707963267948966
g63
tp74
asS's'
p75
(lp76
(g62
I0
g22
tp77
ag64
ag66
ag68
ag70
ag71
ag72
asS'ui'
p78
(lp79
S'hp'
p80
ag80
aS'ss'
p81
ag80
ag60
ag80
ag60
asS'um_before'
p82
(lp83
g80
ag80
ag81
ag80
ag60
ag80
ag60
asS'um_after'
p84
(lp85
g80
ag80
ag81
ag80
ag60
ag80
ag60
asS'is_normalized_entropy_less_than_threshold'
p86
(lp87
g50
(g51
(S'b1'
p88
I0
I1
tp89
Rp90
(I3
S'|'
p91
NNNI-1
I-1
I0
tp92
bS'\x01'
p93
tp94
Rp95
ag95
ag95
ag95
ag95
ag95
ag95
asaa(lp96
S'index'
p97
aI95251
aatp98
Rp99
.