ccollections
OrderedDict
p0
((lp1
(lp2
S'combination_dict'
p3
ag0
((lp4
(lp5
S'r_to_g_config'
p6
aS'bl'
p7
aa(lp8
S'num_turns'
p9
aI1
aa(lp10
S'start_direction'
p11
acutils_ms
StartDirection
p12
(I1
tp13
Rp14
aa(lp15
S'assistance_type'
p16
acutils_ms
AssistanceType
p17
(I0
tp18
Rp19
aa(lp20
S'start_mode'
p21
aS't'
p22
aa(lp23
S'ui_given_a_noise'
p24
aF0.3
aa(lp25
S'um_given_ui_noise'
p26
aF0.1
aa(lp27
S'entropy_threshold'
p28
aF0.8
aatp29
Rp30
aa(lp31
S'data'
p32
accollections
defaultdict
p33
(c__builtin__
list
p34
tp35
Rp36
S'a'
p37
(lp38
S'mode_l'
p39
ag39
aS'mode_r'
p40
aS'move_n'
p41
ag39
ag41
ag39
ag40
ag40
ag41
ag39
ag41
ag39
ag39
ag40
ag39
ag40
ag41
ag40
ag39
aS'move_p'
p42
ag39
ag40
ag41
ag41
ag40
ag41
ag40
ag42
ag39
ag40
ag41
ag40
ag42
ag40
ag41
asS'assistance_match_with_ground_truth'
p43
(lp44
I00
aI00
aI01
aI00
aI01
aI00
aI00
aI00
aI01
aI00
aI01
aI00
aI00
aI00
aI00
aI00
aI01
aI01
aI00
aI01
aI00
aI00
aI01
aI00
aI00
aI01
aI01
aI01
aI00
aI00
aI01
aI01
aI01
aI01
aI01
aI01
asS'is_u_intended_equals_um'
p45
(lp46
I01
aI01
aI01
aI01
aI01
aI01
aI01
aI01
aI01
aI01
aI01
aI01
aI01
aI01
aI01
aI01
aI01
aI01
aI01
aI01
aI01
aI01
aI01
aI01
aI01
aI01
aI01
aI01
aI01
aI01
aI01
aI01
aI01
aI01
aI01
aI01
asS'total_steps'
p47
I36
sS'normalized_h_of_p_ui_given_um'
p48
(lp49
cnumpy.core.multiarray
scalar
p50
(cnumpy
dtype
p51
(S'f8'
p52
I0
I1
tp53
Rp54
(I3
S'<'
p55
NNNI-1
I-1
I0
tp56
bS'\x90\x97\xfc\xd5\t\xbe\xe7?'
p57
tp58
Rp59
ag50
(g54
S'\xb0\xc9\t\xab\xc6\xf0\xe1?'
p60
tp61
Rp62
ag50
(g54
S'EF\x89cK\xd5\xb5?'
p63
tp64
Rp65
ag50
(g54
S'\xb8\xad11\xb8\xb3\xe1?'
p66
tp67
Rp68
ag50
(g54
S'\xc4\x9f\xbdE\xa9\x91\xb5?'
p69
tp70
Rp71
ag50
(g54
S'\xb8\xad11\xb8\xb3\xe1?'
p72
tp73
Rp74
ag50
(g54
S'\xb0\xc9\t\xab\xc6\xf0\xe1?'
p75
tp76
Rp77
ag50
(g54
S'\x058\xaf`\xd0\xf3\xe2?'
p78
tp79
Rp80
ag50
(g54
S'EF\x89cK\xd5\xb5?'
p81
tp82
Rp83
ag50
(g54
S'\xb8\xad11\xb8\xb3\xe1?'
p84
tp85
Rp86
ag50
(g54
S'\xc4\x9f\xbdE\xa9\x91\xb5?'
p87
tp88
Rp89
ag50
(g54
S'\xb8\xad11\xb8\xb3\xe1?'
p90
tp91
Rp92
ag50
(g54
S'\x90\x97\xfc\xd5\t\xbe\xe7?'
p93
tp94
Rp95
ag50
(g54
S'\xb0\xc9\t\xab\xc6\xf0\xe1?'
p96
tp97
Rp98
ag50
(g54
S'\xa3\xf7\x18\x96Mz\xdd?'
p99
tp100
Rp101
ag50
(g54
S'\xb0\xc9\t\xab\xc6\xf0\xe1?'
p102
tp103
Rp104
ag50
(g54
S'EF\x89cK\xd5\xb5?'
p105
tp106
Rp107
ag50
(g54
S'!\x03/G\xd3\xa7\xc1?'
p108
tp109
Rp110
ag50
(g54
S'\xa3\xf7\x18\x96Mz\xdd?'
p111
tp112
Rp113
ag50
(g54
S'\xc4\x9f\xbdE\xa9\x91\xb5?'
p114
tp115
Rp116
ag50
(g54
S'\x9c\x9f`\xff.\xe8\xda?'
p117
tp118
Rp119
ag50
(g54
S'\x90\x97\xfc\xd5\t\xbe\xe7?'
p120
tp121
Rp122
ag50
(g54
S'EF\x89cK\xd5\xb5?'
p123
tp124
Rp125
ag50
(g54
S'v\x16\x08\x15\xe7\x8f\xe5?'
p126
tp127
Rp128
ag50
(g54
S'\x9d\xf1\x172\xdb}\xe0?'
p129
tp130
Rp131
ag50
(g54
S'EF\x89cK\xd5\xb5?'
p132
tp133
Rp134
ag50
(g54
S'!\x03/G\xd3\xa7\xc1?'
p135
tp136
Rp137
ag50
(g54
S'EF\x89cK\xd5\xb5?'
p138
tp139
Rp140
ag50
(g54
S'\x9c\x9f`\xff.\xe8\xda?'
p141
tp142
Rp143
ag50
(g54
S'\x90\x97\xfc\xd5\t\xbe\xe7?'
p144
tp145
Rp146
ag50
(g54
S'EF\x89cK\xd5\xb5?'
p147
tp148
Rp149
ag50
(g54
S'!\x03/G\xd3\xa7\xc1?'
p150
tp151
Rp152
ag50
(g54
S'EF\x89cK\xd5\xb5?'
p153
tp154
Rp155
ag50
(g54
S'\x96\n\x05\xc9\xa9R\xc4?'
p156
tp157
Rp158
ag50
(g54
S'EF\x89cK\xd5\xb5?'
p159
tp160
Rp161
ag50
(g54
S'!\x03/G\xd3\xa7\xc1?'
p162
tp163
Rp164
asS'sp'
p165
(lp166
(S'p0'
p167
I0
S't'
p168
tp169
a(g167
I0
S'x'
p170
tp171
a(g167
I0
S'y'
p172
tp173
a(g167
I0
g168
tp174
a(g167
I0
g172
tp175
ag174
ag171
a(g167
I0
g170
tp176
ag173
ag174
ag175
ag174
ag169
ag171
a(g167
I0
g168
tp177
ag171
ag173
a(S'p1'
p178
I0
g172
tp179
a(g178
I0
g170
tp180
a(g178
I0
g168
tp181
a(g178
I0
g170
tp182
a(g167
I0
g170
tp183
ag173
a(g167
I0
g172
tp184
a(g167
I0
g170
tp185
ag173
ag179
a(g178
I0
g168
tp186
ag182
ag183
ag173
ag179
ag186
a(g178
F1.5707963267948966
g168
tp187
a(g178
F1.5707963267948966
g170
tp188
a(S'p2'
p189
F1.5707963267948966
g170
tp190
asS's'
p191
(lp192
(g167
I0
g22
tp193
ag169
ag171
ag173
ag174
ag175
ag174
ag171
ag176
ag173
ag174
ag175
ag174
ag169
ag171
ag177
ag171
ag173
ag179
ag180
ag181
ag182
ag183
ag173
ag184
ag185
ag173
ag179
ag186
ag182
ag183
ag173
ag179
ag186
ag187
ag188
asS'ui'
p194
(lp195
S'hs'
p196
aS'hp'
p197
ag197
ag197
ag196
ag197
ag197
ag197
ag197
aS'ss'
p198
ag196
ag197
ag197
ag197
ag197
ag196
ag197
ag198
ag197
ag196
ag197
ag165
ag197
ag165
ag196
ag197
ag198
ag197
ag197
ag165
ag197
ag198
ag196
ag165
ag197
ag196
asS'um_before'
p199
(lp200
g165
ag197
ag197
ag197
ag196
ag197
ag197
ag165
ag197
ag197
ag196
ag197
ag165
ag197
ag196
ag197
ag197
ag198
ag196
ag196
ag197
ag165
ag197
ag165
ag196
ag197
ag198
ag197
ag197
ag165
ag197
ag198
ag197
ag165
ag197
ag198
asS'um_after'
p201
(lp202
g165
ag197
ag197
ag197
ag196
ag197
ag197
ag165
ag197
ag197
ag196
ag197
ag165
ag197
ag196
ag197
ag197
ag198
ag196
ag196
ag197
ag165
ag197
ag165
ag196
ag197
ag198
ag197
ag197
ag165
ag197
ag198
ag197
ag165
ag197
ag198
asS'is_normalized_entropy_less_than_threshold'
p203
(lp204
g50
(g51
(S'b1'
p205
I0
I1
tp206
Rp207
(I3
S'|'
p208
NNNI-1
I-1
I0
tp209
bS'\x01'
p210
tp211
Rp212
ag212
ag212
ag212
ag212
ag212
ag212
ag212
ag212
ag212
ag212
ag212
ag212
ag212
ag212
ag212
ag212
ag212
ag212
ag212
ag212
ag212
ag212
ag212
ag212
ag212
ag212
ag212
ag212
ag212
ag212
ag212
ag212
ag212
ag212
ag212
asaa(lp213
S'index'
p214
aI63430
aatp215
Rp216
.