ccollections
OrderedDict
p0
((lp1
(lp2
S'combination_dict'
p3
ag0
((lp4
(lp5
S'r_to_g_config'
p6
aS'tr'
p7
aa(lp8
S'num_turns'
p9
aI3
aa(lp10
S'start_direction'
p11
acutils_ms
StartDirection
p12
(I0
tp13
Rp14
aa(lp15
S'assistance_type'
p16
acutils_ms
AssistanceType
p17
(I0
tp18
Rp19
aa(lp20
S'start_mode'
p21
aS't'
p22
aa(lp23
S'ui_given_a_noise'
p24
aF0.7
aa(lp25
S'um_given_ui_noise'
p26
aF0.3
aa(lp27
S'entropy_threshold'
p28
aF0.6
aatp29
Rp30
aa(lp31
S'data'
p32
accollections
defaultdict
p33
(c__builtin__
list
p34
tp35
Rp36
S'a'
p37
(lp38
S'mode_r'
p39
aS'mode_l'
p40
ag40
aS'move_p'
p41
ag39
ag40
ag39
ag41
ag40
ag41
ag40
ag40
ag41
ag40
ag41
ag40
ag41
ag41
ag39
ag40
ag40
ag40
ag40
ag39
ag41
ag39
ag41
ag40
ag40
ag39
ag40
ag41
ag39
ag41
ag39
ag40
ag41
ag39
ag41
ag40
ag40
ag41
ag41
ag39
ag41
ag40
ag41
ag39
ag39
ag39
ag39
ag41
ag40
ag40
ag41
ag39
ag41
ag40
ag40
ag41
ag39
ag41
ag41
ag40
ag41
ag39
ag40
ag40
ag41
ag41
ag39
ag40
ag40
ag40
ag41
ag40
ag41
ag41
ag39
ag41
ag40
ag40
ag41
asS'assistance_match_with_ground_truth'
p42
(lp43
I00
aI00
aI01
aI01
aI00
aI00
aI01
aI00
aI01
aI01
aI00
aI01
aI01
aI01
aI01
aI00
aI00
aI00
aI00
aI00
aI00
aI00
aI00
aI01
aI00
aI01
aI00
aI00
aI00
aI00
aI01
aI00
aI01
aI00
aI00
aI01
aI00
aI01
aI01
aI00
aI00
aI00
aI00
aI01
aI01
aI01
aI00
aI00
aI00
aI00
aI01
aI00
aI00
aI00
aI00
aI01
aI01
aI00
aI00
aI00
aI01
aI00
aI00
aI01
aI00
aI00
aI00
aI01
aI00
aI00
aI00
aI00
aI00
aI01
aI01
aI01
aI00
aI00
aI01
aI01
aI00
aI01
aI01
asS'is_u_intended_equals_um'
p44
(lp45
I01
aI01
aI01
aI01
aI01
aI01
aI01
aI01
aI01
aI01
aI01
aI01
aI01
aI01
aI01
aI01
aI01
aI01
aI01
aI01
aI01
aI01
aI01
aI01
aI01
aI01
aI01
aI01
aI01
aI01
aI01
aI01
aI01
aI01
aI01
aI01
aI01
aI01
aI01
aI01
aI01
aI01
aI01
aI01
aI01
aI01
aI01
aI00
aI00
aI00
aI01
aI01
aI01
aI01
aI01
aI01
aI01
aI01
aI01
aI01
aI01
aI01
aI01
aI01
aI01
aI01
aI01
aI01
aI01
aI01
aI00
aI01
aI01
aI01
aI01
aI01
aI01
aI01
aI01
aI01
aI01
aI01
aI01
asS'total_steps'
p46
I83
sS'normalized_h_of_p_ui_given_um'
p47
(lp48
cnumpy.core.multiarray
scalar
p49
(cnumpy
dtype
p50
(S'f8'
p51
I0
I1
tp52
Rp53
(I3
S'<'
p54
NNNI-1
I-1
I0
tp55
bS'w\x18\xf17l\x92\xdf?'
p56
tp57
Rp58
ag49
(g53
S'\xa3\xdc\xf9\xa5e\x9d\xda?'
p59
tp60
Rp61
ag49
(g53
S'0\xff\xbe\x9e;\xf6\xde?'
p62
tp63
Rp64
ag49
(g53
S'\x01\xfdz\x8f\xcb\xd4\xd0?'
p65
tp66
Rp67
ag49
(g53
S'w\x18\xf17l\x92\xdf?'
p68
tp69
Rp70
ag49
(g53
S'r\xe8\xd2\xecu\xcc\xe8?'
p71
tp72
Rp73
ag49
(g53
S'\xf8\x01\x89F\xae9\xc0?'
p74
tp75
Rp76
ag49
(g53
S'ipw4\xacK\xe2?'
p77
tp78
Rp79
ag49
(g53
S'0\xff\xbe\x9e;\xf6\xde?'
p80
tp81
Rp82
ag49
(g53
S'\x01\xfdz\x8f\xcb\xd4\xd0?'
p83
tp84
Rp85
ag49
(g53
S'\xa3\xdc\xf9\xa5e\x9d\xda?'
p86
tp87
Rp88
ag49
(g53
S'0\xff\xbe\x9e;\xf6\xde?'
p89
tp90
Rp91
ag49
(g53
S'\x01\xfdz\x8f\xcb\xd4\xd0?'
p92
tp93
Rp94
ag49
(g53
S'0\xff\xbe\x9e;\xf6\xde?'
p95
tp96
Rp97
ag49
(g53
S'\x01\xfdz\x8f\xcb\xd4\xd0?'
p98
tp99
Rp100
ag49
(g53
S'\xe5%\xeeD}\xa7\xe5?'
p101
tp102
Rp103
ag49
(g53
S'\x12U\x80\r\xf8\x1c\xeb?'
p104
tp105
Rp106
ag49
(g53
S'$R`\x03G\xd3\xe5?'
p107
tp108
Rp109
ag49
(g53
S'w\x18\xf17l\x92\xdf?'
p110
tp111
Rp112
ag49
(g53
S'\xa3\xdc\xf9\xa5e\x9d\xda?'
p113
tp114
Rp115
ag49
(g53
S'\xe5%\xeeD}\xa7\xe5?'
p116
tp117
Rp118
ag49
(g53
S'\xe5%\xeeD}\xa7\xe5?'
p119
tp120
Rp121
ag49
(g53
S'r\xe8\xd2\xecu\xcc\xe8?'
p122
tp123
Rp124
ag49
(g53
S'\xf8\x01\x89F\xae9\xc0?'
p125
tp126
Rp127
ag49
(g53
S'$R`\x03G\xd3\xe5?'
p128
tp129
Rp130
ag49
(g53
S'\xf8\x01\x89F\xae9\xc0?'
p131
tp132
Rp133
ag49
(g53
S'ipw4\xacK\xe2?'
p134
tp135
Rp136
ag49
(g53
S'\xa3\xdc\xf9\xa5e\x9d\xda?'
p137
tp138
Rp139
ag49
(g53
S'r\xe8\xd2\xecu\xcc\xe8?'
p140
tp141
Rp142
ag49
(g53
S'w\x18\xf17l\x92\xdf?'
p143
tp144
Rp145
ag49
(g53
S'0\xff\xbe\x9e;\xf6\xde?'
p146
tp147
Rp148
ag49
(g53
S'$R`\x03G\xd3\xe5?'
p149
tp150
Rp151
ag49
(g53
S'\xf8\x01\x89F\xae9\xc0?'
p152
tp153
Rp154
ag49
(g53
S'$R`\x03G\xd3\xe5?'
p155
tp156
Rp157
ag49
(g53
S'w\x18\xf17l\x92\xdf?'
p158
tp159
Rp160
ag49
(g53
S'0\xff\xbe\x9e;\xf6\xde?'
p161
tp162
Rp163
ag49
(g53
S'$R`\x03G\xd3\xe5?'
p164
tp165
Rp166
ag49
(g53
S'\xf8\x01\x89F\xae9\xc0?'
p167
tp168
Rp169
ag49
(g53
S'\x01\xfdz\x8f\xcb\xd4\xd0?'
p170
tp171
Rp172
ag49
(g53
S'\xa3\xdc\xf9\xa5e\x9d\xda?'
p173
tp174
Rp175
ag49
(g53
S'\xe5%\xeeD}\xa7\xe5?'
p176
tp177
Rp178
ag49
(g53
S'\x12U\x80\r\xf8\x1c\xeb?'
p179
tp180
Rp181
ag49
(g53
S'$R`\x03G\xd3\xe5?'
p182
tp183
Rp184
ag49
(g53
S'\xf8\x01\x89F\xae9\xc0?'
p185
tp186
Rp187
ag49
(g53
S'\x01\xfdz\x8f\xcb\xd4\xd0?'
p188
tp189
Rp190
ag49
(g53
S'0\xff\xbe\x9e;\xf6\xde?'
p191
tp192
Rp193
ag49
(g53
S'$R`\x03G\xd3\xe5?'
p194
tp195
Rp196
ag49
(g53
S'\xbc\xb2{\x8a3\xfb\xe7?'
p197
tp198
Rp199
ag49
(g53
S'\xbc\xb2{\x8a3\xfb\xe7?'
p200
tp201
Rp202
ag49
(g53
S'\xbc\xb2{\x8a3\xfb\xe7?'
p203
tp204
Rp205
ag49
(g53
S'\xf8\x01\x89F\xae9\xc0?'
p206
tp207
Rp208
ag49
(g53
S'ipw4\xacK\xe2?'
p209
tp210
Rp211
ag49
(g53
S'\xa3\xdc\xf9\xa5e\x9d\xda?'
p212
tp213
Rp214
ag49
(g53
S'\xe5%\xeeD}\xa7\xe5?'
p215
tp216
Rp217
ag49
(g53
S'$R`\x03G\xd3\xe5?'
p218
tp219
Rp220
ag49
(g53
S'\xf8\x01\x89F\xae9\xc0?'
p221
tp222
Rp223
ag49
(g53
S'\x01\xfdz\x8f\xcb\xd4\xd0?'
p224
tp225
Rp226
ag49
(g53
S'\xa3\xdc\xf9\xa5e\x9d\xda?'
p227
tp228
Rp229
ag49
(g53
S'\xe5%\xeeD}\xa7\xe5?'
p230
tp231
Rp232
ag49
(g53
S'$R`\x03G\xd3\xe5?'
p233
tp234
Rp235
ag49
(g53
S'\xf8\x01\x89F\xae9\xc0?'
p236
tp237
Rp238
ag49
(g53
S'\x12U\x80\r\xf8\x1c\xeb?'
p239
tp240
Rp241
ag49
(g53
S'ipw4\xacK\xe2?'
p242
tp243
Rp244
ag49
(g53
S'0\xff\xbe\x9e;\xf6\xde?'
p245
tp246
Rp247
ag49
(g53
S'$R`\x03G\xd3\xe5?'
p248
tp249
Rp250
ag49
(g53
S'w\x18\xf17l\x92\xdf?'
p251
tp252
Rp253
ag49
(g53
S'\xe5%\xeeD}\xa7\xe5?'
p254
tp255
Rp256
ag49
(g53
S'0\xff\xbe\x9e;\xf6\xde?'
p257
tp258
Rp259
ag49
(g53
S'\x12U\x80\r\xf8\x1c\xeb?'
p260
tp261
Rp262
ag49
(g53
S'$R`\x03G\xd3\xe5?'
p263
tp264
Rp265
ag49
(g53
S'\xbc\xb2{\x8a3\xfb\xe7?'
p266
tp267
Rp268
ag49
(g53
S'\xa3\xdc\xf9\xa5e\x9d\xda?'
p269
tp270
Rp271
ag49
(g53
S'\xa3\xdc\xf9\xa5e\x9d\xda?'
p272
tp273
Rp274
ag49
(g53
S'0\xff\xbe\x9e;\xf6\xde?'
p275
tp276
Rp277
ag49
(g53
S'\x01\xfdz\x8f\xcb\xd4\xd0?'
p278
tp279
Rp280
ag49
(g53
S'0\xff\xbe\x9e;\xf6\xde?'
p281
tp282
Rp283
ag49
(g53
S'\x12U\x80\r\xf8\x1c\xeb?'
p284
tp285
Rp286
ag49
(g53
S'$R`\x03G\xd3\xe5?'
p287
tp288
Rp289
ag49
(g53
S'\xf8\x01\x89F\xae9\xc0?'
p290
tp291
Rp292
ag49
(g53
S'\x01\xfdz\x8f\xcb\xd4\xd0?'
p293
tp294
Rp295
ag49
(g53
S'\xa3\xdc\xf9\xa5e\x9d\xda?'
p296
tp297
Rp298
ag49
(g53
S'0\xff\xbe\x9e;\xf6\xde?'
p299
tp300
Rp301
ag49
(g53
S'\x01\xfdz\x8f\xcb\xd4\xd0?'
p302
tp303
Rp304
asS'sp'
p305
(lp306
(S'p0'
p307
I0
S'y'
p308
tp309
a(g307
I0
g308
tp310
a(g307
I0
S'x'
p311
tp312
a(S'p1'
p313
I0
g311
tp314
a(g313
I0
S't'
p315
tp316
a(g313
I0
g311
tp317
a(g313
I0
g308
tp318
a(g313
I0
g315
tp319
a(g313
I0
g308
tp320
a(S'p2'
p321
I0
g308
tp322
a(g321
I0
g308
tp323
a(g321
I0
g311
tp324
a(S'p3'
p325
I0
g311
tp326
a(g325
I0
g315
tp327
a(g325
F1.5707963267948966
g315
tp328
a(g325
I0
g315
tp329
a(g325
I0
g315
tp330
a(g325
I0
g308
tp331
a(g325
I0
g311
tp332
a(g325
I0
g311
tp333
a(g325
I0
g311
tp334
ag334
a(g325
I0
g308
tp335
a(g325
I0
g315
tp336
ag331
ag336
a(g325
I0
g311
tp337
ag333
ag335
ag332
ag327
ag331
ag336
ag331
ag332
ag327
ag331
ag336
ag328
a(g325
F1.5707963267948966
g315
tp338
ag329
ag330
ag331
ag336
ag328
a(g325
F1.5707963267948966
g308
tp339
a(g325
F1.5707963267948966
g311
tp340
a(g325
F1.5707963267948966
g311
tp341
ag341
ag341
a(g325
F1.5707963267948966
g308
tp342
a(g325
F1.5707963267948966
g315
tp343
ag338
ag329
ag331
ag336
ag328
ag338
ag329
ag331
ag336
ag330
ag337
ag327
ag331
ag332
ag334
ag327
ag330
ag331
a(g321
I0
g308
tp344
ag323
ag323
ag324
ag326
ag327
ag330
ag331
ag336
ag328
ag338
ag339
a(S'p4'
p345
F1.5707963267948966
g308
tp346
asS's'
p347
(lp348
(g307
I0
g22
tp349
ag309
ag310
ag312
ag314
ag316
ag317
ag318
ag319
ag320
ag322
ag323
ag324
ag326
ag327
ag328
ag329
ag330
ag331
ag332
ag333
ag334
ag334
ag335
ag336
ag331
ag336
ag337
ag333
ag335
ag332
ag327
ag331
ag336
ag331
ag332
ag327
ag331
ag336
ag328
ag338
ag329
ag330
ag331
ag336
ag328
ag339
ag340
ag341
ag341
ag341
ag342
ag343
ag338
ag329
ag331
ag336
ag328
ag338
ag329
ag331
ag336
ag330
ag337
ag327
ag331
ag332
ag334
ag327
ag330
ag331
ag344
ag323
ag323
ag324
ag326
ag327
ag330
ag331
ag336
ag328
ag338
ag339
asS'ui'
p350
(lp351
S'hs'
p352
ag305
ag352
ag305
ag352
aS'hp'
p353
ag353
ag353
ag352
ag305
ag305
ag352
ag305
ag352
ag305
ag352
aS'ss'
p354
ag352
ag352
ag305
ag354
ag354
ag353
ag353
ag305
ag353
ag353
ag352
ag354
ag353
ag352
ag353
ag353
ag305
ag352
ag352
ag352
ag353
ag305
ag305
ag352
ag352
ag352
ag353
ag305
ag352
ag305
ag353
ag354
ag352
ag353
ag353
ag305
ag354
ag305
ag353
ag305
ag305
ag354
ag305
ag353
ag352
ag353
ag305
ag352
ag353
ag352
ag352
ag354
ag352
ag352
ag305
ag305
ag352
ag305
ag352
ag354
ag305
ag353
ag305
ag305
ag352
ag305
asS'um_before'
p355
(lp356
g352
ag305
ag352
ag305
ag352
ag353
ag353
ag353
ag352
ag305
ag305
ag352
ag305
ag352
ag305
ag354
ag354
ag352
ag352
ag305
ag354
ag354
ag353
ag353
ag352
ag353
ag353
ag305
ag353
ag352
ag352
ag352
ag353
ag352
ag352
ag352
ag352
ag353
ag305
ag305
ag354
ag354
ag352
ag353
ag305
ag352
ag352
ag354
ag354
ag354
ag353
ag353
ag305
ag354
ag352
ag353
ag305
ag305
ag354
ag352
ag353
ag354
ag353
ag352
ag352
ag352
ag354
ag352
ag354
ag352
ag354
ag305
ag305
ag352
ag305
ag352
ag354
ag352
ag353
ag305
ag305
ag352
ag305
asS'um_after'
p357
(lp358
g352
ag305
ag352
ag305
ag352
ag353
ag353
ag353
ag352
ag305
ag305
ag352
ag305
ag352
ag305
ag354
ag354
ag352
ag352
ag305
ag354
ag354
ag353
ag353
ag352
ag353
ag353
ag305
ag353
ag352
ag352
ag352
ag353
ag352
ag352
ag352
ag352
ag353
ag305
ag305
ag354
ag354
ag352
ag353
ag305
ag352
ag352
ag354
ag354
ag354
ag353
ag353
ag305
ag354
ag352
ag353
ag305
ag305
ag354
ag352
ag353
ag354
ag353
ag352
ag352
ag352
ag354
ag352
ag354
ag352
ag354
ag305
ag305
ag352
ag305
ag352
ag354
ag352
ag353
ag305
ag305
ag352
ag305
asS'is_normalized_entropy_less_than_threshold'
p359
(lp360
g49
(g50
(S'b1'
p361
I0
I1
tp362
Rp363
(I3
S'|'
p364
NNNI-1
I-1
I0
tp365
bS'\x01'
p366
tp367
Rp368
ag368
ag368
ag368
ag368
ag49
(g363
S'\x00'
p369
tp370
Rp371
ag368
ag368
ag368
ag368
ag368
ag368
ag368
ag368
ag368
ag371
ag371
ag371
ag368
ag368
ag371
ag371
ag371
ag368
ag371
ag368
ag368
ag368
ag371
ag368
ag368
ag371
ag368
ag371
ag368
ag368
ag371
ag368
ag368
ag368
ag371
ag371
ag371
ag368
ag368
ag368
ag371
ag371
ag371
ag371
ag368
ag368
ag368
ag371
ag371
ag368
ag368
ag368
ag371
ag371
ag368
ag371
ag368
ag368
ag371
ag368
ag371
ag368
ag371
ag371
ag371
ag368
ag368
ag368
ag368
ag368
ag371
ag371
ag368
ag368
ag368
ag368
ag368
asaa(lp372
S'index'
p373
aI19868
aatp374
Rp375
.