ccollections
OrderedDict
p0
((lp1
(lp2
S'combination_dict'
p3
ag0
((lp4
(lp5
S'r_to_g_config'
p6
aS'bl'
p7
aa(lp8
S'num_turns'
p9
aI2
aa(lp10
S'start_direction'
p11
acutils_ms
StartDirection
p12
(I1
tp13
Rp14
aa(lp15
S'assistance_type'
p16
acutils_ms
AssistanceType
p17
(I1
tp18
Rp19
aa(lp20
S'start_mode'
p21
aS'x'
p22
aa(lp23
S'ui_given_a_noise'
p24
aF0.3
aa(lp25
S'um_given_ui_noise'
p26
aF0.1
aa(lp27
S'entropy_threshold'
p28
aF0.6
aatp29
Rp30
aa(lp31
S'data'
p32
accollections
defaultdict
p33
(c__builtin__
list
p34
tp35
Rp36
S'a'
p37
(lp38
S'mode_r'
p39
ag39
aS'move_n'
p40
aS'mode_l'
p41
ag40
ag41
ag39
aS'move_p'
p42
ag41
ag40
ag41
ag41
ag40
ag39
ag39
ag40
asS'assistance_match_with_ground_truth'
p43
(lp44
I00
aI01
aI01
aI01
aI01
aI00
aI01
aI01
aI01
aI00
aI00
aI01
aI01
aI00
aI01
aI01
asS'is_u_intended_equals_um'
p45
(lp46
I01
aI01
aI01
aI01
aI01
aI01
aI01
aI01
aI01
aI01
aI01
aI01
aI01
aI01
aI01
aI01
asS'total_steps'
p47
I16
sS'normalized_h_of_p_ui_given_um'
p48
(lp49
cnumpy.core.multiarray
scalar
p50
(cnumpy
dtype
p51
(S'f8'
p52
I0
I1
tp53
Rp54
(I3
S'<'
p55
NNNI-1
I-1
I0
tp56
bS'9\xc1F\xa3\xad&\xd6?'
p57
tp58
Rp59
ag50
(g54
S'\xfab\xab\xd1\x92\x1a\xb8?'
p60
tp61
Rp62
ag50
(g54
S':.,\x89\xf2~\xb7?'
p63
tp64
Rp65
ag50
(g54
S'.y\xd8;\xa3d\xc0?'
p66
tp67
Rp68
ag50
(g54
S':.,\x89\xf2~\xb7?'
p69
tp70
Rp71
ag50
(g54
S'Y\xed\xa8E\xd5\xad\xd0?'
p72
tp73
Rp74
ag50
(g54
S'\xfab\xab\xd1\x92\x1a\xb8?'
p75
tp76
Rp77
ag50
(g54
S'\xc8\xb0h\xa0\xdf\xe7\xb4?'
p78
tp79
Rp80
ag50
(g54
S'.y\xd8;\xa3d\xc0?'
p81
tp82
Rp83
ag50
(g54
S'G\xb5\xf2\xcc\x15$\xdc?'
p84
tp85
Rp86
ag50
(g54
S'\xbeB\xdd|\x07*\xe0?'
p87
tp88
Rp89
ag50
(g54
S'.y\xd8;\xa3d\xc0?'
p90
tp91
Rp92
ag50
(g54
S':.,\x89\xf2~\xb7?'
p93
tp94
Rp95
ag50
(g54
S'\x7f\xf79\x86\x86G\xdc?'
p96
tp97
Rp98
ag50
(g54
S'\xfab\xab\xd1\x92\x1a\xb8?'
p99
tp100
Rp101
ag50
(g54
S':.,\x89\xf2~\xb7?'
p102
tp103
Rp104
asS'sp'
p105
(lp106
(S'p0'
p107
I0
S'x'
p108
tp109
a(g107
I0
S'y'
p110
tp111
a(S'p1'
p112
I0
g110
tp113
a(g112
I0
g108
tp114
a(S'p2'
p115
I0
g108
tp116
a(g115
I0
g110
tp117
a(g115
I0
S't'
p118
tp119
a(g115
F1.5707963267948966
g118
tp120
a(g115
F1.5707963267948966
g110
tp121
a(g112
F1.5707963267948966
g110
tp122
a(g112
F1.5707963267948966
g110
tp123
a(g112
F1.5707963267948966
g108
tp124
a(g115
F1.5707963267948966
g108
tp125
a(g115
F1.5707963267948966
g108
tp126
a(g115
F1.5707963267948966
g110
tp127
a(S'p3'
p128
F1.5707963267948966
g110
tp129
asS's'
p130
(lp131
(g107
I0
g22
tp132
ag109
ag111
ag113
ag114
ag116
ag117
ag119
ag120
ag121
ag122
ag123
ag124
ag125
ag126
ag127
asS'ui'
p133
(lp134
g105
aS'hp'
p135
aS'ss'
p136
aS'hs'
p137
ag136
ag135
ag135
ag105
ag137
ag105
ag137
ag137
ag136
ag105
ag135
ag136
asS'um_before'
p138
(lp139
g136
ag135
ag136
ag137
ag136
ag135
ag135
ag105
ag137
ag105
ag136
ag137
ag136
ag105
ag135
ag136
asS'um_after'
p140
(lp141
g136
ag135
ag136
ag137
ag136
ag135
ag135
ag105
ag137
ag105
ag136
ag137
ag136
ag105
ag135
ag136
asS'is_normalized_entropy_less_than_threshold'
p142
(lp143
g50
(g51
(S'b1'
p144
I0
I1
tp145
Rp146
(I3
S'|'
p147
NNNI-1
I-1
I0
tp148
bS'\x01'
p149
tp150
Rp151
ag151
ag151
ag151
ag151
ag151
ag151
ag151
ag151
ag151
ag151
ag151
ag151
ag151
ag151
ag151
asaa(lp152
S'index'
p153
aI73812
aatp154
Rp155
.