ccollections
OrderedDict
p0
((lp1
(lp2
S'combination_dict'
p3
ag0
((lp4
(lp5
S'r_to_g_config'
p6
aS'bl'
p7
aa(lp8
S'num_turns'
p9
aI3
aa(lp10
S'start_direction'
p11
acutils_ms
StartDirection
p12
(I0
tp13
Rp14
aa(lp15
S'assistance_type'
p16
acutils_ms
AssistanceType
p17
(I1
tp18
Rp19
aa(lp20
S'start_mode'
p21
aS'y'
p22
aa(lp23
S'ui_given_a_noise'
p24
aF0.3
aa(lp25
S'um_given_ui_noise'
p26
aF0.3
aa(lp27
S'entropy_threshold'
p28
aF0.9
aatp29
Rp30
aa(lp31
S'data'
p32
accollections
defaultdict
p33
(c__builtin__
list
p34
tp35
Rp36
S'a'
p37
(lp38
S'mode_l'
p39
aS'move_n'
p40
aS'mode_r'
p41
ag40
ag41
ag40
ag39
ag40
ag41
ag40
ag39
ag40
ag39
ag40
ag41
ag40
ag39
ag40
ag41
ag40
ag39
ag40
ag39
ag41
aS'move_p'
p42
ag39
ag40
ag39
ag41
ag40
ag41
ag40
ag39
ag40
ag41
ag40
asS'assistance_match_with_ground_truth'
p43
(lp44
I01
aI00
aI01
aI01
aI01
aI01
aI01
aI00
aI01
aI01
aI01
aI00
aI01
aI00
aI01
aI00
aI01
aI01
aI01
aI01
aI01
aI01
aI00
aI01
aI01
aI01
aI00
aI00
aI01
aI00
aI01
aI00
aI01
aI00
aI01
aI01
asS'is_u_intended_equals_um'
p45
(lp46
I01
aI01
aI00
aI01
aI00
aI01
aI00
aI01
aI01
aI01
aI00
aI01
aI01
aI01
aI00
aI01
aI01
aI01
aI01
aI01
aI01
aI01
aI01
aI00
aI01
aI01
aI01
aI01
aI01
aI01
aI00
aI01
aI00
aI01
aI01
aI01
asS'total_steps'
p47
I36
sS'normalized_h_of_p_ui_given_um'
p48
(lp49
cnumpy.core.multiarray
scalar
p50
(cnumpy
dtype
p51
(S'f8'
p52
I0
I1
tp53
Rp54
(I3
S'<'
p55
NNNI-1
I-1
I0
tp56
bS'zJ\t\xfeQ\xe7\xbe?'
p57
tp58
Rp59
ag50
(g54
S'\x918\x15\x15\x1a\x90\xe2?'
p60
tp61
Rp62
ag50
(g54
S'=Y\xb3\xba\x90\x9e\xe3?'
p63
tp64
Rp65
ag50
(g54
S'\xb4)\x08\x16\x1e\x8d\xd9?'
p66
tp67
Rp68
ag50
(g54
S'g\x06\x89J\xf8@\xe3?'
p69
tp70
Rp71
ag50
(g54
S'\xb4)\x08\x16\x1e\x8d\xd9?'
p72
tp73
Rp74
ag50
(g54
S'\xeb\xb2\xa5gC(\xea?'
p75
tp76
Rp77
ag50
(g54
S'0\xb1\xb4\x92\x02{\xea?'
p78
tp79
Rp80
ag50
(g54
S'\xe4\xfb\xa8\xd1\x1e\xfb\xc0?'
p81
tp82
Rp83
ag50
(g54
S'\xb4)\x08\x16\x1e\x8d\xd9?'
p84
tp85
Rp86
ag50
(g54
S'\xeb\xb2\xa5gC(\xea?'
p87
tp88
Rp89
ag50
(g54
S'i\x8c\xc1\x8e\xaf\x13\xe5?'
p90
tp91
Rp92
ag50
(g54
S'zJ\t\xfeQ\xe7\xbe?'
p93
tp94
Rp95
ag50
(g54
S'0\xb1\xb4\x92\x02{\xea?'
p96
tp97
Rp98
ag50
(g54
S'=Y\xb3\xba\x90\x9e\xe3?'
p99
tp100
Rp101
ag50
(g54
S'0\xb1\xb4\x92\x02{\xea?'
p102
tp103
Rp104
ag50
(g54
S'zJ\t\xfeQ\xe7\xbe?'
p105
tp106
Rp107
ag50
(g54
S'\xb4)\x08\x16\x1e\x8d\xd9?'
p108
tp109
Rp110
ag50
(g54
S'\xe4\xfb\xa8\xd1\x1e\xfb\xc0?'
p111
tp112
Rp113
ag50
(g54
S'\xb4)\x08\x16\x1e\x8d\xd9?'
p114
tp115
Rp116
ag50
(g54
S'zJ\t\xfeQ\xe7\xbe?'
p117
tp118
Rp119
ag50
(g54
S'\xb4)\x08\x16\x1e\x8d\xd9?'
p120
tp121
Rp122
ag50
(g54
S"'c\xa9\xb8a\t\xdb?"
p123
tp124
Rp125
ag50
(g54
S'=Y\xb3\xba\x90\x9e\xe3?'
p126
tp127
Rp128
ag50
(g54
S'\x88\xae:\x85\xf6\xb1\xd6?'
p129
tp130
Rp131
ag50
(g54
S'zJ\t\xfeQ\xe7\xbe?'
p132
tp133
Rp134
ag50
(g54
S'i\x8c\xc1\x8e\xaf\x13\xe5?'
p135
tp136
Rp137
ag50
(g54
S"'c\xa9\xb8a\t\xdb?"
p138
tp139
Rp140
ag50
(g54
S'\xe4\xfb\xa8\xd1\x1e\xfb\xc0?'
p141
tp142
Rp143
ag50
(g54
S'\x918\x15\x15\x1a\x90\xe2?'
p144
tp145
Rp146
ag50
(g54
S'=Y\xb3\xba\x90\x9e\xe3?'
p147
tp148
Rp149
ag50
(g54
S'i\x8c\xc1\x8e\xaf\x13\xe5?'
p150
tp151
Rp152
ag50
(g54
S'"\xf7\xf4mCA\xec?'
p153
tp154
Rp155
ag50
(g54
S'\x918\x15\x15\x1a\x90\xe2?'
p156
tp157
Rp158
ag50
(g54
S'\xe4\xfb\xa8\xd1\x1e\xfb\xc0?'
p159
tp160
Rp161
ag50
(g54
S'\xb4)\x08\x16\x1e\x8d\xd9?'
p162
tp163
Rp164
asS'sp'
p165
(lp166
(S'p0'
p167
I0
S'x'
p168
tp169
a(g167
I0
S't'
p170
tp171
a(g167
I0
g168
tp172
a(S'p1'
p173
I0
g168
tp174
a(g173
I0
S'y'
p175
tp176
a(S'p2'
p177
I0
g175
tp178
a(g177
I0
g168
tp179
a(g173
I0
g168
tp180
ag176
ag178
ag179
a(g177
I0
g175
tp181
ag179
ag180
ag176
a(g167
I0
g175
tp182
ag169
ag174
ag176
ag178
ag179
a(S'p3'
p183
I0
g168
tp184
a(g183
I0
g175
tp185
a(g183
I0
g170
tp186
a(g183
F1.5707963267948966
g170
tp187
a(g183
F1.5707963267948966
g175
tp188
a(g183
F1.5707963267948966
g170
tp189
a(g183
F1.5707963267948966
g168
tp190
a(g183
F1.5707963267948966
g175
tp191
a(g183
F1.5707963267948966
g168
tp192
ag191
ag189
ag188
ag192
ag191
a(S'p4'
p193
F1.5707963267948966
g175
tp194
asS's'
p195
(lp196
(g167
I0
g22
tp197
ag169
ag171
ag172
ag174
ag176
ag178
ag179
ag180
ag176
ag178
ag179
ag181
ag179
ag180
ag176
ag182
ag169
ag174
ag176
ag178
ag179
ag184
ag185
ag186
ag187
ag188
ag189
ag190
ag191
ag192
ag191
ag189
ag188
ag192
ag191
asS'ui'
p198
(lp199
S'hs'
p200
ag200
ag165
aS'ss'
p201
aS'hp'
p202
ag201
ag165
ag201
ag202
ag201
ag200
ag202
ag200
ag201
ag165
ag201
ag200
ag201
ag202
ag201
ag200
ag201
ag201
ag202
ag165
ag200
ag202
ag202
ag202
ag200
ag202
ag201
ag200
ag201
ag202
ag201
asS'um_before'
p203
(lp204
g200
ag200
ag165
ag201
ag200
ag201
ag201
ag165
ag202
ag201
ag201
ag202
ag200
ag165
ag165
ag165
ag200
ag201
ag202
ag201
ag200
ag201
ag202
ag165
ag165
ag200
ag202
ag202
ag202
ag200
ag165
ag202
ag165
ag200
ag202
ag201
asS'um_after'
p205
(lp206
g200
ag200
ag202
ag201
ag202
ag201
ag200
ag165
ag202
ag201
ag200
ag202
ag200
ag165
ag202
ag165
ag200
ag201
ag202
ag201
ag200
ag201
ag202
ag202
ag165
ag200
ag202
ag202
ag202
ag200
ag202
ag202
ag200
ag200
ag202
ag201
asS'is_normalized_entropy_less_than_threshold'
p207
(lp208
g50
(g51
(S'b1'
p209
I0
I1
tp210
Rp211
(I3
S'|'
p212
NNNI-1
I-1
I0
tp213
bS'\x01'
p214
tp215
Rp216
ag216
ag216
ag216
ag216
ag216
ag216
ag216
ag216
ag216
ag216
ag216
ag216
ag216
ag216
ag216
ag216
ag216
ag216
ag216
ag216
ag216
ag216
ag216
ag216
ag216
ag216
ag216
ag216
ag216
ag216
ag216
ag216
ag216
ag216
ag216
asaa(lp217
S'index'
p218
aI79499
aatp219
Rp220
.