ccollections
OrderedDict
p0
((lp1
(lp2
S'combination_dict'
p3
ag0
((lp4
(lp5
S'r_to_g_config'
p6
aS'br'
p7
aa(lp8
S'num_turns'
p9
aI2
aa(lp10
S'start_direction'
p11
acutils_ms
StartDirection
p12
(I1
tp13
Rp14
aa(lp15
S'assistance_type'
p16
acutils_ms
AssistanceType
p17
(I0
tp18
Rp19
aa(lp20
S'start_mode'
p21
aS'x'
p22
aa(lp23
S'ui_given_a_noise'
p24
aF0.7
aa(lp25
S'um_given_ui_noise'
p26
aF0.5
aa(lp27
S'entropy_threshold'
p28
aF0.7
aatp29
Rp30
aa(lp31
S'data'
p32
accollections
defaultdict
p33
(c__builtin__
list
p34
tp35
Rp36
S'a'
p37
(lp38
S'mode_r'
p39
aS'mode_l'
p40
ag40
aS'move_n'
p41
ag39
ag40
ag40
ag40
ag39
ag39
ag40
ag40
ag41
ag40
ag40
ag39
ag41
ag39
ag41
ag40
ag40
ag39
ag40
ag40
ag40
ag40
ag40
ag41
ag40
ag39
ag40
ag41
ag39
ag39
ag40
ag40
aS'move_p'
p42
ag40
ag39
ag41
ag40
ag41
ag39
ag41
ag41
ag39
ag39
ag39
ag42
ag39
ag40
ag42
ag39
ag42
ag39
ag40
ag40
ag41
ag40
ag40
ag40
ag40
ag41
asS'assistance_match_with_ground_truth'
p43
(lp44
I00
aI00
aI01
aI00
aI00
aI00
aI00
aI00
aI00
aI00
aI00
aI01
aI00
aI00
aI00
aI01
aI00
aI01
aI00
aI00
aI00
aI00
aI00
aI00
aI00
aI00
aI01
aI00
aI00
aI00
aI01
aI01
aI00
aI00
aI00
aI01
aI00
aI00
aI01
aI00
aI01
aI00
aI01
aI00
aI01
aI00
aI00
aI01
aI01
aI00
aI01
aI00
aI01
aI01
aI00
aI00
aI01
aI00
aI00
aI00
aI00
aI01
aI01
asS'is_u_intended_equals_um'
p45
(lp46
I01
aI01
aI01
aI01
aI01
aI01
aI01
aI00
aI01
aI01
aI00
aI01
aI01
aI01
aI00
aI01
aI01
aI01
aI01
aI01
aI00
aI01
aI00
aI00
aI01
aI00
aI01
aI01
aI00
aI01
aI01
aI01
aI01
aI01
aI00
aI01
aI00
aI01
aI01
aI01
aI01
aI01
aI01
aI01
aI01
aI01
aI01
aI01
aI01
aI01
aI01
aI01
aI01
aI01
aI01
aI01
aI01
aI01
aI01
aI00
aI01
aI01
aI01
asS'total_steps'
p47
I63
sS'normalized_h_of_p_ui_given_um'
p48
(lp49
cnumpy.core.multiarray
scalar
p50
(cnumpy
dtype
p51
(S'f8'
p52
I0
I1
tp53
Rp54
(I3
S'<'
p55
NNNI-1
I-1
I0
tp56
bS'\xa5o\x0exCk\xe6?'
p57
tp58
Rp59
ag50
(g54
S'6\x96k4\x89\x85\xda?'
p60
tp61
Rp62
ag50
(g54
S'\xac!b\xa5\xe1D\xd1?'
p63
tp64
Rp65
ag50
(g54
S'*\xa7-R\x93t\xe9?'
p66
tp67
Rp68
ag50
(g54
S'\xa5o\x0exCk\xe6?'
p69
tp70
Rp71
ag50
(g54
S'6\x96k4\x89\x85\xda?'
p72
tp73
Rp74
ag50
(g54
S'6\x96k4\x89\x85\xda?'
p75
tp76
Rp77
ag50
(g54
S'i\x91S\x9f\xf6\xf8\xec?'
p78
tp79
Rp80
ag50
(g54
S'a\xac}\xe6.\xd8\xe8?'
p81
tp82
Rp83
ag50
(g54
S'\xa5o\x0exCk\xe6?'
p84
tp85
Rp86
ag50
(g54
S'\x05/\xa7\x1b\xddn\xe4?'
p87
tp88
Rp89
ag50
(g54
S'\xac!b\xa5\xe1D\xd1?'
p90
tp91
Rp92
ag50
(g54
S'\xe49t\xc2\x92t\xeb?'
p93
tp94
Rp95
ag50
(g54
S'6\x96k4\x89\x85\xda?'
p96
tp97
Rp98
ag50
(g54
S'i\x91S\x9f\xf6\xf8\xec?'
p99
tp100
Rp101
ag50
(g54
S'k\x15\xdd\n,\xd0\xe3?'
p102
tp103
Rp104
ag50
(g54
S'*\xa7-R\x93t\xe9?'
p105
tp106
Rp107
ag50
(g54
S'k\x15\xdd\n,\xd0\xe3?'
p108
tp109
Rp110
ag50
(g54
S'\xe49t\xc2\x92t\xeb?'
p111
tp112
Rp113
ag50
(g54
S'6\x96k4\x89\x85\xda?'
p114
tp115
Rp116
ag50
(g54
S'i\x91S\x9f\xf6\xf8\xec?'
p117
tp118
Rp119
ag50
(g54
S'\xa5o\x0exCk\xe6?'
p120
tp121
Rp122
ag50
(g54
S'\x05/\xa7\x1b\xddn\xe4?'
p123
tp124
Rp125
ag50
(g54
S'\x05/\xa7\x1b\xddn\xe4?'
p126
tp127
Rp128
ag50
(g54
S'6\x96k4\x89\x85\xda?'
p129
tp130
Rp131
ag50
(g54
S'\x05/\xa7\x1b\xddn\xe4?'
p132
tp133
Rp134
ag50
(g54
S'\xac!b\xa5\xe1D\xd1?'
p135
tp136
Rp137
ag50
(g54
S'\xe49t\xc2\x92t\xeb?'
p138
tp139
Rp140
ag50
(g54
S'i\x91S\x9f\xf6\xf8\xec?'
p141
tp142
Rp143
ag50
(g54
S'\xa5o\x0exCk\xe6?'
p144
tp145
Rp146
ag50
(g54
S'\xac!b\xa5\xe1D\xd1?'
p147
tp148
Rp149
ag50
(g54
S'\xba\x8f%\xd3\xa3\xaf\xd6?'
p150
tp151
Rp152
ag50
(g54
S'<\xc8\xd3\x1d,\xe4\xe6?'
p153
tp154
Rp155
ag50
(g54
S'\xa5o\x0exCk\xe6?'
p156
tp157
Rp158
ag50
(g54
S'\x05/\xa7\x1b\xddn\xe4?'
p159
tp160
Rp161
ag50
(g54
S'\xac!b\xa5\xe1D\xd1?'
p162
tp163
Rp164
ag50
(g54
S'\xb9\n8\x9e\x06\x19\xe8?'
p165
tp166
Rp167
ag50
(g54
S'6\x96k4\x89\x85\xda?'
p168
tp169
Rp170
ag50
(g54
S'k\x15\xdd\n,\xd0\xe3?'
p171
tp172
Rp173
ag50
(g54
S'\xe49t\xc2\x92t\xeb?'
p174
tp175
Rp176
ag50
(g54
S'\xac!b\xa5\xe1D\xd1?'
p177
tp178
Rp179
ag50
(g54
S'*\xa7-R\x93t\xe9?'
p180
tp181
Rp182
ag50
(g54
S'k\x15\xdd\n,\xd0\xe3?'
p183
tp184
Rp185
ag50
(g54
S'-\xd8\xec\xe6\xf16\xe6?'
p186
tp187
Rp188
ag50
(g54
S'\xba\x8f%\xd3\xa3\xaf\xd6?'
p189
tp190
Rp191
ag50
(g54
S'<\xc8\xd3\x1d,\xe4\xe6?'
p192
tp193
Rp194
ag50
(g54
S'<\xc8\xd3\x1d,\xe4\xe6?'
p195
tp196
Rp197
ag50
(g54
S'k\x15\xdd\n,\xd0\xe3?'
p198
tp199
Rp200
ag50
(g54
S'\xda\x9c\x82:\xba3\xd4?'
p201
tp202
Rp203
ag50
(g54
S'\xa5o\x0exCk\xe6?'
p204
tp205
Rp206
ag50
(g54
S'\xac!b\xa5\xe1D\xd1?'
p207
tp208
Rp209
ag50
(g54
S'\x00\x16\xfb\xad\x8d\x97\xe3?'
p210
tp211
Rp212
ag50
(g54
S'k\x15\xdd\n,\xd0\xe3?'
p213
tp214
Rp215
ag50
(g54
S'\xda\x9c\x82:\xba3\xd4?'
p216
tp217
Rp218
ag50
(g54
S'\xa5o\x0exCk\xe6?'
p219
tp220
Rp221
ag50
(g54
S'6\x96k4\x89\x85\xda?'
p222
tp223
Rp224
ag50
(g54
S'\xac!b\xa5\xe1D\xd1?'
p225
tp226
Rp227
ag50
(g54
S'\xe49t\xc2\x92t\xeb?'
p228
tp229
Rp230
ag50
(g54
S'6\x96k4\x89\x85\xda?'
p231
tp232
Rp233
ag50
(g54
S'\x05/\xa7\x1b\xddn\xe4?'
p234
tp235
Rp236
ag50
(g54
S'6\x96k4\x89\x85\xda?'
p237
tp238
Rp239
ag50
(g54
S'\xac!b\xa5\xe1D\xd1?'
p240
tp241
Rp242
ag50
(g54
S'\xba\x8f%\xd3\xa3\xaf\xd6?'
p243
tp244
Rp245
asS'sp'
p246
(lp247
(S'p0'
p248
I0
S't'
p249
tp250
a(g248
I0
g249
tp251
a(g248
I0
S'y'
p252
tp253
a(g248
I0
S'x'
p254
tp255
ag250
ag251
ag251
a(g248
I0
g254
tp256
a(g248
I0
g254
tp257
ag250
ag250
ag253
a(g248
I0
g249
tp258
ag251
ag256
a(g248
I0
g252
tp259
ag255
ag259
ag258
ag251
ag256
ag250
ag250
ag250
ag251
ag251
ag253
ag258
ag256
ag250
ag253
a(S'p1'
p260
I0
g252
tp261
a(g260
I0
g252
tp262
a(g260
I0
g254
tp263
ag263
a(g260
I0
g249
tp264
a(g260
I0
g254
tp265
a(g248
I0
g254
tp266
ag259
ag258
ag253
ag255
ag259
a(g248
I0
g252
tp267
ag261
ag262
ag262
a(g260
I0
g249
tp268
a(g260
F1.5707963267948966
g249
tp269
a(g260
F1.5707963267948966
g252
tp270
a(g260
F1.5707963267948966
g254
tp271
a(g260
F1.5707963267948966
g249
tp272
a(g260
F1.5707963267948966
g254
tp273
a(S'p2'
p274
F1.5707963267948966
g254
tp275
a(g274
F1.5707963267948966
g249
tp276
a(g274
F1.5707963267948966
g249
tp277
a(g274
F1.5707963267948966
g252
tp278
a(g274
F1.5707963267948966
g249
tp279
ag277
ag277
ag277
ag278
a(S'p3'
p280
F1.5707963267948966
g252
tp281
asS's'
p282
(lp283
(g248
I0
g22
tp284
ag250
ag251
ag253
ag255
ag250
ag251
ag251
ag256
ag257
ag250
ag250
ag253
ag258
ag251
ag256
ag259
ag255
ag259
ag258
ag251
ag256
ag250
ag250
ag250
ag251
ag251
ag253
ag258
ag256
ag250
ag253
ag261
ag262
ag263
ag263
ag264
ag265
ag266
ag259
ag258
ag253
ag255
ag259
ag267
ag261
ag262
ag262
ag268
ag269
ag270
ag271
ag272
ag273
ag275
ag276
ag277
ag278
ag279
ag277
ag277
ag277
ag278
asS'ui'
p285
(lp286
S'hp'
p287
aS'ss'
p288
aS'hs'
p289
ag289
ag287
ag288
ag288
ag287
ag289
ag287
ag289
ag289
ag287
ag288
ag287
ag287
ag287
ag287
ag288
ag288
ag288
ag287
ag289
ag289
ag288
ag289
ag289
ag287
ag287
ag289
ag289
ag288
ag246
ag287
ag288
ag289
ag246
ag246
ag287
ag287
ag289
ag289
ag288
ag287
ag288
ag246
ag289
ag287
ag246
ag289
ag289
ag289
ag287
ag289
ag287
ag288
ag287
ag287
ag288
ag289
ag289
ag289
ag288
asS'um_before'
p290
(lp291
g289
ag288
ag289
ag289
ag289
ag288
ag288
ag287
ag288
ag289
ag246
ag289
ag287
ag288
ag287
ag287
ag289
ag287
ag287
ag288
ag287
ag289
ag246
ag246
ag288
ag246
ag289
ag287
ag287
ag289
ag289
ag288
ag246
ag289
ag246
ag289
ag287
ag288
ag287
ag287
ag289
ag289
ag287
ag246
ag288
ag246
ag246
ag287
ag246
ag289
ag289
ag289
ag287
ag246
ag289
ag288
ag289
ag287
ag288
ag246
ag288
ag289
ag288
asS'um_after'
p292
(lp293
g289
ag288
ag289
ag289
ag289
ag288
ag288
ag287
ag288
ag289
aNag289
ag287
ag288
ag287
ag287
ag289
ag287
ag287
ag288
ag287
ag289
aNaNag288
aNag289
ag287
ag287
ag289
ag289
ag288
ag246
ag289
aNag289
ag287
ag288
ag287
ag287
ag289
ag289
ag287
ag246
ag288
ag246
ag246
ag287
ag246
ag289
ag289
ag289
ag287
ag246
ag289
ag288
ag289
ag287
ag288
aNag288
ag289
ag288
asS'is_normalized_entropy_less_than_threshold'
p294
(lp295
g50
(g51
(S'b1'
p296
I0
I1
tp297
Rp298
(I3
S'|'
p299
NNNI-1
I-1
I0
tp300
bS'\x00'
p301
tp302
Rp303
ag50
(g298
S'\x01'
p304
tp305
Rp306
ag306
ag303
ag303
ag306
ag306
ag303
ag303
ag303
ag306
ag306
ag303
ag306
ag303
ag306
ag303
ag306
ag303
ag306
ag303
ag303
ag306
ag306
ag306
ag306
ag306
ag303
ag303
ag303
ag306
ag306
ag303
ag303
ag306
ag306
ag303
ag306
ag306
ag303
ag306
ag303
ag306
ag306
ag306
ag303
ag303
ag306
ag306
ag303
ag306
ag306
ag306
ag306
ag303
ag306
ag306
ag303
ag306
ag306
ag306
ag306
ag306
asaa(lp307
S'index'
p308
aI101522
aatp309
Rp310
.