ccollections
OrderedDict
p0
((lp1
(lp2
S'combination_dict'
p3
ag0
((lp4
(lp5
S'r_to_g_config'
p6
aS'tl'
p7
aa(lp8
S'num_turns'
p9
aI3
aa(lp10
S'start_direction'
p11
acutils_ms
StartDirection
p12
(I1
tp13
Rp14
aa(lp15
S'assistance_type'
p16
acutils_ms
AssistanceType
p17
(I0
tp18
Rp19
aa(lp20
S'start_mode'
p21
aS'x'
p22
aa(lp23
S'ui_given_a_noise'
p24
aF0.5
aa(lp25
S'um_given_ui_noise'
p26
aF0.3
aa(lp27
S'entropy_threshold'
p28
aF0.6
aatp29
Rp30
aa(lp31
S'data'
p32
accollections
defaultdict
p33
(c__builtin__
list
p34
tp35
Rp36
S'a'
p37
(lp38
S'mode_r'
p39
aS'move_p'
p40
ag39
ag40
ag39
aS'mode_l'
p41
ag41
ag41
ag41
ag40
ag41
aS'move_n'
p42
ag41
ag40
ag41
ag41
ag40
ag41
ag40
ag41
ag41
ag40
ag39
ag41
ag42
asS'assistance_match_with_ground_truth'
p43
(lp44
I01
aI00
aI01
aI00
aI00
aI00
aI00
aI00
aI01
aI01
aI01
aI01
aI01
aI01
aI00
aI00
aI01
aI00
aI00
aI00
aI01
aI00
aI00
aI01
aI01
asS'is_u_intended_equals_um'
p45
(lp46
I01
aI01
aI01
aI01
aI01
aI00
aI00
aI00
aI01
aI01
aI01
aI01
aI01
aI01
aI01
aI00
aI01
aI00
aI00
aI01
aI01
aI01
aI01
aI01
aI01
asS'total_steps'
p47
I25
sS'normalized_h_of_p_ui_given_um'
p48
(lp49
cnumpy.core.multiarray
scalar
p50
(cnumpy
dtype
p51
(S'f8'
p52
I0
I1
tp53
Rp54
(I3
S'<'
p55
NNNI-1
I-1
I0
tp56
bS'\xf9r\x1fY\xc03\xc1?'
p57
tp58
Rp59
ag50
(g54
S'+\x8d\x7f\xd0Am\xc6?'
p60
tp61
Rp62
ag50
(g54
S'\xf9r\x1fY\xc03\xc1?'
p63
tp64
Rp65
ag50
(g54
S'+\x8d\x7f\xd0Am\xc6?'
p66
tp67
Rp68
ag50
(g54
S'Ee\xdb\xc0\xa3\xf6\xe0?'
p69
tp70
Rp71
ag50
(g54
S'\xe6\xbe\x15\xbb?\xf7\xe8?'
p72
tp73
Rp74
ag50
(g54
S'\xe6\xbe\x15\xbb?\xf7\xe8?'
p75
tp76
Rp77
ag50
(g54
S'\xe6\xbe\x15\xbb?\xf7\xe8?'
p78
tp79
Rp80
ag50
(g54
S'\x86&\xd7\x04\xea}\xc1?'
p81
tp82
Rp83
ag50
(g54
S'\xc1E4\x9b\x97\x9d\xca?'
p84
tp85
Rp86
ag50
(g54
S'\x86&\xd7\x04\xea}\xc1?'
p87
tp88
Rp89
ag50
(g54
S'\x006\xfa\xe0\xb1s\xe2?'
p90
tp91
Rp92
ag50
(g54
S'\x86&\xd7\x04\xea}\xc1?'
p93
tp94
Rp95
ag50
(g54
S'\xc1E4\x9b\x97\x9d\xca?'
p96
tp97
Rp98
ag50
(g54
S'~4!\xb3\xf0i\xe3?'
p99
tp100
Rp101
ag50
(g54
S'\xe6\xbe\x15\xbb?\xf7\xe8?'
p102
tp103
Rp104
ag50
(g54
S'\xc1E4\x9b\x97\x9d\xca?'
p105
tp106
Rp107
ag50
(g54
S'\xe6\xbe\x15\xbb?\xf7\xe8?'
p108
tp109
Rp110
ag50
(g54
S'\x1f\x855VB\x9c\xe3?'
p111
tp112
Rp113
ag50
(g54
S'~4!\xb3\xf0i\xe3?'
p114
tp115
Rp116
ag50
(g54
S'\x86&\xd7\x04\xea}\xc1?'
p117
tp118
Rp119
ag50
(g54
S'+\x8d\x7f\xd0Am\xc6?'
p120
tp121
Rp122
ag50
(g54
S'\x9d\x17\x91w(\xf4\xea?'
p123
tp124
Rp125
ag50
(g54
S'\x86&\xd7\x04\xea}\xc1?'
p126
tp127
Rp128
ag50
(g54
S'\x006\xfa\xe0\xb1s\xe2?'
p129
tp130
Rp131
asS'sp'
p132
(lp133
(S'p0'
p134
I0
S'y'
p135
tp136
a(g134
I0
S'x'
p137
tp138
ag136
ag138
a(g134
I0
S't'
p139
tp140
a(g134
I0
g139
tp141
ag141
ag141
a(g134
I0
g135
tp142
a(S'p1'
p143
I0
g135
tp144
a(g143
I0
g137
tp145
a(S'p2'
p146
I0
g137
tp147
a(g146
I0
g139
tp148
a(g146
F1.5707963267948966
g139
tp149
a(g146
F1.5707963267948966
g139
tp150
a(g146
I0
g139
tp151
ag149
ag151
a(g146
I0
g137
tp152
a(g146
I0
g137
tp153
ag148
a(g146
I0
g135
tp154
a(S'p3'
p155
I0
g135
tp156
a(g155
I0
g137
tp157
a(S'p4'
p158
I0
g137
tp159
asS's'
p160
(lp161
(g134
I0
g22
tp162
ag136
ag138
ag136
ag138
ag140
ag141
ag141
ag141
ag142
ag144
ag145
ag147
ag148
ag149
ag150
ag151
ag149
ag151
ag152
ag153
ag148
ag154
ag156
ag157
asS'ui'
p163
(lp164
S'hp'
p165
aS'hs'
p166
ag165
ag166
ag166
ag166
ag166
aS'ss'
p167
ag166
ag132
ag166
ag132
ag166
ag132
ag132
ag166
ag132
ag166
ag165
ag166
ag166
ag166
ag166
ag166
ag132
asS'um_before'
p168
(lp169
g165
ag166
ag165
ag166
ag166
ag167
ag167
ag167
ag166
ag132
ag166
ag167
ag166
ag132
ag132
ag167
ag132
ag167
ag165
ag132
ag166
ag166
ag132
ag166
ag167
asS'um_after'
p170
(lp171
g165
ag166
ag165
ag166
ag166
ag167
ag167
ag167
ag166
ag132
ag166
ag167
ag166
ag132
ag132
ag167
ag132
ag167
ag165
ag132
ag166
ag166
ag132
ag166
ag167
asS'is_normalized_entropy_less_than_threshold'
p172
(lp173
g50
(g51
(S'b1'
p174
I0
I1
tp175
Rp176
(I3
S'|'
p177
NNNI-1
I-1
I0
tp178
bS'\x01'
p179
tp180
Rp181
ag181
ag181
ag181
ag181
ag50
(g176
S'\x00'
p182
tp183
Rp184
ag184
ag184
ag181
ag181
ag181
ag181
ag181
ag181
ag184
ag184
ag181
ag184
ag184
ag184
ag181
ag181
ag184
ag181
ag181
asaa(lp185
S'index'
p186
aI53262
aatp187
Rp188
.