ccollections
OrderedDict
p0
((lp1
(lp2
S'combination_dict'
p3
ag0
((lp4
(lp5
S'r_to_g_config'
p6
aS'bl'
p7
aa(lp8
S'num_turns'
p9
aI1
aa(lp10
S'start_direction'
p11
acutils_ms
StartDirection
p12
(I0
tp13
Rp14
aa(lp15
S'assistance_type'
p16
acutils_ms
AssistanceType
p17
(I0
tp18
Rp19
aa(lp20
S'start_mode'
p21
aS'y'
p22
aa(lp23
S'ui_given_a_noise'
p24
aF0.5
aa(lp25
S'um_given_ui_noise'
p26
aF0.1
aa(lp27
S'entropy_threshold'
p28
aF0.5
aatp29
Rp30
aa(lp31
S'data'
p32
accollections
defaultdict
p33
(c__builtin__
list
p34
tp35
Rp36
S'a'
p37
(lp38
S'mode_l'
p39
aS'mode_r'
p40
aS'move_n'
p41
ag40
ag41
ag39
ag41
ag39
aS'move_p'
p42
ag42
ag40
ag40
ag42
ag40
ag39
ag39
ag39
ag39
ag39
ag40
ag42
ag39
ag41
asS'assistance_match_with_ground_truth'
p43
(lp44
I00
aI01
aI00
aI01
aI00
aI01
aI01
aI01
aI00
aI00
aI00
aI01
aI00
aI00
aI00
aI00
aI00
aI00
aI00
aI01
aI01
aI01
aI01
asS'is_u_intended_equals_um'
p45
(lp46
I01
aI01
aI01
aI01
aI01
aI01
aI01
aI01
aI01
aI01
aI00
aI01
aI01
aI01
aI01
aI01
aI01
aI01
aI01
aI01
aI01
aI01
aI01
asS'total_steps'
p47
I23
sS'normalized_h_of_p_ui_given_um'
p48
(lp49
cnumpy.core.multiarray
scalar
p50
(cnumpy
dtype
p51
(S'f8'
p52
I0
I1
tp53
Rp54
(I3
S'<'
p55
NNNI-1
I-1
I0
tp56
bS'\x12\x00\x7f\xb9\xf87\xe6?'
p57
tp58
Rp59
ag50
(g54
S'\xf5-\xedW7}\xa4?'
p60
tp61
Rp62
ag50
(g54
S'\xf4\x01\xb8\xb6\xd93\xd9?'
p63
tp64
Rp65
ag50
(g54
S'\xf5-\xedW7}\xa4?'
p66
tp67
Rp68
ag50
(g54
S'\x17\xb5\xac2\x16\xb8\xce?'
p69
tp70
Rp71
ag50
(g54
S'\xd4\xaa\xbeN&\xb3\xb4?'
p72
tp73
Rp74
ag50
(g54
S'\x1d0du\x07Y\xc9?'
p75
tp76
Rp77
ag50
(g54
S'\xd4\xaa\xbeN&\xb3\xb4?'
p78
tp79
Rp80
ag50
(g54
S'/\xec\x9c.O]\xe8?'
p81
tp82
Rp83
ag50
(g54
S'\x99\r?\x81\xe6\x1c\xd3?'
p84
tp85
Rp86
ag50
(g54
S'sl\x91\x08s\xbb\xd2?'
p87
tp88
Rp89
ag50
(g54
S'\xf5-\xedW7}\xa4?'
p90
tp91
Rp92
ag50
(g54
S'\x99\r?\x81\xe6\x1c\xd3?'
p93
tp94
Rp95
ag50
(g54
S'\xd7w\xfe\xb5\xc6\xa9\xd4?'
p96
tp97
Rp98
ag50
(g54
S'\x1a\xc9\t\x1b\\R\xda?'
p99
tp100
Rp101
ag50
(g54
S'J\xc4\xd4*\xc8\xec\xe2?'
p102
tp103
Rp104
ag50
(g54
S'\x1a\xc9\t\x1b\\R\xda?'
p105
tp106
Rp107
ag50
(g54
S'J\xc4\xd4*\xc8\xec\xe2?'
p108
tp109
Rp110
ag50
(g54
S'\x12\x00\x7f\xb9\xf87\xe6?'
p111
tp112
Rp113
ag50
(g54
S'\xf5-\xedW7}\xa4?'
p114
tp115
Rp116
ag50
(g54
S'\x08\xdbgr\xb1\x94\xbb?'
p117
tp118
Rp119
ag50
(g54
S'\xd4\xaa\xbeN&\xb3\xb4?'
p120
tp121
Rp122
ag50
(g54
S'\x1d0du\x07Y\xc9?'
p123
tp124
Rp125
asS'sp'
p126
(lp127
(S'p0'
p128
I0
S't'
p129
tp130
a(g128
I0
S'x'
p131
tp132
a(g128
I0
g129
tp133
ag132
a(g128
I0
S'y'
p134
tp135
a(g128
I0
g131
tp136
a(S'p1'
p137
I0
g131
tp138
a(g137
I0
g129
tp139
a(g137
I0
g129
tp140
a(g137
I0
g134
tp141
ag141
a(g137
I0
g129
tp142
ag141
a(g137
I0
g131
tp143
a(g137
I0
g131
tp144
a(g137
I0
g131
tp145
ag144
ag145
a(g137
I0
g134
tp146
ag142
a(g137
F1.5707963267948966
g129
tp147
a(g137
F1.5707963267948966
g134
tp148
a(S'p2'
p149
F1.5707963267948966
g134
tp150
asS's'
p151
(lp152
(g128
I0
g22
tp153
ag130
ag132
ag133
ag132
ag135
ag136
ag138
ag139
ag140
ag141
ag141
ag142
ag141
ag143
ag144
ag145
ag144
ag145
ag146
ag142
ag147
ag148
asS'ui'
p154
(lp155
S'hp'
p156
ag156
aS'hs'
p157
ag156
ag156
ag157
aS'ss'
p158
ag157
ag158
ag157
ag156
ag156
ag157
ag157
ag158
ag157
ag158
ag157
ag156
ag156
ag126
ag157
ag158
asS'um_before'
p159
(lp160
g156
ag156
ag157
ag156
ag156
ag157
ag158
ag157
ag158
ag157
ag158
ag156
ag157
ag157
ag158
ag126
ag158
ag126
ag156
ag156
ag126
ag157
ag158
asS'um_after'
p161
(lp162
g156
ag156
ag157
ag156
ag156
ag157
ag158
ag157
ag158
ag157
aNag156
ag157
ag157
ag158
ag126
ag158
ag126
ag156
ag156
ag126
ag157
ag158
asS'is_normalized_entropy_less_than_threshold'
p163
(lp164
g50
(g51
(S'b1'
p165
I0
I1
tp166
Rp167
(I3
S'|'
p168
NNNI-1
I-1
I0
tp169
bS'\x00'
p170
tp171
Rp172
ag50
(g167
S'\x01'
p173
tp174
Rp175
ag175
ag175
ag175
ag175
ag175
ag175
ag172
ag175
ag175
ag175
ag175
ag175
ag175
ag172
ag175
ag172
ag172
ag175
ag175
ag175
ag175
asaa(lp176
S'index'
p177
aI58806
aatp178
Rp179
.