ccollections
OrderedDict
p0
((lp1
(lp2
S'combination_dict'
p3
ag0
((lp4
(lp5
S'r_to_g_config'
p6
aS'tl'
p7
aa(lp8
S'num_turns'
p9
aI3
aa(lp10
S'start_direction'
p11
acutils_ms
StartDirection
p12
(I0
tp13
Rp14
aa(lp15
S'assistance_type'
p16
acutils_ms
AssistanceType
p17
(I1
tp18
Rp19
aa(lp20
S'start_mode'
p21
aS'y'
p22
aa(lp23
S'ui_given_a_noise'
p24
aF0.3
aa(lp25
S'um_given_ui_noise'
p26
aF0.7
aa(lp27
S'entropy_threshold'
p28
aF0.5
aatp29
Rp30
aa(lp31
S'data'
p32
accollections
defaultdict
p33
(c__builtin__
list
p34
tp35
Rp36
S'a'
p37
(lp38
S'mode_l'
p39
aS'move_n'
p40
aS'mode_r'
p41
aS'move_p'
p42
ag39
ag40
ag41
ag41
ag41
ag41
ag41
ag41
ag41
ag42
ag39
ag40
ag41
ag42
ag41
ag42
ag39
ag41
ag40
ag39
ag42
ag39
ag42
asS'assistance_match_with_ground_truth'
p43
(lp44
I01
aI01
aI01
aI00
aI01
aI01
aI00
aI00
aI00
aI00
aI00
aI00
aI01
aI01
aI01
aI00
aI01
aI00
aI01
aI01
aI00
aI01
aI01
aI01
aI01
aI01
aI01
asS'is_u_intended_equals_um'
p45
(lp46
I01
aI01
aI01
aI01
aI00
aI01
aI00
aI00
aI00
aI00
aI00
aI00
aI01
aI01
aI00
aI00
aI01
aI00
aI01
aI00
aI00
aI01
aI01
aI01
aI01
aI01
aI00
asS'total_steps'
p47
I27
sS'normalized_h_of_p_ui_given_um'
p48
(lp49
cnumpy.core.multiarray
scalar
p50
(cnumpy
dtype
p51
(S'f8'
p52
I0
I1
tp53
Rp54
(I3
S'<'
p55
NNNI-1
I-1
I0
tp56
bS';\xda\x8ae\xfe\x8c\xca?'
p57
tp58
Rp59
ag50
(g54
S'\xccJ3\xafZ\x85\xd4?'
p60
tp61
Rp62
ag50
(g54
S'\x12\x1dg!\x83\x0f\xdb?'
p63
tp64
Rp65
ag50
(g54
S'\x82\xbaB\xc9\xbc\xe3\xe3?'
p66
tp67
Rp68
ag50
(g54
S'\r\xc6\xc2U\x16\xe8\xdd?'
p69
tp70
Rp71
ag50
(g54
S'\xccJ3\xafZ\x85\xd4?'
p72
tp73
Rp74
ag50
(g54
S'Y4\xbb#\x8d\xde\xe1?'
p75
tp76
Rp77
ag50
(g54
S'Y4\xbb#\x8d\xde\xe1?'
p78
tp79
Rp80
ag50
(g54
S'Y4\xbb#\x8d\xde\xe1?'
p81
tp82
Rp83
ag50
(g54
S'Y4\xbb#\x8d\xde\xe1?'
p84
tp85
Rp86
ag50
(g54
S'Y4\xbb#\x8d\xde\xe1?'
p87
tp88
Rp89
ag50
(g54
S'\xd6\xf5\x83\x08e\x1a\xed?'
p90
tp91
Rp92
ag50
(g54
S'\x12\x1dg!\x83\x0f\xdb?'
p93
tp94
Rp95
ag50
(g54
S'p\xcf\xf7)\x7f\xc9\xd2?'
p96
tp97
Rp98
ag50
(g54
S'\r\xc6\xc2U\x16\xe8\xdd?'
p99
tp100
Rp101
ag50
(g54
S'\x06a\xcf\x12rp\xe8?'
p102
tp103
Rp104
ag50
(g54
S'\x12\x1dg!\x83\x0f\xdb?'
p105
tp106
Rp107
ag50
(g54
S'\xd0f|\x93\xfcG\xe4?'
p108
tp109
Rp110
ag50
(g54
S'\x12\x1dg!\x83\x0f\xdb?'
p111
tp112
Rp113
ag50
(g54
S'\xe0\xe8\xed]p\xa7\xd5?'
p114
tp115
Rp116
ag50
(g54
S'\xa1!Q\x88A^\xe6?'
p117
tp118
Rp119
ag50
(g54
S'\x12\x1dg!\x83\x0f\xdb?'
p120
tp121
Rp122
ag50
(g54
S'\xccJ3\xafZ\x85\xd4?'
p123
tp124
Rp125
ag50
(g54
S';\xda\x8ae\xfe\x8c\xca?'
p126
tp127
Rp128
ag50
(g54
S'p\xcf\xf7)\x7f\xc9\xd2?'
p129
tp130
Rp131
ag50
(g54
S';\xda\x8ae\xfe\x8c\xca?'
p132
tp133
Rp134
ag50
(g54
S'\xe0\xe8\xed]p\xa7\xd5?'
p135
tp136
Rp137
asS'sp'
p138
(lp139
(S'p0'
p140
I0
S'x'
p141
tp142
a(S'p1'
p143
I0
g141
tp144
a(g143
I0
S'y'
p145
tp146
a(g140
I0
g145
tp147
ag142
ag144
a(g143
I0
g141
tp148
ag148
ag148
ag148
ag148
a(g143
I0
g141
tp149
ag146
a(S'p2'
p150
I0
g145
tp151
a(g150
I0
g141
tp152
a(g143
I0
g141
tp153
ag146
a(g143
I0
g141
tp154
ag146
ag151
a(g150
I0
S't'
p155
tp156
a(g150
I0
g141
tp157
a(S'p3'
p158
I0
g141
tp159
a(g158
I0
g155
tp160
a(g158
F1.5707963267948966
g155
tp161
a(g158
F1.5707963267948966
g145
tp162
a(S'p4'
p163
F1.5707963267948966
g145
tp164
asS's'
p165
(lp166
(g140
I0
g22
tp167
ag142
ag144
ag146
ag147
ag142
ag144
ag148
ag148
ag148
ag148
ag148
ag149
ag146
ag151
ag152
ag153
ag146
ag154
ag146
ag151
ag156
ag157
ag159
ag160
ag161
ag162
asS'ui'
p168
(lp169
S'hs'
p170
aS'ss'
p171
ag170
ag171
ag170
ag171
aS'hp'
p172
ag172
ag138
ag138
ag172
ag171
ag138
ag138
ag170
ag172
ag172
ag171
ag172
ag138
ag138
ag172
ag171
ag170
ag138
ag170
ag138
asS'um_before'
p173
(lp174
g170
ag171
ag172
ag171
ag171
ag171
ag138
ag138
ag138
ag138
ag138
ag171
ag172
ag138
ag171
ag138
ag172
ag170
ag172
ag172
ag172
ag172
ag171
ag170
ag138
ag170
ag172
asS'um_after'
p175
(lp176
g170
ag171
ag172
ag171
ag170
ag171
ag138
ag138
ag138
ag138
ag138
ag171
ag172
ag138
ag170
ag138
ag172
ag170
ag172
ag138
ag172
ag172
ag171
ag170
ag138
ag170
ag138
asS'is_normalized_entropy_less_than_threshold'
p177
(lp178
g50
(g51
(S'b1'
p179
I0
I1
tp180
Rp181
(I3
S'|'
p182
NNNI-1
I-1
I0
tp183
bS'\x01'
p184
tp185
Rp186
ag186
ag186
ag50
(g181
S'\x00'
p187
tp188
Rp189
ag186
ag186
ag189
ag189
ag189
ag189
ag189
ag189
ag186
ag186
ag186
ag189
ag186
ag189
ag186
ag186
ag189
ag186
ag186
ag186
ag186
ag186
ag186
asaa(lp190
S'index'
p191
aI50754
aatp192
Rp193
.