ccollections
OrderedDict
p0
((lp1
(lp2
S'combination_dict'
p3
ag0
((lp4
(lp5
S'r_to_g_config'
p6
aS'tr'
p7
aa(lp8
S'num_turns'
p9
aI1
aa(lp10
S'start_direction'
p11
acutils_ms
StartDirection
p12
(I1
tp13
Rp14
aa(lp15
S'assistance_type'
p16
acutils_ms
AssistanceType
p17
(I2
tp18
Rp19
aa(lp20
S'start_mode'
p21
aS't'
p22
aa(lp23
S'ui_given_a_noise'
p24
aF0.7
aa(lp25
S'um_given_ui_noise'
p26
aF0.5
aa(lp27
S'entropy_threshold'
p28
aF0.9
aatp29
Rp30
aa(lp31
S'data'
p32
accollections
defaultdict
p33
(c__builtin__
list
p34
tp35
Rp36
S'a'
p37
(lp38
S'mode_l'
p39
ag39
ag39
ag39
aS'move_p'
p40
aS'mode_r'
p41
ag41
ag41
ag39
ag40
ag39
ag40
ag41
ag40
ag41
ag39
ag40
ag41
ag40
ag39
ag40
ag39
ag39
ag39
ag40
ag41
ag41
ag39
ag40
ag39
ag40
ag41
ag41
ag41
ag39
ag40
ag41
ag41
ag40
ag41
ag41
ag41
ag40
ag39
ag39
ag40
ag41
ag40
ag41
ag40
ag39
ag41
ag40
ag41
ag40
ag41
ag39
ag40
ag41
ag40
ag41
ag41
ag39
ag39
ag40
ag41
ag41
ag40
ag41
ag40
ag39
ag41
ag40
ag39
ag40
ag41
ag41
ag41
ag41
ag40
ag39
ag41
ag40
ag41
ag39
ag41
ag40
ag40
ag41
ag40
ag41
ag40
ag41
ag39
ag40
ag41
ag40
ag41
ag41
ag39
ag39
ag40
asS'assistance_match_with_ground_truth'
p42
(lp43
I00
aI00
aI00
aI01
aI01
aI00
aI00
aI00
aI01
aI00
aI01
aI00
aI01
aI00
aI00
aI01
aI01
aI01
aI00
aI01
aI00
aI00
aI00
aI01
aI00
aI00
aI00
aI01
aI01
aI01
aI00
aI00
aI00
aI00
aI01
aI00
aI00
aI01
aI00
aI00
aI00
aI01
aI01
aI00
aI01
aI00
aI01
aI00
aI00
aI00
aI00
aI01
aI01
aI01
aI00
aI00
aI01
aI01
aI00
aI01
aI00
aI00
aI00
aI01
aI00
aI00
aI01
aI00
aI01
aI00
aI00
aI01
aI00
aI01
aI00
aI00
aI00
aI00
aI01
aI01
aI00
aI00
aI00
aI00
aI00
aI01
aI00
aI00
aI01
aI01
aI01
aI01
aI00
aI01
aI00
aI00
aI01
aI00
aI00
aI00
aI01
aI01
asS'is_u_intended_equals_um'
p44
(lp45
I00
aI00
aI00
aI00
aI00
aI00
aI00
aI00
aI00
aI00
aI00
aI00
aI00
aI00
aI00
aI00
aI00
aI00
aI00
aI00
aI00
aI00
aI00
aI00
aI00
aI00
aI00
aI00
aI00
aI00
aI00
aI00
aI00
aI00
aI00
aI00
aI00
aI00
aI00
aI00
aI00
aI00
aI00
aI00
aI00
aI00
aI00
aI00
aI00
aI00
aI00
aI00
aI00
aI00
aI00
aI00
aI00
aI00
aI00
aI00
aI00
aI00
aI00
aI00
aI00
aI00
aI00
aI00
aI00
aI00
aI00
aI00
aI00
aI00
aI00
aI00
aI00
aI00
aI00
aI00
aI00
aI00
aI00
aI00
aI00
aI00
aI00
aI00
aI00
aI00
aI00
aI00
aI00
aI00
aI00
aI00
aI00
aI00
aI00
aI00
aI00
aI00
asS'total_steps'
p46
I102
sS'normalized_h_of_p_ui_given_um'
p47
(lp48
cnumpy.core.multiarray
scalar
p49
(cnumpy
dtype
p50
(S'f8'
p51
I0
I1
tp52
Rp53
(I3
S'<'
p54
NNNI-1
I-1
I0
tp55
bS'\xcd\x1bS\xf3f\xf5\xea?'
p56
tp57
Rp58
ag58
ag58
ag58
ag58
ag58
ag58
ag58
ag58
ag58
ag58
ag58
ag58
ag58
ag58
ag58
ag58
ag58
ag58
ag58
ag58
ag58
ag58
ag58
ag58
ag58
ag58
ag58
ag58
ag58
ag58
ag58
ag58
ag58
ag58
ag58
ag58
ag58
ag58
ag58
ag58
ag58
ag58
ag58
ag58
ag58
ag58
ag58
ag58
ag58
ag58
ag58
ag58
ag58
ag58
ag58
ag58
ag58
ag58
ag58
ag58
ag58
ag58
ag58
ag58
ag58
ag58
ag58
ag58
ag58
ag58
ag58
ag58
ag58
ag58
ag58
ag58
ag58
ag58
ag58
ag58
ag58
ag58
ag58
ag58
ag58
ag58
ag58
ag58
ag58
ag58
ag58
ag58
ag58
ag58
ag58
ag58
ag58
ag58
ag58
ag58
ag58
asS'sp'
p59
(lp60
(S'p0'
p61
I0
S't'
p62
tp63
ag63
ag63
a(g61
I0
S'y'
p64
tp65
a(S'p1'
p66
I0
g64
tp67
a(g66
I0
g64
tp68
ag68
a(g66
I0
S'x'
p69
tp70
a(g66
I0
g62
tp71
a(g66
I0
g69
tp72
ag71
a(g66
I0
g64
tp73
a(g66
I0
g62
tp74
ag73
ag70
ag71
a(g66
F1.5707963267948966
g62
tp75
a(g66
F1.5707963267948966
g69
tp76
a(g66
F1.5707963267948966
g64
tp77
a(g66
F1.5707963267948966
g69
tp78
ag77
a(g66
F1.5707963267948966
g64
tp79
a(g66
F1.5707963267948966
g64
tp80
ag78
a(g61
F1.5707963267948966
g69
tp81
a(g61
F1.5707963267948966
g69
tp82
a(g61
F1.5707963267948966
g62
tp83
a(g61
F1.5707963267948966
g64
tp84
a(g66
F1.5707963267948966
g64
tp85
ag78
ag81
ag82
a(g61
F1.5707963267948966
g69
tp86
ag83
ag84
a(g61
F1.5707963267948966
g69
tp87
ag86
a(g61
F1.5707963267948966
g64
tp88
ag87
ag86
ag82
ag88
ag85
ag79
ag78
a(g66
F1.5707963267948966
g62
tp89
ag76
ag89
a(g66
I0
g62
tp90
ag72
a(g61
I0
g69
tp91
a(g61
I0
g64
tp92
ag67
ag74
ag73
ag70
ag71
ag75
ag90
ag75
a(g66
F1.5707963267948966
g62
tp93
a(g66
F1.5707963267948966
g64
tp94
ag80
ag78
ag89
ag93
ag76
ag89
ag76
ag77
a(g66
F1.5707963267948966
g62
tp95
ag76
ag77
ag78
ag81
ag86
ag86
ag86
ag88
ag85
ag95
ag90
ag73
ag70
ag91
ag92
a(g61
I0
g64
tp96
a(g61
I0
g69
tp97
ag92
ag67
ag74
ag75
ag94
ag78
ag89
ag90
ag75
ag93
ag94
ag79
ag78
a(S'p2'
p98
F1.5707963267948966
g69
tp99
asS's'
p100
(lp101
(g61
I0
g22
tp102
ag63
ag63
ag63
ag65
ag67
ag68
ag68
ag70
ag71
ag72
ag71
ag73
ag74
ag73
ag70
ag71
ag75
ag76
ag77
ag78
ag77
ag79
ag80
ag78
ag81
ag82
ag83
ag84
ag85
ag78
ag81
ag82
ag86
ag83
ag84
ag87
ag86
ag88
ag87
ag86
ag82
ag88
ag85
ag79
ag78
ag89
ag76
ag89
ag90
ag72
ag91
ag92
ag67
ag74
ag73
ag70
ag71
ag75
ag90
ag75
ag93
ag94
ag80
ag78
ag89
ag93
ag76
ag89
ag76
ag77
ag95
ag76
ag77
ag78
ag81
ag86
ag86
ag86
ag88
ag85
ag95
ag90
ag73
ag70
ag91
ag92
ag96
ag97
ag92
ag67
ag74
ag75
ag94
ag78
ag89
ag90
ag75
ag93
ag94
ag79
ag78
asS'ui'
p103
(lp104
S'hs'
p105
ag105
ag59
ag105
ag59
aS'ss'
p106
aS'hp'
p107
ag105
ag105
ag105
ag105
ag107
ag107
ag59
ag107
ag105
ag59
ag107
ag105
ag105
ag59
ag106
ag59
ag106
ag106
ag106
ag59
ag105
ag59
ag107
ag106
ag106
ag59
ag105
ag105
ag59
ag59
ag105
ag105
ag59
ag59
ag107
ag59
ag106
ag105
ag59
ag107
ag59
ag106
ag59
ag106
ag107
ag59
ag107
ag106
ag105
ag59
ag59
ag107
ag105
ag59
ag105
ag59
ag105
ag105
ag59
ag106
ag59
ag107
ag105
ag106
ag107
ag107
ag105
ag107
ag107
ag59
ag107
ag107
ag59
ag105
ag106
ag59
ag107
ag106
ag105
ag106
ag105
ag107
ag59
ag107
ag59
ag105
ag59
ag105
ag106
ag59
ag59
ag107
ag106
ag105
ag106
asS'um_before'
p108
(lp109
g59
ag59
ag59
ag105
ag59
ag106
ag106
ag105
ag105
ag107
ag105
ag105
ag107
ag105
ag105
ag105
ag59
ag107
ag107
ag105
ag107
ag106
ag59
ag105
ag106
ag106
ag105
ag105
ag59
ag105
ag106
ag106
ag59
ag105
ag105
ag105
ag59
ag107
ag105
ag59
ag106
ag107
ag59
ag106
ag105
ag105
ag107
ag105
ag106
ag107
ag106
ag107
ag59
ag107
ag105
ag105
ag105
ag59
ag106
ag59
ag59
ag105
ag59
ag105
ag105
ag59
ag107
ag105
ag107
ag107
ag107
ag107
ag107
ag105
ag106
ag59
ag59
ag59
ag107
ag59
ag107
ag106
ag105
ag105
ag106
ag107
ag106
ag105
ag107
ag59
ag107
ag59
ag105
ag105
ag105
ag106
ag59
ag59
ag105
ag106
ag105
ag59
asS'um_after'
p110
(lp111
g59
ag59
ag59
ag105
ag59
ag106
ag106
ag105
ag105
ag107
ag105
ag105
ag107
ag105
ag105
ag105
ag59
ag107
ag107
ag105
ag107
ag106
ag59
ag105
ag106
ag106
ag105
ag105
ag59
ag105
ag106
ag106
ag59
ag105
ag105
ag105
ag59
ag107
ag105
ag59
ag106
ag107
ag59
ag106
ag105
ag105
ag107
ag105
ag106
ag107
ag106
ag107
ag59
ag107
ag105
ag105
ag105
ag59
ag106
ag59
ag59
ag105
ag59
ag105
ag105
ag59
ag107
ag105
ag107
ag107
ag107
ag107
ag107
ag105
ag106
ag59
ag59
ag59
ag107
ag59
ag107
ag106
ag105
ag105
ag106
ag107
ag106
ag105
ag107
ag59
ag107
ag59
ag105
ag105
ag105
ag106
ag59
ag59
ag105
ag106
ag105
ag59
asS'is_normalized_entropy_less_than_threshold'
p112
(lp113
g49
(g50
(S'b1'
p114
I0
I1
tp115
Rp116
(I3
S'|'
p117
NNNI-1
I-1
I0
tp118
bS'\x01'
p119
tp120
Rp121
ag121
ag121
ag121
ag121
ag121
ag121
ag121
ag121
ag121
ag121
ag121
ag121
ag121
ag121
ag121
ag121
ag121
ag121
ag121
ag121
ag121
ag121
ag121
ag121
ag121
ag121
ag121
ag121
ag121
ag121
ag121
ag121
ag121
ag121
ag121
ag121
ag121
ag121
ag121
ag121
ag121
ag121
ag121
ag121
ag121
ag121
ag121
ag121
ag121
ag121
ag121
ag121
ag121
ag121
ag121
ag121
ag121
ag121
ag121
ag121
ag121
ag121
ag121
ag121
ag121
ag121
ag121
ag121
ag121
ag121
ag121
ag121
ag121
ag121
ag121
ag121
ag121
ag121
ag121
ag121
ag121
ag121
ag121
ag121
ag121
ag121
ag121
ag121
ag121
ag121
ag121
ag121
ag121
ag121
ag121
ag121
ag121
ag121
ag121
ag121
ag121
asaa(lp122
S'index'
p123
aI9547
aatp124
Rp125
.