ccollections
OrderedDict
p0
((lp1
(lp2
S'combination_dict'
p3
ag0
((lp4
(lp5
S'r_to_g_config'
p6
aS'tl'
p7
aa(lp8
S'num_turns'
p9
aI3
aa(lp10
S'start_direction'
p11
acutils_ms
StartDirection
p12
(I1
tp13
Rp14
aa(lp15
S'assistance_type'
p16
acutils_ms
AssistanceType
p17
(I1
tp18
Rp19
aa(lp20
S'start_mode'
p21
aS'x'
p22
aa(lp23
S'ui_given_a_noise'
p24
aF0.3
aa(lp25
S'um_given_ui_noise'
p26
aF0.1
aa(lp27
S'entropy_threshold'
p28
aF0.9
aatp29
Rp30
aa(lp31
S'data'
p32
accollections
defaultdict
p33
(c__builtin__
list
p34
tp35
Rp36
S'a'
p37
(lp38
S'mode_r'
p39
aS'move_p'
p40
aS'mode_l'
p41
ag40
ag39
ag41
ag40
ag41
ag40
ag40
ag40
ag41
aS'move_n'
p42
ag41
ag39
ag40
ag41
ag39
ag40
ag41
ag39
ag40
ag41
ag42
asS'assistance_match_with_ground_truth'
p43
(lp44
I01
aI00
aI01
aI00
aI00
aI01
aI00
aI01
aI00
aI00
aI01
aI01
aI01
aI00
aI01
aI00
aI00
aI01
aI01
aI00
aI01
aI01
aI01
aI01
asS'is_u_intended_equals_um'
p45
(lp46
I01
aI01
aI01
aI01
aI01
aI01
aI01
aI01
aI01
aI01
aI01
aI01
aI01
aI01
aI00
aI01
aI01
aI01
aI01
aI01
aI01
aI01
aI01
aI00
asS'total_steps'
p47
I24
sS'normalized_h_of_p_ui_given_um'
p48
(lp49
cnumpy.core.multiarray
scalar
p50
(cnumpy
dtype
p51
(S'f8'
p52
I0
I1
tp53
Rp54
(I3
S'<'
p55
NNNI-1
I-1
I0
tp56
bS'@\xd4N\x18\x83o\xae?'
p57
tp58
Rp59
ag50
(g54
S'\xe6\xb0\x1b\xea\xb1H\xd8?'
p60
tp61
Rp62
ag50
(g54
S'\x08\x1b\xc7\xfdn\x0e\xc3?'
p63
tp64
Rp65
ag50
(g54
S'U\xeb3\xc3\x83\xf3\xea?'
p66
tp67
Rp68
ag50
(g54
S'>\x99z\x8e\x12\x82\xdf?'
p69
tp70
Rp71
ag50
(g54
S'\x08\x1b\xc7\xfdn\x0e\xc3?'
p72
tp73
Rp74
ag50
(g54
S'\xe6\xb0\x1b\xea\xb1H\xd8?'
p75
tp76
Rp77
ag50
(g54
S'\x08\x1b\xc7\xfdn\x0e\xc3?'
p78
tp79
Rp80
ag50
(g54
S'~\xac\x08$\x98\xcf\xe6?'
p81
tp82
Rp83
ag50
(g54
S'~\xac\x08$\x98\xcf\xe6?'
p84
tp85
Rp86
ag50
(g54
S'\x03A\xea+\x1c\x12\xb4?'
p87
tp88
Rp89
ag50
(g54
S'\x08\x1b\xc7\xfdn\x0e\xc3?'
p90
tp91
Rp92
ag50
(g54
S'\xd8\x90\xe7\xafo\xfb\xab?'
p93
tp94
Rp95
ag50
(g54
S'\x90\xd7\xdc{\xa43\xe1?'
p96
tp97
Rp98
ag50
(g54
S'\xec\xc9\x18_tX\xe4?'
p99
tp100
Rp101
ag50
(g54
S'\xe6\xb0\x1b\xea\xb1H\xd8?'
p102
tp103
Rp104
ag50
(g54
S'\x90\xd7\xdc{\xa43\xe1?'
p105
tp106
Rp107
ag50
(g54
S'@\xd4N\x18\x83o\xae?'
p108
tp109
Rp110
ag50
(g54
S'\x03A\xea+\x1c\x12\xb4?'
p111
tp112
Rp113
ag50
(g54
S'\x90\xd7\xdc{\xa43\xe1?'
p114
tp115
Rp116
ag50
(g54
S'@\xd4N\x18\x83o\xae?'
p117
tp118
Rp119
ag50
(g54
S'\x03A\xea+\x1c\x12\xb4?'
p120
tp121
Rp122
ag50
(g54
S'\x08\x1b\xc7\xfdn\x0e\xc3?'
p123
tp124
Rp125
ag50
(g54
S'\x00\xb3\x92\xe6{\n\xe2?'
p126
tp127
Rp128
asS'sp'
p129
(lp130
(S'p0'
p131
I0
S'y'
p132
tp133
a(g131
I0
S't'
p134
tp135
a(g131
I0
g132
tp136
a(g131
I0
S'x'
p137
tp138
a(g131
I0
g134
tp139
ag136
ag135
ag136
a(g131
I0
g132
tp140
ag140
a(S'p1'
p141
I0
g132
tp142
a(g141
I0
g137
tp143
a(S'p2'
p144
I0
g137
tp145
a(g144
I0
g132
tp146
a(g144
I0
g134
tp147
a(g144
I0
g137
tp148
ag146
ag147
a(g144
F1.5707963267948966
g134
tp149
a(g144
F1.5707963267948966
g137
tp150
a(g144
F1.5707963267948966
g132
tp151
a(S'p3'
p152
F1.5707963267948966
g132
tp153
a(g152
F1.5707963267948966
g137
tp154
a(S'p4'
p155
F1.5707963267948966
g137
tp156
asS's'
p157
(lp158
(g131
I0
g22
tp159
ag133
ag135
ag136
ag138
ag139
ag136
ag135
ag136
ag140
ag140
ag142
ag143
ag145
ag146
ag147
ag148
ag146
ag147
ag149
ag150
ag151
ag153
ag154
asS'ui'
p160
(lp161
S'hp'
p162
ag162
aS'hs'
p163
ag129
ag163
ag163
ag162
ag163
aS'ss'
p164
ag164
ag129
ag163
ag164
ag162
ag162
ag162
ag162
ag162
ag129
ag162
ag162
ag129
ag163
ag164
asS'um_before'
p165
(lp166
g162
ag162
ag163
ag163
ag163
ag163
ag162
ag163
ag164
ag164
ag129
ag163
ag164
ag162
ag164
ag162
ag162
ag162
ag129
ag162
ag162
ag129
ag163
ag162
asS'um_after'
p167
(lp168
g162
ag162
ag163
ag163
ag163
ag163
ag162
ag163
ag164
ag164
ag129
ag163
ag164
ag162
ag162
ag162
ag162
ag162
ag129
ag162
ag162
ag129
ag163
ag164
asS'is_normalized_entropy_less_than_threshold'
p169
(lp170
g50
(g51
(S'b1'
p171
I0
I1
tp172
Rp173
(I3
S'|'
p174
NNNI-1
I-1
I0
tp175
bS'\x01'
p176
tp177
Rp178
ag178
ag178
ag178
ag178
ag178
ag178
ag178
ag178
ag178
ag178
ag178
ag178
ag178
ag178
ag178
ag178
ag178
ag178
ag178
ag178
ag178
ag178
ag178
asaa(lp179
S'index'
p180
aI54649
aatp181
Rp182
.