ccollections
OrderedDict
p0
((lp1
(lp2
S'combination_dict'
p3
ag0
((lp4
(lp5
S'r_to_g_config'
p6
aS'bl'
p7
aa(lp8
S'num_turns'
p9
aI2
aa(lp10
S'start_direction'
p11
acutils_ms
StartDirection
p12
(I1
tp13
Rp14
aa(lp15
S'assistance_type'
p16
acutils_ms
AssistanceType
p17
(I0
tp18
Rp19
aa(lp20
S'start_mode'
p21
aS'x'
p22
aa(lp23
S'ui_given_a_noise'
p24
aF0.7
aa(lp25
S'um_given_ui_noise'
p26
aF0.7
aa(lp27
S'entropy_threshold'
p28
aF0.8
aatp29
Rp30
aa(lp31
S'data'
p32
accollections
defaultdict
p33
(c__builtin__
list
p34
tp35
Rp36
S'a'
p37
(lp38
S'mode_r'
p39
aS'move_n'
p40
aS'mode_l'
p41
ag41
ag41
ag39
ag39
ag40
ag41
ag39
ag39
ag41
ag40
ag39
ag39
ag41
ag40
ag39
ag39
ag40
ag39
ag40
ag39
ag41
ag41
ag39
ag39
ag41
ag39
ag39
ag40
ag40
ag41
ag41
ag41
ag40
ag41
ag41
ag41
ag41
ag39
ag39
ag41
ag39
ag39
ag40
ag41
ag39
ag39
ag41
ag41
ag39
ag41
ag39
ag41
ag41
ag41
ag39
ag39
ag39
ag39
ag40
ag39
ag39
ag40
ag39
ag40
ag40
ag41
ag39
ag39
ag39
ag39
ag40
ag41
ag40
ag41
ag40
ag41
aS'move_p'
p42
ag41
ag42
ag41
ag41
ag41
ag39
ag42
ag41
ag40
asS'assistance_match_with_ground_truth'
p43
(lp44
I01
aI00
aI00
aI00
aI00
aI00
aI01
aI01
aI00
aI00
aI00
aI01
aI00
aI00
aI00
aI01
aI00
aI00
aI01
aI00
aI01
aI00
aI00
aI00
aI00
aI00
aI00
aI00
aI00
aI01
aI00
aI00
aI00
aI00
aI01
aI01
aI00
aI00
aI00
aI00
aI00
aI00
aI00
aI00
aI01
aI00
aI00
aI00
aI00
aI00
aI00
aI00
aI00
aI00
aI00
aI00
aI00
aI00
aI00
aI00
aI01
aI00
aI00
aI01
aI00
aI01
aI00
aI00
aI00
aI00
aI00
aI00
aI01
aI01
aI01
aI00
aI01
aI01
aI01
aI00
aI01
aI00
aI00
aI00
aI00
aI01
aI01
aI01
aI01
asS'is_u_intended_equals_um'
p45
(lp46
I01
aI00
aI00
aI01
aI00
aI00
aI01
aI01
aI00
aI00
aI01
aI01
aI01
aI00
aI01
aI01
aI01
aI00
aI01
aI01
aI01
aI01
aI01
aI01
aI00
aI00
aI01
aI00
aI00
aI01
aI01
aI00
aI00
aI01
aI01
aI01
aI01
aI00
aI01
aI00
aI00
aI01
aI00
aI00
aI01
aI00
aI00
aI00
aI01
aI01
aI00
aI01
aI00
aI01
aI01
aI00
aI00
aI00
aI00
aI00
aI01
aI01
aI00
aI01
aI01
aI01
aI01
aI00
aI00
aI00
aI00
aI00
aI01
aI01
aI01
aI00
aI01
aI01
aI01
aI01
aI01
aI01
aI01
aI00
aI00
aI01
aI01
aI01
aI01
asS'total_steps'
p47
I89
sS'normalized_h_of_p_ui_given_um'
p48
(lp49
cnumpy.core.multiarray
scalar
p50
(cnumpy
dtype
p51
(S'f8'
p52
I0
I1
tp53
Rp54
(I3
S'<'
p55
NNNI-1
I-1
I0
tp56
bS'\x0f\x9by\x0b\xa6E\xde?'
p57
tp58
Rp59
ag50
(g54
S':H\xbbl\xeb\xcb\xed?'
p60
tp61
Rp62
ag50
(g54
S'J\x18\x12\x9a\xa9\xc6\xee?'
p63
tp64
Rp65
ag50
(g54
S'\xd9Z\xa3\xa1I\x98\xeb?'
p66
tp67
Rp68
ag50
(g54
S'\xd9\xdc\x90#\xc2\xfd\xe9?'
p69
tp70
Rp71
ag50
(g54
S'\xa3\xed\xb3\xc1\xbc7\xe6?'
p72
tp73
Rp74
ag50
(g54
S'\x0f\x9by\x0b\xa6E\xde?'
p75
tp76
Rp77
ag50
(g54
S']|\xee(]\xef\xe7?'
p78
tp79
Rp80
ag50
(g54
S'\xd9\xdc\x90#\xc2\xfd\xe9?'
p81
tp82
Rp83
ag50
(g54
S'\xa3\xed\xb3\xc1\xbc7\xe6?'
p84
tp85
Rp86
ag50
(g54
S'0U\xbe\x86d@\xde?'
p87
tp88
Rp89
ag50
(g54
S'\x80\x0e\xdc\xc1O\n\xe3?'
p90
tp91
Rp92
ag50
(g54
S'\xb0\x8d\x9bT\x82\xec\xec?'
p93
tp94
Rp95
ag50
(g54
S'\n\x84H\xf9H\xd4\xec?'
p96
tp97
Rp98
ag50
(g54
S'0U\xbe\x86d@\xde?'
p99
tp100
Rp101
ag50
(g54
S'\x80\x0e\xdc\xc1O\n\xe3?'
p102
tp103
Rp104
ag50
(g54
S'>\x13\xdd\x80\xc3\xc7\xe7?'
p105
tp106
Rp107
ag50
(g54
S'\xa3\xed\xb3\xc1\xbc7\xe6?'
p108
tp109
Rp110
ag50
(g54
S'\x0f\x9by\x0b\xa6E\xde?'
p111
tp112
Rp113
ag50
(g54
S'>\x13\xdd\x80\xc3\xc7\xe7?'
p114
tp115
Rp116
ag50
(g54
S'\x0f\x9by\x0b\xa6E\xde?'
p117
tp118
Rp119
ag50
(g54
S'>\x13\xdd\x80\xc3\xc7\xe7?'
p120
tp121
Rp122
ag50
(g54
S'0U\xbe\x86d@\xde?'
p123
tp124
Rp125
ag50
(g54
S'\xd9Z\xa3\xa1I\x98\xeb?'
p126
tp127
Rp128
ag50
(g54
S'\xd9\xdc\x90#\xc2\xfd\xe9?'
p129
tp130
Rp131
ag50
(g54
S'\xa3\xed\xb3\xc1\xbc7\xe6?'
p132
tp133
Rp134
ag50
(g54
S'0U\xbe\x86d@\xde?'
p135
tp136
Rp137
ag50
(g54
S'\xd9\xdc\x90#\xc2\xfd\xe9?'
p138
tp139
Rp140
ag50
(g54
S'\xa3\xed\xb3\xc1\xbc7\xe6?'
p141
tp142
Rp143
ag50
(g54
S'\x0f\x9by\x0b\xa6E\xde?'
p144
tp145
Rp146
ag50
(g54
S'\xb0\x8d\x9bT\x82\xec\xec?'
p147
tp148
Rp149
ag50
(g54
S':H\xbbl\xeb\xcb\xed?'
p150
tp151
Rp152
ag50
(g54
S'J\x18\x12\x9a\xa9\xc6\xee?'
p153
tp154
Rp155
ag50
(g54
S'\xd9Z\xa3\xa1I\x98\xeb?'
p156
tp157
Rp158
ag50
(g54
S'\x80\x0e\xdc\xc1O\n\xe3?'
p159
tp160
Rp161
ag50
(g54
S']|\xee(]\xef\xe7?'
p162
tp163
Rp164
ag50
(g54
S'\xd9Z\xa3\xa1I\x98\xeb?'
p165
tp166
Rp167
ag50
(g54
S'J\x18\x12\x9a\xa9\xc6\xee?'
p168
tp169
Rp170
ag50
(g54
S'\xd9Z\xa3\xa1I\x98\xeb?'
p171
tp172
Rp173
ag50
(g54
S'\xd9\xdc\x90#\xc2\xfd\xe9?'
p174
tp175
Rp176
ag50
(g54
S'\xa3\xed\xb3\xc1\xbc7\xe6?'
p177
tp178
Rp179
ag50
(g54
S'0U\xbe\x86d@\xde?'
p180
tp181
Rp182
ag50
(g54
S'\xd9\xdc\x90#\xc2\xfd\xe9?'
p183
tp184
Rp185
ag50
(g54
S'\xa3\xed\xb3\xc1\xbc7\xe6?'
p186
tp187
Rp188
ag50
(g54
S'\x0f\x9by\x0b\xa6E\xde?'
p189
tp190
Rp191
ag50
(g54
S':H\xbbl\xeb\xcb\xed?'
p192
tp193
Rp194
ag50
(g54
S'\xd9\xdc\x90#\xc2\xfd\xe9?'
p195
tp196
Rp197
ag50
(g54
S'\xa3\xed\xb3\xc1\xbc7\xe6?'
p198
tp199
Rp200
ag50
(g54
S'0U\xbe\x86d@\xde?'
p201
tp202
Rp203
ag50
(g54
S'\xd9Z\xa3\xa1I\x98\xeb?'
p204
tp205
Rp206
ag50
(g54
S'\xd9\xdc\x90#\xc2\xfd\xe9?'
p207
tp208
Rp209
ag50
(g54
S'0U\xbe\x86d@\xde?'
p210
tp211
Rp212
ag50
(g54
S'\xd9\xdc\x90#\xc2\xfd\xe9?'
p213
tp214
Rp215
ag50
(g54
S'0U\xbe\x86d@\xde?'
p216
tp217
Rp218
ag50
(g54
S'\xd9Z\xa3\xa1I\x98\xeb?'
p219
tp220
Rp221
ag50
(g54
S'J\x18\x12\x9a\xa9\xc6\xee?'
p222
tp223
Rp224
ag50
(g54
S'\xd9\xdc\x90#\xc2\xfd\xe9?'
p225
tp226
Rp227
ag50
(g54
S'\xa3\xed\xb3\xc1\xbc7\xe6?'
p228
tp229
Rp230
ag50
(g54
S'\xa3\xed\xb3\xc1\xbc7\xe6?'
p231
tp232
Rp233
ag50
(g54
S'\xa3\xed\xb3\xc1\xbc7\xe6?'
p234
tp235
Rp236
ag50
(g54
S'\x0f\x9by\x0b\xa6E\xde?'
p237
tp238
Rp239
ag50
(g54
S'\xb0\x8d\x9bT\x82\xec\xec?'
p240
tp241
Rp242
ag50
(g54
S'\n\x84H\xf9H\xd4\xec?'
p243
tp244
Rp245
ag50
(g54
S'\x0f\x9by\x0b\xa6E\xde?'
p246
tp247
Rp248
ag50
(g54
S'>\x13\xdd\x80\xc3\xc7\xe7?'
p249
tp250
Rp251
ag50
(g54
S'\x0f\x9by\x0b\xa6E\xde?'
p252
tp253
Rp254
ag50
(g54
S'\xb0\x8d\x9bT\x82\xec\xec?'
p255
tp256
Rp257
ag50
(g54
S':H\xbbl\xeb\xcb\xed?'
p258
tp259
Rp260
ag50
(g54
S'\xd9\xdc\x90#\xc2\xfd\xe9?'
p261
tp262
Rp263
ag50
(g54
S'\xa3\xed\xb3\xc1\xbc7\xe6?'
p264
tp265
Rp266
ag50
(g54
S'\xa3\xed\xb3\xc1\xbc7\xe6?'
p267
tp268
Rp269
ag50
(g54
S'\xa3\xed\xb3\xc1\xbc7\xe6?'
p270
tp271
Rp272
ag50
(g54
S'\x0f\x9by\x0b\xa6E\xde?'
p273
tp274
Rp275
ag50
(g54
S']|\xee(]\xef\xe7?'
p276
tp277
Rp278
ag50
(g54
S'\x80\x0e\xdc\xc1O\n\xe3?'
p279
tp280
Rp281
ag50
(g54
S':H\xbbl\xeb\xcb\xed?'
p282
tp283
Rp284
ag50
(g54
S'\x80\x0e\xdc\xc1O\n\xe3?'
p285
tp286
Rp287
ag50
(g54
S']|\xee(]\xef\xe7?'
p288
tp289
Rp290
ag50
(g54
S'\x80\x0e\xdc\xc1O\n\xe3?'
p291
tp292
Rp293
ag50
(g54
S'\x9f\x84O\xee\x13\xf3\xe5?'
p294
tp295
Rp296
ag50
(g54
S'\x80\x0e\xdc\xc1O\n\xe3?'
p297
tp298
Rp299
ag50
(g54
S'\x9f\x84O\xee\x13\xf3\xe5?'
p300
tp301
Rp302
ag50
(g54
S'\xd9Z\xa3\xa1I\x98\xeb?'
p303
tp304
Rp305
ag50
(g54
S'J\x18\x12\x9a\xa9\xc6\xee?'
p306
tp307
Rp308
ag50
(g54
S'\xd9\xdc\x90#\xc2\xfd\xe9?'
p309
tp310
Rp311
ag50
(g54
S'\x0f\x9by\x0b\xa6E\xde?'
p312
tp313
Rp314
ag50
(g54
S'\x16\xa1\x01N\t\xe0\xe5?'
p315
tp316
Rp317
ag50
(g54
S'\x80\x0e\xdc\xc1O\n\xe3?'
p318
tp319
Rp320
ag50
(g54
S']|\xee(]\xef\xe7?'
p321
tp322
Rp323
asS'sp'
p324
(lp325
(S'p0'
p326
I0
S'y'
p327
tp328
a(g326
I0
S't'
p329
tp330
a(g326
I0
g329
tp331
a(g326
I0
g329
tp332
a(g326
I0
S'x'
p333
tp334
ag334
ag328
a(S'p1'
p335
I0
g327
tp336
a(g335
I0
g329
tp337
ag337
a(g335
I0
g327
tp338
a(g335
I0
g333
tp339
a(g326
I0
g333
tp340
a(g326
I0
g333
tp341
a(g326
I0
g329
tp342
a(g326
I0
g327
tp343
a(g326
I0
g333
tp344
ag344
ag328
ag344
ag328
ag344
ag342
ag332
ag334
ag334
ag342
ag334
ag334
ag328
a(g326
I0
g327
tp345
ag330
ag331
ag332
ag343
ag336
a(g335
I0
g327
tp346
a(g335
I0
g327
tp347
ag346
ag337
ag337
ag338
ag337
ag337
a(g335
I0
g333
tp348
a(g335
I0
g327
tp349
ag337
ag337
ag338
ag346
ag337
ag338
ag337
ag338
ag346
ag347
ag337
ag337
ag337
ag337
ag348
ag340
ag341
ag328
ag344
ag328
ag345
ag330
ag334
ag334
ag334
ag334
ag328
ag336
ag339
ag349
ag339
a(S'p2'
p350
I0
g333
tp351
a(g350
I0
g329
tp352
a(g350
I0
g333
tp353
ag352
ag353
a(g350
I0
g333
tp354
a(g350
I0
g333
tp355
a(g350
I0
g327
tp356
a(g350
I0
g329
tp357
a(g350
F1.5707963267948966
g329
tp358
a(g350
F1.5707963267948966
g327
tp359
a(S'p3'
p360
F1.5707963267948966
g327
tp361
asS's'
p362
(lp363
(g326
I0
g22
tp364
ag328
ag330
ag331
ag332
ag334
ag334
ag328
ag336
ag337
ag337
ag338
ag339
ag340
ag341
ag342
ag343
ag344
ag344
ag328
ag344
ag328
ag344
ag342
ag332
ag334
ag334
ag342
ag334
ag334
ag328
ag345
ag330
ag331
ag332
ag343
ag336
ag346
ag347
ag346
ag337
ag337
ag338
ag337
ag337
ag348
ag349
ag337
ag337
ag338
ag346
ag337
ag338
ag337
ag338
ag346
ag347
ag337
ag337
ag337
ag337
ag348
ag340
ag341
ag328
ag344
ag328
ag345
ag330
ag334
ag334
ag334
ag334
ag328
ag336
ag339
ag349
ag339
ag351
ag352
ag353
ag352
ag353
ag354
ag355
ag356
ag357
ag358
ag359
asS'ui'
p365
(lp366
S'hp'
p367
aS'ss'
p368
ag367
ag324
aS'hs'
p369
ag324
ag367
ag368
ag369
ag367
ag369
ag369
ag368
ag367
ag367
ag369
ag369
ag369
ag367
ag368
ag367
ag369
ag368
ag369
ag367
ag324
ag369
ag367
ag367
ag369
ag324
ag367
ag369
ag368
ag369
ag368
ag369
ag369
ag368
ag367
ag367
ag369
ag369
ag324
ag369
ag368
ag369
ag367
ag369
ag324
ag369
ag369
ag369
ag367
ag368
ag324
ag369
ag367
ag367
ag369
ag367
ag369
ag369
ag369
ag369
ag367
ag369
ag369
ag368
ag367
ag367
ag367
ag367
ag368
ag369
ag324
ag369
ag369
ag369
ag367
ag369
ag367
ag324
ag324
ag368
ag367
ag367
ag369
ag368
asS'um_before'
p370
(lp371
g367
ag367
ag324
ag368
ag367
ag324
ag367
ag368
ag367
ag324
ag369
ag369
ag324
ag368
ag369
ag369
ag369
ag324
ag367
ag369
ag367
ag369
ag369
ag368
ag367
ag324
ag369
ag367
ag324
ag367
ag324
ag367
ag324
ag368
ag369
ag368
ag368
ag324
ag368
ag367
ag324
ag369
ag367
ag324
ag367
ag367
ag367
ag324
ag369
ag368
ag367
ag369
ag367
ag369
ag368
ag324
ag367
ag324
ag324
ag324
ag367
ag324
ag368
ag367
ag369
ag367
ag324
ag367
ag367
ag324
ag324
ag324
ag367
ag368
ag369
ag367
ag369
ag368
ag369
ag367
ag369
ag367
ag368
ag324
ag367
ag367
ag324
ag369
ag368
asS'um_after'
p372
(lp373
g367
ag367
ag324
ag368
ag367
aNag367
ag368
ag367
aNag369
ag369
ag324
ag368
ag369
ag369
ag369
aNag367
ag369
ag367
ag369
ag369
ag368
ag367
aNag369
ag367
aNag367
ag324
ag367
ag324
ag368
ag369
ag368
ag368
ag324
ag368
ag367
aNag369
ag367
aNag367
ag367
ag367
aNag369
ag368
ag367
ag369
ag367
ag369
ag368
ag324
ag367
aNaNaNag367
ag324
ag368
ag367
ag369
ag367
ag324
ag367
ag367
aNaNaNag367
ag368
ag369
ag367
ag369
ag368
ag369
ag367
ag369
ag367
ag368
ag324
ag367
ag367
ag324
ag369
ag368
asS'is_normalized_entropy_less_than_threshold'
p374
(lp375
g50
(g51
(S'b1'
p376
I0
I1
tp377
Rp378
(I3
S'|'
p379
NNNI-1
I-1
I0
tp380
bS'\x01'
p381
tp382
Rp383
ag50
(g378
S'\x00'
p384
tp385
Rp386
ag386
ag386
ag386
ag383
ag383
ag383
ag386
ag383
ag383
ag383
ag386
ag386
ag383
ag383
ag383
ag383
ag383
ag383
ag383
ag383
ag383
ag386
ag386
ag383
ag383
ag386
ag383
ag383
ag386
ag386
ag386
ag386
ag383
ag383
ag386
ag386
ag386
ag386
ag383
ag383
ag386
ag383
ag383
ag386
ag386
ag383
ag383
ag386
ag386
ag383
ag386
ag383
ag386
ag386
ag386
ag383
ag383
ag383
ag383
ag386
ag386
ag383
ag383
ag383
ag386
ag386
ag386
ag383
ag383
ag383
ag383
ag383
ag383
ag386
ag383
ag383
ag383
ag383
ag383
ag383
ag386
ag386
ag386
ag383
ag383
ag383
ag383
asaa(lp387
S'index'
p388
aI72782
aatp389
Rp390
.