ccollections
OrderedDict
p0
((lp1
(lp2
S'combination_dict'
p3
ag0
((lp4
(lp5
S'r_to_g_config'
p6
aS'tl'
p7
aa(lp8
S'num_turns'
p9
aI2
aa(lp10
S'start_direction'
p11
acutils_ms
StartDirection
p12
(I1
tp13
Rp14
aa(lp15
S'assistance_type'
p16
acutils_ms
AssistanceType
p17
(I0
tp18
Rp19
aa(lp20
S'start_mode'
p21
aS'x'
p22
aa(lp23
S'ui_given_a_noise'
p24
aF0.1
aa(lp25
S'um_given_ui_noise'
p26
aF0.3
aa(lp27
S'entropy_threshold'
p28
aF0.9
aatp29
Rp30
aa(lp31
S'data'
p32
accollections
defaultdict
p33
(c__builtin__
list
p34
tp35
Rp36
S'a'
p37
(lp38
S'mode_r'
p39
ag39
aS'move_p'
p40
ag40
ag39
ag39
ag39
ag40
ag39
ag40
ag39
aS'move_n'
p41
ag39
ag39
ag40
ag40
ag40
ag40
ag40
ag40
asS'assistance_match_with_ground_truth'
p42
(lp43
I00
aI01
aI00
aI01
aI00
aI00
aI01
aI01
aI00
aI01
aI01
aI01
aI00
aI01
aI00
aI00
aI00
aI00
aI00
aI01
asS'is_u_intended_equals_um'
p44
(lp45
I00
aI01
aI00
aI01
aI00
aI00
aI01
aI01
aI01
aI01
aI01
aI01
aI00
aI01
aI00
aI00
aI00
aI00
aI00
aI01
asS'total_steps'
p46
I20
sS'normalized_h_of_p_ui_given_um'
p47
(lp48
cnumpy.core.multiarray
scalar
p49
(cnumpy
dtype
p50
(S'f8'
p51
I0
I1
tp52
Rp53
(I3
S'<'
p54
NNNI-1
I-1
I0
tp55
bS'\x18\x9e\xe0Z\xe61\xe4?'
p56
tp57
Rp58
ag49
(g53
S'\xec\x0eN`%*\xc0?'
p59
tp60
Rp61
ag49
(g53
S'TW\x13Y\xe8\x99\xe7?'
p62
tp63
Rp64
ag49
(g53
S'\xd6\xe0}H\x17\x9c\xc1?'
p65
tp66
Rp67
ag49
(g53
S'\x18\x9e\xe0Z\xe61\xe4?'
p68
tp69
Rp70
ag49
(g53
S'\x18\x9e\xe0Z\xe61\xe4?'
p71
tp72
Rp73
ag49
(g53
S'\xec\x0eN`%*\xc0?'
p74
tp75
Rp76
ag49
(g53
S'\xd6\xe0}H\x17\x9c\xc1?'
p77
tp78
Rp79
ag49
(g53
S'\xf4\x0b\xdb\xb7\xd4\xe3\xe2?'
p80
tp81
Rp82
ag49
(g53
S'\xd6\xe0}H\x17\x9c\xc1?'
p83
tp84
Rp85
ag49
(g53
S'\xec\x0eN`%*\xc0?'
p86
tp87
Rp88
ag49
(g53
S'@\x84<\xcdTN\xa7?'
p89
tp90
Rp91
ag49
(g53
S'G2\xbc\x95\xcd\xc7\xe1?'
p92
tp93
Rp94
ag49
(g53
S'\xec\x0eN`%*\xc0?'
p95
tp96
Rp97
ag49
(g53
S'T\xba~_\x13V\xe2?'
p98
tp99
Rp100
ag49
(g53
S'.\xcf\xf9}\xe3\x0f\xde?'
p101
tp102
Rp103
ag49
(g53
S'.\xcf\xf9}\xe3\x0f\xde?'
p104
tp105
Rp106
ag49
(g53
S'T\xba~_\x13V\xe2?'
p107
tp108
Rp109
ag49
(g53
S'.\xcf\xf9}\xe3\x0f\xde?'
p110
tp111
Rp112
ag49
(g53
S'\xd6\xe0}H\x17\x9c\xc1?'
p113
tp114
Rp115
asS'sp'
p116
(lp117
(S'p0'
p118
I0
g22
tp119
a(g118
I0
S'y'
p120
tp121
ag121
a(S'p1'
p122
I0
g120
tp123
ag123
ag123
a(g122
I0
S't'
p124
tp125
a(g122
F1.5707963267948966
g124
tp126
a(g122
I0
g124
tp127
ag126
a(g122
F1.5707963267948966
S'x'
p128
tp129
a(S'p2'
p130
F1.5707963267948966
g128
tp131
ag131
a(g130
F1.5707963267948966
g120
tp132
ag132
ag132
ag132
ag132
ag132
a(S'p3'
p133
F1.5707963267948966
g120
tp134
asS's'
p135
(lp136
g119
ag119
ag121
ag121
ag123
ag123
ag123
ag125
ag126
ag127
ag126
ag129
ag131
ag131
ag132
ag132
ag132
ag132
ag132
ag132
asS'ui'
p137
(lp138
S'hp'
p139
ag139
ag116
ag116
ag139
ag139
ag139
ag116
aS'ss'
p140
ag116
ag139
ag140
ag139
ag139
ag139
ag140
ag139
ag116
ag116
ag116
asS'um_before'
p141
(lp142
g116
ag139
aS'hs'
p143
ag116
ag116
ag116
ag139
ag116
ag140
ag116
ag139
ag140
ag143
ag139
ag139
ag140
ag140
ag139
ag140
ag116
asS'um_after'
p144
(lp145
Nag139
aNag116
aNaNag139
ag116
ag140
ag116
ag139
ag140
aNag139
aNaNaNaNaNag116
asS'is_normalized_entropy_less_than_threshold'
p146
(lp147
g49
(g50
(S'b1'
p148
I0
I1
tp149
Rp150
(I3
S'|'
p151
NNNI-1
I-1
I0
tp152
bS'\x01'
p153
tp154
Rp155
ag155
ag155
ag155
ag155
ag155
ag155
ag155
ag155
ag155
ag155
ag155
ag155
ag155
ag155
ag155
ag155
ag155
ag155
ag155
asaa(lp156
S'index'
p157
aI43294
aatp158
Rp159
.