ccollections
OrderedDict
p0
((lp1
(lp2
S'combination_dict'
p3
ag0
((lp4
(lp5
S'r_to_g_config'
p6
aS'bl'
p7
aa(lp8
S'num_turns'
p9
aI1
aa(lp10
S'start_direction'
p11
acutils_ms
StartDirection
p12
(I0
tp13
Rp14
aa(lp15
S'assistance_type'
p16
acutils_ms
AssistanceType
p17
(I1
tp18
Rp19
aa(lp20
S'start_mode'
p21
aS'y'
p22
aa(lp23
S'ui_given_a_noise'
p24
aF0.1
aa(lp25
S'um_given_ui_noise'
p26
aF0.1
aa(lp27
S'entropy_threshold'
p28
aF0.7
aatp29
Rp30
aa(lp31
S'data'
p32
accollections
defaultdict
p33
(c__builtin__
list
p34
tp35
Rp36
S'a'
p37
(lp38
S'mode_l'
p39
aS'mode_r'
p40
aS'move_n'
p41
ag39
aS'move_p'
p42
ag40
ag42
ag39
ag41
asS'assistance_match_with_ground_truth'
p43
(lp44
I00
aI01
aI01
aI01
aI00
aI01
aI01
aI01
aI01
asS'is_u_intended_equals_um'
p45
(lp46
I01
aI01
aI01
aI01
aI01
aI01
aI01
aI01
aI00
asS'total_steps'
p47
I9
sS'normalized_h_of_p_ui_given_um'
p48
(lp49
cnumpy.core.multiarray
scalar
p50
(cnumpy
dtype
p51
(S'f8'
p52
I0
I1
tp53
Rp54
(I3
S'<'
p55
NNNI-1
I-1
I0
tp56
bS'\x9f\x8dWh\x99@\xe7?'
p57
tp58
Rp59
ag50
(g54
S'p\xb2c\xf4\xd5S\xab?'
p60
tp61
Rp62
ag50
(g54
S'\x9eq\xebB;o\xab?'
p63
tp64
Rp65
ag50
(g54
S'\x9e\x9e\xf5\xc3\xa1\xb1\xad?'
p66
tp67
Rp68
ag50
(g54
S'\xf0<\x12G\xe68\xe3?'
p69
tp70
Rp71
ag50
(g54
S'p\xb2c\xf4\xd5S\xab?'
p72
tp73
Rp74
ag50
(g54
S'\x18\x1fs<\xf6L\x9e?'
p75
tp76
Rp77
ag50
(g54
S'\x9e\x9e\xf5\xc3\xa1\xb1\xad?'
p78
tp79
Rp80
ag50
(g54
S'\x95#\xb0~\xbf\x1e\xe2?'
p81
tp82
Rp83
asS'sp'
p84
(lp85
(S'p0'
p86
I0
S't'
p87
tp88
a(g86
I0
S'x'
p89
tp90
a(S'p1'
p91
I0
g89
tp92
a(g91
I0
g87
tp93
a(g91
I0
S'y'
p94
tp95
a(g91
I0
g87
tp96
a(g91
F1.5707963267948966
g87
tp97
a(g91
F1.5707963267948966
g94
tp98
a(S'p2'
p99
F1.5707963267948966
g94
tp100
asS's'
p101
(lp102
(g86
I0
g22
tp103
ag88
ag90
ag92
ag93
ag95
ag96
ag97
ag98
asS'ui'
p104
(lp105
S'hp'
p106
ag106
aS'ss'
p107
aS'hs'
p108
ag108
ag106
ag84
ag108
ag84
asS'um_before'
p109
(lp110
g106
ag106
ag107
ag108
ag108
ag106
ag84
ag108
ag108
asS'um_after'
p111
(lp112
g106
ag106
ag107
ag108
ag108
ag106
ag84
ag108
ag107
asS'is_normalized_entropy_less_than_threshold'
p113
(lp114
g50
(g51
(S'b1'
p115
I0
I1
tp116
Rp117
(I3
S'|'
p118
NNNI-1
I-1
I0
tp119
bS'\x00'
p120
tp121
Rp122
ag50
(g117
S'\x01'
p123
tp124
Rp125
ag125
ag125
ag125
ag125
ag125
ag125
ag125
asaa(lp126
S'index'
p127
aI60026
aatp128
Rp129
.