ccollections
OrderedDict
p0
((lp1
(lp2
S'combination_dict'
p3
ag0
((lp4
(lp5
S'r_to_g_config'
p6
aS'tr'
p7
aa(lp8
S'num_turns'
p9
aI2
aa(lp10
S'start_direction'
p11
acutils_ms
StartDirection
p12
(I0
tp13
Rp14
aa(lp15
S'assistance_type'
p16
acutils_ms
AssistanceType
p17
(I1
tp18
Rp19
aa(lp20
S'start_mode'
p21
aS't'
p22
aa(lp23
S'ui_given_a_noise'
p24
aF0.3
aa(lp25
S'um_given_ui_noise'
p26
aF0.1
aa(lp27
S'entropy_threshold'
p28
aF0.9
aatp29
Rp30
aa(lp31
S'data'
p32
accollections
defaultdict
p33
(c__builtin__
list
p34
tp35
Rp36
S'a'
p37
(lp38
S'mode_r'
p39
aS'move_p'
p40
aS'mode_l'
p41
ag41
ag39
ag41
ag40
asS'assistance_match_with_ground_truth'
p42
(lp43
I01
aI01
aI00
aI00
aI00
aI01
aI01
asS'is_u_intended_equals_um'
p44
(lp45
I01
aI01
aI01
aI01
aI01
aI01
aI01
asS'total_steps'
p46
I7
sS'normalized_h_of_p_ui_given_um'
p47
(lp48
cnumpy.core.multiarray
scalar
p49
(cnumpy
dtype
p50
(S'f8'
p51
I0
I1
tp52
Rp53
(I3
S'<'
p54
NNNI-1
I-1
I0
tp55
bS'\xc2~\x10T\xcc\xd2\xc0?'
p56
tp57
Rp58
ag49
(g53
S"\xaa\xb5\xe9\xfc'6\xb3?"
p59
tp60
Rp61
ag49
(g53
S'\x9f\xd8\xde}\xcc\x86\xe1?'
p62
tp63
Rp64
ag49
(g53
S'\x02\xd8\x9dp\x0c\xc5\xe2?'
p65
tp66
Rp67
ag49
(g53
S'\xae\xb1bm\x94^\xd8?'
p68
tp69
Rp70
ag49
(g53
S'\xe4\x9cK<\xe3\xf9\xb1?'
p71
tp72
Rp73
ag49
(g53
S"\xaa\xb5\xe9\xfc'6\xb3?"
p74
tp75
Rp76
asS'sp'
p77
(lp78
(S'p0'
p79
I0
S'x'
p80
tp81
a(S'p1'
p82
I0
g80
tp83
a(g82
I0
g80
tp84
a(g82
I0
S'y'
p85
tp86
a(S'p2'
p87
I0
g85
tp88
a(g87
I0
g80
tp89
a(S'p3'
p90
I0
g80
tp91
asS's'
p92
(lp93
(g79
I0
g22
tp94
ag81
ag83
ag84
ag86
ag88
ag89
asS'ui'
p95
(lp96
S'hp'
p97
ag77
aS'hs'
p98
ag97
ag77
ag98
ag77
asS'um_before'
p99
(lp100
g97
ag77
ag77
ag97
ag77
ag98
ag77
asS'um_after'
p101
(lp102
g97
ag77
ag77
ag97
ag77
ag98
ag77
asS'is_normalized_entropy_less_than_threshold'
p103
(lp104
g49
(g50
(S'b1'
p105
I0
I1
tp106
Rp107
(I3
S'|'
p108
NNNI-1
I-1
I0
tp109
bS'\x01'
p110
tp111
Rp112
ag112
ag112
ag112
ag112
ag112
ag112
asaa(lp113
S'index'
p114
aI11441
aatp115
Rp116
.