ccollections
OrderedDict
p0
((lp1
(lp2
S'combination_dict'
p3
ag0
((lp4
(lp5
S'r_to_g_config'
p6
aS'tl'
p7
aa(lp8
S'num_turns'
p9
aI3
aa(lp10
S'start_direction'
p11
acutils_ms
StartDirection
p12
(I0
tp13
Rp14
aa(lp15
S'assistance_type'
p16
acutils_ms
AssistanceType
p17
(I0
tp18
Rp19
aa(lp20
S'start_mode'
p21
aS'y'
p22
aa(lp23
S'ui_given_a_noise'
p24
aF0.3
aa(lp25
S'um_given_ui_noise'
p26
aF0.5
aa(lp27
S'entropy_threshold'
p28
aF0.7
aatp29
Rp30
aa(lp31
S'data'
p32
accollections
defaultdict
p33
(c__builtin__
list
p34
tp35
Rp36
S'a'
p37
(lp38
S'mode_l'
p39
aS'move_n'
p40
ag40
ag40
ag39
ag40
ag40
ag40
ag40
ag39
ag39
ag39
ag39
ag39
ag39
aS'move_p'
p41
ag39
ag39
ag39
ag39
ag41
ag39
ag39
ag40
aS'mode_r'
p42
ag42
ag41
ag41
asS'assistance_match_with_ground_truth'
p43
(lp44
I01
aI00
aI00
aI00
aI01
aI00
aI00
aI00
aI01
aI00
aI00
aI00
aI00
aI00
aI01
aI01
aI00
aI00
aI00
aI01
aI01
aI00
aI01
aI01
aI00
aI01
aI00
aI01
asS'is_u_intended_equals_um'
p45
(lp46
I01
aI00
aI00
aI01
aI01
aI00
aI01
aI01
aI01
aI00
aI00
aI00
aI00
aI00
aI01
aI01
aI00
aI00
aI00
aI01
aI01
aI00
aI01
aI01
aI00
aI01
aI00
aI01
asS'total_steps'
p47
I28
sS'normalized_h_of_p_ui_given_um'
p48
(lp49
cnumpy.core.multiarray
scalar
p50
(cnumpy
dtype
p51
(S'f8'
p52
I0
I1
tp53
Rp54
(I3
S'<'
p55
NNNI-1
I-1
I0
tp56
bS'6\xe8H\xab\xd32\xd4?'
p57
tp58
Rp59
ag50
(g54
S'W\xdd\xa9\xd6\x9b\xa9\xe3?'
p60
tp61
Rp62
ag50
(g54
S'W\xdd\xa9\xd6\x9b\xa9\xe3?'
p63
tp64
Rp65
ag50
(g54
S'\x8a\x9eO\x84!\xfd\xea?'
p66
tp67
Rp68
ag50
(g54
S'6\xe8H\xab\xd32\xd4?'
p69
tp70
Rp71
ag50
(g54
S'W\xdd\xa9\xd6\x9b\xa9\xe3?'
p72
tp73
Rp74
ag50
(g54
S'w\x04\xaf\x1d\xd1J\xec?'
p75
tp76
Rp77
ag50
(g54
S'w\x04\xaf\x1d\xd1J\xec?'
p78
tp79
Rp80
ag50
(g54
S'\x9a\xd2z#\xefD\xc9?'
p81
tp82
Rp83
ag50
(g54
S'\xc5V\xf7\x94\xff\xa3\xe4?'
p84
tp85
Rp86
ag50
(g54
S'\xc5V\xf7\x94\xff\xa3\xe4?'
p87
tp88
Rp89
ag50
(g54
S'\xc5V\xf7\x94\xff\xa3\xe4?'
p90
tp91
Rp92
ag50
(g54
S'\xe6D\x9f\x86/`\xe3?'
p93
tp94
Rp95
ag50
(g54
S'\xe6D\x9f\x86/`\xe3?'
p96
tp97
Rp98
ag50
(g54
S'6\xe8H\xab\xd32\xd4?'
p99
tp100
Rp101
ag50
(g54
S'\x16W\xcea\x15\x82\xd1?'
p102
tp103
Rp104
ag50
(g54
S'\xe6D\x9f\x86/`\xe3?'
p105
tp106
Rp107
ag50
(g54
S'\xc5V\xf7\x94\xff\xa3\xe4?'
p108
tp109
Rp110
ag50
(g54
S'\xe6D\x9f\x86/`\xe3?'
p111
tp112
Rp113
ag50
(g54
S'6\xe8H\xab\xd32\xd4?'
p114
tp115
Rp116
ag50
(g54
S'\x16W\xcea\x15\x82\xd1?'
p117
tp118
Rp119
ag50
(g54
S'\xc5V\xf7\x94\xff\xa3\xe4?'
p120
tp121
Rp122
ag50
(g54
S'6\xe8H\xab\xd32\xd4?'
p123
tp124
Rp125
ag50
(g54
S'\x9a\xd2z#\xefD\xc9?'
p126
tp127
Rp128
ag50
(g54
S'n\xd0!\xf3\x91\x07\xe8?'
p129
tp130
Rp131
ag50
(g54
S'\x123\xd0&O\xde\xdc?'
p132
tp133
Rp134
ag50
(g54
S'z\x86"\x9aL\x9d\xdb?'
p135
tp136
Rp137
ag50
(g54
S'\x16W\xcea\x15\x82\xd1?'
p138
tp139
Rp140
asS'sp'
p141
(lp142
(S'p0'
p143
I0
S'x'
p144
tp145
ag145
ag145
a(g143
I0
S'y'
p146
tp147
ag145
ag145
a(g143
I0
g144
tp148
ag148
a(S'p1'
p149
I0
g144
tp150
ag150
ag150
ag150
ag150
ag150
a(g149
I0
S't'
p151
tp152
a(g149
F1.5707963267948966
g151
tp153
ag153
ag153
ag153
a(g149
F1.5707963267948966
g146
tp154
a(S'p2'
p155
F1.5707963267948966
g146
tp156
ag156
a(g155
F1.5707963267948966
g144
tp157
a(S'p3'
p158
F1.5707963267948966
g144
tp159
a(g158
F1.5707963267948966
g144
tp160
a(g158
F1.5707963267948966
g146
tp161
ag161
a(S'p4'
p162
F1.5707963267948966
g146
tp163
asS's'
p164
(lp165
(g143
I0
g22
tp166
ag145
ag145
ag145
ag147
ag145
ag145
ag148
ag148
ag150
ag150
ag150
ag150
ag150
ag150
ag152
ag153
ag153
ag153
ag153
ag154
ag156
ag156
ag157
ag159
ag160
ag161
ag161
asS'ui'
p167
(lp168
S'hs'
p169
aS'ss'
p170
ag169
aS'hp'
p171
ag170
ag169
ag171
ag141
ag170
ag169
ag141
ag141
ag169
ag141
ag169
ag141
ag141
ag169
ag141
ag169
ag141
ag169
ag169
ag170
ag171
ag171
ag141
ag141
asS'um_before'
p172
(lp173
g169
ag169
ag169
ag171
ag169
ag169
ag141
ag141
ag170
ag171
ag171
ag171
ag141
ag141
ag169
ag141
ag141
ag171
ag141
ag169
ag141
ag171
ag169
ag170
ag141
ag171
ag171
ag141
asS'um_after'
p174
(lp175
g169
aNaNag171
ag169
aNag141
ag141
ag170
aNaNaNaNaNag169
ag141
aNaNaNag169
ag141
aNag169
ag170
ag141
ag171
aNag141
asS'is_normalized_entropy_less_than_threshold'
p176
(lp177
g50
(g51
(S'b1'
p178
I0
I1
tp179
Rp180
(I3
S'|'
p181
NNNI-1
I-1
I0
tp182
bS'\x01'
p183
tp184
Rp185
ag185
ag185
ag50
(g180
S'\x00'
p186
tp187
Rp188
ag185
ag185
ag188
ag188
ag185
ag185
ag185
ag185
ag185
ag185
ag185
ag185
ag185
ag185
ag185
ag185
ag185
ag185
ag185
ag185
ag188
ag185
ag185
ag185
asaa(lp189
S'index'
p190
aI49129
aatp191
Rp192
.