ccollections
OrderedDict
p0
((lp1
(lp2
S'combination_dict'
p3
ag0
((lp4
(lp5
S'r_to_g_config'
p6
aS'tr'
p7
aa(lp8
S'num_turns'
p9
aI2
aa(lp10
S'start_direction'
p11
acutils_ms
StartDirection
p12
(I1
tp13
Rp14
aa(lp15
S'assistance_type'
p16
acutils_ms
AssistanceType
p17
(I0
tp18
Rp19
aa(lp20
S'start_mode'
p21
aS'x'
p22
aa(lp23
S'ui_given_a_noise'
p24
aF0.5
aa(lp25
S'um_given_ui_noise'
p26
aF0.5
aa(lp27
S'entropy_threshold'
p28
aF0.8
aatp29
Rp30
aa(lp31
S'data'
p32
accollections
defaultdict
p33
(c__builtin__
list
p34
tp35
Rp36
S'a'
p37
(lp38
S'mode_r'
p39
ag39
aS'move_p'
p40
ag39
ag40
ag39
ag39
ag40
aS'mode_l'
p41
ag40
ag39
ag40
asS'assistance_match_with_ground_truth'
p42
(lp43
I00
aI01
aI01
aI01
aI01
aI00
aI01
aI00
aI01
aI01
aI01
aI01
asS'is_u_intended_equals_um'
p44
(lp45
I00
aI01
aI01
aI01
aI01
aI00
aI01
aI01
aI01
aI01
aI01
aI01
asS'total_steps'
p46
I12
sS'normalized_h_of_p_ui_given_um'
p47
(lp48
cnumpy.core.multiarray
scalar
p49
(cnumpy
dtype
p50
(S'f8'
p51
I0
I1
tp52
Rp53
(I3
S'<'
p54
NNNI-1
I-1
I0
tp55
bS'G\xc9\x01RIe\xe8?'
p56
tp57
Rp58
ag49
(g53
S'\x8e\xbd\xf6\x1a\xf3\x01\xdb?'
p59
tp60
Rp61
ag49
(g53
S'\xde\x91\xa2\x99\x01\x1c\xcf?'
p62
tp63
Rp64
ag49
(g53
S'\x8e\xbd\xf6\x1a\xf3\x01\xdb?'
p65
tp66
Rp67
ag49
(g53
S'\xde\x91\xa2\x99\x01\x1c\xcf?'
p68
tp69
Rp70
ag49
(g53
S'G\xc9\x01RIe\xe8?'
p71
tp72
Rp73
ag49
(g53
S'\x8e\xbd\xf6\x1a\xf3\x01\xdb?'
p74
tp75
Rp76
ag49
(g53
S'\xc2\x04:\x15A+\xed?'
p77
tp78
Rp79
ag49
(g53
S'0\x02\x8e\x14\xe8\x8e\xd6?'
p80
tp81
Rp82
ag49
(g53
S'\xde\x91\xa2\x99\x01\x1c\xcf?'
p83
tp84
Rp85
ag49
(g53
S'\x8e\xbd\xf6\x1a\xf3\x01\xdb?'
p86
tp87
Rp88
ag49
(g53
S'\xde\x91\xa2\x99\x01\x1c\xcf?'
p89
tp90
Rp91
asS'sp'
p92
(lp93
(S'p0'
p94
I0
g22
tp95
a(g94
I0
S'y'
p96
tp97
a(S'p1'
p98
I0
g96
tp99
a(g98
I0
S't'
p100
tp101
a(g98
F1.5707963267948966
g100
tp102
ag102
a(g98
F1.5707963267948966
S'x'
p103
tp104
a(g98
F1.5707963267948966
g96
tp105
a(g98
F1.5707963267948966
g103
tp106
a(S'p2'
p107
F1.5707963267948966
g103
tp108
a(g107
F1.5707963267948966
g96
tp109
a(S'p3'
p110
F1.5707963267948966
g96
tp111
asS's'
p112
(lp113
g95
ag95
ag97
ag99
ag101
ag102
ag102
ag104
ag105
ag106
ag108
ag109
asS'ui'
p114
(lp115
S'ss'
p116
aS'hp'
p117
ag92
ag117
ag92
ag92
ag117
ag92
aS'hs'
p118
ag92
ag117
ag92
asS'um_before'
p119
(lp120
g92
ag117
ag92
ag117
ag92
ag92
ag117
ag117
ag118
ag92
ag117
ag92
asS'um_after'
p121
(lp122
Nag117
ag92
ag117
ag92
aNag117
ag117
ag118
ag92
ag117
ag92
asS'is_normalized_entropy_less_than_threshold'
p123
(lp124
g49
(g50
(S'b1'
p125
I0
I1
tp126
Rp127
(I3
S'|'
p128
NNNI-1
I-1
I0
tp129
bS'\x01'
p130
tp131
Rp132
ag132
ag132
ag132
ag132
ag132
ag132
ag49
(g127
S'\x00'
p133
tp134
Rp135
ag132
ag132
ag132
ag132
asaa(lp136
S'index'
p137
aI14932
aatp138
Rp139
.