ccollections
OrderedDict
p0
((lp1
(lp2
S'combination_dict'
p3
ag0
((lp4
(lp5
S'r_to_g_config'
p6
aS'bl'
p7
aa(lp8
S'num_turns'
p9
aI3
aa(lp10
S'start_direction'
p11
acutils_ms
StartDirection
p12
(I1
tp13
Rp14
aa(lp15
S'assistance_type'
p16
acutils_ms
AssistanceType
p17
(I2
tp18
Rp19
aa(lp20
S'start_mode'
p21
aS't'
p22
aa(lp23
S'ui_given_a_noise'
p24
aF0.7
aa(lp25
S'um_given_ui_noise'
p26
aF0.5
aa(lp27
S'entropy_threshold'
p28
aF0.6
aatp29
Rp30
aa(lp31
S'data'
p32
accollections
defaultdict
p33
(c__builtin__
list
p34
tp35
Rp36
S'a'
p37
(lp38
S'mode_l'
p39
ag39
aS'mode_r'
p40
ag40
ag40
ag40
ag39
ag39
ag39
ag39
aS'move_n'
p41
ag39
ag40
ag40
ag40
ag41
ag40
ag40
ag41
ag41
ag40
ag40
ag40
ag41
ag39
ag39
ag39
ag39
ag40
ag41
ag40
ag40
ag41
ag39
ag40
ag41
ag40
ag40
ag39
ag41
ag40
ag41
ag39
ag39
ag40
ag40
ag39
ag39
ag39
ag39
ag40
ag40
ag41
ag40
ag40
ag41
ag40
ag40
ag39
ag40
ag40
ag40
ag39
ag39
ag41
ag40
ag39
ag40
ag39
aS'move_p'
p42
ag42
ag40
ag40
ag42
ag40
ag41
ag40
ag41
ag39
ag40
ag39
ag41
ag40
ag39
ag39
ag39
ag40
ag39
ag39
ag39
ag41
ag40
ag40
ag39
ag39
ag40
ag39
ag39
ag41
ag41
ag39
ag39
ag39
ag39
ag39
ag41
ag40
ag41
ag40
ag41
ag40
ag41
ag39
ag41
asS'assistance_match_with_ground_truth'
p43
(lp44
I00
aI00
aI00
aI00
aI00
aI00
aI00
aI00
aI00
aI01
aI01
aI00
aI00
aI00
aI01
aI00
aI00
aI01
aI00
aI00
aI00
aI00
aI01
aI01
aI00
aI00
aI00
aI00
aI01
aI00
aI00
aI01
aI00
aI00
aI01
aI00
aI00
aI00
aI01
aI01
aI01
aI00
aI00
aI00
aI00
aI00
aI00
aI00
aI00
aI00
aI00
aI01
aI00
aI00
aI01
aI01
aI00
aI00
aI00
aI00
aI00
aI00
aI00
aI01
aI01
aI00
aI00
aI00
aI01
aI00
aI00
aI00
aI01
aI01
aI01
aI00
aI01
aI00
aI00
aI00
aI01
aI00
aI00
aI00
aI00
aI00
aI00
aI00
aI00
aI01
aI00
aI00
aI00
aI00
aI00
aI00
aI00
aI01
aI00
aI01
aI00
aI00
aI00
aI00
aI01
aI00
aI01
aI01
aI01
aI00
aI01
aI01
aI01
aI01
asS'is_u_intended_equals_um'
p45
(lp46
I00
aI00
aI00
aI00
aI00
aI00
aI00
aI00
aI00
aI00
aI00
aI00
aI00
aI00
aI00
aI00
aI00
aI00
aI00
aI00
aI00
aI00
aI00
aI00
aI00
aI00
aI00
aI00
aI00
aI00
aI00
aI00
aI00
aI00
aI00
aI00
aI00
aI00
aI00
aI00
aI00
aI00
aI00
aI00
aI00
aI00
aI00
aI00
aI00
aI00
aI00
aI00
aI00
aI00
aI00
aI00
aI00
aI00
aI00
aI00
aI00
aI00
aI00
aI00
aI00
aI00
aI00
aI00
aI00
aI00
aI00
aI00
aI00
aI00
aI00
aI00
aI00
aI00
aI00
aI00
aI00
aI00
aI00
aI00
aI00
aI00
aI00
aI00
aI00
aI00
aI00
aI00
aI00
aI00
aI00
aI00
aI00
aI00
aI00
aI00
aI00
aI00
aI00
aI00
aI00
aI00
aI00
aI00
aI00
aI00
aI00
aI00
aI00
aI00
asS'total_steps'
p47
I114
sS'normalized_h_of_p_ui_given_um'
p48
(lp49
cnumpy.core.multiarray
scalar
p50
(cnumpy
dtype
p51
(S'f8'
p52
I0
I1
tp53
Rp54
(I3
S'<'
p55
NNNI-1
I-1
I0
tp56
bS'Y\xc1\x03\x16\xe9-\xea?'
p57
tp58
Rp59
ag59
ag59
ag59
ag59
ag59
ag59
ag59
ag59
ag59
ag59
ag59
ag59
ag59
ag59
ag59
ag59
ag59
ag59
ag59
ag59
ag59
ag59
ag59
ag59
ag59
ag59
ag59
ag59
ag59
ag59
ag59
ag59
ag59
ag59
ag59
ag59
ag59
ag59
ag59
ag59
ag59
ag59
ag59
ag59
ag59
ag59
ag59
ag59
ag59
ag59
ag59
ag59
ag59
ag59
ag59
ag59
ag59
ag59
ag59
ag59
ag59
ag59
ag59
ag59
ag59
ag59
ag59
ag59
ag59
ag59
ag59
ag59
ag59
ag59
ag59
ag59
ag59
ag59
ag59
ag59
ag59
ag59
ag59
ag59
ag59
ag59
ag59
ag59
ag59
ag59
ag59
ag59
ag59
ag59
ag59
ag59
ag59
ag59
ag59
ag59
ag59
ag59
ag59
ag59
ag59
ag59
ag59
ag59
ag59
ag59
ag59
ag59
ag59
asS'sp'
p60
(lp61
(S'p0'
p62
I0
S't'
p63
tp64
a(g62
I0
S'x'
p65
tp66
a(g62
I0
g65
tp67
ag67
ag67
a(g62
I0
g63
tp68
a(g62
I0
g63
tp69
ag69
ag69
a(g62
I0
S'y'
p70
tp71
a(S'p1'
p72
I0
g70
tp73
a(g72
I0
g63
tp74
a(g72
I0
g63
tp75
ag75
a(g72
I0
g65
tp76
a(g62
I0
g65
tp77
ag67
a(g62
I0
g70
tp78
a(g62
I0
g70
tp79
a(g62
I0
g65
tp80
ag67
a(g62
I0
g65
tp81
ag78
ag73
a(g72
I0
g70
tp82
a(g72
I0
g70
tp83
ag82
ag74
ag76
a(g72
I0
g63
tp84
a(g72
I0
g63
tp85
ag76
a(g72
I0
g70
tp86
ag74
ag76
ag84
ag85
a(g72
I0
g70
tp87
a(g72
I0
g65
tp88
a(S'p2'
p89
I0
g65
tp90
a(g89
I0
g70
tp91
a(g89
I0
g63
tp92
a(g89
I0
g63
tp93
a(g89
I0
g65
tp94
a(g89
I0
g65
tp95
a(g89
I0
g63
tp96
ag93
a(g89
I0
g63
tp97
ag97
ag94
a(g89
I0
g65
tp98
ag91
a(g89
I0
g65
tp99
ag95
ag91
a(S'p3'
p100
I0
g70
tp101
a(g100
I0
g70
tp102
a(g100
I0
g65
tp103
a(g89
I0
g65
tp104
ag95
ag98
ag96
ag97
a(g89
I0
g70
tp105
ag101
ag103
a(g100
I0
g70
tp106
ag103
a(g100
I0
g63
tp107
a(g100
I0
g63
tp108
a(g100
I0
g70
tp109
ag102
a(g100
I0
g63
tp110
a(g100
F1.5707963267948966
g63
tp111
a(g100
F1.5707963267948966
g65
tp112
a(g89
F1.5707963267948966
g65
tp113
a(g89
F1.5707963267948966
g70
tp114
a(g72
F1.5707963267948966
g70
tp115
a(g72
F1.5707963267948966
g63
tp116
a(g72
F1.5707963267948966
g70
tp117
a(g72
F1.5707963267948966
g65
tp118
a(g62
F1.5707963267948966
g65
tp119
a(g62
F1.5707963267948966
g63
tp120
a(g62
F1.5707963267948966
g63
tp121
ag121
a(g62
F1.5707963267948966
g65
tp122
ag120
a(g62
F1.5707963267948966
g63
tp123
ag123
a(g62
F1.5707963267948966
g70
tp124
a(g62
F1.5707963267948966
g65
tp125
a(g62
F1.5707963267948966
g65
tp126
ag120
ag121
ag122
ag120
ag123
ag124
a(g62
F1.5707963267948966
g70
tp127
a(g72
F1.5707963267948966
g70
tp128
a(g72
F1.5707963267948966
g70
tp129
ag129
a(g72
F1.5707963267948966
g70
tp130
ag129
ag118
a(g72
F1.5707963267948966
g63
tp131
a(g72
F1.5707963267948966
g65
tp132
a(g89
F1.5707963267948966
g65
tp133
ag114
a(g89
F1.5707963267948966
g65
tp134
ag114
a(g100
F1.5707963267948966
g70
tp135
a(g100
F1.5707963267948966
g65
tp136
a(S'p4'
p137
F1.5707963267948966
g65
tp138
asS's'
p139
(lp140
(g62
I0
g22
tp141
ag64
ag66
ag67
ag67
ag67
ag68
ag69
ag69
ag69
ag71
ag73
ag74
ag75
ag75
ag76
ag77
ag67
ag78
ag79
ag80
ag67
ag81
ag78
ag73
ag82
ag83
ag82
ag74
ag76
ag84
ag85
ag76
ag86
ag74
ag76
ag84
ag85
ag87
ag88
ag90
ag91
ag92
ag93
ag94
ag95
ag96
ag93
ag97
ag97
ag94
ag98
ag91
ag99
ag95
ag91
ag101
ag102
ag103
ag104
ag95
ag98
ag96
ag97
ag105
ag101
ag103
ag106
ag103
ag107
ag108
ag109
ag102
ag110
ag111
ag112
ag113
ag114
ag115
ag116
ag117
ag118
ag119
ag120
ag121
ag121
ag122
ag120
ag123
ag123
ag124
ag125
ag126
ag120
ag121
ag122
ag120
ag123
ag124
ag127
ag128
ag129
ag129
ag130
ag129
ag118
ag131
ag132
ag133
ag114
ag134
ag114
ag135
ag136
asS'ui'
p142
(lp143
S'hp'
p144
ag144
aS'ss'
p145
aS'hs'
p146
ag145
ag146
ag146
ag144
ag145
ag146
ag145
ag146
ag144
ag145
ag144
ag60
ag145
ag144
ag145
ag60
ag145
ag144
ag144
ag145
ag146
ag145
ag60
ag144
ag144
ag60
ag146
ag144
ag60
ag144
ag144
ag60
ag145
ag146
ag146
ag145
ag144
ag145
ag146
ag146
ag145
ag144
ag146
ag146
ag146
ag145
ag146
ag146
ag146
ag146
ag144
ag145
ag144
ag146
ag144
ag146
ag144
ag146
ag145
ag146
ag145
ag146
ag144
ag145
ag146
ag146
ag144
ag146
ag144
ag60
ag144
ag145
ag144
ag144
ag144
ag146
ag146
ag60
ag146
ag146
ag144
ag144
ag146
ag145
ag146
ag146
ag60
ag146
ag146
ag146
ag144
ag146
ag145
ag146
ag60
ag145
ag146
ag145
ag145
ag146
ag146
ag145
ag144
ag145
ag144
ag146
ag144
ag145
ag146
ag145
asS'um_before'
p147
(lp148
g60
ag144
ag145
ag145
ag145
ag146
ag145
ag145
ag145
ag146
ag145
ag144
ag60
ag60
ag144
ag60
ag145
ag144
ag60
ag146
ag145
ag60
ag144
ag145
ag60
ag145
ag60
ag144
ag144
ag146
ag145
ag144
ag144
ag144
ag144
ag146
ag145
ag146
ag146
ag145
ag144
ag144
ag60
ag144
ag145
ag146
ag60
ag145
ag145
ag144
ag60
ag144
ag146
ag145
ag144
ag145
ag60
ag146
ag60
ag145
ag60
ag146
ag145
ag146
ag145
ag146
ag144
ag146
ag146
ag145
ag146
ag60
ag144
ag60
ag144
ag60
ag144
ag60
ag144
ag146
ag146
ag60
ag146
ag60
ag60
ag144
ag146
ag145
ag145
ag146
ag146
ag145
ag146
ag60
ag144
ag146
ag145
ag146
ag60
ag145
ag145
ag145
ag60
ag145
ag146
ag146
ag144
ag145
ag144
ag146
ag144
ag145
ag146
ag145
asS'um_after'
p149
(lp150
g60
ag144
ag145
ag145
ag145
ag146
ag145
ag145
ag145
ag146
ag145
ag144
ag60
ag60
ag144
ag60
ag145
ag144
ag60
ag146
ag145
ag60
ag144
ag145
ag60
ag145
ag60
ag144
ag144
ag146
ag145
ag144
ag144
ag144
ag144
ag146
ag145
ag146
ag146
ag145
ag144
ag144
ag60
ag144
ag145
ag146
ag60
ag145
ag145
ag144
ag60
ag144
ag146
ag145
ag144
ag145
ag60
ag146
ag60
ag145
ag60
ag146
ag145
ag146
ag145
ag146
ag144
ag146
ag146
ag145
ag146
ag60
ag144
ag60
ag144
ag60
ag144
ag60
ag144
ag146
ag146
ag60
ag146
ag60
ag60
ag144
ag146
ag145
ag145
ag146
ag146
ag145
ag146
ag60
ag144
ag146
ag145
ag146
ag60
ag145
ag145
ag145
ag60
ag145
ag146
ag146
ag144
ag145
ag144
ag146
ag144
ag145
ag146
ag145
asS'is_normalized_entropy_less_than_threshold'
p151
(lp152
g50
(g51
(S'b1'
p153
I0
I1
tp154
Rp155
(I3
S'|'
p156
NNNI-1
I-1
I0
tp157
bS'\x01'
p158
tp159
Rp160
ag160
ag160
ag160
ag160
ag160
ag160
ag160
ag160
ag160
ag160
ag160
ag160
ag160
ag160
ag160
ag160
ag160
ag160
ag160
ag160
ag160
ag160
ag160
ag160
ag160
ag160
ag160
ag160
ag160
ag160
ag160
ag160
ag160
ag160
ag160
ag160
ag160
ag160
ag160
ag160
ag160
ag160
ag160
ag160
ag160
ag160
ag160
ag160
ag160
ag160
ag160
ag160
ag160
ag160
ag160
ag160
ag160
ag160
ag160
ag160
ag160
ag160
ag160
ag160
ag160
ag160
ag160
ag160
ag160
ag160
ag160
ag160
ag160
ag160
ag160
ag160
ag160
ag160
ag160
ag160
ag160
ag160
ag160
ag160
ag160
ag160
ag160
ag160
ag160
ag160
ag160
ag160
ag160
ag160
ag160
ag160
ag160
ag160
ag160
ag160
ag160
ag160
ag160
ag160
ag160
ag160
ag160
ag160
ag160
ag160
ag160
ag160
ag160
asaa(lp161
S'index'
p162
aI86311
aatp163
Rp164
.