ccollections
OrderedDict
p0
((lp1
(lp2
S'combination_dict'
p3
ag0
((lp4
(lp5
S'r_to_g_config'
p6
aS'tl'
p7
aa(lp8
S'num_turns'
p9
aI1
aa(lp10
S'start_direction'
p11
acutils_ms
StartDirection
p12
(I0
tp13
Rp14
aa(lp15
S'assistance_type'
p16
acutils_ms
AssistanceType
p17
(I1
tp18
Rp19
aa(lp20
S'start_mode'
p21
aS't'
p22
aa(lp23
S'ui_given_a_noise'
p24
aF0.5
aa(lp25
S'um_given_ui_noise'
p26
aF0.5
aa(lp27
S'entropy_threshold'
p28
aF0.6
aatp29
Rp30
aa(lp31
S'data'
p32
accollections
defaultdict
p33
(c__builtin__
list
p34
tp35
Rp36
S'a'
p37
(lp38
S'mode_r'
p39
aS'move_n'
p40
aS'mode_l'
p41
ag41
ag41
ag41
ag39
ag41
aS'move_p'
p42
ag39
ag41
ag39
ag39
ag39
ag39
ag40
ag41
ag40
ag41
ag42
ag41
ag42
ag41
ag40
ag39
ag39
ag39
ag39
ag39
ag42
ag41
ag41
ag41
ag40
ag39
ag42
ag39
ag41
ag41
ag39
ag41
ag42
ag41
ag41
ag39
ag39
ag39
ag39
ag39
ag40
ag39
ag41
ag39
ag42
ag41
ag39
ag42
asS'assistance_match_with_ground_truth'
p43
(lp44
I01
aI01
aI00
aI00
aI00
aI00
aI00
aI01
aI00
aI00
aI00
aI00
aI00
aI00
aI01
aI00
aI01
aI01
aI01
aI01
aI01
aI00
aI01
aI01
aI00
aI00
aI00
aI00
aI01
aI00
aI00
aI00
aI01
aI01
aI01
aI00
aI00
aI00
aI00
aI00
aI01
aI00
aI00
aI00
aI00
aI00
aI00
aI00
aI01
aI01
aI00
aI00
aI01
aI00
aI00
aI01
aI01
asS'is_u_intended_equals_um'
p45
(lp46
I01
aI01
aI00
aI00
aI00
aI00
aI01
aI01
aI01
aI01
aI00
aI01
aI01
aI01
aI01
aI00
aI01
aI01
aI01
aI01
aI01
aI01
aI01
aI01
aI01
aI01
aI01
aI01
aI01
aI01
aI00
aI01
aI01
aI01
aI01
aI01
aI01
aI01
aI00
aI01
aI01
aI01
aI01
aI00
aI01
aI01
aI01
aI01
aI01
aI01
aI01
aI00
aI01
aI01
aI00
aI01
aI01
asS'total_steps'
p47
I57
sS'normalized_h_of_p_ui_given_um'
p48
(lp49
cnumpy.core.multiarray
scalar
p50
(cnumpy
dtype
p51
(S'f8'
p52
I0
I1
tp53
Rp54
(I3
S'<'
p55
NNNI-1
I-1
I0
tp56
bS'\xa3Ci\xd4\xe0?\xe7?'
p57
tp58
Rp59
ag50
(g54
S'\xc3i}\xae\xb7\xb2\xd7?'
p60
tp61
Rp62
ag50
(g54
S'\x97`\xf9\xec\xceb\xe5?'
p63
tp64
Rp65
ag50
(g54
S'\x97`\xf9\xec\xceb\xe5?'
p66
tp67
Rp68
ag50
(g54
S'\x97`\xf9\xec\xceb\xe5?'
p69
tp70
Rp71
ag50
(g54
S'QZ&\xd1)\x13\xe6?'
p72
tp73
Rp74
ag50
(g54
S'\xa9\xe3\x9c\x1e\xbaK\xed?'
p75
tp76
Rp77
ag50
(g54
S'\xecq\x17\xfeQ~\xdc?'
p78
tp79
Rp80
ag50
(g54
S'\xe1\x92\xb0\xb9\xa1h\xeb?'
p81
tp82
Rp83
ag50
(g54
S'\xfe\x07M\xf7\xd9;\xeb?'
p84
tp85
Rp86
ag50
(g54
S'QZ&\xd1)\x13\xe6?'
p87
tp88
Rp89
ag50
(g54
S'\xfe\x07M\xf7\xd9;\xeb?'
p90
tp91
Rp92
ag50
(g54
S'\xfe\x07M\xf7\xd9;\xeb?'
p93
tp94
Rp95
ag50
(g54
S'\x04\x1c\xfd\xc3\xd3\xad\xec?'
p96
tp97
Rp98
ag50
(g54
S'\xa3Ci\xd4\xe0?\xe7?'
p99
tp100
Rp101
ag50
(g54
S'*F\x1aT\r\xea\xe4?'
p102
tp103
Rp104
ag50
(g54
S'\xecq\x17\xfeQ~\xdc?'
p105
tp106
Rp107
ag50
(g54
S'\xc3i}\xae\xb7\xb2\xd7?'
p108
tp109
Rp110
ag50
(g54
S'\xecq\x17\xfeQ~\xdc?'
p111
tp112
Rp113
ag50
(g54
S'<\xf7\xa1MSx\xe0?'
p114
tp115
Rp116
ag50
(g54
S'\xecq\x17\xfeQ~\xdc?'
p117
tp118
Rp119
ag50
(g54
S'\n\xe9Vb\x13\xa4\xef?'
p120
tp121
Rp122
ag50
(g54
S'\xecq\x17\xfeQ~\xdc?'
p123
tp124
Rp125
ag50
(g54
S'\xc3i}\xae\xb7\xb2\xd7?'
p126
tp127
Rp128
ag50
(g54
S'\x04\x1c\xfd\xc3\xd3\xad\xec?'
p129
tp130
Rp131
ag50
(g54
S'\xfe\x07M\xf7\xd9;\xeb?'
p132
tp133
Rp134
ag50
(g54
S'\xfe\x07M\xf7\xd9;\xeb?'
p135
tp136
Rp137
ag50
(g54
S'\xfe\x07M\xf7\xd9;\xeb?'
p138
tp139
Rp140
ag50
(g54
S'\xa3Ci\xd4\xe0?\xe7?'
p141
tp142
Rp143
ag50
(g54
S'\n\xe9Vb\x13\xa4\xef?'
p144
tp145
Rp146
ag50
(g54
S'\x97`\xf9\xec\xceb\xe5?'
p147
tp148
Rp149
ag50
(g54
S'\xa8d\xb3\\\x1eQ\xe3?'
p150
tp151
Rp152
ag50
(g54
S'\xecq\x17\xfeQ~\xdc?'
p153
tp154
Rp155
ag50
(g54
S'\xc3i}\xae\xb7\xb2\xd7?'
p156
tp157
Rp158
ag50
(g54
S'\xa3Ci\xd4\xe0?\xe7?'
p159
tp160
Rp161
ag50
(g54
S'\xe1\x92\xb0\xb9\xa1h\xeb?'
p162
tp163
Rp164
ag50
(g54
S'\xa9\xe3\x9c\x1e\xbaK\xed?'
p165
tp166
Rp167
ag50
(g54
S'\xa8d\xb3\\\x1eQ\xe3?'
p168
tp169
Rp170
ag50
(g54
S'QZ&\xd1)\x13\xe6?'
p171
tp172
Rp173
ag50
(g54
S'\xa9\xe3\x9c\x1e\xbaK\xed?'
p174
tp175
Rp176
ag50
(g54
S'\xecq\x17\xfeQ~\xdc?'
p177
tp178
Rp179
ag50
(g54
S'\n\xe9Vb\x13\xa4\xef?'
p180
tp181
Rp182
ag50
(g54
S'\xa8d\xb3\\\x1eQ\xe3?'
p183
tp184
Rp185
ag50
(g54
S'QZ&\xd1)\x13\xe6?'
p186
tp187
Rp188
ag50
(g54
S'\x04\x1c\xfd\xc3\xd3\xad\xec?'
p189
tp190
Rp191
ag50
(g54
S'\xfe\x07M\xf7\xd9;\xeb?'
p192
tp193
Rp194
ag50
(g54
S'\xfe\x07M\xf7\xd9;\xeb?'
p195
tp196
Rp197
ag50
(g54
S'\xfe\x07M\xf7\xd9;\xeb?'
p198
tp199
Rp200
ag50
(g54
S'\xa3Ci\xd4\xe0?\xe7?'
p201
tp202
Rp203
ag50
(g54
S'\xc3i}\xae\xb7\xb2\xd7?'
p204
tp205
Rp206
ag50
(g54
S'\xa9\xe3\x9c\x1e\xbaK\xed?'
p207
tp208
Rp209
ag50
(g54
S'QZ&\xd1)\x13\xe6?'
p210
tp211
Rp212
ag50
(g54
S'\xa3Ci\xd4\xe0?\xe7?'
p213
tp214
Rp215
ag50
(g54
S'N\x15\x01\xdaYv\xee?'
p216
tp217
Rp218
ag50
(g54
S'QZ&\xd1)\x13\xe6?'
p219
tp220
Rp221
ag50
(g54
S'\xa3Ci\xd4\xe0?\xe7?'
p222
tp223
Rp224
ag50
(g54
S'<\xf7\xa1MSx\xe0?'
p225
tp226
Rp227
asS'sp'
p228
(lp229
(S'p0'
p230
I0
S'x'
p231
tp232
a(S'p1'
p233
I0
g231
tp234
a(g233
I0
g231
tp235
ag235
ag235
a(g233
I0
S'y'
p236
tp237
a(g233
I0
g231
tp238
a(g233
I0
S't'
p239
tp240
a(g233
I0
g236
tp241
a(g230
I0
g236
tp242
a(g230
I0
g239
tp243
a(g230
I0
g239
tp244
ag244
a(g230
I0
g239
tp245
ag232
a(g230
I0
g236
tp246
a(g230
I0
g231
tp247
ag234
ag240
a(g233
F1.5707963267948966
g239
tp248
a(g233
F1.5707963267948966
g236
tp249
a(g230
F1.5707963267948966
g236
tp250
a(g230
F1.5707963267948966
g231
tp251
a(g233
F1.5707963267948966
g231
tp252
a(g233
F1.5707963267948966
g231
tp253
a(g233
F1.5707963267948966
g231
tp254
ag254
ag254
a(g233
F1.5707963267948966
g236
tp255
ag250
a(g230
F1.5707963267948966
g236
tp256
a(g230
F1.5707963267948966
g236
tp257
ag251
ag252
ag255
a(g233
F1.5707963267948966
g231
tp258
a(g233
F1.5707963267948966
g239
tp259
a(g233
F1.5707963267948966
g239
tp260
a(g233
F1.5707963267948966
g231
tp261
ag259
ag249
ag250
ag257
a(g230
F1.5707963267948966
g239
tp262
a(g230
F1.5707963267948966
g239
tp263
a(g230
F1.5707963267948966
g239
tp264
ag264
ag264
a(g230
F1.5707963267948966
g231
tp265
ag252
ag259
ag261
ag255
a(g233
F1.5707963267948966
g239
tp266
ag261
ag255
a(S'p2'
p267
F1.5707963267948966
g236
tp268
asS's'
p269
(lp270
(g230
I0
g22
tp271
ag232
ag234
ag235
ag235
ag235
ag237
ag238
ag240
ag241
ag242
ag243
ag244
ag244
ag245
ag232
ag246
ag247
ag234
ag240
ag248
ag249
ag250
ag251
ag252
ag253
ag254
ag254
ag254
ag255
ag250
ag256
ag257
ag251
ag252
ag255
ag258
ag259
ag260
ag261
ag259
ag249
ag250
ag257
ag262
ag263
ag264
ag264
ag264
ag265
ag252
ag259
ag261
ag255
ag266
ag261
ag255
asS'ui'
p272
(lp273
S'ss'
p274
ag274
aS'hs'
p275
ag275
ag228
aS'hp'
p276
ag275
ag228
ag228
ag274
ag275
ag275
ag274
ag276
ag276
ag274
ag275
ag274
ag275
ag228
ag275
ag275
ag275
ag274
ag276
ag276
ag276
ag274
ag228
ag274
ag228
ag228
ag275
ag274
ag276
ag228
ag276
ag228
ag276
ag275
ag275
ag228
ag275
ag275
ag228
ag276
ag276
ag276
ag276
ag274
ag276
ag228
ag276
ag228
ag276
ag228
ag275
asS'um_before'
p277
(lp278
g276
ag274
ag274
ag274
ag274
ag276
ag275
ag275
ag275
ag274
ag276
ag274
ag274
ag228
ag276
ag276
ag275
ag274
ag275
ag228
ag275
ag274
ag275
ag274
ag228
ag274
ag274
ag274
ag276
ag274
ag274
ag228
ag275
ag274
ag276
ag275
ag275
ag228
ag276
ag275
ag275
ag274
ag228
ag276
ag228
ag274
ag274
ag274
ag276
ag274
ag275
ag276
ag276
ag276
ag276
ag276
ag228
asS'um_after'
p279
(lp280
g276
ag274
ag274
ag274
ag274
ag276
ag275
ag275
ag275
ag274
ag276
ag274
ag274
ag228
ag276
ag276
ag275
ag274
ag275
ag228
ag275
ag274
ag275
ag274
ag228
ag274
ag274
ag274
ag276
ag274
ag274
ag228
ag275
ag274
ag276
ag275
ag275
ag228
ag276
ag275
ag275
ag274
ag228
ag276
ag228
ag274
ag274
ag274
ag276
ag274
ag275
ag276
ag276
ag276
ag276
ag276
ag228
asS'is_normalized_entropy_less_than_threshold'
p281
(lp282
g50
(g51
(S'b1'
p283
I0
I1
tp284
Rp285
(I3
S'|'
p286
NNNI-1
I-1
I0
tp287
bS'\x00'
p288
tp289
Rp290
ag50
(g285
S'\x01'
p291
tp292
Rp293
ag290
ag290
ag290
ag290
ag290
ag293
ag290
ag290
ag290
ag290
ag290
ag290
ag290
ag290
ag293
ag293
ag293
ag293
ag293
ag290
ag293
ag293
ag290
ag290
ag290
ag290
ag290
ag290
ag290
ag290
ag293
ag293
ag290
ag290
ag290
ag290
ag290
ag290
ag293
ag290
ag290
ag290
ag290
ag290
ag290
ag290
ag290
ag293
ag290
ag290
ag290
ag290
ag290
ag290
ag293
asaa(lp294
S'index'
p295
aI30911
aatp296
Rp297
.