ccollections
OrderedDict
p0
((lp1
(lp2
S'combination_dict'
p3
ag0
((lp4
(lp5
S'r_to_g_config'
p6
aS'bl'
p7
aa(lp8
S'num_turns'
p9
aI3
aa(lp10
S'start_direction'
p11
acutils_ms
StartDirection
p12
(I1
tp13
Rp14
aa(lp15
S'assistance_type'
p16
acutils_ms
AssistanceType
p17
(I1
tp18
Rp19
aa(lp20
S'start_mode'
p21
aS'x'
p22
aa(lp23
S'ui_given_a_noise'
p24
aF0.7
aa(lp25
S'um_given_ui_noise'
p26
aF0.3
aa(lp27
S'entropy_threshold'
p28
aF0.6
aatp29
Rp30
aa(lp31
S'data'
p32
accollections
defaultdict
p33
(c__builtin__
list
p34
tp35
Rp36
S'a'
p37
(lp38
S'mode_r'
p39
ag39
aS'move_n'
p40
ag39
ag40
ag39
ag40
aS'mode_l'
p41
ag40
ag39
aS'move_p'
p42
ag41
ag39
ag39
ag40
ag39
ag39
ag39
ag42
ag39
ag42
ag39
ag42
ag41
ag42
ag41
ag39
ag41
ag40
ag39
ag39
ag40
ag41
ag41
ag41
ag40
ag39
ag41
ag40
ag39
ag42
ag42
ag41
ag39
ag40
ag39
ag39
ag40
ag41
ag39
ag41
ag41
ag39
ag40
ag41
ag40
ag39
ag41
ag39
ag40
ag39
ag40
ag41
ag41
ag40
ag41
ag39
ag40
asS'assistance_match_with_ground_truth'
p43
(lp44
I00
aI01
aI00
aI01
aI00
aI01
aI00
aI01
aI01
aI01
aI00
aI00
aI00
aI01
aI01
aI00
aI00
aI01
aI00
aI01
aI01
aI00
aI00
aI01
aI00
aI00
aI00
aI01
aI00
aI00
aI01
aI00
aI00
aI00
aI01
aI00
aI00
aI01
aI01
aI01
aI00
aI00
aI00
aI01
aI00
aI00
aI01
aI00
aI00
aI00
aI00
aI00
aI01
aI01
aI01
aI00
aI00
aI00
aI01
aI00
aI01
aI01
aI00
aI01
aI00
aI00
aI01
aI01
asS'is_u_intended_equals_um'
p45
(lp46
I01
aI01
aI01
aI01
aI01
aI01
aI01
aI01
aI01
aI01
aI01
aI01
aI01
aI01
aI01
aI01
aI01
aI01
aI01
aI01
aI01
aI01
aI01
aI01
aI01
aI01
aI01
aI01
aI01
aI01
aI01
aI01
aI01
aI01
aI01
aI01
aI01
aI01
aI01
aI01
aI01
aI01
aI01
aI01
aI01
aI01
aI01
aI01
aI00
aI01
aI01
aI00
aI01
aI01
aI01
aI01
aI01
aI00
aI01
aI01
aI01
aI01
aI01
aI01
aI01
aI00
aI01
aI01
asS'total_steps'
p47
I68
sS'normalized_h_of_p_ui_given_um'
p48
(lp49
cnumpy.core.multiarray
scalar
p50
(cnumpy
dtype
p51
(S'f8'
p52
I0
I1
tp53
Rp54
(I3
S'<'
p55
NNNI-1
I-1
I0
tp56
bS'\xbb\xc9\x07@B\x8f\xdb?'
p57
tp58
Rp59
ag50
(g54
S'\xa0A\xba\x1e\xb1Z\xc4?'
p60
tp61
Rp62
ag50
(g54
S'\x94\x14\xc2\x12\x8b\x80\xe5?'
p63
tp64
Rp65
ag50
(g54
S'\xa0A\xba\x1e\xb1Z\xc4?'
p66
tp67
Rp68
ag50
(g54
S'\x94\x14\xc2\x12\x8b\x80\xe5?'
p69
tp70
Rp71
ag50
(g54
S'\xa0A\xba\x1e\xb1Z\xc4?'
p72
tp73
Rp74
ag50
(g54
S't\xa3m\xb7\xc3\x85\xe8?'
p75
tp76
Rp77
ag50
(g54
S'\xbe\x16\xce\x03;\xad\xd9?'
p78
tp79
Rp80
ag50
(g54
S'\xa7\x97=\x10\x173\xd9?'
p81
tp82
Rp83
ag50
(g54
S'\xa0A\xba\x1e\xb1Z\xc4?'
p84
tp85
Rp86
ag50
(g54
S'\xae/\xae\xc3\x0b\xd1\xe5?'
p87
tp88
Rp89
ag50
(g54
S'\x7f\x1cx[4\xe3\xd6?'
p90
tp91
Rp92
ag50
(g54
S'\xe4\xc2\xa0\xa9M\xb9\xe2?'
p93
tp94
Rp95
ag50
(g54
S'\xa0A\xba\x1e\xb1Z\xc4?'
p96
tp97
Rp98
ag50
(g54
S'\xa7\x97=\x10\x173\xd9?'
p99
tp100
Rp101
ag50
(g54
S'\xe4\xc2\xa0\xa9M\xb9\xe2?'
p102
tp103
Rp104
ag50
(g54
S'\xbb\xc9\x07@B\x8f\xdb?'
p105
tp106
Rp107
ag50
(g54
S'\xa0A\xba\x1e\xb1Z\xc4?'
p108
tp109
Rp110
ag50
(g54
S'\xef\xd0\xe1\x87\x97\x08\xeb?'
p111
tp112
Rp113
ag50
(g54
S'\xa0A\xba\x1e\xb1Z\xc4?'
p114
tp115
Rp116
ag50
(g54
S'\xb7s\x91\xadI\x17\xb7?'
p117
tp118
Rp119
ag50
(g54
S'\xe4\xc2\xa0\xa9M\xb9\xe2?'
p120
tp121
Rp122
ag50
(g54
S'\xae/\xae\xc3\x0b\xd1\xe5?'
p123
tp124
Rp125
ag50
(g54
S'\xbe\x16\xce\x03;\xad\xd9?'
p126
tp127
Rp128
ag50
(g54
S'\xae/\xae\xc3\x0b\xd1\xe5?'
p129
tp130
Rp131
ag50
(g54
S'\x7f\x1cx[4\xe3\xd6?'
p132
tp133
Rp134
ag50
(g54
S'h\xe4\x0f\xb8\xc4\xfb\xed?'
p135
tp136
Rp137
ag50
(g54
S'\xbe\x16\xce\x03;\xad\xd9?'
p138
tp139
Rp140
ag50
(g54
S'\x94\x14\xc2\x12\x8b\x80\xe5?'
p141
tp142
Rp143
ag50
(g54
S'\xe4\xc2\xa0\xa9M\xb9\xe2?'
p144
tp145
Rp146
ag50
(g54
S'\xa0A\xba\x1e\xb1Z\xc4?'
p147
tp148
Rp149
ag50
(g54
S't\xa3m\xb7\xc3\x85\xe8?'
p150
tp151
Rp152
ag50
(g54
S'\x7f\x1cx[4\xe3\xd6?'
p153
tp154
Rp155
ag50
(g54
S'\x7f\x1cx[4\xe3\xd6?'
p156
tp157
Rp158
ag50
(g54
S'\xbe\x16\xce\x03;\xad\xd9?'
p159
tp160
Rp161
ag50
(g54
S'\x94\x14\xc2\x12\x8b\x80\xe5?'
p162
tp163
Rp164
ag50
(g54
S'h\xe4\x0f\xb8\xc4\xfb\xed?'
p165
tp166
Rp167
ag50
(g54
S'\xbe\x16\xce\x03;\xad\xd9?'
p168
tp169
Rp170
ag50
(g54
S'\xa7\x97=\x10\x173\xd9?'
p171
tp172
Rp173
ag50
(g54
S'\xa0A\xba\x1e\xb1Z\xc4?'
p174
tp175
Rp176
ag50
(g54
S'\x1c\x1a\x84\x1c\xf4\x91\xe6?'
p177
tp178
Rp179
ag50
(g54
S'\xae/\xae\xc3\x0b\xd1\xe5?'
p180
tp181
Rp182
ag50
(g54
S'\xa0\x8d\x98\x13I\x14\xe1?'
p183
tp184
Rp185
ag50
(g54
S'\xa0A\xba\x1e\xb1Z\xc4?'
p186
tp187
Rp188
ag50
(g54
S'\x94\x14\xc2\x12\x8b\x80\xe5?'
p189
tp190
Rp191
ag50
(g54
S'\xe4\xc2\xa0\xa9M\xb9\xe2?'
p192
tp193
Rp194
ag50
(g54
S'\xa0A\xba\x1e\xb1Z\xc4?'
p195
tp196
Rp197
ag50
(g54
S't\xa3m\xb7\xc3\x85\xe8?'
p198
tp199
Rp200
ag50
(g54
S'\x15\xee\xed=n(\xeb?'
p201
tp202
Rp203
ag50
(g54
S'h\xe4\x0f\xb8\xc4\xfb\xed?'
p204
tp205
Rp206
ag50
(g54
S'\x7f\x1cx[4\xe3\xd6?'
p207
tp208
Rp209
ag50
(g54
S'\x15\xee\xed=n(\xeb?'
p210
tp211
Rp212
ag50
(g54
S'\xa0A\xba\x1e\xb1Z\xc4?'
p213
tp214
Rp215
ag50
(g54
S'\xa7\x97=\x10\x173\xd9?'
p216
tp217
Rp218
ag50
(g54
S'\xbe\x16\xce\x03;\xad\xd9?'
p219
tp220
Rp221
ag50
(g54
S'*7\xbdk\xb4$\xd6?'
p222
tp223
Rp224
ag50
(g54
S'h\xe4\x0f\xb8\xc4\xfb\xed?'
p225
tp226
Rp227
ag50
(g54
S'\x15\xee\xed=n(\xeb?'
p228
tp229
Rp230
ag50
(g54
S'\xa0A\xba\x1e\xb1Z\xc4?'
p231
tp232
Rp233
ag50
(g54
S'\x94\x14\xc2\x12\x8b\x80\xe5?'
p234
tp235
Rp236
ag50
(g54
S'\xa0A\xba\x1e\xb1Z\xc4?'
p237
tp238
Rp239
ag50
(g54
S'\xa7\x97=\x10\x173\xd9?'
p240
tp241
Rp242
ag50
(g54
S'\x7f\x1cx[4\xe3\xd6?'
p243
tp244
Rp245
ag50
(g54
S'\xbe\x16\xce\x03;\xad\xd9?'
p246
tp247
Rp248
ag50
(g54
S't\xa3m\xb7\xc3\x85\xe8?'
p249
tp250
Rp251
ag50
(g54
S'\x15\xee\xed=n(\xeb?'
p252
tp253
Rp254
ag50
(g54
S'\xa0A\xba\x1e\xb1Z\xc4?'
p255
tp256
Rp257
ag50
(g54
S'\xa7\x97=\x10\x173\xd9?'
p258
tp259
Rp260
asS'sp'
p261
(lp262
(S'p0'
p263
I0
S'x'
p264
tp265
a(g263
I0
S'y'
p266
tp267
a(g263
I0
g264
tp268
ag267
ag268
ag267
a(g263
I0
S't'
p269
tp270
a(g263
I0
g266
tp271
a(S'p1'
p272
I0
g266
tp273
a(g272
I0
g269
tp274
a(g272
I0
g264
tp275
a(g263
I0
g264
tp276
a(g263
I0
g264
tp277
ag267
ag273
a(g272
I0
g266
tp278
a(g272
I0
g266
tp279
ag274
a(g272
I0
g266
tp280
ag274
a(g272
F1.5707963267948966
g269
tp281
a(g272
I0
g269
tp282
ag275
a(g272
I0
g269
tp283
ag275
ag276
a(g263
I0
g269
tp284
ag271
ag268
ag277
ag267
ag270
a(g263
I0
g269
tp285
ag285
ag271
ag268
ag284
ag271
ag273
ag274
a(g272
I0
g269
tp286
ag275
a(S'p2'
p287
I0
g264
tp288
a(g287
I0
g266
tp289
a(g287
I0
g264
tp290
a(g287
I0
g264
tp291
ag289
a(g287
I0
g269
tp292
a(g287
I0
g264
tp293
a(g287
I0
g269
tp294
a(g287
I0
g269
tp295
ag293
ag289
a(S'p3'
p296
I0
g266
tp297
a(g296
I0
g264
tp298
a(g287
I0
g264
tp299
ag294
ag293
ag289
ag290
ag289
ag297
a(g296
I0
g266
tp300
ag298
a(g296
I0
g266
tp301
a(g296
I0
g269
tp302
a(g296
I0
g264
tp303
a(S'p4'
p304
I0
g264
tp305
asS's'
p306
(lp307
(g263
I0
g22
tp308
ag265
ag267
ag268
ag267
ag268
ag267
ag270
ag271
ag273
ag274
ag275
ag276
ag277
ag267
ag273
ag278
ag279
ag274
ag280
ag274
ag281
ag282
ag275
ag283
ag275
ag276
ag284
ag271
ag268
ag277
ag267
ag270
ag285
ag285
ag271
ag268
ag284
ag271
ag273
ag274
ag286
ag275
ag288
ag289
ag290
ag291
ag289
ag292
ag293
ag294
ag295
ag293
ag289
ag297
ag298
ag299
ag294
ag293
ag289
ag290
ag289
ag297
ag300
ag298
ag301
ag302
ag303
asS'ui'
p309
(lp310
S'hp'
p311
ag311
aS'ss'
p312
ag311
ag261
ag311
ag312
aS'hs'
p313
ag313
ag311
ag311
ag261
ag312
ag311
ag311
ag312
ag261
ag311
ag313
ag311
ag261
ag261
ag311
ag313
ag261
ag261
ag313
ag313
ag313
ag312
ag312
ag311
ag261
ag261
ag313
ag313
ag313
ag313
ag312
ag311
ag312
ag311
ag312
ag311
ag312
ag312
ag311
ag311
ag261
ag313
ag261
ag313
ag311
ag312
ag313
ag261
ag312
ag313
ag311
ag311
ag311
ag312
ag261
ag313
ag313
ag313
ag311
ag312
asS'um_before'
p314
(lp315
g261
ag311
ag313
ag311
ag313
ag311
ag311
ag313
ag312
ag311
ag311
ag261
ag312
ag311
ag312
ag312
ag261
ag311
ag313
ag311
ag261
ag312
ag311
ag313
ag311
ag261
ag313
ag313
ag313
ag312
ag311
ag311
ag261
ag261
ag313
ag313
ag313
ag313
ag312
ag311
ag312
ag311
ag312
ag311
ag313
ag312
ag311
ag311
ag311
ag313
ag261
ag311
ag311
ag312
ag313
ag261
ag313
ag311
ag311
ag313
ag311
ag312
ag261
ag313
ag311
ag311
ag311
ag312
asS'um_after'
p316
(lp317
g261
ag311
ag313
ag311
ag313
ag311
ag311
ag313
ag312
ag311
ag311
ag261
ag312
ag311
ag312
ag312
ag261
ag311
ag313
ag311
ag261
ag312
ag311
ag313
ag311
ag261
ag313
ag313
ag313
ag312
ag311
ag311
ag261
ag261
ag313
ag313
ag313
ag313
ag312
ag311
ag312
ag311
ag312
ag311
ag313
ag312
ag311
ag311
ag311
ag313
ag261
ag311
ag311
ag312
ag313
ag261
ag313
ag311
ag311
ag313
ag311
ag312
ag261
ag313
ag311
ag311
ag311
ag312
asS'is_normalized_entropy_less_than_threshold'
p318
(lp319
g50
(g51
(S'b1'
p320
I0
I1
tp321
Rp322
(I3
S'|'
p323
NNNI-1
I-1
I0
tp324
bS'\x01'
p325
tp326
Rp327
ag327
ag50
(g322
S'\x00'
p328
tp329
Rp330
ag327
ag330
ag327
ag330
ag327
ag327
ag327
ag330
ag327
ag327
ag327
ag327
ag327
ag327
ag327
ag330
ag327
ag327
ag327
ag330
ag327
ag330
ag327
ag330
ag327
ag330
ag327
ag327
ag330
ag327
ag327
ag327
ag330
ag330
ag327
ag327
ag327
ag330
ag330
ag327
ag327
ag330
ag327
ag327
ag330
ag330
ag330
ag327
ag330
ag327
ag327
ag327
ag327
ag330
ag330
ag327
ag330
ag327
ag327
ag327
ag327
ag330
ag330
ag327
ag327
asaa(lp331
S'index'
p332
aI83864
aatp333
Rp334
.