ccollections
OrderedDict
p0
((lp1
(lp2
S'combination_dict'
p3
ag0
((lp4
(lp5
S'r_to_g_config'
p6
aS'br'
p7
aa(lp8
S'num_turns'
p9
aI3
aa(lp10
S'start_direction'
p11
acutils_ms
StartDirection
p12
(I0
tp13
Rp14
aa(lp15
S'assistance_type'
p16
acutils_ms
AssistanceType
p17
(I0
tp18
Rp19
aa(lp20
S'start_mode'
p21
aS'y'
p22
aa(lp23
S'ui_given_a_noise'
p24
aF0.3
aa(lp25
S'um_given_ui_noise'
p26
aF0.1
aa(lp27
S'entropy_threshold'
p28
aF0.6
aatp29
Rp30
aa(lp31
S'data'
p32
accollections
defaultdict
p33
(c__builtin__
list
p34
tp35
Rp36
S'a'
p37
(lp38
S'mode_l'
p39
aS'move_p'
p40
ag39
ag40
ag39
aS'mode_r'
p41
aS'move_n'
p42
ag39
ag41
ag40
ag39
ag40
ag41
ag39
ag40
ag40
ag41
ag42
ag39
ag40
ag39
ag42
ag39
ag39
ag40
ag41
ag41
ag40
ag41
ag42
ag41
ag41
ag41
ag42
asS'assistance_match_with_ground_truth'
p43
(lp44
I01
aI01
aI01
aI01
aI00
aI01
aI00
aI00
aI01
aI00
aI01
aI00
aI00
aI01
aI00
aI01
aI01
aI00
aI00
aI01
aI01
aI01
aI00
aI01
aI00
aI00
aI01
aI01
aI01
aI00
aI00
aI00
aI01
aI01
asS'is_u_intended_equals_um'
p45
(lp46
I01
aI01
aI01
aI01
aI01
aI01
aI01
aI01
aI01
aI01
aI01
aI01
aI01
aI01
aI01
aI01
aI01
aI01
aI00
aI01
aI01
aI01
aI01
aI01
aI01
aI01
aI01
aI01
aI01
aI01
aI01
aI01
aI01
aI01
asS'total_steps'
p47
I34
sS'normalized_h_of_p_ui_given_um'
p48
(lp49
cnumpy.core.multiarray
scalar
p50
(cnumpy
dtype
p51
(S'f8'
p52
I0
I1
tp53
Rp54
(I3
S'<'
p55
NNNI-1
I-1
I0
tp56
bS'l\xe0\x1d\xfc\xf2\x18\xb5?'
p57
tp58
Rp59
ag50
(g54
S'c\xd4=\xba\xfa\xd4\xc5?'
p60
tp61
Rp62
ag50
(g54
S'l\xe0\x1d\xfc\xf2\x18\xb5?'
p63
tp64
Rp65
ag50
(g54
S'c\xd4=\xba\xfa\xd4\xc5?'
p66
tp67
Rp68
ag50
(g54
S')\x03b\xe2e \xe1?'
p69
tp70
Rp71
ag50
(g54
S'\xe3\xe3\x95B\x83\xdf\xc0?'
p72
tp73
Rp74
ag50
(g54
S')\x8b\xeee\xcf\xbc\xe8?'
p75
tp76
Rp77
ag50
(g54
S')\x03b\xe2e \xe1?'
p78
tp79
Rp80
ag50
(g54
S'\xe3\xe3\x95B\x83\xdf\xc0?'
p81
tp82
Rp83
ag50
(g54
S'\xdeH7\x1fW\xf2\xe6?'
p84
tp85
Rp86
ag50
(g54
S'l\xe0\x1d\xfc\xf2\x18\xb5?'
p87
tp88
Rp89
ag50
(g54
S'x\x86\xd0M=<\xe1?'
p90
tp91
Rp92
ag50
(g54
S't\x95\x9e]\x1d\x1b\xd3?'
p93
tp94
Rp95
ag50
(g54
S'l\xe0\x1d\xfc\xf2\x18\xb5?'
p96
tp97
Rp98
ag50
(g54
S't\x8f\x8c\xac\xbd\xca\xdb?'
p99
tp100
Rp101
ag50
(g54
S'c\xd4=\xba\xfa\xd4\xc5?'
p102
tp103
Rp104
ag50
(g54
S'\xe3\xe3\x95B\x83\xdf\xc0?'
p105
tp106
Rp107
ag50
(g54
S'N\xa0\xae\xc0\xb7|\xe2?'
p108
tp109
Rp110
ag50
(g54
S"X'\xf1\xb1\xde&\xee?"
p111
tp112
Rp113
ag50
(g54
S'c\xd4=\xba\xfa\xd4\xc5?'
p114
tp115
Rp116
ag50
(g54
S'l\xe0\x1d\xfc\xf2\x18\xb5?'
p117
tp118
Rp119
ag50
(g54
S'\xa0b!\x91\xb7/\xba?'
p120
tp121
Rp122
ag50
(g54
S'@\xba\x03@\\\xf8\xe1?'
p123
tp124
Rp125
ag50
(g54
S'l\xe0\x1d\xfc\xf2\x18\xb5?'
p126
tp127
Rp128
ag50
(g54
S'x\x86\xd0M=<\xe1?'
p129
tp130
Rp131
ag50
(g54
S'@\x1f\xdahv3\xe3?'
p132
tp133
Rp134
ag50
(g54
S'\xe3\xe3\x95B\x83\xdf\xc0?'
p135
tp136
Rp137
ag50
(g54
S'c\xd4=\xba\xfa\xd4\xc5?'
p138
tp139
Rp140
ag50
(g54
S'\xe3\xe3\x95B\x83\xdf\xc0?'
p141
tp142
Rp143
ag50
(g54
S'\xb8\x11\x95z\xc3\xc2\xd5?'
p144
tp145
Rp146
ag50
(g54
S'Z\x1f\x85EN\n\xe7?'
p147
tp148
Rp149
ag50
(g54
S'Z\x1f\x85EN\n\xe7?'
p150
tp151
Rp152
ag50
(g54
S'\xe3\xe3\x95B\x83\xdf\xc0?'
p153
tp154
Rp155
ag50
(g54
S'\xa0b!\x91\xb7/\xba?'
p156
tp157
Rp158
asS'sp'
p159
(lp160
(S'p0'
p161
I0
S'x'
p162
tp163
a(S'p1'
p164
I0
g162
tp165
a(g164
I0
S't'
p166
tp167
a(g164
F1.5707963267948966
g166
tp168
a(g164
F1.5707963267948966
g162
tp169
a(g164
F1.5707963267948966
S'y'
p170
tp171
a(g161
F1.5707963267948966
g170
tp172
a(g161
F1.5707963267948966
g166
tp173
a(g161
F1.5707963267948966
g162
tp174
a(g161
F1.5707963267948966
g170
tp175
a(g161
F1.5707963267948966
g162
tp176
a(g161
F1.5707963267948966
g166
tp177
a(g161
F1.5707963267948966
g170
tp178
ag176
a(g161
F1.5707963267948966
g162
tp179
a(g164
F1.5707963267948966
g162
tp180
ag171
a(g164
F1.5707963267948966
g166
tp181
a(g164
I0
g166
tp182
ag168
a(g164
F1.5707963267948966
g170
tp183
a(S'p2'
p184
F1.5707963267948966
g170
tp185
a(g184
F1.5707963267948966
g170
tp186
a(g184
F1.5707963267948966
g162
tp187
a(g184
F1.5707963267948966
g166
tp188
a(g184
F1.5707963267948966
g166
tp189
a(g184
F1.5707963267948966
g162
tp190
a(S'p3'
p191
F1.5707963267948966
g162
tp192
a(g191
F1.5707963267948966
g170
tp193
a(g191
F1.5707963267948966
g162
tp194
a(g191
F1.5707963267948966
g162
tp195
ag195
ag193
a(S'p4'
p196
F1.5707963267948966
g170
tp197
asS's'
p198
(lp199
(g161
I0
g22
tp200
ag163
ag165
ag167
ag168
ag169
ag171
ag172
ag173
ag174
ag175
ag176
ag177
ag178
ag176
ag179
ag180
ag171
ag181
ag182
ag168
ag183
ag185
ag186
ag187
ag188
ag189
ag190
ag192
ag193
ag194
ag195
ag195
ag193
asS'ui'
p201
(lp202
S'hs'
p203
ag159
ag203
ag159
aS'hp'
p204
ag204
ag159
ag204
ag204
ag204
ag203
ag159
ag203
ag203
aS'ss'
p205
ag159
ag204
ag203
ag203
ag159
ag203
ag205
ag203
ag203
ag159
ag204
ag204
ag159
ag204
ag203
ag204
ag205
ag204
ag205
asS'um_before'
p206
(lp207
g203
ag159
ag203
ag159
ag204
ag204
ag159
ag204
ag204
ag204
ag203
ag203
ag203
ag203
ag205
ag159
ag204
ag204
ag205
ag159
ag203
ag205
ag159
ag203
ag203
ag159
ag204
ag159
ag204
ag203
ag205
ag205
ag204
ag205
asS'um_after'
p208
(lp209
g203
ag159
ag203
ag159
ag204
ag204
ag159
ag204
ag204
ag204
ag203
ag203
ag203
ag203
ag205
ag159
ag204
ag204
ag205
ag159
ag203
ag205
ag159
ag203
ag203
ag159
ag204
ag159
ag204
ag203
ag205
ag205
ag204
ag205
asS'is_normalized_entropy_less_than_threshold'
p210
(lp211
g50
(g51
(S'b1'
p212
I0
I1
tp213
Rp214
(I3
S'|'
p215
NNNI-1
I-1
I0
tp216
bS'\x01'
p217
tp218
Rp219
ag219
ag219
ag219
ag219
ag219
ag50
(g214
S'\x00'
p220
tp221
Rp222
ag219
ag219
ag222
ag219
ag219
ag219
ag219
ag219
ag219
ag219
ag219
ag222
ag219
ag219
ag219
ag219
ag219
ag219
ag222
ag219
ag219
ag219
ag219
ag222
ag222
ag219
ag219
asaa(lp223
S'index'
p224
aI106611
aatp225
Rp226
.