ccollections
OrderedDict
p0
((lp1
(lp2
S'combination_dict'
p3
ag0
((lp4
(lp5
S'r_to_g_config'
p6
aS'br'
p7
aa(lp8
S'num_turns'
p9
aI3
aa(lp10
S'start_direction'
p11
acutils_ms
StartDirection
p12
(I1
tp13
Rp14
aa(lp15
S'assistance_type'
p16
acutils_ms
AssistanceType
p17
(I0
tp18
Rp19
aa(lp20
S'start_mode'
p21
aS't'
p22
aa(lp23
S'ui_given_a_noise'
p24
aF0.5
aa(lp25
S'um_given_ui_noise'
p26
aF0.3
aa(lp27
S'entropy_threshold'
p28
aF0.9
aatp29
Rp30
aa(lp31
S'data'
p32
accollections
defaultdict
p33
(c__builtin__
list
p34
tp35
Rp36
S'a'
p37
(lp38
S'mode_l'
p39
ag39
aS'mode_r'
p40
ag40
aS'move_n'
p41
ag39
aS'move_p'
p42
ag40
ag41
ag39
ag42
ag40
ag41
ag40
ag42
ag42
ag42
ag42
ag40
ag42
ag40
ag42
ag42
ag40
ag42
ag40
ag40
ag42
ag42
ag40
ag40
ag40
ag40
ag40
ag42
ag40
ag42
ag42
ag42
ag40
ag41
ag39
ag39
ag40
ag40
ag42
ag42
ag40
ag41
ag39
ag39
ag42
ag40
ag42
asS'assistance_match_with_ground_truth'
p43
(lp44
I00
aI00
aI00
aI01
aI01
aI01
aI01
aI01
aI00
aI01
aI01
aI01
aI01
aI01
aI00
aI00
aI00
aI00
aI01
aI00
aI01
aI00
aI01
aI00
aI00
aI00
aI01
aI00
aI00
aI00
aI00
aI00
aI00
aI01
aI01
aI01
aI00
aI00
aI00
aI01
aI00
aI00
aI00
aI00
aI01
aI00
aI01
aI01
aI01
aI00
aI01
aI00
aI01
aI01
asS'is_u_intended_equals_um'
p45
(lp46
I01
aI01
aI01
aI01
aI01
aI01
aI01
aI01
aI01
aI01
aI01
aI01
aI01
aI01
aI00
aI01
aI01
aI01
aI01
aI01
aI01
aI00
aI01
aI01
aI01
aI01
aI01
aI00
aI01
aI01
aI01
aI01
aI01
aI01
aI01
aI01
aI00
aI00
aI01
aI01
aI01
aI00
aI01
aI01
aI01
aI00
aI01
aI01
aI01
aI01
aI01
aI01
aI01
aI01
asS'total_steps'
p47
I54
sS'normalized_h_of_p_ui_given_um'
p48
(lp49
cnumpy.core.multiarray
scalar
p50
(cnumpy
dtype
p51
(S'f8'
p52
I0
I1
tp53
Rp54
(I3
S'<'
p55
NNNI-1
I-1
I0
tp56
bS't\x15\x97\xedm\xc4\xe6?'
p57
tp58
Rp59
ag50
(g54
S'kI2i\x9e\xed\xe7?'
p60
tp61
Rp62
ag50
(g54
S'\x8fs\xdfQ\xc6\xca\xe3?'
p63
tp64
Rp65
ag50
(g54
S'\xde\xf4|z[w\xd4?'
p66
tp67
Rp68
ag50
(g54
S'\r\x0e\x16\xaa\xff\x05\xcb?'
p69
tp70
Rp71
ag50
(g54
S'pg"\x07Q}\xd1?'
p72
tp73
Rp74
ag50
(g54
S'B\xb8\xf7\xb5\xbb\xbd\xc7?'
p75
tp76
Rp77
ag50
(g54
S'\xde\xf4|z[w\xd4?'
p78
tp79
Rp80
ag50
(g54
S'\x14\xa1/\xe18O\xdc?'
p81
tp82
Rp83
ag50
(g54
S'pg"\x07Q}\xd1?'
p84
tp85
Rp86
ag50
(g54
S'B\xb8\xf7\xb5\xbb\xbd\xc7?'
p87
tp88
Rp89
ag50
(g54
S'\xde\xf4|z[w\xd4?'
p90
tp91
Rp92
ag50
(g54
S'\r\x0e\x16\xaa\xff\x05\xcb?'
p93
tp94
Rp95
ag50
(g54
S'\xde\xf4|z[w\xd4?'
p96
tp97
Rp98
ag50
(g54
S'u\x1b-+C.\xeb?'
p99
tp100
Rp101
ag50
(g54
S'\xda\x0bT[\x9a\xea\xe2?'
p102
tp103
Rp104
ag50
(g54
S'\xda\x0bT[\x9a\xea\xe2?'
p105
tp106
Rp107
ag50
(g54
S',\x05\xf8\x97q$\xe8?'
p108
tp109
Rp110
ag50
(g54
S'\xde\xf4|z[w\xd4?'
p111
tp112
Rp113
ag50
(g54
S',\x05\xf8\x97q$\xe8?'
p114
tp115
Rp116
ag50
(g54
S'\xde\xf4|z[w\xd4?'
p117
tp118
Rp119
ag50
(g54
S'u\x1b-+C.\xeb?'
p120
tp121
Rp122
ag50
(g54
S'B\xb8\xf7\xb5\xbb\xbd\xc7?'
p123
tp124
Rp125
ag50
(g54
S'\x8fs\xdfQ\xc6\xca\xe3?'
p126
tp127
Rp128
ag50
(g54
S',\x05\xf8\x97q$\xe8?'
p129
tp130
Rp131
ag50
(g54
S'\x8fs\xdfQ\xc6\xca\xe3?'
p132
tp133
Rp134
ag50
(g54
S'\xde\xf4|z[w\xd4?'
p135
tp136
Rp137
ag50
(g54
S'u\x1b-+C.\xeb?'
p138
tp139
Rp140
ag50
(g54
S',\x05\xf8\x97q$\xe8?'
p141
tp142
Rp143
ag50
(g54
S'\x8fs\xdfQ\xc6\xca\xe3?'
p144
tp145
Rp146
ag50
(g54
S'\x8fs\xdfQ\xc6\xca\xe3?'
p147
tp148
Rp149
ag50
(g54
S'\x8fs\xdfQ\xc6\xca\xe3?'
p150
tp151
Rp152
ag50
(g54
S'\x8fs\xdfQ\xc6\xca\xe3?'
p153
tp154
Rp155
ag50
(g54
S'\xde\xf4|z[w\xd4?'
p156
tp157
Rp158
ag50
(g54
S'B\xb8\xf7\xb5\xbb\xbd\xc7?'
p159
tp160
Rp161
ag50
(g54
S'\xde\xf4|z[w\xd4?'
p162
tp163
Rp164
ag50
(g54
S'u\x1b-+C.\xeb?'
p165
tp166
Rp167
ag50
(g54
S'u\x1b-+C.\xeb?'
p168
tp169
Rp170
ag50
(g54
S'\xda\x0bT[\x9a\xea\xe2?'
p171
tp172
Rp173
ag50
(g54
S'\xde\xf4|z[w\xd4?'
p174
tp175
Rp176
ag50
(g54
S'\x14\xa1/\xe18O\xdc?'
p177
tp178
Rp179
ag50
(g54
S'\xce%\xa6T9p\xea?'
p180
tp181
Rp182
ag50
(g54
S'kI2i\x9e\xed\xe7?'
p183
tp184
Rp185
ag50
(g54
S'\x8fs\xdfQ\xc6\xca\xe3?'
p186
tp187
Rp188
ag50
(g54
S'\xde\xf4|z[w\xd4?'
p189
tp190
Rp191
ag50
(g54
S'u\x1b-+C.\xeb?'
p192
tp193
Rp194
ag50
(g54
S'B\xb8\xf7\xb5\xbb\xbd\xc7?'
p195
tp196
Rp197
ag50
(g54
S'\xde\xf4|z[w\xd4?'
p198
tp199
Rp200
ag50
(g54
S'\r\x0e\x16\xaa\xff\x05\xcb?'
p201
tp202
Rp203
ag50
(g54
S't\x15\x97\xedm\xc4\xe6?'
p204
tp205
Rp206
ag50
(g54
S'pg"\x07Q}\xd1?'
p207
tp208
Rp209
ag50
(g54
S',\x05\xf8\x97q$\xe8?'
p210
tp211
Rp212
ag50
(g54
S'\xde\xf4|z[w\xd4?'
p213
tp214
Rp215
ag50
(g54
S'B\xb8\xf7\xb5\xbb\xbd\xc7?'
p216
tp217
Rp218
asS'sp'
p219
(lp220
(S'p0'
p221
I0
S't'
p222
tp223
a(g221
I0
S'x'
p224
tp225
a(g221
I0
g224
tp226
a(g221
I0
S'y'
p227
tp228
a(S'p1'
p229
I0
g227
tp230
a(g229
I0
g224
tp231
a(S'p2'
p232
I0
g224
tp233
a(g232
I0
g227
tp234
a(g229
I0
g227
tp235
ag231
ag233
ag234
a(S'p3'
p236
I0
g227
tp237
a(g236
I0
g222
tp238
ag238
a(g236
I0
g222
tp239
ag239
a(g236
I0
g227
tp240
ag238
ag240
ag238
ag238
a(g236
F1.5707963267948966
g222
tp241
a(g236
I0
g222
tp242
ag240
a(g236
I0
g227
tp243
ag238
ag238
ag240
ag243
ag243
ag243
ag243
ag238
ag241
a(g236
F1.5707963267948966
g224
tp244
ag244
ag244
a(g232
F1.5707963267948966
g224
tp245
a(g232
F1.5707963267948966
g227
tp246
a(g229
F1.5707963267948966
g227
tp247
ag247
a(g229
F1.5707963267948966
g222
tp248
a(g229
F1.5707963267948966
g222
tp249
a(g229
F1.5707963267948966
g224
tp250
ag250
a(g232
F1.5707963267948966
g224
tp251
ag246
a(g236
F1.5707963267948966
g227
tp252
a(g236
F1.5707963267948966
g227
tp253
a(g236
F1.5707963267948966
g224
tp254
a(g236
F1.5707963267948966
g222
tp255
ag244
a(S'p4'
p256
F1.5707963267948966
g224
tp257
asS's'
p258
(lp259
(g221
I0
g22
tp260
ag223
ag225
ag226
ag228
ag230
ag231
ag233
ag234
ag235
ag231
ag233
ag234
ag237
ag238
ag238
ag239
ag239
ag240
ag238
ag240
ag238
ag238
ag241
ag242
ag240
ag243
ag238
ag238
ag240
ag243
ag243
ag243
ag243
ag238
ag241
ag244
ag244
ag244
ag245
ag246
ag247
ag247
ag248
ag249
ag250
ag250
ag251
ag246
ag252
ag253
ag254
ag255
ag244
asS'ui'
p261
(lp262
S'hp'
p263
aS'ss'
p264
ag264
ag263
ag264
aS'hs'
p265
ag219
ag263
ag264
ag265
ag219
ag264
ag264
ag263
ag264
ag264
ag264
ag265
ag263
ag265
ag263
ag265
ag219
ag264
ag264
ag263
ag263
ag219
ag219
ag264
ag263
ag264
ag263
ag263
ag219
ag263
ag263
ag264
ag265
ag263
ag219
ag264
ag264
ag264
ag263
ag219
ag219
ag263
ag264
ag263
ag265
ag265
ag263
ag219
asS'um_before'
p266
(lp267
g264
ag263
ag264
ag263
ag264
ag265
ag219
ag263
ag219
ag265
ag219
ag263
ag264
ag263
ag263
ag264
ag264
ag265
ag263
ag265
ag263
ag263
ag219
ag264
ag265
ag264
ag263
ag263
ag265
ag264
ag264
ag264
ag264
ag263
ag219
ag263
ag263
ag263
ag264
ag263
ag219
ag219
ag263
ag264
ag263
ag263
ag219
ag263
ag264
ag264
ag265
ag265
ag263
ag219
asS'um_after'
p268
(lp269
g264
ag263
ag264
ag263
ag264
ag265
ag219
ag263
ag219
ag265
ag219
ag263
ag264
ag263
aNag264
ag264
ag265
ag263
ag265
ag263
aNag219
ag264
ag265
ag264
ag263
aNag265
ag264
ag264
ag264
ag264
ag263
ag219
ag263
aNaNag264
ag263
ag219
aNag263
ag264
ag263
aNag219
ag263
ag264
ag264
ag265
ag265
ag263
ag219
asS'is_normalized_entropy_less_than_threshold'
p270
(lp271
g50
(g51
(S'b1'
p272
I0
I1
tp273
Rp274
(I3
S'|'
p275
NNNI-1
I-1
I0
tp276
bS'\x01'
p277
tp278
Rp279
ag279
ag279
ag279
ag279
ag279
ag279
ag279
ag279
ag279
ag279
ag279
ag279
ag279
ag279
ag279
ag279
ag279
ag279
ag279
ag279
ag279
ag279
ag279
ag279
ag279
ag279
ag279
ag279
ag279
ag279
ag279
ag279
ag279
ag279
ag279
ag279
ag279
ag279
ag279
ag279
ag279
ag279
ag279
ag279
ag279
ag279
ag279
ag279
ag279
ag279
ag279
ag279
ag279
asaa(lp280
S'index'
p281
aI111696
aatp282
Rp283
.