ccollections
OrderedDict
p0
((lp1
(lp2
S'combination_dict'
p3
ag0
((lp4
(lp5
S'r_to_g_config'
p6
aS'tr'
p7
aa(lp8
S'num_turns'
p9
aI2
aa(lp10
S'start_direction'
p11
acutils_ms
StartDirection
p12
(I0
tp13
Rp14
aa(lp15
S'assistance_type'
p16
acutils_ms
AssistanceType
p17
(I0
tp18
Rp19
aa(lp20
S'start_mode'
p21
aS'y'
p22
aa(lp23
S'ui_given_a_noise'
p24
aF0.3
aa(lp25
S'um_given_ui_noise'
p26
aF0.3
aa(lp27
S'entropy_threshold'
p28
aF0.8
aatp29
Rp30
aa(lp31
S'data'
p32
accollections
defaultdict
p33
(c__builtin__
list
p34
tp35
Rp36
S'a'
p37
(lp38
S'mode_l'
p39
ag39
aS'move_p'
p40
aS'mode_r'
p41
ag40
ag40
ag40
ag40
ag40
ag40
ag40
ag40
ag41
ag41
ag41
ag41
ag40
ag40
ag41
ag40
ag40
ag40
asS'assistance_match_with_ground_truth'
p42
(lp43
I00
aI01
aI01
aI01
aI00
aI00
aI00
aI00
aI00
aI00
aI00
aI01
aI00
aI00
aI00
aI01
aI00
aI01
aI01
aI00
aI00
aI01
asS'is_u_intended_equals_um'
p44
(lp45
I00
aI01
aI01
aI01
aI00
aI00
aI00
aI00
aI00
aI00
aI00
aI01
aI00
aI00
aI00
aI01
aI00
aI01
aI01
aI00
aI00
aI01
asS'total_steps'
p46
I22
sS'normalized_h_of_p_ui_given_um'
p47
(lp48
cnumpy.core.multiarray
scalar
p49
(cnumpy
dtype
p50
(S'f8'
p51
I0
I1
tp52
Rp53
(I3
S'<'
p54
NNNI-1
I-1
I0
tp55
bS'T\x8b;%\xa7l\xe6?'
p56
tp57
Rp58
ag49
(g53
S'h\xb8\xca=\xe5\xcf\xd0?'
p59
tp60
Rp61
ag49
(g53
S'\x06<a\x8cx7\xba?'
p62
tp63
Rp64
ag49
(g53
S'\xbb\xdd\x18\x0c\xeaE\xce?'
p65
tp66
Rp67
ag49
(g53
S'\xaf\x8f\xd1\xac\x12\xa9\xe0?'
p68
tp69
Rp70
ag49
(g53
S'\xaf\x8f\xd1\xac\x12\xa9\xe0?'
p71
tp72
Rp73
ag49
(g53
S'\xaf\x8f\xd1\xac\x12\xa9\xe0?'
p74
tp75
Rp76
ag49
(g53
S'\xaf\x8f\xd1\xac\x12\xa9\xe0?'
p77
tp78
Rp79
ag49
(g53
S'~\xe2M\x8d\xd9[\xe3?'
p80
tp81
Rp82
ag49
(g53
S'~\xe2M\x8d\xd9[\xe3?'
p83
tp84
Rp85
ag49
(g53
S'~\xe2M\x8d\xd9[\xe3?'
p86
tp87
Rp88
ag49
(g53
S'\x06<a\x8cx7\xba?'
p89
tp90
Rp91
ag49
(g53
S'\xc4\xe3\xfd~f\x86\xe2?'
p92
tp93
Rp94
ag49
(g53
S'\xa19\x06\xad\xbd\xf9\xe5?'
p95
tp96
Rp97
ag49
(g53
S'\x0c\x86&\x05/\xd9\xe4?'
p98
tp99
Rp100
ag49
(g53
S'\xbb\xdd\x18\x0c\xeaE\xce?'
p101
tp102
Rp103
ag49
(g53
S'~\xe2M\x8d\xd9[\xe3?'
p104
tp105
Rp106
ag49
(g53
S'\x06<a\x8cx7\xba?'
p107
tp108
Rp109
ag49
(g53
S'\xbb\xdd\x18\x0c\xeaE\xce?'
p110
tp111
Rp112
ag49
(g53
S'~\xe2M\x8d\xd9[\xe3?'
p113
tp114
Rp115
ag49
(g53
S'\xaf\x8f\xd1\xac\x12\xa9\xe0?'
p116
tp117
Rp118
ag49
(g53
S'\x06<a\x8cx7\xba?'
p119
tp120
Rp121
asS'sp'
p122
(lp123
(S'p0'
p124
I0
g22
tp125
a(g124
I0
S'x'
p126
tp127
a(S'p1'
p128
I0
g126
tp129
a(g128
I0
S'y'
p130
tp131
ag131
ag131
ag131
ag131
ag131
ag131
ag131
a(S'p2'
p132
I0
g130
tp133
ag133
ag133
ag133
a(g132
I0
S't'
p134
tp135
ag135
a(g132
F1.5707963267948966
g134
tp136
a(g132
F1.5707963267948966
g126
tp137
ag137
ag137
a(S'p3'
p138
F1.5707963267948966
g126
tp139
asS's'
p140
(lp141
g125
ag125
ag127
ag129
ag131
ag131
ag131
ag131
ag131
ag131
ag131
ag131
ag133
ag133
ag133
ag133
ag135
ag135
ag136
ag137
ag137
ag137
asS'ui'
p142
(lp143
S'ss'
p144
aS'hs'
p145
ag122
ag122
ag122
ag122
ag122
ag122
ag145
aS'hp'
p146
ag145
ag122
ag144
ag145
ag146
ag146
ag122
ag122
ag146
ag122
ag122
ag122
asS'um_before'
p147
(lp148
g144
ag145
ag122
ag146
ag146
ag146
ag146
ag146
ag145
ag145
ag145
ag122
ag144
ag145
ag122
ag146
ag145
ag122
ag146
ag145
ag146
ag122
asS'um_after'
p149
(lp150
Nag145
ag122
ag146
aNaNaNaNaNaNaNag122
aNaNaNag146
aNag122
ag146
aNaNag122
asS'is_normalized_entropy_less_than_threshold'
p151
(lp152
g49
(g50
(S'b1'
p153
I0
I1
tp154
Rp155
(I3
S'|'
p156
NNNI-1
I-1
I0
tp157
bS'\x01'
p158
tp159
Rp160
ag160
ag160
ag160
ag160
ag160
ag160
ag160
ag160
ag160
ag160
ag160
ag160
ag160
ag160
ag160
ag160
ag160
ag160
ag160
ag160
ag160
asaa(lp161
S'index'
p162
aI10682
aatp163
Rp164
.