ccollections
OrderedDict
p0
((lp1
(lp2
S'combination_dict'
p3
ag0
((lp4
(lp5
S'r_to_g_config'
p6
aS'tl'
p7
aa(lp8
S'num_turns'
p9
aI1
aa(lp10
S'start_direction'
p11
acutils_ms
StartDirection
p12
(I0
tp13
Rp14
aa(lp15
S'assistance_type'
p16
acutils_ms
AssistanceType
p17
(I0
tp18
Rp19
aa(lp20
S'start_mode'
p21
aS'y'
p22
aa(lp23
S'ui_given_a_noise'
p24
aF0.5
aa(lp25
S'um_given_ui_noise'
p26
aF0.3
aa(lp27
S'entropy_threshold'
p28
aF0.8
aatp29
Rp30
aa(lp31
S'data'
p32
accollections
defaultdict
p33
(c__builtin__
list
p34
tp35
Rp36
S'a'
p37
(lp38
S'mode_l'
p39
aS'move_n'
p40
aS'mode_r'
p41
ag41
ag41
ag41
ag40
ag41
ag41
ag40
ag39
ag40
ag39
ag39
ag39
aS'move_p'
p42
ag39
ag42
ag39
ag39
ag42
ag39
ag39
ag39
ag39
ag42
ag42
ag41
asS'assistance_match_with_ground_truth'
p43
(lp44
I01
aI00
aI00
aI00
aI00
aI01
aI00
aI00
aI01
aI00
aI01
aI01
aI00
aI00
aI01
aI01
aI00
aI00
aI00
aI01
aI00
aI00
aI00
aI00
aI01
aI00
aI00
aI00
asS'is_u_intended_equals_um'
p45
(lp46
I01
aI01
aI01
aI01
aI00
aI01
aI01
aI01
aI01
aI01
aI01
aI01
aI01
aI01
aI01
aI01
aI01
aI01
aI01
aI01
aI01
aI00
aI00
aI00
aI01
aI00
aI01
aI00
asS'total_steps'
p47
I28
sS'normalized_h_of_p_ui_given_um'
p48
(lp49
cnumpy.core.multiarray
scalar
p50
(cnumpy
dtype
p51
(S'f8'
p52
I0
I1
tp53
Rp54
(I3
S'<'
p55
NNNI-1
I-1
I0
tp56
bS'0\x96Cs\xa4\x1f\xce?'
p57
tp58
Rp59
ag50
(g54
S'\x9fJ\x08\x0fv4\xe3?'
p60
tp61
Rp62
ag50
(g54
S'\xe0\x9e\xf5\xfd\xf0\xdf\xe4?'
p63
tp64
Rp65
ag50
(g54
S'\xe0\x9e\xf5\xfd\xf0\xdf\xe4?'
p66
tp67
Rp68
ag50
(g54
S'\xa8P\x87ugh\xe8?'
p69
tp70
Rp71
ag50
(g54
S'j\xd8\xb2\x1c\xb2_\xcd?'
p72
tp73
Rp74
ag50
(g54
S'\x9fJ\x08\x0fv4\xe3?'
p75
tp76
Rp77
ag50
(g54
S'\xe0\x9e\xf5\xfd\xf0\xdf\xe4?'
p78
tp79
Rp80
ag50
(g54
S'j\xd8\xb2\x1c\xb2_\xcd?'
p81
tp82
Rp83
ag50
(g54
S'\xb4\x05\xb8\xbc\xbaY\xe7?'
p84
tp85
Rp86
ag50
(g54
S'0\x96Cs\xa4\x1f\xce?'
p87
tp88
Rp89
ag50
(g54
S'\xb8\xeb&6|F\xd6?'
p90
tp91
Rp92
ag50
(g54
S'\xef2q\x06\xc6\xcc\xe5?'
p93
tp94
Rp95
ag50
(g54
S'\xef2q\x06\xc6\xcc\xe5?'
p96
tp97
Rp98
ag50
(g54
S'0\x96Cs\xa4\x1f\xce?'
p99
tp100
Rp101
ag50
(g54
S'\x16\xca\xf8t\xb5}\xd7?'
p102
tp103
Rp104
ag50
(g54
S'\xef2q\x06\xc6\xcc\xe5?'
p105
tp106
Rp107
ag50
(g54
S'\x91\xce(8s\xc4\xe8?'
p108
tp109
Rp110
ag50
(g54
S'\xef2q\x06\xc6\xcc\xe5?'
p111
tp112
Rp113
ag50
(g54
S'0\x96Cs\xa4\x1f\xce?'
p114
tp115
Rp116
ag50
(g54
S'\x91\xce(8s\xc4\xe8?'
p117
tp118
Rp119
ag50
(g54
S'\x96`e\xab\t]\xe1?'
p120
tp121
Rp122
ag50
(g54
S'\xf5\x9c\xbbs\xf9P\xe6?'
p123
tp124
Rp125
ag50
(g54
S'\x96`e\xab\t]\xe1?'
p126
tp127
Rp128
ag50
(g54
S'0\x96Cs\xa4\x1f\xce?'
p129
tp130
Rp131
ag50
(g54
S'\x82\x81H\x08_\x8d\xed?'
p132
tp133
Rp134
ag50
(g54
S'\x06\x8a\x80K\x9e\xac\xe1?'
p135
tp136
Rp137
ag50
(g54
S'\x02\xbc\x9b\xd5!\xf0\xe9?'
p138
tp139
Rp140
asS'sp'
p141
(lp142
(S'p0'
p143
I0
S'x'
p144
tp145
a(g143
I0
S't'
p146
tp147
a(g143
I0
g146
tp148
ag148
ag148
a(g143
I0
g144
tp149
ag147
ag148
ag149
a(g143
I0
S'y'
p150
tp151
ag145
a(S'p1'
p152
I0
g144
tp153
a(g152
I0
g144
tp154
ag154
a(g152
I0
g146
tp155
a(g152
F1.5707963267948966
g146
tp156
a(g152
I0
g146
tp157
a(g152
I0
g144
tp158
ag154
ag155
ag158
ag158
ag158
ag158
ag155
a(g152
I0
g146
tp159
a(g152
I0
g150
tp160
a(S'p2'
p161
I0
g150
tp162
asS's'
p163
(lp164
(g143
I0
g22
tp165
ag145
ag147
ag148
ag148
ag148
ag149
ag147
ag148
ag149
ag151
ag145
ag153
ag154
ag154
ag155
ag156
ag157
ag158
ag154
ag155
ag158
ag158
ag158
ag158
ag155
ag159
ag160
asS'ui'
p166
(lp167
S'hs'
p168
aS'ss'
p169
aS'hp'
p170
ag169
ag168
ag170
ag168
ag169
ag170
ag168
ag168
ag169
ag169
ag168
ag168
ag170
ag168
ag170
ag169
ag169
ag141
ag168
ag168
ag170
ag168
ag169
ag168
ag141
asS'um_before'
p171
(lp172
g168
ag168
ag169
ag169
ag168
ag170
ag168
ag169
ag170
ag170
ag168
ag169
ag169
ag169
ag168
ag141
ag169
ag170
ag169
ag168
ag170
ag170
ag141
ag170
ag168
ag169
ag168
ag141
asS'um_after'
p173
(lp174
g168
ag168
ag169
ag169
aNag170
ag168
ag169
ag170
ag170
ag168
ag169
ag169
ag169
ag168
ag141
ag169
ag170
ag169
ag168
ag170
aNaNaNag168
ag169
ag168
ag141
asS'is_normalized_entropy_less_than_threshold'
p175
(lp176
g50
(g51
(S'b1'
p177
I0
I1
tp178
Rp179
(I3
S'|'
p180
NNNI-1
I-1
I0
tp181
bS'\x01'
p182
tp183
Rp184
ag184
ag184
ag184
ag184
ag184
ag184
ag184
ag184
ag184
ag184
ag184
ag184
ag184
ag184
ag184
ag184
ag184
ag184
ag184
ag184
ag184
ag184
ag184
ag184
ag50
(g179
S'\x00'
p185
tp186
Rp187
ag184
ag187
asaa(lp188
S'index'
p189
aI30085
aatp190
Rp191
.