ccollections
OrderedDict
p0
((lp1
(lp2
S'combination_dict'
p3
ag0
((lp4
(lp5
S'r_to_g_config'
p6
aS'tl'
p7
aa(lp8
S'num_turns'
p9
aI3
aa(lp10
S'start_direction'
p11
acutils_ms
StartDirection
p12
(I0
tp13
Rp14
aa(lp15
S'assistance_type'
p16
acutils_ms
AssistanceType
p17
(I0
tp18
Rp19
aa(lp20
S'start_mode'
p21
aS't'
p22
aa(lp23
S'ui_given_a_noise'
p24
aF0.3
aa(lp25
S'um_given_ui_noise'
p26
aF0.7
aa(lp27
S'entropy_threshold'
p28
aF0.5
aatp29
Rp30
aa(lp31
S'data'
p32
accollections
defaultdict
p33
(c__builtin__
list
p34
tp35
Rp36
S'a'
p37
(lp38
S'mode_r'
p39
aS'mode_l'
p40
aS'move_n'
p41
ag40
aS'move_p'
p42
ag40
ag42
ag39
ag42
ag39
ag42
ag42
ag40
ag42
ag42
ag42
ag39
ag39
ag39
ag42
ag39
ag42
ag42
ag40
ag42
ag40
ag42
ag39
ag39
ag40
ag42
ag40
ag41
ag40
ag40
ag40
ag40
ag41
ag39
ag42
ag39
ag39
ag40
ag39
ag42
ag40
ag41
ag39
ag39
ag40
ag41
ag39
ag41
ag41
ag40
ag41
ag39
ag42
ag40
ag41
ag40
ag39
ag41
ag40
ag40
ag39
ag41
ag39
ag41
ag39
ag42
ag40
ag39
ag41
ag39
ag42
asS'assistance_match_with_ground_truth'
p43
(lp44
I00
aI01
aI01
aI01
aI00
aI01
aI00
aI01
aI00
aI01
aI00
aI01
aI00
aI00
aI00
aI00
aI00
aI00
aI01
aI00
aI01
aI00
aI01
aI00
aI01
aI01
aI00
aI00
aI00
aI01
aI01
aI01
aI00
aI00
aI00
aI00
aI01
aI00
aI01
aI00
aI00
aI00
aI00
aI01
aI00
aI01
aI00
aI00
aI00
aI01
aI00
aI01
aI00
aI00
aI01
aI01
aI01
aI01
aI01
aI00
aI00
aI01
aI00
aI00
aI00
aI01
aI00
aI01
aI00
aI01
aI01
aI00
aI01
aI01
aI01
aI01
asS'is_u_intended_equals_um'
p45
(lp46
I00
aI01
aI01
aI01
aI01
aI01
aI00
aI01
aI00
aI01
aI00
aI01
aI00
aI00
aI00
aI00
aI00
aI00
aI01
aI00
aI01
aI00
aI01
aI00
aI01
aI01
aI00
aI00
aI00
aI01
aI01
aI01
aI00
aI00
aI00
aI01
aI01
aI00
aI01
aI00
aI01
aI00
aI00
aI01
aI00
aI01
aI00
aI01
aI00
aI01
aI00
aI01
aI00
aI00
aI01
aI01
aI01
aI01
aI01
aI00
aI00
aI01
aI00
aI00
aI00
aI01
aI00
aI01
aI00
aI01
aI01
aI00
aI01
aI01
aI01
aI01
asS'total_steps'
p47
I76
sS'normalized_h_of_p_ui_given_um'
p48
(lp49
cnumpy.core.multiarray
scalar
p50
(cnumpy
dtype
p51
(S'f8'
p52
I0
I1
tp53
Rp54
(I3
S'<'
p55
NNNI-1
I-1
I0
tp56
bS'\x9e\xf190\\\xb4\xea?'
p57
tp58
Rp59
ag50
(g54
S'\xe4A\xabD\x92\xab\xdc?'
p60
tp61
Rp62
ag50
(g54
S'\xe2\xd2\xa5]\xb7\x8b\xe3?'
p63
tp64
Rp65
ag50
(g54
S'\xe4A\xabD\x92\xab\xdc?'
p66
tp67
Rp68
ag50
(g54
S';\xb5\xb7\xf3\x94\x02\xe9?'
p69
tp70
Rp71
ag50
(g54
S'\xe4A\xabD\x92\xab\xdc?'
p72
tp73
Rp74
ag50
(g54
S'JD\x0b\xde\xaf\xf4\xe5?'
p75
tp76
Rp77
ag50
(g54
S'\x9a%\x1e\xbaf\xe2\xd2?'
p78
tp79
Rp80
ag50
(g54
S'JD\x0b\xde\xaf\xf4\xe5?'
p81
tp82
Rp83
ag50
(g54
S'\x9a%\x1e\xbaf\xe2\xd2?'
p84
tp85
Rp86
ag50
(g54
S'\x88\xaan`(\x9d\xe6?'
p87
tp88
Rp89
ag50
(g54
S'\xee\x80U\x90\xf1\x95\xdf?'
p90
tp91
Rp92
ag50
(g54
S'\xd8\xcbZ7\xbf\x10\xe6?'
p93
tp94
Rp95
ag50
(g54
S'\x88\xaan`(\x9d\xe6?'
p96
tp97
Rp98
ag50
(g54
S'\x88\xaan`(\x9d\xe6?'
p99
tp100
Rp101
ag50
(g54
S'JD\x0b\xde\xaf\xf4\xe5?'
p102
tp103
Rp104
ag50
(g54
S't\xb4+W\x11\x9c\xd9?'
p105
tp106
Rp107
ag50
(g54
S't\xb4+W\x11\x9c\xd9?'
p108
tp109
Rp110
ag50
(g54
S'\x9a%\x1e\xbaf\xe2\xd2?'
p111
tp112
Rp113
ag50
(g54
S'JD\x0b\xde\xaf\xf4\xe5?'
p114
tp115
Rp116
ag50
(g54
S'\x9a%\x1e\xbaf\xe2\xd2?'
p117
tp118
Rp119
ag50
(g54
S'\x88\xaan`(\x9d\xe6?'
p120
tp121
Rp122
ag50
(g54
S'\xee\x80U\x90\xf1\x95\xdf?'
p123
tp124
Rp125
ag50
(g54
S'\xd8\xcbZ7\xbf\x10\xe6?'
p126
tp127
Rp128
ag50
(g54
S'\xee\x80U\x90\xf1\x95\xdf?'
p129
tp130
Rp131
ag50
(g54
S'\xe4A\xabD\x92\xab\xdc?'
p132
tp133
Rp134
ag50
(g54
S'JD\x0b\xde\xaf\xf4\xe5?'
p135
tp136
Rp137
ag50
(g54
S't\xb4+W\x11\x9c\xd9?'
p138
tp139
Rp140
ag50
(g54
S'\x9e\xf190\\\xb4\xea?'
p141
tp142
Rp143
ag50
(g54
S'\xe4A\xabD\x92\xab\xdc?'
p144
tp145
Rp146
ag50
(g54
S'\xee\x80U\x90\xf1\x95\xdf?'
p147
tp148
Rp149
ag50
(g54
S'\xe4A\xabD\x92\xab\xdc?'
p150
tp151
Rp152
ag50
(g54
S'\xc0\xe8\xfcs\xfa\x84\xe6?'
p153
tp154
Rp155
ag50
(g54
S'\xd8\xcbZ7\xbf\x10\xe6?'
p156
tp157
Rp158
ag50
(g54
S'\xd8\xcbZ7\xbf\x10\xe6?'
p159
tp160
Rp161
ag50
(g54
S'N\x12B\x1f?\xfe\xee?'
p162
tp163
Rp164
ag50
(g54
S'\xe4A\xabD\x92\xab\xdc?'
p165
tp166
Rp167
ag50
(g54
S'\x04\x8a\xe2]\x87\x03\xea?'
p168
tp169
Rp170
ag50
(g54
S'\x9a%\x1e\xbaf\xe2\xd2?'
p171
tp172
Rp173
ag50
(g54
S'JD\x0b\xde\xaf\xf4\xe5?'
p174
tp175
Rp176
ag50
(g54
S'\x8c\xe1\x945\xa6\x00\xe7?'
p177
tp178
Rp179
ag50
(g54
S'\x9e\xf190\\\xb4\xea?'
p180
tp181
Rp182
ag50
(g54
S'\xb0\xc0u\xa6\xf6\xd8\xe9?'
p183
tp184
Rp185
ag50
(g54
S'\x9a%\x1e\xbaf\xe2\xd2?'
p186
tp187
Rp188
ag50
(g54
S'\x88\xaan`(\x9d\xe6?'
p189
tp190
Rp191
ag50
(g54
S'\xe4A\xabD\x92\xab\xdc?'
p192
tp193
Rp194
ag50
(g54
S'V\x9cl\xcb\xba\x84\xe9?'
p195
tp196
Rp197
ag50
(g54
S'\x8c\xe1\x945\xa6\x00\xe7?'
p198
tp199
Rp200
ag50
(g54
S'\x9e\xf190\\\xb4\xea?'
p201
tp202
Rp203
ag50
(g54
S'\xe4A\xabD\x92\xab\xdc?'
p204
tp205
Rp206
ag50
(g54
S'V\x9cl\xcb\xba\x84\xe9?'
p207
tp208
Rp209
ag50
(g54
S'\x9a%\x1e\xbaf\xe2\xd2?'
p210
tp211
Rp212
ag50
(g54
S'\x04\x8a\xe2]\x87\x03\xea?'
p213
tp214
Rp215
ag50
(g54
S'\xc0\xe8\xfcs\xfa\x84\xe6?'
p216
tp217
Rp218
ag50
(g54
S'\xe4A\xabD\x92\xab\xdc?'
p219
tp220
Rp221
ag50
(g54
S'\xe2\xd2\xa5]\xb7\x8b\xe3?'
p222
tp223
Rp224
ag50
(g54
S'\x9a%\x1e\xbaf\xe2\xd2?'
p225
tp226
Rp227
ag50
(g54
S'\xee\x80U\x90\xf1\x95\xdf?'
p228
tp229
Rp230
ag50
(g54
S'\xe4A\xabD\x92\xab\xdc?'
p231
tp232
Rp233
ag50
(g54
S'\xc0\xe8\xfcs\xfa\x84\xe6?'
p234
tp235
Rp236
ag50
(g54
S'\xb0\xc0u\xa6\xf6\xd8\xe9?'
p237
tp238
Rp239
ag50
(g54
S'\x9a%\x1e\xbaf\xe2\xd2?'
p240
tp241
Rp242
ag50
(g54
S'\xc0\xe8\xfcs\xfa\x84\xe6?'
p243
tp244
Rp245
ag50
(g54
S'\xd8\xcbZ7\xbf\x10\xe6?'
p246
tp247
Rp248
ag50
(g54
S'\xb0\xc0u\xa6\xf6\xd8\xe9?'
p249
tp250
Rp251
ag50
(g54
S'\x9a%\x1e\xbaf\xe2\xd2?'
p252
tp253
Rp254
ag50
(g54
S'V\x9cl\xcb\xba\x84\xe9?'
p255
tp256
Rp257
ag50
(g54
S'\x9a%\x1e\xbaf\xe2\xd2?'
p258
tp259
Rp260
ag50
(g54
S'\x04\x8a\xe2]\x87\x03\xea?'
p261
tp262
Rp263
ag50
(g54
S'\x9a%\x1e\xbaf\xe2\xd2?'
p264
tp265
Rp266
ag50
(g54
S'\xee\x80U\x90\xf1\x95\xdf?'
p267
tp268
Rp269
ag50
(g54
S'\xb0\xc0u\xa6\xf6\xd8\xe9?'
p270
tp271
Rp272
ag50
(g54
S'\x9a%\x1e\xbaf\xe2\xd2?'
p273
tp274
Rp275
ag50
(g54
S'\xe2\xd2\xa5]\xb7\x8b\xe3?'
p276
tp277
Rp278
ag50
(g54
S'\x9a%\x1e\xbaf\xe2\xd2?'
p279
tp280
Rp281
ag50
(g54
S'\xee\x80U\x90\xf1\x95\xdf?'
p282
tp283
Rp284
asS'sp'
p285
(lp286
(S'p0'
p287
I0
S'y'
p288
tp289
a(g287
I0
S'x'
p290
tp291
a(S'p1'
p292
I0
g290
tp293
a(g292
I0
S't'
p294
tp295
a(g292
I0
g290
tp296
ag295
a(g292
I0
g288
tp297
a(g292
I0
g294
tp298
ag297
ag298
a(g292
I0
g294
tp299
a(g292
F1.5707963267948966
g294
tp300
a(g292
I0
g294
tp301
ag299
ag299
ag297
ag297
ag297
ag298
ag297
ag298
ag299
ag300
ag301
ag300
a(g292
F1.5707963267948966
g288
tp302
a(g292
F1.5707963267948966
g290
tp303
ag303
a(g292
F1.5707963267948966
g294
tp304
ag302
a(S'p2'
p305
F1.5707963267948966
g288
tp306
a(g305
F1.5707963267948966
g290
tp307
a(g305
F1.5707963267948966
g288
tp308
a(g305
F1.5707963267948966
g288
tp309
ag309
a(g305
F1.5707963267948966
g288
tp310
ag307
a(g292
F1.5707963267948966
g290
tp311
a(g292
F1.5707963267948966
g288
tp312
ag303
a(g292
F1.5707963267948966
g290
tp313
ag304
a(g292
F1.5707963267948966
g290
tp314
ag312
a(g287
F1.5707963267948966
g288
tp315
a(g287
F1.5707963267948966
g290
tp316
a(g287
F1.5707963267948966
g294
tp317
a(g287
F1.5707963267948966
g294
tp318
a(g287
F1.5707963267948966
g288
tp319
ag316
ag317
a(g287
F1.5707963267948966
g290
tp320
a(g287
F1.5707963267948966
g290
tp321
a(g287
F1.5707963267948966
g288
tp322
ag316
a(g292
F1.5707963267948966
g290
tp323
ag312
ag306
ag307
ag308
a(g305
F1.5707963267948966
g294
tp324
a(g305
F1.5707963267948966
g290
tp325
ag308
ag309
ag324
ag325
a(g305
F1.5707963267948966
g294
tp326
ag325
ag311
ag312
ag306
ag324
ag325
a(S'p3'
p327
F1.5707963267948966
g290
tp328
a(g327
F1.5707963267948966
g288
tp329
a(S'p4'
p330
F1.5707963267948966
g288
tp331
asS's'
p332
(lp333
(g287
I0
g22
tp334
ag289
ag291
ag293
ag295
ag296
ag295
ag297
ag298
ag297
ag298
ag299
ag300
ag301
ag299
ag299
ag297
ag297
ag297
ag298
ag297
ag298
ag299
ag300
ag301
ag300
ag302
ag303
ag303
ag304
ag302
ag306
ag307
ag308
ag309
ag309
ag310
ag307
ag311
ag312
ag303
ag313
ag304
ag314
ag312
ag315
ag316
ag317
ag318
ag319
ag316
ag317
ag320
ag321
ag322
ag316
ag323
ag312
ag306
ag307
ag308
ag324
ag325
ag308
ag309
ag324
ag325
ag326
ag325
ag311
ag312
ag306
ag324
ag325
ag328
ag329
asS'ui'
p335
(lp336
S'hs'
p337
ag337
aS'ss'
p338
ag337
aS'hp'
p339
ag338
ag285
ag339
ag338
ag339
ag285
ag285
ag337
ag338
ag285
ag285
ag337
ag339
ag339
ag337
ag339
ag285
ag285
ag337
ag285
ag337
ag285
ag339
ag337
ag337
ag285
ag337
ag339
ag337
ag337
ag337
ag339
ag337
ag338
ag285
ag338
ag339
ag339
ag339
ag285
ag337
ag337
ag285
ag337
ag338
ag337
ag339
ag337
ag339
ag285
ag338
ag339
ag285
ag338
ag338
ag337
ag339
ag339
ag337
ag337
ag339
ag339
ag339
ag338
ag339
ag285
ag337
ag339
ag338
ag338
ag285
asS'um_before'
p340
(lp341
g337
ag337
ag338
ag337
ag339
ag337
ag337
ag339
ag337
ag339
ag338
ag285
ag338
ag338
ag338
ag337
ag285
ag285
ag339
ag337
ag339
ag338
ag285
ag338
ag285
ag337
ag337
ag285
ag337
ag337
ag285
ag337
ag339
ag338
ag338
ag285
ag337
ag285
ag339
ag337
ag338
ag337
ag339
ag339
ag338
ag337
ag337
ag338
ag337
ag337
ag337
ag339
ag285
ag339
ag337
ag338
ag339
ag285
ag337
ag339
ag339
ag339
ag339
ag338
ag339
ag339
ag337
ag339
ag285
ag339
ag285
ag339
ag339
ag338
ag339
ag285
asS'um_after'
p342
(lp343
g337
ag337
ag338
ag337
ag339
ag337
ag337
ag339
ag337
ag339
ag338
ag285
ag338
ag338
ag338
ag337
aNaNag339
ag337
ag339
ag338
ag285
ag338
ag285
ag337
ag337
aNag337
ag337
ag285
ag337
ag339
ag338
ag338
ag285
ag337
ag285
ag339
ag337
ag338
ag337
ag339
ag339
ag338
ag337
ag337
ag338
ag337
ag337
ag337
ag339
ag285
ag339
ag337
ag338
ag339
ag285
ag337
ag339
ag339
ag339
ag339
ag338
ag339
ag339
ag337
ag339
ag285
ag339
ag285
ag339
ag339
ag338
ag339
ag285
asS'is_normalized_entropy_less_than_threshold'
p344
(lp345
g50
(g51
(S'b1'
p346
I0
I1
tp347
Rp348
(I3
S'|'
p349
NNNI-1
I-1
I0
tp350
bS'\x00'
p351
tp352
Rp353
ag50
(g348
S'\x01'
p354
tp355
Rp356
ag353
ag356
ag353
ag356
ag353
ag356
ag353
ag356
ag353
ag356
ag353
ag353
ag353
ag353
ag356
ag356
ag356
ag353
ag356
ag353
ag356
ag353
ag356
ag356
ag353
ag356
ag353
ag356
ag356
ag356
ag353
ag353
ag353
ag353
ag356
ag353
ag356
ag353
ag353
ag353
ag353
ag356
ag353
ag356
ag353
ag353
ag353
ag356
ag353
ag356
ag353
ag353
ag356
ag353
ag356
ag356
ag356
ag353
ag353
ag356
ag353
ag353
ag353
ag356
ag353
ag356
ag353
ag356
ag356
ag353
ag356
ag353
ag356
ag356
asaa(lp357
S'index'
p358
aI48352
aatp359
Rp360
.