ccollections
OrderedDict
p0
((lp1
(lp2
S'combination_dict'
p3
ag0
((lp4
(lp5
S'r_to_g_config'
p6
aS'bl'
p7
aa(lp8
S'num_turns'
p9
aI2
aa(lp10
S'start_direction'
p11
acutils_ms
StartDirection
p12
(I1
tp13
Rp14
aa(lp15
S'assistance_type'
p16
acutils_ms
AssistanceType
p17
(I0
tp18
Rp19
aa(lp20
S'start_mode'
p21
aS't'
p22
aa(lp23
S'ui_given_a_noise'
p24
aF0.1
aa(lp25
S'um_given_ui_noise'
p26
aF0.5
aa(lp27
S'entropy_threshold'
p28
aF0.7
aatp29
Rp30
aa(lp31
S'data'
p32
accollections
defaultdict
p33
(c__builtin__
list
p34
tp35
Rp36
S'a'
p37
(lp38
S'mode_l'
p39
aS'move_n'
p40
aS'mode_r'
p41
aS'move_p'
p42
ag42
ag42
ag42
ag41
ag40
ag41
ag40
asS'assistance_match_with_ground_truth'
p43
(lp44
I01
aI01
aI01
aI00
aI00
aI00
aI01
aI01
aI01
aI01
aI01
asS'is_u_intended_equals_um'
p45
(lp46
I01
aI01
aI01
aI00
aI00
aI00
aI01
aI01
aI01
aI01
aI01
asS'total_steps'
p47
I11
sS'normalized_h_of_p_ui_given_um'
p48
(lp49
cnumpy.core.multiarray
scalar
p50
(cnumpy
dtype
p51
(S'f8'
p52
I0
I1
tp53
Rp54
(I3
S'<'
p55
NNNI-1
I-1
I0
tp56
bS'B\xc3\xd84!f\x96?'
p57
tp58
Rp59
ag50
(g54
S'\x8307Z\x85\xf4\xb8?'
p60
tp61
Rp62
ag50
(g54
S'\xf0\x00\xae\x85@~\xb8?'
p63
tp64
Rp65
ag50
(g54
S'FGD*n\x0b\xe4?'
p66
tp67
Rp68
ag50
(g54
S'\xf0\xbd\xf0\xd4\x8cn\xdb?'
p69
tp70
Rp71
ag50
(g54
S'FGD*n\x0b\xe4?'
p72
tp73
Rp74
ag50
(g54
S'\x95\x8fo\xb4\xf7\x89\xc3?'
p75
tp76
Rp77
ag50
(g54
S'\xf0\x00\xae\x85@~\xb8?'
p78
tp79
Rp80
ag50
(g54
S'\x8307Z\x85\xf4\xb8?'
p81
tp82
Rp83
ag50
(g54
S'\xf0\x00\xae\x85@~\xb8?'
p84
tp85
Rp86
ag50
(g54
S'\x8307Z\x85\xf4\xb8?'
p87
tp88
Rp89
asS'sp'
p90
(lp91
(S'p0'
p92
I0
S'y'
p93
tp94
a(S'p1'
p95
I0
g93
tp96
a(g95
I0
S't'
p97
tp98
ag98
ag98
ag98
a(g95
F1.5707963267948966
g97
tp99
a(g95
F1.5707963267948966
S'x'
p100
tp101
a(S'p2'
p102
F1.5707963267948966
g100
tp103
a(g102
F1.5707963267948966
g93
tp104
a(S'p3'
p105
F1.5707963267948966
g93
tp106
asS's'
p107
(lp108
(g92
I0
g22
tp109
ag94
ag96
ag98
ag98
ag98
ag98
ag99
ag101
ag103
ag104
asS'ui'
p110
(lp111
S'hs'
p112
aS'ss'
p113
aS'hp'
p114
ag114
ag90
ag90
ag90
ag114
ag113
ag114
ag113
asS'um_before'
p115
(lp116
g112
ag113
ag114
ag114
ag113
ag114
ag90
ag114
ag113
ag114
ag113
asS'um_after'
p117
(lp118
g112
ag113
ag114
aNaNaNag90
ag114
ag113
ag114
ag113
asS'is_normalized_entropy_less_than_threshold'
p119
(lp120
g50
(g51
(S'b1'
p121
I0
I1
tp122
Rp123
(I3
S'|'
p124
NNNI-1
I-1
I0
tp125
bS'\x01'
p126
tp127
Rp128
ag128
ag128
ag128
ag128
ag128
ag128
ag128
ag128
ag128
ag128
asaa(lp129
S'index'
p130
aI72922
aatp131
Rp132
.