ccollections
OrderedDict
p0
((lp1
(lp2
S'combination_dict'
p3
ag0
((lp4
(lp5
S'r_to_g_config'
p6
aS'bl'
p7
aa(lp8
S'num_turns'
p9
aI2
aa(lp10
S'start_direction'
p11
acutils_ms
StartDirection
p12
(I0
tp13
Rp14
aa(lp15
S'assistance_type'
p16
acutils_ms
AssistanceType
p17
(I0
tp18
Rp19
aa(lp20
S'start_mode'
p21
aS't'
p22
aa(lp23
S'ui_given_a_noise'
p24
aF0.7
aa(lp25
S'um_given_ui_noise'
p26
aF0.5
aa(lp27
S'entropy_threshold'
p28
aF0.5
aatp29
Rp30
aa(lp31
S'data'
p32
accollections
defaultdict
p33
(c__builtin__
list
p34
tp35
Rp36
S'a'
p37
(lp38
S'mode_r'
p39
ag39
aS'move_n'
p40
ag39
ag40
ag39
ag39
ag39
ag40
aS'mode_l'
p41
ag39
ag39
ag40
ag39
ag41
ag41
ag41
ag40
ag39
ag41
aS'move_p'
p42
ag39
ag40
asS'assistance_match_with_ground_truth'
p43
(lp44
I00
aI01
aI00
aI01
aI01
aI00
aI00
aI01
aI00
aI00
aI00
aI01
aI00
aI00
aI00
aI00
aI01
aI01
aI00
aI01
aI01
aI01
aI01
asS'is_u_intended_equals_um'
p45
(lp46
I01
aI01
aI01
aI01
aI01
aI01
aI01
aI01
aI01
aI01
aI01
aI01
aI01
aI00
aI00
aI01
aI01
aI01
aI00
aI01
aI01
aI01
aI01
asS'total_steps'
p47
I23
sS'normalized_h_of_p_ui_given_um'
p48
(lp49
cnumpy.core.multiarray
scalar
p50
(cnumpy
dtype
p51
(S'f8'
p52
I0
I1
tp53
Rp54
(I3
S'<'
p55
NNNI-1
I-1
I0
tp56
bS'\xfch\xb6\xa4~z\xd6?'
p57
tp58
Rp59
ag50
(g54
S'\x0by\xc3\x94Y\xea\xe1?'
p60
tp61
Rp62
ag50
(g54
S':\xcb4\x08lq\xea?'
p63
tp64
Rp65
ag50
(g54
S'\x0by\xc3\x94Y\xea\xe1?'
p66
tp67
Rp68
ag50
(g54
S'\x90\xb6\xec\xfc#p\xd4?'
p69
tp70
Rp71
ag50
(g54
S'\xfch\xb6\xa4~z\xd6?'
p72
tp73
Rp74
ag50
(g54
S'\xfch\xb6\xa4~z\xd6?'
p75
tp76
Rp77
ag50
(g54
S'\x0by\xc3\x94Y\xea\xe1?'
p78
tp79
Rp80
ag50
(g54
S'\xcd\xa1\x128\x1c\xb5\xe7?'
p81
tp82
Rp83
ag50
(g54
S'kx\x1fW\x1c\xa4\xe5?'
p84
tp85
Rp86
ag50
(g54
S'\xfch\xb6\xa4~z\xd6?'
p87
tp88
Rp89
ag50
(g54
S'\x0by\xc3\x94Y\xea\xe1?'
p90
tp91
Rp92
ag50
(g54
S':\xcb4\x08lq\xea?'
p93
tp94
Rp95
ag50
(g54
S'\xc5!\x95PYt\xeb?'
p96
tp97
Rp98
ag50
(g54
S'"N\xd0cD\x01\xda?'
p99
tp100
Rp101
ag50
(g54
S'B\xc1\x8b\xee=\xff\xe4?'
p102
tp103
Rp104
ag50
(g54
S'\xd3c\x1e\x06\xfa\x90\xe1?'
p105
tp106
Rp107
ag50
(g54
S'\x90\xb6\xec\xfc#p\xd4?'
p108
tp109
Rp110
ag50
(g54
S'\xc5!\x95PYt\xeb?'
p111
tp112
Rp113
ag50
(g54
S'\xd3c\x1e\x06\xfa\x90\xe1?'
p114
tp115
Rp116
ag50
(g54
S'O\xf0\x05\x8f\xc8\xaa\xd3?'
p117
tp118
Rp119
ag50
(g54
S'\x0by\xc3\x94Y\xea\xe1?'
p120
tp121
Rp122
ag50
(g54
S'\x90\xb6\xec\xfc#p\xd4?'
p123
tp124
Rp125
asS'sp'
p126
(lp127
(S'p0'
p128
I0
S't'
p129
tp130
a(g128
I0
S'x'
p131
tp132
a(g128
I0
g129
tp133
ag132
a(S'p1'
p134
I0
g131
tp135
a(g134
I0
g131
tp136
ag136
a(g134
I0
S'y'
p137
tp138
a(g134
I0
g129
tp139
a(g134
I0
g131
tp140
ag136
ag138
a(g134
I0
g131
tp141
a(g134
I0
g129
tp142
ag142
a(g134
I0
g129
tp143
a(g134
I0
g137
tp144
a(S'p2'
p145
I0
g137
tp146
a(g145
I0
g131
tp147
a(g145
I0
g129
tp148
a(g145
F1.5707963267948966
g129
tp149
a(g145
F1.5707963267948966
g131
tp150
a(S'p3'
p151
F1.5707963267948966
g131
tp152
asS's'
p153
(lp154
(g128
I0
g22
tp155
ag130
ag132
ag133
ag132
ag135
ag136
ag136
ag138
ag139
ag140
ag136
ag138
ag141
ag142
ag142
ag143
ag144
ag146
ag147
ag148
ag149
ag150
asS'ui'
p156
(lp157
S'hs'
p158
aS'ss'
p159
ag158
ag159
ag159
ag159
ag159
aS'hp'
p160
ag159
ag160
ag159
ag160
ag160
ag160
ag158
ag126
ag158
ag159
ag159
ag158
ag126
ag160
ag159
asS'um_before'
p161
(lp162
g159
ag160
ag158
ag160
ag159
ag159
ag159
ag160
ag160
ag160
ag159
ag160
ag158
ag158
ag159
ag126
ag158
ag159
ag158
ag158
ag126
ag160
ag159
asS'um_after'
p163
(lp164
g159
ag160
ag158
ag160
ag159
ag159
ag159
ag160
ag160
ag160
ag159
ag160
ag158
ag158
aNag126
ag158
ag159
ag158
ag158
ag126
ag160
ag159
asS'is_normalized_entropy_less_than_threshold'
p165
(lp166
g50
(g51
(S'b1'
p167
I0
I1
tp168
Rp169
(I3
S'|'
p170
NNNI-1
I-1
I0
tp171
bS'\x01'
p172
tp173
Rp174
ag50
(g169
S'\x00'
p175
tp176
Rp177
ag177
ag177
ag174
ag174
ag174
ag177
ag177
ag177
ag174
ag177
ag177
ag177
ag174
ag177
ag177
ag174
ag177
ag177
ag174
ag177
ag174
asaa(lp178
S'index'
p179
aI67900
aatp180
Rp181
.