ccollections
OrderedDict
p0
((lp1
(lp2
S'combination_dict'
p3
ag0
((lp4
(lp5
S'r_to_g_config'
p6
aS'tl'
p7
aa(lp8
S'num_turns'
p9
aI2
aa(lp10
S'start_direction'
p11
acutils_ms
StartDirection
p12
(I1
tp13
Rp14
aa(lp15
S'assistance_type'
p16
acutils_ms
AssistanceType
p17
(I0
tp18
Rp19
aa(lp20
S'start_mode'
p21
aS'x'
p22
aa(lp23
S'ui_given_a_noise'
p24
aF0.7
aa(lp25
S'um_given_ui_noise'
p26
aF0.5
aa(lp27
S'entropy_threshold'
p28
aF0.7
aatp29
Rp30
aa(lp31
S'data'
p32
accollections
defaultdict
p33
(c__builtin__
list
p34
tp35
Rp36
S'a'
p37
(lp38
S'mode_r'
p39
ag39
ag39
aS'mode_l'
p40
ag40
ag39
ag39
aS'move_p'
p41
ag39
ag39
ag39
ag41
ag39
ag39
ag39
ag40
ag39
ag40
ag40
ag40
ag40
ag40
ag40
ag41
ag39
ag40
ag41
asS'assistance_match_with_ground_truth'
p42
(lp43
I00
aI00
aI00
aI00
aI00
aI00
aI01
aI00
aI00
aI00
aI01
aI01
aI00
aI00
aI00
aI00
aI00
aI00
aI00
aI00
aI00
aI00
aI01
aI00
aI00
aI01
aI01
asS'is_u_intended_equals_um'
p44
(lp45
I00
aI01
aI01
aI01
aI00
aI01
aI01
aI01
aI01
aI01
aI01
aI01
aI01
aI00
aI01
aI01
aI01
aI01
aI01
aI01
aI01
aI01
aI01
aI01
aI01
aI01
aI01
asS'total_steps'
p46
I27
sS'normalized_h_of_p_ui_given_um'
p47
(lp48
cnumpy.core.multiarray
scalar
p49
(cnumpy
dtype
p50
(S'f8'
p51
I0
I1
tp52
Rp53
(I3
S'<'
p54
NNNI-1
I-1
I0
tp55
bS'\xd6+\x0b(\x0b\x06\xee?'
p56
tp57
Rp58
ag49
(g53
S'|h\xa4E\x9f{\xe2?'
p59
tp60
Rp61
ag49
(g53
S'\x114x@\xf1\xcf\xe3?'
p62
tp63
Rp64
ag49
(g53
S'\x8a\x9fm6\xbdd\xe5?'
p65
tp66
Rp67
ag49
(g53
S'\xef(P\xedF\xd2\xeb?'
p68
tp69
Rp70
ag49
(g53
S'|h\xa4E\x9f{\xe2?'
p71
tp72
Rp73
ag49
(g53
S'r\x05\xb9\x00\xd0*\xd9?'
p74
tp75
Rp76
ag49
(g53
S'\x1f\x11\x94J\xab\xb9\xe2?'
p77
tp78
Rp79
ag49
(g53
S'|h\xa4E\x9f{\xe2?'
p80
tp81
Rp82
ag49
(g53
S'|h\xa4E\x9f{\xe2?'
p83
tp84
Rp85
ag49
(g53
S'r\x05\xb9\x00\xd0*\xd9?'
p86
tp87
Rp88
ag49
(g53
S'\x8e;\x04\xe1\x01\xf1\xc8?'
p89
tp90
Rp91
ag49
(g53
S'|h\xa4E\x9f{\xe2?'
p92
tp93
Rp94
ag49
(g53
S'\xd6+\x0b(\x0b\x06\xee?'
p95
tp96
Rp97
ag49
(g53
S'\x114x@\xf1\xcf\xe3?'
p98
tp99
Rp100
ag49
(g53
S'\x8a\x9fm6\xbdd\xe5?'
p101
tp102
Rp103
ag49
(g53
S'\x114x@\xf1\xcf\xe3?'
p104
tp105
Rp106
ag49
(g53
S'\x8a\x9fm6\xbdd\xe5?'
p107
tp108
Rp109
ag49
(g53
S'\x8a\x9fm6\xbdd\xe5?'
p110
tp111
Rp112
ag49
(g53
S'\x8a\x9fm6\xbdd\xe5?'
p113
tp114
Rp115
ag49
(g53
S'\x8a\x9fm6\xbdd\xe5?'
p116
tp117
Rp118
ag49
(g53
S'\x84\xb7\xb5\\\xbe\xd8\xd7?'
p119
tp120
Rp121
ag49
(g53
S'f"Y\xc5\xb5\xc7\xd8?'
p122
tp123
Rp124
ag49
(g53
S'\x1f\x11\x94J\xab\xb9\xe2?'
p125
tp126
Rp127
ag49
(g53
S'\x114x@\xf1\xcf\xe3?'
p128
tp129
Rp130
ag49
(g53
S'f"Y\xc5\xb5\xc7\xd8?'
p131
tp132
Rp133
ag49
(g53
S'\x8e;\x04\xe1\x01\xf1\xc8?'
p134
tp135
Rp136
asS'sp'
p137
(lp138
(S'p0'
p139
I0
S'x'
p140
tp141
a(g139
I0
g140
tp142
a(g139
I0
S't'
p143
tp144
a(g139
I0
g143
tp145
a(g139
I0
g140
tp146
ag142
a(g139
I0
S'y'
p147
tp148
a(g139
I0
g140
tp149
ag142
ag142
ag148
a(S'p1'
p150
I0
g147
tp151
a(g150
I0
g147
tp152
a(g150
I0
g147
tp153
a(g150
I0
g140
tp154
a(S'p2'
p155
I0
g140
tp156
a(g155
I0
g143
tp157
a(g155
I0
g143
tp158
ag158
ag158
ag158
a(g155
I0
g143
tp159
a(g155
I0
g147
tp160
a(g155
I0
g140
tp161
ag157
ag160
a(S'p3'
p162
I0
g147
tp163
asS's'
p164
(lp165
(g139
I0
g22
tp166
ag141
ag142
ag144
ag145
ag146
ag142
ag148
ag149
ag142
ag142
ag148
ag151
ag152
ag153
ag154
ag156
ag157
ag158
ag158
ag158
ag158
ag159
ag160
ag161
ag157
ag160
asS'ui'
p167
(lp168
S'hp'
p169
ag169
aS'hs'
p170
aS'ss'
p171
ag170
ag170
ag169
ag171
ag137
ag169
ag169
ag137
ag137
ag169
ag169
ag171
ag170
ag171
ag171
ag171
ag170
ag137
ag170
ag170
ag170
ag170
ag137
asS'um_before'
p172
(lp173
g171
ag137
ag170
ag171
ag169
ag137
ag169
ag170
ag137
ag137
ag169
ag137
ag137
ag171
ag170
ag171
ag170
ag171
ag171
ag171
ag171
ag137
ag170
ag170
ag170
ag170
ag137
asS'um_after'
p174
(lp175
g171
ag137
ag170
ag171
ag169
ag137
ag169
ag170
ag137
ag137
ag169
ag137
ag137
ag171
ag170
ag171
ag170
ag171
ag171
ag171
ag171
ag137
ag170
ag170
ag170
ag170
ag137
asS'is_normalized_entropy_less_than_threshold'
p176
(lp177
g49
(g50
(S'b1'
p178
I0
I1
tp179
Rp180
(I3
S'|'
p181
NNNI-1
I-1
I0
tp182
bS'\x00'
p183
tp184
Rp185
ag49
(g180
S'\x01'
p186
tp187
Rp188
ag188
ag188
ag185
ag188
ag188
ag188
ag188
ag188
ag188
ag188
ag188
ag185
ag188
ag188
ag188
ag188
ag188
ag188
ag188
ag188
ag188
ag188
ag188
ag188
ag188
asaa(lp189
S'index'
p190
aI43922
aatp191
Rp192
.