ccollections
OrderedDict
p0
((lp1
(lp2
S'combination_dict'
p3
ag0
((lp4
(lp5
S'r_to_g_config'
p6
aS'tr'
p7
aa(lp8
S'num_turns'
p9
aI1
aa(lp10
S'start_direction'
p11
acutils_ms
StartDirection
p12
(I0
tp13
Rp14
aa(lp15
S'assistance_type'
p16
acutils_ms
AssistanceType
p17
(I1
tp18
Rp19
aa(lp20
S'start_mode'
p21
aS't'
p22
aa(lp23
S'ui_given_a_noise'
p24
aF0.7
aa(lp25
S'um_given_ui_noise'
p26
aF0.5
aa(lp27
S'entropy_threshold'
p28
aF0.9
aatp29
Rp30
aa(lp31
S'data'
p32
accollections
defaultdict
p33
(c__builtin__
list
p34
tp35
Rp36
S'a'
p37
(lp38
S'mode_r'
p39
ag39
ag39
aS'mode_l'
p40
aS'move_p'
p41
ag40
ag41
ag40
ag41
ag40
ag41
ag40
ag41
asS'assistance_match_with_ground_truth'
p42
(lp43
I00
aI00
aI00
aI01
aI01
aI01
aI01
aI00
aI00
aI01
aI01
aI01
aI01
asS'is_u_intended_equals_um'
p44
(lp45
I01
aI01
aI00
aI01
aI01
aI01
aI00
aI01
aI01
aI00
aI01
aI01
aI00
asS'total_steps'
p46
I13
sS'normalized_h_of_p_ui_given_um'
p47
(lp48
cnumpy.core.multiarray
scalar
p49
(cnumpy
dtype
p50
(S'f8'
p51
I0
I1
tp52
Rp53
(I3
S'<'
p54
NNNI-1
I-1
I0
tp55
bS'\xf8\xbcw>^G\xe6?'
p56
tp57
Rp58
ag49
(g53
S',z\xc0A"\xfc\xed?'
p59
tp60
Rp61
ag49
(g53
S'\x12\xf2\xc9\x0cw\x92\xed?'
p62
tp63
Rp64
ag49
(g53
S'\xf4G\xabI\xf8\xfa\xe1?'
p65
tp66
Rp67
ag49
(g53
S'\x1bN\x9bJ\xd4\xec\xdd?'
p68
tp69
Rp70
ag49
(g53
S'\xf4G\xabI\xf8\xfa\xe1?'
p71
tp72
Rp73
ag49
(g53
S'\xa2i\xf8\xa9\xc6N\xec?'
p74
tp75
Rp76
ag49
(g53
S'(\xe8\x90g\x08\x1b\xe5?'
p77
tp78
Rp79
ag49
(g53
S'tU\xb1\xb8?V\xe7?'
p80
tp81
Rp82
ag49
(g53
S'b[\xf1\r\xb6P\xe9?'
p83
tp84
Rp85
ag49
(g53
S'\x1bN\x9bJ\xd4\xec\xdd?'
p86
tp87
Rp88
ag49
(g53
S'\xf4G\xabI\xf8\xfa\xe1?'
p89
tp90
Rp91
ag49
(g53
S'\xa2i\xf8\xa9\xc6N\xec?'
p92
tp93
Rp94
asS'sp'
p95
(lp96
(S'p0'
p97
I0
S't'
p98
tp99
a(g97
I0
g98
tp100
a(g97
I0
S'y'
p101
tp102
a(g97
I0
S'x'
p103
tp104
a(S'p1'
p105
I0
g103
tp106
a(g105
I0
g98
tp107
a(g105
F1.5707963267948966
g98
tp108
a(g105
I0
g98
tp109
a(g105
I0
g103
tp110
ag107
ag108
a(g105
F1.5707963267948966
g101
tp111
a(S'p2'
p112
F1.5707963267948966
g101
tp113
asS's'
p114
(lp115
(g97
I0
g22
tp116
ag99
ag100
ag102
ag104
ag106
ag107
ag108
ag109
ag110
ag107
ag108
ag111
asS'ui'
p117
(lp118
S'hp'
p119
ag95
aS'hs'
p120
ag120
ag95
ag120
aS'ss'
p121
ag121
ag119
ag119
ag95
ag120
ag95
asS'um_before'
p122
(lp123
g121
ag95
ag120
ag120
ag95
ag120
ag120
ag121
ag119
ag119
ag95
ag120
ag120
asS'um_after'
p124
(lp125
g121
ag95
ag120
ag120
ag95
ag120
ag95
ag121
ag119
ag120
ag95
ag120
ag95
asS'is_normalized_entropy_less_than_threshold'
p126
(lp127
g49
(g50
(S'b1'
p128
I0
I1
tp129
Rp130
(I3
S'|'
p131
NNNI-1
I-1
I0
tp132
bS'\x01'
p133
tp134
Rp135
ag49
(g130
S'\x00'
p136
tp137
Rp138
ag138
ag135
ag135
ag135
ag135
ag135
ag135
ag135
ag135
ag135
ag135
asaa(lp139
S'index'
p140
aI2346
aatp141
Rp142
.