ccollections
OrderedDict
p0
((lp1
(lp2
S'combination_dict'
p3
ag0
((lp4
(lp5
S'r_to_g_config'
p6
aS'tl'
p7
aa(lp8
S'num_turns'
p9
aI1
aa(lp10
S'start_direction'
p11
acutils_ms
StartDirection
p12
(I0
tp13
Rp14
aa(lp15
S'assistance_type'
p16
acutils_ms
AssistanceType
p17
(I1
tp18
Rp19
aa(lp20
S'start_mode'
p21
aS't'
p22
aa(lp23
S'ui_given_a_noise'
p24
aF0.7
aa(lp25
S'um_given_ui_noise'
p26
aF0.3
aa(lp27
S'entropy_threshold'
p28
aF0.5
aatp29
Rp30
aa(lp31
S'data'
p32
accollections
defaultdict
p33
(c__builtin__
list
p34
tp35
Rp36
S'a'
p37
(lp38
S'mode_r'
p39
aS'move_n'
p40
aS'mode_l'
p41
ag40
ag41
ag41
ag41
ag39
aS'move_p'
p42
ag41
ag41
ag42
ag41
ag42
ag42
ag41
ag39
ag42
ag41
ag42
ag41
ag42
ag41
ag42
ag39
ag41
ag40
ag40
ag41
ag40
ag41
ag41
ag42
ag41
ag42
ag39
ag42
ag41
ag41
ag41
ag41
ag41
ag42
ag41
ag42
ag41
ag42
ag42
ag41
ag42
ag41
ag40
ag40
ag39
ag42
asS'assistance_match_with_ground_truth'
p43
(lp44
I01
aI00
aI01
aI01
aI00
aI00
aI00
aI01
aI00
aI00
aI01
aI01
aI00
aI00
aI00
aI00
aI01
aI00
aI01
aI00
aI01
aI01
aI00
aI00
aI00
aI01
aI00
aI00
aI01
aI01
aI00
aI01
aI00
aI01
aI00
aI01
aI00
aI00
aI00
aI00
aI00
aI01
aI01
aI00
aI00
aI01
aI00
aI01
aI01
aI00
aI01
aI00
aI01
aI01
aI01
asS'is_u_intended_equals_um'
p45
(lp46
I01
aI01
aI01
aI01
aI01
aI01
aI01
aI01
aI01
aI01
aI01
aI01
aI01
aI01
aI01
aI01
aI01
aI01
aI01
aI01
aI01
aI01
aI01
aI01
aI01
aI01
aI01
aI01
aI01
aI01
aI01
aI01
aI01
aI01
aI01
aI01
aI01
aI01
aI01
aI01
aI01
aI01
aI01
aI01
aI01
aI01
aI01
aI01
aI01
aI01
aI01
aI01
aI01
aI01
aI01
asS'total_steps'
p47
I55
sS'normalized_h_of_p_ui_given_um'
p48
(lp49
cnumpy.core.multiarray
scalar
p50
(cnumpy
dtype
p51
(S'f8'
p52
I0
I1
tp53
Rp54
(I3
S'<'
p55
NNNI-1
I-1
I0
tp56
bS'\x84\xa2Po\x1d9\xb8?'
p57
tp58
Rp59
ag50
(g54
S'1\xaa\xc3\x1c\x8d\xea\xe3?'
p60
tp61
Rp62
ag50
(g54
S'\x9e\xe99\xe9\x98\xbe\xd1?'
p63
tp64
Rp65
ag50
(g54
S'\xbd*\x7f\xd2\xbb7\xd0?'
p66
tp67
Rp68
ag50
(g54
S'\x1a\x80\x1d\x8f\x85T\xdf?'
p69
tp70
Rp71
ag50
(g54
S'\x1a\x80\x1d\x8f\x85T\xdf?'
p72
tp73
Rp74
ag50
(g54
S'#GL\x95\xf1\xc2\xe3?'
p75
tp76
Rp77
ag50
(g54
S'\x84\xa2Po\x1d9\xb8?'
p78
tp79
Rp80
ag50
(g54
S'-\x858\xf4\xb2-\xe0?'
p81
tp82
Rp83
ag50
(g54
S'\x19X\x0b\xf4\xe7V\xe6?'
p84
tp85
Rp86
ag50
(g54
S'\x9e\xe99\xe9\x98\xbe\xd1?'
p87
tp88
Rp89
ag50
(g54
S'\xb7u\xa41\x89\xbb\xdf?'
p90
tp91
Rp92
ag50
(g54
S'\x1a\x80\x1d\x8f\x85T\xdf?'
p93
tp94
Rp95
ag50
(g54
S'\xb6|G\xd68w\xe0?'
p96
tp97
Rp98
ag50
(g54
S'-\x858\xf4\xb2-\xe0?'
p99
tp100
Rp101
ag50
(g54
S'#GL\x95\xf1\xc2\xe3?'
p102
tp103
Rp104
ag50
(g54
S'\x84\xa2Po\x1d9\xb8?'
p105
tp106
Rp107
ag50
(g54
S'-\x858\xf4\xb2-\xe0?'
p108
tp109
Rp110
ag50
(g54
S'\x9e\xe99\xe9\x98\xbe\xd1?'
p111
tp112
Rp113
ag50
(g54
S'-\x858\xf4\xb2-\xe0?'
p114
tp115
Rp116
ag50
(g54
S'\x9e\xe99\xe9\x98\xbe\xd1?'
p117
tp118
Rp119
ag50
(g54
S'\xb7u\xa41\x89\xbb\xdf?'
p120
tp121
Rp122
ag50
(g54
S'\x1a\x80\x1d\x8f\x85T\xdf?'
p123
tp124
Rp125
ag50
(g54
S'\x07\x16\x07\xa9\xa4\xcf\xe2?'
p126
tp127
Rp128
ag50
(g54
S'd\x91a\xd2R\xc2\xdd?'
p129
tp130
Rp131
ag50
(g54
S'\x9e\xe99\xe9\x98\xbe\xd1?'
p132
tp133
Rp134
ag50
(g54
S"p\xb4''\xe2\xab\xe3?"
p135
tp136
Rp137
ag50
(g54
S'1\xaa\xc3\x1c\x8d\xea\xe3?'
p138
tp139
Rp140
ag50
(g54
S'\x9e\xe99\xe9\x98\xbe\xd1?'
p141
tp142
Rp143
ag50
(g54
S'\xbd*\x7f\xd2\xbb7\xd0?'
p144
tp145
Rp146
ag50
(g54
S'\x19X\x0b\xf4\xe7V\xe6?'
p147
tp148
Rp149
ag50
(g54
S'\x9e\xe99\xe9\x98\xbe\xd1?'
p150
tp151
Rp152
ag50
(g54
S'-\x858\xf4\xb2-\xe0?'
p153
tp154
Rp155
ag50
(g54
S'\x9e\xe99\xe9\x98\xbe\xd1?'
p156
tp157
Rp158
ag50
(g54
S'\x07\x16\x07\xa9\xa4\xcf\xe2?'
p159
tp160
Rp161
ag50
(g54
S'\x84\xa2Po\x1d9\xb8?'
p162
tp163
Rp164
ag50
(g54
S'-\x858\xf4\xb2-\xe0?'
p165
tp166
Rp167
ag50
(g54
S'\x1a\x80\x1d\x8f\x85T\xdf?'
p168
tp169
Rp170
ag50
(g54
S'\x1a\x80\x1d\x8f\x85T\xdf?'
p171
tp172
Rp173
ag50
(g54
S'\x1a\x80\x1d\x8f\x85T\xdf?'
p174
tp175
Rp176
ag50
(g54
S'\x19X\x0b\xf4\xe7V\xe6?'
p177
tp178
Rp179
ag50
(g54
S'\x9e\xe99\xe9\x98\xbe\xd1?'
p180
tp181
Rp182
ag50
(g54
S'\xb7u\xa41\x89\xbb\xdf?'
p183
tp184
Rp185
ag50
(g54
S'\x1a\x80\x1d\x8f\x85T\xdf?'
p186
tp187
Rp188
ag50
(g54
S'-\x858\xf4\xb2-\xe0?'
p189
tp190
Rp191
ag50
(g54
S'\x9e\xe99\xe9\x98\xbe\xd1?'
p192
tp193
Rp194
ag50
(g54
S'\xb6|G\xd68w\xe0?'
p195
tp196
Rp197
ag50
(g54
S'\xb7u\xa41\x89\xbb\xdf?'
p198
tp199
Rp200
ag50
(g54
S'\x9e\xe99\xe9\x98\xbe\xd1?'
p201
tp202
Rp203
ag50
(g54
S'\xb6|G\xd68w\xe0?'
p204
tp205
Rp206
ag50
(g54
S'\x9e\xe99\xe9\x98\xbe\xd1?'
p207
tp208
Rp209
ag50
(g54
S"p\xb4''\xe2\xab\xe3?"
p210
tp211
Rp212
ag50
(g54
S'\xbd*\x7f\xd2\xbb7\xd0?'
p213
tp214
Rp215
ag50
(g54
S'\x84\xa2Po\x1d9\xb8?'
p216
tp217
Rp218
ag50
(g54
S'\xb7u\xa41\x89\xbb\xdf?'
p219
tp220
Rp221
asS'sp'
p222
(lp223
(S'p0'
p224
I0
S'x'
p225
tp226
a(g224
I0
S'y'
p227
tp228
a(g224
I0
g225
tp229
a(S'p1'
p230
I0
g225
tp231
a(g230
I0
g225
tp232
ag232
a(g230
I0
g227
tp233
a(g230
I0
S't'
p234
tp235
a(g230
I0
g225
tp236
a(g230
I0
g225
tp237
a(g230
I0
g234
tp238
a(g230
F1.5707963267948966
g234
tp239
a(g230
I0
g234
tp240
a(g230
I0
g234
tp241
ag236
ag233
ag235
ag236
ag238
ag236
ag238
ag239
ag240
a(g230
I0
g227
tp242
a(g224
I0
g227
tp243
ag229
a(g224
I0
g225
tp244
ag228
ag229
ag231
ag237
ag238
ag236
ag238
ag242
ag235
ag236
ag232
ag232
ag232
ag237
ag238
ag239
ag240
ag236
ag238
ag241
ag239
a(g230
F1.5707963267948966
g227
tp245
a(g224
F1.5707963267948966
g227
tp246
a(g224
F1.5707963267948966
g225
tp247
a(g224
F1.5707963267948966
g225
tp248
a(g230
F1.5707963267948966
g225
tp249
a(g230
F1.5707963267948966
g227
tp250
a(S'p2'
p251
F1.5707963267948966
g227
tp252
asS's'
p253
(lp254
(g224
I0
g22
tp255
ag226
ag228
ag229
ag231
ag232
ag232
ag233
ag235
ag236
ag237
ag238
ag239
ag240
ag241
ag236
ag233
ag235
ag236
ag238
ag236
ag238
ag239
ag240
ag242
ag243
ag229
ag244
ag228
ag229
ag231
ag237
ag238
ag236
ag238
ag242
ag235
ag236
ag232
ag232
ag232
ag237
ag238
ag239
ag240
ag236
ag238
ag241
ag239
ag245
ag246
ag247
ag248
ag249
ag250
asS'ui'
p256
(lp257
S'hp'
p258
ag258
aS'hs'
p259
aS'ss'
p260
ag260
ag258
ag258
ag258
ag222
ag222
ag259
ag222
ag260
ag260
ag258
ag222
ag258
ag222
ag259
ag258
ag259
ag222
ag258
ag259
ag258
ag259
ag260
ag258
ag259
ag260
ag222
ag259
ag258
ag222
ag259
ag258
ag258
ag260
ag260
ag259
ag222
ag259
ag222
ag260
ag222
ag259
ag260
ag222
ag259
ag260
ag259
ag222
ag260
ag258
ag222
asS'um_before'
p261
(lp262
g258
ag258
ag259
ag260
ag260
ag260
ag258
ag258
ag258
ag222
ag259
ag222
ag260
ag260
ag258
ag258
ag258
ag258
ag259
ag258
ag259
ag222
ag260
ag259
ag260
ag259
ag222
ag258
ag259
ag260
ag222
ag259
ag258
ag259
ag259
ag258
ag258
ag260
ag260
ag260
ag222
ag259
ag222
ag260
ag258
ag259
ag260
ag222
ag259
ag260
ag259
ag222
ag260
ag258
ag222
asS'um_after'
p263
(lp264
g258
ag258
ag259
ag260
ag260
ag260
ag258
ag258
ag258
ag222
ag259
ag222
ag260
ag260
ag258
ag258
ag258
ag258
ag259
ag258
ag259
ag222
ag260
ag259
ag260
ag259
ag222
ag258
ag259
ag260
ag222
ag259
ag258
ag259
ag259
ag258
ag258
ag260
ag260
ag260
ag222
ag259
ag222
ag260
ag258
ag259
ag260
ag222
ag259
ag260
ag259
ag222
ag260
ag258
ag222
asS'is_normalized_entropy_less_than_threshold'
p265
(lp266
g50
(g51
(S'b1'
p267
I0
I1
tp268
Rp269
(I3
S'|'
p270
NNNI-1
I-1
I0
tp271
bS'\x01'
p272
tp273
Rp274
ag50
(g269
S'\x00'
p275
tp276
Rp277
ag274
ag274
ag274
ag274
ag277
ag274
ag277
ag277
ag274
ag274
ag274
ag277
ag277
ag277
ag274
ag277
ag274
ag277
ag274
ag274
ag274
ag277
ag274
ag274
ag277
ag277
ag274
ag274
ag277
ag274
ag277
ag274
ag277
ag274
ag277
ag274
ag274
ag274
ag277
ag274
ag274
ag274
ag277
ag274
ag277
ag274
ag274
ag277
ag274
ag277
ag274
ag274
ag274
asaa(lp278
S'index'
p279
aI31057
aatp280
Rp281
.