ccollections
OrderedDict
p0
((lp1
(lp2
S'combination_dict'
p3
ag0
((lp4
(lp5
S'r_to_g_config'
p6
aS'br'
p7
aa(lp8
S'num_turns'
p9
aI2
aa(lp10
S'start_direction'
p11
acutils_ms
StartDirection
p12
(I0
tp13
Rp14
aa(lp15
S'assistance_type'
p16
acutils_ms
AssistanceType
p17
(I0
tp18
Rp19
aa(lp20
S'start_mode'
p21
aS'y'
p22
aa(lp23
S'ui_given_a_noise'
p24
aF0.1
aa(lp25
S'um_given_ui_noise'
p26
aF0.7
aa(lp27
S'entropy_threshold'
p28
aF0.9
aatp29
Rp30
aa(lp31
S'data'
p32
accollections
defaultdict
p33
(c__builtin__
list
p34
tp35
Rp36
S'a'
p37
(lp38
S'mode_l'
p39
ag39
ag39
ag39
aS'move_p'
p40
ag40
ag39
ag40
ag39
ag40
ag40
ag39
ag39
aS'move_n'
p41
ag41
ag39
ag39
ag40
asS'assistance_match_with_ground_truth'
p42
(lp43
I00
aI00
aI00
aI01
aI00
aI00
aI01
aI01
aI01
aI00
aI01
aI00
aI01
aI00
aI01
aI00
aI01
aI01
asS'is_u_intended_equals_um'
p44
(lp45
I00
aI00
aI00
aI01
aI00
aI01
aI01
aI01
aI01
aI00
aI01
aI00
aI01
aI00
aI01
aI00
aI01
aI01
asS'total_steps'
p46
I18
sS'normalized_h_of_p_ui_given_um'
p47
(lp48
cnumpy.core.multiarray
scalar
p49
(cnumpy
dtype
p50
(S'f8'
p51
I0
I1
tp52
Rp53
(I3
S'<'
p54
NNNI-1
I-1
I0
tp55
bS'pS\xfd\xb5d&\xde?'
p56
tp57
Rp58
ag49
(g53
S';wB\xd5\xca\x85\xd6?'
p59
tp60
Rp61
ag49
(g53
S'\xa1M:\x90<\xc9\xcf?'
p62
tp63
Rp64
ag49
(g53
S'\xc6_\xdb\x02\xc4\xbb\xcd?'
p65
tp66
Rp67
ag49
(g53
S'K?\x1e\xd4\xe0\x05\xdc?'
p68
tp69
Rp70
ag49
(g53
S'\\t\tN\xfd|\xe9?'
p71
tp72
Rp73
ag49
(g53
S'\xc6_\xdb\x02\xc4\xbb\xcd?'
p74
tp75
Rp76
ag49
(g53
S'\xe0\xf3\x0c,]-\xd1?'
p77
tp78
Rp79
ag49
(g53
S'\xc6_\xdb\x02\xc4\xbb\xcd?'
p80
tp81
Rp82
ag49
(g53
S'\x18\x18\xa1\x8c\xdd\x00\xd1?'
p83
tp84
Rp85
ag49
(g53
S'\xe0\xf3\x0c,]-\xd1?'
p86
tp87
Rp88
ag49
(g53
S'\xa1M:\x90<\xc9\xcf?'
p89
tp90
Rp91
ag49
(g53
S'\xc6_\xdb\x02\xc4\xbb\xcd?'
p92
tp93
Rp94
ag49
(g53
S'R\xc6\xb3\xa4U\x80\xc1?'
p95
tp96
Rp97
ag49
(g53
S'\xfa\xed\xed\x82\xc3H\xad?'
p98
tp99
Rp100
ag49
(g53
S';wB\xd5\xca\x85\xd6?'
p101
tp102
Rp103
ag49
(g53
S'\xc6_\xdb\x02\xc4\xbb\xcd?'
p104
tp105
Rp106
ag49
(g53
S'\xe0\xf3\x0c,]-\xd1?'
p107
tp108
Rp109
asS'sp'
p110
(lp111
(S'p0'
p112
I0
g22
tp113
ag113
ag113
a(g112
I0
S'x'
p114
tp115
ag115
a(g112
I0
S'y'
p116
tp117
ag115
a(S'p1'
p118
I0
g114
tp119
a(g118
I0
S't'
p120
tp121
ag121
a(g118
F1.5707963267948966
g120
tp122
ag122
a(g118
F1.5707963267948966
g116
tp123
ag123
a(S'p2'
p124
F1.5707963267948966
g116
tp125
ag125
a(g124
F1.5707963267948966
g114
tp126
a(S'p3'
p127
F1.5707963267948966
g114
tp128
asS's'
p129
(lp130
g113
ag113
ag113
ag113
ag115
ag115
ag117
ag115
ag119
ag121
ag121
ag122
ag122
ag123
ag123
ag125
ag125
ag126
asS'ui'
p131
(lp132
S'hs'
p133
ag110
ag133
ag133
aS'hp'
p134
ag110
ag133
ag110
ag133
ag110
ag110
ag133
ag133
aS'ss'
p135
ag135
ag133
ag133
ag110
asS'um_before'
p136
(lp137
g110
ag135
ag134
ag133
ag133
ag134
ag133
ag110
ag133
ag135
ag110
ag134
ag133
ag110
ag135
ag135
ag133
ag110
asS'um_after'
p138
(lp139
NaNaNag133
aNag134
ag133
ag110
ag133
aNag110
aNag133
aNag135
aNag133
ag110
asS'is_normalized_entropy_less_than_threshold'
p140
(lp141
g49
(g50
(S'b1'
p142
I0
I1
tp143
Rp144
(I3
S'|'
p145
NNNI-1
I-1
I0
tp146
bS'\x01'
p147
tp148
Rp149
ag149
ag149
ag149
ag149
ag149
ag149
ag149
ag149
ag149
ag149
ag149
ag149
ag149
ag149
ag149
ag149
ag149
asaa(lp150
S'index'
p151
aI96993
aatp152
Rp153
.