ccollections
OrderedDict
p0
((lp1
(lp2
S'combination_dict'
p3
ag0
((lp4
(lp5
S'r_to_g_config'
p6
aS'tr'
p7
aa(lp8
S'num_turns'
p9
aI3
aa(lp10
S'start_direction'
p11
acutils_ms
StartDirection
p12
(I1
tp13
Rp14
aa(lp15
S'assistance_type'
p16
acutils_ms
AssistanceType
p17
(I1
tp18
Rp19
aa(lp20
S'start_mode'
p21
aS'x'
p22
aa(lp23
S'ui_given_a_noise'
p24
aF0.3
aa(lp25
S'um_given_ui_noise'
p26
aF0.3
aa(lp27
S'entropy_threshold'
p28
aF0.7
aatp29
Rp30
aa(lp31
S'data'
p32
accollections
defaultdict
p33
(c__builtin__
list
p34
tp35
Rp36
S'a'
p37
(lp38
S'mode_r'
p39
aS'move_p'
p40
ag39
aS'mode_l'
p41
ag40
ag41
ag40
ag39
ag41
ag40
ag39
ag39
ag40
ag39
ag40
ag39
ag41
ag39
ag41
ag41
ag41
ag41
ag41
ag40
ag41
ag41
ag40
ag41
ag40
ag39
ag39
ag40
ag41
ag40
ag41
ag40
ag39
ag41
ag40
ag39
ag40
ag39
ag39
ag39
ag39
ag40
ag41
ag41
ag40
asS'assistance_match_with_ground_truth'
p42
(lp43
I01
aI01
aI00
aI01
aI00
aI01
aI01
aI00
aI01
aI00
aI00
aI01
aI00
aI01
aI01
aI00
aI00
aI00
aI00
aI00
aI00
aI00
aI01
aI00
aI00
aI01
aI00
aI01
aI01
aI00
aI01
aI00
aI01
aI01
aI01
aI00
aI00
aI01
aI00
aI01
aI00
aI00
aI00
aI00
aI01
aI01
aI00
aI01
aI01
asS'is_u_intended_equals_um'
p44
(lp45
I01
aI01
aI01
aI01
aI01
aI00
aI01
aI01
aI01
aI01
aI00
aI01
aI01
aI01
aI01
aI01
aI01
aI01
aI01
aI01
aI01
aI01
aI01
aI01
aI01
aI01
aI01
aI00
aI01
aI01
aI01
aI01
aI01
aI01
aI01
aI01
aI01
aI01
aI01
aI01
aI01
aI01
aI01
aI01
aI01
aI01
aI01
aI01
aI01
asS'total_steps'
p46
I49
sS'normalized_h_of_p_ui_given_um'
p47
(lp48
cnumpy.core.multiarray
scalar
p49
(cnumpy
dtype
p50
(S'f8'
p51
I0
I1
tp52
Rp53
(I3
S'<'
p54
NNNI-1
I-1
I0
tp55
bS'\xbe\xd1\x04`\xaf\xee\xbc?'
p56
tp57
Rp58
ag49
(g53
S'|^n;:\xd5\xd3?'
p59
tp60
Rp61
ag49
(g53
S'\xa4A12_g\xe8?'
p62
tp63
Rp64
ag49
(g53
S'\x8az\x8f\xc1\xc3\xbd\xd2?'
p65
tp66
Rp67
ag49
(g53
S'\x07/\xe1\x88\x15\xc6\xe3?'
p68
tp69
Rp70
ag49
(g53
S'\x88h\x9b6\x8e\xaf\xe0?'
p71
tp72
Rp73
ag49
(g53
S'|^n;:\xd5\xd3?'
p74
tp75
Rp76
ag49
(g53
S'\xa4A12_g\xe8?'
p77
tp78
Rp79
ag49
(g53
S'\x8az\x8f\xc1\xc3\xbd\xd2?'
p80
tp81
Rp82
ag49
(g53
S'\x15o=\xc9\xc0\xfd\xea?'
p83
tp84
Rp85
ag49
(g53
S'\\\x8e\xdfY\x9c\x89\xef?'
p86
tp87
Rp88
ag49
(g53
S'\xbe\xd1\x04`\xaf\xee\xbc?'
p89
tp90
Rp91
ag49
(g53
S'\x15o=\xc9\xc0\xfd\xea?'
p92
tp93
Rp94
ag49
(g53
S'\xbe\xd1\x04`\xaf\xee\xbc?'
p95
tp96
Rp97
ag49
(g53
S'|^n;:\xd5\xd3?'
p98
tp99
Rp100
ag49
(g53
S'\xa4A12_g\xe8?'
p101
tp102
Rp103
ag49
(g53
S'yc\xcb\x03\x94\x19\xe0?'
p104
tp105
Rp106
ag49
(g53
S'\xa4A12_g\xe8?'
p107
tp108
Rp109
ag49
(g53
S'\xfe\xdb\xfd\xf2\xe6\xf6\xdd?'
p110
tp111
Rp112
ag49
(g53
S'\xfe\xdb\xfd\xf2\xe6\xf6\xdd?'
p113
tp114
Rp115
ag49
(g53
S'\xfe\xdb\xfd\xf2\xe6\xf6\xdd?'
p116
tp117
Rp118
ag49
(g53
S'\xfe\xdb\xfd\xf2\xe6\xf6\xdd?'
p119
tp120
Rp121
ag49
(g53
S'\x8az\x8f\xc1\xc3\xbd\xd2?'
p122
tp123
Rp124
ag49
(g53
S'\x07/\xe1\x88\x15\xc6\xe3?'
p125
tp126
Rp127
ag49
(g53
S'\xfe\xdb\xfd\xf2\xe6\xf6\xdd?'
p128
tp129
Rp130
ag49
(g53
S'\x8az\x8f\xc1\xc3\xbd\xd2?'
p131
tp132
Rp133
ag49
(g53
S'\xbe\xe7H\nH\xbb\xe4?'
p134
tp135
Rp136
ag49
(g53
S'\x88h\x9b6\x8e\xaf\xe0?'
p137
tp138
Rp139
ag49
(g53
S'|^n;:\xd5\xd3?'
p140
tp141
Rp142
ag49
(g53
S'\xd6\x009\xd0\xb1h\xdf?'
p143
tp144
Rp145
ag49
(g53
S'\xbe\xd1\x04`\xaf\xee\xbc?'
p146
tp147
Rp148
ag49
(g53
S'\x07/\xe1\x88\x15\xc6\xe3?'
p149
tp150
Rp151
ag49
(g53
S'\x8az\x8f\xc1\xc3\xbd\xd2?'
p152
tp153
Rp154
ag49
(g53
S'|^n;:\xd5\xd3?'
p155
tp156
Rp157
ag49
(g53
S'\x8az\x8f\xc1\xc3\xbd\xd2?'
p158
tp159
Rp160
ag49
(g53
S'\x15o=\xc9\xc0\xfd\xea?'
p161
tp162
Rp163
ag49
(g53
S'\xa4A12_g\xe8?'
p164
tp165
Rp166
ag49
(g53
S'\x8az\x8f\xc1\xc3\xbd\xd2?'
p167
tp168
Rp169
ag49
(g53
S'\xbe\xe7H\nH\xbb\xe4?'
p170
tp171
Rp172
ag49
(g53
S'\xbe\xd1\x04`\xaf\xee\xbc?'
p173
tp174
Rp175
ag49
(g53
S'\x15o=\xc9\xc0\xfd\xea?'
p176
tp177
Rp178
ag49
(g53
S'\xd6\x009\xd0\xb1h\xdf?'
p179
tp180
Rp181
ag49
(g53
S'\xd6\x009\xd0\xb1h\xdf?'
p182
tp183
Rp184
ag49
(g53
S'\xd6\x009\xd0\xb1h\xdf?'
p185
tp186
Rp187
ag49
(g53
S'\xbe\xd1\x04`\xaf\xee\xbc?'
p188
tp189
Rp190
ag49
(g53
S'|^n;:\xd5\xd3?'
p191
tp192
Rp193
ag49
(g53
S'\xfe\xdb\xfd\xf2\xe6\xf6\xdd?'
p194
tp195
Rp196
ag49
(g53
S'\x8az\x8f\xc1\xc3\xbd\xd2?'
p197
tp198
Rp199
ag49
(g53
S'|^n;:\xd5\xd3?'
p200
tp201
Rp202
asS'sp'
p203
(lp204
(S'p0'
p205
I0
S'y'
p206
tp207
a(S'p1'
p208
I0
g206
tp209
a(g208
I0
S'x'
p210
tp211
a(g208
I0
S't'
p212
tp213
a(g208
I0
g210
tp214
ag213
a(g208
F1.5707963267948966
g212
tp215
a(g208
F1.5707963267948966
g206
tp216
a(g208
F1.5707963267948966
g210
tp217
a(g208
F1.5707963267948966
g212
tp218
a(g208
F1.5707963267948966
g212
tp219
a(g208
F1.5707963267948966
g210
tp220
ag218
ag220
a(S'p2'
p221
F1.5707963267948966
g210
tp222
a(g221
F1.5707963267948966
g212
tp223
a(g221
F1.5707963267948966
g210
tp224
ag223
a(g221
F1.5707963267948966
g212
tp225
ag225
ag225
ag225
a(g221
F1.5707963267948966
g206
tp226
a(g221
F1.5707963267948966
g212
tp227
ag225
ag226
a(g208
F1.5707963267948966
g206
tp228
ag217
ag222
a(g221
F1.5707963267948966
g210
tp229
a(g221
F1.5707963267948966
g206
tp230
ag227
ag226
a(S'p3'
p231
F1.5707963267948966
g206
tp232
a(g231
F1.5707963267948966
g210
tp233
a(g231
F1.5707963267948966
g212
tp234
a(g231
F1.5707963267948966
g206
tp235
ag233
a(g221
F1.5707963267948966
g210
tp236
ag230
a(g221
F1.5707963267948966
g210
tp237
ag229
ag229
ag229
ag230
ag232
a(g231
F1.5707963267948966
g206
tp238
ag233
a(S'p4'
p239
F1.5707963267948966
g210
tp240
asS's'
p241
(lp242
(g205
I0
g22
tp243
ag207
ag209
ag211
ag213
ag214
ag213
ag215
ag216
ag217
ag218
ag219
ag220
ag218
ag220
ag222
ag223
ag224
ag223
ag225
ag225
ag225
ag225
ag226
ag227
ag225
ag226
ag228
ag217
ag222
ag229
ag230
ag227
ag226
ag232
ag233
ag234
ag235
ag233
ag236
ag230
ag237
ag229
ag229
ag229
ag230
ag232
ag238
ag233
asS'ui'
p244
(lp245
S'hp'
p246
ag203
ag246
aS'ss'
p247
ag203
aS'hs'
p248
ag203
ag246
ag248
ag248
ag248
ag246
ag203
ag246
ag203
ag247
ag248
ag248
ag247
ag247
ag248
ag247
ag248
ag248
ag247
ag248
ag247
ag248
ag203
ag246
ag246
ag203
ag248
ag203
ag248
ag203
ag247
ag247
ag203
ag246
ag203
ag247
ag247
ag247
ag246
ag203
ag247
ag248
ag203
asS'um_before'
p249
(lp250
g246
ag203
ag248
ag248
ag246
ag203
ag203
ag248
ag248
ag248
ag203
ag246
ag248
ag246
ag203
ag248
ag246
ag248
ag247
ag247
ag247
ag247
ag248
ag246
ag247
ag248
ag247
ag203
ag203
ag247
ag246
ag246
ag248
ag203
ag248
ag248
ag248
ag248
ag247
ag246
ag248
ag247
ag247
ag247
ag246
ag203
ag247
ag248
ag203
asS'um_after'
p251
(lp252
g246
ag203
ag248
ag248
ag246
ag248
ag203
ag248
ag248
ag248
ag203
ag246
ag248
ag246
ag203
ag248
ag246
ag248
ag247
ag247
ag247
ag247
ag248
ag246
ag247
ag248
ag247
ag248
ag203
ag247
ag246
ag246
ag248
ag203
ag248
ag248
ag248
ag248
ag247
ag246
ag248
ag247
ag247
ag247
ag246
ag203
ag247
ag248
ag203
asS'is_normalized_entropy_less_than_threshold'
p253
(lp254
g49
(g50
(S'b1'
p255
I0
I1
tp256
Rp257
(I3
S'|'
p258
NNNI-1
I-1
I0
tp259
bS'\x01'
p260
tp261
Rp262
ag262
ag49
(g257
S'\x00'
p263
tp264
Rp265
ag262
ag262
ag262
ag262
ag265
ag262
ag265
ag265
ag262
ag265
ag262
ag262
ag265
ag262
ag265
ag262
ag262
ag262
ag262
ag262
ag262
ag262
ag262
ag262
ag262
ag262
ag262
ag262
ag262
ag262
ag262
ag262
ag265
ag265
ag262
ag262
ag262
ag265
ag262
ag262
ag262
ag262
ag262
ag262
ag262
ag262
asaa(lp266
S'index'
p267
aI25870
aatp268
Rp269
.