ccollections
OrderedDict
p0
((lp1
(lp2
S'combination_dict'
p3
ag0
((lp4
(lp5
S'r_to_g_config'
p6
aS'br'
p7
aa(lp8
S'num_turns'
p9
aI2
aa(lp10
S'start_direction'
p11
acutils_ms
StartDirection
p12
(I0
tp13
Rp14
aa(lp15
S'assistance_type'
p16
acutils_ms
AssistanceType
p17
(I1
tp18
Rp19
aa(lp20
S'start_mode'
p21
aS'y'
p22
aa(lp23
S'ui_given_a_noise'
p24
aF0.1
aa(lp25
S'um_given_ui_noise'
p26
aF0.7
aa(lp27
S'entropy_threshold'
p28
aF0.7
aatp29
Rp30
aa(lp31
S'data'
p32
accollections
defaultdict
p33
(c__builtin__
list
p34
tp35
Rp36
S'a'
p37
(lp38
S'mode_l'
p39
aS'move_p'
p40
ag39
ag40
ag39
aS'move_n'
p41
ag39
ag40
asS'assistance_match_with_ground_truth'
p42
(lp43
I01
aI01
aI01
aI01
aI01
aI01
aI01
aI01
asS'is_u_intended_equals_um'
p44
(lp45
I01
aI00
aI01
aI00
aI01
aI00
aI01
aI01
asS'total_steps'
p46
I8
sS'normalized_h_of_p_ui_given_um'
p47
(lp48
cnumpy.core.multiarray
scalar
p49
(cnumpy
dtype
p50
(S'f8'
p51
I0
I1
tp52
Rp53
(I3
S'<'
p54
NNNI-1
I-1
I0
tp55
bS'8\xc0\x06A\x1a]\xc0?'
p56
tp57
Rp58
ag49
(g53
S'\xb7\xa2D:\xa8/\xdf?'
p59
tp60
Rp61
ag49
(g53
S'8\xc0\x06A\x1a]\xc0?'
p62
tp63
Rp64
ag49
(g53
S'\xb7\xa2D:\xa8/\xdf?'
p65
tp66
Rp67
ag49
(g53
S'8\xc0\x06A\x1a]\xc0?'
p68
tp69
Rp70
ag49
(g53
S'\xbbf\xde{r\x8a\xd2?'
p71
tp72
Rp73
ag49
(g53
S'8\xc0\x06A\x1a]\xc0?'
p74
tp75
Rp76
ag49
(g53
S'\xb0\xf6K\xc4\x9c>\xbd?'
p77
tp78
Rp79
asS'sp'
p80
(lp81
(S'p0'
p82
I0
S'x'
p83
tp84
a(S'p1'
p85
I0
g83
tp86
a(g85
I0
S't'
p87
tp88
a(g85
F1.5707963267948966
g87
tp89
a(g85
F1.5707963267948966
S'y'
p90
tp91
a(S'p2'
p92
F1.5707963267948966
g90
tp93
a(g92
F1.5707963267948966
g83
tp94
a(S'p3'
p95
F1.5707963267948966
g83
tp96
asS's'
p97
(lp98
(g82
I0
g22
tp99
ag84
ag86
ag88
ag89
ag91
ag93
ag94
asS'ui'
p100
(lp101
S'hs'
p102
ag80
ag102
ag80
ag102
aS'ss'
p103
ag103
ag80
asS'um_before'
p104
(lp105
g102
aS'hp'
p106
ag102
ag106
ag102
ag102
ag102
ag80
asS'um_after'
p107
(lp108
g102
ag80
ag102
ag80
ag102
ag103
ag102
ag80
asS'is_normalized_entropy_less_than_threshold'
p109
(lp110
g49
(g50
(S'b1'
p111
I0
I1
tp112
Rp113
(I3
S'|'
p114
NNNI-1
I-1
I0
tp115
bS'\x01'
p116
tp117
Rp118
ag118
ag118
ag118
ag118
ag118
ag118
ag118
asaa(lp119
S'index'
p120
aI98579
aatp121
Rp122
.