ccollections
OrderedDict
p0
((lp1
(lp2
S'combination_dict'
p3
ag0
((lp4
(lp5
S'r_to_g_config'
p6
aS'tr'
p7
aa(lp8
S'num_turns'
p9
aI2
aa(lp10
S'start_direction'
p11
acutils_ms
StartDirection
p12
(I0
tp13
Rp14
aa(lp15
S'assistance_type'
p16
acutils_ms
AssistanceType
p17
(I2
tp18
Rp19
aa(lp20
S'start_mode'
p21
aS'y'
p22
aa(lp23
S'ui_given_a_noise'
p24
aF0.1
aa(lp25
S'um_given_ui_noise'
p26
aF0.7
aa(lp27
S'entropy_threshold'
p28
aF0.5
aatp29
Rp30
aa(lp31
S'data'
p32
accollections
defaultdict
p33
(c__builtin__
list
p34
tp35
Rp36
S'a'
p37
(lp38
S'mode_l'
p39
aS'mode_r'
p40
ag39
aS'move_p'
p41
ag40
ag41
ag39
ag41
ag40
ag41
ag40
ag40
ag40
ag41
ag40
ag41
ag40
ag41
ag39
ag41
ag39
asS'assistance_match_with_ground_truth'
p42
(lp43
I00
aI00
aI01
aI01
aI01
aI00
aI01
aI01
aI01
aI01
aI00
aI00
aI01
aI01
aI01
aI00
aI00
aI00
aI01
aI00
aI00
asS'is_u_intended_equals_um'
p44
(lp45
I01
aI01
aI01
aI01
aI01
aI01
aI01
aI01
aI01
aI01
aI01
aI01
aI01
aI01
aI01
aI01
aI01
aI01
aI01
aI01
aI01
asS'total_steps'
p46
I21
sS'normalized_h_of_p_ui_given_um'
p47
(lp48
cnumpy.core.multiarray
scalar
p49
(cnumpy
dtype
p50
(S'f8'
p51
I0
I1
tp52
Rp53
(I3
S'<'
p54
NNNI-1
I-1
I0
tp55
bS'\xc9\xb1\xcaeNB\xda?'
p56
tp57
Rp58
ag58
ag58
ag58
ag58
ag58
ag58
ag58
ag58
ag58
ag58
ag58
ag58
ag58
ag58
ag58
ag58
ag58
ag58
ag58
ag58
asS'sp'
p59
(lp60
(S'p0'
p61
I0
S't'
p62
tp63
a(g61
I0
S'y'
p64
tp65
a(g61
I0
S'x'
p66
tp67
a(S'p1'
p68
I0
g66
tp69
a(g68
I0
g64
tp70
a(g61
I0
g64
tp71
ag67
ag69
ag70
a(S'p2'
p72
I0
g64
tp73
a(g72
I0
g64
tp74
ag74
a(g72
I0
g62
tp75
a(g72
F1.5707963267948966
g62
tp76
a(g72
F1.5707963267948966
g66
tp77
a(g72
F1.5707963267948966
g62
tp78
a(g72
I0
g62
tp79
a(g72
I0
g66
tp80
a(g72
I0
g62
tp81
ag80
a(S'p3'
p82
I0
g66
tp83
asS's'
p84
(lp85
(g61
I0
g22
tp86
ag63
ag65
ag67
ag69
ag70
ag71
ag67
ag69
ag70
ag73
ag74
ag74
ag75
ag76
ag77
ag78
ag79
ag80
ag81
ag80
asS'ui'
p87
(lp88
S'hs'
p89
ag59
ag89
ag59
aS'hp'
p90
ag59
ag59
ag59
ag90
ag59
ag90
ag90
ag90
ag59
ag90
ag59
ag90
ag59
ag89
ag89
ag89
asS'um_before'
p91
(lp92
g90
ag89
ag89
ag59
ag90
aS'ss'
p93
ag89
ag59
ag90
ag59
ag93
ag93
ag90
ag59
ag90
ag89
ag93
ag90
ag89
ag90
ag59
asS'um_after'
p94
(lp95
g90
ag89
ag89
ag59
ag90
ag93
ag89
ag59
ag90
ag59
ag93
ag93
ag90
ag59
ag90
ag89
ag93
ag90
ag89
ag90
ag59
asS'is_normalized_entropy_less_than_threshold'
p96
(lp97
g49
(g50
(S'b1'
p98
I0
I1
tp99
Rp100
(I3
S'|'
p101
NNNI-1
I-1
I0
tp102
bS'\x01'
p103
tp104
Rp105
ag105
ag105
ag105
ag105
ag105
ag105
ag105
ag105
ag105
ag105
ag105
ag105
ag105
ag105
ag105
ag105
ag105
ag105
ag105
ag105
asaa(lp106
S'index'
p107
aI13750
aatp108
Rp109
.