ccollections
OrderedDict
p0
((lp1
(lp2
S'combination_dict'
p3
ag0
((lp4
(lp5
S'r_to_g_config'
p6
aS'tl'
p7
aa(lp8
S'num_turns'
p9
aI3
aa(lp10
S'start_direction'
p11
acutils_ms
StartDirection
p12
(I1
tp13
Rp14
aa(lp15
S'assistance_type'
p16
acutils_ms
AssistanceType
p17
(I0
tp18
Rp19
aa(lp20
S'start_mode'
p21
aS'x'
p22
aa(lp23
S'ui_given_a_noise'
p24
aF0.5
aa(lp25
S'um_given_ui_noise'
p26
aF0.3
aa(lp27
S'entropy_threshold'
p28
aF0.8
aatp29
Rp30
aa(lp31
S'data'
p32
accollections
defaultdict
p33
(c__builtin__
list
p34
tp35
Rp36
S'a'
p37
(lp38
S'mode_r'
p39
aS'mode_l'
p40
aS'move_p'
p41
ag39
ag39
ag39
ag39
ag39
ag39
ag41
ag39
ag41
ag40
ag40
ag39
ag41
ag39
ag41
ag41
ag39
ag41
ag39
ag40
ag39
ag39
ag39
ag41
ag41
ag40
ag39
ag39
ag40
ag41
ag41
ag39
ag40
ag40
ag39
ag41
ag39
ag40
ag41
ag40
ag41
ag39
ag39
ag40
ag41
ag39
ag40
ag40
ag39
ag40
ag40
aS'move_n'
p42
ag39
ag40
ag39
ag40
ag41
ag40
ag40
ag41
ag39
ag40
ag40
ag40
ag39
ag40
ag40
ag39
ag41
ag40
ag42
asS'assistance_match_with_ground_truth'
p43
(lp44
I00
aI01
aI00
aI00
aI00
aI00
aI00
aI00
aI01
aI00
aI01
aI00
aI00
aI00
aI01
aI00
aI01
aI00
aI00
aI01
aI01
aI00
aI00
aI00
aI00
aI01
aI00
aI00
aI00
aI00
aI00
aI01
aI00
aI00
aI00
aI00
aI00
aI01
aI00
aI00
aI01
aI00
aI01
aI01
aI00
aI00
aI01
aI01
aI00
aI00
aI00
aI00
aI00
aI01
aI01
aI00
aI00
aI00
aI01
aI00
aI00
aI01
aI00
aI00
aI00
aI00
aI00
aI00
aI00
aI00
aI01
aI01
aI01
aI01
asS'is_u_intended_equals_um'
p45
(lp46
I00
aI01
aI01
aI01
aI01
aI01
aI01
aI01
aI01
aI01
aI01
aI01
aI01
aI01
aI01
aI01
aI01
aI01
aI01
aI01
aI01
aI00
aI01
aI01
aI01
aI01
aI01
aI01
aI00
aI01
aI00
aI01
aI01
aI01
aI00
aI01
aI01
aI01
aI01
aI00
aI01
aI01
aI01
aI01
aI01
aI00
aI01
aI01
aI00
aI00
aI01
aI00
aI01
aI01
aI01
aI00
aI01
aI00
aI01
aI01
aI01
aI01
aI01
aI00
aI01
aI01
aI01
aI00
aI00
aI01
aI01
aI01
aI01
aI01
asS'total_steps'
p47
I74
sS'normalized_h_of_p_ui_given_um'
p48
(lp49
cnumpy.core.multiarray
scalar
p50
(cnumpy
dtype
p51
(S'f8'
p52
I0
I1
tp53
Rp54
(I3
S'<'
p55
NNNI-1
I-1
I0
tp56
bS'\xe7\xabCU\xa7\xe1\xee?'
p57
tp58
Rp59
ag50
(g54
S'\xc4}\x19z[7\xdc?'
p60
tp61
Rp62
ag50
(g54
S'\x12\xe0\xd0\xf6K\xcb\xea?'
p63
tp64
Rp65
ag50
(g54
S'W\xe7\xcc\xb1\xc3\x08\xe6?'
p66
tp67
Rp68
ag50
(g54
S'Uqy=\x11\xe0\xea?'
p69
tp70
Rp71
ag50
(g54
S'Uqy=\x11\xe0\xea?'
p72
tp73
Rp74
ag50
(g54
S'W\xe7\xcc\xb1\xc3\x08\xe6?'
p75
tp76
Rp77
ag50
(g54
S'W\xe7\xcc\xb1\xc3\x08\xe6?'
p78
tp79
Rp80
ag50
(g54
S'\xc8\x0b\xda/\xda\x87\xc7?'
p81
tp82
Rp83
ag50
(g54
S'\x12\xe0\xd0\xf6K\xcb\xea?'
p84
tp85
Rp86
ag50
(g54
S'\xc8\x0b\xda/\xda\x87\xc7?'
p87
tp88
Rp89
ag50
(g54
S'\xb2t\xe7<Z\xba\xe5?'
p90
tp91
Rp92
ag50
(g54
S'\x83(nq\x13\xfc\xe6?'
p93
tp94
Rp95
ag50
(g54
S'\x11\xa9q\x7f\xcd`\xe2?'
p96
tp97
Rp98
ag50
(g54
S'\xc8\x0b\xda/\xda\x87\xc7?'
p99
tp100
Rp101
ag50
(g54
S'\x12\xe0\xd0\xf6K\xcb\xea?'
p102
tp103
Rp104
ag50
(g54
S'\xc8\x0b\xda/\xda\x87\xc7?'
p105
tp106
Rp107
ag50
(g54
S'\x02\xa43M\xd0|\xe7?'
p108
tp109
Rp110
ag50
(g54
S'\x12\xe0\xd0\xf6K\xcb\xea?'
p111
tp112
Rp113
ag50
(g54
S'\xc8\x0b\xda/\xda\x87\xc7?'
p114
tp115
Rp116
ag50
(g54
S'@\x87\xb1/\xea\x17\xdc?'
p117
tp118
Rp119
ag50
(g54
S'\xe7\xabCU\xa7\xe1\xee?'
p120
tp121
Rp122
ag50
(g54
S'\x11\xa9q\x7f\xcd`\xe2?'
p123
tp124
Rp125
ag50
(g54
S'Uqy=\x11\xe0\xea?'
p126
tp127
Rp128
ag50
(g54
S'Uqy=\x11\xe0\xea?'
p129
tp130
Rp131
ag50
(g54
S'\xc8\x0b\xda/\xda\x87\xc7?'
p132
tp133
Rp134
ag50
(g54
S'\x02\xa43M\xd0|\xe7?'
p135
tp136
Rp137
ag50
(g54
S'\xb2t\xe7<Z\xba\xe5?'
p138
tp139
Rp140
ag50
(g54
S'\xcd\xd6b\xfb\xd0\xd4\xeb?'
p141
tp142
Rp143
ag50
(g54
S'W\xe7\xcc\xb1\xc3\x08\xe6?'
p144
tp145
Rp146
ag50
(g54
S'\xe7\xabCU\xa7\xe1\xee?'
p147
tp148
Rp149
ag50
(g54
S'\xc4}\x19z[7\xdc?'
p150
tp151
Rp152
ag50
(g54
S'\x02\xa43M\xd0|\xe7?'
p153
tp154
Rp155
ag50
(g54
S'\x12\xe0\xd0\xf6K\xcb\xea?'
p156
tp157
Rp158
ag50
(g54
S'\xe7\xabCU\xa7\xe1\xee?'
p159
tp160
Rp161
ag50
(g54
S'\x83(nq\x13\xfc\xe6?'
p162
tp163
Rp164
ag50
(g54
S'\x11\xa9q\x7f\xcd`\xe2?'
p165
tp166
Rp167
ag50
(g54
S'\xc8\x0b\xda/\xda\x87\xc7?'
p168
tp169
Rp170
ag50
(g54
S'\x12\xe0\xd0\xf6K\xcb\xea?'
p171
tp172
Rp173
ag50
(g54
S'\xe7\xabCU\xa7\xe1\xee?'
p174
tp175
Rp176
ag50
(g54
S'\xc4}\x19z[7\xdc?'
p177
tp178
Rp179
ag50
(g54
S'\xb2t\xe7<Z\xba\xe5?'
p180
tp181
Rp182
ag50
(g54
S'\xc4}\x19z[7\xdc?'
p183
tp184
Rp185
ag50
(g54
S'@\x87\xb1/\xea\x17\xdc?'
p186
tp187
Rp188
ag50
(g54
S'W\xe7\xcc\xb1\xc3\x08\xe6?'
p189
tp190
Rp191
ag50
(g54
S'\xe7\xabCU\xa7\xe1\xee?'
p192
tp193
Rp194
ag50
(g54
S'\xc4}\x19z[7\xdc?'
p195
tp196
Rp197
ag50
(g54
S'@\x87\xb1/\xea\x17\xdc?'
p198
tp199
Rp200
ag50
(g54
S'\xe7\xabCU\xa7\xe1\xee?'
p201
tp202
Rp203
ag50
(g54
S'\xcd\xd6b\xfb\xd0\xd4\xeb?'
p204
tp205
Rp206
ag50
(g54
S'\x11\xa9q\x7f\xcd`\xe2?'
p207
tp208
Rp209
ag50
(g54
S'\xe7\xabCU\xa7\xe1\xee?'
p210
tp211
Rp212
ag50
(g54
S'\x83(nq\x13\xfc\xe6?'
p213
tp214
Rp215
ag50
(g54
S'\xc4}\x19z[7\xdc?'
p216
tp217
Rp218
ag50
(g54
S'g\xa76&\x13\xa3\xcd?'
p219
tp220
Rp221
ag50
(g54
S'\xe7\xabCU\xa7\xe1\xee?'
p222
tp223
Rp224
ag50
(g54
S'\x11\xa9q\x7f\xcd`\xe2?'
p225
tp226
Rp227
ag50
(g54
S'\xe7\xabCU\xa7\xe1\xee?'
p228
tp229
Rp230
ag50
(g54
S'\xc4}\x19z[7\xdc?'
p231
tp232
Rp233
ag50
(g54
S'\xb2t\xe7<Z\xba\xe5?'
p234
tp235
Rp236
ag50
(g54
S'\x83(nq\x13\xfc\xe6?'
p237
tp238
Rp239
ag50
(g54
S'\xc4}\x19z[7\xdc?'
p240
tp241
Rp242
ag50
(g54
S'\x12\xe0\xd0\xf6K\xcb\xea?'
p243
tp244
Rp245
ag50
(g54
S'\xe7\xabCU\xa7\xe1\xee?'
p246
tp247
Rp248
ag50
(g54
S'\x83(nq\x13\xfc\xe6?'
p249
tp250
Rp251
ag50
(g54
S'\x83(nq\x13\xfc\xe6?'
p252
tp253
Rp254
ag50
(g54
S'\x11\xa9q\x7f\xcd`\xe2?'
p255
tp256
Rp257
ag50
(g54
S'\xe7\xabCU\xa7\xe1\xee?'
p258
tp259
Rp260
ag50
(g54
S'\xcd\xd6b\xfb\xd0\xd4\xeb?'
p261
tp262
Rp263
ag50
(g54
S'\x11\xa9q\x7f\xcd`\xe2?'
p264
tp265
Rp266
ag50
(g54
S'\xc8\x0b\xda/\xda\x87\xc7?'
p267
tp268
Rp269
ag50
(g54
S'@\x87\xb1/\xea\x17\xdc?'
p270
tp271
Rp272
ag50
(g54
S'\xc4}\x19z[7\xdc?'
p273
tp274
Rp275
ag50
(g54
S'g\xa76&\x13\xa3\xcd?'
p276
tp277
Rp278
asS'sp'
p279
(lp280
(S'p0'
p281
I0
S't'
p282
tp283
a(g281
I0
S'y'
p284
tp285
a(g281
I0
S'x'
p286
tp287
a(g281
I0
g286
tp288
a(g281
I0
g286
tp289
ag289
ag288
ag288
a(g281
I0
g284
tp290
ag287
ag290
a(g281
I0
g282
tp291
a(g281
I0
g282
tp292
a(g281
I0
g286
tp293
ag290
ag287
ag290
a(g281
I0
g284
tp294
ag287
ag290
a(S'p1'
p295
I0
g284
tp296
a(g295
I0
g286
tp297
a(g295
I0
g284
tp298
a(g295
I0
g284
tp299
ag299
a(g295
I0
g282
tp300
a(g295
I0
g282
tp301
a(g295
I0
g286
tp302
a(g281
I0
g286
tp303
ag288
ag283
ag285
ag294
ag287
ag283
ag292
ag293
ag290
ag287
ag283
ag285
ag291
ag285
ag296
a(g295
I0
g284
tp304
ag297
a(g295
I0
g282
tp305
a(g295
F1.5707963267948966
g282
tp306
a(g295
F1.5707963267948966
g284
tp307
a(g295
F1.5707963267948966
g284
tp308
a(g295
F1.5707963267948966
g282
tp309
ag307
a(g295
F1.5707963267948966
g284
tp310
a(g295
F1.5707963267948966
g286
tp311
a(S'p2'
p312
F1.5707963267948966
g286
tp313
a(g312
F1.5707963267948966
g282
tp314
a(g312
F1.5707963267948966
g286
tp315
ag314
a(g312
F1.5707963267948966
g284
tp316
a(g312
F1.5707963267948966
g282
tp317
a(g312
F1.5707963267948966
g282
tp318
ag316
a(g312
F1.5707963267948966
g286
tp319
ag314
ag318
ag318
ag315
ag314
a(g312
F1.5707963267948966
g282
tp320
ag315
a(g312
F1.5707963267948966
g284
tp321
a(S'p3'
p322
F1.5707963267948966
g284
tp323
a(g322
F1.5707963267948966
g286
tp324
a(S'p4'
p325
F1.5707963267948966
g286
tp326
asS's'
p327
(lp328
(g281
I0
g22
tp329
ag283
ag285
ag287
ag288
ag289
ag289
ag288
ag288
ag290
ag287
ag290
ag291
ag292
ag293
ag290
ag287
ag290
ag294
ag287
ag290
ag296
ag297
ag298
ag299
ag299
ag300
ag301
ag302
ag303
ag288
ag283
ag285
ag294
ag287
ag283
ag292
ag293
ag290
ag287
ag283
ag285
ag291
ag285
ag296
ag304
ag297
ag305
ag306
ag307
ag308
ag309
ag307
ag310
ag311
ag313
ag314
ag315
ag314
ag316
ag317
ag318
ag316
ag319
ag314
ag318
ag318
ag315
ag314
ag320
ag315
ag321
ag323
ag324
asS'ui'
p330
(lp331
S'ss'
p332
aS'hp'
p333
ag279
ag332
ag279
ag279
ag333
ag332
ag333
ag333
ag333
aS'hs'
p334
ag332
ag334
ag333
ag334
ag333
ag279
ag334
ag333
ag279
ag333
ag333
ag333
ag332
ag333
ag279
ag334
ag279
ag333
ag333
ag333
ag332
ag279
ag334
ag332
ag333
ag333
ag334
ag279
ag334
ag333
ag334
ag333
ag279
ag333
ag334
ag334
ag333
ag279
ag333
ag279
ag332
ag334
ag332
ag279
ag334
ag333
ag334
ag333
ag332
ag334
ag334
ag333
ag332
ag332
ag333
ag333
ag279
ag333
ag333
ag279
ag334
ag332
asS'um_before'
p335
(lp336
g334
ag334
ag334
ag332
ag279
ag279
ag332
ag332
ag333
ag334
ag333
ag333
ag332
ag333
ag333
ag334
ag333
ag332
ag334
ag333
ag279
ag334
ag333
ag279
ag279
ag333
ag332
ag333
ag279
ag332
ag334
ag334
ag332
ag334
ag334
ag332
ag333
ag333
ag334
ag334
ag334
ag333
ag334
ag279
ag332
ag334
ag334
ag279
ag334
ag279
ag333
ag334
ag332
ag334
ag332
ag334
ag333
ag334
ag334
ag333
ag332
ag334
ag334
ag334
ag332
ag332
ag333
ag334
ag279
ag333
ag333
ag279
ag334
ag332
asS'um_after'
p337
(lp338
g334
ag334
ag334
ag332
ag279
ag279
ag332
ag332
ag333
ag334
ag333
ag333
ag332
ag333
ag333
ag334
ag333
ag332
ag334
ag333
ag279
ag334
ag333
ag279
ag279
ag333
ag332
ag333
ag279
ag332
ag334
ag334
ag332
ag334
ag334
ag332
ag333
ag333
ag334
ag334
ag334
ag333
ag334
ag279
ag332
ag334
ag334
ag279
ag334
ag279
ag333
ag334
ag332
ag334
ag332
ag334
ag333
ag334
ag334
ag333
ag332
ag334
ag334
ag334
ag332
ag332
ag333
ag334
ag279
ag333
ag333
ag279
ag334
ag332
asS'is_normalized_entropy_less_than_threshold'
p339
(lp340
g50
(g51
(S'b1'
p341
I0
I1
tp342
Rp343
(I3
S'|'
p344
NNNI-1
I-1
I0
tp345
bS'\x00'
p346
tp347
Rp348
ag50
(g343
S'\x01'
p349
tp350
Rp351
ag348
ag351
ag348
ag348
ag351
ag351
ag351
ag348
ag351
ag351
ag351
ag351
ag351
ag348
ag351
ag351
ag348
ag351
ag351
ag348
ag351
ag348
ag348
ag351
ag351
ag351
ag348
ag351
ag348
ag351
ag351
ag348
ag348
ag351
ag351
ag351
ag348
ag348
ag351
ag351
ag351
ag351
ag351
ag348
ag351
ag351
ag348
ag348
ag351
ag348
ag351
ag351
ag351
ag348
ag351
ag348
ag351
ag351
ag351
ag351
ag348
ag348
ag351
ag351
ag351
ag348
ag348
ag351
ag351
ag351
ag351
ag351
asaa(lp352
S'index'
p353
aI53283
aatp354
Rp355
.