ccollections
OrderedDict
p0
((lp1
(lp2
S'combination_dict'
p3
ag0
((lp4
(lp5
S'r_to_g_config'
p6
aS'tr'
p7
aa(lp8
S'num_turns'
p9
aI1
aa(lp10
S'start_direction'
p11
acutils_ms
StartDirection
p12
(I1
tp13
Rp14
aa(lp15
S'assistance_type'
p16
acutils_ms
AssistanceType
p17
(I0
tp18
Rp19
aa(lp20
S'start_mode'
p21
aS't'
p22
aa(lp23
S'ui_given_a_noise'
p24
aF0.5
aa(lp25
S'um_given_ui_noise'
p26
aF0.7
aa(lp27
S'entropy_threshold'
p28
aF0.9
aatp29
Rp30
aa(lp31
S'data'
p32
accollections
defaultdict
p33
(c__builtin__
list
p34
tp35
Rp36
S'a'
p37
(lp38
S'mode_l'
p39
ag39
aS'mode_r'
p40
ag40
ag40
aS'move_p'
p41
ag40
ag41
ag41
ag41
ag41
ag40
ag40
ag40
ag41
ag40
ag41
ag40
ag39
ag41
ag40
ag41
asS'assistance_match_with_ground_truth'
p42
(lp43
I00
aI00
aI00
aI00
aI01
aI00
aI01
aI00
aI00
aI00
aI00
aI00
aI00
aI01
aI00
aI01
aI01
aI00
aI01
aI01
aI01
aI01
asS'is_u_intended_equals_um'
p44
(lp45
I00
aI01
aI00
aI00
aI01
aI01
aI01
aI00
aI00
aI00
aI01
aI00
aI00
aI01
aI01
aI01
aI01
aI01
aI01
aI01
aI01
aI01
asS'total_steps'
p46
I22
sS'normalized_h_of_p_ui_given_um'
p47
(lp48
cnumpy.core.multiarray
scalar
p49
(cnumpy
dtype
p50
(S'f8'
p51
I0
I1
tp52
Rp53
(I3
S'<'
p54
NNNI-1
I-1
I0
tp55
bS':/\x94\x8b\x12\xbe\xe8?'
p56
tp57
Rp58
ag49
(g53
S'\\\xd1h\x1f=4\xee?'
p59
tp60
Rp61
ag49
(g53
S'\xe8\x8f\xa2\xf9N\x9b\xee?'
p62
tp63
Rp64
ag49
(g53
S'8m\x9d\x15J\xb2\xe6?'
p65
tp66
Rp67
ag49
(g53
S'\xc9S\xa2%5\xd4\xd7?'
p68
tp69
Rp70
ag49
(g53
S'Fs\xe1\x061K\xe8?'
p71
tp72
Rp73
ag49
(g53
S'\xc9S\xa2%5\xd4\xd7?'
p74
tp75
Rp76
ag49
(g53
S'\xac\x17<r_#\xe4?'
p77
tp78
Rp79
ag49
(g53
S'\xa5\\\xc9\xed\x93e\xe8?'
p80
tp81
Rp82
ag49
(g53
S'\xa5\\\xc9\xed\x93e\xe8?'
p83
tp84
Rp85
ag49
(g53
S'Fs\xe1\x061K\xe8?'
p86
tp87
Rp88
ag49
(g53
S'8m\x9d\x15J\xb2\xe6?'
p89
tp90
Rp91
ag49
(g53
S'\xe8\x8f\xa2\xf9N\x9b\xee?'
p92
tp93
Rp94
ag49
(g53
S'\xc9S\xa2%5\xd4\xd7?'
p95
tp96
Rp97
ag49
(g53
S'Fs\xe1\x061K\xe8?'
p98
tp99
Rp100
ag49
(g53
S'\xc9S\xa2%5\xd4\xd7?'
p101
tp102
Rp103
ag49
(g53
S"\xb4@'\xe5:E\xe3?"
p104
tp105
Rp106
ag49
(g53
S'a\xc5\xa8\x17\xaa\x96\xe3?'
p107
tp108
Rp109
ag49
(g53
S'\xb8|\xa9\xf2\xf3\x84\xdc?'
p110
tp111
Rp112
ag49
(g53
S"\xb4@'\xe5:E\xe3?"
p113
tp114
Rp115
ag49
(g53
S'\xc9S\xa2%5\xd4\xd7?'
p116
tp117
Rp118
ag49
(g53
S"\xb4@'\xe5:E\xe3?"
p119
tp120
Rp121
asS'sp'
p122
(lp123
(S'p0'
p124
I0
g22
tp125
a(g124
I0
S'x'
p126
tp127
a(g124
I0
g126
tp128
ag128
a(g124
I0
S'y'
p129
tp130
a(g124
I0
g126
tp131
ag130
ag130
ag130
ag130
ag131
ag131
ag128
ag130
ag131
ag130
a(S'p1'
p132
I0
g129
tp133
a(g132
I0
g126
tp134
a(g132
I0
S't'
p135
tp136
a(g132
F1.5707963267948966
g135
tp137
a(g132
F1.5707963267948966
g126
tp138
a(S'p2'
p139
F1.5707963267948966
g126
tp140
asS's'
p141
(lp142
g125
ag125
ag127
ag128
ag128
ag130
ag131
ag130
ag130
ag130
ag130
ag131
ag131
ag128
ag130
ag131
ag130
ag133
ag134
ag136
ag137
ag138
asS'ui'
p143
(lp144
g122
aS'ss'
p145
aS'hp'
p146
ag146
ag146
aS'hs'
p147
ag146
ag147
ag122
ag146
ag147
ag122
ag122
ag146
ag122
ag147
ag122
ag147
ag147
ag122
ag146
ag122
asS'um_before'
p148
(lp149
g122
ag146
ag145
ag122
ag146
ag147
ag146
ag145
ag146
ag146
ag147
ag122
ag145
ag146
ag147
ag146
ag122
ag147
ag147
ag122
ag146
ag122
asS'um_after'
p150
(lp151
Nag146
ag145
aNag146
ag147
ag146
aNaNaNag147
aNag145
ag146
ag147
ag146
ag122
ag147
ag147
ag122
ag146
ag122
asS'is_normalized_entropy_less_than_threshold'
p152
(lp153
g49
(g50
(S'b1'
p154
I0
I1
tp155
Rp156
(I3
S'|'
p157
NNNI-1
I-1
I0
tp158
bS'\x01'
p159
tp160
Rp161
ag49
(g156
S'\x00'
p162
tp163
Rp164
ag164
ag161
ag161
ag161
ag161
ag161
ag161
ag161
ag161
ag161
ag164
ag161
ag161
ag161
ag161
ag161
ag161
ag161
ag161
ag161
asaa(lp165
S'index'
p166
aI6195
aatp167
Rp168
.