ccollections
OrderedDict
p0
((lp1
(lp2
S'combination_dict'
p3
ag0
((lp4
(lp5
S'r_to_g_config'
p6
aS'tr'
p7
aa(lp8
S'num_turns'
p9
aI2
aa(lp10
S'start_direction'
p11
acutils_ms
StartDirection
p12
(I1
tp13
Rp14
aa(lp15
S'assistance_type'
p16
acutils_ms
AssistanceType
p17
(I1
tp18
Rp19
aa(lp20
S'start_mode'
p21
aS't'
p22
aa(lp23
S'ui_given_a_noise'
p24
aF0.5
aa(lp25
S'um_given_ui_noise'
p26
aF0.5
aa(lp27
S'entropy_threshold'
p28
aF0.6
aatp29
Rp30
aa(lp31
S'data'
p32
accollections
defaultdict
p33
(c__builtin__
list
p34
tp35
Rp36
S'a'
p37
(lp38
S'mode_l'
p39
ag39
aS'move_p'
p40
ag40
ag40
ag39
ag39
ag40
aS'mode_r'
p41
ag40
ag39
ag41
ag41
ag41
ag39
ag40
ag41
ag41
ag40
ag40
ag41
ag40
ag39
ag41
ag41
ag41
ag41
ag41
ag41
ag40
ag39
ag40
ag41
ag41
ag40
ag41
ag40
ag39
ag40
ag41
ag40
ag41
ag41
ag41
ag41
ag40
ag41
ag41
ag40
ag39
ag39
ag39
ag40
ag39
ag39
ag40
ag39
ag39
ag39
ag40
ag41
ag40
ag39
ag41
ag40
ag41
ag40
ag39
ag40
ag41
ag40
ag39
ag39
ag41
ag39
ag40
ag41
ag40
ag41
ag40
ag41
ag40
ag41
ag40
asS'assistance_match_with_ground_truth'
p42
(lp43
I00
aI01
aI00
aI00
aI00
aI00
aI01
aI01
aI01
aI00
aI00
aI00
aI00
aI00
aI01
aI01
aI00
aI00
aI00
aI00
aI01
aI00
aI00
aI00
aI00
aI00
aI00
aI00
aI01
aI00
aI01
aI00
aI00
aI01
aI01
aI01
aI00
aI01
aI00
aI01
aI01
aI00
aI00
aI00
aI01
aI00
aI00
aI01
aI00
aI00
aI00
aI01
aI00
aI00
aI01
aI00
aI00
aI00
aI01
aI00
aI01
aI01
aI00
aI01
aI00
aI01
aI01
aI01
aI00
aI01
aI00
aI00
aI00
aI00
aI01
aI00
aI01
aI00
aI01
aI00
aI01
aI01
aI01
aI01
asS'is_u_intended_equals_um'
p44
(lp45
I00
aI01
aI00
aI00
aI01
aI01
aI01
aI01
aI01
aI01
aI00
aI00
aI01
aI01
aI01
aI01
aI01
aI00
aI00
aI01
aI01
aI01
aI00
aI01
aI00
aI00
aI00
aI01
aI01
aI01
aI01
aI01
aI01
aI01
aI01
aI01
aI01
aI01
aI01
aI01
aI01
aI01
aI00
aI01
aI01
aI01
aI01
aI01
aI00
aI01
aI00
aI01
aI01
aI00
aI01
aI01
aI00
aI01
aI01
aI00
aI01
aI01
aI00
aI01
aI00
aI01
aI01
aI01
aI01
aI01
aI01
aI01
aI00
aI01
aI01
aI01
aI01
aI01
aI01
aI01
aI01
aI01
aI01
aI01
asS'total_steps'
p46
I84
sS'normalized_h_of_p_ui_given_um'
p47
(lp48
cnumpy.core.multiarray
scalar
p49
(cnumpy
dtype
p50
(S'f8'
p51
I0
I1
tp52
Rp53
(I3
S'<'
p54
NNNI-1
I-1
I0
tp55
bS'M\xf0\xb3\xe1\xc4\xd2\xe7?'
p56
tp57
Rp58
ag49
(g53
S'\xa1\x91c\x14/\x0e\xd6?'
p59
tp60
Rp61
ag49
(g53
S'j\xbf\xd6\x10,k\xeb?'
p62
tp63
Rp64
ag49
(g53
S'j\xbf\xd6\x10,k\xeb?'
p65
tp66
Rp67
ag49
(g53
S'\xdbl\x9d\xb7\xf4M\xea?'
p68
tp69
Rp70
ag49
(g53
S'\x9b\xdc\xd9M<U\xea?'
p71
tp72
Rp73
ag49
(g53
S'\xa1\x91c\x14/\x0e\xd6?'
p74
tp75
Rp76
ag49
(g53
S'\xda\xd0\x9e\xf2!\xc2\xe0?'
p77
tp78
Rp79
ag49
(g53
S'\xdc^1\x13\x0c\xd7\xdf?'
p80
tp81
Rp82
ag49
(g53
S'\xdbl\x9d\xb7\xf4M\xea?'
p83
tp84
Rp85
ag49
(g53
S'\x06\xb8o\x8bX\x9c\xe7?'
p86
tp87
Rp88
ag49
(g53
S'i\x98L\x05\xe9\xe4\xe7?'
p89
tp90
Rp91
ag49
(g53
S'\xcb\xd1\x16o\x83\xc4\xeb?'
p92
tp93
Rp94
ag49
(g53
S'\x929\xce\xf1O\x9c\xeb?'
p95
tp96
Rp97
ag49
(g53
S'\xa1\x91c\x14/\x0e\xd6?'
p98
tp99
Rp100
ag49
(g53
S'\xda\xd0\x9e\xf2!\xc2\xe0?'
p101
tp102
Rp103
ag49
(g53
S'\xcb\xd1\x16o\x83\xc4\xeb?'
p104
tp105
Rp106
ag49
(g53
S'i\x98L\x05\xe9\xe4\xe7?'
p107
tp108
Rp109
ag49
(g53
S'j\xbf\xd6\x10,k\xeb?'
p110
tp111
Rp112
ag49
(g53
S'\xd3k&\x9f\xac\xf8\xea?'
p113
tp114
Rp115
ag49
(g53
S'\xdc^1\x13\x0c\xd7\xdf?'
p116
tp117
Rp118
ag49
(g53
S'\xdbl\x9d\xb7\xf4M\xea?'
p119
tp120
Rp121
ag49
(g53
S'\x06\xb8o\x8bX\x9c\xe7?'
p122
tp123
Rp124
ag49
(g53
S'\xcb\xd1\x16o\x83\xc4\xeb?'
p125
tp126
Rp127
ag49
(g53
S'i\x98L\x05\xe9\xe4\xe7?'
p128
tp129
Rp130
ag49
(g53
S'i\x98L\x05\xe9\xe4\xe7?'
p131
tp132
Rp133
ag49
(g53
S'i\x98L\x05\xe9\xe4\xe7?'
p134
tp135
Rp136
ag49
(g53
S'\xcb\xd1\x16o\x83\xc4\xeb?'
p137
tp138
Rp139
ag49
(g53
S'\xdc^1\x13\x0c\xd7\xdf?'
p140
tp141
Rp142
ag49
(g53
S'\xdbl\x9d\xb7\xf4M\xea?'
p143
tp144
Rp145
ag49
(g53
S'\xa1\x91c\x14/\x0e\xd6?'
p146
tp147
Rp148
ag49
(g53
S'\xd3k&\x9f\xac\xf8\xea?'
p149
tp150
Rp151
ag49
(g53
S'\xcb\xd1\x16o\x83\xc4\xeb?'
p152
tp153
Rp154
ag49
(g53
S'\xdc^1\x13\x0c\xd7\xdf?'
p155
tp156
Rp157
ag49
(g53
S'\xda\xd0\x9e\xf2!\xc2\xe0?'
p158
tp159
Rp160
ag49
(g53
S'\xdc^1\x13\x0c\xd7\xdf?'
p161
tp162
Rp163
ag49
(g53
S'\xdbl\x9d\xb7\xf4M\xea?'
p164
tp165
Rp166
ag49
(g53
S'\xa1\x91c\x14/\x0e\xd6?'
p167
tp168
Rp169
ag49
(g53
S'\xd3k&\x9f\xac\xf8\xea?'
p170
tp171
Rp172
ag49
(g53
S'\xdc^1\x13\x0c\xd7\xdf?'
p173
tp174
Rp175
ag49
(g53
S'\xda\xd0\x9e\xf2!\xc2\xe0?'
p176
tp177
Rp178
ag49
(g53
S'\xcb\xd1\x16o\x83\xc4\xeb?'
p179
tp180
Rp181
ag49
(g53
S'i\x98L\x05\xe9\xe4\xe7?'
p182
tp183
Rp184
ag49
(g53
S'\xcb\xd1\x16o\x83\xc4\xeb?'
p185
tp186
Rp187
ag49
(g53
S'\xdc^1\x13\x0c\xd7\xdf?'
p188
tp189
Rp190
ag49
(g53
S'\xd3k&\x9f\xac\xf8\xea?'
p191
tp192
Rp193
ag49
(g53
S'\xcb\xd1\x16o\x83\xc4\xeb?'
p194
tp195
Rp196
ag49
(g53
S'\xdc^1\x13\x0c\xd7\xdf?'
p197
tp198
Rp199
ag49
(g53
S'j\xbf\xd6\x10,k\xeb?'
p200
tp201
Rp202
ag49
(g53
S'\x9b\xdc\xd9M<U\xea?'
p203
tp204
Rp205
ag49
(g53
S'M\xf0\xb3\xe1\xc4\xd2\xe7?'
p206
tp207
Rp208
ag49
(g53
S'\xa1\x91c\x14/\x0e\xd6?'
p209
tp210
Rp211
ag49
(g53
S'\xdbl\x9d\xb7\xf4M\xea?'
p212
tp213
Rp214
ag49
(g53
S'M\xf0\xb3\xe1\xc4\xd2\xe7?'
p215
tp216
Rp217
ag49
(g53
S'\xa1\x91c\x14/\x0e\xd6?'
p218
tp219
Rp220
ag49
(g53
S'\xdbl\x9d\xb7\xf4M\xea?'
p221
tp222
Rp223
ag49
(g53
S'M\xf0\xb3\xe1\xc4\xd2\xe7?'
p224
tp225
Rp226
ag49
(g53
S'\x9b\xdc\xd9M<U\xea?'
p227
tp228
Rp229
ag49
(g53
S'\xa1\x91c\x14/\x0e\xd6?'
p230
tp231
Rp232
ag49
(g53
S'j\xbf\xd6\x10,k\xeb?'
p233
tp234
Rp235
ag49
(g53
S'\xdc^1\x13\x0c\xd7\xdf?'
p236
tp237
Rp238
ag49
(g53
S'\xda\xd0\x9e\xf2!\xc2\xe0?'
p239
tp240
Rp241
ag49
(g53
S'\x06\xb8o\x8bX\x9c\xe7?'
p242
tp243
Rp244
ag49
(g53
S'\xdc^1\x13\x0c\xd7\xdf?'
p245
tp246
Rp247
ag49
(g53
S'j\xbf\xd6\x10,k\xeb?'
p248
tp249
Rp250
ag49
(g53
S'\xdc^1\x13\x0c\xd7\xdf?'
p251
tp252
Rp253
ag49
(g53
S'\xda\xd0\x9e\xf2!\xc2\xe0?'
p254
tp255
Rp256
ag49
(g53
S'\xa1\x91c\x14/\x0e\xd6?'
p257
tp258
Rp259
ag49
(g53
S'\xd3k&\x9f\xac\xf8\xea?'
p260
tp261
Rp262
ag49
(g53
S'\xdc^1\x13\x0c\xd7\xdf?'
p263
tp264
Rp265
ag49
(g53
S'\xdbl\x9d\xb7\xf4M\xea?'
p266
tp267
Rp268
ag49
(g53
S'\x9b\xdc\xd9M<U\xea?'
p269
tp270
Rp271
ag49
(g53
S'\x06\xb8o\x8bX\x9c\xe7?'
p272
tp273
Rp274
ag49
(g53
S'\x929\xce\xf1O\x9c\xeb?'
p275
tp276
Rp277
ag49
(g53
S'\xa1\x91c\x14/\x0e\xd6?'
p278
tp279
Rp280
ag49
(g53
S'\xd3k&\x9f\xac\xf8\xea?'
p281
tp282
Rp283
ag49
(g53
S'\xdc^1\x13\x0c\xd7\xdf?'
p284
tp285
Rp286
ag49
(g53
S'\xd3k&\x9f\xac\xf8\xea?'
p287
tp288
Rp289
ag49
(g53
S'\xdc^1\x13\x0c\xd7\xdf?'
p290
tp291
Rp292
ag49
(g53
S'\xd3k&\x9f\xac\xf8\xea?'
p293
tp294
Rp295
ag49
(g53
S'\xdc^1\x13\x0c\xd7\xdf?'
p296
tp297
Rp298
ag49
(g53
S'\xda\xd0\x9e\xf2!\xc2\xe0?'
p299
tp300
Rp301
ag49
(g53
S'\xdc^1\x13\x0c\xd7\xdf?'
p302
tp303
Rp304
ag49
(g53
S'\xda\xd0\x9e\xf2!\xc2\xe0?'
p305
tp306
Rp307
asS'sp'
p308
(lp309
(S'p0'
p310
I0
S't'
p311
tp312
a(g310
I0
S'y'
p313
tp314
a(g310
I0
g313
tp315
ag315
a(g310
I0
g311
tp316
a(g310
I0
g311
tp317
ag314
a(S'p1'
p318
I0
g313
tp319
a(g318
I0
g311
tp320
a(g318
I0
S'x'
p321
tp322
a(g318
I0
g313
tp323
a(g318
I0
g313
tp324
a(g318
I0
g313
tp325
a(g318
I0
g321
tp326
a(g318
I0
g311
tp327
a(g318
F1.5707963267948966
g311
tp328
a(g318
F1.5707963267948966
g311
tp329
a(g318
I0
g311
tp330
a(g318
I0
g311
tp331
a(g318
I0
g313
tp332
ag320
ag322
ag323
ag325
ag324
ag324
ag324
ag325
ag320
ag322
ag327
ag332
ag325
ag320
ag328
a(g318
F1.5707963267948966
g321
tp333
a(g318
F1.5707963267948966
g313
tp334
a(g318
F1.5707963267948966
g321
tp335
a(g318
F1.5707963267948966
g311
tp336
ag333
a(S'p2'
p337
F1.5707963267948966
g321
tp338
a(g337
F1.5707963267948966
g321
tp339
a(g337
F1.5707963267948966
g321
tp340
ag339
a(g337
F1.5707963267948966
g313
tp341
a(g337
F1.5707963267948966
g321
tp342
ag339
ag341
a(g318
F1.5707963267948966
g313
tp343
a(g318
F1.5707963267948966
g313
tp344
a(g318
F1.5707963267948966
g313
tp345
ag335
ag334
ag345
ag335
ag334
ag345
ag344
ag335
a(g310
F1.5707963267948966
g321
tp346
a(g310
F1.5707963267948966
g313
tp347
a(g318
F1.5707963267948966
g313
tp348
a(g318
F1.5707963267948966
g311
tp349
ag333
ag346
ag347
ag348
ag335
ag336
ag333
ag334
ag344
ag349
a(g318
F1.5707963267948966
g313
tp350
ag335
ag336
ag333
ag336
ag333
ag336
ag333
ag338
ag341
a(S'p3'
p351
F1.5707963267948966
g313
tp352
asS's'
p353
(lp354
(g310
I0
g22
tp355
ag312
ag314
ag315
ag315
ag316
ag317
ag314
ag319
ag320
ag322
ag323
ag324
ag325
ag326
ag327
ag328
ag329
ag330
ag331
ag332
ag320
ag322
ag323
ag325
ag324
ag324
ag324
ag325
ag320
ag322
ag327
ag332
ag325
ag320
ag328
ag333
ag334
ag335
ag336
ag333
ag338
ag339
ag340
ag339
ag341
ag342
ag339
ag341
ag343
ag344
ag345
ag335
ag334
ag345
ag335
ag334
ag345
ag344
ag335
ag346
ag347
ag348
ag349
ag333
ag346
ag347
ag348
ag335
ag336
ag333
ag334
ag344
ag349
ag350
ag335
ag336
ag333
ag336
ag333
ag336
ag333
ag338
ag341
asS'ui'
p356
(lp357
g308
aS'hs'
p358
ag308
ag308
aS'ss'
p359
ag358
ag359
ag308
aS'hp'
p360
ag359
ag308
ag308
ag358
ag360
ag358
ag308
ag359
ag360
ag360
ag360
ag358
ag359
ag358
ag359
ag360
ag359
ag360
ag359
ag360
ag360
ag358
ag359
ag358
ag358
ag359
ag360
ag360
ag358
ag308
ag360
ag308
ag308
ag360
ag359
ag360
ag358
ag358
ag308
ag308
ag359
ag308
ag358
ag308
ag308
ag358
ag360
ag358
ag358
ag358
ag360
ag308
ag308
ag359
ag360
ag359
ag360
ag308
ag358
ag358
ag360
ag360
ag359
ag308
ag358
ag358
ag359
ag360
ag358
ag360
ag308
ag360
ag308
ag360
ag308
asS'um_before'
p361
(lp362
g308
ag358
ag359
ag359
ag360
ag359
ag358
ag308
ag360
ag360
ag360
ag359
ag308
ag358
ag358
ag308
ag308
ag359
ag359
ag358
ag360
ag360
ag360
ag308
ag359
ag359
ag359
ag308
ag360
ag360
ag358
ag358
ag308
ag360
ag308
ag360
ag360
ag358
ag358
ag360
ag308
ag308
ag359
ag308
ag360
ag358
ag308
ag360
ag359
ag359
ag308
ag358
ag360
ag308
ag358
ag360
ag308
ag359
ag358
ag359
ag360
ag308
ag360
ag360
ag359
ag360
ag308
ag358
ag358
ag360
ag360
ag359
ag360
ag358
ag358
ag358
ag360
ag358
ag360
ag358
ag360
ag308
ag360
ag308
asS'um_after'
p363
(lp364
g308
ag358
ag359
ag359
ag360
ag359
ag358
ag308
ag360
ag360
ag360
ag359
ag308
ag358
ag358
ag308
ag308
ag359
ag359
ag358
ag360
ag360
ag360
ag308
ag359
ag359
ag359
ag308
ag360
ag360
ag358
ag358
ag308
ag360
ag308
ag360
ag360
ag358
ag358
ag360
ag308
ag308
ag359
ag308
ag360
ag358
ag308
ag360
ag359
ag359
ag308
ag358
ag360
ag308
ag358
ag360
ag308
ag359
ag358
ag359
ag360
ag308
ag360
ag360
ag359
ag360
ag308
ag358
ag358
ag360
ag360
ag359
ag360
ag358
ag358
ag358
ag360
ag358
ag360
ag358
ag360
ag308
ag360
ag308
asS'is_normalized_entropy_less_than_threshold'
p365
(lp366
g49
(g50
(S'b1'
p367
I0
I1
tp368
Rp369
(I3
S'|'
p370
NNNI-1
I-1
I0
tp371
bS'\x00'
p372
tp373
Rp374
ag49
(g369
S'\x01'
p375
tp376
Rp377
ag374
ag374
ag374
ag374
ag377
ag377
ag377
ag374
ag374
ag374
ag374
ag374
ag377
ag377
ag374
ag374
ag374
ag374
ag377
ag374
ag374
ag374
ag374
ag374
ag374
ag374
ag377
ag374
ag377
ag374
ag374
ag377
ag377
ag377
ag374
ag377
ag374
ag377
ag377
ag374
ag374
ag374
ag377
ag374
ag374
ag377
ag374
ag374
ag374
ag377
ag374
ag374
ag377
ag374
ag374
ag374
ag377
ag374
ag377
ag377
ag374
ag377
ag374
ag377
ag377
ag377
ag374
ag377
ag374
ag374
ag374
ag374
ag377
ag374
ag377
ag374
ag377
ag374
ag377
ag377
ag377
ag377
asaa(lp378
S'index'
p379
aI17312
aatp380
Rp381
.