ccollections
OrderedDict
p0
((lp1
(lp2
S'combination_dict'
p3
ag0
((lp4
(lp5
S'r_to_g_config'
p6
aS'bl'
p7
aa(lp8
S'num_turns'
p9
aI2
aa(lp10
S'start_direction'
p11
acutils_ms
StartDirection
p12
(I0
tp13
Rp14
aa(lp15
S'assistance_type'
p16
acutils_ms
AssistanceType
p17
(I1
tp18
Rp19
aa(lp20
S'start_mode'
p21
aS't'
p22
aa(lp23
S'ui_given_a_noise'
p24
aF0.5
aa(lp25
S'um_given_ui_noise'
p26
aF0.3
aa(lp27
S'entropy_threshold'
p28
aF0.8
aatp29
Rp30
aa(lp31
S'data'
p32
accollections
defaultdict
p33
(c__builtin__
list
p34
tp35
Rp36
S'a'
p37
(lp38
S'mode_r'
p39
ag39
aS'move_n'
p40
ag40
aS'mode_l'
p41
ag40
ag39
ag40
ag41
ag41
ag40
ag39
ag41
ag40
ag39
ag39
aS'move_p'
p42
ag42
ag39
ag42
ag42
ag39
ag39
ag41
ag40
asS'assistance_match_with_ground_truth'
p43
(lp44
I00
aI01
aI00
aI00
aI01
aI01
aI01
aI00
aI00
aI01
aI01
aI00
aI01
aI01
aI00
aI01
aI00
aI01
aI00
aI00
aI01
aI00
aI00
aI01
aI01
asS'is_u_intended_equals_um'
p45
(lp46
I01
aI01
aI01
aI01
aI01
aI01
aI01
aI01
aI01
aI01
aI01
aI00
aI01
aI00
aI01
aI01
aI01
aI01
aI01
aI01
aI01
aI01
aI00
aI01
aI01
asS'total_steps'
p47
I25
sS'normalized_h_of_p_ui_given_um'
p48
(lp49
cnumpy.core.multiarray
scalar
p50
(cnumpy
dtype
p51
(S'f8'
p52
I0
I1
tp53
Rp54
(I3
S'<'
p55
NNNI-1
I-1
I0
tp56
bS'>\xb9\x13\xd9Di\xd1?'
p57
tp58
Rp59
ag50
(g54
S'e\xd2H\xd0\xa3s\xc3?'
p60
tp61
Rp62
ag50
(g54
S'G\x03\xb9\xe0\x94\xb9\xe3?'
p63
tp64
Rp65
ag50
(g54
S'\x13\xdf\xba\xc4\r\x00\xe1?'
p66
tp67
Rp68
ag50
(g54
S'c\xa03m2[\xdf?'
p69
tp70
Rp71
ag50
(g54
S'b\xdb\xd3\xe5\x94\x97\xb9?'
p72
tp73
Rp74
ag50
(g54
S'e\xd2H\xd0\xa3s\xc3?'
p75
tp76
Rp77
ag50
(g54
S'G\x03\xb9\xe0\x94\xb9\xe3?'
p78
tp79
Rp80
ag50
(g54
S'/\x90\x9c\xa8SG\xd1?'
p81
tp82
Rp83
ag50
(g54
S'c\xa03m2[\xdf?'
p84
tp85
Rp86
ag50
(g54
S'b\xdb\xd3\xe5\x94\x97\xb9?'
p87
tp88
Rp89
ag50
(g54
S'>\xc2r\xa7\xb8\xfb\xeb?'
p90
tp91
Rp92
ag50
(g54
S'c\xa03m2[\xdf?'
p93
tp94
Rp95
ag50
(g54
S'\xc3\x8a\xbd\x1fj \xe9?'
p96
tp97
Rp98
ag50
(g54
S'w\x82\xedy\xd6\x99\xe8?'
p99
tp100
Rp101
ag50
(g54
S'e\xd2H\xd0\xa3s\xc3?'
p102
tp103
Rp104
ag50
(g54
S'\xf6md\xafQ\x14\xd5?'
p105
tp106
Rp107
ag50
(g54
S'>\x01V0\xf0\xb3\xc9?'
p108
tp109
Rp110
ag50
(g54
S'>\xb9\x13\xd9Di\xd1?'
p111
tp112
Rp113
ag50
(g54
S'\xf6md\xafQ\x14\xd5?'
p114
tp115
Rp116
ag50
(g54
S'>\x01V0\xf0\xb3\xc9?'
p117
tp118
Rp119
ag50
(g54
S'w\x82\xedy\xd6\x99\xe8?'
p120
tp121
Rp122
ag50
(g54
S'>\xc2r\xa7\xb8\xfb\xeb?'
p123
tp124
Rp125
ag50
(g54
S'c\xa03m2[\xdf?'
p126
tp127
Rp128
ag50
(g54
S'b\xdb\xd3\xe5\x94\x97\xb9?'
p129
tp130
Rp131
asS'sp'
p132
(lp133
(S'p0'
p134
I0
S't'
p135
tp136
a(g134
I0
S'x'
p137
tp138
a(g134
I0
g137
tp139
a(g134
I0
S'y'
p140
tp141
a(g134
I0
g137
tp142
a(S'p1'
p143
I0
g137
tp144
a(g143
I0
g140
tp145
a(g134
I0
g140
tp146
a(g134
I0
g140
tp147
ag142
ag144
a(g143
I0
g135
tp148
a(g143
I0
g140
tp149
a(S'p2'
p150
I0
g140
tp151
a(g150
I0
g140
tp152
a(g150
I0
g135
tp153
a(g150
I0
g135
tp154
a(g150
F1.5707963267948966
g135
tp155
a(g150
I0
g135
tp156
ag154
ag155
a(g150
F1.5707963267948966
g135
tp157
a(g150
F1.5707963267948966
g140
tp158
a(g150
F1.5707963267948966
g137
tp159
a(S'p3'
p160
F1.5707963267948966
g137
tp161
asS's'
p162
(lp163
(g134
I0
g22
tp164
ag136
ag138
ag139
ag141
ag142
ag144
ag145
ag146
ag147
ag142
ag144
ag148
ag149
ag151
ag152
ag153
ag154
ag155
ag156
ag154
ag155
ag157
ag158
ag159
asS'ui'
p165
(lp166
S'ss'
p167
aS'hp'
p168
ag167
ag168
aS'hs'
p169
ag167
ag168
ag167
ag167
ag169
ag167
ag167
ag168
ag132
ag168
ag168
ag167
ag132
ag167
ag167
ag132
ag168
ag169
ag169
ag167
asS'um_before'
p170
(lp171
g167
ag168
ag132
ag168
ag169
ag167
ag168
ag132
ag167
ag169
ag167
ag169
ag169
ag169
ag132
ag168
ag167
ag132
ag167
ag167
ag132
ag132
ag169
ag169
ag167
asS'um_after'
p172
(lp173
g167
ag168
ag132
ag168
ag169
ag167
ag168
ag132
ag167
ag169
ag167
ag169
ag169
ag167
ag132
ag168
ag167
ag132
ag167
ag167
ag132
ag132
ag169
ag169
ag167
asS'is_normalized_entropy_less_than_threshold'
p174
(lp175
g50
(g51
(S'b1'
p176
I0
I1
tp177
Rp178
(I3
S'|'
p179
NNNI-1
I-1
I0
tp180
bS'\x01'
p181
tp182
Rp183
ag183
ag183
ag183
ag183
ag183
ag183
ag183
ag183
ag183
ag183
ag50
(g178
S'\x00'
p184
tp185
Rp186
ag183
ag183
ag183
ag183
ag183
ag183
ag183
ag183
ag183
ag183
ag186
ag183
ag183
asaa(lp187
S'index'
p188
aI69284
aatp189
Rp190
.