ccollections
OrderedDict
p0
((lp1
(lp2
S'combination_dict'
p3
ag0
((lp4
(lp5
S'r_to_g_config'
p6
aS'br'
p7
aa(lp8
S'num_turns'
p9
aI2
aa(lp10
S'start_direction'
p11
acutils_ms
StartDirection
p12
(I0
tp13
Rp14
aa(lp15
S'assistance_type'
p16
acutils_ms
AssistanceType
p17
(I1
tp18
Rp19
aa(lp20
S'start_mode'
p21
aS'y'
p22
aa(lp23
S'ui_given_a_noise'
p24
aF0.7
aa(lp25
S'um_given_ui_noise'
p26
aF0.3
aa(lp27
S'entropy_threshold'
p28
aF0.9
aatp29
Rp30
aa(lp31
S'data'
p32
accollections
defaultdict
p33
(c__builtin__
list
p34
tp35
Rp36
S'a'
p37
(lp38
S'mode_l'
p39
ag39
ag39
aS'mode_r'
p40
ag39
aS'move_p'
p41
ag41
ag40
ag41
ag39
ag39
ag39
ag39
ag40
ag39
ag39
ag41
ag41
ag39
ag39
ag41
ag40
ag39
ag39
ag40
ag41
asS'assistance_match_with_ground_truth'
p42
(lp43
I00
aI00
aI00
aI00
aI01
aI00
aI00
aI01
aI01
aI00
aI00
aI00
aI00
aI00
aI00
aI01
aI00
aI00
aI00
aI01
aI00
aI00
aI00
aI00
aI01
aI01
asS'is_u_intended_equals_um'
p44
(lp45
I01
aI01
aI01
aI01
aI01
aI01
aI01
aI01
aI01
aI01
aI01
aI01
aI01
aI01
aI01
aI01
aI01
aI01
aI01
aI01
aI01
aI01
aI01
aI01
aI01
aI01
asS'total_steps'
p46
I26
sS'normalized_h_of_p_ui_given_um'
p47
(lp48
cnumpy.core.multiarray
scalar
p49
(cnumpy
dtype
p50
(S'f8'
p51
I0
I1
tp52
Rp53
(I3
S'<'
p54
NNNI-1
I-1
I0
tp55
bS'_\x1b\x10\x9e\xef]\xef?'
p56
tp57
Rp58
ag49
(g53
S'_\x1b\x10\x9e\xef]\xef?'
p59
tp60
Rp61
ag49
(g53
S'\x82ws\x9e\x9e\x1c\xe4?'
p62
tp63
Rp64
ag49
(g53
S'\xa0\xe3jh2\x08\xe3?'
p65
tp66
Rp67
ag49
(g53
S'Q\xd3tM\xeaV\xdc?'
p68
tp69
Rp70
ag49
(g53
S'\xb0!\xa4\xbcD\x7f\xec?'
p71
tp72
Rp73
ag49
(g53
S'd\xd9\xf6\x92N#\xe1?'
p74
tp75
Rp76
ag49
(g53
S'\xba\xbfT\x1e\x99\xc6\xdc?'
p77
tp78
Rp79
ag49
(g53
S'\x15\xbb\xbb#\xcd\xaa\xd9?'
p80
tp81
Rp82
ag49
(g53
S'\x8b|\x83\xac\xc3\xea\xe1?'
p83
tp84
Rp85
ag49
(g53
S'\x8b|\x83\xac\xc3\xea\xe1?'
p86
tp87
Rp88
ag49
(g53
S'_\x1b\x10\x9e\xef]\xef?'
p89
tp90
Rp91
ag49
(g53
S'\x82ws\x9e\x9e\x1c\xe4?'
p92
tp93
Rp94
ag49
(g53
S'\xa0\xe3jh2\x08\xe3?'
p95
tp96
Rp97
ag49
(g53
S'_\x1b\x10\x9e\xef]\xef?'
p98
tp99
Rp100
ag49
(g53
S'Q\xd3tM\xeaV\xdc?'
p101
tp102
Rp103
ag49
(g53
S'\xb0!\xa4\xbcD\x7f\xec?'
p104
tp105
Rp106
ag49
(g53
S'\xca\xa4\x8b\xb3C\x93\xe8?'
p107
tp108
Rp109
ag49
(g53
S'\x8b|\x83\xac\xc3\xea\xe1?'
p110
tp111
Rp112
ag49
(g53
S'Q\xd3tM\xeaV\xdc?'
p113
tp114
Rp115
ag49
(g53
S'd\xd9\xf6\x92N#\xe1?'
p116
tp117
Rp118
ag49
(g53
S'\x01\x99\xb2\x9c\t\xd1\xe4?'
p119
tp120
Rp121
ag49
(g53
S'_\x1b\x10\x9e\xef]\xef?'
p122
tp123
Rp124
ag49
(g53
S'\x82ws\x9e\x9e\x1c\xe4?'
p125
tp126
Rp127
ag49
(g53
S'\xba\xbfT\x1e\x99\xc6\xdc?'
p128
tp129
Rp130
ag49
(g53
S'\x15\xbb\xbb#\xcd\xaa\xd9?'
p131
tp132
Rp133
asS'sp'
p134
(lp135
(S'p0'
p136
I0
S'y'
p137
tp138
ag138
a(g136
I0
S't'
p139
tp140
a(g136
I0
g137
tp141
a(g136
I0
S'x'
p142
tp143
a(g136
I0
g142
tp144
a(g136
I0
g139
tp145
a(g136
I0
g142
tp146
a(S'p1'
p147
I0
g142
tp148
a(g147
I0
g142
tp149
ag149
a(g147
I0
g142
tp150
a(g147
I0
g137
tp151
a(g147
I0
g142
tp152
ag150
a(g147
I0
g139
tp153
a(g147
I0
g139
tp154
a(g147
I0
g142
tp155
ag149
ag153
a(g147
I0
g137
tp156
a(S'p2'
p157
I0
g137
tp158
a(g157
I0
g137
tp159
a(g157
I0
g139
tp160
a(g157
I0
g142
tp161
a(S'p3'
p162
I0
g142
tp163
asS's'
p164
(lp165
(g136
I0
g22
tp166
ag138
ag138
ag140
ag141
ag143
ag144
ag145
ag146
ag148
ag149
ag149
ag150
ag151
ag152
ag150
ag153
ag154
ag155
ag149
ag153
ag156
ag158
ag159
ag160
ag161
asS'ui'
p167
(lp168
S'hp'
p169
ag134
ag169
aS'hs'
p170
ag170
aS'ss'
p171
ag170
ag171
ag134
ag134
ag134
ag134
ag169
ag171
ag170
ag170
ag134
ag169
ag134
ag170
ag169
ag171
ag169
ag169
ag169
ag134
asS'um_before'
p172
(lp173
g171
ag171
ag169
ag170
ag170
ag171
ag170
ag169
ag134
ag134
ag134
ag171
ag169
ag170
ag171
ag170
ag171
ag169
ag134
ag170
ag170
ag171
ag171
ag169
ag169
ag134
asS'um_after'
p174
(lp175
g171
ag171
ag169
ag170
ag170
ag171
ag170
ag169
ag134
ag134
ag134
ag171
ag169
ag170
ag171
ag170
ag171
ag169
ag134
ag170
ag170
ag171
ag171
ag169
ag169
ag134
asS'is_normalized_entropy_less_than_threshold'
p176
(lp177
g49
(g50
(S'b1'
p178
I0
I1
tp179
Rp180
(I3
S'|'
p181
NNNI-1
I-1
I0
tp182
bS'\x00'
p183
tp184
Rp185
ag185
ag49
(g180
S'\x01'
p186
tp187
Rp188
ag188
ag188
ag188
ag188
ag188
ag188
ag188
ag188
ag185
ag188
ag188
ag185
ag188
ag188
ag188
ag188
ag188
ag188
ag188
ag185
ag188
ag188
ag188
asaa(lp189
S'index'
p190
aI99090
aatp191
Rp192
.