ccollections
OrderedDict
p0
((lp1
(lp2
S'combination_dict'
p3
ag0
((lp4
(lp5
S'r_to_g_config'
p6
aS'bl'
p7
aa(lp8
S'num_turns'
p9
aI1
aa(lp10
S'start_direction'
p11
acutils_ms
StartDirection
p12
(I1
tp13
Rp14
aa(lp15
S'assistance_type'
p16
acutils_ms
AssistanceType
p17
(I0
tp18
Rp19
aa(lp20
S'start_mode'
p21
aS'x'
p22
aa(lp23
S'ui_given_a_noise'
p24
aF0.7
aa(lp25
S'um_given_ui_noise'
p26
aF0.7
aa(lp27
S'entropy_threshold'
p28
aF0.5
aatp29
Rp30
aa(lp31
S'data'
p32
accollections
defaultdict
p33
(c__builtin__
list
p34
tp35
Rp36
S'a'
p37
(lp38
S'mode_r'
p39
aS'move_n'
p40
ag39
ag40
aS'mode_l'
p41
ag40
ag39
ag39
ag40
ag40
ag39
ag39
ag40
ag40
ag41
ag40
ag40
ag40
ag41
ag39
ag39
ag41
ag41
ag41
ag41
ag41
ag41
ag40
ag41
ag40
ag39
ag40
ag39
ag41
ag39
ag40
ag39
ag39
aS'move_p'
p42
ag42
ag39
ag41
ag39
ag41
ag40
ag40
ag39
ag41
ag40
ag39
ag42
ag39
ag39
ag40
asS'assistance_match_with_ground_truth'
p43
(lp44
I01
aI00
aI01
aI00
aI01
aI00
aI00
aI01
aI00
aI00
aI00
aI01
aI00
aI00
aI01
aI00
aI00
aI00
aI00
aI00
aI00
aI00
aI00
aI00
aI00
aI00
aI01
aI00
aI01
aI00
aI01
aI00
aI00
aI00
aI01
aI01
aI00
aI01
aI00
aI00
aI00
aI00
aI00
aI01
aI00
aI00
aI00
aI01
aI01
aI01
aI01
aI00
aI01
aI01
asS'is_u_intended_equals_um'
p45
(lp46
I01
aI00
aI01
aI01
aI01
aI00
aI00
aI01
aI01
aI00
aI00
aI01
aI01
aI01
aI01
aI01
aI01
aI01
aI01
aI00
aI01
aI00
aI01
aI01
aI01
aI01
aI01
aI01
aI01
aI00
aI01
aI00
aI01
aI01
aI01
aI01
aI00
aI01
aI00
aI01
aI01
aI01
aI01
aI01
aI01
aI00
aI01
aI01
aI01
aI01
aI01
aI00
aI01
aI01
asS'total_steps'
p47
I54
sS'normalized_h_of_p_ui_given_um'
p48
(lp49
cnumpy.core.multiarray
scalar
p50
(cnumpy
dtype
p51
(S'f8'
p52
I0
I1
tp53
Rp54
(I3
S'<'
p55
NNNI-1
I-1
I0
tp56
bS'\xdcM\xc6\x0c\x90\x1c\xe3?'
p57
tp58
Rp59
ag50
(g54
S'^^>\x8d\\\xd5\xed?'
p60
tp61
Rp62
ag50
(g54
S'\xdcM\xc6\x0c\x90\x1c\xe3?'
p63
tp64
Rp65
ag50
(g54
S'\x8e\xd3\xfc\x0cBF\xeb?'
p66
tp67
Rp68
ag50
(g54
S'/F\x96x\xc8\x88\xe8?'
p69
tp70
Rp71
ag50
(g54
S'^^>\x8d\\\xd5\xed?'
p72
tp73
Rp74
ag50
(g54
S'g\x92L\x88\xa1\xbd\xe9?'
p75
tp76
Rp77
ag50
(g54
S'\xdcM\xc6\x0c\x90\x1c\xe3?'
p78
tp79
Rp80
ag50
(g54
S'\xd0\xeb\xc2\xe7\xbb\x9c\xea?'
p81
tp82
Rp83
ag50
(g54
S'^^>\x8d\\\xd5\xed?'
p84
tp85
Rp86
ag50
(g54
S'g\x92L\x88\xa1\xbd\xe9?'
p87
tp88
Rp89
ag50
(g54
S'\xdcM\xc6\x0c\x90\x1c\xe3?'
p90
tp91
Rp92
ag50
(g54
S'\xd0\xeb\xc2\xe7\xbb\x9c\xea?'
p93
tp94
Rp95
ag50
(g54
S'\x8e\xd3\xfc\x0cBF\xeb?'
p96
tp97
Rp98
ag50
(g54
S'/F\x96x\xc8\x88\xe8?'
p99
tp100
Rp101
ag50
(g54
S'\xd0\xeb\xc2\xe7\xbb\x9c\xea?'
p102
tp103
Rp104
ag50
(g54
S'\xd0\xeb\xc2\xe7\xbb\x9c\xea?'
p105
tp106
Rp107
ag50
(g54
S'\x8e\xd3\xfc\x0cBF\xeb?'
p108
tp109
Rp110
ag50
(g54
S'(\xe8\xe8\x06\xb8p\xed?'
p111
tp112
Rp113
ag50
(g54
S'g\x92L\x88\xa1\xbd\xe9?'
p114
tp115
Rp116
ag50
(g54
S'\x00\x98;P\xb2\x0e\xea?'
p117
tp118
Rp119
ag50
(g54
S'h\xb1\x98\x87\x88}\xed?'
p120
tp121
Rp122
ag50
(g54
S'\xd6\x04$ew\x91\xec?'
p123
tp124
Rp125
ag50
(g54
S'\xd6\x04$ew\x91\xec?'
p126
tp127
Rp128
ag50
(g54
S'\xd6\x04$ew\x91\xec?'
p129
tp130
Rp131
ag50
(g54
S'\xd6\x04$ew\x91\xec?'
p132
tp133
Rp134
ag50
(g54
S'/F\x96x\xc8\x88\xe8?'
p135
tp136
Rp137
ag50
(g54
S'\x8e\xd3\xfc\x0cBF\xeb?'
p138
tp139
Rp140
ag50
(g54
S'/F\x96x\xc8\x88\xe8?'
p141
tp142
Rp143
ag50
(g54
S'^^>\x8d\\\xd5\xed?'
p144
tp145
Rp146
ag50
(g54
S'\xdcM\xc6\x0c\x90\x1c\xe3?'
p147
tp148
Rp149
ag50
(g54
S'^^>\x8d\\\xd5\xed?'
p150
tp151
Rp152
ag50
(g54
S'\x00\x98;P\xb2\x0e\xea?'
p153
tp154
Rp155
ag50
(g54
S'(\xe8\xe8\x06\xb8p\xed?'
p156
tp157
Rp158
ag50
(g54
S'\xdcM\xc6\x0c\x90\x1c\xe3?'
p159
tp160
Rp161
ag50
(g54
S'\xf2\xa0\xaa\x95f\xc9\xeb?'
p162
tp163
Rp164
ag50
(g54
S'g\x92L\x88\xa1\xbd\xe9?'
p165
tp166
Rp167
ag50
(g54
S'\xdcM\xc6\x0c\x90\x1c\xe3?'
p168
tp169
Rp170
ag50
(g54
S'q\xcc=\x82\xb8|\xe7?'
p171
tp172
Rp173
ag50
(g54
S'\xdcj\xe2\xde\xf3\xcd\xe4?'
p174
tp175
Rp176
ag50
(g54
S'\x00\x98;P\xb2\x0e\xea?'
p177
tp178
Rp179
ag50
(g54
S'\xd6\x04$ew\x91\xec?'
p180
tp181
Rp182
ag50
(g54
S'\x00\x98;P\xb2\x0e\xea?'
p183
tp184
Rp185
ag50
(g54
S'/F\x96x\xc8\x88\xe8?'
p186
tp187
Rp188
ag50
(g54
S'\xd0\xeb\xc2\xe7\xbb\x9c\xea?'
p189
tp190
Rp191
ag50
(g54
S'^^>\x8d\\\xd5\xed?'
p192
tp193
Rp194
ag50
(g54
S'\x00\x98;P\xb2\x0e\xea?'
p195
tp196
Rp197
ag50
(g54
S'/F\x96x\xc8\x88\xe8?'
p198
tp199
Rp200
ag50
(g54
S'\xf2\xa0\xaa\x95f\xc9\xeb?'
p201
tp202
Rp203
ag50
(g54
S'\xdcM\xc6\x0c\x90\x1c\xe3?'
p204
tp205
Rp206
ag50
(g54
S'\x15r\x01\x11\xed\xd0\xd8?'
p207
tp208
Rp209
ag50
(g54
S'g\x92L\x88\xa1\xbd\xe9?'
p210
tp211
Rp212
ag50
(g54
S'\xdcM\xc6\x0c\x90\x1c\xe3?'
p213
tp214
Rp215
ag50
(g54
S'\xf2\xa0\xaa\x95f\xc9\xeb?'
p216
tp217
Rp218
asS'sp'
p219
(lp220
(S'p0'
p221
I0
S'y'
p222
tp223
a(g221
I0
S'x'
p224
tp225
ag223
a(g221
I0
S't'
p226
tp227
a(g221
I0
g222
tp228
ag225
a(g221
I0
g224
tp229
ag223
a(g221
I0
g222
tp230
ag225
ag229
ag223
ag230
ag227
ag228
ag230
ag230
ag227
a(g221
I0
g224
tp231
ag229
a(g221
I0
g226
tp232
a(g221
I0
g226
tp233
a(g221
I0
g226
tp234
ag234
ag234
ag234
ag228
ag227
ag228
ag225
ag223
ag225
ag232
ag231
ag223
a(S'p1'
p235
I0
g222
tp236
a(g235
I0
g222
tp237
a(g235
I0
g226
tp238
a(g235
I0
g226
tp239
a(g235
I0
g222
tp240
a(g235
I0
g224
tp241
a(g221
I0
g224
tp242
ag232
ag228
ag230
ag225
ag232
ag228
ag236
ag238
a(g235
F1.5707963267948966
g226
tp243
a(g235
F1.5707963267948966
g226
tp244
a(g235
F1.5707963267948966
g224
tp245
a(S'p2'
p246
F1.5707963267948966
g224
tp247
asS's'
p248
(lp249
(g221
I0
g22
tp250
ag223
ag225
ag223
ag227
ag228
ag225
ag229
ag223
ag230
ag225
ag229
ag223
ag230
ag227
ag228
ag230
ag230
ag227
ag231
ag229
ag232
ag233
ag234
ag234
ag234
ag234
ag228
ag227
ag228
ag225
ag223
ag225
ag232
ag231
ag223
ag236
ag237
ag238
ag239
ag240
ag241
ag242
ag232
ag228
ag230
ag225
ag232
ag228
ag236
ag238
ag243
ag244
ag245
asS'ui'
p251
(lp252
g219
aS'ss'
p253
aS'hp'
p254
ag219
aS'hs'
p255
ag254
ag253
ag254
ag219
ag253
ag254
ag255
ag254
ag253
ag255
ag254
ag254
ag254
ag253
ag254
ag253
ag255
ag219
ag253
ag253
ag254
ag253
ag254
ag255
ag253
ag255
ag253
ag254
ag219
ag219
ag254
ag255
ag254
ag219
ag255
ag255
ag219
ag255
ag255
ag219
ag254
ag255
ag255
ag253
ag254
ag253
ag219
ag254
ag253
asS'um_before'
p256
(lp257
g254
ag255
ag254
ag254
ag255
ag255
ag219
ag254
ag219
ag255
ag219
ag254
ag219
ag254
ag255
ag219
ag219
ag254
ag254
ag219
ag255
ag253
ag219
ag219
ag219
ag219
ag255
ag254
ag255
ag255
ag254
ag255
ag255
ag254
ag254
ag253
ag219
ag254
ag253
ag255
ag255
ag219
ag255
ag255
ag219
ag255
ag255
ag255
ag253
ag254
ag219
ag219
ag254
ag253
asS'um_after'
p258
(lp259
g254
ag255
ag254
ag254
ag255
ag255
ag219
ag254
ag219
ag255
ag219
ag254
ag219
ag254
ag255
ag219
ag219
ag254
ag254
ag219
ag255
ag253
ag219
ag219
ag219
ag219
ag255
ag254
ag255
ag255
ag254
ag255
ag255
ag254
ag254
ag253
ag219
ag254
ag253
ag255
ag255
ag219
ag255
ag255
ag219
ag255
ag255
ag255
ag253
ag254
ag219
ag219
ag254
ag253
asS'is_normalized_entropy_less_than_threshold'
p260
(lp261
g50
(g51
(S'b1'
p262
I0
I1
tp263
Rp264
(I3
S'|'
p265
NNNI-1
I-1
I0
tp266
bS'\x00'
p267
tp268
Rp269
ag269
ag269
ag269
ag269
ag269
ag269
ag269
ag269
ag269
ag269
ag269
ag269
ag269
ag269
ag269
ag269
ag269
ag269
ag269
ag269
ag269
ag269
ag269
ag269
ag269
ag269
ag269
ag269
ag269
ag269
ag269
ag269
ag269
ag269
ag269
ag269
ag269
ag269
ag269
ag269
ag269
ag269
ag269
ag269
ag269
ag269
ag269
ag269
ag269
ag50
(g264
S'\x01'
p270
tp271
Rp272
ag269
ag269
ag269
asaa(lp273
S'index'
p274
aI63158
aatp275
Rp276
.