ccollections
OrderedDict
p0
((lp1
(lp2
S'combination_dict'
p3
ag0
((lp4
(lp5
S'r_to_g_config'
p6
aS'tr'
p7
aa(lp8
S'num_turns'
p9
aI1
aa(lp10
S'start_direction'
p11
acutils_ms
StartDirection
p12
(I1
tp13
Rp14
aa(lp15
S'assistance_type'
p16
acutils_ms
AssistanceType
p17
(I0
tp18
Rp19
aa(lp20
S'start_mode'
p21
aS'x'
p22
aa(lp23
S'ui_given_a_noise'
p24
aF0.7
aa(lp25
S'um_given_ui_noise'
p26
aF0.1
aa(lp27
S'entropy_threshold'
p28
aF0.5
aatp29
Rp30
aa(lp31
S'data'
p32
accollections
defaultdict
p33
(c__builtin__
list
p34
tp35
Rp36
S'a'
p37
(lp38
S'mode_r'
p39
aS'mode_l'
p40
aS'move_p'
p41
ag39
ag39
ag39
ag41
ag40
ag40
ag41
ag39
ag39
ag39
ag41
ag41
ag39
ag41
ag39
ag39
ag41
ag39
ag40
ag40
ag41
ag39
ag41
asS'assistance_match_with_ground_truth'
p42
(lp43
I00
aI01
aI00
aI00
aI00
aI01
aI00
aI00
aI01
aI00
aI00
aI00
aI01
aI00
aI01
aI01
aI01
aI00
aI00
aI01
aI00
aI00
aI01
aI00
aI01
aI01
asS'is_u_intended_equals_um'
p44
(lp45
I01
aI01
aI01
aI01
aI01
aI01
aI01
aI01
aI01
aI01
aI01
aI01
aI01
aI01
aI01
aI01
aI01
aI01
aI01
aI01
aI01
aI01
aI01
aI01
aI01
aI01
asS'total_steps'
p46
I26
sS'normalized_h_of_p_ui_given_um'
p47
(lp48
cnumpy.core.multiarray
scalar
p49
(cnumpy
dtype
p50
(S'f8'
p51
I0
I1
tp52
Rp53
(I3
S'<'
p54
NNNI-1
I-1
I0
tp55
bS'\x86l{lW&\xd9?'
p56
tp57
Rp58
ag49
(g53
S'\xe7\xa2\x1d\x17\x11\x06\xd0?'
p59
tp60
Rp61
ag49
(g53
S'\xbaS\xec\xba^@\xce?'
p62
tp63
Rp64
ag49
(g53
S'\xe0Xe\x1b\xdcL\xe1?'
p65
tp66
Rp67
ag49
(g53
S'\xc5\xabK L\xf4\xe3?'
p68
tp69
Rp70
ag49
(g53
S'_k8\xe6\xbc\xa0\xd1?'
p71
tp72
Rp73
ag49
(g53
S'\x9f\xe7\x9c\xc3\x06\xf0\xe1?'
p74
tp75
Rp76
ag49
(g53
S'\x85\xc5<&B\xf4\xde?'
p77
tp78
Rp79
ag49
(g53
S'\xe7\xa2\x1d\x17\x11\x06\xd0?'
p80
tp81
Rp82
ag49
(g53
S'\xbaS\xec\xba^@\xce?'
p83
tp84
Rp85
ag49
(g53
S'\xe0Xe\x1b\xdcL\xe1?'
p86
tp87
Rp88
ag49
(g53
S'\xe0Xe\x1b\xdcL\xe1?'
p89
tp90
Rp91
ag49
(g53
S'_k8\xe6\xbc\xa0\xd1?'
p92
tp93
Rp94
ag49
(g53
S'\xdc\x07\xa4\x86*\xd1\xe4?'
p95
tp96
Rp97
ag49
(g53
S'\x12\x9b\xf7C\xbdZ\xc8?'
p98
tp99
Rp100
ag49
(g53
S'_k8\xe6\xbc\xa0\xd1?'
p101
tp102
Rp103
ag49
(g53
S'\x12\x9b\xf7C\xbdZ\xc8?'
p104
tp105
Rp106
ag49
(g53
S'\xc5\xabK L\xf4\xe3?'
p107
tp108
Rp109
ag49
(g53
S'\xe0Xe\x1b\xdcL\xe1?'
p110
tp111
Rp112
ag49
(g53
S'\x12\x9b\xf7C\xbdZ\xc8?'
p113
tp114
Rp115
ag49
(g53
S'\x86l{lW&\xd9?'
p116
tp117
Rp118
ag49
(g53
S'\x85\xc5<&B\xf4\xde?'
p119
tp120
Rp121
ag49
(g53
S'\xe7\xa2\x1d\x17\x11\x06\xd0?'
p122
tp123
Rp124
ag49
(g53
S'\xbaS\xec\xba^@\xce?'
p125
tp126
Rp127
ag49
(g53
S'_k8\xe6\xbc\xa0\xd1?'
p128
tp129
Rp130
ag49
(g53
S'\x12\x9b\xf7C\xbdZ\xc8?'
p131
tp132
Rp133
asS'sp'
p134
(lp135
(S'p0'
p136
I0
S't'
p137
tp138
a(g136
I0
S'y'
p139
tp140
a(g136
I0
S'x'
p141
tp142
a(g136
I0
g141
tp143
a(g136
I0
g141
tp144
a(g136
I0
g139
tp145
a(g136
I0
g137
tp146
a(g136
I0
g137
tp147
ag140
ag142
ag143
ag143
ag145
a(g136
I0
g139
tp148
a(S'p1'
p149
I0
g139
tp150
a(g149
I0
g137
tp151
a(g149
F1.5707963267948966
g137
tp152
a(g149
F1.5707963267948966
g137
tp153
a(g149
I0
g137
tp154
ag152
a(g149
F1.5707963267948966
g139
tp155
a(g149
F1.5707963267948966
g139
tp156
a(g149
F1.5707963267948966
g141
tp157
a(g149
F1.5707963267948966
g137
tp158
a(g149
F1.5707963267948966
g141
tp159
a(S'p2'
p160
F1.5707963267948966
g141
tp161
asS's'
p162
(lp163
(g136
I0
g22
tp164
ag138
ag140
ag142
ag143
ag144
ag145
ag146
ag147
ag140
ag142
ag143
ag143
ag145
ag148
ag150
ag151
ag152
ag153
ag154
ag152
ag155
ag156
ag157
ag158
ag159
asS'ui'
p165
(lp166
S'hs'
p167
ag167
ag167
aS'ss'
p168
ag134
aS'hp'
p169
ag169
ag168
ag169
ag167
ag168
ag168
ag169
ag168
ag134
ag169
ag134
ag134
ag168
ag134
ag169
ag167
ag167
ag167
ag169
ag134
asS'um_before'
p170
(lp171
g167
ag167
ag167
ag168
ag134
ag169
ag169
ag168
ag167
ag167
ag168
ag168
ag169
ag168
ag134
ag169
ag134
ag134
ag168
ag134
ag167
ag168
ag167
ag167
ag169
ag134
asS'um_after'
p172
(lp173
g167
ag167
ag167
ag168
ag134
ag169
ag169
ag168
ag167
ag167
ag168
ag168
ag169
ag168
ag134
ag169
ag134
ag134
ag168
ag134
ag167
ag168
ag167
ag167
ag169
ag134
asS'is_normalized_entropy_less_than_threshold'
p174
(lp175
g49
(g50
(S'b1'
p176
I0
I1
tp177
Rp178
(I3
S'|'
p179
NNNI-1
I-1
I0
tp180
bS'\x01'
p181
tp182
Rp183
ag183
ag183
ag49
(g178
S'\x00'
p184
tp185
Rp186
ag186
ag183
ag186
ag183
ag183
ag183
ag186
ag186
ag183
ag186
ag183
ag183
ag183
ag186
ag186
ag183
ag183
ag183
ag183
ag183
ag183
ag183
asaa(lp187
S'index'
p188
aI5400
aatp189
Rp190
.