ccollections
OrderedDict
p0
((lp1
(lp2
S'combination_dict'
p3
ag0
((lp4
(lp5
S'r_to_g_config'
p6
aS'br'
p7
aa(lp8
S'num_turns'
p9
aI3
aa(lp10
S'start_direction'
p11
acutils_ms
StartDirection
p12
(I1
tp13
Rp14
aa(lp15
S'assistance_type'
p16
acutils_ms
AssistanceType
p17
(I1
tp18
Rp19
aa(lp20
S'start_mode'
p21
aS'x'
p22
aa(lp23
S'ui_given_a_noise'
p24
aF0.7
aa(lp25
S'um_given_ui_noise'
p26
aF0.5
aa(lp27
S'entropy_threshold'
p28
aF0.9
aatp29
Rp30
aa(lp31
S'data'
p32
accollections
defaultdict
p33
(c__builtin__
list
p34
tp35
Rp36
S'a'
p37
(lp38
S'mode_r'
p39
ag39
aS'move_n'
p40
aS'mode_l'
p41
ag39
ag40
ag41
ag41
ag40
ag40
ag41
ag41
ag39
ag39
ag40
ag41
ag40
ag40
ag39
ag39
ag40
ag41
ag41
ag41
ag41
ag40
ag39
ag40
ag41
ag40
ag41
ag39
ag39
ag40
ag41
aS'move_p'
p42
ag39
ag40
ag39
ag40
ag40
ag41
ag41
ag42
ag41
ag41
ag39
ag39
ag42
ag41
ag41
ag42
ag41
ag42
ag41
ag41
ag39
ag42
ag42
ag42
ag41
ag40
ag41
ag42
ag39
ag39
ag39
ag39
ag40
ag41
ag41
ag42
ag39
ag40
ag41
ag41
ag41
ag41
ag42
ag39
ag40
ag41
ag42
ag41
ag42
ag39
ag39
ag39
ag39
ag40
ag41
ag41
ag39
ag41
ag41
ag39
ag42
asS'assistance_match_with_ground_truth'
p43
(lp44
I00
aI01
aI00
aI00
aI01
aI00
aI00
aI01
aI00
aI00
aI00
aI00
aI00
aI01
aI00
aI01
aI00
aI00
aI00
aI01
aI00
aI00
aI00
aI00
aI01
aI00
aI01
aI00
aI01
aI00
aI00
aI00
aI01
aI01
aI01
aI00
aI01
aI00
aI01
aI00
aI01
aI00
aI01
aI00
aI00
aI00
aI00
aI01
aI00
aI00
aI01
aI00
aI01
aI01
aI00
aI00
aI01
aI00
aI00
aI01
aI01
aI00
aI01
aI01
aI00
aI00
aI00
aI01
aI00
aI00
aI01
aI00
aI01
aI01
aI00
aI00
aI00
aI01
aI00
aI01
aI01
aI01
aI00
aI01
aI01
aI00
aI00
aI00
aI01
aI01
aI00
aI00
aI00
aI00
aI00
aI01
aI01
asS'is_u_intended_equals_um'
p45
(lp46
I00
aI01
aI01
aI00
aI01
aI01
aI01
aI01
aI01
aI01
aI01
aI00
aI00
aI01
aI01
aI01
aI01
aI01
aI00
aI01
aI01
aI01
aI01
aI01
aI01
aI01
aI01
aI01
aI01
aI01
aI00
aI00
aI01
aI01
aI01
aI01
aI01
aI01
aI01
aI01
aI01
aI01
aI01
aI01
aI01
aI00
aI00
aI01
aI01
aI01
aI01
aI01
aI01
aI01
aI01
aI00
aI01
aI01
aI01
aI01
aI01
aI01
aI01
aI01
aI00
aI01
aI00
aI01
aI01
aI01
aI01
aI01
aI01
aI01
aI01
aI01
aI01
aI01
aI01
aI01
aI01
aI01
aI01
aI01
aI00
aI00
aI00
aI01
aI01
aI01
aI01
aI00
aI01
aI01
aI00
aI01
aI00
asS'total_steps'
p47
I97
sS'normalized_h_of_p_ui_given_um'
p48
(lp49
cnumpy.core.multiarray
scalar
p50
(cnumpy
dtype
p51
(S'f8'
p52
I0
I1
tp53
Rp54
(I3
S'<'
p55
NNNI-1
I-1
I0
tp56
bS'\x18\xec\xe2Lq\xd9\xec?'
p57
tp58
Rp59
ag50
(g54
S'\xbe\xc0u\xedks\xd5?'
p60
tp61
Rp62
ag50
(g54
S'\xa0!|\xe2\xd9\n\xe9?'
p63
tp64
Rp65
ag50
(g54
S'\x9ct\xf5\x0b\x1c\x8a\xed?'
p66
tp67
Rp68
ag50
(g54
S'\xbe\xc0u\xedks\xd5?'
p69
tp70
Rp71
ag50
(g54
S'\xa0!|\xe2\xd9\n\xe9?'
p72
tp73
Rp74
ag50
(g54
S'0&l\x975\xfe\xe9?'
p75
tp76
Rp77
ag50
(g54
S'yXx>\x11\x9b\xdc?'
p78
tp79
Rp80
ag50
(g54
S'\xda\x08G\x96\xa7\xde\xe9?'
p81
tp82
Rp83
ag50
(g54
S'\xa0!|\xe2\xd9\n\xe9?'
p84
tp85
Rp86
ag50
(g54
S'0&l\x975\xfe\xe9?'
p87
tp88
Rp89
ag50
(g54
S'\x9ct\xf5\x0b\x1c\x8a\xed?'
p90
tp91
Rp92
ag50
(g54
S'\x18\xec\xe2Lq\xd9\xec?'
p93
tp94
Rp95
ag50
(g54
S'\xbe\xc0u\xedks\xd5?'
p96
tp97
Rp98
ag50
(g54
S'\xa0!|\xe2\xd9\n\xe9?'
p99
tp100
Rp101
ag50
(g54
S'yXx>\x11\x9b\xdc?'
p102
tp103
Rp104
ag50
(g54
S'\xda\x08G\x96\xa7\xde\xe9?'
p105
tp106
Rp107
ag50
(g54
S'\xbao\x07\xa4z\x06\xe6?'
p108
tp109
Rp110
ag50
(g54
S'\x18\xec\xe2Lq\xd9\xec?'
p111
tp112
Rp113
ag50
(g54
S'\xbe\xc0u\xedks\xd5?'
p114
tp115
Rp116
ag50
(g54
S'\xa0!|\xe2\xd9\n\xe9?'
p117
tp118
Rp119
ag50
(g54
S'0&l\x975\xfe\xe9?'
p120
tp121
Rp122
ag50
(g54
S'd\xd9l\x08\xf7\x03\xe8?'
p123
tp124
Rp125
ag50
(g54
S'0&l\x975\xfe\xe9?'
p126
tp127
Rp128
ag50
(g54
S'yXx>\x11\x9b\xdc?'
p129
tp130
Rp131
ag50
(g54
S'\xbao\x07\xa4z\x06\xe6?'
p132
tp133
Rp134
ag50
(g54
S'\xbe\xc0u\xedks\xd5?'
p135
tp136
Rp137
ag50
(g54
S'\xa0!|\xe2\xd9\n\xe9?'
p138
tp139
Rp140
ag50
(g54
S'yXx>\x11\x9b\xdc?'
p141
tp142
Rp143
ag50
(g54
S'\xa0!|\xe2\xd9\n\xe9?'
p144
tp145
Rp146
ag50
(g54
S'\x9ct\xf5\x0b\x1c\x8a\xed?'
p147
tp148
Rp149
ag50
(g54
S'\x18\xec\xe2Lq\xd9\xec?'
p150
tp151
Rp152
ag50
(g54
S'\xbe\xc0u\xedks\xd5?'
p153
tp154
Rp155
ag50
(g54
S'4\x876\xb5\xc5E\xe8?'
p156
tp157
Rp158
ag50
(g54
S'yXx>\x11\x9b\xdc?'
p159
tp160
Rp161
ag50
(g54
S'\x91\xad}\r:\x9d\xe9?'
p162
tp163
Rp164
ag50
(g54
S'\xbe\xc0u\xedks\xd5?'
p165
tp166
Rp167
ag50
(g54
S'\xbao\x07\xa4z\x06\xe6?'
p168
tp169
Rp170
ag50
(g54
S'\xbe\xc0u\xedks\xd5?'
p171
tp172
Rp173
ag50
(g54
S'\xda\x08G\x96\xa7\xde\xe9?'
p174
tp175
Rp176
ag50
(g54
S'4\x876\xb5\xc5E\xe8?'
p177
tp178
Rp179
ag50
(g54
S'0&l\x975\xfe\xe9?'
p180
tp181
Rp182
ag50
(g54
S'yXx>\x11\x9b\xdc?'
p183
tp184
Rp185
ag50
(g54
S'\x98\xabt\xf5\xb7-\xe4?'
p186
tp187
Rp188
ag50
(g54
S'd\xd9l\x08\xf7\x03\xe8?'
p189
tp190
Rp191
ag50
(g54
S'\x9ct\xf5\x0b\x1c\x8a\xed?'
p192
tp193
Rp194
ag50
(g54
S'\x18\xec\xe2Lq\xd9\xec?'
p195
tp196
Rp197
ag50
(g54
S'\xbe\xc0u\xedks\xd5?'
p198
tp199
Rp200
ag50
(g54
S'\x98\xabt\xf5\xb7-\xe4?'
p201
tp202
Rp203
ag50
(g54
S'0&l\x975\xfe\xe9?'
p204
tp205
Rp206
ag50
(g54
S'yXx>\x11\x9b\xdc?'
p207
tp208
Rp209
ag50
(g54
S'\x98\xabt\xf5\xb7-\xe4?'
p210
tp211
Rp212
ag50
(g54
S'yXx>\x11\x9b\xdc?'
p213
tp214
Rp215
ag50
(g54
S'W8\xe4\xc3W\\\xdf?'
p216
tp217
Rp218
ag50
(g54
S'0&l\x975\xfe\xe9?'
p219
tp220
Rp221
ag50
(g54
S'\x9ct\xf5\x0b\x1c\x8a\xed?'
p222
tp223
Rp224
ag50
(g54
S'\xbe\xc0u\xedks\xd5?'
p225
tp226
Rp227
ag50
(g54
S'\x91\xad}\r:\x9d\xe9?'
p228
tp229
Rp230
ag50
(g54
S'\x91\xad}\r:\x9d\xe9?'
p231
tp232
Rp233
ag50
(g54
S'W8\xe4\xc3W\\\xdf?'
p234
tp235
Rp236
ag50
(g54
S'yXx>\x11\x9b\xdc?'
p237
tp238
Rp239
ag50
(g54
S'\xda\x08G\x96\xa7\xde\xe9?'
p240
tp241
Rp242
ag50
(g54
S'yXx>\x11\x9b\xdc?'
p243
tp244
Rp245
ag50
(g54
S'W8\xe4\xc3W\\\xdf?'
p246
tp247
Rp248
ag50
(g54
S'\x18\xec\xe2Lq\xd9\xec?'
p249
tp250
Rp251
ag50
(g54
S'jx\xe4\xb7\xc9\x86\xe5?'
p252
tp253
Rp254
ag50
(g54
S'\x18\xec\xe2Lq\xd9\xec?'
p255
tp256
Rp257
ag50
(g54
S'\xbe\xc0u\xedks\xd5?'
p258
tp259
Rp260
ag50
(g54
S'\xda\x08G\x96\xa7\xde\xe9?'
p261
tp262
Rp263
ag50
(g54
S'0&l\x975\xfe\xe9?'
p264
tp265
Rp266
ag50
(g54
S'yXx>\x11\x9b\xdc?'
p267
tp268
Rp269
ag50
(g54
S'\x91\xad}\r:\x9d\xe9?'
p270
tp271
Rp272
ag50
(g54
S'\xbe\xc0u\xedks\xd5?'
p273
tp274
Rp275
ag50
(g54
S'4\x876\xb5\xc5E\xe8?'
p276
tp277
Rp278
ag50
(g54
S'0&l\x975\xfe\xe9?'
p279
tp280
Rp281
ag50
(g54
S'0&l\x975\xfe\xe9?'
p282
tp283
Rp284
ag50
(g54
S'0&l\x975\xfe\xe9?'
p285
tp286
Rp287
ag50
(g54
S'yXx>\x11\x9b\xdc?'
p288
tp289
Rp290
ag50
(g54
S'\x91\xad}\r:\x9d\xe9?'
p291
tp292
Rp293
ag50
(g54
S'\xbe\xc0u\xedks\xd5?'
p294
tp295
Rp296
ag50
(g54
S'4\x876\xb5\xc5E\xe8?'
p297
tp298
Rp299
ag50
(g54
S'yXx>\x11\x9b\xdc?'
p300
tp301
Rp302
ag50
(g54
S'\x98\xabt\xf5\xb7-\xe4?'
p303
tp304
Rp305
ag50
(g54
S'yXx>\x11\x9b\xdc?'
p306
tp307
Rp308
ag50
(g54
S'@S\xe9l1W\xe9?'
p309
tp310
Rp311
ag50
(g54
S'\x18\xec\xe2Lq\xd9\xec?'
p312
tp313
Rp314
ag50
(g54
S'\x18\xec\xe2Lq\xd9\xec?'
p315
tp316
Rp317
ag50
(g54
S'jx\xe4\xb7\xc9\x86\xe5?'
p318
tp319
Rp320
ag50
(g54
S'\xbe\xc0u\xedks\xd5?'
p321
tp322
Rp323
ag50
(g54
S'4\x876\xb5\xc5E\xe8?'
p324
tp325
Rp326
ag50
(g54
S'0&l\x975\xfe\xe9?'
p327
tp328
Rp329
ag50
(g54
S'\x9ct\xf5\x0b\x1c\x8a\xed?'
p330
tp331
Rp332
ag50
(g54
S'm\xda\xe8\xffn\xd9\xe8?'
p333
tp334
Rp335
ag50
(g54
S'0&l\x975\xfe\xe9?'
p336
tp337
Rp338
ag50
(g54
S'\x9ct\xf5\x0b\x1c\x8a\xed?'
p339
tp340
Rp341
ag50
(g54
S'\xbe\xc0u\xedks\xd5?'
p342
tp343
Rp344
ag50
(g54
S'@S\xe9l1W\xe9?'
p345
tp346
Rp347
asS'sp'
p348
(lp349
(S'p0'
p350
I0
S'x'
p351
tp352
a(g350
I0
S'y'
p353
tp354
a(g350
I0
S't'
p355
tp356
a(g350
I0
g351
tp357
ag354
ag356
a(g350
I0
g355
tp358
a(g350
I0
g353
tp359
a(g350
I0
g353
tp360
ag356
ag358
ag357
ag352
ag354
ag356
ag359
ag360
a(g350
I0
g351
tp361
ag352
ag354
ag356
ag358
a(g350
I0
g355
tp362
ag358
ag359
ag361
ag354
ag356
ag359
ag356
ag357
ag352
ag354
a(S'p1'
p363
I0
g353
tp364
a(g363
I0
g351
tp365
a(g350
I0
g351
tp366
ag354
ag361
ag354
ag360
ag364
a(g363
I0
g353
tp367
ag365
a(g363
I0
g353
tp368
a(g363
I0
g353
tp369
a(g363
I0
g355
tp370
a(g363
I0
g355
tp371
a(g363
I0
g351
tp372
ag368
ag367
ag365
ag368
ag365
a(S'p2'
p373
I0
g351
tp374
a(g373
I0
g351
tp375
a(g373
I0
g353
tp376
a(g373
I0
g355
tp377
a(g373
I0
g355
tp378
ag378
a(g373
F1.5707963267948966
g355
tp379
a(g373
F1.5707963267948966
g353
tp380
a(g363
F1.5707963267948966
g353
tp381
a(g363
F1.5707963267948966
g351
tp382
a(g373
F1.5707963267948966
g351
tp383
a(g373
F1.5707963267948966
g351
tp384
a(g373
F1.5707963267948966
g351
tp385
ag384
a(g373
F1.5707963267948966
g353
tp386
ag381
a(g363
F1.5707963267948966
g353
tp387
ag382
a(g350
F1.5707963267948966
g351
tp388
a(g350
F1.5707963267948966
g353
tp389
a(g363
F1.5707963267948966
g353
tp390
ag387
ag387
ag387
ag382
ag388
ag389
ag390
ag382
a(g363
F1.5707963267948966
g353
tp391
ag382
ag383
ag384
ag384
ag385
ag386
a(S'p3'
p392
F1.5707963267948966
g353
tp393
a(g392
F1.5707963267948966
g353
tp394
a(g392
F1.5707963267948966
g355
tp395
a(g392
F1.5707963267948966
g353
tp396
ag394
ag395
a(g392
F1.5707963267948966
g351
tp397
a(S'p4'
p398
F1.5707963267948966
g351
tp399
asS's'
p400
(lp401
(g350
I0
g22
tp402
ag352
ag354
ag356
ag357
ag354
ag356
ag358
ag359
ag360
ag356
ag358
ag357
ag352
ag354
ag356
ag359
ag360
ag361
ag352
ag354
ag356
ag358
ag362
ag358
ag359
ag361
ag354
ag356
ag359
ag356
ag357
ag352
ag354
ag364
ag365
ag366
ag354
ag361
ag354
ag360
ag364
ag367
ag365
ag368
ag369
ag370
ag371
ag372
ag368
ag367
ag365
ag368
ag365
ag374
ag375
ag376
ag377
ag378
ag378
ag379
ag380
ag381
ag382
ag383
ag384
ag385
ag384
ag386
ag381
ag387
ag382
ag388
ag389
ag390
ag387
ag387
ag387
ag382
ag388
ag389
ag390
ag382
ag391
ag382
ag383
ag384
ag384
ag385
ag386
ag393
ag394
ag395
ag396
ag394
ag395
ag397
asS'ui'
p403
(lp404
S'ss'
p405
aS'hp'
p406
aS'hs'
p407
ag405
ag406
ag405
ag405
ag407
ag348
ag405
ag348
ag405
ag406
ag406
ag405
ag407
ag348
ag407
ag406
ag406
ag406
ag407
ag348
ag407
ag407
ag407
ag405
ag405
ag407
ag407
ag348
ag348
ag406
ag407
ag407
ag348
ag406
ag348
ag406
ag405
ag405
ag407
ag407
ag405
ag348
ag406
ag405
ag348
ag406
ag407
ag407
ag406
ag407
ag348
ag348
ag406
ag348
ag348
ag405
ag348
ag348
ag407
ag407
ag405
ag406
ag348
ag406
ag406
ag348
ag405
ag348
ag348
ag406
ag405
ag407
ag407
ag407
ag407
ag406
ag406
ag405
ag407
ag406
ag407
ag348
ag407
ag406
ag348
ag406
ag348
ag405
ag405
ag407
ag407
ag405
ag406
ag348
asS'um_before'
p408
(lp409
g405
ag406
ag406
ag406
ag406
ag406
ag405
ag407
ag348
ag406
ag405
ag406
ag405
ag406
ag406
ag407
ag348
ag407
ag405
ag406
ag406
ag405
ag348
ag405
ag407
ag407
ag406
ag406
ag407
ag406
ag406
ag405
ag406
ag405
ag407
ag405
ag406
ag407
ag406
ag348
ag405
ag405
ag407
ag406
ag348
ag406
ag405
ag406
ag406
ag405
ag407
ag406
ag407
ag348
ag405
ag406
ag406
ag405
ag405
ag348
ag407
ag348
ag407
ag348
ag405
ag348
ag405
ag406
ag348
ag405
ag407
ag405
ag406
ag405
ag405
ag405
ag405
ag407
ag405
ag406
ag405
ag407
ag406
ag407
ag407
ag405
ag405
ag348
ag406
ag405
ag405
ag406
ag407
ag405
ag406
ag406
ag407
asS'um_after'
p410
(lp411
g405
ag406
ag406
ag406
ag406
ag406
ag405
ag407
ag348
ag406
ag405
ag406
ag405
ag406
ag406
ag407
ag348
ag407
ag405
ag406
ag406
ag405
ag348
ag405
ag407
ag407
ag406
ag406
ag407
ag406
ag406
ag405
ag406
ag405
ag407
ag405
ag406
ag407
ag406
ag348
ag405
ag405
ag407
ag406
ag348
ag406
ag405
ag406
ag406
ag405
ag407
ag406
ag407
ag348
ag405
ag406
ag406
ag405
ag405
ag348
ag407
ag348
ag407
ag348
ag405
ag348
ag405
ag406
ag348
ag405
ag407
ag405
ag406
ag405
ag405
ag405
ag405
ag407
ag405
ag406
ag405
ag407
ag406
ag407
ag348
ag405
ag405
ag348
ag406
ag405
ag405
ag406
ag407
ag405
ag406
ag406
ag348
asS'is_normalized_entropy_less_than_threshold'
p412
(lp413
g50
(g51
(S'b1'
p414
I0
I1
tp415
Rp416
(I3
S'|'
p417
NNNI-1
I-1
I0
tp418
bS'\x00'
p419
tp420
Rp421
ag50
(g416
S'\x01'
p422
tp423
Rp424
ag424
ag421
ag424
ag424
ag424
ag424
ag424
ag424
ag424
ag421
ag421
ag424
ag424
ag424
ag424
ag424
ag421
ag424
ag424
ag424
ag424
ag424
ag424
ag424
ag424
ag424
ag424
ag424
ag421
ag421
ag424
ag424
ag424
ag424
ag424
ag424
ag424
ag424
ag424
ag424
ag424
ag424
ag424
ag421
ag421
ag424
ag424
ag424
ag424
ag424
ag424
ag424
ag424
ag421
ag424
ag424
ag424
ag424
ag424
ag424
ag424
ag424
ag421
ag424
ag421
ag424
ag424
ag424
ag424
ag424
ag424
ag424
ag424
ag424
ag424
ag424
ag424
ag424
ag424
ag424
ag424
ag424
ag424
ag421
ag421
ag424
ag424
ag424
ag424
ag421
ag424
ag424
ag421
ag424
ag424
asaa(lp425
S'index'
p426
aI112749
aatp427
Rp428
.