ccollections
OrderedDict
p0
((lp1
(lp2
S'combination_dict'
p3
ag0
((lp4
(lp5
S'r_to_g_config'
p6
aS'tr'
p7
aa(lp8
S'num_turns'
p9
aI3
aa(lp10
S'start_direction'
p11
acutils_ms
StartDirection
p12
(I0
tp13
Rp14
aa(lp15
S'assistance_type'
p16
acutils_ms
AssistanceType
p17
(I0
tp18
Rp19
aa(lp20
S'start_mode'
p21
aS'y'
p22
aa(lp23
S'ui_given_a_noise'
p24
aF0.5
aa(lp25
S'um_given_ui_noise'
p26
aF0.1
aa(lp27
S'entropy_threshold'
p28
aF0.5
aatp29
Rp30
aa(lp31
S'data'
p32
accollections
defaultdict
p33
(c__builtin__
list
p34
tp35
Rp36
S'a'
p37
(lp38
S'mode_l'
p39
aS'mode_r'
p40
ag40
aS'move_p'
p41
ag41
ag40
ag40
ag39
ag41
ag40
ag41
ag40
ag39
ag40
ag41
ag40
ag41
ag39
ag41
ag40
ag40
ag40
ag40
ag41
asS'assistance_match_with_ground_truth'
p42
(lp43
I00
aI00
aI01
aI00
aI01
aI00
aI00
aI01
aI01
aI01
aI01
aI00
aI00
aI01
aI01
aI01
aI00
aI01
aI01
aI00
aI00
aI00
aI01
aI01
asS'is_u_intended_equals_um'
p44
(lp45
I01
aI01
aI01
aI01
aI01
aI01
aI01
aI01
aI01
aI01
aI01
aI01
aI01
aI01
aI01
aI01
aI01
aI01
aI01
aI01
aI01
aI01
aI01
aI01
asS'total_steps'
p46
I24
sS'normalized_h_of_p_ui_given_um'
p47
(lp48
cnumpy.core.multiarray
scalar
p49
(cnumpy
dtype
p50
(S'f8'
p51
I0
I1
tp52
Rp53
(I3
S'<'
p54
NNNI-1
I-1
I0
tp55
bS'\xbe\x1a\x85\xbe^X\xe4?'
p56
tp57
Rp58
ag49
(g53
S' \x81\x83\x9b\xde\xed\xde?'
p59
tp60
Rp61
ag49
(g53
S'Z\x9biO\x7f\xa2\xbb?'
p62
tp63
Rp64
ag49
(g53
S'\x0b\x9b>\xc4[t\xd7?'
p65
tp66
Rp67
ag49
(g53
S'\x00\x13\x02C?m\xba?'
p68
tp69
Rp70
ag49
(g53
S' \x81\x83\x9b\xde\xed\xde?'
p71
tp72
Rp73
ag49
(g53
S'\xa8\xb4j\xad\x02I\xe4?'
p74
tp75
Rp76
ag49
(g53
S'\x83\xd0\x027\x0e_\xc5?'
p77
tp78
Rp79
ag49
(g53
S'\x00\x13\x02C?m\xba?'
p80
tp81
Rp82
ag49
(g53
S'Z\x9biO\x7f\xa2\xbb?'
p83
tp84
Rp85
ag49
(g53
S'\x00\x13\x02C?m\xba?'
p86
tp87
Rp88
ag49
(g53
S'\xa8\xb4j\xad\x02I\xe4?'
p89
tp90
Rp91
ag49
(g53
S'\xbe\x1a\x85\xbe^X\xe4?'
p92
tp93
Rp94
ag49
(g53
S'Z\x9biO\x7f\xa2\xbb?'
p95
tp96
Rp97
ag49
(g53
S'\x00\x13\x02C?m\xba?'
p98
tp99
Rp100
ag49
(g53
S'Z\x9biO\x7f\xa2\xbb?'
p101
tp102
Rp103
ag49
(g53
S'\x0b\x9b>\xc4[t\xd7?'
p104
tp105
Rp106
ag49
(g53
S'\x83\xd0\x027\x0e_\xc5?'
p107
tp108
Rp109
ag49
(g53
S'\x00\x13\x02C?m\xba?'
p110
tp111
Rp112
ag49
(g53
S"&\x99\xa3\x1b'\xbd\xe0?"
p113
tp114
Rp115
ag49
(g53
S"&\x99\xa3\x1b'\xbd\xe0?"
p116
tp117
Rp118
ag49
(g53
S"&\x99\xa3\x1b'\xbd\xe0?"
p119
tp120
Rp121
ag49
(g53
S'Z\x9biO\x7f\xa2\xbb?'
p122
tp123
Rp124
ag49
(g53
S'\x00\x13\x02C?m\xba?'
p125
tp126
Rp127
asS'sp'
p128
(lp129
(S'p0'
p130
I0
S't'
p131
tp132
a(g130
I0
g131
tp133
a(g130
I0
S'x'
p134
tp135
a(g130
I0
g134
tp136
a(S'p1'
p137
I0
g134
tp138
a(g137
I0
g134
tp139
a(g137
I0
g131
tp140
a(g137
I0
S'y'
p141
tp142
a(S'p2'
p143
I0
g141
tp144
a(g143
I0
g131
tp145
a(g143
F1.5707963267948966
g131
tp146
a(g143
F1.5707963267948966
g141
tp147
a(g143
F1.5707963267948966
g131
tp148
a(g143
F1.5707963267948966
g134
tp149
a(S'p3'
p150
F1.5707963267948966
g134
tp151
a(g150
F1.5707963267948966
g141
tp152
a(g143
F1.5707963267948966
g141
tp153
a(g143
F1.5707963267948966
g134
tp154
ag151
a(g150
F1.5707963267948966
g134
tp155
ag155
ag155
ag152
a(S'p4'
p156
F1.5707963267948966
g141
tp157
asS's'
p158
(lp159
(g130
I0
g22
tp160
ag132
ag133
ag135
ag136
ag138
ag139
ag140
ag142
ag144
ag145
ag146
ag147
ag148
ag149
ag151
ag152
ag153
ag154
ag151
ag155
ag155
ag155
ag152
asS'ui'
p161
(lp162
S'hp'
p163
ag128
ag163
aS'ss'
p164
ag128
ag164
ag128
aS'hs'
p165
ag128
ag163
ag128
ag164
ag165
ag163
ag128
ag163
ag164
ag165
ag128
ag128
ag128
ag163
ag163
ag128
asS'um_before'
p166
(lp167
g163
ag164
ag163
ag164
ag128
ag164
ag165
ag165
ag128
ag163
ag128
ag165
ag163
ag163
ag128
ag163
ag164
ag165
ag128
ag128
ag128
ag128
ag163
ag128
asS'um_after'
p168
(lp169
g163
ag164
ag163
ag164
ag128
ag164
ag165
ag165
ag128
ag163
ag128
ag165
ag163
ag163
ag128
ag163
ag164
ag165
ag128
ag128
ag128
ag128
ag163
ag128
asS'is_normalized_entropy_less_than_threshold'
p170
(lp171
g49
(g50
(S'b1'
p172
I0
I1
tp173
Rp174
(I3
S'|'
p175
NNNI-1
I-1
I0
tp176
bS'\x00'
p177
tp178
Rp179
ag49
(g174
S'\x01'
p180
tp181
Rp182
ag182
ag182
ag182
ag182
ag179
ag182
ag182
ag182
ag182
ag179
ag179
ag182
ag182
ag182
ag182
ag182
ag182
ag179
ag179
ag179
ag182
ag182
asaa(lp183
S'index'
p184
aI20404
aatp185
Rp186
.