ccollections
OrderedDict
p0
((lp1
(lp2
S'combination_dict'
p3
ag0
((lp4
(lp5
S'r_to_g_config'
p6
aS'br'
p7
aa(lp8
S'num_turns'
p9
aI2
aa(lp10
S'start_direction'
p11
acutils_ms
StartDirection
p12
(I0
tp13
Rp14
aa(lp15
S'assistance_type'
p16
acutils_ms
AssistanceType
p17
(I0
tp18
Rp19
aa(lp20
S'start_mode'
p21
aS'y'
p22
aa(lp23
S'ui_given_a_noise'
p24
aF0.7
aa(lp25
S'um_given_ui_noise'
p26
aF0.1
aa(lp27
S'entropy_threshold'
p28
aF0.8
aatp29
Rp30
aa(lp31
S'data'
p32
accollections
defaultdict
p33
(c__builtin__
list
p34
tp35
Rp36
S'a'
p37
(lp38
S'mode_l'
p39
aS'move_p'
p40
ag39
ag40
aS'mode_r'
p41
ag40
ag39
ag41
aS'move_n'
p42
ag39
ag40
ag40
ag41
ag40
ag41
ag41
ag41
ag40
ag41
ag42
ag39
ag42
ag39
ag40
ag41
ag42
ag41
ag42
ag39
ag40
ag41
ag40
ag39
ag40
asS'assistance_match_with_ground_truth'
p43
(lp44
I01
aI01
aI01
aI00
aI01
aI01
aI00
aI01
aI00
aI01
aI00
aI00
aI01
aI00
aI00
aI00
aI01
aI01
aI01
aI00
aI01
aI01
aI01
aI00
aI01
aI00
aI01
aI01
aI01
aI00
aI01
aI00
aI01
aI01
asS'is_u_intended_equals_um'
p45
(lp46
I01
aI01
aI01
aI01
aI01
aI01
aI01
aI01
aI01
aI01
aI01
aI01
aI01
aI01
aI01
aI01
aI01
aI01
aI01
aI01
aI01
aI01
aI01
aI01
aI01
aI01
aI01
aI01
aI01
aI01
aI01
aI01
aI01
aI01
asS'total_steps'
p47
I34
sS'normalized_h_of_p_ui_given_um'
p48
(lp49
cnumpy.core.multiarray
scalar
p50
(cnumpy
dtype
p51
(S'f8'
p52
I0
I1
tp53
Rp54
(I3
S'<'
p55
NNNI-1
I-1
I0
tp56
bS'P/u/\xb4\xb7\xa9?'
p57
tp58
Rp59
ag50
(g54
S'VPY=\xaf\xb0\xc5?'
p60
tp61
Rp62
ag50
(g54
S'P/u/\xb4\xb7\xa9?'
p63
tp64
Rp65
ag50
(g54
S'\x06\xe1\xd7\x95\xb9\x85\xdc?'
p66
tp67
Rp68
ag50
(g54
S'z\x9f|\x19\xba\xb8\xbe?'
p69
tp70
Rp71
ag50
(g54
S'VPY=\xaf\xb0\xc5?'
p72
tp73
Rp74
ag50
(g54
S'N\xd9\xac"\x0f;\xd2?'
p75
tp76
Rp77
ag50
(g54
S'z\x9f|\x19\xba\xb8\xbe?'
p78
tp79
Rp80
ag50
(g54
S'\xa4Y\xe9\x01Q\x97\xe3?'
p81
tp82
Rp83
ag50
(g54
S'P/u/\xb4\xb7\xa9?'
p84
tp85
Rp86
ag50
(g54
S'\x04[]\x9f\x9d\xbb\xd6?'
p87
tp88
Rp89
ag50
(g54
S'\x06\xe1\xd7\x95\xb9\x85\xdc?'
p90
tp91
Rp92
ag50
(g54
S'z\x9f|\x19\xba\xb8\xbe?'
p93
tp94
Rp95
ag50
(g54
S'\x06\xe1\xd7\x95\xb9\x85\xdc?'
p96
tp97
Rp98
ag50
(g54
S'\xaa\xbf\xa6\xff\x9f\xc2\xdc?'
p99
tp100
Rp101
ag50
(g54
S'\xaa\xbf\xa6\xff\x9f\xc2\xdc?'
p102
tp103
Rp104
ag50
(g54
S'z\x9f|\x19\xba\xb8\xbe?'
p105
tp106
Rp107
ag50
(g54
S'VPY=\xaf\xb0\xc5?'
p108
tp109
Rp110
ag50
(g54
S'z\x9f|\x19\xba\xb8\xbe?'
p111
tp112
Rp113
ag50
(g54
S'\x9c9DL\x87\xe8\xd3?'
p114
tp115
Rp116
ag50
(g54
S'P/u/\xb4\xb7\xa9?'
p117
tp118
Rp119
ag50
(g54
S'\x0em\x1e\x9e\xe8"\xc2?'
p120
tp121
Rp122
ag50
(g54
S'P/u/\xb4\xb7\xa9?'
p123
tp124
Rp125
ag50
(g54
S'\x04[]\x9f\x9d\xbb\xd6?'
p126
tp127
Rp128
ag50
(g54
S'z\x9f|\x19\xba\xb8\xbe?'
p129
tp130
Rp131
ag50
(g54
S'~ \x86B\x071\xe2?'
p132
tp133
Rp134
ag50
(g54
S'z\x9f|\x19\xba\xb8\xbe?'
p135
tp136
Rp137
ag50
(g54
S'\x0em\x1e\x9e\xe8"\xc2?'
p138
tp139
Rp140
ag50
(g54
S'P/u/\xb4\xb7\xa9?'
p141
tp142
Rp143
ag50
(g54
S'\x06\xe1\xd7\x95\xb9\x85\xdc?'
p144
tp145
Rp146
ag50
(g54
S'z\x9f|\x19\xba\xb8\xbe?'
p147
tp148
Rp149
ag50
(g54
S'\x8b\xd7\xd4\t\xc1A\xda?'
p150
tp151
Rp152
ag50
(g54
S'P/u/\xb4\xb7\xa9?'
p153
tp154
Rp155
ag50
(g54
S'VPY=\xaf\xb0\xc5?'
p156
tp157
Rp158
asS'sp'
p159
(lp160
(S'p0'
p161
I0
S'x'
p162
tp163
a(S'p1'
p164
I0
g162
tp165
a(g164
I0
S't'
p166
tp167
a(g164
I0
S'y'
p168
tp169
a(g164
I0
g166
tp170
a(g164
F1.5707963267948966
g166
tp171
a(g164
F1.5707963267948966
g162
tp172
a(g164
F1.5707963267948966
g168
tp173
a(g161
F1.5707963267948966
g168
tp174
a(g161
F1.5707963267948966
g162
tp175
a(g161
F1.5707963267948966
g162
tp176
a(g161
F1.5707963267948966
g166
tp177
a(g161
F1.5707963267948966
g162
tp178
ag177
a(g161
F1.5707963267948966
g166
tp179
ag179
ag178
a(g164
F1.5707963267948966
g162
tp180
ag173
a(g164
F1.5707963267948966
g166
tp181
a(g164
F1.5707963267948966
g168
tp182
a(S'p2'
p183
F1.5707963267948966
g168
tp184
a(g183
F1.5707963267948966
g162
tp185
a(g164
F1.5707963267948966
g162
tp186
ag173
a(g164
F1.5707963267948966
g162
tp187
ag173
ag184
ag185
a(g183
F1.5707963267948966
g166
tp188
a(g183
F1.5707963267948966
g162
tp189
a(g183
F1.5707963267948966
g168
tp190
ag185
a(S'p3'
p191
F1.5707963267948966
g162
tp192
asS's'
p193
(lp194
(g161
I0
g22
tp195
ag163
ag165
ag167
ag169
ag170
ag171
ag172
ag173
ag174
ag175
ag176
ag177
ag178
ag177
ag179
ag179
ag178
ag180
ag173
ag181
ag182
ag184
ag185
ag186
ag173
ag187
ag173
ag184
ag185
ag188
ag189
ag190
ag185
asS'ui'
p196
(lp197
S'hs'
p198
ag159
ag198
ag198
aS'hp'
p199
ag159
ag199
ag198
aS'ss'
p200
ag198
ag200
ag198
ag199
ag159
ag200
ag200
ag199
ag159
ag199
ag199
ag198
ag200
ag198
ag200
ag199
ag198
ag199
ag200
ag198
ag198
ag199
ag199
ag198
ag159
asS'um_before'
p201
(lp202
g198
ag159
ag198
ag198
ag199
ag159
ag199
ag199
ag159
ag198
ag200
ag198
ag199
ag198
ag200
ag200
ag199
ag159
ag199
ag199
ag198
ag200
ag198
ag200
ag199
ag198
ag199
ag200
ag198
ag198
ag199
ag199
ag198
ag159
asS'um_after'
p203
(lp204
g198
ag159
ag198
ag198
ag199
ag159
ag199
ag199
ag159
ag198
ag200
ag198
ag199
ag198
ag200
ag200
ag199
ag159
ag199
ag199
ag198
ag200
ag198
ag200
ag199
ag198
ag199
ag200
ag198
ag198
ag199
ag199
ag198
ag159
asS'is_normalized_entropy_less_than_threshold'
p205
(lp206
g50
(g51
(S'b1'
p207
I0
I1
tp208
Rp209
(I3
S'|'
p210
NNNI-1
I-1
I0
tp211
bS'\x01'
p212
tp213
Rp214
ag214
ag214
ag214
ag214
ag214
ag214
ag214
ag214
ag214
ag214
ag214
ag214
ag214
ag214
ag214
ag214
ag214
ag214
ag214
ag214
ag214
ag214
ag214
ag214
ag214
ag214
ag214
ag214
ag214
ag214
ag214
ag214
ag214
asaa(lp215
S'index'
p216
aI97435
aatp217
Rp218
.