ccollections
OrderedDict
p0
((lp1
(lp2
S'combination_dict'
p3
ag0
((lp4
(lp5
S'r_to_g_config'
p6
aS'tl'
p7
aa(lp8
S'num_turns'
p9
aI3
aa(lp10
S'start_direction'
p11
acutils_ms
StartDirection
p12
(I0
tp13
Rp14
aa(lp15
S'assistance_type'
p16
acutils_ms
AssistanceType
p17
(I2
tp18
Rp19
aa(lp20
S'start_mode'
p21
aS'y'
p22
aa(lp23
S'ui_given_a_noise'
p24
aF0.3
aa(lp25
S'um_given_ui_noise'
p26
aF0.7
aa(lp27
S'entropy_threshold'
p28
aF0.5
aatp29
Rp30
aa(lp31
S'data'
p32
accollections
defaultdict
p33
(c__builtin__
list
p34
tp35
Rp36
S'a'
p37
(lp38
S'mode_l'
p39
aS'move_n'
p40
aS'mode_r'
p41
ag41
ag41
ag40
ag39
ag40
ag40
ag39
ag39
ag41
ag39
ag39
ag40
ag39
ag41
ag39
ag41
ag41
ag39
ag39
ag39
ag40
ag39
ag39
ag41
aS'move_p'
p42
ag39
ag42
ag39
ag42
ag39
ag40
ag40
ag40
ag41
ag39
ag39
ag39
ag42
ag39
ag42
ag39
ag39
ag40
ag41
ag41
ag41
ag41
ag42
ag39
ag42
asS'assistance_match_with_ground_truth'
p43
(lp44
I01
aI00
aI00
aI00
aI01
aI00
aI01
aI00
aI01
aI00
aI00
aI00
aI00
aI01
aI01
aI00
aI00
aI00
aI00
aI00
aI00
aI00
aI01
aI01
aI00
aI00
aI01
aI00
aI01
aI01
aI01
aI00
aI01
aI00
aI00
aI01
aI00
aI00
aI00
aI01
aI00
aI01
aI01
aI00
aI01
aI01
aI00
aI00
aI00
aI01
aI00
aI01
aI01
asS'is_u_intended_equals_um'
p45
(lp46
I00
aI00
aI00
aI00
aI00
aI00
aI00
aI00
aI00
aI00
aI00
aI00
aI00
aI00
aI00
aI00
aI00
aI00
aI00
aI00
aI00
aI00
aI00
aI00
aI00
aI00
aI00
aI00
aI00
aI00
aI00
aI00
aI00
aI00
aI00
aI00
aI00
aI00
aI00
aI00
aI00
aI00
aI00
aI00
aI00
aI00
aI00
aI00
aI00
aI00
aI00
aI00
aI00
asS'total_steps'
p47
I53
sS'normalized_h_of_p_ui_given_um'
p48
(lp49
cnumpy.core.multiarray
scalar
p50
(cnumpy
dtype
p51
(S'f8'
p52
I0
I1
tp53
Rp54
(I3
S'<'
p55
NNNI-1
I-1
I0
tp56
bS'a\xa3\x8e\xb0\xda\xdb\xe9?'
p57
tp58
Rp59
ag59
ag59
ag59
ag59
ag59
ag59
ag59
ag59
ag59
ag59
ag59
ag59
ag59
ag59
ag59
ag59
ag59
ag59
ag59
ag59
ag59
ag59
ag59
ag59
ag59
ag59
ag59
ag59
ag59
ag59
ag59
ag59
ag59
ag59
ag59
ag59
ag59
ag59
ag59
ag59
ag59
ag59
ag59
ag59
ag59
ag59
ag59
ag59
ag59
ag59
ag59
ag59
asS'sp'
p60
(lp61
(S'p0'
p62
I0
S'x'
p63
tp64
a(g62
I0
S't'
p65
tp66
a(g62
I0
g65
tp67
ag67
a(g62
I0
g63
tp68
a(g62
I0
S'y'
p69
tp70
ag64
a(g62
I0
g63
tp71
a(S'p1'
p72
I0
g63
tp73
a(g72
I0
g63
tp74
a(g72
I0
g69
tp75
a(g62
I0
g69
tp76
a(g62
I0
g69
tp77
ag64
ag73
ag75
ag76
a(g62
I0
g65
tp78
ag67
a(g62
I0
g69
tp79
a(g62
I0
g69
tp80
ag77
ag64
ag73
a(g72
I0
g63
tp81
ag75
a(g72
I0
g65
tp82
a(g72
I0
g63
tp83
a(g72
I0
g65
tp84
a(g72
F1.5707963267948966
g65
tp85
a(g72
F1.5707963267948966
g69
tp86
a(g62
F1.5707963267948966
g69
tp87
a(g62
F1.5707963267948966
g63
tp88
a(g62
F1.5707963267948966
g63
tp89
ag89
a(g72
F1.5707963267948966
g63
tp90
a(g72
F1.5707963267948966
g65
tp91
a(g72
F1.5707963267948966
g65
tp92
ag92
ag86
a(g72
F1.5707963267948966
g65
tp93
ag86
a(S'p2'
p94
F1.5707963267948966
g69
tp95
a(g94
F1.5707963267948966
g69
tp96
a(g94
F1.5707963267948966
g63
tp97
a(S'p3'
p98
F1.5707963267948966
g63
tp99
a(g98
F1.5707963267948966
g63
tp100
a(g98
F1.5707963267948966
g63
tp101
ag101
a(g98
F1.5707963267948966
g69
tp102
a(g98
F1.5707963267948966
g65
tp103
a(g98
F1.5707963267948966
g69
tp104
a(S'p4'
p105
F1.5707963267948966
g69
tp106
asS's'
p107
(lp108
(g62
I0
g22
tp109
ag64
ag66
ag67
ag67
ag68
ag70
ag64
ag71
ag73
ag74
ag75
ag76
ag77
ag64
ag73
ag75
ag76
ag78
ag67
ag79
ag80
ag77
ag64
ag73
ag81
ag75
ag82
ag83
ag84
ag85
ag86
ag87
ag88
ag89
ag89
ag90
ag91
ag92
ag92
ag86
ag93
ag86
ag95
ag96
ag97
ag99
ag100
ag101
ag101
ag102
ag103
ag104
asS'ui'
p110
(lp111
S'hs'
p112
ag112
aS'hp'
p113
ag113
ag113
aS'ss'
p114
ag112
ag112
ag114
ag112
ag60
ag113
ag114
ag112
ag114
ag114
ag113
ag113
ag113
ag113
ag114
ag113
ag112
ag114
ag114
ag114
ag114
ag60
ag112
ag60
ag112
ag60
ag112
ag114
ag60
ag114
ag60
ag60
ag114
ag112
ag60
ag112
ag60
ag60
ag112
ag114
ag60
ag113
ag114
ag113
ag60
ag112
ag60
asS'um_before'
p115
(lp116
g112
ag112
ag114
ag114
ag113
ag113
ag112
ag60
ag114
ag60
ag113
ag114
ag114
ag112
ag114
ag113
ag114
ag113
ag114
ag112
ag60
ag114
ag112
ag114
ag114
ag113
ag113
ag113
ag112
ag60
ag112
ag114
ag112
ag60
ag60
ag114
ag112
ag60
ag60
ag112
ag113
ag112
ag60
ag114
ag112
ag114
ag60
ag114
ag114
ag113
ag113
ag112
ag60
asS'um_after'
p117
(lp118
g112
ag112
ag114
ag114
ag113
ag113
ag112
ag60
ag114
ag60
ag113
ag114
ag114
ag112
ag114
ag113
ag114
ag113
ag114
ag112
ag60
ag114
ag112
ag114
ag114
ag113
ag113
ag113
ag112
ag60
ag112
ag114
ag112
ag60
ag60
ag114
ag112
ag60
ag60
ag112
ag113
ag112
ag60
ag114
ag112
ag114
ag60
ag114
ag114
ag113
ag113
ag112
ag60
asS'is_normalized_entropy_less_than_threshold'
p119
(lp120
g50
(g51
(S'b1'
p121
I0
I1
tp122
Rp123
(I3
S'|'
p124
NNNI-1
I-1
I0
tp125
bS'\x01'
p126
tp127
Rp128
ag128
ag128
ag128
ag128
ag128
ag128
ag128
ag128
ag128
ag128
ag128
ag128
ag128
ag128
ag128
ag128
ag128
ag128
ag128
ag128
ag128
ag128
ag128
ag128
ag128
ag128
ag128
ag128
ag128
ag128
ag128
ag128
ag128
ag128
ag128
ag128
ag128
ag128
ag128
ag128
ag128
ag128
ag128
ag128
ag128
ag128
ag128
ag128
ag128
ag128
ag128
ag128
asaa(lp129
S'index'
p130
aI52350
aatp131
Rp132
.