ccollections
OrderedDict
p0
((lp1
(lp2
S'combination_dict'
p3
ag0
((lp4
(lp5
S'r_to_g_config'
p6
aS'br'
p7
aa(lp8
S'num_turns'
p9
aI2
aa(lp10
S'start_direction'
p11
acutils_ms
StartDirection
p12
(I0
tp13
Rp14
aa(lp15
S'assistance_type'
p16
acutils_ms
AssistanceType
p17
(I0
tp18
Rp19
aa(lp20
S'start_mode'
p21
aS't'
p22
aa(lp23
S'ui_given_a_noise'
p24
aF0.5
aa(lp25
S'um_given_ui_noise'
p26
aF0.5
aa(lp27
S'entropy_threshold'
p28
aF0.6
aatp29
Rp30
aa(lp31
S'data'
p32
accollections
defaultdict
p33
(c__builtin__
list
p34
tp35
Rp36
S'a'
p37
(lp38
S'mode_r'
p39
aS'move_p'
p40
ag40
ag39
aS'mode_l'
p41
ag41
aS'move_n'
p42
ag41
ag40
ag39
ag39
ag39
ag39
ag42
ag39
ag41
ag42
ag39
ag40
ag39
ag40
ag39
ag40
ag39
ag40
ag41
ag41
ag41
ag40
asS'assistance_match_with_ground_truth'
p43
(lp44
I01
aI00
aI01
aI00
aI00
aI01
aI00
aI01
aI01
aI00
aI00
aI00
aI01
aI00
aI00
aI01
aI01
aI01
aI01
aI00
aI00
aI01
aI01
aI01
aI00
aI00
aI00
aI01
aI01
asS'is_u_intended_equals_um'
p45
(lp46
I01
aI01
aI01
aI01
aI01
aI01
aI01
aI01
aI01
aI00
aI00
aI01
aI01
aI01
aI01
aI01
aI01
aI01
aI01
aI00
aI00
aI01
aI01
aI01
aI01
aI01
aI01
aI01
aI01
asS'total_steps'
p47
I29
sS'normalized_h_of_p_ui_given_um'
p48
(lp49
cnumpy.core.multiarray
scalar
p50
(cnumpy
dtype
p51
(S'f8'
p52
I0
I1
tp53
Rp54
(I3
S'<'
p55
NNNI-1
I-1
I0
tp56
bS'\xf2z\xc0L\x8ep\xd5?'
p57
tp58
Rp59
ag50
(g54
S'$\x06R\x14\xa8%\xea?'
p60
tp61
Rp62
ag50
(g54
S'1\xa9dB\xc2\xe0\xd2?'
p63
tp64
Rp65
ag50
(g54
S'\x9fA\xfbO\x9a\xb9\xe3?'
p66
tp67
Rp68
ag50
(g54
S'\xf4=]\x11\xf6#\xec?'
p69
tp70
Rp71
ag50
(g54
S'\xcd\r\x88#y\xec\xcb?'
p72
tp73
Rp74
ag50
(g54
S'O\xb9\x90\xf7\nn\xe5?'
p75
tp76
Rp77
ag50
(g54
S'\xcd\r\x88#y\xec\xcb?'
p78
tp79
Rp80
ag50
(g54
S'1\xa9dB\xc2\xe0\xd2?'
p81
tp82
Rp83
ag50
(g54
S'l\x9ch\xb0)\x8a\xe8?'
p84
tp85
Rp86
ag50
(g54
S'l\x9ch\xb0)\x8a\xe8?'
p87
tp88
Rp89
ag50
(g54
S'&\xda\xcejS\xd3\xe6?'
p90
tp91
Rp92
ag50
(g54
S'\xf2z\xc0L\x8ep\xd5?'
p93
tp94
Rp95
ag50
(g54
S'\xfc<\x1f\xe6\xa6r\xed?'
p96
tp97
Rp98
ag50
(g54
S'\x9fA\xfbO\x9a\xb9\xe3?'
p99
tp100
Rp101
ag50
(g54
S'\xcd\r\x88#y\xec\xcb?'
p102
tp103
Rp104
ag50
(g54
S'\x84\xf8u\x9f\x9c\xff\xd8?'
p105
tp106
Rp107
ag50
(g54
S'\xf2z\xc0L\x8ep\xd5?'
p108
tp109
Rp110
ag50
(g54
S'1\xa9dB\xc2\xe0\xd2?'
p111
tp112
Rp113
ag50
(g54
S'l\x9ch\xb0)\x8a\xe8?'
p114
tp115
Rp116
ag50
(g54
S'0M\xe2\xab~/\xe6?'
p117
tp118
Rp119
ag50
(g54
S'\xf2z\xc0L\x8ep\xd5?'
p120
tp121
Rp122
ag50
(g54
S'1\xa9dB\xc2\xe0\xd2?'
p123
tp124
Rp125
ag50
(g54
S'\xf2z\xc0L\x8ep\xd5?'
p126
tp127
Rp128
ag50
(g54
S'\xfb\x01\xddV0\x18\xe7?'
p129
tp130
Rp131
ag50
(g54
S'\xe7\xa7:\xb0\xfd\xb0\xeb?'
p132
tp133
Rp134
ag50
(g54
S'\xf4=]\x11\xf6#\xec?'
p135
tp136
Rp137
ag50
(g54
S'\xcd\r\x88#y\xec\xcb?'
p138
tp139
Rp140
ag50
(g54
S'1\xa9dB\xc2\xe0\xd2?'
p141
tp142
Rp143
asS'sp'
p144
(lp145
(S'p0'
p146
I0
S'x'
p147
tp148
a(g146
I0
g147
tp149
a(S'p1'
p150
I0
g147
tp151
a(g150
I0
S't'
p152
tp153
a(g150
I0
g152
tp154
a(g150
I0
S'y'
p155
tp156
a(g146
I0
g155
tp157
a(g146
I0
g147
tp158
ag151
a(g150
I0
g147
tp159
ag159
a(g150
I0
g147
tp160
a(g150
I0
g155
tp161
a(g150
I0
g147
tp162
ag153
ag156
a(S'p2'
p163
I0
g155
tp164
a(g163
I0
g152
tp165
a(g163
F1.5707963267948966
g152
tp166
a(g163
I0
g152
tp167
a(g163
I0
g155
tp168
ag165
ag166
a(g163
F1.5707963267948966
g147
tp169
a(g163
F1.5707963267948966
g155
tp170
a(g163
F1.5707963267948966
g155
tp171
a(g163
F1.5707963267948966
g155
tp172
a(g163
F1.5707963267948966
g147
tp173
a(S'p3'
p174
F1.5707963267948966
g147
tp175
asS's'
p176
(lp177
(g146
I0
g22
tp178
ag148
ag149
ag151
ag153
ag154
ag156
ag157
ag158
ag151
ag159
ag159
ag160
ag161
ag162
ag153
ag156
ag164
ag165
ag166
ag167
ag168
ag165
ag166
ag169
ag170
ag171
ag172
ag173
asS'ui'
p179
(lp180
S'hp'
p181
aS'ss'
p182
ag144
aS'hs'
p183
ag182
ag183
ag182
ag183
ag144
ag182
ag181
ag144
ag181
ag183
ag183
ag183
ag182
ag181
ag144
ag181
ag183
ag181
ag144
ag183
ag181
ag183
ag144
ag183
ag183
asS'um_before'
p184
(lp185
g181
ag182
ag144
ag183
ag182
ag183
ag144
ag183
ag144
ag182
ag182
ag144
ag181
ag183
ag183
ag183
ag182
ag181
ag144
ag182
ag183
ag181
ag144
ag181
ag181
ag144
ag182
ag183
ag144
asS'um_after'
p186
(lp187
g181
ag182
ag144
ag183
ag182
ag183
ag144
ag183
ag144
ag182
ag182
ag144
ag181
ag183
ag183
ag183
ag182
ag181
ag144
ag182
ag183
ag181
ag144
ag181
ag181
ag144
ag182
ag183
ag144
asS'is_normalized_entropy_less_than_threshold'
p188
(lp189
g50
(g51
(S'b1'
p190
I0
I1
tp191
Rp192
(I3
S'|'
p193
NNNI-1
I-1
I0
tp194
bS'\x01'
p195
tp196
Rp197
ag50
(g192
S'\x00'
p198
tp199
Rp200
ag197
ag200
ag200
ag197
ag200
ag197
ag197
ag200
ag200
ag200
ag197
ag200
ag200
ag197
ag197
ag197
ag197
ag200
ag200
ag197
ag197
ag197
ag200
ag200
ag200
ag197
ag197
asaa(lp201
S'index'
p202
aI96516
aatp203
Rp204
.