ccollections
OrderedDict
p0
((lp1
(lp2
S'combination_dict'
p3
ag0
((lp4
(lp5
S'r_to_g_config'
p6
aS'br'
p7
aa(lp8
S'num_turns'
p9
aI1
aa(lp10
S'start_direction'
p11
acutils_ms
StartDirection
p12
(I0
tp13
Rp14
aa(lp15
S'assistance_type'
p16
acutils_ms
AssistanceType
p17
(I0
tp18
Rp19
aa(lp20
S'start_mode'
p21
aS'y'
p22
aa(lp23
S'ui_given_a_noise'
p24
aF0.5
aa(lp25
S'um_given_ui_noise'
p26
aF0.5
aa(lp27
S'entropy_threshold'
p28
aF0.9
aatp29
Rp30
aa(lp31
S'data'
p32
accollections
defaultdict
p33
(c__builtin__
list
p34
tp35
Rp36
S'a'
p37
(lp38
S'mode_l'
p39
aS'move_p'
p40
ag39
ag40
ag39
ag39
ag40
ag39
ag39
ag39
ag39
ag39
ag39
ag39
aS'move_n'
p41
asS'assistance_match_with_ground_truth'
p42
(lp43
I01
aI01
aI01
aI01
aI00
aI00
aI01
aI00
aI00
aI00
aI00
aI00
aI00
aI01
aI01
asS'is_u_intended_equals_um'
p44
(lp45
I01
aI01
aI01
aI01
aI00
aI01
aI01
aI00
aI00
aI00
aI00
aI00
aI00
aI01
aI01
asS'total_steps'
p46
I15
sS'normalized_h_of_p_ui_given_um'
p47
(lp48
cnumpy.core.multiarray
scalar
p49
(cnumpy
dtype
p50
(S'f8'
p51
I0
I1
tp52
Rp53
(I3
S'<'
p54
NNNI-1
I-1
I0
tp55
bS'E\xe66\xa4\x00\xaa\xd3?'
p56
tp57
Rp58
ag49
(g53
S'\x98\x0eo8\x08\x0f\xdc?'
p59
tp60
Rp61
ag49
(g53
S'E\xe66\xa4\x00\xaa\xd3?'
p62
tp63
Rp64
ag49
(g53
S'\x98\x0eo8\x08\x0f\xdc?'
p65
tp66
Rp67
ag49
(g53
S'\xee\xc5\xceF\xc5x\xe6?'
p68
tp69
Rp70
ag49
(g53
S'j\x92i\x04\xe8\xcc\xe0?'
p71
tp72
Rp73
ag49
(g53
S'\x98\x0eo8\x08\x0f\xdc?'
p74
tp75
Rp76
ag49
(g53
S'\xee\xc5\xceF\xc5x\xe6?'
p77
tp78
Rp79
ag49
(g53
S'\xee\xc5\xceF\xc5x\xe6?'
p80
tp81
Rp82
ag49
(g53
S'\xee\xc5\xceF\xc5x\xe6?'
p83
tp84
Rp85
ag49
(g53
S'`\xa3\xff\x90\xf4\x84\xe7?'
p86
tp87
Rp88
ag49
(g53
S'\xee\xc5\xceF\xc5x\xe6?'
p89
tp90
Rp91
ag49
(g53
S'\xee\xc5\xceF\xc5x\xe6?'
p92
tp93
Rp94
ag49
(g53
S'E\xe66\xa4\x00\xaa\xd3?'
p95
tp96
Rp97
ag49
(g53
S'\xaaS\xa5W\x87\xdb\xc6?'
p98
tp99
Rp100
asS'sp'
p101
(lp102
(S'p0'
p103
I0
S'x'
p104
tp105
a(S'p1'
p106
I0
g104
tp107
a(g106
I0
S't'
p108
tp109
a(g106
F1.5707963267948966
g108
tp110
ag110
a(g106
I0
g108
tp111
ag110
ag110
ag110
ag110
ag110
ag110
ag110
a(g106
F1.5707963267948966
S'y'
p112
tp113
a(S'p2'
p114
F1.5707963267948966
g112
tp115
asS's'
p116
(lp117
(g103
I0
g22
tp118
ag105
ag107
ag109
ag110
ag110
ag111
ag110
ag110
ag110
ag110
ag110
ag110
ag110
ag113
asS'ui'
p119
(lp120
S'hs'
p121
ag101
ag121
ag101
ag121
aS'ss'
p122
ag121
aS'hp'
p123
ag123
ag121
ag121
ag121
ag123
ag121
ag122
asS'um_before'
p124
(lp125
g121
ag101
ag121
ag101
ag123
ag122
ag101
ag123
ag123
ag123
ag101
ag123
ag123
ag121
ag122
asS'um_after'
p126
(lp127
g121
ag101
ag121
ag101
aNag122
ag101
aNaNaNaNaNaNag121
ag122
asS'is_normalized_entropy_less_than_threshold'
p128
(lp129
g49
(g50
(S'b1'
p130
I0
I1
tp131
Rp132
(I3
S'|'
p133
NNNI-1
I-1
I0
tp134
bS'\x01'
p135
tp136
Rp137
ag137
ag137
ag137
ag137
ag137
ag137
ag137
ag137
ag137
ag137
ag137
ag137
ag137
ag137
asaa(lp138
S'index'
p139
aI87741
aatp140
Rp141
.