ccollections
OrderedDict
p0
((lp1
(lp2
S'combination_dict'
p3
ag0
((lp4
(lp5
S'r_to_g_config'
p6
aS'tr'
p7
aa(lp8
S'num_turns'
p9
aI2
aa(lp10
S'start_direction'
p11
acutils_ms
StartDirection
p12
(I0
tp13
Rp14
aa(lp15
S'assistance_type'
p16
acutils_ms
AssistanceType
p17
(I0
tp18
Rp19
aa(lp20
S'start_mode'
p21
aS't'
p22
aa(lp23
S'ui_given_a_noise'
p24
aF0.3
aa(lp25
S'um_given_ui_noise'
p26
aF0.5
aa(lp27
S'entropy_threshold'
p28
aF0.8
aatp29
Rp30
aa(lp31
S'data'
p32
accollections
defaultdict
p33
(c__builtin__
list
p34
tp35
Rp36
S'a'
p37
(lp38
S'mode_r'
p39
aS'move_p'
p40
ag40
ag39
ag39
ag39
ag39
ag40
ag39
ag39
ag39
ag39
ag39
ag40
ag39
ag40
ag39
ag39
ag39
ag39
ag40
ag40
aS'mode_l'
p41
ag41
ag41
ag41
ag41
ag41
ag41
ag40
ag39
ag39
ag40
ag41
ag41
ag40
ag40
asS'assistance_match_with_ground_truth'
p42
(lp43
I01
aI00
aI00
aI00
aI00
aI00
aI01
aI01
aI00
aI00
aI00
aI00
aI01
aI01
aI01
aI00
aI00
aI00
aI00
aI01
aI00
aI00
aI00
aI00
aI00
aI00
aI00
aI00
aI01
aI01
aI00
aI01
aI00
aI00
aI01
aI00
aI01
asS'is_u_intended_equals_um'
p44
(lp45
I01
aI00
aI00
aI00
aI00
aI00
aI01
aI01
aI00
aI00
aI00
aI00
aI01
aI01
aI01
aI00
aI00
aI00
aI00
aI01
aI00
aI01
aI00
aI00
aI00
aI00
aI00
aI00
aI01
aI01
aI00
aI01
aI01
aI00
aI01
aI00
aI01
asS'total_steps'
p46
I37
sS'normalized_h_of_p_ui_given_um'
p47
(lp48
cnumpy.core.multiarray
scalar
p49
(cnumpy
dtype
p50
(S'f8'
p51
I0
I1
tp52
Rp53
(I3
S'<'
p54
NNNI-1
I-1
I0
tp55
bS'=\x1b1ut\xb1\xc7?'
p56
tp57
Rp58
ag49
(g53
S'(\x99B\xdf\xcfD\xe9?'
p59
tp60
Rp61
ag49
(g53
S'\x98\x1eLK\xab\xcd\xed?'
p62
tp63
Rp64
ag49
(g53
S'\xaf\x18-\x80\xdc3\xda?'
p65
tp66
Rp67
ag49
(g53
S'X\x9e\xd1`+Z\xe2?'
p68
tp69
Rp70
ag49
(g53
S'\xaf\x18-\x80\xdc3\xda?'
p71
tp72
Rp73
ag49
(g53
S'=\x1b1ut\xb1\xc7?'
p74
tp75
Rp76
ag49
(g53
S'\xd6\x0f\xd3Q\xc3i\xd7?'
p77
tp78
Rp79
ag49
(g53
S'X\x9e\xd1`+Z\xe2?'
p80
tp81
Rp82
ag49
(g53
S'\x04\xd5\xc4\x0c\x95\x9c\xe0?'
p83
tp84
Rp85
ag49
(g53
S'\x04\xd5\xc4\x0c\x95\x9c\xe0?'
p86
tp87
Rp88
ag49
(g53
S'X\x9e\xd1`+Z\xe2?'
p89
tp90
Rp91
ag49
(g53
S'=\x1b1ut\xb1\xc7?'
p92
tp93
Rp94
ag49
(g53
S'\xd6\x0f\xd3Q\xc3i\xd7?'
p95
tp96
Rp97
ag49
(g53
S'=\x1b1ut\xb1\xc7?'
p98
tp99
Rp100
ag49
(g53
S'\x98\x1eLK\xab\xcd\xed?'
p101
tp102
Rp103
ag49
(g53
S'X\x9e\xd1`+Z\xe2?'
p104
tp105
Rp106
ag49
(g53
S'X\x9e\xd1`+Z\xe2?'
p107
tp108
Rp109
ag49
(g53
S'\x04\xd5\xc4\x0c\x95\x9c\xe0?'
p110
tp111
Rp112
ag49
(g53
S'=\x1b1ut\xb1\xc7?'
p113
tp114
Rp115
ag49
(g53
S'(\x99B\xdf\xcfD\xe9?'
p116
tp117
Rp118
ag49
(g53
S'\x1a\xd0y]\x89Q\xea?'
p119
tp120
Rp121
ag49
(g53
S'\xd2\\\xed\xb30q\xe6?'
p122
tp123
Rp124
ag49
(g53
S'l\xf2\xabKS\x94\xe9?'
p125
tp126
Rp127
ag49
(g53
S'l\xf2\xabKS\x94\xe9?'
p128
tp129
Rp130
ag49
(g53
S'\xcc\x9f\x00\xca54\xe9?'
p131
tp132
Rp133
ag49
(g53
S'\xd2\\\xed\xb30q\xe6?'
p134
tp135
Rp136
ag49
(g53
S'l\xf2\xabKS\x94\xe9?'
p137
tp138
Rp139
ag49
(g53
S'\xfa\x89;\x86\x05 \xdd?'
p140
tp141
Rp142
ag49
(g53
S'\xd6\x0f\xd3Q\xc3i\xd7?'
p143
tp144
Rp145
ag49
(g53
S'X\x9e\xd1`+Z\xe2?'
p146
tp147
Rp148
ag49
(g53
S'=\x1b1ut\xb1\xc7?'
p149
tp150
Rp151
ag49
(g53
S'\x1a\xd0y]\x89Q\xea?'
p152
tp153
Rp154
ag49
(g53
S'l\xf2\xabKS\x94\xe9?'
p155
tp156
Rp157
ag49
(g53
S'\xfa\x89;\x86\x05 \xdd?'
p158
tp159
Rp160
ag49
(g53
S'(\x99B\xdf\xcfD\xe9?'
p161
tp162
Rp163
ag49
(g53
S'\xd6\x0f\xd3Q\xc3i\xd7?'
p164
tp165
Rp166
asS'sp'
p167
(lp168
(S'p0'
p169
I0
S'x'
p170
tp171
ag171
a(g169
I0
S't'
p172
tp173
ag173
ag173
ag173
ag171
a(S'p1'
p174
I0
g170
tp175
ag175
ag175
ag175
ag175
a(g174
I0
S'y'
p176
tp177
a(S'p2'
p178
I0
g176
tp179
a(g178
I0
g172
tp180
a(g178
I0
g176
tp181
ag181
ag181
ag181
ag180
ag180
a(g178
I0
g170
tp182
ag182
ag182
ag182
ag182
ag182
ag182
a(g178
I0
g172
tp183
a(g178
F1.5707963267948966
g172
tp184
ag184
a(g178
F1.5707963267948966
g170
tp185
a(g178
F1.5707963267948966
g176
tp186
ag186
a(g178
F1.5707963267948966
g170
tp187
ag187
a(S'p3'
p188
F1.5707963267948966
g170
tp189
asS's'
p190
(lp191
(g169
I0
g22
tp192
ag171
ag171
ag173
ag173
ag173
ag173
ag171
ag175
ag175
ag175
ag175
ag175
ag177
ag179
ag180
ag181
ag181
ag181
ag181
ag180
ag180
ag182
ag182
ag182
ag182
ag182
ag182
ag182
ag183
ag184
ag184
ag185
ag186
ag186
ag187
ag187
asS'ui'
p193
(lp194
S'hp'
p195
ag195
ag167
ag167
ag195
ag195
ag195
ag167
ag195
ag195
ag195
ag195
ag195
ag167
ag195
ag195
ag195
aS'ss'
p196
ag195
ag195
aS'hs'
p197
ag195
ag167
ag197
ag167
ag195
ag167
ag197
ag167
ag167
ag195
ag195
ag195
ag195
ag196
ag167
ag197
asS'um_before'
p198
(lp199
g195
ag196
ag197
ag167
ag196
ag167
ag195
ag167
ag196
ag197
ag197
ag196
ag195
ag167
ag195
ag197
ag196
ag196
ag197
ag195
ag196
ag195
ag167
ag196
ag196
ag195
ag167
ag196
ag197
ag167
ag196
ag195
ag195
ag196
ag197
ag196
ag167
asS'um_after'
p200
(lp201
g195
aNag197
aNaNaNag195
ag167
aNaNaNaNag195
ag167
ag195
ag197
aNaNaNag195
aNag195
aNaNaNaNaNaNag197
ag167
aNag195
ag195
aNag197
aNag167
asS'is_normalized_entropy_less_than_threshold'
p202
(lp203
g49
(g50
(S'b1'
p204
I0
I1
tp205
Rp206
(I3
S'|'
p207
NNNI-1
I-1
I0
tp208
bS'\x01'
p209
tp210
Rp211
ag211
ag49
(g206
S'\x00'
p212
tp213
Rp214
ag211
ag211
ag211
ag211
ag211
ag211
ag211
ag211
ag211
ag211
ag211
ag211
ag214
ag211
ag211
ag211
ag211
ag211
ag214
ag211
ag211
ag211
ag211
ag211
ag211
ag211
ag211
ag211
ag211
ag214
ag211
ag211
ag211
ag211
asaa(lp215
S'index'
p216
aI9939
aatp217
Rp218
.