ccollections
OrderedDict
p0
((lp1
(lp2
S'combination_dict'
p3
ag0
((lp4
(lp5
S'r_to_g_config'
p6
aS'tl'
p7
aa(lp8
S'num_turns'
p9
aI3
aa(lp10
S'start_direction'
p11
acutils_ms
StartDirection
p12
(I1
tp13
Rp14
aa(lp15
S'assistance_type'
p16
acutils_ms
AssistanceType
p17
(I1
tp18
Rp19
aa(lp20
S'start_mode'
p21
aS'x'
p22
aa(lp23
S'ui_given_a_noise'
p24
aF0.5
aa(lp25
S'um_given_ui_noise'
p26
aF0.3
aa(lp27
S'entropy_threshold'
p28
aF0.6
aatp29
Rp30
aa(lp31
S'data'
p32
accollections
defaultdict
p33
(c__builtin__
list
p34
tp35
Rp36
S'a'
p37
(lp38
S'mode_r'
p39
aS'move_p'
p40
ag39
ag39
ag39
ag40
aS'mode_l'
p41
ag39
aS'move_n'
p42
ag41
ag42
ag39
ag40
ag41
ag42
ag39
ag40
ag41
ag39
ag42
ag39
ag39
ag40
ag40
ag41
ag40
ag41
ag39
ag41
ag40
ag40
ag41
ag41
ag41
ag42
ag39
ag40
ag41
ag40
ag41
ag40
ag41
ag41
ag41
ag42
ag41
ag39
ag41
ag42
ag39
ag39
ag39
ag42
ag41
ag41
ag41
ag39
ag39
ag39
ag42
ag41
ag42
ag41
ag42
ag39
ag39
ag42
ag39
ag39
ag40
ag39
ag41
ag39
ag41
ag40
ag40
ag41
ag39
ag39
ag41
ag40
ag41
ag39
ag42
ag39
ag40
ag39
ag40
ag39
ag40
ag39
ag42
ag41
ag39
ag41
ag39
ag41
ag41
ag42
asS'assistance_match_with_ground_truth'
p43
(lp44
I01
aI00
aI00
aI00
aI01
aI01
aI00
aI01
aI00
aI01
aI01
aI01
aI00
aI01
aI00
aI01
aI01
aI00
aI01
aI00
aI00
aI01
aI00
aI00
aI01
aI00
aI00
aI00
aI01
aI00
aI01
aI00
aI00
aI01
aI01
aI01
aI00
aI01
aI00
aI01
aI00
aI00
aI00
aI01
aI00
aI00
aI00
aI01
aI00
aI00
aI00
aI01
aI00
aI00
aI00
aI00
aI00
aI00
aI01
aI00
aI01
aI00
aI01
aI00
aI00
aI01
aI01
aI00
aI01
aI01
aI00
aI00
aI00
aI01
aI00
aI00
aI00
aI00
aI00
aI01
aI00
aI00
aI01
aI01
aI01
aI01
aI01
aI00
aI01
aI01
aI01
aI00
aI00
aI00
aI00
aI00
aI00
aI01
aI01
asS'is_u_intended_equals_um'
p45
(lp46
I01
aI01
aI01
aI01
aI01
aI01
aI01
aI01
aI01
aI01
aI01
aI01
aI01
aI01
aI00
aI01
aI01
aI01
aI01
aI00
aI01
aI01
aI01
aI01
aI01
aI01
aI01
aI01
aI01
aI01
aI01
aI01
aI01
aI01
aI01
aI01
aI01
aI01
aI01
aI01
aI01
aI01
aI01
aI01
aI01
aI01
aI01
aI01
aI01
aI01
aI01
aI01
aI01
aI01
aI01
aI01
aI01
aI01
aI01
aI01
aI01
aI01
aI01
aI01
aI01
aI01
aI01
aI01
aI01
aI01
aI01
aI01
aI01
aI01
aI01
aI01
aI01
aI01
aI01
aI01
aI01
aI01
aI01
aI01
aI01
aI01
aI01
aI01
aI01
aI01
aI01
aI01
aI01
aI01
aI01
aI01
aI01
aI01
aI01
asS'total_steps'
p47
I99
sS'normalized_h_of_p_ui_given_um'
p48
(lp49
cnumpy.core.multiarray
scalar
p50
(cnumpy
dtype
p51
(S'f8'
p52
I0
I1
tp53
Rp54
(I3
S'<'
p55
NNNI-1
I-1
I0
tp56
bS'c\x8c7\xd18T\xd4?'
p57
tp58
Rp59
ag50
(g54
S'a<Pa@\xcf\xe6?'
p60
tp61
Rp62
ag50
(g54
S'\xeer\xb5\xc0\xa2\x98\xed?'
p63
tp64
Rp65
ag50
(g54
S'\xeer\xb5\xc0\xa2\x98\xed?'
p66
tp67
Rp68
ag50
(g54
S'c\x8c7\xd18T\xd4?'
p69
tp70
Rp71
ag50
(g54
S'\x96\xf9\xca\xd1\xd7$\xdc?'
p72
tp73
Rp74
ag50
(g54
S'\x9f\x95,\xbb\xd7\xb1\xe6?'
p75
tp76
Rp77
ag50
(g54
S'c\x8c7\xd18T\xd4?'
p78
tp79
Rp80
ag50
(g54
S'0jz@\x88\x80\xe4?'
p81
tp82
Rp83
ag50
(g54
S'\x0f\xf5\xaa\xec\x98\xa4\xd7?'
p84
tp85
Rp86
ag50
(g54
S'Wn\xfb\xef\xc5\xc5\xc3?'
p87
tp88
Rp89
ag50
(g54
S'c\x8c7\xd18T\xd4?'
p90
tp91
Rp92
ag50
(g54
S'\xd8V\xf5l+7\xe0?'
p93
tp94
Rp95
ag50
(g54
S'\x0f\xf5\xaa\xec\x98\xa4\xd7?'
p96
tp97
Rp98
ag50
(g54
S'\xb2\xdf?\x10J\xea\xe6?'
p99
tp100
Rp101
ag50
(g54
S'c\x8c7\xd18T\xd4?'
p102
tp103
Rp104
ag50
(g54
S'\x96\xf9\xca\xd1\xd7$\xdc?'
p105
tp106
Rp107
ag50
(g54
S'\x9f\x95,\xbb\xd7\xb1\xe6?'
p108
tp109
Rp110
ag50
(g54
S'c\x8c7\xd18T\xd4?'
p111
tp112
Rp113
ag50
(g54
S'\xb2\xdf?\x10J\xea\xe6?'
p114
tp115
Rp116
ag50
(g54
S'f\xe0\xfc\x9cH\x02\xe2?'
p117
tp118
Rp119
ag50
(g54
S'c\x8c7\xd18T\xd4?'
p120
tp121
Rp122
ag50
(g54
S'\xd8V\xf5l+7\xe0?'
p123
tp124
Rp125
ag50
(g54
S'G\x90OmT\xc4\xe8?'
p126
tp127
Rp128
ag50
(g54
S'\x0f\xf5\xaa\xec\x98\xa4\xd7?'
p129
tp130
Rp131
ag50
(g54
S'G\x90OmT\xc4\xe8?'
p132
tp133
Rp134
ag50
(g54
S'\x9f\x95,\xbb\xd7\xb1\xe6?'
p135
tp136
Rp137
ag50
(g54
S"\x84g'\x18\xf1\x97\xe6?"
p138
tp139
Rp140
ag50
(g54
S'\x0f\xf5\xaa\xec\x98\xa4\xd7?'
p141
tp142
Rp143
ag50
(g54
S'\xd8V\xf5l+7\xe0?'
p144
tp145
Rp146
ag50
(g54
S'\x96\xf9\xca\xd1\xd7$\xdc?'
p147
tp148
Rp149
ag50
(g54
S'\xf4-l\xa7\xc4\xad\xea?'
p150
tp151
Rp152
ag50
(g54
S'\xb1\xdc\xce\xda\x86\x83\xe4?'
p153
tp154
Rp155
ag50
(g54
S'\x0f\xf5\xaa\xec\x98\xa4\xd7?'
p156
tp157
Rp158
ag50
(g54
S'Wn\xfb\xef\xc5\xc5\xc3?'
p159
tp160
Rp161
ag50
(g54
S'c\x8c7\xd18T\xd4?'
p162
tp163
Rp164
ag50
(g54
S'G\x90OmT\xc4\xe8?'
p165
tp166
Rp167
ag50
(g54
S'\x0f\xf5\xaa\xec\x98\xa4\xd7?'
p168
tp169
Rp170
ag50
(g54
S'G\x90OmT\xc4\xe8?'
p171
tp172
Rp173
ag50
(g54
S'\x0f\xf5\xaa\xec\x98\xa4\xd7?'
p174
tp175
Rp176
ag50
(g54
S'\xd8V\xf5l+7\xe0?'
p177
tp178
Rp179
ag50
(g54
S'\xb1\xdc\xce\xda\x86\x83\xe4?'
p180
tp181
Rp182
ag50
(g54
S'\xf4-l\xa7\xc4\xad\xea?'
p183
tp184
Rp185
ag50
(g54
S'\x0f\xf5\xaa\xec\x98\xa4\xd7?'
p186
tp187
Rp188
ag50
(g54
S'0jz@\x88\x80\xe4?'
p189
tp190
Rp191
ag50
(g54
S'\x9f\x95,\xbb\xd7\xb1\xe6?'
p192
tp193
Rp194
ag50
(g54
S"\x84g'\x18\xf1\x97\xe6?"
p195
tp196
Rp197
ag50
(g54
S'\x0f\xf5\xaa\xec\x98\xa4\xd7?'
p198
tp199
Rp200
ag50
(g54
S'us\xe3\x14ph\xe2?'
p201
tp202
Rp203
ag50
(g54
S'f\xe0\xfc\x9cH\x02\xe2?'
p204
tp205
Rp206
ag50
(g54
S'\xeer\xb5\xc0\xa2\x98\xed?'
p207
tp208
Rp209
ag50
(g54
S'c\x8c7\xd18T\xd4?'
p210
tp211
Rp212
ag50
(g54
S'0jz@\x88\x80\xe4?'
p213
tp214
Rp215
ag50
(g54
S'\xb1\xdc\xce\xda\x86\x83\xe4?'
p216
tp217
Rp218
ag50
(g54
S'\xb1\xdc\xce\xda\x86\x83\xe4?'
p219
tp220
Rp221
ag50
(g54
S'\x9f\x95,\xbb\xd7\xb1\xe6?'
p222
tp223
Rp224
ag50
(g54
S'\xeer\xb5\xc0\xa2\x98\xed?'
p225
tp226
Rp227
ag50
(g54
S'\xeer\xb5\xc0\xa2\x98\xed?'
p228
tp229
Rp230
ag50
(g54
S'c\x8c7\xd18T\xd4?'
p231
tp232
Rp233
ag50
(g54
S'0jz@\x88\x80\xe4?'
p234
tp235
Rp236
ag50
(g54
S'\x0f\xf5\xaa\xec\x98\xa4\xd7?'
p237
tp238
Rp239
ag50
(g54
S'0jz@\x88\x80\xe4?'
p240
tp241
Rp242
ag50
(g54
S'\x0f\xf5\xaa\xec\x98\xa4\xd7?'
p243
tp244
Rp245
ag50
(g54
S'us\xe3\x14ph\xe2?'
p246
tp247
Rp248
ag50
(g54
S'f\xe0\xfc\x9cH\x02\xe2?'
p249
tp250
Rp251
ag50
(g54
S'c\x8c7\xd18T\xd4?'
p252
tp253
Rp254
ag50
(g54
S'Wn\xfb\xef\xc5\xc5\xc3?'
p255
tp256
Rp257
ag50
(g54
S'f\xe0\xfc\x9cH\x02\xe2?'
p258
tp259
Rp260
ag50
(g54
S'c\x8c7\xd18T\xd4?'
p261
tp262
Rp263
ag50
(g54
S'\x96\xf9\xca\xd1\xd7$\xdc?'
p264
tp265
Rp266
ag50
(g54
S"\x84g'\x18\xf1\x97\xe6?"
p267
tp268
Rp269
ag50
(g54
S'\x9f\x95,\xbb\xd7\xb1\xe6?'
p270
tp271
Rp272
ag50
(g54
S"\x84g'\x18\xf1\x97\xe6?"
p273
tp274
Rp275
ag50
(g54
S'\x0f\xf5\xaa\xec\x98\xa4\xd7?'
p276
tp277
Rp278
ag50
(g54
S'\xd8V\xf5l+7\xe0?'
p279
tp280
Rp281
ag50
(g54
S'G\x90OmT\xc4\xe8?'
p282
tp283
Rp284
ag50
(g54
S'\xb1\xdc\xce\xda\x86\x83\xe4?'
p285
tp286
Rp287
ag50
(g54
S'f\xe0\xfc\x9cH\x02\xe2?'
p288
tp289
Rp290
ag50
(g54
S"\x84g'\x18\xf1\x97\xe6?"
p291
tp292
Rp293
ag50
(g54
S'\x0f\xf5\xaa\xec\x98\xa4\xd7?'
p294
tp295
Rp296
ag50
(g54
S'\xd8V\xf5l+7\xe0?'
p297
tp298
Rp299
ag50
(g54
S'\x9f\x95,\xbb\xd7\xb1\xe6?'
p300
tp301
Rp302
ag50
(g54
S'c\x8c7\xd18T\xd4?'
p303
tp304
Rp305
ag50
(g54
S'Wn\xfb\xef\xc5\xc5\xc3?'
p306
tp307
Rp308
ag50
(g54
S'c\x8c7\xd18T\xd4?'
p309
tp310
Rp311
ag50
(g54
S'\x96\xf9\xca\xd1\xd7$\xdc?'
p312
tp313
Rp314
ag50
(g54
S'c\x8c7\xd18T\xd4?'
p315
tp316
Rp317
ag50
(g54
S'a<Pa@\xcf\xe6?'
p318
tp319
Rp320
ag50
(g54
S'c\x8c7\xd18T\xd4?'
p321
tp322
Rp323
ag50
(g54
S'\x96\xf9\xca\xd1\xd7$\xdc?'
p324
tp325
Rp326
ag50
(g54
S'c\x8c7\xd18T\xd4?'
p327
tp328
Rp329
ag50
(g54
S'0jz@\x88\x80\xe4?'
p330
tp331
Rp332
ag50
(g54
S'\x9f\x95,\xbb\xd7\xb1\xe6?'
p333
tp334
Rp335
ag50
(g54
S"\x84g'\x18\xf1\x97\xe6?"
p336
tp337
Rp338
ag50
(g54
S'\x9f\x95,\xbb\xd7\xb1\xe6?'
p339
tp340
Rp341
ag50
(g54
S"\x84g'\x18\xf1\x97\xe6?"
p342
tp343
Rp344
ag50
(g54
S'\xb1\xdc\xce\xda\x86\x83\xe4?'
p345
tp346
Rp347
ag50
(g54
S'\x0f\xf5\xaa\xec\x98\xa4\xd7?'
p348
tp349
Rp350
ag50
(g54
S'Wn\xfb\xef\xc5\xc5\xc3?'
p351
tp352
Rp353
asS'sp'
p354
(lp355
(S'p0'
p356
I0
S'y'
p357
tp358
a(g356
I0
S'x'
p359
tp360
a(g356
I0
g359
tp361
ag361
ag358
a(S'p1'
p362
I0
g357
tp363
a(g362
I0
S't'
p364
tp365
a(g362
I0
g359
tp366
a(g362
I0
g357
tp367
a(g362
I0
g359
tp368
a(S'p2'
p369
I0
g359
tp370
a(g369
I0
g357
tp371
a(g362
I0
g357
tp372
ag368
a(g356
I0
g359
tp373
ag358
ag363
ag365
ag366
ag373
a(g356
I0
g359
tp374
ag358
a(g356
I0
g357
tp375
a(g356
I0
g364
tp376
a(g356
I0
g357
tp377
ag376
a(g356
I0
g359
tp378
a(g356
I0
g364
tp379
ag377
ag375
ag363
a(g362
I0
g357
tp380
a(g362
I0
g357
tp381
ag368
ag370
ag371
a(g369
I0
g364
tp382
a(g369
I0
g357
tp383
ag382
ag383
ag372
ag381
ag380
ag368
ag367
ag365
a(g362
I0
g357
tp384
ag368
a(g362
I0
g364
tp385
a(g362
I0
g364
tp386
a(g362
I0
g364
tp387
ag366
ag367
ag381
ag381
ag365
ag387
ag387
ag366
ag367
ag368
ag367
ag368
ag385
ag386
ag366
ag370
a(g369
I0
g359
tp388
ag371
a(S'p3'
p389
I0
g357
tp390
a(g389
I0
g359
tp391
a(g389
I0
g357
tp392
ag391
a(g389
I0
g364
tp393
a(g389
I0
g364
tp394
a(g389
I0
g359
tp395
a(g369
I0
g359
tp396
ag388
a(g369
I0
g364
tp397
ag383
ag372
ag365
ag366
ag370
ag371
ag390
a(g389
I0
g364
tp398
a(g389
I0
g357
tp399
ag398
a(g389
F1.5707963267948966
g364
tp400
a(g389
F1.5707963267948966
g359
tp401
a(g389
F1.5707963267948966
g357
tp402
a(g389
F1.5707963267948966
g364
tp403
a(g389
F1.5707963267948966
g357
tp404
ag403
ag404
a(g389
F1.5707963267948966
g357
tp405
a(g389
F1.5707963267948966
g359
tp406
a(S'p4'
p407
F1.5707963267948966
g359
tp408
asS's'
p409
(lp410
(g356
I0
g22
tp411
ag358
ag360
ag361
ag361
ag358
ag363
ag365
ag366
ag367
ag368
ag370
ag371
ag372
ag368
ag373
ag358
ag363
ag365
ag366
ag373
ag374
ag358
ag375
ag376
ag377
ag376
ag378
ag379
ag377
ag375
ag363
ag380
ag381
ag368
ag370
ag371
ag382
ag383
ag382
ag383
ag372
ag381
ag380
ag368
ag367
ag365
ag384
ag368
ag385
ag386
ag387
ag366
ag367
ag381
ag381
ag365
ag387
ag387
ag366
ag367
ag368
ag367
ag368
ag385
ag386
ag366
ag370
ag388
ag371
ag390
ag391
ag392
ag391
ag393
ag394
ag395
ag396
ag388
ag397
ag383
ag372
ag365
ag366
ag370
ag371
ag390
ag398
ag399
ag398
ag400
ag401
ag402
ag403
ag404
ag403
ag404
ag405
ag406
asS'ui'
p412
(lp413
S'hp'
p414
ag354
ag414
aS'ss'
p415
ag414
ag354
aS'hs'
p416
ag414
ag414
ag416
ag415
ag354
ag415
ag414
ag414
ag414
ag354
ag354
ag414
ag415
ag415
ag414
ag415
ag414
ag416
ag416
ag414
ag416
ag416
ag415
ag354
ag354
ag354
ag416
ag415
ag416
ag354
ag416
ag416
ag416
ag354
ag354
ag354
ag416
ag414
ag354
ag416
ag414
ag414
ag415
ag416
ag414
ag414
ag354
ag416
ag416
ag354
ag416
ag414
ag416
ag416
ag416
ag416
ag354
ag415
ag416
ag415
ag414
ag414
ag354
ag414
ag416
ag354
ag354
ag415
ag354
ag414
ag415
ag416
ag416
ag415
ag416
ag414
ag415
ag416
ag354
ag414
ag416
ag416
ag354
ag414
ag416
ag416
ag416
ag416
ag416
ag416
ag416
ag415
asS'um_before'
p417
(lp418
g414
ag416
ag354
ag354
ag414
ag354
ag414
ag414
ag414
ag416
ag415
ag414
ag415
ag416
ag354
ag414
ag354
ag414
ag414
ag354
ag415
ag414
ag415
ag414
ag416
ag414
ag414
ag416
ag416
ag415
ag354
ag415
ag354
ag416
ag415
ag414
ag414
ag416
ag414
ag416
ag415
ag354
ag415
ag416
ag414
ag414
ag416
ag416
ag416
ag415
ag354
ag414
ag414
ag354
ag354
ag414
ag354
ag354
ag414
ag414
ag416
ag414
ag416
ag416
ag415
ag414
ag415
ag415
ag414
ag354
ag416
ag414
ag416
ag416
ag415
ag414
ag354
ag415
ag416
ag416
ag415
ag414
ag414
ag415
ag414
ag354
ag414
ag416
ag414
ag354
ag414
ag414
ag414
ag416
ag414
ag416
ag354
ag416
ag415
asS'um_after'
p419
(lp420
g414
ag416
ag354
ag354
ag414
ag354
ag414
ag414
ag414
ag416
ag415
ag414
ag415
ag416
ag354
ag414
ag354
ag414
ag414
ag354
ag415
ag414
ag415
ag414
ag416
ag414
ag414
ag416
ag416
ag415
ag354
ag415
ag354
ag416
ag415
ag414
ag414
ag416
ag414
ag416
ag415
ag354
ag415
ag416
ag414
ag414
ag416
ag416
ag416
ag415
ag354
ag414
ag414
ag354
ag354
ag414
ag354
ag354
ag414
ag414
ag416
ag414
ag416
ag416
ag415
ag414
ag415
ag415
ag414
ag354
ag416
ag414
ag416
ag416
ag415
ag414
ag354
ag415
ag416
ag416
ag415
ag414
ag414
ag415
ag414
ag354
ag414
ag416
ag414
ag354
ag414
ag414
ag414
ag416
ag414
ag416
ag354
ag416
ag415
asS'is_normalized_entropy_less_than_threshold'
p421
(lp422
g50
(g51
(S'b1'
p423
I0
I1
tp424
Rp425
(I3
S'|'
p426
NNNI-1
I-1
I0
tp427
bS'\x01'
p428
tp429
Rp430
ag50
(g425
S'\x00'
p431
tp432
Rp433
ag433
ag433
ag430
ag430
ag433
ag430
ag433
ag430
ag430
ag430
ag430
ag430
ag433
ag430
ag430
ag433
ag430
ag433
ag430
ag430
ag430
ag433
ag430
ag433
ag433
ag433
ag430
ag430
ag430
ag433
ag433
ag430
ag430
ag430
ag433
ag430
ag433
ag430
ag430
ag433
ag433
ag430
ag433
ag433
ag433
ag430
ag430
ag430
ag433
ag430
ag433
ag433
ag433
ag433
ag433
ag433
ag430
ag433
ag430
ag433
ag430
ag430
ag430
ag430
ag430
ag430
ag430
ag430
ag433
ag433
ag433
ag430
ag430
ag433
ag433
ag430
ag433
ag430
ag430
ag433
ag430
ag430
ag430
ag430
ag430
ag433
ag430
ag430
ag430
ag433
ag433
ag433
ag433
ag433
ag433
ag430
ag430
asaa(lp434
S'index'
p435
aI54868
aatp436
Rp437
.