ccollections
OrderedDict
p0
((lp1
(lp2
S'combination_dict'
p3
ag0
((lp4
(lp5
S'r_to_g_config'
p6
aS'br'
p7
aa(lp8
S'num_turns'
p9
aI1
aa(lp10
S'start_direction'
p11
acutils_ms
StartDirection
p12
(I0
tp13
Rp14
aa(lp15
S'assistance_type'
p16
acutils_ms
AssistanceType
p17
(I1
tp18
Rp19
aa(lp20
S'start_mode'
p21
aS't'
p22
aa(lp23
S'ui_given_a_noise'
p24
aF0.3
aa(lp25
S'um_given_ui_noise'
p26
aF0.5
aa(lp27
S'entropy_threshold'
p28
aF0.6
aatp29
Rp30
aa(lp31
S'data'
p32
accollections
defaultdict
p33
(c__builtin__
list
p34
tp35
Rp36
S'a'
p37
(lp38
S'mode_r'
p39
ag39
aS'mode_l'
p40
ag40
ag39
ag40
aS'move_p'
p41
ag39
ag39
ag40
ag39
ag39
ag39
ag41
ag41
ag40
ag41
ag40
ag41
ag40
ag41
ag40
ag41
ag40
aS'move_n'
p42
asS'assistance_match_with_ground_truth'
p43
(lp44
I00
aI00
aI00
aI00
aI00
aI01
aI00
aI00
aI00
aI00
aI00
aI00
aI01
aI00
aI00
aI01
aI01
aI01
aI00
aI01
aI00
aI01
aI01
aI01
aI01
asS'is_u_intended_equals_um'
p45
(lp46
I00
aI00
aI01
aI00
aI00
aI01
aI00
aI00
aI00
aI00
aI00
aI01
aI01
aI01
aI00
aI01
aI01
aI01
aI00
aI01
aI00
aI00
aI01
aI01
aI01
asS'total_steps'
p47
I25
sS'normalized_h_of_p_ui_given_um'
p48
(lp49
cnumpy.core.multiarray
scalar
p50
(cnumpy
dtype
p51
(S'f8'
p52
I0
I1
tp53
Rp54
(I3
S'<'
p55
NNNI-1
I-1
I0
tp56
bS'\x15\xc2\xe7\xa5\xc2\xc3\xe7?'
p57
tp58
Rp59
ag50
(g54
S'\x95\nJfS[\xe5?'
p60
tp61
Rp62
ag50
(g54
S's\xebd\x03v\xd2\xe4?'
p63
tp64
Rp65
ag50
(g54
S'}H\x00\xd3\x08\xdb\xe6?'
p66
tp67
Rp68
ag50
(g54
S'\x95\nJfS[\xe5?'
p69
tp70
Rp71
ag50
(g54
S'\x91$l\xed\xc8B\xd1?'
p72
tp73
Rp74
ag50
(g54
S'P\x11:\x9a\xe8=\xee?'
p75
tp76
Rp77
ag50
(g54
S'\x15\xc2\xe7\xa5\xc2\xc3\xe7?'
p78
tp79
Rp80
ag50
(g54
S'\x95\nJfS[\xe5?'
p81
tp82
Rp83
ag50
(g54
S'}H\x00\xd3\x08\xdb\xe6?'
p84
tp85
Rp86
ag50
(g54
S'\x15\xc2\xe7\xa5\xc2\xc3\xe7?'
p87
tp88
Rp89
ag50
(g54
S'\x0c\xbfU\x83x\x84\xe7?'
p90
tp91
Rp92
ag50
(g54
S'\x82!B\xd0\xbc1\xe1?'
p93
tp94
Rp95
ag50
(g54
S'!\x9cNg\x11\x0b\xec?'
p96
tp97
Rp98
ag50
(g54
S'\xeb\x88\xd7Lw\x85\xe3?'
p99
tp100
Rp101
ag50
(g54
S'\x91$l\xed\xc8B\xd1?'
p102
tp103
Rp104
ag50
(g54
S'\x9a\x8d\x90ke\xd1\xca?'
p105
tp106
Rp107
ag50
(g54
S'\x91$l\xed\xc8B\xd1?'
p108
tp109
Rp110
ag50
(g54
S'\xeb\x88\xd7Lw\x85\xe3?'
p111
tp112
Rp113
ag50
(g54
S'\x91$l\xed\xc8B\xd1?'
p114
tp115
Rp116
ag50
(g54
S'\xeb\x88\xd7Lw\x85\xe3?'
p117
tp118
Rp119
ag50
(g54
S'\x98\x19\xf4h\xb7\xc0\xe2?'
p120
tp121
Rp122
ag50
(g54
S'\x9a\x8d\x90ke\xd1\xca?'
p123
tp124
Rp125
ag50
(g54
S'\x91$l\xed\xc8B\xd1?'
p126
tp127
Rp128
ag50
(g54
S'\xec>7!\xd3-\xd0?'
p129
tp130
Rp131
asS'sp'
p132
(lp133
(S'p0'
p134
I0
S't'
p135
tp136
a(g134
I0
S'y'
p137
tp138
a(g134
I0
g137
tp139
a(g134
I0
g135
tp140
ag138
a(g134
I0
S'x'
p141
tp142
a(g134
I0
g135
tp143
ag136
ag138
ag140
ag136
a(g134
I0
g135
tp144
a(g134
I0
g141
tp145
a(g134
I0
g141
tp146
a(g134
I0
g137
tp147
ag142
a(S'p1'
p148
I0
g141
tp149
a(g148
I0
g135
tp150
a(g148
I0
g141
tp151
ag150
ag151
ag150
a(g148
F1.5707963267948966
g135
tp152
a(g148
F1.5707963267948966
g137
tp153
a(S'p2'
p154
F1.5707963267948966
g137
tp155
asS's'
p156
(lp157
(g134
I0
g22
tp158
ag136
ag138
ag139
ag140
ag138
ag142
ag143
ag136
ag138
ag140
ag136
ag144
ag145
ag146
ag147
ag142
ag149
ag150
ag151
ag150
ag151
ag150
ag152
ag153
asS'ui'
p159
(lp160
S'hp'
p161
ag161
ag132
aS'hs'
p162
ag161
ag161
ag161
ag161
ag161
ag161
ag161
ag132
ag161
aS'ss'
p163
ag132
ag162
ag132
ag162
ag132
ag162
ag132
ag162
ag132
ag161
ag163
asS'um_before'
p164
(lp165
g163
ag162
ag132
ag161
ag162
ag162
ag162
ag163
ag162
ag161
ag163
ag132
ag161
ag163
ag161
ag162
ag132
ag162
ag161
ag162
ag161
ag163
ag132
ag162
ag163
asS'um_after'
p166
(lp167
g163
ag162
ag132
ag161
ag162
ag162
ag162
ag163
ag162
ag161
ag163
ag132
ag161
ag163
ag161
ag162
ag132
ag162
ag161
ag162
ag161
ag162
ag132
ag162
ag163
asS'is_normalized_entropy_less_than_threshold'
p168
(lp169
g50
(g51
(S'b1'
p170
I0
I1
tp171
Rp172
(I3
S'|'
p173
NNNI-1
I-1
I0
tp174
bS'\x00'
p175
tp176
Rp177
ag177
ag177
ag177
ag177
ag50
(g172
S'\x01'
p178
tp179
Rp180
ag177
ag177
ag177
ag177
ag177
ag177
ag180
ag177
ag177
ag180
ag180
ag180
ag177
ag180
ag177
ag180
ag180
ag180
ag180
asaa(lp181
S'index'
p182
aI88313
aatp183
Rp184
.