ccollections
OrderedDict
p0
((lp1
(lp2
S'combination_dict'
p3
ag0
((lp4
(lp5
S'r_to_g_config'
p6
aS'tl'
p7
aa(lp8
S'num_turns'
p9
aI3
aa(lp10
S'start_direction'
p11
acutils_ms
StartDirection
p12
(I1
tp13
Rp14
aa(lp15
S'assistance_type'
p16
acutils_ms
AssistanceType
p17
(I1
tp18
Rp19
aa(lp20
S'start_mode'
p21
aS't'
p22
aa(lp23
S'ui_given_a_noise'
p24
aF0.5
aa(lp25
S'um_given_ui_noise'
p26
aF0.3
aa(lp27
S'entropy_threshold'
p28
aF0.8
aatp29
Rp30
aa(lp31
S'data'
p32
accollections
defaultdict
p33
(c__builtin__
list
p34
tp35
Rp36
S'a'
p37
(lp38
S'mode_l'
p39
aS'move_p'
p40
ag39
ag39
ag40
aS'mode_r'
p41
ag40
ag39
ag40
ag41
ag40
ag41
aS'move_n'
p42
ag41
ag40
ag39
ag40
ag39
ag40
ag39
ag39
ag42
ag41
ag39
ag42
ag41
ag42
asS'assistance_match_with_ground_truth'
p43
(lp44
I01
aI00
aI00
aI01
aI01
aI01
aI00
aI01
aI00
aI01
aI01
aI01
aI01
aI01
aI00
aI01
aI00
aI01
aI01
aI00
aI01
aI00
aI00
aI01
aI00
aI01
aI01
asS'is_u_intended_equals_um'
p45
(lp46
I00
aI01
aI01
aI00
aI01
aI01
aI01
aI00
aI01
aI01
aI00
aI01
aI01
aI00
aI01
aI00
aI01
aI01
aI01
aI01
aI01
aI01
aI01
aI00
aI01
aI01
aI01
asS'total_steps'
p47
I27
sS'normalized_h_of_p_ui_given_um'
p48
(lp49
cnumpy.core.multiarray
scalar
p50
(cnumpy
dtype
p51
(S'f8'
p52
I0
I1
tp53
Rp54
(I3
S'<'
p55
NNNI-1
I-1
I0
tp56
bS'\x8dlo\xcbh,\xe3?'
p57
tp58
Rp59
ag50
(g54
S'g\xbdY\x9d\x15Y\xe3?'
p60
tp61
Rp62
ag50
(g54
S'8E\xc0\x94\x9c\x93\xe6?'
p63
tp64
Rp65
ag50
(g54
S'\x8dlo\xcbh,\xe3?'
p66
tp67
Rp68
ag50
(g54
S'\x17U\xbc\x88\x17\xb2\xd3?'
p69
tp70
Rp71
ag50
(g54
S'\xe7M%w\x12L\xd1?'
p72
tp73
Rp74
ag50
(g54
S'g\xbdY\x9d\x15Y\xe3?'
p75
tp76
Rp77
ag50
(g54
S'\x8dlo\xcbh,\xe3?'
p78
tp79
Rp80
ag50
(g54
S'\xd2\xd7W\x836\xdf\xe9?'
p81
tp82
Rp83
ag50
(g54
S'\xe7M%w\x12L\xd1?'
p84
tp85
Rp86
ag50
(g54
S'\xfa\x0f\x96\xb9~\xd5\xe6?'
p87
tp88
Rp89
ag50
(g54
S'\xe7M%w\x12L\xd1?'
p90
tp91
Rp92
ag50
(g54
S'\xf3`\x17\x93g\xd5\xd2?'
p93
tp94
Rp95
ag50
(g54
S'.\x9fU\x9co\xd8\xe6?'
p96
tp97
Rp98
ag50
(g54
S'g\xbdY\x9d\x15Y\xe3?'
p99
tp100
Rp101
ag50
(g54
S'\x8dlo\xcbh,\xe3?'
p102
tp103
Rp104
ag50
(g54
S'g\xbdY\x9d\x15Y\xe3?'
p105
tp106
Rp107
ag50
(g54
S'#*\x028\x96\xaa\xd0?'
p108
tp109
Rp110
ag50
(g54
S'\x17U\xbc\x88\x17\xb2\xd3?'
p111
tp112
Rp113
ag50
(g54
S'8E\xc0\x94\x9c\x93\xe6?'
p114
tp115
Rp116
ag50
(g54
S'#*\x028\x96\xaa\xd0?'
p117
tp118
Rp119
ag50
(g54
S'\x90\xe6\xfe\x80n\xe6\xe5?'
p120
tp121
Rp122
ag50
(g54
S'og\xc3f~/\xe3?'
p123
tp124
Rp125
ag50
(g54
S'\x8dlo\xcbh,\xe3?'
p126
tp127
Rp128
ag50
(g54
S'\x90\xe6\xfe\x80n\xe6\xe5?'
p129
tp130
Rp131
ag50
(g54
S'\xe7M%w\x12L\xd1?'
p132
tp133
Rp134
ag50
(g54
S'\xf3`\x17\x93g\xd5\xd2?'
p135
tp136
Rp137
asS'sp'
p138
(lp139
(S'p0'
p140
I0
S'y'
p141
tp142
a(g140
I0
S't'
p143
tp144
a(g140
I0
g143
tp145
ag142
a(S'p1'
p146
I0
g141
tp147
a(g146
I0
g143
tp148
a(g146
I0
S'x'
p149
tp150
a(g146
I0
g143
tp151
a(g146
I0
g141
tp152
ag148
a(g146
F1.5707963267948966
g143
tp153
a(g146
F1.5707963267948966
g149
tp154
a(S'p2'
p155
F1.5707963267948966
g149
tp156
a(g155
F1.5707963267948966
g141
tp157
a(g155
F1.5707963267948966
g143
tp158
a(g155
F1.5707963267948966
g141
tp159
ag158
ag159
a(S'p3'
p160
F1.5707963267948966
g141
tp161
a(g160
F1.5707963267948966
g141
tp162
a(g160
F1.5707963267948966
g149
tp163
a(g160
F1.5707963267948966
g143
tp164
a(g160
F1.5707963267948966
g141
tp165
ag163
ag164
a(g160
F1.5707963267948966
g149
tp166
a(S'p4'
p167
F1.5707963267948966
g149
tp168
asS's'
p169
(lp170
(g140
I0
g22
tp171
ag142
ag144
ag145
ag142
ag147
ag148
ag150
ag151
ag152
ag148
ag153
ag154
ag156
ag157
ag158
ag159
ag158
ag159
ag161
ag162
ag163
ag164
ag165
ag163
ag164
ag166
asS'ui'
p172
(lp173
S'hp'
p174
ag138
aS'hs'
p175
ag174
ag174
ag174
ag174
ag175
ag175
ag174
ag138
ag175
aS'ss'
p176
ag174
ag138
ag174
ag174
ag175
ag138
ag138
ag175
ag175
ag175
ag175
ag175
ag174
ag176
asS'um_before'
p177
(lp178
g174
ag174
ag138
ag174
ag138
ag174
ag174
ag174
ag175
ag174
ag176
ag174
ag176
ag138
ag174
ag174
ag174
ag175
ag138
ag138
ag175
ag175
ag175
ag174
ag175
ag174
ag176
asS'um_after'
p179
(lp180
g175
ag174
ag138
ag175
ag138
ag174
ag174
ag175
ag175
ag174
ag138
ag174
ag176
ag174
ag174
ag175
ag174
ag175
ag138
ag138
ag175
ag175
ag175
ag175
ag175
ag174
ag176
asS'is_normalized_entropy_less_than_threshold'
p181
(lp182
g50
(g51
(S'b1'
p183
I0
I1
tp184
Rp185
(I3
S'|'
p186
NNNI-1
I-1
I0
tp187
bS'\x01'
p188
tp189
Rp190
ag190
ag190
ag190
ag190
ag190
ag190
ag190
ag50
(g185
S'\x00'
p191
tp192
Rp193
ag190
ag190
ag190
ag190
ag190
ag190
ag190
ag190
ag190
ag190
ag190
ag190
ag190
ag190
ag190
ag190
ag190
ag190
asaa(lp194
S'index'
p195
aI55688
aatp196
Rp197
.