ccollections
OrderedDict
p0
((lp1
(lp2
S'combination_dict'
p3
ag0
((lp4
(lp5
S'r_to_g_config'
p6
aS'tr'
p7
aa(lp8
S'num_turns'
p9
aI2
aa(lp10
S'start_direction'
p11
acutils_ms
StartDirection
p12
(I1
tp13
Rp14
aa(lp15
S'assistance_type'
p16
acutils_ms
AssistanceType
p17
(I1
tp18
Rp19
aa(lp20
S'start_mode'
p21
aS't'
p22
aa(lp23
S'ui_given_a_noise'
p24
aF0.7
aa(lp25
S'um_given_ui_noise'
p26
aF0.7
aa(lp27
S'entropy_threshold'
p28
aF0.5
aatp29
Rp30
aa(lp31
S'data'
p32
accollections
defaultdict
p33
(c__builtin__
list
p34
tp35
Rp36
S'a'
p37
(lp38
S'mode_l'
p39
aS'move_p'
p40
ag40
ag40
ag40
aS'mode_r'
p41
ag39
ag41
ag39
ag41
ag40
ag41
ag41
ag40
ag41
ag41
ag40
ag41
ag39
ag39
ag40
ag40
ag39
ag40
ag41
ag41
ag41
ag41
ag41
ag41
ag41
ag39
ag40
ag40
ag41
ag41
ag40
ag41
ag41
ag39
ag39
ag40
ag39
ag39
ag40
ag40
ag39
ag40
ag41
ag40
ag40
ag39
ag39
ag40
ag41
ag40
ag41
ag41
ag39
ag39
ag40
ag39
ag40
ag41
ag41
ag41
ag41
ag41
ag40
ag39
ag39
ag39
ag39
ag40
asS'assistance_match_with_ground_truth'
p42
(lp43
I01
aI00
aI00
aI00
aI01
aI00
aI00
aI00
aI00
aI01
aI00
aI00
aI01
aI01
aI00
aI01
aI00
aI00
aI00
aI01
aI00
aI01
aI01
aI00
aI00
aI00
aI00
aI00
aI00
aI00
aI00
aI01
aI00
aI00
aI00
aI01
aI00
aI00
aI00
aI00
aI01
aI00
aI00
aI01
aI00
aI01
aI01
aI00
aI01
aI00
aI01
aI00
aI01
aI00
aI01
aI01
aI00
aI00
aI00
aI01
aI00
aI01
aI00
aI00
aI00
aI00
aI00
aI01
aI00
aI00
aI00
aI00
aI01
aI01
asS'is_u_intended_equals_um'
p44
(lp45
I01
aI00
aI00
aI00
aI01
aI00
aI00
aI00
aI00
aI01
aI00
aI01
aI01
aI01
aI01
aI01
aI00
aI00
aI00
aI01
aI00
aI01
aI01
aI00
aI01
aI01
aI01
aI01
aI01
aI01
aI00
aI01
aI00
aI00
aI01
aI01
aI00
aI01
aI00
aI01
aI01
aI01
aI00
aI01
aI00
aI01
aI01
aI00
aI01
aI00
aI01
aI01
aI01
aI00
aI01
aI01
aI01
aI00
aI00
aI01
aI01
aI01
aI00
aI01
aI01
aI01
aI01
aI01
aI01
aI01
aI00
aI00
aI01
aI01
asS'total_steps'
p46
I74
sS'normalized_h_of_p_ui_given_um'
p47
(lp48
cnumpy.core.multiarray
scalar
p49
(cnumpy
dtype
p50
(S'f8'
p51
I0
I1
tp52
Rp53
(I3
S'<'
p54
NNNI-1
I-1
I0
tp55
bS'\xf50\xee^C\x81\xe4?'
p56
tp57
Rp58
ag49
(g53
S'R^\xde\x15\x0f\n\xe9?'
p59
tp60
Rp61
ag49
(g53
S'R^\xde\x15\x0f\n\xe9?'
p62
tp63
Rp64
ag49
(g53
S'R^\xde\x15\x0f\n\xe9?'
p65
tp66
Rp67
ag49
(g53
S'\xa3L\xaa\xb8-\x85\xe5?'
p68
tp69
Rp70
ag49
(g53
S'c\x12i\x14\xd0\xfc\xea?'
p71
tp72
Rp73
ag49
(g53
S'r\xa3j\x90)P\xeb?'
p74
tp75
Rp76
ag49
(g53
S'c\x12i\x14\xd0\xfc\xea?'
p77
tp78
Rp79
ag49
(g53
S'J|\x8b\xd4O\xe5\xea?'
p80
tp81
Rp82
ag49
(g53
S'-\xa7\xe0\x8b \xcf\xeb?'
p83
tp84
Rp85
ag49
(g53
S'R^\xde\x15\x0f\n\xe9?'
p86
tp87
Rp88
ag49
(g53
S'{\xda\x99I\x83!\xec?'
p89
tp90
Rp91
ag49
(g53
S'-\xa7\xe0\x8b \xcf\xeb?'
p92
tp93
Rp94
ag49
(g53
S'\xa3L\xaa\xb8-\x85\xe5?'
p95
tp96
Rp97
ag49
(g53
S'\xd6\xbb=\xaf{\xd2\xee?'
p98
tp99
Rp100
ag49
(g53
S'-\xa7\xe0\x8b \xcf\xeb?'
p101
tp102
Rp103
ag49
(g53
S'R^\xde\x15\x0f\n\xe9?'
p104
tp105
Rp106
ag49
(g53
S'c\x12i\x14\xd0\xfc\xea?'
p107
tp108
Rp109
ag49
(g53
S'r\xa3j\x90)P\xeb?'
p110
tp111
Rp112
ag49
(g53
S'\xf50\xee^C\x81\xe4?'
p113
tp114
Rp115
ag49
(g53
S'R^\xde\x15\x0f\n\xe9?'
p116
tp117
Rp118
ag49
(g53
S'\xa3L\xaa\xb8-\x85\xe5?'
p119
tp120
Rp121
ag49
(g53
S'\xf50\xee^C\x81\xe4?'
p122
tp123
Rp124
ag49
(g53
S'R^\xde\x15\x0f\n\xe9?'
p125
tp126
Rp127
ag49
(g53
S'{\xda\x99I\x83!\xec?'
p128
tp129
Rp130
ag49
(g53
S'\xd6\xbb=\xaf{\xd2\xee?'
p131
tp132
Rp133
ag49
(g53
S'\xd6\xbb=\xaf{\xd2\xee?'
p134
tp135
Rp136
ag49
(g53
S'\xd6\xbb=\xaf{\xd2\xee?'
p137
tp138
Rp139
ag49
(g53
S'{\xda\x99I\x83!\xec?'
p140
tp141
Rp142
ag49
(g53
S'\xd6\xbb=\xaf{\xd2\xee?'
p143
tp144
Rp145
ag49
(g53
S'c\x12i\x14\xd0\xfc\xea?'
p146
tp147
Rp148
ag49
(g53
S'\xf50\xee^C\x81\xe4?'
p149
tp150
Rp151
ag49
(g53
S'R^\xde\x15\x0f\n\xe9?'
p152
tp153
Rp154
ag49
(g53
S'\xa1\x01\x8e#>\xe5\xeb?'
p155
tp156
Rp157
ag49
(g53
S'{\xda\x99I\x83!\xec?'
p158
tp159
Rp160
ag49
(g53
S'-\xa7\xe0\x8b \xcf\xeb?'
p161
tp162
Rp163
ag49
(g53
S'\xa1\x01\x8e#>\xe5\xeb?'
p164
tp165
Rp166
ag49
(g53
S'\xd6\xbb=\xaf{\xd2\xee?'
p167
tp168
Rp169
ag49
(g53
S'c\x12i\x14\xd0\xfc\xea?'
p170
tp171
Rp172
ag49
(g53
S'\xe0\x1a\x83S(l\xed?'
p173
tp174
Rp175
ag49
(g53
S'\xf50\xee^C\x81\xe4?'
p176
tp177
Rp178
ag49
(g53
S'.\xa4\x19 i\x92\xea?'
p179
tp180
Rp181
ag49
(g53
S'r\xa3j\x90)P\xeb?'
p182
tp183
Rp184
ag49
(g53
S'\xf50\xee^C\x81\xe4?'
p185
tp186
Rp187
ag49
(g53
S'R^\xde\x15\x0f\n\xe9?'
p188
tp189
Rp190
ag49
(g53
S'\xa3L\xaa\xb8-\x85\xe5?'
p191
tp192
Rp193
ag49
(g53
S'\xf50\xee^C\x81\xe4?'
p194
tp195
Rp196
ag49
(g53
S'R^\xde\x15\x0f\n\xe9?'
p197
tp198
Rp199
ag49
(g53
S'-\xa7\xe0\x8b \xcf\xeb?'
p200
tp201
Rp202
ag49
(g53
S'R^\xde\x15\x0f\n\xe9?'
p203
tp204
Rp205
ag49
(g53
S'\xa3L\xaa\xb8-\x85\xe5?'
p206
tp207
Rp208
ag49
(g53
S'\xe0\x1a\x83S(l\xed?'
p209
tp210
Rp211
ag49
(g53
S'\xf50\xee^C\x81\xe4?'
p212
tp213
Rp214
ag49
(g53
S'\xa1\x01\x8e#>\xe5\xeb?'
p215
tp216
Rp217
ag49
(g53
S'-\xa7\xe0\x8b \xcf\xeb?'
p218
tp219
Rp220
ag49
(g53
S'\xa3L\xaa\xb8-\x85\xe5?'
p221
tp222
Rp223
ag49
(g53
S'\xd6\xbb=\xaf{\xd2\xee?'
p224
tp225
Rp226
ag49
(g53
S'c\x12i\x14\xd0\xfc\xea?'
p227
tp228
Rp229
ag49
(g53
S'r\xa3j\x90)P\xeb?'
p230
tp231
Rp232
ag49
(g53
S'\xf50\xee^C\x81\xe4?'
p233
tp234
Rp235
ag49
(g53
S'.\xa4\x19 i\x92\xea?'
p236
tp237
Rp238
ag49
(g53
S'\xf50\xee^C\x81\xe4?'
p239
tp240
Rp241
ag49
(g53
S'\xa1\x01\x8e#>\xe5\xeb?'
p242
tp243
Rp244
ag49
(g53
S'\xd6\xbb=\xaf{\xd2\xee?'
p245
tp246
Rp247
ag49
(g53
S'\xd6\xbb=\xaf{\xd2\xee?'
p248
tp249
Rp250
ag49
(g53
S'{\xda\x99I\x83!\xec?'
p251
tp252
Rp253
ag49
(g53
S'\xd6\xbb=\xaf{\xd2\xee?'
p254
tp255
Rp256
ag49
(g53
S'-\xa7\xe0\x8b \xcf\xeb?'
p257
tp258
Rp259
ag49
(g53
S'.\xa4\x19 i\x92\xea?'
p260
tp261
Rp262
ag49
(g53
S'\xe0\x1a\x83S(l\xed?'
p263
tp264
Rp265
ag49
(g53
S'r\xa3j\x90)P\xeb?'
p266
tp267
Rp268
ag49
(g53
S'r\xa3j\x90)P\xeb?'
p269
tp270
Rp271
ag49
(g53
S'\xf50\xee^C\x81\xe4?'
p272
tp273
Rp274
ag49
(g53
S'\xa3L\xaa\xb8-\x85\xe5?'
p275
tp276
Rp277
asS'sp'
p278
(lp279
(S'p0'
p280
I0
S'y'
p281
tp282
a(g280
I0
g281
tp283
ag283
ag283
a(S'p1'
p284
I0
g281
tp285
a(g284
I0
S'x'
p286
tp287
a(S'p2'
p288
I0
g286
tp289
a(g288
I0
S't'
p290
tp291
a(g288
I0
g286
tp292
a(g288
I0
g281
tp293
a(g284
I0
g281
tp294
a(g284
I0
g281
tp295
a(g284
I0
g290
tp296
a(g284
F1.5707963267948966
g290
tp297
a(g284
F1.5707963267948966
g290
tp298
a(g284
F1.5707963267948966
g286
tp299
a(g280
F1.5707963267948966
g286
tp300
a(g280
F1.5707963267948966
g290
tp301
a(g280
F1.5707963267948966
g290
tp302
a(g280
F1.5707963267948966
g281
tp303
a(g280
F1.5707963267948966
g281
tp304
a(g284
F1.5707963267948966
g281
tp305
a(g284
F1.5707963267948966
g286
tp306
ag300
a(g280
F1.5707963267948966
g286
tp307
a(g280
F1.5707963267948966
g286
tp308
ag308
ag308
ag307
ag308
ag301
ag303
ag304
a(g280
F1.5707963267948966
g286
tp309
ag307
a(g280
F1.5707963267948966
g281
tp310
ag309
ag308
ag301
a(g280
F1.5707963267948966
g290
tp311
ag303
a(g280
F1.5707963267948966
g290
tp312
ag302
ag303
ag304
ag305
ag306
ag300
ag310
ag304
ag305
a(g284
F1.5707963267948966
g281
tp313
ag306
a(g284
F1.5707963267948966
g290
tp314
ag299
a(g288
F1.5707963267948966
g286
tp315
a(g288
F1.5707963267948966
g286
tp316
a(g288
F1.5707963267948966
g290
tp317
a(g288
F1.5707963267948966
g290
tp318
a(g288
F1.5707963267948966
g281
tp319
a(g288
F1.5707963267948966
g290
tp320
ag319
a(g288
F1.5707963267948966
g286
tp321
ag316
ag316
a(g288
F1.5707963267948966
g286
tp322
ag316
a(g288
F1.5707963267948966
g281
tp323
ag320
a(g288
F1.5707963267948966
g290
tp324
ag318
ag318
ag319
a(S'p3'
p325
F1.5707963267948966
g281
tp326
asS's'
p327
(lp328
(g280
I0
g22
tp329
ag282
ag283
ag283
ag283
ag285
ag287
ag289
ag291
ag292
ag293
ag294
ag295
ag296
ag297
ag298
ag299
ag300
ag301
ag302
ag303
ag304
ag305
ag306
ag300
ag307
ag308
ag308
ag308
ag307
ag308
ag301
ag303
ag304
ag309
ag307
ag310
ag309
ag308
ag301
ag311
ag303
ag312
ag302
ag303
ag304
ag305
ag306
ag300
ag310
ag304
ag305
ag313
ag306
ag314
ag299
ag315
ag316
ag317
ag318
ag319
ag320
ag319
ag321
ag316
ag316
ag322
ag316
ag323
ag320
ag324
ag318
ag318
ag319
asS'ui'
p330
(lp331
S'hp'
p332
ag278
aS'ss'
p333
ag332
ag332
ag278
ag278
aS'hs'
p334
ag334
ag332
ag278
ag332
ag332
ag278
ag278
ag332
ag333
ag334
ag334
ag334
ag278
ag333
ag334
ag278
ag334
ag278
ag278
ag332
ag332
ag278
ag332
ag333
ag333
ag278
ag333
ag334
ag334
ag332
ag333
ag333
ag334
ag332
ag333
ag334
ag333
ag332
ag332
ag278
ag332
ag333
ag334
ag332
ag334
ag332
ag278
ag332
ag278
ag332
ag334
ag334
ag278
ag334
ag333
ag278
ag333
ag333
ag278
ag332
ag332
ag333
ag334
ag334
ag334
ag278
asS'um_before'
p335
(lp336
g334
ag333
ag333
ag333
ag278
ag334
ag278
ag334
ag332
ag332
ag333
ag333
ag332
ag278
ag278
ag332
ag333
ag334
ag278
ag334
ag333
ag278
ag334
ag333
ag333
ag278
ag278
ag278
ag333
ag278
ag334
ag334
ag333
ag334
ag333
ag332
ag334
ag278
ag334
ag333
ag334
ag332
ag278
ag334
ag333
ag278
ag334
ag333
ag332
ag333
ag278
ag333
ag334
ag334
ag332
ag278
ag278
ag334
ag278
ag334
ag332
ag334
ag334
ag278
ag278
ag333
ag278
ag332
ag332
ag333
ag278
ag278
ag334
ag278
asS'um_after'
p337
(lp338
g334
ag333
ag333
ag333
ag278
ag334
ag278
ag334
ag332
ag332
ag333
ag333
ag332
ag278
ag278
ag332
ag333
ag334
ag278
ag334
ag333
ag278
ag334
ag333
ag333
ag278
ag278
ag278
ag333
ag278
ag334
ag334
ag333
ag334
ag333
ag332
ag334
ag278
ag334
ag333
ag334
ag332
ag278
ag334
ag333
ag278
ag334
ag333
ag332
ag333
ag278
ag333
ag334
ag334
ag332
ag278
ag278
ag334
ag278
ag334
ag332
ag334
ag334
ag278
ag278
ag333
ag278
ag332
ag332
ag333
ag278
ag278
ag334
ag278
asS'is_normalized_entropy_less_than_threshold'
p339
(lp340
g49
(g50
(S'b1'
p341
I0
I1
tp342
Rp343
(I3
S'|'
p344
NNNI-1
I-1
I0
tp345
bS'\x00'
p346
tp347
Rp348
ag348
ag348
ag348
ag348
ag348
ag348
ag348
ag348
ag348
ag348
ag348
ag348
ag348
ag348
ag348
ag348
ag348
ag348
ag348
ag348
ag348
ag348
ag348
ag348
ag348
ag348
ag348
ag348
ag348
ag348
ag348
ag348
ag348
ag348
ag348
ag348
ag348
ag348
ag348
ag348
ag348
ag348
ag348
ag348
ag348
ag348
ag348
ag348
ag348
ag348
ag348
ag348
ag348
ag348
ag348
ag348
ag348
ag348
ag348
ag348
ag348
ag348
ag348
ag348
ag348
ag348
ag348
ag348
ag348
ag348
ag348
ag348
ag348
asaa(lp349
S'index'
p350
aI17557
aatp351
Rp352
.