ccollections
OrderedDict
p0
((lp1
(lp2
S'combination_dict'
p3
ag0
((lp4
(lp5
S'r_to_g_config'
p6
aS'tl'
p7
aa(lp8
S'num_turns'
p9
aI3
aa(lp10
S'start_direction'
p11
acutils_ms
StartDirection
p12
(I1
tp13
Rp14
aa(lp15
S'assistance_type'
p16
acutils_ms
AssistanceType
p17
(I0
tp18
Rp19
aa(lp20
S'start_mode'
p21
aS'x'
p22
aa(lp23
S'ui_given_a_noise'
p24
aF0.1
aa(lp25
S'um_given_ui_noise'
p26
aF0.3
aa(lp27
S'entropy_threshold'
p28
aF0.7
aatp29
Rp30
aa(lp31
S'data'
p32
accollections
defaultdict
p33
(c__builtin__
list
p34
tp35
Rp36
S'a'
p37
(lp38
S'mode_r'
p39
ag39
aS'move_p'
p40
aS'mode_l'
p41
aS'move_n'
p42
ag42
ag42
ag41
ag40
ag41
ag40
ag41
ag42
ag39
ag40
ag41
ag41
ag42
asS'assistance_match_with_ground_truth'
p43
(lp44
I00
aI01
aI01
aI01
aI00
aI00
aI01
aI01
aI01
aI01
aI00
aI01
aI01
aI01
aI01
aI00
aI01
aI01
asS'is_u_intended_equals_um'
p45
(lp46
I00
aI01
aI01
aI01
aI00
aI00
aI01
aI01
aI01
aI01
aI01
aI01
aI01
aI01
aI01
aI00
aI01
aI01
asS'total_steps'
p47
I18
sS'normalized_h_of_p_ui_given_um'
p48
(lp49
cnumpy.core.multiarray
scalar
p50
(cnumpy
dtype
p51
(S'f8'
p52
I0
I1
tp53
Rp54
(I3
S'<'
p55
NNNI-1
I-1
I0
tp56
bS'3]\xee\xf2A\x06\xc7?'
p57
tp58
Rp59
ag50
(g54
S'\xd6\xe4\x7f\x88\r\xca\xae?'
p60
tp61
Rp62
ag50
(g54
S'V\x01\x8azE2\xb6?'
p63
tp64
Rp65
ag50
(g54
S'\xd6\x7f\xb4\x93D`\xc0?'
p66
tp67
Rp68
ag50
(g54
S'\x90hJ\x17\x06<\xe4?'
p69
tp70
Rp71
ag50
(g54
S'\x90hJ\x17\x06<\xe4?'
p72
tp73
Rp74
ag50
(g54
S'\tm\xde\xd6\xeej\xb0?'
p75
tp76
Rp77
ag50
(g54
S'\xd6\x7f\xb4\x93D`\xc0?'
p78
tp79
Rp80
ag50
(g54
S'V\x01\x8azE2\xb6?'
p81
tp82
Rp83
ag50
(g54
S'\xd6\x7f\xb4\x93D`\xc0?'
p84
tp85
Rp86
ag50
(g54
S'\x86\xa6\x0b\x99g~\xe8?'
p87
tp88
Rp89
ag50
(g54
S'\xd6\x7f\xb4\x93D`\xc0?'
p90
tp91
Rp92
ag50
(g54
S'\tm\xde\xd6\xeej\xb0?'
p93
tp94
Rp95
ag50
(g54
S'\xd6\xe4\x7f\x88\r\xca\xae?'
p96
tp97
Rp98
ag50
(g54
S'V\x01\x8azE2\xb6?'
p99
tp100
Rp101
ag50
(g54
S'\xb0\xb5\x92\x98%\x1c\xe1?'
p102
tp103
Rp104
ag50
(g54
S'\xd6\x7f\xb4\x93D`\xc0?'
p105
tp106
Rp107
ag50
(g54
S'\tm\xde\xd6\xeej\xb0?'
p108
tp109
Rp110
asS'sp'
p111
(lp112
(S'p0'
p113
I0
g22
tp114
a(g113
I0
S'y'
p115
tp116
a(S'p1'
p117
I0
g115
tp118
a(g117
I0
S'x'
p119
tp120
ag120
ag120
a(S'p2'
p121
I0
g119
tp122
a(g121
I0
S't'
p123
tp124
a(g121
F1.5707963267948966
g123
tp125
a(g121
F1.5707963267948966
g115
tp126
a(g117
F1.5707963267948966
g115
tp127
a(g117
F1.5707963267948966
g119
tp128
a(g121
F1.5707963267948966
g119
tp129
a(g121
F1.5707963267948966
g115
tp130
a(S'p3'
p131
F1.5707963267948966
g115
tp132
ag132
a(g131
F1.5707963267948966
g119
tp133
a(S'p4'
p134
F1.5707963267948966
g119
tp135
asS's'
p136
(lp137
g114
ag114
ag116
ag118
ag120
ag120
ag120
ag122
ag124
ag125
ag126
ag127
ag128
ag129
ag130
ag132
ag132
ag133
asS'ui'
p138
(lp139
S'hp'
p140
ag140
ag111
aS'hs'
p141
aS'ss'
p142
ag140
ag142
ag141
ag111
ag141
ag140
ag141
ag142
ag140
ag111
ag141
ag141
ag142
asS'um_before'
p143
(lp144
g142
ag140
ag111
ag141
ag140
ag140
ag142
ag141
ag111
ag141
ag142
ag141
ag142
ag140
ag111
ag140
ag141
ag142
asS'um_after'
p145
(lp146
Nag140
ag111
ag141
aNaNag142
ag141
ag111
ag141
ag142
ag141
ag142
ag140
ag111
aNag141
ag142
asS'is_normalized_entropy_less_than_threshold'
p147
(lp148
g50
(g51
(S'b1'
p149
I0
I1
tp150
Rp151
(I3
S'|'
p152
NNNI-1
I-1
I0
tp153
bS'\x01'
p154
tp155
Rp156
ag156
ag156
ag156
ag156
ag156
ag156
ag156
ag156
ag156
ag50
(g151
S'\x00'
p157
tp158
Rp159
ag156
ag156
ag156
ag156
ag156
ag156
ag156
asaa(lp160
S'index'
p161
aI52876
aatp162
Rp163
.