ccollections
OrderedDict
p0
((lp1
(lp2
S'combination_dict'
p3
ag0
((lp4
(lp5
S'r_to_g_config'
p6
aS'bl'
p7
aa(lp8
S'num_turns'
p9
aI1
aa(lp10
S'start_direction'
p11
acutils_ms
StartDirection
p12
(I0
tp13
Rp14
aa(lp15
S'assistance_type'
p16
acutils_ms
AssistanceType
p17
(I2
tp18
Rp19
aa(lp20
S'start_mode'
p21
aS't'
p22
aa(lp23
S'ui_given_a_noise'
p24
aF0.7
aa(lp25
S'um_given_ui_noise'
p26
aF0.1
aa(lp27
S'entropy_threshold'
p28
aF0.7
aatp29
Rp30
aa(lp31
S'data'
p32
accollections
defaultdict
p33
(c__builtin__
list
p34
tp35
Rp36
S'a'
p37
(lp38
S'mode_r'
p39
ag39
aS'move_n'
p40
aS'mode_l'
p41
aS'move_p'
p42
ag41
ag42
ag41
ag40
asS'assistance_match_with_ground_truth'
p43
(lp44
I00
aI01
aI01
aI01
aI00
aI01
aI01
aI01
aI01
asS'is_u_intended_equals_um'
p45
(lp46
I01
aI01
aI01
aI01
aI01
aI01
aI01
aI01
aI01
asS'total_steps'
p47
I9
sS'normalized_h_of_p_ui_given_um'
p48
(lp49
cnumpy.core.multiarray
scalar
p50
(cnumpy
dtype
p51
(S'f8'
p52
I0
I1
tp53
Rp54
(I3
S'<'
p55
NNNI-1
I-1
I0
tp56
bS'!\xdd\x8f\xb6\xb8w\xd5?'
p57
tp58
Rp59
ag59
ag59
ag59
ag59
ag59
ag59
ag59
ag59
asS'sp'
p60
(lp61
(S'p0'
p62
I0
S't'
p63
tp64
a(g62
I0
S'x'
p65
tp66
a(S'p1'
p67
I0
g65
tp68
a(g67
I0
g63
tp69
a(g67
I0
g65
tp70
ag69
a(g67
F1.5707963267948966
g63
tp71
a(g67
F1.5707963267948966
S'y'
p72
tp73
a(S'p2'
p74
F1.5707963267948966
g72
tp75
asS's'
p76
(lp77
(g62
I0
g22
tp78
ag64
ag66
ag68
ag69
ag70
ag69
ag71
ag73
asS'ui'
p79
(lp80
S'ss'
p81
aS'hp'
p82
ag81
aS'hs'
p83
ag82
ag81
ag60
ag83
ag81
asS'um_before'
p84
(lp85
g81
ag82
ag81
ag83
ag82
ag83
ag60
ag83
ag81
asS'um_after'
p86
(lp87
g81
ag82
ag81
ag83
ag82
ag83
ag60
ag83
ag81
asS'is_normalized_entropy_less_than_threshold'
p88
(lp89
g50
(g51
(S'b1'
p90
I0
I1
tp91
Rp92
(I3
S'|'
p93
NNNI-1
I-1
I0
tp94
bS'\x01'
p95
tp96
Rp97
ag97
ag97
ag97
ag97
ag97
ag97
ag97
ag97
asaa(lp98
S'index'
p99
aI61424
aatp100
Rp101
.