ccollections
OrderedDict
p0
((lp1
(lp2
S'combination_dict'
p3
ag0
((lp4
(lp5
S'r_to_g_config'
p6
aS'br'
p7
aa(lp8
S'num_turns'
p9
aI2
aa(lp10
S'start_direction'
p11
acutils_ms
StartDirection
p12
(I1
tp13
Rp14
aa(lp15
S'assistance_type'
p16
acutils_ms
AssistanceType
p17
(I0
tp18
Rp19
aa(lp20
S'start_mode'
p21
aS'x'
p22
aa(lp23
S'ui_given_a_noise'
p24
aF0.3
aa(lp25
S'um_given_ui_noise'
p26
aF0.7
aa(lp27
S'entropy_threshold'
p28
aF0.9
aatp29
Rp30
aa(lp31
S'data'
p32
accollections
defaultdict
p33
(c__builtin__
list
p34
tp35
Rp36
S'a'
p37
(lp38
S'mode_r'
p39
aS'move_n'
p40
aS'mode_l'
p41
ag41
ag41
aS'move_p'
p42
ag41
ag39
ag39
ag42
ag42
ag41
ag41
ag41
ag41
ag41
ag41
ag41
ag41
ag41
ag41
ag40
ag40
asS'assistance_match_with_ground_truth'
p43
(lp44
I01
aI01
aI00
aI00
aI01
aI01
aI00
aI00
aI01
aI00
aI01
aI00
aI00
aI00
aI00
aI00
aI00
aI00
aI00
aI00
aI01
aI00
aI01
asS'is_u_intended_equals_um'
p45
(lp46
I01
aI01
aI00
aI00
aI01
aI01
aI01
aI00
aI01
aI00
aI01
aI00
aI00
aI00
aI00
aI00
aI00
aI00
aI00
aI00
aI01
aI00
aI01
asS'total_steps'
p47
I23
sS'normalized_h_of_p_ui_given_um'
p48
(lp49
cnumpy.core.multiarray
scalar
p50
(cnumpy
dtype
p51
(S'f8'
p52
I0
I1
tp53
Rp54
(I3
S'<'
p55
NNNI-1
I-1
I0
tp56
bS'\xd7\xc7K\x90\x0f_\xda?'
p57
tp58
Rp59
ag50
(g54
S'L,\x0bF&\x9f\xde?'
p60
tp61
Rp62
ag50
(g54
S'(\xb6\xb1\xdc\xbcy\xdb?'
p63
tp64
Rp65
ag50
(g54
S'\xef\x1d\x8e\xde\xe4\x96\xe6?'
p66
tp67
Rp68
ag50
(g54
S'gc#\xcb\xb9A\xdf?'
p69
tp70
Rp71
ag50
(g54
S'\xa8\x0f\x8f4\x8aX\xdb?'
p72
tp73
Rp74
ag50
(g54
S'\xb0\xe16\xb8sW\xe8?'
p75
tp76
Rp77
ag50
(g54
S'\xdb\xf5\x18lh\xef\xde?'
p78
tp79
Rp80
ag50
(g54
S'\xd7\xc7K\x90\x0f_\xda?'
p81
tp82
Rp83
ag50
(g54
S'?\x03Vb\x13\x11\xe7?'
p84
tp85
Rp86
ag50
(g54
S'\xa8\x0f\x8f4\x8aX\xdb?'
p87
tp88
Rp89
ag50
(g54
S'(\xb6\xb1\xdc\xbcy\xdb?'
p90
tp91
Rp92
ag50
(g54
S'(\xb6\xb1\xdc\xbcy\xdb?'
p93
tp94
Rp95
ag50
(g54
S'\xef\x1d\x8e\xde\xe4\x96\xe6?'
p96
tp97
Rp98
ag50
(g54
S'(\xb6\xb1\xdc\xbcy\xdb?'
p99
tp100
Rp101
ag50
(g54
S'(\xb6\xb1\xdc\xbcy\xdb?'
p102
tp103
Rp104
ag50
(g54
S'(\xb6\xb1\xdc\xbcy\xdb?'
p105
tp106
Rp107
ag50
(g54
S'(\xb6\xb1\xdc\xbcy\xdb?'
p108
tp109
Rp110
ag50
(g54
S'\xef\x1d\x8e\xde\xe4\x96\xe6?'
p111
tp112
Rp113
ag50
(g54
S'(\xb6\xb1\xdc\xbcy\xdb?'
p114
tp115
Rp116
ag50
(g54
S'gc#\xcb\xb9A\xdf?'
p117
tp118
Rp119
ag50
(g54
S'k{\xc7\xbf\x0b\xc4\xe5?'
p120
tp121
Rp122
ag50
(g54
S'L,\x0bF&\x9f\xde?'
p123
tp124
Rp125
asS'sp'
p126
(lp127
(S'p0'
p128
I0
S'y'
p129
tp130
a(S'p1'
p131
I0
g129
tp132
ag132
ag132
a(g131
I0
S'x'
p133
tp134
a(S'p2'
p135
I0
g133
tp136
a(g135
I0
g129
tp137
ag137
a(g135
I0
S't'
p138
tp139
ag139
a(g135
F1.5707963267948966
g138
tp140
ag140
ag140
ag140
ag140
ag140
ag140
ag140
ag140
ag140
a(g135
F1.5707963267948966
g129
tp141
ag141
a(S'p3'
p142
F1.5707963267948966
g129
tp143
asS's'
p144
(lp145
(g128
I0
g22
tp146
ag130
ag132
ag132
ag132
ag134
ag136
ag137
ag137
ag139
ag139
ag140
ag140
ag140
ag140
ag140
ag140
ag140
ag140
ag140
ag140
ag141
ag141
asS'ui'
p147
(lp148
S'ss'
p149
aS'hs'
p150
ag150
ag126
ag150
ag126
ag150
aS'hp'
p151
ag151
ag126
ag151
ag151
ag126
ag151
ag150
ag150
ag150
ag150
ag150
ag150
ag150
ag150
ag149
asS'um_before'
p152
(lp153
g151
ag149
ag149
ag126
ag150
ag126
ag151
ag150
ag151
ag150
ag126
ag149
ag149
ag126
ag149
ag149
ag149
ag149
ag126
ag149
ag150
ag126
ag149
asS'um_after'
p154
(lp155
g151
ag149
aNaNag150
ag126
ag151
aNag151
aNag126
aNaNaNaNaNaNaNaNaNag150
aNag149
asS'is_normalized_entropy_less_than_threshold'
p156
(lp157
g50
(g51
(S'b1'
p158
I0
I1
tp159
Rp160
(I3
S'|'
p161
NNNI-1
I-1
I0
tp162
bS'\x01'
p163
tp164
Rp165
ag165
ag165
ag165
ag165
ag165
ag165
ag165
ag165
ag165
ag165
ag165
ag165
ag165
ag165
ag165
ag165
ag165
ag165
ag165
ag165
ag165
ag165
asaa(lp166
S'index'
p167
aI101199
aatp168
Rp169
.