ccollections
OrderedDict
p0
((lp1
(lp2
S'combination_dict'
p3
ag0
((lp4
(lp5
S'r_to_g_config'
p6
aS'tr'
p7
aa(lp8
S'num_turns'
p9
aI3
aa(lp10
S'start_direction'
p11
acutils_ms
StartDirection
p12
(I0
tp13
Rp14
aa(lp15
S'assistance_type'
p16
acutils_ms
AssistanceType
p17
(I1
tp18
Rp19
aa(lp20
S'start_mode'
p21
aS't'
p22
aa(lp23
S'ui_given_a_noise'
p24
aF0.1
aa(lp25
S'um_given_ui_noise'
p26
aF0.5
aa(lp27
S'entropy_threshold'
p28
aF0.8
aatp29
Rp30
aa(lp31
S'data'
p32
accollections
defaultdict
p33
(c__builtin__
list
p34
tp35
Rp36
S'a'
p37
(lp38
S'mode_r'
p39
aS'mode_l'
p40
aS'move_p'
p41
ag39
ag41
ag40
ag41
ag40
ag41
ag40
ag41
asS'assistance_match_with_ground_truth'
p42
(lp43
I00
aI01
aI01
aI01
aI01
aI01
aI01
aI01
aI01
aI01
aI01
asS'is_u_intended_equals_um'
p44
(lp45
I01
aI01
aI01
aI01
aI01
aI01
aI00
aI00
aI01
aI01
aI01
asS'total_steps'
p46
I11
sS'normalized_h_of_p_ui_given_um'
p47
(lp48
cnumpy.core.multiarray
scalar
p49
(cnumpy
dtype
p50
(S'f8'
p51
I0
I1
tp52
Rp53
(I3
S'<'
p54
NNNI-1
I-1
I0
tp55
bS'\x17\xcb\x11\x10\xb6&\xe3?'
p56
tp57
Rp58
ag49
(g53
S'\xb2\x8b\xd7}`\x90\xba?'
p59
tp60
Rp61
ag49
(g53
S'\xb8<\x05\x90\x8cw\xb2?'
p62
tp63
Rp64
ag49
(g53
S'\xb5\xa8\x0e\xe2C;\xb4?'
p65
tp66
Rp67
ag49
(g53
S'\xb8<\x05\x90\x8cw\xb2?'
p68
tp69
Rp70
ag49
(g53
S'\xb2\x8b\xd7}`\x90\xba?'
p71
tp72
Rp73
ag49
(g53
S'$\x878\xc7Tl\xdf?'
p74
tp75
Rp76
ag49
(g53
S'\x9f\xb8\xf5g]0\xe7?'
p77
tp78
Rp79
ag49
(g53
S'\xb8<\x05\x90\x8cw\xb2?'
p80
tp81
Rp82
ag49
(g53
S'\xb2\x8b\xd7}`\x90\xba?'
p83
tp84
Rp85
ag49
(g53
S'\xb8<\x05\x90\x8cw\xb2?'
p86
tp87
Rp88
asS'sp'
p89
(lp90
(S'p0'
p91
I0
S'y'
p92
tp93
a(g91
I0
S'x'
p94
tp95
a(S'p1'
p96
I0
g94
tp97
a(g96
I0
g92
tp98
a(S'p2'
p99
I0
g92
tp100
a(g99
I0
g94
tp101
a(S'p3'
p102
I0
g94
tp103
a(g102
I0
S't'
p104
tp105
a(g102
F1.5707963267948966
g104
tp106
a(g102
F1.5707963267948966
g92
tp107
a(S'p4'
p108
F1.5707963267948966
g92
tp109
asS's'
p110
(lp111
(g91
I0
g22
tp112
ag93
ag95
ag97
ag98
ag100
ag101
ag103
ag105
ag106
ag107
asS'ui'
p113
(lp114
S'hs'
p115
ag115
ag89
aS'hp'
p116
ag89
ag115
ag115
ag115
ag89
ag115
ag89
asS'um_before'
p117
(lp118
g115
ag115
ag89
ag116
ag89
ag115
ag115
ag89
ag89
ag115
ag89
asS'um_after'
p119
(lp120
g115
ag115
ag89
ag116
ag89
ag115
ag89
ag115
ag89
ag115
ag89
asS'is_normalized_entropy_less_than_threshold'
p121
(lp122
g49
(g50
(S'b1'
p123
I0
I1
tp124
Rp125
(I3
S'|'
p126
NNNI-1
I-1
I0
tp127
bS'\x01'
p128
tp129
Rp130
ag130
ag130
ag130
ag130
ag130
ag130
ag130
ag130
ag130
ag130
asaa(lp131
S'index'
p132
aI20939
aatp133
Rp134
.