ccollections
OrderedDict
p0
((lp1
(lp2
S'combination_dict'
p3
ag0
((lp4
(lp5
S'r_to_g_config'
p6
aS'tr'
p7
aa(lp8
S'num_turns'
p9
aI2
aa(lp10
S'start_direction'
p11
acutils_ms
StartDirection
p12
(I0
tp13
Rp14
aa(lp15
S'assistance_type'
p16
acutils_ms
AssistanceType
p17
(I1
tp18
Rp19
aa(lp20
S'start_mode'
p21
aS'y'
p22
aa(lp23
S'ui_given_a_noise'
p24
aF0.5
aa(lp25
S'um_given_ui_noise'
p26
aF0.3
aa(lp27
S'entropy_threshold'
p28
aF0.7
aatp29
Rp30
aa(lp31
S'data'
p32
accollections
defaultdict
p33
(c__builtin__
list
p34
tp35
Rp36
S'a'
p37
(lp38
S'mode_l'
p39
aS'move_p'
p40
ag39
ag40
ag39
ag39
ag40
ag39
ag39
ag40
ag40
ag39
ag40
aS'mode_r'
p41
ag41
ag41
ag41
ag40
ag39
ag39
ag40
ag41
ag40
ag39
ag39
ag41
ag39
ag40
ag41
ag39
ag40
ag39
ag39
ag39
ag40
ag41
ag41
ag41
ag39
ag40
ag41
ag40
ag41
ag39
ag40
ag39
ag40
ag40
ag39
ag39
ag39
ag39
ag39
ag39
ag39
ag39
ag41
ag41
ag39
ag40
ag41
ag39
ag41
ag41
ag40
ag39
ag39
ag40
asS'assistance_match_with_ground_truth'
p42
(lp43
I01
aI01
aI01
aI01
aI00
aI01
aI00
aI00
aI01
aI00
aI00
aI01
aI01
aI00
aI00
aI00
aI01
aI00
aI00
aI01
aI01
aI01
aI00
aI00
aI00
aI00
aI01
aI00
aI00
aI01
aI00
aI00
aI00
aI01
aI01
aI00
aI00
aI00
aI01
aI00
aI01
aI00
aI00
aI01
aI00
aI01
aI00
aI00
aI00
aI00
aI00
aI00
aI00
aI00
aI00
aI00
aI00
aI00
aI01
aI01
aI00
aI00
aI00
aI01
aI01
aI00
aI01
aI01
asS'is_u_intended_equals_um'
p44
(lp45
I01
aI01
aI01
aI01
aI01
aI01
aI01
aI01
aI01
aI01
aI01
aI01
aI01
aI01
aI01
aI01
aI01
aI01
aI01
aI01
aI01
aI01
aI01
aI01
aI01
aI01
aI01
aI01
aI01
aI01
aI01
aI01
aI01
aI01
aI01
aI01
aI01
aI01
aI01
aI01
aI01
aI01
aI01
aI01
aI01
aI01
aI01
aI01
aI01
aI01
aI01
aI01
aI01
aI01
aI01
aI01
aI01
aI01
aI01
aI01
aI01
aI01
aI01
aI01
aI01
aI01
aI01
aI01
asS'total_steps'
p46
I68
sS'normalized_h_of_p_ui_given_um'
p47
(lp48
cnumpy.core.multiarray
scalar
p49
(cnumpy
dtype
p50
(S'f8'
p51
I0
I1
tp52
Rp53
(I3
S'<'
p54
NNNI-1
I-1
I0
tp55
bS'\xe0z\x9ee-d\xd7?'
p56
tp57
Rp58
ag49
(g53
S'-TI\x14\xcb\x19\xdc?'
p59
tp60
Rp61
ag49
(g53
S'\xe0z\x9ee-d\xd7?'
p62
tp63
Rp64
ag49
(g53
S'-TI\x14\xcb\x19\xdc?'
p65
tp66
Rp67
ag49
(g53
S'\x9f`\xbb\xd4\xc3\xab\xe4?'
p68
tp69
Rp70
ag49
(g53
S'\xe0z\x9ee-d\xd7?'
p71
tp72
Rp73
ag49
(g53
S'y@\x18\x1f\x8dG\xe8?'
p74
tp75
Rp76
ag49
(g53
S'\xbb\xce\xc2\xbc/\\\xe4?'
p77
tp78
Rp79
ag49
(g53
S'\xe0z\x9ee-d\xd7?'
p80
tp81
Rp82
ag49
(g53
S'y@\x18\x1f\x8dG\xe8?'
p83
tp84
Rp85
ag49
(g53
S'\xe74\x07\x00\x14\x9f\xea?'
p86
tp87
Rp88
ag49
(g53
S'\xe0z\x9ee-d\xd7?'
p89
tp90
Rp91
ag49
(g53
S'-TI\x14\xcb\x19\xdc?'
p92
tp93
Rp94
ag49
(g53
S'\xacq\xe2.\x03v\xe9?'
p95
tp96
Rp97
ag49
(g53
S'\xacq\xe2.\x03v\xe9?'
p98
tp99
Rp100
ag49
(g53
S'\xacq\xe2.\x03v\xe9?'
p101
tp102
Rp103
ag49
(g53
S'I\x89\x9d3\xfb\x06\xe0?'
p104
tp105
Rp106
ag49
(g53
S'y@\x18\x1f\x8dG\xe8?'
p107
tp108
Rp109
ag49
(g53
S'\x9f`\xbb\xd4\xc3\xab\xe4?'
p110
tp111
Rp112
ag49
(g53
S'\xe0z\x9ee-d\xd7?'
p113
tp114
Rp115
ag49
(g53
S'-TI\x14\xcb\x19\xdc?'
p116
tp117
Rp118
ag49
(g53
S'I\x89\x9d3\xfb\x06\xe0?'
p119
tp120
Rp121
ag49
(g53
S'\xe74\x07\x00\x14\x9f\xea?'
p122
tp123
Rp124
ag49
(g53
S'\x9f`\xbb\xd4\xc3\xab\xe4?'
p125
tp126
Rp127
ag49
(g53
S'\x8fp\xe3\x92\x8d\x1b\xef?'
p128
tp129
Rp130
ag49
(g53
S'\x1cp\xdc2Z\xff\xe6?'
p131
tp132
Rp133
ag49
(g53
S'\xe0z\x9ee-d\xd7?'
p134
tp135
Rp136
ag49
(g53
S'\x83\xf0\xd4\xd6`}\xe5?'
p137
tp138
Rp139
ag49
(g53
S'\x1cp\xdc2Z\xff\xe6?'
p140
tp141
Rp142
ag49
(g53
S'\xe0z\x9ee-d\xd7?'
p143
tp144
Rp145
ag49
(g53
S'y@\x18\x1f\x8dG\xe8?'
p146
tp147
Rp148
ag49
(g53
S'\xbb\xce\xc2\xbc/\\\xe4?'
p149
tp150
Rp151
ag49
(g53
S'\xbb\xce\xc2\xbc/\\\xe4?'
p152
tp153
Rp154
ag49
(g53
S'\xe0z\x9ee-d\xd7?'
p155
tp156
Rp157
ag49
(g53
S'-TI\x14\xcb\x19\xdc?'
p158
tp159
Rp160
ag49
(g53
S'\xcf\xe2t\xa9\x17\x86\xe4?'
p161
tp162
Rp163
ag49
(g53
S'\xacq\xe2.\x03v\xe9?'
p164
tp165
Rp166
ag49
(g53
S'\x1cp\xdc2Z\xff\xe6?'
p167
tp168
Rp169
ag49
(g53
S'\xe0z\x9ee-d\xd7?'
p170
tp171
Rp172
ag49
(g53
S'\x83\xf0\xd4\xd6`}\xe5?'
p173
tp174
Rp175
ag49
(g53
S'I\x89\x9d3\xfb\x06\xe0?'
p176
tp177
Rp178
ag49
(g53
S'\x83\xf0\xd4\xd6`}\xe5?'
p179
tp180
Rp181
ag49
(g53
S'\x1cp\xdc2Z\xff\xe6?'
p182
tp183
Rp184
ag49
(g53
S'\xe0z\x9ee-d\xd7?'
p185
tp186
Rp187
ag49
(g53
S'y@\x18\x1f\x8dG\xe8?'
p188
tp189
Rp190
ag49
(g53
S'\xe0z\x9ee-d\xd7?'
p191
tp192
Rp193
ag49
(g53
S'y@\x18\x1f\x8dG\xe8?'
p194
tp195
Rp196
ag49
(g53
S'\xe74\x07\x00\x14\x9f\xea?'
p197
tp198
Rp199
ag49
(g53
S'\xbb\xce\xc2\xbc/\\\xe4?'
p200
tp201
Rp202
ag49
(g53
S'\xbb\xce\xc2\xbc/\\\xe4?'
p203
tp204
Rp205
ag49
(g53
S'\xbb\xce\xc2\xbc/\\\xe4?'
p206
tp207
Rp208
ag49
(g53
S'\x9f`\xbb\xd4\xc3\xab\xe4?'
p209
tp210
Rp211
ag49
(g53
S'\xbb\xce\xc2\xbc/\\\xe4?'
p212
tp213
Rp214
ag49
(g53
S'\xbb\xce\xc2\xbc/\\\xe4?'
p215
tp216
Rp217
ag49
(g53
S'\xbb\xce\xc2\xbc/\\\xe4?'
p218
tp219
Rp220
ag49
(g53
S'\x8fp\xe3\x92\x8d\x1b\xef?'
p221
tp222
Rp223
ag49
(g53
S'\xacq\xe2.\x03v\xe9?'
p224
tp225
Rp226
ag49
(g53
S'\x1cp\xdc2Z\xff\xe6?'
p227
tp228
Rp229
ag49
(g53
S'\xe0z\x9ee-d\xd7?'
p230
tp231
Rp232
ag49
(g53
S'-TI\x14\xcb\x19\xdc?'
p233
tp234
Rp235
ag49
(g53
S'\x1cp\xdc2Z\xff\xe6?'
p236
tp237
Rp238
ag49
(g53
S'\x8fp\xe3\x92\x8d\x1b\xef?'
p239
tp240
Rp241
ag49
(g53
S'\xcf\xe2t\xa9\x17\x86\xe4?'
p242
tp243
Rp244
ag49
(g53
S'I\x89\x9d3\xfb\x06\xe0?'
p245
tp246
Rp247
ag49
(g53
S'-TI\x14\xcb\x19\xdc?'
p248
tp249
Rp250
ag49
(g53
S'\x9f`\xbb\xd4\xc3\xab\xe4?'
p251
tp252
Rp253
ag49
(g53
S'\xe0z\x9ee-d\xd7?'
p254
tp255
Rp256
ag49
(g53
S'-TI\x14\xcb\x19\xdc?'
p257
tp258
Rp259
asS'sp'
p260
(lp261
(S'p0'
p262
I0
S'x'
p263
tp264
a(S'p1'
p265
I0
g263
tp266
a(g265
I0
S't'
p267
tp268
a(g265
F1.5707963267948966
g267
tp269
a(g265
F1.5707963267948966
g267
tp270
a(g265
F1.5707963267948966
S'y'
p271
tp272
a(g262
F1.5707963267948966
g271
tp273
a(g262
F1.5707963267948966
g271
tp274
a(g262
F1.5707963267948966
g263
tp275
a(g262
F1.5707963267948966
g263
tp276
a(g262
F1.5707963267948966
g271
tp277
ag275
a(g265
F1.5707963267948966
g263
tp278
a(g265
F1.5707963267948966
g263
tp279
ag279
ag279
a(g265
F1.5707963267948966
g271
tp280
ag273
a(g262
F1.5707963267948966
g271
tp281
ag275
ag278
ag280
a(g265
F1.5707963267948966
g267
tp282
ag270
a(g265
F1.5707963267948966
g263
tp283
a(g265
F1.5707963267948966
g267
tp284
ag272
a(g265
F1.5707963267948966
g263
tp285
ag284
ag272
ag273
ag274
ag274
ag275
ag278
a(g265
F1.5707963267948966
g263
tp286
ag279
ag284
ag272
ag285
ag280
ag285
ag284
ag272
ag273
ag275
ag276
ag277
ag274
ag274
ag274
ag281
ag274
ag274
ag274
a(g262
F1.5707963267948966
g267
tp287
a(g262
F1.5707963267948966
g267
tp288
a(g262
F1.5707963267948966
g271
tp289
ag275
ag278
ag284
ag283
ag286
ag280
a(S'p2'
p290
F1.5707963267948966
g271
tp291
a(g290
F1.5707963267948966
g271
tp292
a(g290
F1.5707963267948966
g263
tp293
a(S'p3'
p294
F1.5707963267948966
g263
tp295
asS's'
p296
(lp297
(g262
I0
g22
tp298
ag264
ag266
ag268
ag269
ag270
ag272
ag273
ag274
ag275
ag276
ag277
ag275
ag278
ag279
ag279
ag279
ag280
ag273
ag281
ag275
ag278
ag280
ag282
ag270
ag283
ag284
ag272
ag285
ag284
ag272
ag273
ag274
ag274
ag275
ag278
ag286
ag279
ag284
ag272
ag285
ag280
ag285
ag284
ag272
ag273
ag275
ag276
ag277
ag274
ag274
ag274
ag281
ag274
ag274
ag274
ag287
ag288
ag289
ag275
ag278
ag284
ag283
ag286
ag280
ag291
ag292
ag293
asS'ui'
p299
(lp300
S'ss'
p301
ag260
aS'hs'
p302
ag260
aS'hp'
p303
ag302
ag301
ag301
ag302
ag301
ag303
ag302
ag260
ag260
ag260
ag302
ag303
ag260
ag260
ag260
ag260
ag302
ag303
ag260
ag301
ag301
ag301
ag303
ag301
ag301
ag260
ag301
ag301
ag302
ag260
ag301
ag260
ag303
ag302
ag302
ag303
ag302
ag302
ag302
ag303
ag302
ag260
ag260
ag260
ag301
ag301
ag260
ag260
ag301
ag302
ag302
ag303
ag302
ag302
ag260
ag303
ag302
ag301
ag303
ag303
ag260
ag302
ag260
asS'um_before'
p304
(lp305
g302
ag260
ag302
ag260
ag260
ag302
ag301
ag301
ag302
ag301
ag303
ag302
ag260
ag260
ag260
ag260
ag303
ag301
ag260
ag302
ag260
ag303
ag303
ag260
ag303
ag302
ag302
ag302
ag302
ag302
ag301
ag301
ag301
ag302
ag260
ag301
ag260
ag302
ag302
ag302
ag303
ag302
ag302
ag302
ag301
ag302
ag301
ag303
ag301
ag301
ag301
ag260
ag301
ag301
ag301
ag303
ag260
ag302
ag302
ag260
ag302
ag303
ag301
ag303
ag260
ag260
ag302
ag260
asS'um_after'
p306
(lp307
g302
ag260
ag302
ag260
ag260
ag302
ag301
ag301
ag302
ag301
ag303
ag302
ag260
ag260
ag260
ag260
ag303
ag301
ag260
ag302
ag260
ag303
ag303
ag260
ag303
ag302
ag302
ag302
ag302
ag302
ag301
ag301
ag301
ag302
ag260
ag301
ag260
ag302
ag302
ag302
ag303
ag302
ag302
ag302
ag301
ag302
ag301
ag303
ag301
ag301
ag301
ag260
ag301
ag301
ag301
ag303
ag260
ag302
ag302
ag260
ag302
ag303
ag301
ag303
ag260
ag260
ag302
ag260
asS'is_normalized_entropy_less_than_threshold'
p308
(lp309
g49
(g50
(S'b1'
p310
I0
I1
tp311
Rp312
(I3
S'|'
p313
NNNI-1
I-1
I0
tp314
bS'\x01'
p315
tp316
Rp317
ag317
ag317
ag317
ag317
ag317
ag49
(g312
S'\x00'
p318
tp319
Rp320
ag317
ag317
ag320
ag320
ag317
ag317
ag320
ag320
ag320
ag317
ag320
ag317
ag317
ag317
ag317
ag320
ag317
ag320
ag320
ag317
ag317
ag320
ag317
ag320
ag317
ag317
ag317
ag317
ag317
ag320
ag320
ag317
ag317
ag317
ag317
ag320
ag317
ag320
ag317
ag320
ag320
ag317
ag317
ag317
ag317
ag317
ag317
ag317
ag320
ag320
ag320
ag317
ag317
ag320
ag320
ag317
ag317
ag317
ag317
ag317
ag317
asaa(lp321
S'index'
p322
aI12471
aatp323
Rp324
.