ccollections
OrderedDict
p0
((lp1
(lp2
S'combination_dict'
p3
ag0
((lp4
(lp5
S'r_to_g_config'
p6
aS'br'
p7
aa(lp8
S'num_turns'
p9
aI3
aa(lp10
S'start_direction'
p11
acutils_ms
StartDirection
p12
(I1
tp13
Rp14
aa(lp15
S'assistance_type'
p16
acutils_ms
AssistanceType
p17
(I1
tp18
Rp19
aa(lp20
S'start_mode'
p21
aS't'
p22
aa(lp23
S'ui_given_a_noise'
p24
aF0.3
aa(lp25
S'um_given_ui_noise'
p26
aF0.5
aa(lp27
S'entropy_threshold'
p28
aF0.7
aatp29
Rp30
aa(lp31
S'data'
p32
accollections
defaultdict
p33
(c__builtin__
list
p34
tp35
Rp36
S'a'
p37
(lp38
S'mode_l'
p39
aS'move_n'
p40
ag40
ag39
aS'move_p'
p41
aS'mode_r'
p42
ag40
ag42
ag41
ag42
ag41
asS'assistance_match_with_ground_truth'
p43
(lp44
I01
aI00
aI01
aI01
aI01
aI01
aI01
aI01
aI01
aI01
aI01
asS'is_u_intended_equals_um'
p45
(lp46
I01
aI00
aI00
aI01
aI01
aI01
aI01
aI00
aI00
aI01
aI01
asS'total_steps'
p47
I11
sS'normalized_h_of_p_ui_given_um'
p48
(lp49
cnumpy.core.multiarray
scalar
p50
(cnumpy
dtype
p51
(S'f8'
p52
I0
I1
tp53
Rp54
(I3
S'<'
p55
NNNI-1
I-1
I0
tp56
bS'\xd0\x8e\x82\xfd\xda"\xcc?'
p57
tp58
Rp59
ag50
(g54
S'\x12\x7f}\xb36\x99\xe9?'
p60
tp61
Rp62
ag50
(g54
S'\xef\x9f\x82\xfc\xb9\x8c\xe5?'
p63
tp64
Rp65
ag50
(g54
S'\xd0\x8e\x82\xfd\xda"\xcc?'
p66
tp67
Rp68
ag50
(g54
S'\xa56 \xa1\xd9I\xd3?'
p69
tp70
Rp71
ag50
(g54
S'\xb2\x07\x01\xff\xdb\n\xd1?'
p72
tp73
Rp74
ag50
(g54
S'\xaa{6\tU\xd2\xd6?'
p75
tp76
Rp77
ag50
(g54
S'_<\xa6\x8dh\x0e\xe1?'
p78
tp79
Rp80
ag50
(g54
S'\x00,\xcb\xd1\x0f\x9f\xe5?'
p81
tp82
Rp83
ag50
(g54
S'\xb2\x07\x01\xff\xdb\n\xd1?'
p84
tp85
Rp86
ag50
(g54
S'\xa56 \xa1\xd9I\xd3?'
p87
tp88
Rp89
asS'sp'
p90
(lp91
(S'p0'
p92
I0
S'y'
p93
tp94
a(g92
I0
g93
tp95
a(S'p1'
p96
I0
g93
tp97
a(g96
I0
S'x'
p98
tp99
a(S'p2'
p100
I0
g98
tp101
a(g100
I0
g93
tp102
a(S'p3'
p103
I0
g93
tp104
a(g103
I0
S't'
p105
tp106
a(g103
F1.5707963267948966
g105
tp107
a(g103
F1.5707963267948966
g98
tp108
a(S'p4'
p109
F1.5707963267948966
g98
tp110
asS's'
p111
(lp112
(g92
I0
g22
tp113
ag94
ag95
ag97
ag99
ag101
ag102
ag104
ag106
ag107
ag108
asS'ui'
p114
(lp115
S'hs'
p116
aS'hp'
p117
ag90
ag116
ag90
ag117
aS'ss'
p118
ag118
ag90
ag118
ag116
asS'um_before'
p119
(lp120
g116
ag90
ag117
ag116
ag90
ag117
ag118
ag118
ag117
ag117
ag90
asS'um_after'
p121
(lp122
g116
ag90
ag118
ag116
ag90
ag117
ag118
ag117
ag90
ag117
ag90
asS'is_normalized_entropy_less_than_threshold'
p123
(lp124
g50
(g51
(S'b1'
p125
I0
I1
tp126
Rp127
(I3
S'|'
p128
NNNI-1
I-1
I0
tp129
bS'\x01'
p130
tp131
Rp132
ag50
(g127
S'\x00'
p133
tp134
Rp135
ag132
ag132
ag132
ag132
ag132
ag132
ag132
ag132
ag132
asaa(lp136
S'index'
p137
aI113121
aatp138
Rp139
.