ccollections
OrderedDict
p0
((lp1
(lp2
S'combination_dict'
p3
ag0
((lp4
(lp5
S'r_to_g_config'
p6
aS'tl'
p7
aa(lp8
S'num_turns'
p9
aI2
aa(lp10
S'start_direction'
p11
acutils_ms
StartDirection
p12
(I1
tp13
Rp14
aa(lp15
S'assistance_type'
p16
acutils_ms
AssistanceType
p17
(I1
tp18
Rp19
aa(lp20
S'start_mode'
p21
aS't'
p22
aa(lp23
S'ui_given_a_noise'
p24
aF0.7
aa(lp25
S'um_given_ui_noise'
p26
aF0.5
aa(lp27
S'entropy_threshold'
p28
aF0.9
aatp29
Rp30
aa(lp31
S'data'
p32
accollections
defaultdict
p33
(c__builtin__
list
p34
tp35
Rp36
S'a'
p37
(lp38
S'mode_l'
p39
aS'mode_r'
p40
aS'move_p'
p41
ag40
ag40
ag40
ag40
ag41
ag40
aS'move_n'
p42
ag40
ag42
ag40
ag41
asS'assistance_match_with_ground_truth'
p43
(lp44
I00
aI01
aI01
aI00
aI00
aI00
aI01
aI01
aI01
aI00
aI01
aI01
aI01
aI01
asS'is_u_intended_equals_um'
p45
(lp46
I01
aI01
aI00
aI01
aI01
aI01
aI01
aI00
aI01
aI01
aI00
aI00
aI01
aI00
asS'total_steps'
p47
I14
sS'normalized_h_of_p_ui_given_um'
p48
(lp49
cnumpy.core.multiarray
scalar
p50
(cnumpy
dtype
p51
(S'f8'
p52
I0
I1
tp53
Rp54
(I3
S'<'
p55
NNNI-1
I-1
I0
tp56
bS'\x97\x84r\xae\x1f\x14\xea?'
p57
tp58
Rp59
ag50
(g54
S'x\r\x8bU\x99\xaf\xe2?'
p60
tp61
Rp62
ag50
(g54
S'\xff\xa2\x18&\xa2\x92\xe8?'
p63
tp64
Rp65
ag50
(g54
S'\x81V\xb5\xd4c\x86\xee?'
p66
tp67
Rp68
ag50
(g54
S'\x12\xfa\xfdT\x92,\xe9?'
p69
tp70
Rp71
ag50
(g54
S'\x12\xfa\xfdT\x92,\xe9?'
p72
tp73
Rp74
ag50
(g54
S'x\r\x8bU\x99\xaf\xe2?'
p75
tp76
Rp77
ag50
(g54
S'\x12\x99\xa8\x7fr\xa8\xe9?'
p78
tp79
Rp80
ag50
(g54
S'x\r\x8bU\x99\xaf\xe2?'
p81
tp82
Rp83
ag50
(g54
S'W\xe4\xed\xea\xa12\xe1?'
p84
tp85
Rp86
ag50
(g54
S'HK\xd09\x97\x87\xe3?'
p87
tp88
Rp89
ag50
(g54
S'Z\xa59\xf0\xe1\xe5\xe5?'
p90
tp91
Rp92
ag50
(g54
S'x\r\x8bU\x99\xaf\xe2?'
p93
tp94
Rp95
ag50
(g54
S'\x12\x99\xa8\x7fr\xa8\xe9?'
p96
tp97
Rp98
asS'sp'
p99
(lp100
(S'p0'
p101
I0
S'x'
p102
tp103
a(g101
I0
S'y'
p104
tp105
a(S'p1'
p106
I0
g104
tp107
a(g106
I0
g104
tp108
a(g106
I0
g104
tp109
ag109
a(g106
I0
S't'
p110
tp111
a(g106
F1.5707963267948966
g110
tp112
a(g106
F1.5707963267948966
g102
tp113
a(g106
F1.5707963267948966
g110
tp114
ag113
a(S'p2'
p115
F1.5707963267948966
g102
tp116
a(g115
F1.5707963267948966
g104
tp117
a(S'p3'
p118
F1.5707963267948966
g104
tp119
asS's'
p120
(lp121
(g101
I0
g22
tp122
ag103
ag105
ag107
ag108
ag109
ag109
ag111
ag112
ag113
ag114
ag113
ag116
ag117
asS'ui'
p123
(lp124
S'hp'
p125
ag125
aS'ss'
p126
ag125
aS'hs'
p127
ag126
ag125
ag127
ag127
ag127
ag127
ag127
ag125
ag127
asS'um_before'
p128
(lp129
g125
ag125
ag126
ag99
ag126
ag126
ag125
ag125
ag125
ag127
ag127
ag99
ag125
ag125
asS'um_after'
p130
(lp131
g125
ag125
ag99
ag99
ag126
ag126
ag125
ag99
ag125
ag127
ag125
ag126
ag125
ag99
asS'is_normalized_entropy_less_than_threshold'
p132
(lp133
g50
(g51
(S'b1'
p134
I0
I1
tp135
Rp136
(I3
S'|'
p137
NNNI-1
I-1
I0
tp138
bS'\x01'
p139
tp140
Rp141
ag141
ag141
ag50
(g136
S'\x00'
p142
tp143
Rp144
ag141
ag141
ag141
ag141
ag141
ag141
ag141
ag141
ag141
ag141
asaa(lp145
S'index'
p146
aI46346
aatp147
Rp148
.