ccollections
OrderedDict
p0
((lp1
(lp2
S'combination_dict'
p3
ag0
((lp4
(lp5
S'r_to_g_config'
p6
aS'tl'
p7
aa(lp8
S'num_turns'
p9
aI2
aa(lp10
S'start_direction'
p11
acutils_ms
StartDirection
p12
(I0
tp13
Rp14
aa(lp15
S'assistance_type'
p16
acutils_ms
AssistanceType
p17
(I1
tp18
Rp19
aa(lp20
S'start_mode'
p21
aS't'
p22
aa(lp23
S'ui_given_a_noise'
p24
aF0.5
aa(lp25
S'um_given_ui_noise'
p26
aF0.7
aa(lp27
S'entropy_threshold'
p28
aF0.9
aatp29
Rp30
aa(lp31
S'data'
p32
accollections
defaultdict
p33
(c__builtin__
list
p34
tp35
Rp36
S'a'
p37
(lp38
S'mode_r'
p39
aS'move_n'
p40
aS'mode_l'
p41
ag39
ag41
ag40
ag41
aS'move_p'
p42
ag41
ag42
ag41
ag42
ag41
ag40
asS'assistance_match_with_ground_truth'
p43
(lp44
I01
aI01
aI00
aI00
aI01
aI01
aI01
aI00
aI01
aI01
aI01
aI01
aI01
aI01
asS'is_u_intended_equals_um'
p45
(lp46
I01
aI01
aI01
aI01
aI00
aI00
aI00
aI01
aI00
aI00
aI01
aI00
aI00
aI01
asS'total_steps'
p47
I14
sS'normalized_h_of_p_ui_given_um'
p48
(lp49
cnumpy.core.multiarray
scalar
p50
(cnumpy
dtype
p51
(S'f8'
p52
I0
I1
tp53
Rp54
(I3
S'<'
p55
NNNI-1
I-1
I0
tp56
bS'\x01\xf5\xdc\x89a\x1e\xe2?'
p57
tp58
Rp59
ag50
(g54
S'\x9a\xc8Ci\x1f\x96\xd8?'
p60
tp61
Rp62
ag50
(g54
S'\x0e\xa5\xa3\xb6\xaa\x97\xea?'
p63
tp64
Rp65
ag50
(g54
S'\xd8\xdf@\xab\xf0\xf7\xec?'
p66
tp67
Rp68
ag50
(g54
S'\x91\x9cV2o\xdd\xeb?'
p69
tp70
Rp71
ag50
(g54
S'<\xad\xd0\x9b\xf4\x86\xe1?'
p72
tp73
Rp74
ag50
(g54
S'\x91\x9cV2o\xdd\xeb?'
p75
tp76
Rp77
ag50
(g54
S'\xcd]U\xaf)Q\xeb?'
p78
tp79
Rp80
ag50
(g54
S'\x91\x9cV2o\xdd\xeb?'
p81
tp82
Rp83
ag50
(g54
S'>\xf5h\xdd\x84g\xec?'
p84
tp85
Rp86
ag50
(g54
S'\x84\xef\x8a\x13h\xaf\xe0?'
p87
tp88
Rp89
ag50
(g54
S'>\xf5h\xdd\x84g\xec?'
p90
tp91
Rp92
ag50
(g54
S'\xc5\xf9\x8e\xef1\x0f\xeb?'
p93
tp94
Rp95
ag50
(g54
S'\x9a\xc8Ci\x1f\x96\xd8?'
p96
tp97
Rp98
asS'sp'
p99
(lp100
(S'p0'
p101
I0
S'x'
p102
tp103
a(S'p1'
p104
I0
g102
tp105
a(g104
I0
S'y'
p106
tp107
a(g101
I0
g106
tp108
a(g101
I0
g102
tp109
ag105
a(g104
I0
S't'
p110
tp111
a(g104
I0
g102
tp112
ag111
a(g104
F1.5707963267948966
g110
tp113
a(g104
F1.5707963267948966
g106
tp114
a(S'p2'
p115
F1.5707963267948966
g106
tp116
a(g115
F1.5707963267948966
g102
tp117
a(S'p3'
p118
F1.5707963267948966
g102
tp119
asS's'
p120
(lp121
(g101
I0
g22
tp122
ag103
ag105
ag107
ag108
ag109
ag105
ag111
ag112
ag111
ag113
ag114
ag116
ag117
asS'ui'
p123
(lp124
S'hp'
p125
aS'ss'
p126
ag126
ag125
ag126
ag125
ag99
ag125
ag99
ag99
aS'hs'
p127
ag126
ag127
ag126
asS'um_before'
p128
(lp129
g125
ag126
ag125
ag126
ag126
ag125
ag126
ag125
ag126
ag126
ag127
ag126
ag99
ag126
asS'um_after'
p130
(lp131
g125
ag126
ag125
ag126
ag127
ag126
ag127
ag125
ag127
ag99
ag127
ag99
ag127
ag126
asS'is_normalized_entropy_less_than_threshold'
p132
(lp133
g50
(g51
(S'b1'
p134
I0
I1
tp135
Rp136
(I3
S'|'
p137
NNNI-1
I-1
I0
tp138
bS'\x01'
p139
tp140
Rp141
ag141
ag141
ag50
(g136
S'\x00'
p142
tp143
Rp144
ag141
ag141
ag141
ag141
ag141
ag141
ag141
ag141
ag141
ag141
asaa(lp145
S'index'
p146
aI40594
aatp147
Rp148
.