ccollections
OrderedDict
p0
((lp1
(lp2
S'combination_dict'
p3
ag0
((lp4
(lp5
S'r_to_g_config'
p6
aS'bl'
p7
aa(lp8
S'num_turns'
p9
aI3
aa(lp10
S'start_direction'
p11
acutils_ms
StartDirection
p12
(I1
tp13
Rp14
aa(lp15
S'assistance_type'
p16
acutils_ms
AssistanceType
p17
(I0
tp18
Rp19
aa(lp20
S'start_mode'
p21
aS't'
p22
aa(lp23
S'ui_given_a_noise'
p24
aF0.3
aa(lp25
S'um_given_ui_noise'
p26
aF0.7
aa(lp27
S'entropy_threshold'
p28
aF0.5
aatp29
Rp30
aa(lp31
S'data'
p32
accollections
defaultdict
p33
(c__builtin__
list
p34
tp35
Rp36
S'a'
p37
(lp38
S'mode_l'
p39
aS'move_n'
p40
aS'mode_r'
p41
ag41
ag41
ag41
aS'move_p'
p42
ag41
ag42
ag39
ag41
ag41
ag40
ag41
ag41
ag41
ag41
ag41
ag42
ag41
ag41
ag42
ag41
ag42
ag41
ag39
ag40
ag41
ag40
ag39
ag39
ag40
asS'assistance_match_with_ground_truth'
p43
(lp44
I01
aI01
aI00
aI00
aI00
aI01
aI00
aI01
aI00
aI00
aI00
aI01
aI01
aI00
aI00
aI00
aI00
aI01
aI01
aI00
aI00
aI01
aI00
aI01
aI00
aI01
aI01
aI01
aI01
aI00
aI01
aI01
asS'is_u_intended_equals_um'
p45
(lp46
I01
aI01
aI00
aI00
aI00
aI01
aI00
aI01
aI00
aI00
aI00
aI01
aI01
aI00
aI00
aI00
aI00
aI01
aI01
aI00
aI00
aI01
aI00
aI01
aI00
aI01
aI01
aI01
aI01
aI00
aI01
aI01
asS'total_steps'
p47
I32
sS'normalized_h_of_p_ui_given_um'
p48
(lp49
cnumpy.core.multiarray
scalar
p50
(cnumpy
dtype
p51
(S'f8'
p52
I0
I1
tp53
Rp54
(I3
S'<'
p55
NNNI-1
I-1
I0
tp56
bS'p\xc1\x12#]\xfc\xcc?'
p57
tp58
Rp59
ag50
(g54
S'\xba#\xf9\xab\x0f\x8d\xbe?'
p60
tp61
Rp62
ag50
(g54
S'.\xc9\x86;\xb7>\xe4?'
p63
tp64
Rp65
ag50
(g54
S'.\xc9\x86;\xb7>\xe4?'
p66
tp67
Rp68
ag50
(g54
S'.\xc9\x86;\xb7>\xe4?'
p69
tp70
Rp71
ag50
(g54
S'\xf6`\xb5\xd1\xe2^\xd2?'
p72
tp73
Rp74
ag50
(g54
S'\xb9\xd4\xdb9m\xec\xe5?'
p75
tp76
Rp77
ag50
(g54
S'\xf6`\xb5\xd1\xe2^\xd2?'
p78
tp79
Rp80
ag50
(g54
S'~\xc1\xf3:\xc0n\xe4?'
p81
tp82
Rp83
ag50
(g54
S'e\xc87|Z1\xe9?'
p84
tp85
Rp86
ag50
(g54
S'.\xc9\x86;\xb7>\xe4?'
p87
tp88
Rp89
ag50
(g54
S'\xf6`\xb5\xd1\xe2^\xd2?'
p90
tp91
Rp92
ag50
(g54
S'\xba#\xf9\xab\x0f\x8d\xbe?'
p93
tp94
Rp95
ag50
(g54
S'.\xc9\x86;\xb7>\xe4?'
p96
tp97
Rp98
ag50
(g54
S'\x88\x8b1\xd9\x13\xd7\xe3?'
p99
tp100
Rp101
ag50
(g54
S'\x88\x8b1\xd9\x13\xd7\xe3?'
p102
tp103
Rp104
ag50
(g54
S'\x88\x8b1\xd9\x13\xd7\xe3?'
p105
tp106
Rp107
ag50
(g54
S'\xf6`\xb5\xd1\xe2^\xd2?'
p108
tp109
Rp110
ag50
(g54
S'S\xb6\xbd\xadL9\xd1?'
p111
tp112
Rp113
ag50
(g54
S'.\xc9\x86;\xb7>\xe4?'
p114
tp115
Rp116
ag50
(g54
S'\x88\x8b1\xd9\x13\xd7\xe3?'
p117
tp118
Rp119
ag50
(g54
S'S\xb6\xbd\xadL9\xd1?'
p120
tp121
Rp122
ag50
(g54
S'\x88\x8b1\xd9\x13\xd7\xe3?'
p123
tp124
Rp125
ag50
(g54
S'S\xb6\xbd\xadL9\xd1?'
p126
tp127
Rp128
ag50
(g54
S'=U9\xf5\x9ef\xe3?'
p129
tp130
Rp131
ag50
(g54
S'p\xc1\x12#]\xfc\xcc?'
p132
tp133
Rp134
ag50
(g54
S'\xba#\xf9\xab\x0f\x8d\xbe?'
p135
tp136
Rp137
ag50
(g54
S'\xf6`\xb5\xd1\xe2^\xd2?'
p138
tp139
Rp140
ag50
(g54
S'\xba#\xf9\xab\x0f\x8d\xbe?'
p141
tp142
Rp143
ag50
(g54
S'\x03c\x97\x8cp`\xe6?'
p144
tp145
Rp146
ag50
(g54
S'p\xc1\x12#]\xfc\xcc?'
p147
tp148
Rp149
ag50
(g54
S'\xba#\xf9\xab\x0f\x8d\xbe?'
p150
tp151
Rp152
asS'sp'
p153
(lp154
(S'p0'
p155
I0
S'y'
p156
tp157
a(S'p1'
p158
I0
g156
tp159
a(g158
I0
g156
tp160
ag160
ag160
a(g158
I0
S't'
p161
tp162
a(g158
I0
g156
tp163
ag162
a(g158
I0
S'x'
p164
tp165
a(g155
I0
g164
tp166
a(g155
I0
g164
tp167
a(g155
I0
g156
tp168
ag159
ag160
a(g158
I0
g156
tp169
ag169
ag169
ag162
a(g158
F1.5707963267948966
g161
tp170
a(g158
F1.5707963267948966
g161
tp171
a(g158
I0
g161
tp172
ag170
ag172
ag170
a(g158
F1.5707963267948966
g156
tp173
a(g158
F1.5707963267948966
g164
tp174
a(S'p2'
p175
F1.5707963267948966
g164
tp176
a(g175
F1.5707963267948966
g156
tp177
a(S'p3'
p178
F1.5707963267948966
g156
tp179
a(g178
F1.5707963267948966
g156
tp180
a(g178
F1.5707963267948966
g164
tp181
a(S'p4'
p182
F1.5707963267948966
g164
tp183
asS's'
p184
(lp185
(g155
I0
g22
tp186
ag157
ag159
ag160
ag160
ag160
ag162
ag163
ag162
ag165
ag166
ag167
ag168
ag159
ag160
ag169
ag169
ag169
ag162
ag170
ag171
ag172
ag170
ag172
ag170
ag173
ag174
ag176
ag177
ag179
ag180
ag181
asS'ui'
p187
(lp188
S'hs'
p189
aS'ss'
p190
aS'hp'
p191
ag191
ag191
ag191
ag189
ag191
ag153
ag191
ag153
ag191
ag190
ag191
ag191
ag190
ag191
ag191
ag153
ag191
ag191
ag153
ag190
ag153
ag191
ag191
ag190
ag191
ag190
ag189
ag189
ag190
asS'um_before'
p192
(lp193
g189
ag190
ag153
ag153
ag153
ag191
ag189
ag191
ag191
ag153
ag153
ag191
ag190
ag153
ag190
ag190
ag190
ag191
ag153
ag153
ag190
ag153
ag190
ag153
ag189
ag189
ag190
ag191
ag190
ag190
ag189
ag190
asS'um_after'
p194
(lp195
g189
ag190
ag153
ag153
ag153
ag191
ag189
ag191
ag191
ag153
ag153
ag191
ag190
ag153
ag190
ag190
ag190
ag191
ag153
ag153
ag190
ag153
ag190
ag153
ag189
ag189
ag190
ag191
ag190
ag190
ag189
ag190
asS'is_normalized_entropy_less_than_threshold'
p196
(lp197
g50
(g51
(S'b1'
p198
I0
I1
tp199
Rp200
(I3
S'|'
p201
NNNI-1
I-1
I0
tp202
bS'\x01'
p203
tp204
Rp205
ag205
ag50
(g200
S'\x00'
p206
tp207
Rp208
ag208
ag208
ag205
ag208
ag205
ag208
ag208
ag208
ag205
ag205
ag208
ag208
ag208
ag208
ag205
ag205
ag208
ag208
ag205
ag208
ag205
ag208
ag205
ag205
ag205
ag205
ag208
ag205
ag205
asaa(lp209
S'index'
p210
aI82750
aatp211
Rp212
.