ccollections
OrderedDict
p0
((lp1
(lp2
S'combination_dict'
p3
ag0
((lp4
(lp5
S'r_to_g_config'
p6
aS'tr'
p7
aa(lp8
S'num_turns'
p9
aI1
aa(lp10
S'start_direction'
p11
acutils_ms
StartDirection
p12
(I1
tp13
Rp14
aa(lp15
S'assistance_type'
p16
acutils_ms
AssistanceType
p17
(I2
tp18
Rp19
aa(lp20
S'start_mode'
p21
aS'x'
p22
aa(lp23
S'ui_given_a_noise'
p24
aF0.5
aa(lp25
S'um_given_ui_noise'
p26
aF0.1
aa(lp27
S'entropy_threshold'
p28
aF0.5
aatp29
Rp30
aa(lp31
S'data'
p32
accollections
defaultdict
p33
(c__builtin__
list
p34
tp35
Rp36
S'a'
p37
(lp38
S'mode_r'
p39
ag39
ag39
ag39
aS'move_p'
p40
ag39
ag39
ag39
ag39
ag40
ag39
aS'mode_l'
p41
ag39
ag40
asS'assistance_match_with_ground_truth'
p42
(lp43
I00
aI00
aI00
aI01
aI01
aI00
aI00
aI00
aI01
aI01
aI00
aI00
aI01
aI01
asS'is_u_intended_equals_um'
p44
(lp45
I00
aI00
aI00
aI00
aI00
aI00
aI00
aI00
aI00
aI00
aI00
aI00
aI00
aI00
asS'total_steps'
p46
I14
sS'normalized_h_of_p_ui_given_um'
p47
(lp48
cnumpy.core.multiarray
scalar
p49
(cnumpy
dtype
p50
(S'f8'
p51
I0
I1
tp52
Rp53
(I3
S'<'
p54
NNNI-1
I-1
I0
tp55
bS'\xcd\x1bS\xf3f\xf5\xea?'
p56
tp57
Rp58
ag58
ag58
ag58
ag58
ag58
ag58
ag58
ag58
ag58
ag58
ag58
ag58
ag58
asS'sp'
p59
(lp60
(S'p0'
p61
I0
S'x'
p62
tp63
a(g61
I0
g62
tp64
ag63
a(g61
I0
S'y'
p65
tp66
a(S'p1'
p67
I0
g65
tp68
a(g67
I0
g65
tp69
ag69
a(g67
I0
g65
tp70
a(g67
I0
S't'
p71
tp72
a(g67
F1.5707963267948966
g71
tp73
a(g67
F1.5707963267948966
g65
tp74
a(g67
F1.5707963267948966
g71
tp75
a(g67
F1.5707963267948966
g62
tp76
a(S'p2'
p77
F1.5707963267948966
g62
tp78
asS's'
p79
(lp80
(g61
I0
g22
tp81
ag63
ag64
ag63
ag66
ag68
ag69
ag69
ag70
ag72
ag73
ag74
ag75
ag76
asS'ui'
p82
(lp83
S'ss'
p84
ag59
aS'hp'
p85
ag85
ag59
ag59
ag59
ag84
ag85
ag59
ag59
ag85
ag85
ag59
asS'um_before'
p86
(lp87
g84
ag59
ag84
ag85
ag59
ag59
ag59
ag84
ag85
ag59
aS'hs'
p88
ag85
ag85
ag59
asS'um_after'
p89
(lp90
g84
ag59
ag84
ag85
ag59
ag59
ag59
ag84
ag85
ag59
ag88
ag85
ag85
ag59
asS'is_normalized_entropy_less_than_threshold'
p91
(lp92
g49
(g50
(S'b1'
p93
I0
I1
tp94
Rp95
(I3
S'|'
p96
NNNI-1
I-1
I0
tp97
bS'\x01'
p98
tp99
Rp100
ag100
ag100
ag100
ag100
ag100
ag100
ag100
ag100
ag100
ag100
ag100
ag100
ag100
asaa(lp101
S'index'
p102
aI8406
aatp103
Rp104
.