ccollections
OrderedDict
p0
((lp1
(lp2
S'combination_dict'
p3
ag0
((lp4
(lp5
S'r_to_g_config'
p6
aS'tl'
p7
aa(lp8
S'num_turns'
p9
aI2
aa(lp10
S'start_direction'
p11
acutils_ms
StartDirection
p12
(I0
tp13
Rp14
aa(lp15
S'assistance_type'
p16
acutils_ms
AssistanceType
p17
(I1
tp18
Rp19
aa(lp20
S'start_mode'
p21
aS't'
p22
aa(lp23
S'ui_given_a_noise'
p24
aF0.5
aa(lp25
S'um_given_ui_noise'
p26
aF0.7
aa(lp27
S'entropy_threshold'
p28
aF0.7
aatp29
Rp30
aa(lp31
S'data'
p32
accollections
defaultdict
p33
(c__builtin__
list
p34
tp35
Rp36
S'a'
p37
(lp38
S'mode_r'
p39
aS'move_n'
p40
aS'mode_l'
p41
ag39
ag40
ag39
aS'move_p'
p42
ag41
ag40
ag39
ag42
ag39
ag42
ag39
ag40
ag39
ag40
ag41
ag40
ag39
ag40
ag39
ag40
ag39
ag39
ag40
ag39
ag40
ag39
ag40
asS'assistance_match_with_ground_truth'
p43
(lp44
I01
aI00
aI00
aI01
aI01
aI01
aI00
aI01
aI01
aI01
aI01
aI01
aI01
aI01
aI00
aI01
aI00
aI01
aI00
aI01
aI00
aI01
aI00
aI00
aI01
aI00
aI01
aI00
aI01
aI01
asS'is_u_intended_equals_um'
p45
(lp46
I01
aI00
aI01
aI01
aI01
aI00
aI01
aI01
aI01
aI01
aI00
aI01
aI00
aI01
aI00
aI01
aI00
aI00
aI00
aI00
aI00
aI01
aI00
aI00
aI00
aI00
aI00
aI00
aI01
aI01
asS'total_steps'
p47
I30
sS'normalized_h_of_p_ui_given_um'
p48
(lp49
cnumpy.core.multiarray
scalar
p50
(cnumpy
dtype
p51
(S'f8'
p52
I0
I1
tp53
Rp54
(I3
S'<'
p55
NNNI-1
I-1
I0
tp56
bS'\xe7*\xbd\xd3\xd9\xfa\xd4?'
p57
tp58
Rp59
ag50
(g54
S'\xd3\x05\x85/\xa6#\xed?'
p60
tp61
Rp62
ag50
(g54
S' \x0b\xa1\x9b\x1e\x97\xec?'
p63
tp64
Rp65
ag50
(g54
S'\xe7*\xbd\xd3\xd9\xfa\xd4?'
p66
tp67
Rp68
ag50
(g54
S'\x1apL\x03\xce/\xe0?'
p69
tp70
Rp71
ag50
(g54
S'\xb39 ?w\xd1\xe3?'
p72
tp73
Rp74
ag50
(g54
S'\xee\x9d\xf4e\x03\xf8\xee?'
p75
tp76
Rp77
ag50
(g54
S'"9\x0bK\x9b\x1c\xe2?'
p78
tp79
Rp80
ag50
(g54
S'\x1apL\x03\xce/\xe0?'
p81
tp82
Rp83
ag50
(g54
S'\xe7*\xbd\xd3\xd9\xfa\xd4?'
p84
tp85
Rp86
ag50
(g54
S'H\x014_\xb5V\xe5?'
p87
tp88
Rp89
ag50
(g54
S'\xe7*\xbd\xd3\xd9\xfa\xd4?'
p90
tp91
Rp92
ag50
(g54
S'H\x014_\xb5V\xe5?'
p93
tp94
Rp95
ag50
(g54
S'\xe7*\xbd\xd3\xd9\xfa\xd4?'
p96
tp97
Rp98
ag50
(g54
S'g{cw\xc1:\xec?'
p99
tp100
Rp101
ag50
(g54
S'\xe7*\xbd\xd3\xd9\xfa\xd4?'
p102
tp103
Rp104
ag50
(g54
S'\xd3\x05\x85/\xa6#\xed?'
p105
tp106
Rp107
ag50
(g54
S'\x14\x16n\xe3\xf13\xe5?'
p108
tp109
Rp110
ag50
(g54
S'g{cw\xc1:\xec?'
p111
tp112
Rp113
ag50
(g54
S'\xb39 ?w\xd1\xe3?'
p114
tp115
Rp116
ag50
(g54
S'g{cw\xc1:\xec?'
p117
tp118
Rp119
ag50
(g54
S'\xe7*\xbd\xd3\xd9\xfa\xd4?'
p120
tp121
Rp122
ag50
(g54
S'g{cw\xc1:\xec?'
p123
tp124
Rp125
ag50
(g54
S'\xc4\xe5\x03\xad\xe2\x86\xea?'
p126
tp127
Rp128
ag50
(g54
S'\xb39 ?w\xd1\xe3?'
p129
tp130
Rp131
ag50
(g54
S'g{cw\xc1:\xec?'
p132
tp133
Rp134
ag50
(g54
S'\xb39 ?w\xd1\xe3?'
p135
tp136
Rp137
ag50
(g54
S'g{cw\xc1:\xec?'
p138
tp139
Rp140
ag50
(g54
S'\xe7*\xbd\xd3\xd9\xfa\xd4?'
p141
tp142
Rp143
ag50
(g54
S'\x1apL\x03\xce/\xe0?'
p144
tp145
Rp146
asS'sp'
p147
(lp148
(S'p0'
p149
I0
S'x'
p150
tp151
a(g149
I0
S'y'
p152
tp153
a(g149
I0
S't'
p154
tp155
ag151
a(S'p1'
p156
I0
g150
tp157
a(g156
I0
g152
tp158
a(g149
I0
g152
tp159
a(g149
I0
g150
tp160
ag157
ag158
a(S'p2'
p161
I0
g152
tp162
a(g161
I0
g154
tp163
a(g161
F1.5707963267948966
g154
tp164
a(g161
F1.5707963267948966
g150
tp165
a(g161
F1.5707963267948966
g154
tp166
ag165
a(g161
F1.5707963267948966
g152
tp167
a(g161
F1.5707963267948966
g150
tp168
ag166
ag165
ag166
ag165
ag166
a(g161
F1.5707963267948966
g154
tp169
ag165
ag166
ag165
ag166
ag165
a(S'p3'
p170
F1.5707963267948966
g150
tp171
asS's'
p172
(lp173
(g149
I0
g22
tp174
ag151
ag153
ag155
ag151
ag157
ag158
ag159
ag160
ag157
ag158
ag162
ag163
ag164
ag165
ag166
ag165
ag167
ag168
ag166
ag165
ag166
ag165
ag166
ag169
ag165
ag166
ag165
ag166
ag165
asS'ui'
p175
(lp176
S'hp'
p177
aS'hs'
p178
aS'ss'
p179
ag177
ag179
ag177
ag147
ag178
ag178
ag178
ag147
ag177
ag147
ag177
ag179
ag177
ag179
ag178
ag178
ag178
ag147
ag177
ag178
ag147
ag177
ag178
ag177
ag178
ag177
ag179
asS'um_before'
p180
(lp181
g177
ag177
ag177
ag177
ag179
ag178
ag179
ag178
ag179
ag177
ag177
ag177
ag177
ag177
ag178
ag177
ag177
ag179
ag178
ag178
ag178
ag177
ag178
ag147
ag178
ag178
ag178
ag178
ag177
ag179
asS'um_after'
p182
(lp183
g177
ag177
ag177
ag177
ag179
ag177
ag179
ag178
ag179
ag177
ag147
ag177
ag147
ag177
ag178
ag177
ag177
ag178
ag178
ag177
ag178
ag177
ag178
ag147
ag177
ag178
ag177
ag178
ag177
ag179
asS'is_normalized_entropy_less_than_threshold'
p184
(lp185
g50
(g51
(S'b1'
p186
I0
I1
tp187
Rp188
(I3
S'|'
p189
NNNI-1
I-1
I0
tp190
bS'\x01'
p191
tp192
Rp193
ag50
(g188
S'\x00'
p194
tp195
Rp196
ag196
ag193
ag193
ag193
ag196
ag193
ag193
ag193
ag193
ag193
ag193
ag193
ag196
ag193
ag196
ag193
ag196
ag193
ag196
ag193
ag196
ag196
ag193
ag196
ag193
ag196
ag193
ag193
asaa(lp197
S'index'
p198
aI40572
aatp199
Rp200
.