ccollections
OrderedDict
p0
((lp1
(lp2
S'combination_dict'
p3
ag0
((lp4
(lp5
S'r_to_g_config'
p6
aS'tl'
p7
aa(lp8
S'num_turns'
p9
aI1
aa(lp10
S'start_direction'
p11
acutils_ms
StartDirection
p12
(I0
tp13
Rp14
aa(lp15
S'assistance_type'
p16
acutils_ms
AssistanceType
p17
(I1
tp18
Rp19
aa(lp20
S'start_mode'
p21
aS'y'
p22
aa(lp23
S'ui_given_a_noise'
p24
aF0.5
aa(lp25
S'um_given_ui_noise'
p26
aF0.1
aa(lp27
S'entropy_threshold'
p28
aF0.5
aatp29
Rp30
aa(lp31
S'data'
p32
accollections
defaultdict
p33
(c__builtin__
list
p34
tp35
Rp36
S'a'
p37
(lp38
S'mode_l'
p39
aS'move_n'
p40
ag39
ag40
aS'mode_r'
p41
ag41
ag41
ag40
ag39
ag41
aS'move_p'
p42
ag39
ag42
ag41
ag42
ag39
ag39
ag40
ag41
ag42
asS'assistance_match_with_ground_truth'
p43
(lp44
I01
aI00
aI01
aI00
aI00
aI00
aI01
aI01
aI00
aI01
aI01
aI01
aI00
aI01
aI00
aI00
aI01
aI01
aI01
aI01
asS'is_u_intended_equals_um'
p45
(lp46
I01
aI01
aI01
aI01
aI01
aI01
aI01
aI01
aI01
aI01
aI01
aI01
aI01
aI01
aI01
aI01
aI01
aI01
aI01
aI01
asS'total_steps'
p47
I20
sS'normalized_h_of_p_ui_given_um'
p48
(lp49
cnumpy.core.multiarray
scalar
p50
(cnumpy
dtype
p51
(S'f8'
p52
I0
I1
tp53
Rp54
(I3
S'<'
p55
NNNI-1
I-1
I0
tp56
bS'\x8e\xc0\xd1\xfc\xa1\x94\xbb?'
p57
tp58
Rp59
ag50
(g54
S'\xb8Y\xe4\xd5]:\xe1?'
p60
tp61
Rp62
ag50
(g54
S'\x8e\xc0\xd1\xfc\xa1\x94\xbb?'
p63
tp64
Rp65
ag50
(g54
S'\xbc\xad\x1c\x07\x18M\xe2?'
p66
tp67
Rp68
ag50
(g54
S"\x9a\xec\xb7\x9e'z\xe6?"
p69
tp70
Rp71
ag50
(g54
S'\x05H\xf8r\x8aR\xdd?'
p72
tp73
Rp74
ag50
(g54
S'*\x9a\x02\xf8\x9cp\xca?'
p75
tp76
Rp77
ag50
(g54
S'\xb4\xd3K\xbd\xedC\xbe?'
p78
tp79
Rp80
ag50
(g54
S'"\x07\xe02\xcb!\xdf?'
p81
tp82
Rp83
ag50
(g54
S'*\x9a\x02\xf8\x9cp\xca?'
p84
tp85
Rp86
ag50
(g54
S'\x85P\x05\xc7\xce\r\xc4?'
p87
tp88
Rp89
ag50
(g54
S'\x8e\xc0\xd1\xfc\xa1\x94\xbb?'
p90
tp91
Rp92
ag50
(g54
S'N\x0b\xd2\x04\xa8\xdd\xe5?'
p93
tp94
Rp95
ag50
(g54
S'*\x9a\x02\xf8\x9cp\xca?'
p96
tp97
Rp98
ag50
(g54
S'\xbb\xea7\xe4\xda\xe9\xdd?'
p99
tp100
Rp101
ag50
(g54
S'\xb8\x0b\xd6\xb3\x8dg\xd5?'
p102
tp103
Rp104
ag50
(g54
S'\x8e\xc0\xd1\xfc\xa1\x94\xbb?'
p105
tp106
Rp107
ag50
(g54
S'\xb4\xd3K\xbd\xedC\xbe?'
p108
tp109
Rp110
ag50
(g54
S'*\x9a\x02\xf8\x9cp\xca?'
p111
tp112
Rp113
ag50
(g54
S'\x85P\x05\xc7\xce\r\xc4?'
p114
tp115
Rp116
asS'sp'
p117
(lp118
(S'p0'
p119
I0
S'x'
p120
tp121
a(g119
I0
S'y'
p122
tp123
ag121
a(g119
I0
S't'
p124
tp125
a(g119
I0
g124
tp126
a(g119
I0
g124
tp127
a(g119
I0
g120
tp128
a(S'p1'
p129
I0
g120
tp130
a(g129
I0
g122
tp131
a(g129
I0
g124
tp132
a(g129
F1.5707963267948966
g124
tp133
a(g129
F1.5707963267948966
g122
tp134
a(g129
F1.5707963267948966
g120
tp135
a(g129
F1.5707963267948966
g122
tp136
a(g119
F1.5707963267948966
g122
tp137
a(g119
F1.5707963267948966
g122
tp138
a(g119
F1.5707963267948966
g120
tp139
a(g129
F1.5707963267948966
g120
tp140
ag136
a(S'p2'
p141
F1.5707963267948966
g122
tp142
asS's'
p143
(lp144
(g119
I0
g22
tp145
ag121
ag123
ag121
ag125
ag126
ag127
ag128
ag130
ag131
ag132
ag133
ag134
ag135
ag136
ag137
ag138
ag139
ag140
ag136
asS'ui'
p146
(lp147
S'hs'
p148
aS'hp'
p149
ag148
ag148
ag117
aS'ss'
p150
ag149
ag150
ag150
ag149
ag117
ag148
ag117
ag149
ag150
ag150
ag148
ag150
ag149
ag117
asS'um_before'
p151
(lp152
g148
ag149
ag148
ag148
ag117
ag150
ag149
ag150
ag149
ag149
ag117
ag148
ag148
ag149
ag150
ag150
ag148
ag150
ag149
ag117
asS'um_after'
p153
(lp154
g148
ag149
ag148
ag148
ag117
ag150
ag149
ag150
ag149
ag149
ag117
ag148
ag148
ag149
ag150
ag150
ag148
ag150
ag149
ag117
asS'is_normalized_entropy_less_than_threshold'
p155
(lp156
g50
(g51
(S'b1'
p157
I0
I1
tp158
Rp159
(I3
S'|'
p160
NNNI-1
I-1
I0
tp161
bS'\x01'
p162
tp163
Rp164
ag50
(g159
S'\x00'
p165
tp166
Rp167
ag164
ag167
ag167
ag164
ag164
ag164
ag164
ag164
ag164
ag164
ag167
ag164
ag164
ag164
ag164
ag164
ag164
ag164
asaa(lp168
S'index'
p169
aI31607
aatp170
Rp171
.