ccollections
OrderedDict
p0
((lp1
(lp2
S'combination_dict'
p3
ag0
((lp4
(lp5
S'r_to_g_config'
p6
aS'br'
p7
aa(lp8
S'num_turns'
p9
aI2
aa(lp10
S'start_direction'
p11
acutils_ms
StartDirection
p12
(I0
tp13
Rp14
aa(lp15
S'assistance_type'
p16
acutils_ms
AssistanceType
p17
(I1
tp18
Rp19
aa(lp20
S'start_mode'
p21
aS't'
p22
aa(lp23
S'ui_given_a_noise'
p24
aF0.7
aa(lp25
S'um_given_ui_noise'
p26
aF0.7
aa(lp27
S'entropy_threshold'
p28
aF0.5
aatp29
Rp30
aa(lp31
S'data'
p32
accollections
defaultdict
p33
(c__builtin__
list
p34
tp35
Rp36
S'a'
p37
(lp38
S'mode_r'
p39
aS'mode_l'
p40
aS'move_p'
p41
ag40
ag41
ag39
ag41
ag39
ag40
ag41
ag39
ag41
ag40
ag40
ag39
ag40
ag41
ag40
ag41
ag41
ag40
ag39
ag40
ag40
ag41
ag40
ag41
ag40
aS'move_n'
p42
ag40
ag41
ag40
ag40
ag41
ag39
ag39
ag41
ag39
ag40
ag39
ag40
ag42
ag39
ag40
ag42
ag39
ag40
ag42
ag40
ag41
asS'assistance_match_with_ground_truth'
p43
(lp44
I00
aI01
aI01
aI01
aI00
aI01
aI00
aI00
aI01
aI00
aI01
aI00
aI00
aI00
aI00
aI01
aI00
aI01
aI00
aI00
aI00
aI00
aI00
aI01
aI00
aI01
aI01
aI01
aI01
aI01
aI00
aI00
aI01
aI00
aI00
aI01
aI00
aI00
aI00
aI00
aI01
aI00
aI00
aI01
aI00
aI00
aI01
aI01
aI01
aI01
asS'is_u_intended_equals_um'
p45
(lp46
I01
aI01
aI01
aI01
aI01
aI01
aI01
aI01
aI01
aI01
aI01
aI01
aI00
aI01
aI01
aI01
aI01
aI01
aI01
aI01
aI01
aI00
aI00
aI01
aI01
aI01
aI01
aI01
aI01
aI01
aI01
aI00
aI01
aI01
aI01
aI01
aI01
aI01
aI01
aI01
aI01
aI01
aI01
aI01
aI01
aI01
aI01
aI01
aI01
aI01
asS'total_steps'
p47
I50
sS'normalized_h_of_p_ui_given_um'
p48
(lp49
cnumpy.core.multiarray
scalar
p50
(cnumpy
dtype
p51
(S'f8'
p52
I0
I1
tp53
Rp54
(I3
S'<'
p55
NNNI-1
I-1
I0
tp56
bS'L\x1aL\x8b\xc8\xba\xee?'
p57
tp58
Rp59
ag50
(g54
S'8\xbe\xca\x8f\x94\xe2\xe2?'
p60
tp61
Rp62
ag50
(g54
S'"\x90U"%\x9b\xdc?'
p63
tp64
Rp65
ag50
(g54
S'8\xbe\xca\x8f\x94\xe2\xe2?'
p66
tp67
Rp68
ag50
(g54
S'4\x11\x83+\xdaC\xec?'
p69
tp70
Rp71
ag50
(g54
S'?U\xbc\xcf\xf0\xe1\xde?'
p72
tp73
Rp74
ag50
(g54
S'4\x11\x83+\xdaC\xec?'
p75
tp76
Rp77
ag50
(g54
S'L\x1aL\x8b\xc8\xba\xee?'
p78
tp79
Rp80
ag50
(g54
S'8\xbe\xca\x8f\x94\xe2\xe2?'
p81
tp82
Rp83
ag50
(g54
S'4\x11\x83+\xdaC\xec?'
p84
tp85
Rp86
ag50
(g54
S'?U\xbc\xcf\xf0\xe1\xde?'
p87
tp88
Rp89
ag50
(g54
S'\xb8)\x06\xb0\xae\x1a\xec?'
p90
tp91
Rp92
ag50
(g54
S'h\xda\x94\x1e\x9d\x0b\xe9?'
p93
tp94
Rp95
ag50
(g54
S'\xf8\xcf\x9e\xa8\xa7g\xee?'
p96
tp97
Rp98
ag50
(g54
S'L\x1aL\x8b\xc8\xba\xee?'
p99
tp100
Rp101
ag50
(g54
S'8\xbe\xca\x8f\x94\xe2\xe2?'
p102
tp103
Rp104
ag50
(g54
S'\xb8)\x06\xb0\xae\x1a\xec?'
p105
tp106
Rp107
ag50
(g54
S'8\xbe\xca\x8f\x94\xe2\xe2?'
p108
tp109
Rp110
ag50
(g54
S'*p\x05UBW\xeb?'
p111
tp112
Rp113
ag50
(g54
S'\xb8)\x06\xb0\xae\x1a\xec?'
p114
tp115
Rp116
ag50
(g54
S'\xf8\xcf\x9e\xa8\xa7g\xee?'
p117
tp118
Rp119
ag50
(g54
S'\xfd\xca\xed\x98\x89\xe3\xea?'
p120
tp121
Rp122
ag50
(g54
S'h\xda\x94\x1e\x9d\x0b\xe9?'
p123
tp124
Rp125
ag50
(g54
S'8\xbe\xca\x8f\x94\xe2\xe2?'
p126
tp127
Rp128
ag50
(g54
S'*p\x05UBW\xeb?'
p129
tp130
Rp131
ag50
(g54
S'8\xbe\xca\x8f\x94\xe2\xe2?'
p132
tp133
Rp134
ag50
(g54
S'"\x90U"%\x9b\xdc?'
p135
tp136
Rp137
ag50
(g54
S'8\xbe\xca\x8f\x94\xe2\xe2?'
p138
tp139
Rp140
ag50
(g54
S'cE\xe6t\xcb\x00\xe3?'
p141
tp142
Rp143
ag50
(g54
S'8\xbe\xca\x8f\x94\xe2\xe2?'
p144
tp145
Rp146
ag50
(g54
S'\xb8)\x06\xb0\xae\x1a\xec?'
p147
tp148
Rp149
ag50
(g54
S'h\xda\x94\x1e\x9d\x0b\xe9?'
p150
tp151
Rp152
ag50
(g54
S'8\xbe\xca\x8f\x94\xe2\xe2?'
p153
tp154
Rp155
ag50
(g54
S'4\x11\x83+\xdaC\xec?'
p156
tp157
Rp158
ag50
(g54
S'\xc6\r{\xca\xa1\xcd\xe5?'
p159
tp160
Rp161
ag50
(g54
S'?U\xbc\xcf\xf0\xe1\xde?'
p162
tp163
Rp164
ag50
(g54
S'*p\x05UBW\xeb?'
p165
tp166
Rp167
ag50
(g54
S'L\x1aL\x8b\xc8\xba\xee?'
p168
tp169
Rp170
ag50
(g54
S'\xf8\xcf\x9e\xa8\xa7g\xee?'
p171
tp172
Rp173
ag50
(g54
S'L\x1aL\x8b\xc8\xba\xee?'
p174
tp175
Rp176
ag50
(g54
S'8\xbe\xca\x8f\x94\xe2\xe2?'
p177
tp178
Rp179
ag50
(g54
S'h7 {f\xcf\xe5?'
p180
tp181
Rp182
ag50
(g54
S'L\x1aL\x8b\xc8\xba\xee?'
p183
tp184
Rp185
ag50
(g54
S'8\xbe\xca\x8f\x94\xe2\xe2?'
p186
tp187
Rp188
ag50
(g54
S'h7 {f\xcf\xe5?'
p189
tp190
Rp191
ag50
(g54
S'L\x1aL\x8b\xc8\xba\xee?'
p192
tp193
Rp194
ag50
(g54
S'8\xbe\xca\x8f\x94\xe2\xe2?'
p195
tp196
Rp197
ag50
(g54
S'cE\xe6t\xcb\x00\xe3?'
p198
tp199
Rp200
ag50
(g54
S'8\xbe\xca\x8f\x94\xe2\xe2?'
p201
tp202
Rp203
ag50
(g54
S'"\x90U"%\x9b\xdc?'
p204
tp205
Rp206
asS'sp'
p207
(lp208
(S'p0'
p209
I0
S'y'
p210
tp211
a(g209
I0
S'x'
p212
tp213
a(S'p1'
p214
I0
g212
tp215
a(g214
I0
S't'
p216
tp217
a(g214
I0
g210
tp218
a(g214
I0
g216
tp219
ag218
a(g214
I0
g212
tp220
ag217
ag218
ag219
a(g214
I0
g212
tp221
a(g214
I0
g212
tp222
a(g214
I0
g210
tp223
ag220
ag217
ag221
ag217
a(g214
I0
g216
tp224
ag221
ag223
a(S'p2'
p225
I0
g210
tp226
a(g225
I0
g210
tp227
a(g225
I0
g212
tp228
a(g214
I0
g212
tp229
ag217
a(g214
F1.5707963267948966
g216
tp230
a(g214
F1.5707963267948966
g210
tp231
a(g225
F1.5707963267948966
g210
tp232
a(g225
F1.5707963267948966
g212
tp233
a(g225
F1.5707963267948966
g210
tp234
a(g225
F1.5707963267948966
g210
tp235
ag233
a(g225
F1.5707963267948966
g216
tp236
a(g225
F1.5707963267948966
g216
tp237
a(g225
F1.5707963267948966
g212
tp238
a(g214
F1.5707963267948966
g212
tp239
a(g214
F1.5707963267948966
g216
tp240
a(g214
F1.5707963267948966
g212
tp241
ag240
ag231
a(g214
F1.5707963267948966
g212
tp242
ag240
ag231
ag242
ag240
ag231
ag232
ag233
a(S'p3'
p243
F1.5707963267948966
g212
tp244
asS's'
p245
(lp246
(g209
I0
g22
tp247
ag211
ag213
ag215
ag217
ag218
ag219
ag218
ag220
ag217
ag218
ag219
ag221
ag222
ag223
ag220
ag217
ag221
ag217
ag224
ag221
ag223
ag226
ag227
ag228
ag229
ag217
ag230
ag231
ag232
ag233
ag234
ag235
ag233
ag236
ag237
ag238
ag239
ag240
ag241
ag240
ag231
ag242
ag240
ag231
ag242
ag240
ag231
ag232
ag233
asS'ui'
p248
(lp249
S'hp'
p250
aS'ss'
p251
ag207
aS'hs'
p252
ag252
ag250
ag207
ag207
ag207
ag252
ag250
ag250
ag251
ag250
ag252
ag252
ag207
ag251
ag251
ag207
ag250
ag251
ag252
ag252
ag207
ag251
ag207
ag252
ag252
ag250
ag207
ag252
ag250
ag252
ag207
ag250
ag250
ag252
ag252
ag251
ag252
ag252
ag250
ag207
ag251
ag252
ag252
ag251
ag250
ag207
asS'um_before'
p253
(lp254
g252
ag252
ag207
ag252
ag252
ag250
ag252
ag252
ag252
ag252
ag250
ag250
ag251
ag250
ag252
ag252
ag250
ag252
ag251
ag250
ag250
ag251
ag251
ag252
ag251
ag252
ag207
ag252
ag251
ag252
ag250
ag251
ag252
ag252
ag207
ag250
ag251
ag252
ag250
ag252
ag252
ag252
ag252
ag252
ag252
ag252
ag252
ag251
ag252
ag207
asS'um_after'
p255
(lp256
g252
ag252
ag207
ag252
ag252
ag250
ag252
ag252
ag252
ag252
ag250
ag250
ag251
ag250
ag252
ag252
ag250
ag252
ag251
ag250
ag250
ag251
ag251
ag252
ag251
ag252
ag207
ag252
ag251
ag252
ag250
ag251
ag252
ag252
ag207
ag250
ag251
ag252
ag250
ag252
ag252
ag252
ag252
ag252
ag252
ag252
ag252
ag251
ag252
ag207
asS'is_normalized_entropy_less_than_threshold'
p257
(lp258
g50
(g51
(S'b1'
p259
I0
I1
tp260
Rp261
(I3
S'|'
p262
NNNI-1
I-1
I0
tp263
bS'\x00'
p264
tp265
Rp266
ag266
ag50
(g261
S'\x01'
p267
tp268
Rp269
ag266
ag266
ag269
ag266
ag266
ag266
ag266
ag269
ag266
ag266
ag266
ag266
ag266
ag266
ag266
ag266
ag266
ag266
ag266
ag266
ag266
ag266
ag266
ag269
ag266
ag266
ag266
ag266
ag266
ag266
ag266
ag266
ag269
ag266
ag266
ag266
ag266
ag266
ag266
ag266
ag266
ag266
ag266
ag266
ag266
ag266
ag269
asaa(lp270
S'index'
p271
aI98350
aatp272
Rp273
.