ccollections
OrderedDict
p0
((lp1
(lp2
S'combination_dict'
p3
ag0
((lp4
(lp5
S'r_to_g_config'
p6
aS'tr'
p7
aa(lp8
S'num_turns'
p9
aI3
aa(lp10
S'start_direction'
p11
acutils_ms
StartDirection
p12
(I1
tp13
Rp14
aa(lp15
S'assistance_type'
p16
acutils_ms
AssistanceType
p17
(I2
tp18
Rp19
aa(lp20
S'start_mode'
p21
aS'x'
p22
aa(lp23
S'ui_given_a_noise'
p24
aF0.5
aa(lp25
S'um_given_ui_noise'
p26
aF0.7
aa(lp27
S'entropy_threshold'
p28
aF0.8
aatp29
Rp30
aa(lp31
S'data'
p32
accollections
defaultdict
p33
(c__builtin__
list
p34
tp35
Rp36
S'a'
p37
(lp38
S'mode_r'
p39
ag39
ag39
ag39
ag39
aS'move_p'
p40
aS'mode_l'
p41
ag39
ag39
ag39
ag39
ag39
ag41
ag39
ag39
ag41
ag40
ag39
ag39
ag39
ag40
ag41
ag41
ag39
ag39
ag41
ag40
ag39
ag40
ag41
ag41
ag39
ag39
ag41
ag40
ag39
ag41
ag40
ag41
ag40
ag39
ag41
ag41
ag41
ag39
ag41
ag40
ag41
ag40
ag40
ag41
ag40
ag41
ag40
ag41
ag41
ag41
ag41
ag41
ag41
ag41
ag40
ag39
ag40
ag41
ag41
ag41
ag40
ag39
ag39
ag40
ag41
ag40
ag39
ag40
ag39
ag40
ag41
ag40
ag40
ag39
ag41
ag41
ag39
ag41
ag41
ag39
ag41
ag40
asS'assistance_match_with_ground_truth'
p42
(lp43
I00
aI00
aI00
aI00
aI01
aI01
aI00
aI00
aI00
aI00
aI00
aI00
aI00
aI00
aI00
aI01
aI00
aI00
aI00
aI01
aI00
aI00
aI00
aI00
aI00
aI01
aI00
aI01
aI01
aI00
aI00
aI00
aI00
aI01
aI00
aI00
aI01
aI01
aI01
aI00
aI00
aI00
aI00
aI00
aI00
aI01
aI01
aI01
aI00
aI01
aI01
aI00
aI01
aI00
aI00
aI00
aI00
aI00
aI00
aI00
aI01
aI01
aI01
aI01
aI00
aI00
aI01
aI00
aI00
aI01
aI01
aI01
aI00
aI01
aI00
aI01
aI00
aI00
aI00
aI00
aI00
aI00
aI00
aI00
aI00
aI00
aI00
aI01
aI01
asS'is_u_intended_equals_um'
p44
(lp45
I00
aI00
aI00
aI00
aI00
aI00
aI00
aI00
aI00
aI00
aI00
aI00
aI00
aI00
aI00
aI00
aI00
aI00
aI00
aI00
aI00
aI00
aI00
aI00
aI00
aI00
aI00
aI00
aI00
aI00
aI00
aI00
aI00
aI00
aI00
aI00
aI00
aI00
aI00
aI00
aI00
aI00
aI00
aI00
aI00
aI00
aI00
aI00
aI00
aI00
aI00
aI00
aI00
aI00
aI00
aI00
aI00
aI00
aI00
aI00
aI00
aI00
aI00
aI00
aI00
aI00
aI00
aI00
aI00
aI00
aI00
aI00
aI00
aI00
aI00
aI00
aI00
aI00
aI00
aI00
aI00
aI00
aI00
aI00
aI00
aI00
aI00
aI00
aI00
asS'total_steps'
p46
I89
sS'normalized_h_of_p_ui_given_um'
p47
(lp48
cnumpy.core.multiarray
scalar
p49
(cnumpy
dtype
p50
(S'f8'
p51
I0
I1
tp52
Rp53
(I3
S'<'
p54
NNNI-1
I-1
I0
tp55
bS'\rA\xc3\xd2\xcb\xa1\xe6?'
p56
tp57
Rp58
ag58
ag58
ag58
ag58
ag58
ag58
ag58
ag58
ag58
ag58
ag58
ag58
ag58
ag58
ag58
ag58
ag58
ag58
ag58
ag58
ag58
ag58
ag58
ag58
ag58
ag58
ag58
ag58
ag58
ag58
ag58
ag58
ag58
ag58
ag58
ag58
ag58
ag58
ag58
ag58
ag58
ag58
ag58
ag58
ag58
ag58
ag58
ag58
ag58
ag58
ag58
ag58
ag58
ag58
ag58
ag58
ag58
ag58
ag58
ag58
ag58
ag58
ag58
ag58
ag58
ag58
ag58
ag58
ag58
ag58
ag58
ag58
ag58
ag58
ag58
ag58
ag58
ag58
ag58
ag58
ag58
ag58
ag58
ag58
ag58
ag58
ag58
ag58
asS'sp'
p59
(lp60
(S'p0'
p61
I0
S'x'
p62
tp63
a(g61
I0
g62
tp64
ag63
ag63
a(g61
I0
S'y'
p65
tp66
a(S'p1'
p67
I0
g65
tp68
a(g67
I0
S't'
p69
tp70
a(g67
I0
g69
tp71
ag71
ag71
ag71
a(g67
I0
g65
tp72
ag70
ag71
ag72
a(g67
I0
g62
tp73
a(g61
I0
g62
tp74
ag64
ag64
ag66
a(g61
I0
g69
tp75
a(g61
I0
g69
tp76
a(g61
I0
g62
tp77
ag63
a(g61
I0
g69
tp78
a(g61
I0
g65
tp79
a(g61
I0
g62
tp80
ag66
ag68
a(g67
I0
g65
tp81
ag70
a(g67
I0
g69
tp82
ag72
ag73
ag74
ag78
ag79
ag68
ag73
a(g67
I0
g69
tp83
ag72
ag81
ag81
ag70
ag72
ag73
a(S'p2'
p84
I0
g62
tp85
a(g84
I0
g69
tp86
a(g84
I0
g69
tp87
a(g84
F1.5707963267948966
g69
tp88
a(g84
F1.5707963267948966
g65
tp89
a(g84
F1.5707963267948966
g69
tp90
ag89
a(g67
F1.5707963267948966
g65
tp91
a(g67
F1.5707963267948966
g65
tp92
ag92
a(g67
F1.5707963267948966
g65
tp93
ag93
ag92
ag92
a(g67
F1.5707963267948966
g62
tp94
a(g84
F1.5707963267948966
g62
tp95
a(g84
F1.5707963267948966
g65
tp96
a(S'p3'
p97
F1.5707963267948966
g65
tp98
a(g97
F1.5707963267948966
g65
tp99
ag99
a(g97
F1.5707963267948966
g62
tp100
a(g84
F1.5707963267948966
g62
tp101
a(g84
F1.5707963267948966
g62
tp102
ag96
ag98
ag100
ag101
ag96
a(g84
F1.5707963267948966
g62
tp103
ag96
ag90
a(g84
I0
g69
tp104
ag87
a(g84
I0
g65
tp105
a(g84
I0
g62
tp106
a(g84
I0
g62
tp107
a(g84
I0
g65
tp108
a(g97
I0
g65
tp109
a(g97
I0
g65
tp110
a(g97
I0
g69
tp111
a(g97
I0
g65
tp112
a(g97
I0
g62
tp113
a(S'p4'
p114
I0
g62
tp115
asS's'
p116
(lp117
(g61
I0
g22
tp118
ag63
ag64
ag63
ag63
ag66
ag68
ag70
ag71
ag71
ag71
ag71
ag72
ag70
ag71
ag72
ag73
ag74
ag64
ag64
ag66
ag75
ag76
ag77
ag63
ag78
ag79
ag80
ag66
ag68
ag81
ag70
ag82
ag72
ag73
ag74
ag78
ag79
ag68
ag73
ag83
ag72
ag81
ag81
ag70
ag72
ag73
ag85
ag86
ag87
ag88
ag89
ag90
ag89
ag91
ag92
ag92
ag93
ag93
ag92
ag92
ag94
ag95
ag96
ag98
ag99
ag99
ag100
ag101
ag102
ag96
ag98
ag100
ag101
ag96
ag103
ag96
ag90
ag104
ag87
ag105
ag106
ag107
ag108
ag109
ag110
ag111
ag112
ag113
asS'ui'
p119
(lp120
S'hp'
p121
ag121
ag59
ag121
ag121
ag59
ag121
ag59
ag59
ag59
ag121
ag121
aS'ss'
p122
ag122
ag121
aS'hs'
p123
ag59
ag122
ag123
ag121
ag59
ag123
ag123
ag122
ag121
ag122
ag59
ag121
ag59
ag121
ag123
ag59
ag121
ag59
ag122
ag59
ag123
ag59
ag123
ag59
ag121
ag59
ag123
ag121
ag121
ag123
ag59
ag123
ag59
ag59
ag122
ag121
ag123
ag122
ag122
ag122
ag123
ag122
ag122
ag122
ag122
ag59
ag121
ag59
ag123
ag59
ag123
ag59
ag121
ag121
ag59
ag123
ag59
ag121
ag122
ag122
ag121
ag59
ag122
ag59
ag121
ag123
ag122
ag59
ag123
ag121
ag122
ag123
ag59
asS'um_before'
p124
(lp125
g59
ag122
ag59
ag59
ag121
ag59
ag121
ag59
ag59
ag59
ag59
ag123
ag121
ag59
ag123
ag123
ag122
ag122
ag122
ag121
ag121
ag122
ag121
ag59
ag123
ag123
ag123
ag121
ag59
ag59
ag121
ag122
ag123
ag123
ag122
ag123
ag123
ag59
ag123
ag123
ag123
ag59
ag59
ag121
ag123
ag123
ag59
ag123
ag122
ag59
ag123
ag121
ag123
ag122
ag59
ag59
ag122
ag122
ag59
ag59
ag123
ag59
ag121
ag59
ag122
ag122
ag123
ag122
ag59
ag121
ag59
ag123
ag122
ag121
ag123
ag121
ag121
ag122
ag122
ag123
ag123
ag122
ag121
ag59
ag122
ag121
ag123
ag123
ag59
asS'um_after'
p126
(lp127
g59
ag122
ag59
ag59
ag121
ag59
ag121
ag59
ag59
ag59
ag59
ag123
ag121
ag59
ag123
ag123
ag122
ag122
ag122
ag121
ag121
ag122
ag121
ag59
ag123
ag123
ag123
ag121
ag59
ag59
ag121
ag122
ag123
ag123
ag122
ag123
ag123
ag59
ag123
ag123
ag123
ag59
ag59
ag121
ag123
ag123
ag59
ag123
ag122
ag59
ag123
ag121
ag123
ag122
ag59
ag59
ag122
ag122
ag59
ag59
ag123
ag59
ag121
ag59
ag122
ag122
ag123
ag122
ag59
ag121
ag59
ag123
ag122
ag121
ag123
ag121
ag121
ag122
ag122
ag123
ag123
ag122
ag121
ag59
ag122
ag121
ag123
ag123
ag59
asS'is_normalized_entropy_less_than_threshold'
p128
(lp129
g49
(g50
(S'b1'
p130
I0
I1
tp131
Rp132
(I3
S'|'
p133
NNNI-1
I-1
I0
tp134
bS'\x01'
p135
tp136
Rp137
ag137
ag137
ag137
ag137
ag137
ag137
ag137
ag137
ag137
ag137
ag137
ag137
ag137
ag137
ag137
ag137
ag137
ag137
ag137
ag137
ag137
ag137
ag137
ag137
ag137
ag137
ag137
ag137
ag137
ag137
ag137
ag137
ag137
ag137
ag137
ag137
ag137
ag137
ag137
ag137
ag137
ag137
ag137
ag137
ag137
ag137
ag137
ag137
ag137
ag137
ag137
ag137
ag137
ag137
ag137
ag137
ag137
ag137
ag137
ag137
ag137
ag137
ag137
ag137
ag137
ag137
ag137
ag137
ag137
ag137
ag137
ag137
ag137
ag137
ag137
ag137
ag137
ag137
ag137
ag137
ag137
ag137
ag137
ag137
ag137
ag137
ag137
ag137
asaa(lp138
S'index'
p139
aI27788
aatp140
Rp141
.