ccollections
OrderedDict
p0
((lp1
(lp2
S'combination_dict'
p3
ag0
((lp4
(lp5
S'r_to_g_config'
p6
aS'br'
p7
aa(lp8
S'num_turns'
p9
aI3
aa(lp10
S'start_direction'
p11
acutils_ms
StartDirection
p12
(I0
tp13
Rp14
aa(lp15
S'assistance_type'
p16
acutils_ms
AssistanceType
p17
(I1
tp18
Rp19
aa(lp20
S'start_mode'
p21
aS'y'
p22
aa(lp23
S'ui_given_a_noise'
p24
aF0.7
aa(lp25
S'um_given_ui_noise'
p26
aF0.5
aa(lp27
S'entropy_threshold'
p28
aF0.7
aatp29
Rp30
aa(lp31
S'data'
p32
accollections
defaultdict
p33
(c__builtin__
list
p34
tp35
Rp36
S'a'
p37
(lp38
S'mode_l'
p39
aS'mode_r'
p40
ag39
aS'move_p'
p41
ag39
ag39
ag39
ag39
ag39
ag41
ag39
ag39
ag39
ag39
ag41
ag39
aS'move_n'
p42
ag39
ag39
ag39
ag42
ag39
ag41
ag40
ag42
ag39
ag41
ag40
ag39
ag42
ag39
ag40
ag41
ag40
ag42
ag39
ag41
ag40
ag40
ag42
ag39
ag42
ag39
ag39
ag39
ag39
ag40
ag39
ag42
asS'assistance_match_with_ground_truth'
p43
(lp44
I00
aI00
aI01
aI01
aI00
aI00
aI00
aI00
aI01
aI00
aI00
aI00
aI00
aI01
aI01
aI01
aI00
aI00
aI00
aI01
aI01
aI01
aI01
aI01
aI00
aI01
aI00
aI00
aI01
aI01
aI00
aI01
aI01
aI01
aI00
aI01
aI01
aI00
aI01
aI00
aI01
aI00
aI00
aI00
aI00
aI00
aI00
aI01
aI01
asS'is_u_intended_equals_um'
p45
(lp46
I00
aI01
aI01
aI01
aI01
aI01
aI01
aI01
aI01
aI00
aI00
aI01
aI01
aI01
aI01
aI01
aI00
aI01
aI01
aI01
aI01
aI01
aI01
aI01
aI01
aI01
aI01
aI01
aI01
aI01
aI00
aI01
aI01
aI01
aI01
aI01
aI01
aI01
aI01
aI00
aI01
aI00
aI01
aI00
aI00
aI00
aI01
aI01
aI01
asS'total_steps'
p47
I49
sS'normalized_h_of_p_ui_given_um'
p48
(lp49
cnumpy.core.multiarray
scalar
p50
(cnumpy
dtype
p51
(S'f8'
p52
I0
I1
tp53
Rp54
(I3
S'<'
p55
NNNI-1
I-1
I0
tp56
bS'd\x16\xde%m\x10\xed?'
p57
tp58
Rp59
ag50
(g54
S'\xbf,3\xc5\x82\x16\xe3?'
p60
tp61
Rp62
ag50
(g54
S'\xecS#a\xe3\xbd\xdd?'
p63
tp64
Rp65
ag50
(g54
S'\x08\xc3~\xc62\xea\xdd?'
p66
tp67
Rp68
ag50
(g54
S'\x18\xbf\xa8\xd4\xd3\xda\xe3?'
p69
tp70
Rp71
ag50
(g54
S'\x18\xbf\xa8\xd4\xd3\xda\xe3?'
p72
tp73
Rp74
ag50
(g54
S'\x18\xbf\xa8\xd4\xd3\xda\xe3?'
p75
tp76
Rp77
ag50
(g54
S'\x18\xbf\xa8\xd4\xd3\xda\xe3?'
p78
tp79
Rp80
ag50
(g54
S'\xecS#a\xe3\xbd\xdd?'
p81
tp82
Rp83
ag50
(g54
S'\xcc["l|G\xe9?'
p84
tp85
Rp86
ag50
(g54
S'h+c&\xb6f\xe9?'
p87
tp88
Rp89
ag50
(g54
S'\x18\xbf\xa8\xd4\xd3\xda\xe3?'
p90
tp91
Rp92
ag50
(g54
S'\x18\xbf\xa8\xd4\xd3\xda\xe3?'
p93
tp94
Rp95
ag50
(g54
S'\xecS#a\xe3\xbd\xdd?'
p96
tp97
Rp98
ag50
(g54
S'\x08\xc3~\xc62\xea\xdd?'
p99
tp100
Rp101
ag50
(g54
S'\xecS#a\xe3\xbd\xdd?'
p102
tp103
Rp104
ag50
(g54
S'm\x07\x14\x93uc\xea?'
p105
tp106
Rp107
ag50
(g54
S'\x18\xbf\xa8\xd4\xd3\xda\xe3?'
p108
tp109
Rp110
ag50
(g54
S'\x18\xbf\xa8\xd4\xd3\xda\xe3?'
p111
tp112
Rp113
ag50
(g54
S'\xecS#a\xe3\xbd\xdd?'
p114
tp115
Rp116
ag50
(g54
S'\x1c\xac\x87t]/\xe1?'
p117
tp118
Rp119
ag50
(g54
S'\xecS#a\xe3\xbd\xdd?'
p120
tp121
Rp122
ag50
(g54
S'\x08\xc3~\xc62\xea\xdd?'
p123
tp124
Rp125
ag50
(g54
S'\xaf\xf6\xdaH\xdae\xe6?'
p126
tp127
Rp128
ag50
(g54
S'Gh^\xaf\xa3\xd5\xe0?'
p129
tp130
Rp131
ag50
(g54
S'\xecS#a\xe3\xbd\xdd?'
p132
tp133
Rp134
ag50
(g54
S'\x8c\xae5*1\x83\xe1?'
p135
tp136
Rp137
ag50
(g54
S'\xbf,3\xc5\x82\x16\xe3?'
p138
tp139
Rp140
ag50
(g54
S'\xecS#a\xe3\xbd\xdd?'
p141
tp142
Rp143
ag50
(g54
S'\x1c\xac\x87t]/\xe1?'
p144
tp145
Rp146
ag50
(g54
S'd\x16\xde%m\x10\xed?'
p147
tp148
Rp149
ag50
(g54
S'\xaf\xf6\xdaH\xdae\xe6?'
p150
tp151
Rp152
ag50
(g54
S'\x08\xc3~\xc62\xea\xdd?'
p153
tp154
Rp155
ag50
(g54
S'\xaf\xf6\xdaH\xdae\xe6?'
p156
tp157
Rp158
ag50
(g54
S'Gh^\xaf\xa3\xd5\xe0?'
p159
tp160
Rp161
ag50
(g54
S'\xecS#a\xe3\xbd\xdd?'
p162
tp163
Rp164
ag50
(g54
S'\x08\xc3~\xc62\xea\xdd?'
p165
tp166
Rp167
ag50
(g54
S'\xceS\xa2C\xb4\xa6\xe3?'
p168
tp169
Rp170
ag50
(g54
S'\xaf\xf6\xdaH\xdae\xe6?'
p171
tp172
Rp173
ag50
(g54
S'm\x07\x14\x93uc\xea?'
p174
tp175
Rp176
ag50
(g54
S'\xecS#a\xe3\xbd\xdd?'
p177
tp178
Rp179
ag50
(g54
S'm\x07\x14\x93uc\xea?'
p180
tp181
Rp182
ag50
(g54
S'\x18\xbf\xa8\xd4\xd3\xda\xe3?'
p183
tp184
Rp185
ag50
(g54
S'h+c&\xb6f\xe9?'
p186
tp187
Rp188
ag50
(g54
S'h+c&\xb6f\xe9?'
p189
tp190
Rp191
ag50
(g54
S'd\x16\xde%m\x10\xed?'
p192
tp193
Rp194
ag50
(g54
S'\xbf,3\xc5\x82\x16\xe3?'
p195
tp196
Rp197
ag50
(g54
S'\xecS#a\xe3\xbd\xdd?'
p198
tp199
Rp200
ag50
(g54
S'\x1c\xac\x87t]/\xe1?'
p201
tp202
Rp203
asS'sp'
p204
(lp205
(S'p0'
p206
I0
S't'
p207
tp208
a(g206
I0
S'y'
p209
tp210
a(g206
I0
S'x'
p211
tp212
a(S'p1'
p213
I0
g211
tp214
a(g213
I0
g211
tp215
ag215
ag215
ag215
a(g213
I0
g207
tp216
a(g213
I0
g211
tp217
a(g213
I0
g211
tp218
ag215
ag215
ag216
a(g213
F1.5707963267948966
g207
tp219
a(g213
F1.5707963267948966
g209
tp220
a(g213
F1.5707963267948966
g207
tp221
a(g213
F1.5707963267948966
g207
tp222
ag222
ag220
a(S'p2'
p223
F1.5707963267948966
g209
tp224
a(g223
F1.5707963267948966
g211
tp225
a(S'p3'
p226
F1.5707963267948966
g211
tp227
a(g226
F1.5707963267948966
g209
tp228
a(g223
F1.5707963267948966
g209
tp229
ag225
a(g213
F1.5707963267948966
g211
tp230
a(g213
F1.5707963267948966
g207
tp231
ag220
ag224
a(g223
F1.5707963267948966
g207
tp232
a(g223
F1.5707963267948966
g211
tp233
ag227
ag228
ag229
ag225
ag227
a(g226
F1.5707963267948966
g211
tp234
ag228
a(g226
F1.5707963267948966
g207
tp235
a(g226
F1.5707963267948966
g209
tp236
ag235
a(g226
F1.5707963267948966
g207
tp237
a(g226
F1.5707963267948966
g207
tp238
ag238
a(g226
F1.5707963267948966
g211
tp239
a(g226
F1.5707963267948966
g207
tp240
ag236
a(S'p4'
p241
F1.5707963267948966
g209
tp242
asS's'
p243
(lp244
(g206
I0
g22
tp245
ag208
ag210
ag212
ag214
ag215
ag215
ag215
ag215
ag216
ag217
ag218
ag215
ag215
ag216
ag219
ag220
ag221
ag222
ag222
ag220
ag224
ag225
ag227
ag228
ag229
ag225
ag230
ag231
ag220
ag224
ag232
ag233
ag227
ag228
ag229
ag225
ag227
ag234
ag228
ag235
ag236
ag235
ag237
ag238
ag238
ag239
ag240
ag236
asS'ui'
p246
(lp247
S'hs'
p248
aS'hp'
p249
ag248
aS'ss'
p250
ag204
ag204
ag204
ag204
ag248
ag204
ag249
ag250
ag248
ag248
ag204
ag248
ag204
ag204
ag250
ag248
ag250
ag248
ag204
ag248
ag204
ag248
ag204
ag248
ag248
ag250
ag249
ag248
ag248
ag204
ag204
ag204
ag204
ag248
ag249
ag249
ag248
ag250
ag248
ag250
ag250
ag204
ag248
ag248
ag204
asS'um_before'
p251
(lp252
g249
ag248
ag248
ag204
ag204
ag204
ag204
ag204
ag248
ag249
ag250
ag204
ag204
ag248
ag204
ag248
ag249
ag204
ag204
ag248
ag250
ag248
ag204
ag249
ag204
ag248
ag250
ag248
ag248
ag250
ag249
ag249
ag204
ag249
ag204
ag248
ag204
ag204
ag249
ag249
ag248
ag249
ag204
ag250
ag250
ag249
ag248
ag248
ag250
asS'um_after'
p253
(lp254
g249
ag248
ag248
ag204
ag204
ag204
ag204
ag204
ag248
ag249
ag250
ag204
ag204
ag248
ag204
ag248
ag249
ag204
ag204
ag248
ag250
ag248
ag204
ag249
ag204
ag248
ag250
ag248
ag248
ag250
ag249
ag249
ag204
ag249
ag204
ag248
ag204
ag204
ag249
ag249
ag248
ag249
ag204
ag250
ag250
ag249
ag248
ag248
ag250
asS'is_normalized_entropy_less_than_threshold'
p255
(lp256
g50
(g51
(S'b1'
p257
I0
I1
tp258
Rp259
(I3
S'|'
p260
NNNI-1
I-1
I0
tp261
bS'\x00'
p262
tp263
Rp264
ag50
(g259
S'\x01'
p265
tp266
Rp267
ag267
ag267
ag267
ag267
ag267
ag267
ag267
ag264
ag264
ag267
ag267
ag267
ag267
ag267
ag264
ag267
ag267
ag267
ag267
ag267
ag267
ag267
ag267
ag267
ag267
ag267
ag267
ag267
ag264
ag267
ag267
ag267
ag267
ag267
ag267
ag267
ag267
ag264
ag267
ag264
ag267
ag264
ag264
ag264
ag267
ag267
ag267
asaa(lp268
S'index'
p269
aI108720
aatp270
Rp271
.