ccollections
OrderedDict
p0
((lp1
(lp2
S'combination_dict'
p3
ag0
((lp4
(lp5
S'r_to_g_config'
p6
aS'tl'
p7
aa(lp8
S'num_turns'
p9
aI2
aa(lp10
S'start_direction'
p11
acutils_ms
StartDirection
p12
(I1
tp13
Rp14
aa(lp15
S'assistance_type'
p16
acutils_ms
AssistanceType
p17
(I0
tp18
Rp19
aa(lp20
S'start_mode'
p21
aS'x'
p22
aa(lp23
S'ui_given_a_noise'
p24
aF0.1
aa(lp25
S'um_given_ui_noise'
p26
aF0.5
aa(lp27
S'entropy_threshold'
p28
aF0.8
aatp29
Rp30
aa(lp31
S'data'
p32
accollections
defaultdict
p33
(c__builtin__
list
p34
tp35
Rp36
S'a'
p37
(lp38
S'mode_r'
p39
aS'move_p'
p40
ag39
ag40
ag40
ag40
ag39
ag39
ag39
aS'move_n'
p41
ag41
ag39
ag39
ag39
ag39
ag39
ag40
ag40
ag40
asS'assistance_match_with_ground_truth'
p42
(lp43
I01
aI01
aI01
aI00
aI00
aI01
aI00
aI00
aI01
aI00
aI01
aI00
aI00
aI00
aI00
aI01
aI00
aI00
aI01
asS'is_u_intended_equals_um'
p44
(lp45
I01
aI01
aI01
aI00
aI00
aI01
aI00
aI00
aI01
aI00
aI01
aI00
aI00
aI00
aI00
aI01
aI00
aI00
aI01
asS'total_steps'
p46
I19
sS'normalized_h_of_p_ui_given_um'
p47
(lp48
cnumpy.core.multiarray
scalar
p49
(cnumpy
dtype
p50
(S'f8'
p51
I0
I1
tp52
Rp53
(I3
S'<'
p54
NNNI-1
I-1
I0
tp55
bS's$&+&\xb3\xd2?'
p56
tp57
Rp58
ag49
(g53
S'T\xfd7\xed\xb3\x8b\xc8?'
p59
tp60
Rp61
ag49
(g53
S's$&+&\xb3\xd2?'
p62
tp63
Rp64
ag49
(g53
S'Uv\x9d\xca\xe7\x02\xe3?'
p65
tp66
Rp67
ag49
(g53
S'Uv\x9d\xca\xe7\x02\xe3?'
p68
tp69
Rp70
ag49
(g53
S'T\xfd7\xed\xb3\x8b\xc8?'
p71
tp72
Rp73
ag49
(g53
S'f%\x04\xfey@\xda?'
p74
tp75
Rp76
ag49
(g53
S'f%\x04\xfey@\xda?'
p77
tp78
Rp79
ag49
(g53
S's$&+&\xb3\xd2?'
p80
tp81
Rp82
ag49
(g53
S'k\xa4\xe6lb-\xe1?'
p83
tp84
Rp85
ag49
(g53
S'\rv\x83s\xc9t\xad?'
p86
tp87
Rp88
ag49
(g53
S'\xbbl\xddQF\x07\xe6?'
p89
tp90
Rp91
ag49
(g53
S'f%\x04\xfey@\xda?'
p92
tp93
Rp94
ag49
(g53
S'f%\x04\xfey@\xda?'
p95
tp96
Rp97
ag49
(g53
S'f%\x04\xfey@\xda?'
p98
tp99
Rp100
ag49
(g53
S's$&+&\xb3\xd2?'
p101
tp102
Rp103
ag49
(g53
S'\xde\xdc\x10\xac*\x1e\xe3?'
p104
tp105
Rp106
ag49
(g53
S'\xde\xdc\x10\xac*\x1e\xe3?'
p107
tp108
Rp109
ag49
(g53
S'T\xfd7\xed\xb3\x8b\xc8?'
p110
tp111
Rp112
asS'sp'
p113
(lp114
(S'p0'
p115
I0
S'y'
p116
tp117
a(S'p1'
p118
I0
g116
tp119
a(g118
I0
S't'
p120
tp121
ag121
ag121
a(g118
F1.5707963267948966
g120
tp122
ag122
ag122
a(g118
F1.5707963267948966
S'x'
p123
tp124
ag124
a(S'p2'
p125
F1.5707963267948966
g123
tp126
ag126
ag126
ag126
ag126
a(g125
F1.5707963267948966
g116
tp127
ag127
ag127
a(S'p3'
p128
F1.5707963267948966
g116
tp129
asS's'
p130
(lp131
(g115
I0
g22
tp132
ag117
ag119
ag121
ag121
ag121
ag122
ag122
ag122
ag124
ag124
ag126
ag126
ag126
ag126
ag126
ag127
ag127
ag127
asS'ui'
p133
(lp134
S'hp'
p135
ag113
ag135
ag113
ag113
ag113
ag135
ag135
ag135
ag135
aS'ss'
p136
aS'hs'
p137
ag113
ag135
ag137
ag135
ag113
ag113
ag113
asS'um_before'
p138
(lp139
g135
ag113
ag135
ag137
ag137
ag113
ag113
ag113
ag135
ag135
ag136
ag137
ag113
ag113
ag113
ag135
ag135
ag135
ag113
asS'um_after'
p140
(lp141
g135
ag113
ag135
aNaNag113
aNaNag135
aNag136
aNaNaNaNag135
aNaNag113
asS'is_normalized_entropy_less_than_threshold'
p142
(lp143
g49
(g50
(S'b1'
p144
I0
I1
tp145
Rp146
(I3
S'|'
p147
NNNI-1
I-1
I0
tp148
bS'\x01'
p149
tp150
Rp151
ag151
ag151
ag151
ag151
ag151
ag151
ag151
ag151
ag151
ag151
ag151
ag151
ag151
ag151
ag151
ag151
ag151
ag151
asaa(lp152
S'index'
p153
aI43335
aatp154
Rp155
.