ccollections
OrderedDict
p0
((lp1
(lp2
S'combination_dict'
p3
ag0
((lp4
(lp5
S'r_to_g_config'
p6
aS'tr'
p7
aa(lp8
S'num_turns'
p9
aI2
aa(lp10
S'start_direction'
p11
acutils_ms
StartDirection
p12
(I1
tp13
Rp14
aa(lp15
S'assistance_type'
p16
acutils_ms
AssistanceType
p17
(I1
tp18
Rp19
aa(lp20
S'start_mode'
p21
aS'x'
p22
aa(lp23
S'ui_given_a_noise'
p24
aF0.5
aa(lp25
S'um_given_ui_noise'
p26
aF0.1
aa(lp27
S'entropy_threshold'
p28
aF0.8
aatp29
Rp30
aa(lp31
S'data'
p32
accollections
defaultdict
p33
(c__builtin__
list
p34
tp35
Rp36
S'a'
p37
(lp38
S'mode_r'
p39
ag39
ag39
ag39
ag39
aS'move_p'
p40
ag39
ag39
ag40
ag40
ag40
ag39
ag40
ag39
ag40
aS'mode_l'
p41
ag41
ag40
ag39
ag40
ag41
ag40
ag39
ag41
ag40
asS'assistance_match_with_ground_truth'
p42
(lp43
I00
aI00
aI00
aI00
aI01
aI01
aI00
aI01
aI00
aI00
aI01
aI01
aI00
aI01
aI01
aI00
aI01
aI01
aI01
aI00
aI01
aI01
aI00
aI01
aI01
asS'is_u_intended_equals_um'
p44
(lp45
I01
aI01
aI01
aI01
aI01
aI01
aI01
aI01
aI01
aI01
aI01
aI01
aI01
aI01
aI01
aI01
aI01
aI01
aI01
aI01
aI01
aI01
aI00
aI01
aI01
asS'total_steps'
p46
I25
sS'normalized_h_of_p_ui_given_um'
p47
(lp48
cnumpy.core.multiarray
scalar
p49
(cnumpy
dtype
p50
(S'f8'
p51
I0
I1
tp52
Rp53
(I3
S'<'
p54
NNNI-1
I-1
I0
tp55
bS"uM\x9e\x9e\xd1'\xcc?"
p56
tp57
Rp58
ag49
(g53
S'2\xce\x16\xcd=\xf0\xe5?'
p59
tp60
Rp61
ag49
(g53
S"uM\x9e\x9e\xd1'\xcc?"
p62
tp63
Rp64
ag49
(g53
S"uM\x9e\x9e\xd1'\xcc?"
p65
tp66
Rp67
ag49
(g53
S'\x92\x85z ,c\xc1?'
p68
tp69
Rp70
ag49
(g53
S'j\xbb\x95\xcd\x00C\xb1?'
p71
tp72
Rp73
ag49
(g53
S'2\xce\x16\xcd=\xf0\xe5?'
p74
tp75
Rp76
ag49
(g53
S'\x92\x85z ,c\xc1?'
p77
tp78
Rp79
ag49
(g53
S'V\xb1;O\x99\x17\xdf?'
p80
tp81
Rp82
ag49
(g53
S'V\xb1;O\x99\x17\xdf?'
p83
tp84
Rp85
ag49
(g53
S'j\xbb\x95\xcd\x00C\xb1?'
p86
tp87
Rp88
ag49
(g53
S'\x92\x85z ,c\xc1?'
p89
tp90
Rp91
ag49
(g53
S'V\xb1;O\x99\x17\xdf?'
p92
tp93
Rp94
ag49
(g53
S'\x92\x85z ,c\xc1?'
p95
tp96
Rp97
ag49
(g53
S'j\xbb\x95\xcd\x00C\xb1?'
p98
tp99
Rp100
ag49
(g53
S'~w\xf3\x04\xa4\x9c\xdb?'
p101
tp102
Rp103
ag49
(g53
S'\x82\x0e"\xa0\x17\xd1\xc5?'
p104
tp105
Rp106
ag49
(g53
S'j\xbb\x95\xcd\x00C\xb1?'
p107
tp108
Rp109
ag49
(g53
S'\x92\x85z ,c\xc1?'
p110
tp111
Rp112
ag49
(g53
S'V\xb1;O\x99\x17\xdf?'
p113
tp114
Rp115
ag49
(g53
S'\x82\x0e"\xa0\x17\xd1\xc5?'
p116
tp117
Rp118
ag49
(g53
S'j\xbb\x95\xcd\x00C\xb1?'
p119
tp120
Rp121
ag49
(g53
S'@\x012\xdfG\xbb\xec?'
p122
tp123
Rp124
ag49
(g53
S'\x82\x0e"\xa0\x17\xd1\xc5?'
p125
tp126
Rp127
ag49
(g53
S'j\xbb\x95\xcd\x00C\xb1?'
p128
tp129
Rp130
asS'sp'
p131
(lp132
(S'p0'
p133
I0
S'x'
p134
tp135
a(g133
I0
g134
tp136
ag135
ag135
a(g133
I0
S'y'
p137
tp138
a(S'p1'
p139
I0
g137
tp140
a(g139
I0
g137
tp141
a(g139
I0
S't'
p142
tp143
a(g139
I0
g142
tp144
ag144
a(g139
F1.5707963267948966
g142
tp145
a(g139
F1.5707963267948966
g134
tp146
a(g133
F1.5707963267948966
g134
tp147
a(g133
F1.5707963267948966
g137
tp148
a(g139
F1.5707963267948966
g137
tp149
a(g139
F1.5707963267948966
g137
tp150
a(g139
F1.5707963267948966
g134
tp151
a(S'p2'
p152
F1.5707963267948966
g134
tp153
a(g152
F1.5707963267948966
g137
tp154
a(g139
F1.5707963267948966
g137
tp155
ag151
ag153
a(g152
F1.5707963267948966
g142
tp156
a(g152
F1.5707963267948966
g137
tp157
a(S'p3'
p158
F1.5707963267948966
g137
tp159
asS's'
p160
(lp161
(g133
I0
g22
tp162
ag135
ag136
ag135
ag135
ag138
ag140
ag141
ag143
ag144
ag144
ag145
ag146
ag147
ag148
ag149
ag150
ag151
ag153
ag154
ag155
ag151
ag153
ag156
ag157
asS'ui'
p163
(lp164
g131
aS'ss'
p165
ag131
ag131
aS'hp'
p166
ag131
ag131
ag166
ag165
ag165
ag131
ag166
ag165
ag166
ag131
ag131
aS'hs'
p167
ag131
ag166
ag131
ag167
ag131
ag167
ag167
ag131
asS'um_before'
p168
(lp169
g131
ag165
ag131
ag131
ag166
ag131
ag165
ag166
ag165
ag165
ag131
ag166
ag165
ag166
ag131
ag131
ag167
ag131
ag166
ag165
ag167
ag131
ag167
ag167
ag131
asS'um_after'
p170
(lp171
g131
ag165
ag131
ag131
ag166
ag131
ag165
ag166
ag165
ag165
ag131
ag166
ag165
ag166
ag131
ag131
ag167
ag131
ag166
ag165
ag167
ag131
ag167
ag167
ag131
asS'is_normalized_entropy_less_than_threshold'
p172
(lp173
g49
(g50
(S'b1'
p174
I0
I1
tp175
Rp176
(I3
S'|'
p177
NNNI-1
I-1
I0
tp178
bS'\x01'
p179
tp180
Rp181
ag181
ag181
ag181
ag181
ag181
ag181
ag181
ag181
ag181
ag181
ag181
ag181
ag181
ag181
ag181
ag181
ag181
ag181
ag181
ag181
ag181
ag49
(g176
S'\x00'
p182
tp183
Rp184
ag181
ag181
asaa(lp185
S'index'
p186
aI16432
aatp187
Rp188
.