ccollections
OrderedDict
p0
((lp1
(lp2
S'combination_dict'
p3
ag0
((lp4
(lp5
S'r_to_g_config'
p6
aS'br'
p7
aa(lp8
S'num_turns'
p9
aI1
aa(lp10
S'start_direction'
p11
acutils_ms
StartDirection
p12
(I0
tp13
Rp14
aa(lp15
S'assistance_type'
p16
acutils_ms
AssistanceType
p17
(I0
tp18
Rp19
aa(lp20
S'start_mode'
p21
aS'y'
p22
aa(lp23
S'ui_given_a_noise'
p24
aF0.7
aa(lp25
S'um_given_ui_noise'
p26
aF0.1
aa(lp27
S'entropy_threshold'
p28
aF0.9
aatp29
Rp30
aa(lp31
S'data'
p32
accollections
defaultdict
p33
(c__builtin__
list
p34
tp35
Rp36
S'a'
p37
(lp38
S'mode_l'
p39
ag39
aS'move_p'
p40
ag40
ag39
ag39
ag40
ag39
ag40
ag39
ag39
ag39
aS'mode_r'
p41
aS'move_n'
p42
ag39
ag39
ag42
ag39
ag40
ag41
ag42
asS'assistance_match_with_ground_truth'
p43
(lp44
I00
aI01
aI00
aI01
aI00
aI01
aI01
aI00
aI01
aI00
aI00
aI00
aI01
aI00
aI00
aI01
aI00
aI01
aI01
aI01
aI01
asS'is_u_intended_equals_um'
p45
(lp46
I01
aI01
aI01
aI01
aI01
aI01
aI01
aI01
aI01
aI01
aI01
aI01
aI01
aI01
aI01
aI01
aI01
aI01
aI01
aI01
aI01
asS'total_steps'
p47
I21
sS'normalized_h_of_p_ui_given_um'
p48
(lp49
cnumpy.core.multiarray
scalar
p50
(cnumpy
dtype
p51
(S'f8'
p52
I0
I1
tp53
Rp54
(I3
S'<'
p55
NNNI-1
I-1
I0
tp56
bS'_\xae{\xdb\xd0\xd1\xbc?'
p57
tp58
Rp59
ag50
(g54
S'Kh\x9e0\x0b\xc0\xa3?'
p60
tp61
Rp62
ag50
(g54
S'\xc1\x80\x13\xd3\x15\xd0\xdb?'
p63
tp64
Rp65
ag50
(g54
S'\xc6\xc9\xcfUx\x05\xb3?'
p66
tp67
Rp68
ag50
(g54
S't\xd4\x8f\x1c\xa0 \xe4?'
p69
tp70
Rp71
ag50
(g54
S'Kh\x9e0\x0b\xc0\xa3?'
p72
tp73
Rp74
ag50
(g54
S'\xc6\xc9\xcfUx\x05\xb3?'
p75
tp76
Rp77
ag50
(g54
S't\xd4\x8f\x1c\xa0 \xe4?'
p78
tp79
Rp80
ag50
(g54
S'\xc6\xc9\xcfUx\x05\xb3?'
p81
tp82
Rp83
ag50
(g54
S'_\xae{\xdb\xd0\xd1\xbc?'
p84
tp85
Rp86
ag50
(g54
S'_\xae{\xdb\xd0\xd1\xbc?'
p87
tp88
Rp89
ag50
(g54
S'\xbd\xf2hC\xf7\x88\xe6?'
p90
tp91
Rp92
ag50
(g54
S'V\xfe\xd1o\xb3%\xba?'
p93
tp94
Rp95
ag50
(g54
S'B4\xaf\x88d\xff\xda?'
p96
tp97
Rp98
ag50
(g54
S'_\xae{\xdb\xd0\xd1\xbc?'
p99
tp100
Rp101
ag50
(g54
S'Kh\x9e0\x0b\xc0\xa3?'
p102
tp103
Rp104
ag50
(g54
S'|\x1fB\xb9A\\\xcd?'
p105
tp106
Rp107
ag50
(g54
S'Kh\x9e0\x0b\xc0\xa3?'
p108
tp109
Rp110
ag50
(g54
S'\xc6\xc9\xcfUx\x05\xb3?'
p111
tp112
Rp113
ag50
(g54
S'V\xfe\xd1o\xb3%\xba?'
p114
tp115
Rp116
ag50
(g54
S'\x10U\x9cd\xf5Z\xca?'
p117
tp118
Rp119
asS'sp'
p120
(lp121
(S'p0'
p122
I0
S'y'
p123
tp124
a(g122
I0
S'x'
p125
tp126
a(g122
I0
g125
tp127
a(S'p1'
p128
I0
g125
tp129
a(g128
I0
g125
tp130
a(g128
I0
S't'
p131
tp132
a(g128
F1.5707963267948966
g131
tp133
a(g128
I0
g131
tp134
ag133
a(g128
F1.5707963267948966
g131
tp135
ag135
a(g128
F1.5707963267948966
g125
tp136
a(g128
F1.5707963267948966
g123
tp137
a(g128
F1.5707963267948966
g131
tp138
ag135
a(g128
F1.5707963267948966
g123
tp139
a(g122
F1.5707963267948966
g123
tp140
a(g122
F1.5707963267948966
g125
tp141
a(g128
F1.5707963267948966
g125
tp142
ag137
a(S'p2'
p143
F1.5707963267948966
g123
tp144
asS's'
p145
(lp146
(g122
I0
g22
tp147
ag124
ag126
ag127
ag129
ag130
ag132
ag133
ag134
ag133
ag135
ag135
ag136
ag137
ag138
ag135
ag139
ag140
ag141
ag142
ag137
asS'ui'
p148
(lp149
g120
aS'hs'
p150
aS'ss'
p151
ag120
ag151
ag150
ag120
ag151
ag120
ag120
ag120
aS'hp'
p152
ag152
ag152
ag120
ag150
ag120
ag150
ag120
ag152
ag151
asS'um_before'
p153
(lp154
g120
ag150
ag151
ag120
ag151
ag150
ag120
ag151
ag120
ag120
ag120
ag152
ag152
ag152
ag120
ag150
ag120
ag150
ag120
ag152
ag151
asS'um_after'
p155
(lp156
g120
ag150
ag151
ag120
ag151
ag150
ag120
ag151
ag120
ag120
ag120
ag152
ag152
ag152
ag120
ag150
ag120
ag150
ag120
ag152
ag151
asS'is_normalized_entropy_less_than_threshold'
p157
(lp158
g50
(g51
(S'b1'
p159
I0
I1
tp160
Rp161
(I3
S'|'
p162
NNNI-1
I-1
I0
tp163
bS'\x01'
p164
tp165
Rp166
ag166
ag166
ag166
ag166
ag166
ag166
ag166
ag166
ag166
ag166
ag166
ag166
ag166
ag166
ag166
ag166
ag166
ag166
ag166
ag166
asaa(lp167
S'index'
p168
aI87843
aatp169
Rp170
.