ccollections
OrderedDict
p0
((lp1
(lp2
S'combination_dict'
p3
ag0
((lp4
(lp5
S'r_to_g_config'
p6
aS'tl'
p7
aa(lp8
S'num_turns'
p9
aI3
aa(lp10
S'start_direction'
p11
acutils_ms
StartDirection
p12
(I1
tp13
Rp14
aa(lp15
S'assistance_type'
p16
acutils_ms
AssistanceType
p17
(I0
tp18
Rp19
aa(lp20
S'start_mode'
p21
aS't'
p22
aa(lp23
S'ui_given_a_noise'
p24
aF0.5
aa(lp25
S'um_given_ui_noise'
p26
aF0.7
aa(lp27
S'entropy_threshold'
p28
aF0.6
aatp29
Rp30
aa(lp31
S'data'
p32
accollections
defaultdict
p33
(c__builtin__
list
p34
tp35
Rp36
S'a'
p37
(lp38
S'mode_l'
p39
aS'move_p'
p40
aS'mode_r'
p41
ag40
ag41
ag41
ag41
ag41
ag41
ag41
ag41
ag41
ag40
ag41
ag40
ag41
ag41
ag41
ag41
ag41
ag40
ag41
ag40
ag39
aS'move_n'
p42
ag39
ag42
ag39
ag42
ag41
ag41
ag41
ag41
ag42
ag42
ag42
ag41
ag41
ag41
ag41
ag41
ag39
ag39
ag40
ag41
ag41
ag39
ag40
ag41
ag41
ag41
ag40
ag41
ag41
ag41
ag40
ag41
ag42
ag42
asS'assistance_match_with_ground_truth'
p43
(lp44
I01
aI00
aI01
aI00
aI00
aI00
aI00
aI00
aI00
aI00
aI00
aI01
aI00
aI01
aI00
aI00
aI00
aI00
aI00
aI01
aI00
aI01
aI01
aI01
aI00
aI01
aI00
aI01
aI00
aI00
aI00
aI00
aI01
aI00
aI00
aI01
aI00
aI00
aI00
aI00
aI00
aI00
aI01
aI01
aI00
aI00
aI01
aI00
aI00
aI00
aI01
aI00
aI00
aI00
aI01
aI01
aI01
aI00
aI01
asS'total_steps'
p45
I59
sS'sp'
p46
(lp47
(S'p0'
p48
I0
S'y'
p49
tp50
a(g48
I0
S'x'
p51
tp52
a(g48
I0
g49
tp53
ag52
a(g48
I0
g51
tp54
ag54
a(g48
I0
g51
tp55
ag54
ag54
ag54
ag55
ag53
ag52
ag53
ag52
ag55
ag55
ag55
ag54
ag53
ag52
ag53
a(S'p1'
p56
I0
g49
tp57
a(g56
I0
g51
tp58
a(g56
I0
g49
tp59
ag58
ag59
ag58
a(g56
I0
S't'
p60
tp61
a(g56
I0
g60
tp62
ag62
a(g56
I0
g60
tp63
a(g56
I0
g51
tp64
ag64
ag64
a(S'p2'
p65
I0
g51
tp66
a(g65
I0
g51
tp67
a(g65
I0
g51
tp68
ag68
ag68
a(g65
I0
g60
tp69
a(g65
I0
g60
tp70
a(g65
I0
g49
tp71
a(S'p3'
p72
I0
g49
tp73
a(g72
I0
g49
tp74
a(g72
I0
g51
tp75
a(g72
I0
g60
tp76
a(g72
I0
g49
tp77
a(g72
I0
g49
tp78
ag78
a(g72
I0
g60
tp79
ag77
ag78
ag74
ag79
a(g72
F1.5707963267948966
g60
tp80
a(g72
F1.5707963267948966
g51
tp81
ag81
a(S'p4'
p82
F1.5707963267948966
g51
tp83
asS's'
p84
(lp85
(g48
I0
g22
tp86
ag50
ag52
ag53
ag52
ag54
ag54
ag55
ag54
ag54
ag54
ag55
ag53
ag52
ag53
ag52
ag55
ag55
ag55
ag54
ag53
ag52
ag53
ag57
ag58
ag59
ag58
ag59
ag58
ag61
ag62
ag62
ag63
ag64
ag64
ag64
ag66
ag67
ag68
ag68
ag68
ag69
ag70
ag71
ag73
ag74
ag75
ag76
ag77
ag78
ag78
ag79
ag77
ag78
ag74
ag79
ag80
ag81
ag81
asS'ui'
p87
(lp88
S'hs'
p89
ag89
aS'hp'
p90
ag46
ag46
aS'ss'
p91
ag90
ag90
ag91
ag91
ag91
ag90
ag46
ag90
ag46
ag90
ag90
ag90
ag90
ag90
ag89
ag90
ag46
ag89
ag90
ag89
ag91
ag89
ag89
ag90
ag46
ag90
ag90
ag91
ag91
ag91
ag90
ag91
ag90
ag91
ag90
ag46
ag89
ag90
ag90
ag90
ag89
ag46
ag90
ag46
ag46
ag89
ag46
ag91
ag90
ag46
ag90
ag91
ag89
asS'um_before'
p92
(lp93
g89
ag89
ag90
ag89
ag91
ag91
ag46
ag91
ag91
ag91
ag46
ag90
ag89
ag90
ag89
ag46
ag46
ag46
ag91
ag90
ag89
ag90
ag46
ag89
ag90
ag89
ag90
ag89
ag89
ag91
ag91
ag46
ag90
ag46
ag46
ag91
ag46
ag91
ag91
ag91
ag89
ag46
ag89
ag46
ag91
ag89
ag89
ag89
ag46
ag46
ag90
ag89
ag46
ag91
ag90
ag46
ag90
ag46
ag91
asS'um_after'
p94
(lp95
g89
ag89
ag90
ag89
ag91
ag91
ag46
ag91
ag91
ag91
ag46
ag90
ag89
ag90
ag89
ag46
ag46
ag46
ag91
ag90
ag89
ag90
ag46
ag89
ag90
ag89
ag90
ag89
ag89
ag91
ag91
ag46
ag90
aNaNag91
ag46
ag91
ag91
ag91
ag89
ag46
ag89
ag46
ag91
ag89
ag89
ag89
ag46
ag46
ag90
ag89
ag46
ag91
ag90
ag46
ag90
aNag91
asaa(lp96
S'index'
p97
aI54166
aatp98
Rp99
.