ccollections
OrderedDict
p0
((lp1
(lp2
S'combination_dict'
p3
ag0
((lp4
(lp5
S'r_to_g_config'
p6
aS'tl'
p7
aa(lp8
S'num_turns'
p9
aI3
aa(lp10
S'start_direction'
p11
acutils_ms
StartDirection
p12
(I1
tp13
Rp14
aa(lp15
S'assistance_type'
p16
acutils_ms
AssistanceType
p17
(I2
tp18
Rp19
aa(lp20
S'start_mode'
p21
aS'x'
p22
aa(lp23
S'ui_given_a_noise'
p24
aF0.1
aa(lp25
S'um_given_ui_noise'
p26
aF0.5
aa(lp27
S'entropy_threshold'
p28
aF0.7
aatp29
Rp30
aa(lp31
S'data'
p32
accollections
defaultdict
p33
(c__builtin__
list
p34
tp35
Rp36
S'a'
p37
(lp38
S'mode_r'
p39
ag39
aS'mode_l'
p40
ag40
aS'move_p'
p41
ag39
ag39
ag40
ag39
ag40
ag39
ag41
ag40
ag40
ag39
ag39
ag41
ag39
ag41
ag39
ag41
ag39
ag40
aS'move_n'
p42
ag39
ag42
ag39
ag42
ag39
ag39
ag40
ag39
ag39
ag41
ag39
ag39
ag39
ag41
ag39
ag41
ag39
ag41
ag40
ag42
ag39
ag41
ag40
ag41
ag40
ag39
ag39
ag41
ag39
ag41
ag40
ag39
ag42
ag39
ag41
ag39
ag42
ag39
ag41
ag40
ag42
ag39
ag41
ag40
ag39
ag42
ag39
ag41
ag39
ag41
ag40
ag39
ag39
ag39
ag39
ag40
ag42
asS'assistance_match_with_ground_truth'
p43
(lp44
I00
aI00
aI00
aI01
aI00
aI00
aI00
aI00
aI00
aI00
aI01
aI00
aI00
aI00
aI00
aI01
aI00
aI01
aI01
aI01
aI01
aI00
aI01
aI00
aI01
aI00
aI01
aI01
aI00
aI00
aI00
aI00
aI01
aI00
aI00
aI00
aI01
aI00
aI01
aI00
aI01
aI00
aI01
aI01
aI01
aI00
aI01
aI00
aI00
aI00
aI01
aI00
aI01
aI00
aI00
aI01
aI00
aI00
aI01
aI01
aI01
aI01
aI01
aI01
aI00
aI01
aI01
aI00
aI01
aI00
aI01
aI00
aI01
aI01
aI00
aI00
aI00
aI00
aI00
aI01
aI01
asS'total_steps'
p45
I81
sS'sp'
p46
(lp47
(S'p0'
p48
I0
S'x'
p49
tp50
a(g48
I0
S't'
p51
tp52
a(g48
I0
g51
tp53
a(g48
I0
S'y'
p54
tp55
a(g48
I0
g49
tp56
a(g48
I0
g49
tp57
ag52
a(g48
I0
g49
tp58
ag52
ag58
a(g48
I0
g54
tp59
a(g48
I0
g51
tp60
ag53
ag58
ag57
ag59
ag56
ag59
a(S'p1'
p61
I0
g54
tp62
a(g61
I0
g51
tp63
a(g61
F1.5707963267948966
g51
tp64
a(g61
F1.5707963267948966
g54
tp65
a(g61
F1.5707963267948966
g49
tp66
a(g61
F1.5707963267948966
g51
tp67
a(g61
F1.5707963267948966
g49
tp68
ag67
ag68
a(S'p2'
p69
F1.5707963267948966
g49
tp70
a(g69
F1.5707963267948966
g49
tp71
a(g69
F1.5707963267948966
g51
tp72
a(g69
F1.5707963267948966
g49
tp73
a(g69
F1.5707963267948966
g49
tp74
a(g69
F1.5707963267948966
g54
tp75
a(g69
F1.5707963267948966
g49
tp76
ag74
ag74
ag75
ag76
ag75
ag76
ag75
a(g61
F1.5707963267948966
g54
tp77
ag66
ag70
ag75
a(g69
F1.5707963267948966
g51
tp78
a(g69
F1.5707963267948966
g54
tp79
ag78
ag73
ag74
ag75
ag76
ag75
ag77
a(g61
F1.5707963267948966
g51
tp80
ag68
ag67
a(g61
I0
g51
tp81
ag64
ag68
ag70
ag75
a(S'p3'
p82
F1.5707963267948966
g54
tp83
a(g82
F1.5707963267948966
g49
tp84
a(g69
F1.5707963267948966
g49
tp85
ag75
ag83
a(g82
F1.5707963267948966
g51
tp86
a(g82
F1.5707963267948966
g49
tp87
ag85
ag75
ag76
ag75
ag83
ag86
a(g82
F1.5707963267948966
g51
tp88
ag88
ag88
a(g82
F1.5707963267948966
g54
tp89
ag84
a(S'p4'
p90
F1.5707963267948966
g49
tp91
asS's'
p92
(lp93
(g48
I0
g22
tp94
ag50
ag52
ag53
ag55
ag56
ag57
ag52
ag58
ag52
ag58
ag59
ag60
ag53
ag58
ag57
ag59
ag56
ag59
ag62
ag63
ag64
ag65
ag66
ag67
ag68
ag67
ag68
ag70
ag71
ag72
ag73
ag74
ag75
ag76
ag74
ag74
ag75
ag76
ag75
ag76
ag75
ag77
ag66
ag70
ag75
ag78
ag79
ag78
ag73
ag74
ag75
ag76
ag75
ag77
ag80
ag68
ag67
ag81
ag64
ag68
ag70
ag75
ag83
ag84
ag85
ag75
ag83
ag86
ag87
ag85
ag75
ag76
ag75
ag83
ag86
ag88
ag88
ag88
ag89
ag84
asS'ui'
p95
(lp96
S'hp'
p97
ag97
aS'hs'
p98
ag98
ag46
ag97
ag97
ag98
ag97
ag98
ag97
ag46
aS'ss'
p99
ag98
ag97
ag97
ag46
ag97
ag46
ag97
ag46
ag97
ag98
ag99
ag97
ag99
ag97
ag99
ag97
ag97
ag97
ag97
ag97
ag98
ag97
ag97
ag97
ag98
ag97
ag46
ag97
ag46
ag98
ag99
ag97
ag46
ag98
ag46
ag98
ag97
ag97
ag46
ag97
ag46
ag98
ag97
ag99
ag97
ag46
ag97
ag99
ag97
ag46
ag98
ag99
ag97
ag46
ag98
ag97
ag99
ag97
ag46
ag97
ag46
ag98
ag97
ag97
ag97
ag99
ag98
ag99
asS'um_before'
p100
(lp101
g99
ag98
ag99
ag98
ag98
ag46
ag98
ag97
ag98
ag97
ag97
ag97
ag99
ag97
ag46
ag97
ag98
ag97
ag46
ag97
ag46
ag98
ag98
ag98
ag97
ag98
ag97
ag99
ag46
ag98
ag97
ag99
ag97
ag98
ag99
ag99
ag97
ag98
ag97
ag98
ag97
ag99
ag98
ag99
ag97
ag97
ag98
ag97
ag97
ag99
ag97
ag98
ag97
ag99
ag97
ag97
ag98
ag99
ag46
ag97
ag99
ag97
ag46
ag98
ag46
ag97
ag46
ag97
ag97
ag46
ag97
ag98
ag97
ag46
ag97
ag46
ag46
ag46
ag98
ag98
ag99
asS'um_after'
p102
(lp103
g99
ag98
ag99
ag98
ag98
ag46
ag98
ag97
ag98
ag97
ag97
ag97
ag99
ag97
ag46
ag97
ag98
ag97
ag46
ag97
ag46
ag98
ag98
ag98
ag97
ag98
ag97
ag99
ag46
ag98
ag97
ag99
ag97
ag98
ag99
ag99
ag97
ag98
ag97
ag98
ag97
ag99
ag98
ag99
ag97
ag97
ag98
ag97
ag97
ag99
ag97
ag98
ag97
ag99
ag97
ag97
ag98
ag99
ag46
ag97
ag99
ag97
ag46
ag98
ag46
ag97
ag46
ag97
ag97
ag46
ag97
ag98
ag97
ag46
ag97
ag46
ag46
ag46
ag98
ag98
ag99
asaa(lp104
S'index'
p105
aI56127
aatp106
Rp107
.