ccollections
OrderedDict
p0
((lp1
(lp2
S'combination_dict'
p3
ag0
((lp4
(lp5
S'r_to_g_config'
p6
aS'tl'
p7
aa(lp8
S'num_turns'
p9
aI2
aa(lp10
S'start_direction'
p11
acutils_ms
StartDirection
p12
(I1
tp13
Rp14
aa(lp15
S'assistance_type'
p16
acutils_ms
AssistanceType
p17
(I0
tp18
Rp19
aa(lp20
S'start_mode'
p21
aS't'
p22
aa(lp23
S'ui_given_a_noise'
p24
aF0.3
aa(lp25
S'um_given_ui_noise'
p26
aF0.3
aa(lp27
S'entropy_threshold'
p28
aF0.6
aatp29
Rp30
aa(lp31
S'data'
p32
accollections
defaultdict
p33
(c__builtin__
list
p34
tp35
Rp36
S'a'
p37
(lp38
S'mode_l'
p39
aS'mode_r'
p40
ag39
ag40
ag39
aS'move_p'
p41
ag40
ag40
ag41
ag40
ag41
ag40
ag40
ag41
ag41
ag40
ag41
ag39
ag40
ag39
ag39
ag41
ag40
aS'move_n'
p42
ag39
ag42
ag40
ag40
ag42
ag40
ag41
ag40
ag40
ag39
ag39
ag41
ag39
ag39
ag40
ag41
ag40
ag39
ag41
ag40
ag40
ag41
asS'assistance_match_with_ground_truth'
p43
(lp44
I00
aI00
aI00
aI00
aI01
aI00
aI00
aI01
aI01
aI01
aI00
aI00
aI01
aI00
aI00
aI01
aI00
aI00
aI00
aI00
aI01
aI01
aI01
aI00
aI01
aI00
aI00
aI01
aI01
aI01
aI00
aI00
aI00
aI00
aI01
aI00
aI00
aI00
aI01
aI00
aI00
aI01
aI00
aI00
aI01
aI01
asS'total_steps'
p45
I46
sS'sp'
p46
(lp47
(S'p0'
p48
I0
S'x'
p49
tp50
a(g48
I0
S't'
p51
tp52
ag50
ag52
a(g48
I0
S'y'
p53
tp54
a(g48
I0
g49
tp55
a(g48
I0
g49
tp56
a(g48
I0
g53
tp57
a(S'p1'
p58
I0
g53
tp59
a(g58
I0
g51
tp60
a(g58
I0
g53
tp61
a(g58
I0
g53
tp62
ag60
a(g58
I0
g51
tp63
ag61
ag60
a(g58
I0
g49
tp64
a(g58
I0
g53
tp65
a(g58
I0
g49
tp66
ag66
a(g58
I0
g51
tp67
a(g58
F1.5707963267948966
g51
tp68
a(g58
F1.5707963267948966
g49
tp69
a(g58
F1.5707963267948966
g53
tp70
a(g58
F1.5707963267948966
g49
tp71
a(g58
F1.5707963267948966
g51
tp72
a(g58
F1.5707963267948966
g51
tp73
ag69
a(S'p2'
p74
F1.5707963267948966
g49
tp75
a(g74
F1.5707963267948966
g53
tp76
a(g74
F1.5707963267948966
g49
tp77
a(g74
F1.5707963267948966
g49
tp78
a(g74
F1.5707963267948966
g51
tp79
ag79
a(g74
F1.5707963267948966
g53
tp80
a(g74
F1.5707963267948966
g51
tp81
ag81
a(g74
F1.5707963267948966
g49
tp82
ag76
ag77
ag79
ag80
ag77
a(g74
F1.5707963267948966
g49
tp83
ag76
a(S'p3'
p84
F1.5707963267948966
g53
tp85
asS's'
p86
(lp87
(g48
I0
g22
tp88
ag50
ag52
ag50
ag52
ag54
ag55
ag56
ag57
ag59
ag60
ag61
ag62
ag60
ag63
ag61
ag60
ag64
ag65
ag66
ag66
ag67
ag68
ag69
ag70
ag71
ag72
ag73
ag69
ag75
ag76
ag77
ag78
ag79
ag79
ag80
ag81
ag81
ag82
ag76
ag77
ag79
ag80
ag77
ag83
ag76
asS'ui'
p89
(lp90
S'hp'
p91
ag91
ag91
ag91
aS'hs'
p92
ag46
aS'ss'
p93
ag91
ag46
ag91
ag46
ag46
ag91
ag93
ag46
ag91
ag46
ag92
ag91
ag93
ag92
ag46
ag92
ag93
ag92
ag92
ag46
ag91
ag93
ag91
ag46
ag91
ag92
ag92
ag92
ag46
ag92
ag93
ag91
ag92
ag46
ag92
ag93
ag93
ag91
ag46
asS'um_before'
p94
(lp95
g91
ag92
ag91
ag92
ag92
ag92
ag93
ag91
ag46
ag91
ag92
ag46
ag91
ag93
ag92
ag91
ag91
ag91
ag92
ag93
ag92
ag46
ag91
ag91
ag92
ag92
ag46
ag91
ag93
ag91
ag92
ag46
ag92
ag93
ag92
ag91
ag93
ag91
ag91
ag92
ag92
ag92
ag92
ag93
ag91
ag46
asS'um_after'
p96
(lp97
g91
ag92
ag91
ag92
ag92
ag92
ag93
ag91
ag46
ag91
ag92
ag46
ag91
ag93
ag92
ag91
ag91
ag91
ag92
aNag92
ag46
ag91
ag91
ag92
ag92
ag46
ag91
ag93
ag91
ag92
ag46
ag92
aNag92
ag91
aNag91
ag91
ag92
ag92
ag92
ag92
ag93
ag91
ag46
asaa(lp98
S'index'
p99
aI44268
aatp100
Rp101
.