ccollections
OrderedDict
p0
((lp1
(lp2
S'combination_dict'
p3
ag0
((lp4
(lp5
S'r_to_g_config'
p6
aS'bl'
p7
aa(lp8
S'num_turns'
p9
aI3
aa(lp10
S'start_direction'
p11
acutils_ms
StartDirection
p12
(I0
tp13
Rp14
aa(lp15
S'assistance_type'
p16
acutils_ms
AssistanceType
p17
(I2
tp18
Rp19
aa(lp20
S'start_mode'
p21
aS't'
p22
aa(lp23
S'ui_given_a_noise'
p24
aF0.7
aa(lp25
S'um_given_ui_noise'
p26
aF0.3
aa(lp27
S'entropy_threshold'
p28
aF0.9
aatp29
Rp30
aa(lp31
S'data'
p32
accollections
defaultdict
p33
(c__builtin__
list
p34
tp35
Rp36
S'a'
p37
(lp38
S'mode_r'
p39
aS'mode_l'
p40
aS'move_n'
p41
ag39
ag41
ag41
ag40
ag41
ag40
ag40
ag41
ag39
ag41
ag40
ag39
ag41
ag40
ag41
ag39
ag41
ag40
ag40
ag39
ag41
ag39
ag41
ag39
ag39
ag39
ag41
ag39
ag41
ag40
ag40
ag40
ag40
ag41
ag40
ag40
ag40
ag39
ag41
ag39
ag41
ag40
ag40
ag39
ag41
ag40
ag40
aS'move_p'
p42
ag40
ag39
ag40
ag39
ag40
ag40
ag41
ag39
ag39
ag41
ag40
ag40
ag40
ag40
ag41
ag39
ag41
ag39
ag41
ag40
ag40
ag39
ag41
ag39
ag41
ag40
ag41
ag40
ag41
ag39
ag41
ag40
ag42
ag40
ag39
ag39
ag41
asS'assistance_match_with_ground_truth'
p43
(lp44
I00
aI01
aI00
aI01
aI00
aI00
aI01
aI00
aI00
aI01
aI01
aI01
aI00
aI00
aI01
aI00
aI01
aI01
aI01
aI01
aI00
aI00
aI01
aI00
aI01
aI00
aI00
aI00
aI01
aI00
aI01
aI01
aI00
aI00
aI00
aI01
aI00
aI00
aI00
aI00
aI01
aI00
aI01
aI00
aI00
aI00
aI01
aI01
aI00
aI01
aI00
aI00
aI00
aI00
aI00
aI00
aI01
aI00
aI00
aI01
aI01
aI00
aI00
aI00
aI01
aI00
aI01
aI00
aI01
aI00
aI00
aI00
aI01
aI00
aI01
aI00
aI01
aI00
aI01
aI00
aI01
aI01
aI01
aI01
aI00
aI00
aI01
aI01
asS'total_steps'
p45
I88
sS'sp'
p46
(lp47
(S'p0'
p48
I0
S'y'
p49
tp50
a(g48
I0
S'x'
p51
tp52
a(g48
I0
S't'
p53
tp54
a(g48
I0
g51
tp55
a(g48
I0
g51
tp56
a(g48
I0
g49
tp57
ag52
ag57
a(g48
I0
g49
tp58
ag52
a(S'p1'
p59
I0
g51
tp60
a(g59
I0
g49
tp61
a(g59
I0
g53
tp62
a(g59
I0
g51
tp63
ag61
a(g48
I0
g49
tp64
ag52
ag60
ag61
a(S'p2'
p65
I0
g49
tp66
a(g65
I0
g49
tp67
a(g65
I0
g53
tp68
a(g65
I0
g51
tp69
a(g65
I0
g53
tp70
ag69
ag70
a(g65
I0
g53
tp71
a(g65
I0
g53
tp72
ag69
a(g59
I0
g51
tp73
ag61
ag66
ag67
ag67
ag67
a(g65
I0
g51
tp74
a(g65
I0
g49
tp75
a(g65
I0
g49
tp76
ag76
ag68
ag69
ag70
ag69
ag75
ag76
ag68
ag69
a(S'p3'
p77
I0
g51
tp78
a(g77
I0
g51
tp79
a(g77
I0
g53
tp80
a(g77
I0
g51
tp81
a(g77
I0
g49
tp82
a(g77
I0
g51
tp83
ag82
a(g65
I0
g49
tp84
ag67
ag74
ag73
a(g59
I0
g51
tp85
ag61
ag66
ag67
ag76
ag76
ag74
ag70
ag69
ag70
ag69
ag75
ag67
ag68
ag69
ag70
ag69
ag75
ag74
ag75
ag74
ag70
ag69
ag78
ag80
a(g77
F1.5707963267948966
g53
tp86
a(g77
F1.5707963267948966
g51
tp87
a(g77
F1.5707963267948966
g51
tp88
a(g77
F1.5707963267948966
g49
tp89
a(S'p4'
p90
F1.5707963267948966
g49
tp91
asS's'
p92
(lp93
(g48
I0
g22
tp94
ag50
ag52
ag54
ag55
ag56
ag57
ag52
ag57
ag58
ag52
ag60
ag61
ag62
ag63
ag61
ag64
ag52
ag60
ag61
ag66
ag67
ag68
ag69
ag70
ag69
ag70
ag71
ag72
ag69
ag73
ag61
ag66
ag67
ag67
ag67
ag74
ag75
ag76
ag76
ag68
ag69
ag70
ag69
ag75
ag76
ag68
ag69
ag78
ag79
ag80
ag81
ag82
ag83
ag82
ag84
ag67
ag74
ag73
ag85
ag61
ag66
ag67
ag76
ag76
ag74
ag70
ag69
ag70
ag69
ag75
ag67
ag68
ag69
ag70
ag69
ag75
ag74
ag75
ag74
ag70
ag69
ag78
ag80
ag86
ag87
ag88
ag89
asS'ui'
p95
(lp96
S'hs'
p97
ag97
ag97
aS'ss'
p98
ag98
aS'hp'
p99
ag97
ag97
ag98
ag97
ag98
ag99
ag98
ag97
ag99
ag98
ag97
ag98
ag99
ag98
ag98
ag97
ag99
ag97
ag99
ag98
ag98
ag46
ag99
ag99
ag99
ag98
ag46
ag98
ag98
ag99
ag99
ag46
ag46
ag99
ag97
ag98
ag99
ag99
ag99
ag46
ag99
ag98
ag98
ag97
ag97
ag98
ag46
ag99
ag46
ag98
ag97
ag98
ag46
ag97
ag98
ag98
ag46
ag46
ag97
ag98
ag99
ag98
ag99
ag99
ag98
ag97
ag99
ag97
ag99
ag99
ag97
ag99
ag97
ag97
ag99
ag98
ag97
ag46
ag97
ag98
ag99
ag98
asS'um_before'
p100
(lp101
g97
ag97
ag97
ag99
ag46
ag99
ag97
ag99
ag98
ag97
ag98
ag99
ag99
ag99
ag99
ag46
ag97
ag98
ag99
ag98
ag98
ag99
ag99
ag97
ag99
ag97
ag98
ag46
ag99
ag46
ag99
ag98
ag98
ag98
ag98
ag97
ag99
ag46
ag46
ag99
ag99
ag97
ag99
ag99
ag46
ag99
ag99
ag98
ag98
ag97
ag99
ag99
ag97
ag99
ag46
ag98
ag97
ag46
ag46
ag99
ag98
ag98
ag46
ag46
ag97
ag97
ag99
ag97
ag99
ag99
ag98
ag99
ag99
ag97
ag99
ag99
ag97
ag99
ag97
ag97
ag99
ag98
ag97
ag46
ag99
ag98
ag99
ag98
asS'um_after'
p102
(lp103
g97
ag97
ag97
ag99
ag46
ag99
ag97
ag99
ag98
ag97
ag98
ag99
ag99
ag99
ag99
ag46
ag97
ag98
ag99
ag98
ag98
ag99
ag99
ag97
ag99
ag97
ag98
ag46
ag99
ag46
ag99
ag98
ag98
ag98
ag98
ag97
ag99
ag46
ag46
ag99
ag99
ag97
ag99
ag99
ag46
ag99
ag99
ag98
ag98
ag97
ag99
ag99
ag97
ag99
ag46
ag98
ag97
ag46
ag46
ag99
ag98
ag98
ag46
ag46
ag97
ag97
ag99
ag97
ag99
ag99
ag98
ag99
ag99
ag97
ag99
ag99
ag97
ag99
ag97
ag97
ag99
ag98
ag97
ag46
ag99
ag98
ag99
ag98
asaa(lp104
S'index'
p105
aI80696
aatp106
Rp107
.