ccollections
OrderedDict
p0
((lp1
(lp2
S'index'
p3
aI12624
aa(lp4
S'combination_dict'
p5
ag0
((lp6
(lp7
S'r_to_g_config'
p8
aS'br'
p9
aa(lp10
S'num_turns'
p11
aI1
aa(lp12
S'start_direction'
p13
acutils_ms
StartDirection
p14
(I1
tp15
Rp16
aa(lp17
S'assistance_type'
p18
acutils_ms
AssistanceType
p19
(I1
tp20
Rp21
aa(lp22
S'start_mode'
p23
aS'x'
p24
aa(lp25
S'ui_given_a_noise'
p26
aF0.7
aa(lp27
S'um_given_ui_noise'
p28
aF0.5
aa(lp29
S'entropy_threshold'
p30
aF0.7
aa(lp31
S'is_assistance'
p32
aI01
aatp33
Rp34
aa(lp35
S'trials'
p36
ag0
((lp37
(lp38
I0
accollections
defaultdict
p39
(c__builtin__
list
p40
tp41
Rp42
S'a'
p43
(lp44
S'mode_r'
p45
aS'move_n'
p46
ag45
ag46
ag46
ag46
aS'mode_l'
p47
ag46
ag45
aS'move_p'
p48
ag45
ag45
ag48
asS'assistance_match_with_ground_truth'
p49
(lp50
I01
aI00
aI01
aI00
aI00
aI00
aI01
aI01
aI01
aI01
aI00
aI01
aI01
asS'total_steps'
p51
I13
sS'sp'
p52
(S'p2'
p53
F1.5707963267948966
S'x'
p54
tp55
sS's'
p56
(lp57
(S'p0'
p58
I0
g24
tp59
a(g58
I0
S'y'
p60
tp61
a(g58
I0
g54
tp62
ag61
a(g58
I0
g60
tp63
ag63
a(g58
I0
S't'
p64
tp65
a(g58
I0
g60
tp66
a(S'p1'
p67
I0
g60
tp68
a(g67
I0
g64
tp69
a(g67
F1.5707963267948966
g64
tp70
a(g67
F1.5707963267948966
g64
tp71
a(g67
F1.5707963267948966
g54
tp72
asS'ui'
p73
(lp74
S'hp'
p75
aS'ss'
p76
ag75
ag76
aS'hs'
p77
ag52
ag77
ag76
ag75
ag52
ag77
ag75
ag52
asS'um_before'
p78
(lp79
g75
ag77
ag75
ag52
ag52
ag75
ag77
ag76
ag75
ag52
ag52
ag75
ag52
asS'um_after'
p80
(lp81
g75
ag77
ag75
ag52
ag52
ag75
ag77
ag76
ag75
ag52
ag52
ag75
ag52
asaa(lp82
I1
ag39
(g40
tp83
Rp84
g43
(lp85
g45
ag46
ag45
ag47
ag45
ag45
ag46
ag45
ag45
ag48
ag47
ag45
ag47
asg49
(lp86
I01
aI01
aI00
aI00
aI00
aI01
aI01
aI00
aI01
aI00
aI00
aI00
aI00
asg51
I13
sg52
(g53
I0
g54
tp87
sg56
(lp88
(g58
I0
g24
tp89
ag61
ag68
a(g67
I0
g54
tp90
a(g58
I0
g54
tp91
a(g58
I0
g54
tp92
ag61
ag68
a(g67
I0
g60
tp93
ag69
a(g67
I0
g54
tp94
a(g67
I0
g60
tp95
ag90
asg73
(lp96
g75
ag52
ag77
ag77
ag77
ag75
ag76
ag75
ag75
ag75
ag52
ag75
ag52
asg78
(lp97
g75
ag76
ag77
ag76
ag76
ag75
ag76
ag52
ag75
ag75
ag75
ag77
ag52
asg80
(lp98
g75
ag76
ag77
ag76
ag76
ag75
ag76
ag52
ag75
ag75
ag75
ag77
ag52
asaa(lp99
I2
ag39
(g40
tp100
Rp101
g43
(lp102
g45
ag45
ag45
ag47
ag46
ag45
ag46
ag47
ag47
ag47
ag47
ag46
ag45
ag48
ag48
ag48
ag47
asg49
(lp103
I00
aI00
aI00
aI01
aI00
aI01
aI00
aI00
aI00
aI00
aI01
aI01
aI01
aI00
aI00
aI00
aI00
asg51
I17
sg52
g87
sg56
(lp104
(g58
I0
g24
tp105
a(g58
I0
g54
tp106
ag92
a(g58
I0
g64
tp107
ag66
ag62
ag61
ag65
a(g58
I0
g64
tp108
a(g58
I0
g64
tp109
ag109
ag66
ag68
ag69
a(g67
I0
g64
tp110
ag110
ag94
asg73
(lp111
g77
ag77
ag52
ag52
ag77
ag75
ag75
ag77
ag77
ag77
ag77
ag76
ag75
ag75
ag76
ag75
ag77
asg78
(lp112
g52
ag76
ag77
ag77
ag77
ag75
ag75
ag76
ag52
ag52
ag77
ag76
ag75
ag76
ag76
ag75
ag52
asg80
(lp113
g52
ag76
ag77
ag77
ag77
ag75
ag75
ag76
ag52
ag52
ag77
ag76
ag75
ag76
ag76
ag75
ag52
asaa(lp114
I3
ag39
(g40
tp115
Rp116
g43
(lp117
g45
ag45
ag47
ag47
ag46
ag45
ag48
ag47
ag45
ag45
ag45
ag45
ag46
ag45
ag45
ag45
ag48
ag45
ag45
ag48
ag45
ag45
ag45
ag48
ag45
ag47
ag45
ag45
ag45
ag48
ag48
ag45
ag48
ag45
ag45
ag45
ag47
ag47
ag45
ag45
ag45
ag45
ag47
ag46
ag46
ag47
ag47
ag48
asg49
(lp118
I00
aI00
aI00
aI01
aI01
aI01
aI00
aI00
aI00
aI00
aI00
aI01
aI01
aI00
aI00
aI01
aI01
aI00
aI01
aI00
aI00
aI00
aI00
aI01
aI00
aI00
aI00
aI00
aI00
aI00
aI01
aI01
aI00
aI00
aI00
aI00
aI00
aI00
aI00
aI00
aI00
aI00
aI01
aI00
aI01
aI00
aI01
aI01
asg51
I48
sg52
g55
sg56
(lp119
(g58
I0
g24
tp120
ag106
ag107
ag109
ag66
ag68
ag69
ag94
ag91
ag106
ag92
ag106
ag61
ag68
ag93
ag93
ag69
ag70
ag71
ag72
a(g67
F1.5707963267948966
g64
tp121
ag71
ag71
a(g67
I0
g64
tp122
ag70
a(g67
F1.5707963267948966
g60
tp123
a(g67
F1.5707963267948966
g64
tp124
ag71
ag71
ag122
ag110
ag70
ag72
a(g58
F1.5707963267948966
g54
tp125
a(g58
F1.5707963267948966
g54
tp126
ag126
a(g58
F1.5707963267948966
g64
tp127
a(g58
F1.5707963267948966
g64
tp128
a(g58
F1.5707963267948966
g54
tp129
ag126
ag126
ag126
ag127
a(g58
F1.5707963267948966
g60
tp130
a(g58
F1.5707963267948966
g60
tp131
a(g67
F1.5707963267948966
g60
tp132
a(g67
F1.5707963267948966
g60
tp133
a(g67
F1.5707963267948966
g54
tp134
asg73
(lp135
g52
ag77
ag77
ag77
ag76
ag75
ag75
ag77
ag77
ag77
ag75
ag75
ag76
ag77
ag52
ag77
ag52
ag52
ag75
ag77
ag75
ag77
ag77
ag52
ag77
ag77
ag52
ag52
ag75
ag76
ag77
ag75
ag76
ag75
ag75
ag52
ag77
ag52
ag77
ag52
ag52
ag77
ag77
ag76
ag76
ag77
ag77
ag77
asg78
(lp136
g52
ag77
ag52
ag77
ag76
ag75
ag75
ag76
ag52
ag76
ag52
ag75
ag76
ag52
ag52
ag75
ag52
ag52
ag75
ag77
ag52
ag52
ag76
ag52
ag77
ag75
ag52
ag52
ag76
ag76
ag52
ag75
ag76
ag52
ag52
ag77
ag52
ag75
ag52
ag52
ag52
ag77
ag77
ag52
ag76
ag52
ag77
ag52
asg80
(lp137
g52
ag77
ag52
ag77
ag76
ag75
ag75
ag76
ag52
ag76
ag52
ag75
ag76
ag52
ag52
ag75
ag52
ag52
ag75
ag77
ag52
ag52
ag76
ag52
ag77
ag75
ag52
ag52
ag76
ag76
ag52
ag75
ag76
ag52
ag52
ag77
ag52
ag75
ag52
ag52
ag52
ag77
ag77
ag52
ag76
ag52
ag77
ag52
asaa(lp138
I4
ag39
(g40
tp139
Rp140
g43
(lp141
g45
ag47
ag46
ag45
ag45
ag48
ag45
ag48
ag47
ag48
asg49
(lp142
I00
aI01
aI01
aI00
aI01
aI01
aI01
aI00
aI01
aI01
asg51
I10
sg52
g55
sg56
(lp143
(g58
I0
g24
tp144
ag107
ag66
ag68
ag93
ag69
ag70
ag72
a(g67
F1.5707963267948966
g60
tp145
ag134
asg73
(lp146
g77
ag52
ag76
ag75
ag75
ag52
ag75
ag75
ag77
ag52
asg78
(lp147
g77
ag77
ag76
ag52
ag75
ag52
ag75
ag75
ag77
ag52
asg80
(lp148
g77
ag77
ag76
ag52
ag75
ag52
ag75
ag75
ag77
ag52
asaa(lp149
I5
ag39
(g40
tp150
Rp151
g43
(lp152
g45
ag46
ag45
ag45
ag47
ag45
ag47
ag47
ag46
ag45
ag45
ag45
ag46
ag46
ag46
ag45
ag47
ag48
ag47
ag45
ag47
ag46
ag46
ag47
ag46
ag46
ag45
ag45
ag48
ag45
ag45
ag48
ag45
ag47
ag48
asg49
(lp153
I01
aI01
aI00
aI00
aI00
aI00
aI00
aI01
aI00
aI00
aI00
aI01
aI00
aI00
aI01
aI00
aI01
aI00
aI00
aI00
aI01
aI00
aI00
aI01
aI00
aI01
aI00
aI01
aI01
aI00
aI00
aI01
aI00
aI01
aI01
asg51
I35
sg52
g55
sg56
(lp154
(g58
I0
g24
tp155
ag61
ag68
a(g67
I0
g60
tp156
ag90
ag91
ag107
ag109
ag66
ag62
ag106
ag106
ag61
ag63
ag63
ag68
ag90
a(g67
I0
g64
tp157
ag94
ag91
ag107
ag66
ag63
ag65
ag66
ag63
ag68
ag93
ag69
ag70
ag71
ag122
ag70
ag123
ag134
asg73
(lp158
g75
ag76
ag76
ag77
ag77
ag77
ag52
ag77
ag75
ag77
ag52
ag75
ag52
ag75
ag76
ag77
ag77
ag52
ag77
ag77
ag77
ag77
ag75
ag77
ag52
ag52
ag75
ag75
ag52
ag52
ag77
ag52
ag52
ag77
ag76
asg78
(lp159
g75
ag76
ag76
ag77
ag76
ag77
ag52
ag77
ag77
ag52
ag52
ag75
ag52
ag52
ag76
ag77
ag77
ag75
ag76
ag77
ag77
ag52
ag75
ag77
ag52
ag76
ag52
ag75
ag52
ag52
ag76
ag52
ag77
ag77
ag52
asg80
(lp160
g75
ag76
ag76
ag77
ag76
ag77
ag52
ag77
ag77
ag52
ag52
ag75
ag52
ag52
ag76
ag77
ag77
ag75
ag76
ag77
ag77
ag52
ag75
ag77
ag52
ag76
ag52
ag75
ag52
ag52
ag76
ag52
ag77
ag77
ag52
asaa(lp161
I6
ag39
(g40
tp162
Rp163
g43
(lp164
g45
ag47
ag47
ag45
ag46
ag45
ag45
ag45
ag45
ag45
ag45
ag46
ag45
ag47
asg49
(lp165
I00
aI00
aI00
aI01
aI00
aI00
aI00
aI00
aI00
aI00
aI01
aI01
aI00
aI00
asg51
I14
sg52
g87
sg56
(lp166
(g58
I0
g24
tp167
ag107
ag109
a(g58
I0
g54
tp168
ag61
ag62
ag106
ag106
ag106
ag106
ag106
ag61
ag68
ag90
asg73
(lp169
g77
ag77
ag75
ag75
ag77
ag75
ag77
ag77
ag75
ag52
ag75
ag76
ag52
ag52
asg78
(lp170
g77
ag52
ag75
ag75
ag77
ag52
ag52
ag52
ag52
ag52
ag75
ag76
ag77
ag52
asg80
(lp171
g77
ag52
ag75
ag75
ag77
ag52
ag52
ag52
ag52
ag52
ag75
ag76
ag77
ag52
asaa(lp172
I7
ag39
(g40
tp173
Rp174
g43
(lp175
g45
ag45
ag46
ag45
ag48
ag47
asg49
(lp176
I00
aI01
aI01
aI01
aI00
aI00
asg51
I6
sg52
g87
sg56
(lp177
(g58
I0
g24
tp178
ag106
ag61
ag68
ag69
ag94
asg73
(lp179
g52
ag75
ag76
ag75
ag52
ag52
asg78
(lp180
g52
ag75
ag76
ag75
ag75
ag52
asg80
(lp181
g52
ag75
ag76
ag75
ag75
ag52
asaa(lp182
I8
ag39
(g40
tp183
Rp184
g43
(lp185
g45
ag47
ag47
ag45
ag45
ag46
ag45
ag47
asg49
(lp186
I00
aI00
aI00
aI00
aI01
aI01
aI00
aI00
asg51
I8
sg52
g87
sg56
(lp187
(g58
I0
g24
tp188
ag107
ag108
ag168
ag106
ag61
ag68
ag90
asg73
(lp189
g77
ag52
ag75
ag75
ag75
ag76
ag77
ag52
asg78
(lp190
g77
ag76
ag75
ag52
ag75
ag76
ag77
ag52
asg80
(lp191
g77
ag76
ag75
ag52
ag75
ag76
ag77
ag52
asaa(lp192
I9
ag39
(g40
tp193
Rp194
g43
(lp195
g45
ag47
ag46
ag47
ag47
ag47
ag47
ag47
ag46
ag45
ag46
ag45
ag46
ag47
ag46
ag46
ag45
ag45
ag48
ag45
ag47
ag47
ag48
ag47
ag48
ag45
ag45
ag45
ag48
asg49
(lp196
I00
aI01
aI00
aI00
aI00
aI00
aI00
aI01
aI00
aI01
aI00
aI01
aI00
aI01
aI00
aI01
aI00
aI01
aI01
aI00
aI00
aI01
aI00
aI01
aI00
aI00
aI00
aI01
aI01
asg51
I29
sg52
g55
sg56
(lp197
(g58
I0
g24
tp198
ag107
ag66
ag65
ag109
ag109
ag109
ag108
ag66
ag62
ag61
ag62
ag61
ag65
ag66
ag63
ag68
ag93
ag69
ag70
ag123
ag133
ag134
ag145
ag134
ag121
ag71
ag71
ag72
asg73
(lp199
g77
ag77
ag76
ag77
ag52
ag77
ag77
ag77
ag76
ag75
ag52
ag75
ag77
ag77
ag77
ag76
ag52
ag75
ag77
ag77
ag77
ag77
ag76
ag77
ag77
ag52
ag77
ag75
ag75
asg78
(lp200
g77
ag77
ag75
ag52
ag52
ag52
ag76
ag77
ag77
ag75
ag77
ag75
ag75
ag77
ag52
ag76
ag52
ag75
ag52
ag77
ag52
ag77
ag75
ag77
ag77
ag52
ag52
ag75
ag52
asg80
(lp201
g77
ag77
ag75
ag52
ag52
ag52
ag76
ag77
ag77
ag75
ag77
ag75
ag75
ag77
ag52
ag76
ag52
ag75
ag52
ag77
ag52
ag77
ag75
ag77
ag77
ag52
ag52
ag75
ag52
asaatp202
Rp203
aatp204
Rp205
.