ccollections
OrderedDict
p0
((lp1
(lp2
S'combination_dict'
p3
ag0
((lp4
(lp5
S'r_to_g_config'
p6
aS'bl'
p7
aa(lp8
S'num_turns'
p9
aI2
aa(lp10
S'start_direction'
p11
acutils_ms
StartDirection
p12
(I0
tp13
Rp14
aa(lp15
S'assistance_type'
p16
acutils_ms
AssistanceType
p17
(I0
tp18
Rp19
aa(lp20
S'start_mode'
p21
aS't'
p22
aa(lp23
S'ui_given_a_noise'
p24
aF0.5
aa(lp25
S'um_given_ui_noise'
p26
aF0.7
aa(lp27
S'entropy_threshold'
p28
aF0.5
aatp29
Rp30
aa(lp31
S'data'
p32
accollections
defaultdict
p33
(c__builtin__
list
p34
tp35
Rp36
S'a'
p37
(lp38
S'mode_r'
p39
aS'move_n'
p40
aS'mode_l'
p41
ag41
ag41
aS'move_p'
p42
ag42
ag39
ag41
ag41
ag42
ag41
ag40
ag41
ag41
ag41
ag40
ag40
ag39
ag39
ag40
ag41
ag39
ag39
ag41
ag41
ag42
ag41
ag41
ag41
ag39
ag42
ag41
ag39
ag41
ag40
ag39
ag39
ag40
ag41
ag41
ag40
ag41
ag39
ag42
ag41
ag40
ag41
ag41
ag41
ag39
ag40
ag41
ag40
ag40
ag39
ag40
ag41
ag41
ag40
ag39
ag40
ag41
ag41
ag40
ag41
ag41
ag39
ag40
ag40
ag41
ag41
ag40
ag40
ag39
ag41
ag40
ag41
ag39
ag41
ag41
ag41
ag41
ag39
ag39
ag40
ag40
ag40
ag40
ag40
ag41
ag39
ag41
ag40
ag39
ag40
ag41
ag39
ag39
ag40
asS'assistance_match_with_ground_truth'
p43
(lp44
I01
aI01
aI00
aI00
aI01
aI00
aI00
aI00
aI00
aI01
aI01
aI01
aI00
aI00
aI00
aI01
aI00
aI01
aI00
aI01
aI00
aI00
aI00
aI00
aI00
aI00
aI00
aI00
aI00
aI00
aI01
aI00
aI00
aI00
aI01
aI00
aI00
aI01
aI00
aI00
aI01
aI00
aI00
aI01
aI01
aI01
aI00
aI00
aI00
aI00
aI01
aI00
aI01
aI00
aI01
aI01
aI01
aI00
aI01
aI00
aI01
aI00
aI00
aI01
aI00
aI00
aI00
aI01
aI00
aI00
aI00
aI01
aI00
aI01
aI00
aI01
aI00
aI00
aI00
aI00
aI00
aI00
aI00
aI00
aI01
aI00
aI00
aI00
aI00
aI00
aI00
aI00
aI01
aI01
aI01
aI01
aI00
aI00
aI01
aI01
asS'total_steps'
p45
I100
sS'sp'
p46
(lp47
(S'p0'
p48
I0
S'x'
p49
tp50
a(S'p1'
p51
I0
g49
tp52
a(g51
I0
g49
tp53
ag53
a(g51
I0
S't'
p54
tp55
a(g51
I0
g54
tp56
a(g51
I0
S'y'
p57
tp58
a(g51
I0
g49
tp59
a(g51
I0
g49
tp60
ag55
a(g51
F1.5707963267948966
g54
tp61
a(g51
F1.5707963267948966
g57
tp62
a(g48
F1.5707963267948966
g57
tp63
a(g48
F1.5707963267948966
g57
tp64
ag64
a(g48
F1.5707963267948966
g49
tp65
a(g48
F1.5707963267948966
g49
tp66
a(g51
F1.5707963267948966
g49
tp67
a(g51
F1.5707963267948966
g49
tp68
a(g51
F1.5707963267948966
g57
tp69
a(g51
F1.5707963267948966
g54
tp70
a(g51
F1.5707963267948966
g49
tp71
a(g51
F1.5707963267948966
g49
tp72
a(g51
F1.5707963267948966
g54
tp73
a(g51
F1.5707963267948966
g54
tp74
a(g51
I0
g54
tp75
a(g51
I0
g49
tp76
ag60
ag53
a(g51
I0
g57
tp77
a(g51
I0
g54
tp78
ag76
ag77
a(S'p2'
p79
I0
g57
tp80
a(g79
I0
g49
tp81
a(g79
I0
g54
tp82
a(g79
I0
g54
tp83
a(g79
I0
g49
tp84
a(g79
I0
g57
tp85
a(g79
I0
g57
tp86
ag81
a(g51
I0
g49
tp87
ag77
ag78
ag61
ag62
ag70
ag74
ag74
ag71
ag69
ag63
ag65
ag66
ag67
ag69
a(g79
F1.5707963267948966
g57
tp88
a(g79
F1.5707963267948966
g57
tp89
a(g79
F1.5707963267948966
g49
tp90
a(g51
F1.5707963267948966
g49
tp91
ag69
ag70
ag74
ag62
ag63
ag64
a(g48
F1.5707963267948966
g54
tp92
a(g48
F1.5707963267948966
g49
tp93
ag66
a(g48
F1.5707963267948966
g57
tp94
ag64
ag65
ag66
ag67
ag73
ag62
ag63
ag92
a(g48
F1.5707963267948966
g57
tp95
a(g48
F1.5707963267948966
g57
tp96
ag64
ag96
ag92
a(g48
F1.5707963267948966
g54
tp97
ag93
ag66
ag66
ag66
ag66
ag94
ag92
ag95
ag65
ag67
ag69
ag88
a(g79
F1.5707963267948966
g54
tp98
a(g79
F1.5707963267948966
g54
tp99
a(g79
F1.5707963267948966
g49
tp100
a(S'p3'
p101
F1.5707963267948966
g49
tp102
asS's'
p103
(lp104
(g48
I0
g22
tp105
ag50
ag52
ag53
ag53
ag55
ag56
ag58
ag59
ag60
ag55
ag61
ag62
ag63
ag64
ag64
ag65
ag66
ag67
ag68
ag69
ag70
ag71
ag72
ag73
ag74
ag75
ag76
ag60
ag53
ag77
ag78
ag76
ag77
ag80
ag81
ag82
ag83
ag84
ag85
ag86
ag81
ag87
ag77
ag78
ag61
ag62
ag70
ag74
ag74
ag71
ag69
ag63
ag65
ag66
ag67
ag69
ag88
ag89
ag90
ag91
ag69
ag70
ag74
ag62
ag63
ag64
ag92
ag93
ag66
ag94
ag64
ag65
ag66
ag67
ag73
ag62
ag63
ag92
ag95
ag96
ag64
ag96
ag92
ag97
ag93
ag66
ag66
ag66
ag66
ag94
ag92
ag95
ag65
ag67
ag69
ag88
ag98
ag99
ag100
asS'ui'
p106
(lp107
S'hp'
p108
aS'ss'
p109
ag46
ag46
aS'hs'
p110
ag109
ag110
ag108
ag110
ag110
ag110
ag110
ag109
ag110
ag110
ag46
ag109
ag109
ag110
ag108
ag109
ag110
ag46
ag110
ag46
ag110
ag108
ag46
ag46
ag110
ag108
ag110
ag110
ag109
ag110
ag46
ag46
ag108
ag108
ag46
ag46
ag109
ag110
ag108
ag46
ag110
ag109
ag109
ag46
ag110
ag108
ag109
ag110
ag109
ag109
ag110
ag109
ag110
ag108
ag109
ag108
ag108
ag46
ag110
ag109
ag46
ag110
ag108
ag109
ag108
ag110
ag110
ag109
ag109
ag110
ag110
ag109
ag110
ag110
ag109
ag110
ag46
ag110
ag108
ag108
ag109
ag109
ag109
ag109
ag110
ag46
ag108
ag110
ag109
ag110
ag109
ag110
ag110
ag110
ag109
asS'um_before'
p111
(lp112
g108
ag109
ag46
ag46
ag110
ag109
ag110
ag110
ag109
ag110
ag46
ag110
ag46
ag109
ag109
ag110
ag46
ag109
ag109
ag108
ag108
ag108
ag46
ag110
ag46
ag109
ag108
ag109
ag46
ag108
ag108
ag108
ag108
ag109
ag110
ag110
ag46
ag108
ag108
ag109
ag110
ag46
ag108
ag108
ag46
ag110
ag108
ag46
ag46
ag108
ag108
ag46
ag110
ag46
ag109
ag108
ag109
ag109
ag110
ag46
ag108
ag108
ag46
ag110
ag46
ag109
ag108
ag108
ag46
ag108
ag109
ag110
ag46
ag109
ag110
ag110
ag46
ag108
ag110
ag46
ag109
ag46
ag108
ag109
ag108
ag46
ag46
ag46
ag46
ag108
ag108
ag110
ag110
ag109
ag108
ag109
ag108
ag109
ag108
ag109
asS'um_after'
p113
(lp114
g108
ag109
ag46
ag46
ag110
ag109
ag110
ag110
ag109
ag110
ag46
ag110
ag46
ag109
ag109
ag110
ag46
ag109
ag109
ag108
ag108
ag108
ag46
ag110
ag46
ag109
ag108
ag109
ag46
ag108
ag108
ag108
ag108
ag109
ag110
ag110
ag46
ag108
ag108
ag109
ag110
ag46
ag108
ag108
ag46
ag110
ag108
ag46
ag46
ag108
ag108
ag46
ag110
ag46
ag109
ag108
ag109
ag109
ag110
ag46
ag108
ag108
ag46
ag110
ag46
ag109
ag108
ag108
ag46
ag108
ag109
ag110
ag46
ag109
ag110
ag110
ag46
ag108
ag110
ag46
ag109
ag46
ag108
ag109
ag108
ag46
ag46
ag46
ag46
ag108
ag108
ag110
ag110
ag109
ag108
ag109
ag108
ag109
ag108
ag109
asaa(lp115
S'index'
p116
aI67750
aatp117
Rp118
.