ccollections
OrderedDict
p0
((lp1
(lp2
S'index'
p3
aI8466
aa(lp4
S'combination_dict'
p5
ag0
((lp6
(lp7
S'r_to_g_config'
p8
aS'bl'
p9
aa(lp10
S'num_turns'
p11
aI1
aa(lp12
S'start_direction'
p13
acutils_ms
StartDirection
p14
(I1
tp15
Rp16
aa(lp17
S'assistance_type'
p18
acutils_ms
AssistanceType
p19
(I0
tp20
Rp21
aa(lp22
S'start_mode'
p23
aS'x'
p24
aa(lp25
S'ui_given_a_noise'
p26
aF0.7
aa(lp27
S'um_given_ui_noise'
p28
aF0.5
aa(lp29
S'entropy_threshold'
p30
aF0.8
aa(lp31
S'is_assistance'
p32
aI01
aatp33
Rp34
aa(lp35
S'trials'
p36
ag0
((lp37
(lp38
I0
accollections
defaultdict
p39
(c__builtin__
list
p40
tp41
Rp42
S'a'
p43
(lp44
S'mode_r'
p45
ag45
ag45
ag45
aS'mode_l'
p46
ag46
ag46
aS'move_n'
p47
ag45
aS'move_p'
p48
ag45
ag45
ag45
ag45
ag45
ag48
ag46
ag46
ag45
ag45
ag47
ag45
ag45
ag45
ag45
ag47
ag45
ag45
ag48
ag48
ag48
ag45
ag47
ag45
ag46
ag47
ag46
ag46
ag46
ag46
ag46
ag47
ag46
ag47
ag46
ag46
ag46
ag47
asS'assistance_match_with_ground_truth'
p49
(lp50
I00
aI00
aI00
aI00
aI00
aI00
aI01
aI01
aI01
aI00
aI00
aI00
aI00
aI00
aI01
aI00
aI00
aI00
aI00
aI01
aI00
aI00
aI00
aI00
aI01
aI01
aI00
aI01
aI00
aI00
aI01
aI01
aI00
aI00
aI01
aI00
aI00
aI00
aI00
aI00
aI01
aI00
aI01
aI01
aI00
aI00
aI01
aI01
asS'total_steps'
p51
I48
sS'sp'
p52
(S'p2'
p53
F1.5707963267948966
S'x'
p54
tp55
sS's'
p56
(lp57
(S'p0'
p58
I0
g24
tp59
a(g58
I0
g54
tp60
ag60
ag60
a(g58
I0
S't'
p61
tp62
ag62
ag62
a(g58
I0
S'y'
p63
tp64
a(S'p1'
p65
I0
g63
tp66
a(g65
I0
g61
tp67
a(g65
I0
g63
tp68
a(g65
I0
g63
tp69
ag69
ag69
ag69
ag67
a(g65
I0
g54
tp70
ag70
a(g58
I0
g54
tp71
ag71
a(g58
I0
g63
tp72
a(g58
I0
g54
tp73
ag73
ag73
ag60
ag72
ag66
ag69
ag67
a(g65
I0
g61
tp74
ag74
a(g65
F1.5707963267948966
g61
tp75
a(g65
F1.5707963267948966
g54
tp76
a(g58
F1.5707963267948966
g54
tp77
a(g58
F1.5707963267948966
g61
tp78
a(g58
F1.5707963267948966
g63
tp79
a(g58
F1.5707963267948966
g61
tp80
a(g58
F1.5707963267948966
g61
tp81
ag81
ag81
ag81
ag79
ag80
ag79
a(g65
F1.5707963267948966
g63
tp82
ag82
ag82
a(g65
F1.5707963267948966
g54
tp83
asS'ui'
p84
(lp85
S'ss'
p86
aS'hp'
p87
ag86
ag52
ag52
aS'hs'
p88
ag88
ag86
ag87
ag86
ag86
ag87
ag87
ag87
ag87
ag87
ag88
ag52
ag52
ag87
ag52
ag87
ag52
ag86
ag87
ag86
ag86
ag87
ag86
ag86
ag86
ag87
ag52
ag86
ag88
ag87
ag52
ag88
ag88
ag88
ag52
ag88
ag88
ag86
ag88
ag88
ag88
ag86
asS'um_before'
p89
(lp90
g86
ag52
ag86
ag88
ag86
ag86
ag88
ag86
ag87
ag88
ag86
ag86
ag86
ag52
ag87
ag87
ag86
ag52
ag52
ag87
ag88
ag52
ag52
ag86
ag87
ag86
ag86
ag87
ag86
ag86
ag52
ag87
ag52
ag88
ag88
ag87
ag52
ag87
ag86
ag86
ag88
ag87
ag88
ag86
ag86
ag86
ag88
ag86
asS'um_after'
p91
(lp92
g86
aNag86
ag88
aNaNag88
ag86
ag87
ag88
ag86
ag86
ag86
aNag87
ag87
aNag52
aNag87
ag88
aNaNag86
ag87
ag86
ag86
ag87
ag86
ag86
ag52
ag87
ag52
ag88
ag88
ag87
ag52
aNaNaNag88
ag87
ag88
ag86
aNaNag88
ag86
asaa(lp93
I1
ag39
(g40
tp94
Rp95
g43
(lp96
g45
ag47
ag47
ag45
ag48
ag45
ag48
ag48
ag48
ag46
ag45
ag47
ag47
ag45
ag48
ag48
ag48
ag48
ag45
ag48
ag46
ag48
ag48
ag45
ag45
ag47
ag45
ag48
ag48
ag46
ag48
ag45
ag47
asg49
(lp97
I01
aI00
aI01
aI01
aI00
aI01
aI00
aI00
aI00
aI00
aI01
aI00
aI01
aI01
aI00
aI00
aI00
aI01
aI00
aI00
aI01
aI00
aI01
aI00
aI01
aI00
aI00
aI00
aI00
aI01
aI01
aI01
aI01
asg51
I33
sg52
g55
sg56
(lp98
(g58
I0
g24
tp99
ag72
a(g58
I0
g63
tp100
ag66
ag67
ag68
ag67
ag74
ag74
ag70
ag71
ag72
ag100
ag66
ag67
ag74
ag74
ag74
ag75
a(g65
I0
g61
tp101
ag70
a(g65
I0
g61
tp102
ag74
ag75
ag75
ag76
a(g65
F1.5707963267948966
g61
tp103
ag101
ag74
ag70
ag102
ag75
ag76
asg84
(lp104
g87
ag52
ag86
ag52
ag86
ag87
ag88
ag86
ag87
ag52
ag87
ag88
ag88
ag87
ag52
ag52
ag86
ag86
ag86
ag88
ag88
ag88
ag52
ag52
ag87
ag86
ag86
ag52
ag52
ag88
ag52
ag87
ag86
asg89
(lp105
g87
ag52
ag86
ag87
ag88
ag87
ag86
ag86
ag87
ag52
ag87
ag52
ag86
ag87
ag86
ag86
ag86
ag52
ag86
ag87
ag88
ag86
ag52
ag52
ag87
ag88
ag86
ag86
ag87
ag88
ag52
ag87
ag86
asg91
(lp106
g87
ag52
ag86
ag87
ag88
ag87
ag86
ag86
ag87
ag52
ag87
ag52
ag86
ag87
ag86
ag86
ag86
ag52
ag86
ag87
ag88
ag86
ag52
aNag87
ag88
ag86
ag86
ag87
ag88
ag52
ag87
ag86
asaa(lp107
I2
ag39
(g40
tp108
Rp109
g43
(lp110
g45
ag45
ag47
ag45
ag47
ag47
ag45
ag48
ag45
ag48
ag45
ag45
ag48
ag48
ag45
ag46
ag48
ag46
ag46
ag48
ag45
ag45
ag46
ag46
ag46
ag46
ag45
ag47
ag45
ag47
ag45
ag48
ag45
ag47
ag45
ag47
asg49
(lp111
I00
aI01
aI00
aI01
aI00
aI01
aI01
aI01
aI00
aI00
aI00
aI01
aI00
aI00
aI00
aI01
aI00
aI00
aI01
aI00
aI00
aI00
aI00
aI00
aI00
aI00
aI01
aI00
aI01
aI01
aI01
aI01
aI01
aI00
aI01
aI01
asg51
I36
sg52
g55
sg56
(lp112
(g58
I0
g24
tp113
ag113
ag72
ag73
ag72
ag100
ag66
ag67
ag75
ag101
ag68
ag68
ag67
ag74
ag68
a(g65
I0
g54
tp114
ag102
ag70
ag70
ag102
ag68
ag68
ag114
ag114
ag114
ag114
ag71
ag72
ag73
ag72
ag66
ag67
ag75
ag76
ag103
ag76
asg84
(lp115
g87
ag52
ag86
ag87
ag88
ag52
ag87
ag52
ag86
ag88
ag87
ag87
ag52
ag88
ag52
ag52
ag87
ag88
ag88
ag86
ag86
ag52
ag88
ag88
ag52
ag52
ag87
ag52
ag52
ag86
ag87
ag52
ag87
ag52
ag87
ag86
asg89
(lp116
g52
ag87
ag88
ag87
ag52
ag86
ag87
ag52
ag86
ag88
ag52
ag87
ag86
ag88
ag88
ag88
ag87
ag86
ag88
ag88
ag52
ag88
ag86
ag86
ag86
ag52
ag87
ag88
ag87
ag86
ag87
ag52
ag87
ag88
ag87
ag86
asg91
(lp117
Nag87
ag88
ag87
ag52
ag86
ag87
ag52
ag86
ag88
aNag87
ag86
ag88
ag88
ag88
ag87
aNag88
ag88
aNag88
aNaNaNag52
ag87
ag88
ag87
ag86
ag87
ag52
ag87
ag88
ag87
ag86
asaa(lp118
I3
ag39
(g40
tp119
Rp120
g43
(lp121
g45
ag47
ag47
ag47
ag45
ag45
ag45
ag45
ag45
ag48
ag46
ag48
ag46
ag48
ag45
ag46
ag46
ag46
ag46
ag46
ag46
ag46
ag46
ag46
ag46
ag47
ag45
ag48
ag45
ag47
ag45
ag47
ag45
ag45
ag48
ag45
ag45
ag48
ag46
ag48
ag45
ag46
ag47
ag45
ag46
ag46
ag46
ag46
ag46
ag46
ag47
ag45
ag45
ag45
ag45
ag45
ag45
ag47
ag46
ag46
ag46
ag47
ag46
ag46
ag47
ag45
ag47
ag45
ag47
ag46
ag46
ag47
ag45
ag47
ag46
ag47
asg49
(lp122
I01
aI00
aI00
aI01
aI00
aI00
aI00
aI00
aI01
aI00
aI01
aI00
aI01
aI01
aI00
aI00
aI00
aI00
aI00
aI00
aI00
aI00
aI00
aI00
aI01
aI00
aI00
aI01
aI01
aI00
aI01
aI00
aI00
aI00
aI00
aI00
aI01
aI00
aI01
aI01
aI00
aI01
aI00
aI00
aI00
aI00
aI00
aI00
aI00
aI01
aI00
aI00
aI00
aI00
aI00
aI00
aI01
aI01
aI00
aI00
aI01
aI00
aI00
aI01
aI00
aI01
aI00
aI01
aI01
aI00
aI01
aI00
aI01
aI01
aI01
aI01
asg51
I76
sg52
g55
sg56
(lp123
(g58
I0
g24
tp124
ag72
ag100
ag100
ag66
ag66
ag66
ag69
ag69
ag67
ag70
ag102
ag70
ag102
ag75
a(g65
F1.5707963267948966
g63
tp125
ag125
a(g65
F1.5707963267948966
g63
tp126
ag126
ag126
ag126
ag126
ag126
ag126
ag126
ag83
ag103
ag101
ag75
ag76
ag103
ag76
ag103
ag103
ag101
ag68
ag69
ag67
ag70
ag102
ag75
ag125
ag83
ag103
ag125
ag125
ag125
ag125
ag125
ag125
ag83
ag77
ag77
ag77
ag77
ag77
a(g58
F1.5707963267948966
g54
tp127
a(g58
F1.5707963267948966
g63
tp128
ag82
ag126
ag126
ag83
a(g65
F1.5707963267948966
g63
tp129
ag129
ag83
ag103
ag76
ag77
ag128
ag82
ag82
ag83
ag77
ag128
ag82
ag83
asg84
(lp130
g87
ag86
ag52
ag86
ag86
ag86
ag87
ag52
ag52
ag88
ag88
ag87
ag88
ag52
ag86
ag86
ag86
ag52
ag88
ag52
ag52
ag52
ag52
ag88
ag88
ag88
ag86
ag52
ag87
ag86
ag87
ag88
ag87
ag52
ag52
ag86
ag87
ag87
ag88
ag88
ag87
ag86
ag86
ag88
ag88
ag86
ag86
ag52
ag88
ag88
ag52
ag87
ag52
ag52
ag87
ag86
ag87
ag86
ag52
ag52
ag88
ag52
ag87
ag88
ag88
ag87
ag52
ag87
ag86
ag86
ag88
ag52
ag87
ag86
ag88
ag86
asg89
(lp131
g87
ag52
ag52
ag86
ag52
ag52
ag86
ag52
ag87
ag87
ag88
ag87
ag88
ag52
ag88
ag86
ag52
ag52
ag52
ag52
ag52
ag52
ag52
ag87
ag88
ag88
ag86
ag52
ag87
ag88
ag87
ag88
ag52
ag86
ag88
ag86
ag87
ag87
ag88
ag52
ag88
ag88
ag88
ag88
ag87
ag86
ag86
ag86
ag87
ag88
ag52
ag52
ag52
ag52
ag52
ag86
ag87
ag86
ag52
ag52
ag88
ag87
ag87
ag88
ag88
ag87
ag52
ag87
ag86
ag86
ag88
ag52
ag87
ag86
ag88
ag86
asg91
(lp132
g87
ag52
ag52
ag86
aNaNag86
aNag87
ag87
ag88
ag87
ag88
ag52
ag88
aNag52
ag52
ag52
ag52
ag52
ag52
ag52
aNag88
ag88
ag86
ag52
ag87
ag88
ag87
ag88
aNag86
ag88
ag86
ag87
ag87
ag88
ag52
ag88
ag88
ag88
ag88
aNaNaNaNaNag88
ag52
aNaNaNaNag86
ag87
ag86
ag52
ag52
ag88
ag87
aNag88
ag88
ag87
ag52
ag87
ag86
aNag88
ag52
ag87
ag86
ag88
ag86
asaa(lp133
I4
ag39
(g40
tp134
Rp135
g43
(lp136
g45
ag45
ag47
ag46
ag46
ag47
ag47
ag46
ag46
ag46
ag46
ag47
ag45
ag45
ag45
ag45
ag45
ag48
ag45
ag45
ag45
ag46
ag48
ag45
ag47
asg49
(lp137
I00
aI01
aI00
aI00
aI01
aI00
aI00
aI00
aI00
aI00
aI01
aI01
aI00
aI00
aI00
aI00
aI01
aI00
aI00
aI00
aI00
aI01
aI01
aI01
aI01
asg51
I25
sg52
g55
sg56
(lp138
(g58
I0
g24
tp139
ag139
ag72
a(g58
I0
g61
tp140
a(g58
I0
g61
tp141
ag64
ag100
ag140
ag140
ag140
ag140
ag64
ag66
ag66
ag69
ag69
ag69
ag67
ag68
ag69
ag69
ag114
ag102
ag75
ag76
asg84
(lp142
g87
ag52
ag88
ag86
ag52
ag52
ag87
ag52
ag52
ag88
ag88
ag86
ag87
ag52
ag52
ag52
ag87
ag88
ag86
ag86
ag88
ag86
ag87
ag87
ag86
asg89
(lp143
g52
ag87
ag87
ag52
ag88
ag52
ag87
ag86
ag86
ag86
ag88
ag86
ag52
ag86
ag52
ag52
ag87
ag88
ag86
ag86
ag88
ag88
ag52
ag87
ag86
asg91
(lp144
Nag87
ag87
ag52
ag88
ag52
ag87
aNaNaNag88
ag86
aNag86
aNaNag87
ag88
ag86
ag86
ag88
ag88
ag52
ag87
ag86
asaa(lp145
I5
ag39
(g40
tp146
Rp147
g43
(lp148
g45
ag47
ag45
ag48
ag45
ag47
asg49
(lp149
I01
aI01
aI01
aI01
aI01
aI01
asg51
I6
sg52
g55
sg56
(lp150
(g58
I0
g24
tp151
ag72
ag66
ag67
ag75
ag76
asg84
(lp152
g87
ag86
ag87
ag52
ag87
ag86
asg89
(lp153
g87
ag86
ag87
ag52
ag87
ag86
asg91
(lp154
g87
ag86
ag87
ag52
ag87
ag86
asaa(lp155
I6
ag39
(g40
tp156
Rp157
g43
(lp158
g45
ag47
ag45
ag45
ag45
ag48
ag45
ag47
asg49
(lp159
I01
aI01
aI00
aI00
aI01
aI01
aI01
aI01
asg51
I8
sg52
g55
sg56
(lp160
(g58
I0
g24
tp161
ag72
ag66
ag66
ag69
ag67
ag75
ag76
asg84
(lp162
g87
ag88
ag87
ag86
ag87
ag52
ag87
ag87
asg89
(lp163
g87
ag86
ag52
ag86
ag87
ag52
ag87
ag86
asg91
(lp164
g87
ag86
aNag86
ag87
ag52
ag87
ag86
asaa(lp165
I7
ag39
(g40
tp166
Rp167
g43
(lp168
g45
ag47
ag45
ag45
ag45
ag48
ag45
ag45
ag47
ag45
ag45
ag47
ag46
ag46
ag46
ag47
ag45
ag45
ag45
ag45
ag45
ag47
ag45
ag45
ag45
ag47
ag46
ag47
ag45
ag48
ag46
ag46
ag46
ag45
ag47
ag45
ag45
ag46
ag47
ag45
ag45
ag45
ag46
ag46
ag48
ag45
ag47
asg49
(lp169
I01
aI01
aI00
aI00
aI01
aI01
aI00
aI01
aI00
aI00
aI01
aI01
aI00
aI00
aI01
aI00
aI00
aI00
aI00
aI00
aI01
aI00
aI00
aI00
aI01
aI01
aI01
aI00
aI00
aI00
aI00
aI00
aI00
aI01
aI00
aI00
aI00
aI01
aI01
aI00
aI00
aI00
aI00
aI01
aI01
aI01
aI01
asg51
I47
sg52
g55
sg56
(lp170
(g58
I0
g24
tp171
ag72
ag66
ag66
ag66
ag67
ag75
ag75
ag76
ag77
ag77
ag128
ag82
ag126
ag126
ag83
ag77
ag127
ag127
ag127
ag127
ag128
a(g58
F1.5707963267948966
g54
tp172
ag127
ag127
ag128
ag82
ag83
ag103
ag101
ag70
ag70
ag70
ag71
ag72
ag73
ag73
ag62
ag64
ag66
ag66
ag66
ag114
ag114
ag102
ag75
ag76
asg84
(lp173
g87
ag52
ag87
ag52
ag87
ag52
ag87
ag87
ag86
ag87
ag87
ag86
ag86
ag52
ag88
ag52
ag86
ag86
ag87
ag52
ag87
ag86
ag86
ag52
ag87
ag52
ag88
ag88
ag52
ag87
ag88
ag88
ag52
ag87
ag88
ag52
ag86
ag88
ag88
ag52
ag52
ag87
ag88
ag88
ag87
ag87
ag88
asg89
(lp174
g87
ag86
ag52
ag52
ag87
ag52
ag52
ag87
ag52
ag52
ag87
ag86
ag52
ag52
ag88
ag52
ag86
ag52
ag52
ag86
ag87
ag88
ag86
ag52
ag87
ag86
ag88
ag88
ag86
ag87
ag87
ag86
ag52
ag87
ag88
ag52
ag88
ag88
ag86
ag52
ag52
ag88
ag87
ag88
ag52
ag87
ag86
asg91
(lp175
g87
ag86
aNaNag87
ag52
aNag87
ag52
aNag87
ag86
ag52
ag52
ag88
ag52
ag86
aNaNag86
ag87
ag88
ag86
aNag87
ag86
ag88
ag88
ag86
ag87
aNaNag52
ag87
ag88
aNag88
ag88
ag86
aNaNag88
aNag88
ag52
ag87
ag86
asaa(lp176
I8
ag39
(g40
tp177
Rp178
g43
(lp179
g45
ag47
ag45
ag45
ag47
ag45
ag45
ag45
ag45
ag47
ag47
ag47
ag47
ag45
ag45
ag48
ag45
ag45
ag45
ag47
ag46
ag46
ag46
ag47
ag45
ag45
ag45
ag45
ag46
ag46
ag47
ag45
ag45
ag45
ag47
ag47
ag46
ag47
asg49
(lp180
I01
aI00
aI00
aI01
aI00
aI00
aI00
aI00
aI01
aI00
aI00
aI00
aI01
aI00
aI01
aI01
aI00
aI00
aI01
aI00
aI00
aI00
aI01
aI00
aI00
aI00
aI00
aI00
aI00
aI01
aI00
aI00
aI00
aI01
aI00
aI01
aI01
aI01
asg51
I38
sg52
g55
sg56
(lp181
(g58
I0
g24
tp182
ag72
ag73
ag73
ag72
ag73
ag60
ag60
ag60
ag72
ag100
ag100
ag100
ag66
ag69
ag67
ag75
ag75
ag75
ag76
ag129
ag129
ag129
ag83
ag77
ag77
ag77
ag77
ag78
ag81
ag79
ag172
ag172
ag127
ag128
a(g58
F1.5707963267948966
g63
tp183
ag82
ag83
asg84
(lp184
g87
ag88
ag87
ag87
ag88
ag86
ag86
ag87
ag87
ag88
ag52
ag86
ag88
ag87
ag86
ag52
ag86
ag52
ag87
ag88
ag88
ag88
ag88
ag52
ag86
ag52
ag52
ag88
ag52
ag88
ag86
ag52
ag86
ag87
ag52
ag88
ag88
ag88
asg89
(lp185
g87
ag88
ag52
ag87
ag88
ag86
ag86
ag86
ag87
ag52
ag52
ag52
ag86
ag86
ag87
ag52
ag52
ag52
ag87
ag87
ag86
ag86
ag88
ag52
ag52
ag52
ag52
ag88
ag52
ag88
ag88
ag52
ag86
ag87
ag52
ag86
ag88
ag86
asg91
(lp186
g87
ag88
aNag87
ag88
ag86
ag86
ag86
ag87
ag52
ag52
ag52
ag86
ag86
ag87
ag52
aNaNag87
ag87
aNaNag88
ag52
aNaNaNag88
ag52
ag88
ag88
aNag86
ag87
ag52
ag86
ag88
ag86
asaa(lp187
I9
ag39
(g40
tp188
Rp189
g43
(lp190
g45
ag47
ag45
ag46
ag46
ag48
ag45
ag48
ag48
ag45
ag47
ag45
ag45
ag45
ag46
ag46
ag46
ag46
ag47
ag45
ag45
ag47
ag47
ag47
ag47
ag46
ag46
ag46
ag47
asg49
(lp191
I01
aI01
aI00
aI00
aI01
aI00
aI01
aI00
aI01
aI01
aI00
aI00
aI00
aI00
aI00
aI00
aI00
aI01
aI00
aI00
aI01
aI00
aI00
aI00
aI01
aI00
aI00
aI01
aI01
asg51
I29
sg52
g55
sg56
(lp192
(g58
I0
g24
tp193
ag72
ag66
ag114
ag114
ag102
ag68
ag67
ag74
ag75
ag76
ag103
ag103
ag103
ag125
ag125
ag125
ag125
ag83
ag77
ag77
ag128
ag183
ag183
ag183
ag82
ag82
ag82
ag83
asg84
(lp194
g87
ag88
ag86
ag88
ag88
ag52
ag87
ag86
ag52
ag87
ag88
ag52
ag86
ag52
ag52
ag52
ag52
ag86
ag52
ag86
ag87
ag52
ag86
ag86
ag88
ag88
ag86
ag88
ag86
asg89
(lp195
g87
ag86
ag88
ag87
ag88
ag88
ag87
ag86
ag52
ag87
ag88
ag52
ag52
ag88
ag86
ag87
ag86
ag88
ag52
ag52
ag87
ag52
ag52
ag52
ag86
ag86
ag86
ag88
ag86
asg91
(lp196
g87
ag86
ag88
aNag88
ag88
ag87
ag86
ag52
ag87
ag88
aNaNag88
aNaNaNag88
ag52
aNag87
ag52
ag52
ag52
ag86
aNaNag88
ag86
asaatp197
Rp198
aatp199
Rp200
.