ccollections
OrderedDict
p0
((lp1
(lp2
S'index'
p3
aI2314
aa(lp4
S'combination_dict'
p5
ag0
((lp6
(lp7
S'r_to_g_config'
p8
aS'tr'
p9
aa(lp10
S'num_turns'
p11
aI2
aa(lp12
S'start_direction'
p13
acutils_ms
StartDirection
p14
(I1
tp15
Rp16
aa(lp17
S'assistance_type'
p18
acutils_ms
AssistanceType
p19
(I1
tp20
Rp21
aa(lp22
S'start_mode'
p23
aS'x'
p24
aa(lp25
S'ui_given_a_noise'
p26
aF0.3
aa(lp27
S'um_given_ui_noise'
p28
aF0.7
aa(lp29
S'entropy_threshold'
p30
aF0.7
aa(lp31
S'is_assistance'
p32
aI01
aatp33
Rp34
aa(lp35
S'trials'
p36
ag0
((lp37
(lp38
I0
accollections
defaultdict
p39
(c__builtin__
list
p40
tp41
Rp42
S'a'
p43
(lp44
S'mode_r'
p45
aS'move_p'
p46
aS'mode_l'
p47
ag46
ag47
ag46
ag45
ag46
ag47
ag46
ag45
ag46
ag45
ag46
asS'assistance_match_with_ground_truth'
p48
(lp49
I01
aI00
aI01
aI00
aI01
aI01
aI01
aI00
aI01
aI01
aI01
aI01
aI01
aI01
asS'total_steps'
p50
I14
sS'sp'
p51
(S'p3'
p52
F1.5707963267948966
S'y'
p53
tp54
sS's'
p55
(lp56
(S'p0'
p57
I0
g24
tp58
a(g57
I0
g53
tp59
a(g57
I0
S't'
p60
tp61
a(g57
I0
g53
tp62
ag61
ag62
a(S'p1'
p63
I0
g53
tp64
a(g63
I0
g60
tp65
a(g63
I0
S'x'
p66
tp67
a(g63
I0
g60
tp68
a(g63
F1.5707963267948966
g60
tp69
a(g63
F1.5707963267948966
g66
tp70
a(S'p2'
p71
F1.5707963267948966
g66
tp72
a(g71
F1.5707963267948966
g53
tp73
asS'ui'
p74
(lp75
S'hp'
p76
ag51
aS'hs'
p77
ag51
ag77
ag51
ag76
ag51
ag76
ag51
ag76
ag51
ag76
ag51
asS'um_before'
p78
(lp79
g76
ag76
ag76
ag76
ag76
ag51
aS'ss'
p80
ag76
ag76
ag77
ag80
ag51
ag76
ag51
asS'um_after'
p81
(lp82
g76
ag76
ag77
ag76
ag77
ag51
ag76
ag76
ag77
ag51
ag76
ag51
ag76
ag51
asaa(lp83
I1
ag39
(g40
tp84
Rp85
g43
(lp86
g45
ag46
ag45
ag46
ag45
ag46
ag45
ag46
asg48
(lp87
I01
aI01
aI01
aI01
aI01
aI01
aI01
aI01
asg50
I8
sg51
g54
sg55
(lp88
(g57
I0
g24
tp89
ag59
ag64
ag65
ag69
ag70
ag72
ag73
asg74
(lp90
g76
ag51
ag76
ag51
ag76
ag51
ag76
ag51
asg78
(lp91
g76
ag51
ag51
ag51
ag77
ag51
ag51
ag51
asg81
(lp92
g76
ag51
ag76
ag51
ag76
ag51
ag76
ag51
asaa(lp93
I2
ag39
(g40
tp94
Rp95
g43
(lp96
g45
ag46
ag47
ag47
ag46
ag47
ag46
ag46
ag47
ag47
ag46
ag45
ag46
ag45
ag46
ag45
ag46
asg48
(lp97
I01
aI00
aI00
aI01
aI00
aI01
aI00
aI00
aI00
aI01
aI01
aI01
aI01
aI01
aI01
aI01
aI01
asg50
I17
sg51
g54
sg55
(lp98
(g57
I0
g24
tp99
ag59
ag61
a(g57
I0
g60
tp100
ag62
ag61
ag62
a(g57
I0
g53
tp101
ag61
ag100
ag62
ag64
ag65
ag69
ag70
ag72
ag73
asg74
(lp102
g76
ag51
ag76
ag77
ag51
ag77
ag76
ag51
ag77
ag77
ag51
ag76
ag51
ag76
ag51
ag76
ag51
asg78
(lp103
g76
ag76
ag51
ag76
ag76
ag76
ag80
ag76
ag51
ag77
ag51
ag51
ag51
ag80
ag51
ag76
ag51
asg81
(lp104
g76
ag76
ag51
ag77
ag76
ag77
ag80
ag76
ag51
ag77
ag51
ag76
ag51
ag76
ag51
ag76
ag51
asaa(lp105
I3
ag39
(g40
tp106
Rp107
g43
(lp108
g45
ag46
ag47
ag46
ag45
ag46
ag47
ag46
ag45
ag46
ag45
ag46
ag47
ag46
ag47
ag46
ag45
ag46
asg48
(lp109
I01
aI00
aI01
aI01
aI01
aI00
aI01
aI01
aI01
aI01
aI01
aI00
aI01
aI00
aI01
aI01
aI01
aI01
asg50
I18
sg51
g54
sg55
(lp110
(g57
I0
g24
tp111
ag59
ag61
ag62
ag64
ag65
ag67
ag68
ag69
ag70
ag72
ag73
a(g71
F1.5707963267948966
g60
tp112
a(g71
F1.5707963267948966
g53
tp113
a(g63
F1.5707963267948966
g53
tp114
a(g63
F1.5707963267948966
g66
tp115
ag72
ag73
asg74
(lp116
g76
ag77
ag77
ag51
ag76
ag51
ag51
ag51
ag76
ag51
ag76
ag51
ag51
ag80
ag77
ag51
ag76
ag51
asg78
(lp117
g76
ag76
ag77
ag51
ag76
ag76
ag77
ag51
ag51
ag51
ag76
ag76
ag76
ag80
ag76
ag51
ag77
ag51
asg81
(lp118
g76
ag76
ag77
ag51
ag76
ag76
ag77
ag51
ag76
ag51
ag76
ag76
ag77
ag80
ag77
ag51
ag76
ag51
asaa(lp119
I4
ag39
(g40
tp120
Rp121
g43
(lp122
g45
ag46
ag45
ag46
ag45
ag46
ag45
ag46
asg48
(lp123
I01
aI01
aI01
aI01
aI01
aI01
aI01
aI01
asg50
I8
sg51
g54
sg55
(lp124
(g57
I0
g24
tp125
ag59
ag64
ag65
ag69
ag70
ag72
ag73
asg74
(lp126
g77
ag51
ag76
ag51
ag76
ag51
ag76
ag80
asg78
(lp127
g77
ag51
ag76
ag77
ag76
ag51
ag76
ag51
asg81
(lp128
g76
ag51
ag76
ag51
ag76
ag51
ag76
ag51
asaa(lp129
I5
ag39
(g40
tp130
Rp131
g43
(lp132
g45
ag46
ag45
ag46
ag45
ag46
ag45
ag46
asg48
(lp133
I01
aI01
aI01
aI01
aI01
aI01
aI01
aI01
asg50
I8
sg51
g54
sg55
(lp134
(g57
I0
g24
tp135
ag59
ag64
ag65
ag69
ag70
ag72
ag73
asg74
(lp136
g51
ag51
ag76
ag80
ag76
ag51
ag76
ag51
asg78
(lp137
g77
ag77
ag76
ag51
ag80
ag77
ag76
ag51
asg81
(lp138
g76
ag51
ag76
ag51
ag76
ag51
ag76
ag51
asaa(lp139
I6
ag39
(g40
tp140
Rp141
g43
(lp142
g45
ag46
ag45
ag46
ag45
ag46
ag45
ag46
asg48
(lp143
I01
aI01
aI01
aI01
aI01
aI01
aI01
aI01
asg50
I8
sg51
g54
sg55
(lp144
(g57
I0
g24
tp145
ag59
ag64
ag65
ag69
ag70
ag72
ag73
asg74
(lp146
g76
ag51
ag80
ag51
ag76
ag51
ag76
ag51
asg78
(lp147
g80
ag77
ag80
ag51
ag80
ag51
ag77
ag51
asg81
(lp148
g76
ag51
ag76
ag51
ag76
ag51
ag76
ag51
asaa(lp149
I7
ag39
(g40
tp150
Rp151
g43
(lp152
g45
ag46
ag45
ag46
ag45
ag46
ag45
ag46
asg48
(lp153
I01
aI01
aI01
aI01
aI01
aI01
aI01
aI01
asg50
I8
sg51
g54
sg55
(lp154
(g57
I0
g24
tp155
ag59
ag64
ag65
ag69
ag70
ag72
ag73
asg74
(lp156
g76
ag51
ag76
ag51
ag76
ag51
ag76
ag77
asg78
(lp157
g76
ag51
ag76
ag51
ag51
ag51
ag80
ag77
asg81
(lp158
g76
ag51
ag76
ag51
ag76
ag51
ag76
ag51
asaa(lp159
I8
ag39
(g40
tp160
Rp161
g43
(lp162
g45
ag46
ag45
ag46
ag45
ag46
ag45
ag46
ag47
ag46
ag45
ag46
asg48
(lp163
I01
aI01
aI01
aI01
aI01
aI01
aI01
aI00
aI01
aI01
aI01
aI01
asg50
I12
sg51
g54
sg55
(lp164
(g57
I0
g24
tp165
ag59
ag64
ag65
ag69
ag70
ag72
ag73
ag114
ag115
ag72
ag73
asg74
(lp166
g76
ag80
ag76
ag51
ag76
ag76
ag76
ag76
ag51
ag51
ag76
ag51
asg78
(lp167
g51
ag77
ag77
ag77
ag51
ag77
ag80
ag80
ag77
ag51
ag80
ag51
asg81
(lp168
g76
ag51
ag76
ag51
ag76
ag51
ag76
ag80
ag77
ag51
ag76
ag51
asaa(lp169
I9
ag39
(g40
tp170
Rp171
g43
(lp172
g45
ag46
ag45
ag46
ag45
ag46
ag45
ag46
asg48
(lp173
I01
aI01
aI01
aI01
aI01
aI01
aI01
aI01
asg50
I8
sg51
g54
sg55
(lp174
(g57
I0
g24
tp175
ag59
ag64
ag65
ag69
ag70
ag72
ag73
asg74
(lp176
g76
ag51
ag76
ag51
ag76
ag77
ag76
ag51
asg78
(lp177
g51
ag77
ag80
ag77
ag77
ag77
ag76
ag77
asg81
(lp178
g76
ag51
ag76
ag51
ag76
ag51
ag76
ag51
asaatp179
Rp180
aatp181
Rp182
.