ccollections
OrderedDict
p0
((lp1
(lp2
S'combination_dict'
p3
ag0
((lp4
(lp5
S'r_to_g_config'
p6
aS'tl'
p7
aa(lp8
S'num_turns'
p9
aI1
aa(lp10
S'start_direction'
p11
acutils_ms
StartDirection
p12
(I0
tp13
Rp14
aa(lp15
S'assistance_type'
p16
acutils_ms
AssistanceType
p17
(I0
tp18
Rp19
aa(lp20
S'start_mode'
p21
aS't'
p22
aa(lp23
S'ui_given_a_noise'
p24
aF0.5
aa(lp25
S'um_given_ui_noise'
p26
aF0.3
aa(lp27
S'entropy_threshold'
p28
aF0.9
aatp29
Rp30
aa(lp31
S'data'
p32
accollections
defaultdict
p33
(c__builtin__
list
p34
tp35
Rp36
S'a'
p37
(lp38
S'mode_r'
p39
aS'mode_l'
p40
aS'move_n'
p41
ag39
ag41
ag40
aS'move_p'
p42
ag42
ag40
ag42
ag40
ag42
ag40
ag42
ag42
ag40
ag40
ag40
ag42
ag42
ag40
ag40
ag40
ag42
ag40
ag42
ag39
ag40
ag42
ag40
ag42
ag42
ag40
ag42
ag40
ag42
ag39
ag39
ag39
ag42
ag39
ag40
ag42
ag40
ag41
ag39
ag39
ag40
ag42
ag40
ag42
ag40
ag42
ag39
ag39
ag40
ag42
ag40
ag40
ag42
asS'assistance_match_with_ground_truth'
p43
(lp44
I00
aI01
aI00
aI01
aI01
aI01
aI00
aI01
aI00
aI01
aI01
aI00
aI00
aI00
aI00
aI00
aI00
aI01
aI00
aI00
aI00
aI00
aI01
aI00
aI01
aI00
aI00
aI01
aI01
aI00
aI00
aI01
aI01
aI00
aI01
aI00
aI00
aI00
aI01
aI00
aI00
aI01
aI00
aI01
aI01
aI00
aI00
aI00
aI01
aI00
aI01
aI01
aI00
aI00
aI00
aI00
aI01
aI00
aI01
aI01
asS'total_steps'
p45
I60
sS'sp'
p46
(lp47
(S'p0'
p48
I0
S'y'
p49
tp50
a(g48
I0
S'x'
p51
tp52
a(g48
I0
S't'
p53
tp54
a(g48
I0
g51
tp55
a(S'p1'
p56
I0
g51
tp57
a(g56
I0
g53
tp58
a(g56
I0
g53
tp59
a(g56
F1.5707963267948966
g53
tp60
a(g56
I0
g53
tp61
ag60
a(g56
F1.5707963267948966
g49
tp62
a(g56
F1.5707963267948966
g53
tp63
ag61
ag59
a(g56
I0
g51
tp64
a(g56
I0
g51
tp65
ag65
ag58
ag59
ag64
ag64
ag65
ag58
ag64
ag58
a(g56
I0
g49
tp66
a(g56
I0
g51
tp67
ag58
ag60
ag61
ag59
ag60
ag62
ag63
ag62
a(g56
F1.5707963267948966
g51
tp68
a(g56
F1.5707963267948966
g51
tp69
a(g56
F1.5707963267948966
g51
tp70
a(g56
F1.5707963267948966
g49
tp71
ag68
a(g56
F1.5707963267948966
g53
tp72
ag62
a(g48
F1.5707963267948966
g49
tp73
a(g48
F1.5707963267948966
g51
tp74
a(g56
F1.5707963267948966
g51
tp75
ag69
ag72
ag61
ag60
ag61
ag60
ag62
ag68
ag70
ag72
ag61
ag60
ag60
ag62
a(S'p2'
p76
F1.5707963267948966
g49
tp77
asS's'
p78
(lp79
(g48
I0
g22
tp80
ag50
ag52
ag54
ag55
ag57
ag58
ag59
ag60
ag61
ag60
ag62
ag63
ag61
ag59
ag64
ag65
ag65
ag58
ag59
ag64
ag64
ag65
ag58
ag64
ag58
ag66
ag67
ag58
ag60
ag61
ag59
ag60
ag62
ag63
ag62
ag68
ag69
ag70
ag71
ag68
ag72
ag62
ag73
ag74
ag75
ag69
ag72
ag61
ag60
ag61
ag60
ag62
ag68
ag70
ag72
ag61
ag60
ag60
ag62
asS'ui'
p81
(lp82
S'ss'
p83
aS'hs'
p84
ag83
aS'hp'
p85
ag83
ag84
ag46
ag46
ag83
ag46
ag84
ag85
ag83
ag83
ag85
ag83
ag83
ag83
ag46
ag85
ag84
ag83
ag84
ag85
ag84
ag84
ag84
ag84
ag46
ag83
ag83
ag46
ag84
ag85
ag84
ag84
ag46
ag83
ag46
ag84
ag84
ag84
ag83
ag84
ag83
ag84
ag84
ag83
ag46
ag83
ag46
ag84
ag83
ag83
ag84
ag85
ag85
ag84
ag84
ag46
asS'um_before'
p86
(lp87
g84
ag84
ag84
ag85
ag83
ag84
ag83
ag46
ag83
ag46
ag84
ag85
ag83
ag83
ag85
ag83
ag83
ag84
ag83
ag85
ag85
ag83
ag84
ag85
ag84
ag84
ag84
ag84
ag46
ag83
ag83
ag46
ag84
ag85
ag84
ag84
ag46
ag83
ag85
ag84
ag84
ag84
ag83
ag84
ag83
ag46
ag84
ag83
ag46
ag83
ag46
ag84
ag84
ag83
ag84
ag83
ag46
ag46
ag84
ag46
asS'um_after'
p88
(lp89
g84
ag84
ag84
ag85
ag83
ag84
ag83
ag46
ag83
ag46
ag84
ag85
ag83
ag83
ag85
ag83
ag83
ag84
ag83
ag85
aNag83
ag84
ag85
ag84
ag84
ag84
ag84
ag46
ag83
ag83
ag46
ag84
ag85
ag84
ag84
ag46
ag83
ag85
ag84
ag84
ag84
ag83
ag84
ag83
ag46
ag84
ag83
ag46
ag83
ag46
ag84
ag84
ag83
ag84
ag83
ag46
aNag84
ag46
asaa(lp90
S'index'
p91
aI29291
aatp92
Rp93
.