ccollections
OrderedDict
p0
((lp1
(lp2
S'combination_dict'
p3
ag0
((lp4
(lp5
S'r_to_g_config'
p6
aS'bl'
p7
aa(lp8
S'num_turns'
p9
aI2
aa(lp10
S'start_direction'
p11
acutils_ms
StartDirection
p12
(I1
tp13
Rp14
aa(lp15
S'assistance_type'
p16
acutils_ms
AssistanceType
p17
(I2
tp18
Rp19
aa(lp20
S'start_mode'
p21
aS'x'
p22
aa(lp23
S'ui_given_a_noise'
p24
aF0.7
aa(lp25
S'um_given_ui_noise'
p26
aF0.5
aa(lp27
S'entropy_threshold'
p28
aF0.7
aatp29
Rp30
aa(lp31
S'data'
p32
accollections
defaultdict
p33
(c__builtin__
list
p34
tp35
Rp36
S'a'
p37
(lp38
S'mode_r'
p39
aS'mode_l'
p40
ag39
ag39
ag40
ag40
aS'move_n'
p41
ag40
ag41
ag39
ag40
ag41
ag39
ag39
ag39
ag41
ag39
ag39
ag41
ag40
ag41
ag40
ag41
ag40
ag41
ag41
ag40
ag41
ag39
ag41
ag41
ag39
ag39
ag39
ag40
ag41
ag40
ag40
ag40
ag39
ag41
ag40
ag39
ag39
ag39
ag41
ag40
ag39
ag40
ag40
ag40
ag40
ag41
ag40
ag40
ag41
ag40
aS'move_p'
p42
ag40
ag39
ag39
ag39
ag39
ag40
ag42
ag42
ag42
ag40
ag39
asS'assistance_match_with_ground_truth'
p43
(lp44
I00
aI00
aI00
aI00
aI00
aI01
aI01
aI01
aI00
aI00
aI01
aI00
aI00
aI00
aI01
aI00
aI00
aI01
aI00
aI01
aI00
aI01
aI00
aI01
aI00
aI00
aI01
aI00
aI01
aI00
aI00
aI00
aI00
aI00
aI01
aI00
aI00
aI00
aI00
aI01
aI00
aI00
aI00
aI00
aI01
aI01
aI00
aI00
aI00
aI00
aI00
aI01
aI00
aI00
aI01
aI01
aI01
aI01
aI00
aI00
aI00
aI00
aI00
aI00
aI00
aI00
aI00
aI00
aI00
asS'total_steps'
p45
I69
sS'sp'
p46
(lp47
(S'p0'
p48
I0
S't'
p49
tp50
a(g48
I0
S'x'
p51
tp52
a(g48
I0
g51
tp53
ag50
a(g48
I0
g49
tp54
a(g48
I0
S'y'
p55
tp56
a(S'p1'
p57
I0
g55
tp58
a(g57
I0
g51
tp59
a(g48
I0
g51
tp60
ag50
ag56
a(g48
I0
g51
tp61
a(g48
I0
g51
tp62
ag62
a(g48
I0
g55
tp63
ag61
ag53
ag63
a(g48
I0
g49
tp64
ag56
ag64
ag56
ag64
ag56
a(g48
I0
g55
tp65
ag64
ag56
ag61
ag63
ag65
ag61
ag62
ag53
ag50
ag56
ag64
ag54
ag54
ag52
ag63
ag64
ag52
ag53
ag62
ag63
ag58
a(g57
I0
g49
tp66
a(g57
I0
g55
tp67
a(g57
I0
g55
tp68
ag68
a(g57
I0
g55
tp69
ag59
a(g57
I0
g55
tp70
ag69
ag59
a(S'p2'
p71
I0
g51
tp72
a(g71
I0
g49
tp73
a(g71
F1.5707963267948966
g49
tp74
a(g71
F1.5707963267948966
g51
tp75
a(g71
F1.5707963267948966
g51
tp76
ag76
a(g71
F1.5707963267948966
g51
tp77
a(g71
F1.5707963267948966
g49
tp78
a(g71
I0
g49
tp79
a(g71
I0
g49
tp80
ag80
a(g71
I0
g51
tp81
a(g71
I0
g55
tp82
a(S'p3'
p83
I0
g55
tp84
asS's'
p85
(lp86
(g48
I0
g22
tp87
ag50
ag52
ag53
ag50
ag54
ag56
ag58
ag59
ag60
ag50
ag56
ag61
ag62
ag62
ag63
ag61
ag53
ag63
ag64
ag56
ag64
ag56
ag64
ag56
ag65
ag64
ag56
ag61
ag63
ag65
ag61
ag62
ag53
ag50
ag56
ag64
ag54
ag54
ag52
ag63
ag64
ag52
ag53
ag62
ag63
ag58
ag66
ag67
ag68
ag68
ag69
ag59
ag70
ag69
ag59
ag72
ag73
ag74
ag75
ag76
ag76
ag77
ag78
ag79
ag80
ag80
ag81
ag82
asS'ui'
p88
(lp89
S'hp'
p90
ag90
ag90
ag90
ag46
aS'hs'
p91
aS'ss'
p92
ag91
ag46
ag90
ag91
ag46
ag92
ag92
ag90
ag91
ag90
ag90
ag92
ag91
ag90
ag90
ag46
ag90
ag90
ag92
ag91
ag46
ag92
ag92
ag90
ag90
ag90
ag92
ag91
ag92
ag90
ag91
ag90
ag90
ag90
ag90
ag46
ag90
ag90
ag92
ag90
ag90
ag90
ag92
ag91
ag92
ag91
ag46
ag91
ag92
ag91
ag46
ag92
ag92
ag92
ag46
ag90
ag92
ag92
ag91
ag92
ag90
ag92
asS'um_before'
p93
(lp94
g91
ag90
ag46
ag91
ag46
ag91
ag92
ag91
ag46
ag91
ag91
ag91
ag92
ag92
ag90
ag91
ag46
ag90
ag90
ag91
ag90
ag91
ag90
ag91
ag46
ag90
ag91
ag91
ag90
ag46
ag91
ag92
ag46
ag91
ag91
ag90
ag46
ag46
ag90
ag90
ag90
ag90
ag46
ag92
ag90
ag92
ag90
ag91
ag92
ag92
ag46
ag91
ag90
ag46
ag91
ag92
ag91
ag46
ag90
ag92
ag92
ag46
ag91
ag92
ag92
ag92
ag90
ag90
ag92
asS'um_after'
p95
(lp96
g91
ag90
ag46
ag91
ag46
ag91
ag92
ag91
ag46
ag91
ag91
ag91
ag92
ag92
ag90
ag91
ag46
ag90
ag90
ag91
ag90
ag91
ag90
ag91
ag46
ag90
ag91
ag91
ag90
ag46
ag91
ag92
ag46
ag91
ag91
ag90
ag46
ag46
ag90
ag90
ag90
ag90
ag46
ag92
ag90
ag92
ag90
ag91
ag92
ag92
ag46
ag91
ag90
ag46
ag91
ag92
ag91
ag46
ag90
ag92
ag92
ag46
ag91
ag92
ag92
ag92
ag90
ag90
ag92
asaa(lp97
S'index'
p98
aI75922
aatp99
Rp100
.