ccollections
OrderedDict
p0
((lp1
(lp2
S'combination_dict'
p3
ag0
((lp4
(lp5
S'r_to_g_config'
p6
aS'tr'
p7
aa(lp8
S'num_turns'
p9
aI3
aa(lp10
S'start_direction'
p11
acutils_ms
StartDirection
p12
(I0
tp13
Rp14
aa(lp15
S'assistance_type'
p16
acutils_ms
AssistanceType
p17
(I0
tp18
Rp19
aa(lp20
S'start_mode'
p21
aS't'
p22
aa(lp23
S'ui_given_a_noise'
p24
aF0.7
aa(lp25
S'um_given_ui_noise'
p26
aF0.7
aa(lp27
S'entropy_threshold'
p28
aF0.9
aatp29
Rp30
aa(lp31
S'data'
p32
accollections
defaultdict
p33
(c__builtin__
list
p34
tp35
Rp36
S'a'
p37
(lp38
S'mode_r'
p39
ag39
ag39
ag39
aS'move_p'
p40
ag39
ag40
ag39
ag40
aS'mode_l'
p41
ag41
ag41
ag40
ag39
ag39
ag39
ag40
ag41
ag41
ag41
ag40
ag39
ag40
ag41
ag41
ag41
ag41
ag40
ag39
ag40
ag41
ag39
ag40
asS'assistance_match_with_ground_truth'
p42
(lp43
I00
aI00
aI00
aI01
aI00
aI01
aI01
aI01
aI00
aI00
aI00
aI01
aI01
aI00
aI00
aI01
aI00
aI00
aI00
aI01
aI00
aI01
aI00
aI00
aI00
aI00
aI01
aI01
aI01
aI00
aI00
aI01
aI01
asS'total_steps'
p44
I33
sS'sp'
p45
(lp46
(S'p0'
p47
I0
g22
tp48
a(g47
I0
S't'
p49
tp50
ag50
a(g47
I0
S'x'
p51
tp52
a(g47
I0
g49
tp53
ag52
a(S'p1'
p54
I0
g51
tp55
a(g54
I0
S'y'
p56
tp57
a(g47
I0
g56
tp58
a(g47
I0
g56
tp59
a(g47
I0
g56
tp60
a(g47
I0
g51
tp61
ag55
ag55
a(g54
I0
g51
tp62
ag57
a(g54
I0
g49
tp63
a(g54
I0
g49
tp64
a(g54
I0
g49
tp65
a(g54
I0
g56
tp66
a(g54
I0
g51
tp67
ag57
ag63
ag63
ag63
ag63
ag66
a(S'p2'
p68
I0
g56
tp69
a(g68
I0
g49
tp70
a(g68
I0
g51
tp71
a(S'p3'
p72
I0
g51
tp73
a(g72
I0
g56
tp74
a(S'p4'
p75
I0
g56
tp76
asS's'
p77
(lp78
g48
ag48
ag50
ag50
ag52
ag53
ag52
ag55
ag57
ag58
ag59
ag60
ag61
ag55
ag55
ag62
ag57
ag63
ag64
ag65
ag66
ag67
ag57
ag63
ag63
ag63
ag63
ag66
ag69
ag70
ag71
ag73
ag74
asS'ui'
p79
(lp80
S'hp'
p81
ag45
aS'hs'
p82
ag81
ag82
ag45
ag82
aS'ss'
p83
ag83
ag45
ag82
ag82
ag45
ag45
ag45
ag83
ag81
ag83
ag45
ag82
ag81
ag81
ag81
ag45
ag82
ag82
ag82
ag45
ag81
ag82
ag45
ag81
ag45
asS'um_before'
p84
(lp85
g82
ag45
ag82
ag81
ag82
ag81
ag45
ag81
ag83
ag83
ag45
ag82
ag45
ag82
ag45
ag81
ag81
ag83
ag45
ag82
ag82
ag81
ag81
ag81
ag81
ag81
ag82
ag45
ag81
ag81
ag45
ag81
ag45
asS'um_after'
p86
(lp87
Nag45
aNag81
ag82
ag81
ag45
ag81
ag83
ag83
ag45
ag82
ag45
aNag45
ag81
ag81
ag83
ag45
ag82
ag82
ag81
ag81
aNaNaNag82
ag45
ag81
ag81
ag45
ag81
ag45
asaa(lp88
S'index'
p89
aI19997
aatp90
Rp91
.