ccollections
OrderedDict
p0
((lp1
(lp2
S'combination_dict'
p3
ag0
((lp4
(lp5
S'r_to_g_config'
p6
aS'tl'
p7
aa(lp8
S'num_turns'
p9
aI3
aa(lp10
S'start_direction'
p11
acutils_ms
StartDirection
p12
(I1
tp13
Rp14
aa(lp15
S'assistance_type'
p16
acutils_ms
AssistanceType
p17
(I0
tp18
Rp19
aa(lp20
S'start_mode'
p21
aS't'
p22
aa(lp23
S'ui_given_a_noise'
p24
aF0.5
aa(lp25
S'um_given_ui_noise'
p26
aF0.7
aa(lp27
S'entropy_threshold'
p28
aF0.8
aatp29
Rp30
aa(lp31
S'data'
p32
accollections
defaultdict
p33
(c__builtin__
list
p34
tp35
Rp36
S'a'
p37
(lp38
S'mode_l'
p39
ag39
aS'move_p'
p40
ag40
ag40
aS'mode_r'
p41
ag40
ag40
ag41
aS'move_n'
p42
ag41
ag41
ag41
ag40
ag39
ag39
ag39
ag42
ag42
ag41
ag39
ag40
ag40
ag40
ag41
ag40
ag39
ag41
ag41
ag41
ag41
ag41
ag40
ag40
ag41
ag40
ag40
ag40
ag41
ag40
ag41
ag40
ag41
ag41
ag41
ag40
ag41
ag41
ag40
ag41
ag42
ag41
ag41
ag40
ag39
ag39
ag42
ag41
ag41
ag41
ag41
ag41
ag39
ag40
ag40
ag39
ag39
ag42
ag41
ag41
ag41
ag41
ag41
ag40
ag39
ag41
ag41
ag41
ag41
ag41
ag42
ag42
ag41
ag40
ag40
ag41
ag41
ag41
ag41
ag41
ag41
ag41
ag41
ag39
ag40
ag40
ag39
ag41
ag42
ag42
ag41
ag40
ag40
ag40
ag39
ag39
ag39
ag41
ag41
ag41
ag41
ag41
ag41
ag42
asS'assistance_match_with_ground_truth'
p43
(lp44
I00
aI01
aI00
aI00
aI01
aI01
aI00
aI01
aI01
aI00
aI00
aI00
aI01
aI01
aI00
aI00
aI01
aI00
aI00
aI00
aI01
aI00
aI00
aI00
aI01
aI01
aI00
aI00
aI00
aI00
aI00
aI00
aI00
aI01
aI00
aI00
aI00
aI01
aI00
aI01
aI00
aI01
aI00
aI00
aI00
aI01
aI00
aI00
aI01
aI01
aI00
aI00
aI01
aI01
aI00
aI01
aI01
aI00
aI00
aI00
aI00
aI00
aI01
aI00
aI01
aI00
aI01
aI00
aI00
aI00
aI00
aI00
aI01
aI01
aI00
aI00
aI00
aI00
aI00
aI01
aI00
aI00
aI01
aI00
aI00
aI00
aI00
aI00
aI00
aI00
aI00
aI00
aI00
aI01
aI00
aI01
aI00
aI01
aI00
aI00
aI01
aI00
aI00
aI01
aI00
aI00
aI00
aI00
aI00
aI00
aI00
aI00
aI01
aI01
asS'total_steps'
p45
I114
sS'sp'
p46
(lp47
(S'p0'
p48
I0
g22
tp49
a(g48
I0
S'y'
p50
tp51
ag51
a(g48
I0
g50
tp52
a(S'p1'
p53
I0
g50
tp54
a(g53
I0
S't'
p55
tp56
ag56
a(g53
F1.5707963267948966
g55
tp57
a(g53
F1.5707963267948966
S'x'
p58
tp59
a(g48
F1.5707963267948966
g58
tp60
a(g48
F1.5707963267948966
g58
tp61
ag61
a(g48
F1.5707963267948966
g50
tp62
a(g53
F1.5707963267948966
g50
tp63
a(g53
F1.5707963267948966
g50
tp64
ag64
a(g53
F1.5707963267948966
g58
tp65
ag65
ag60
a(g48
F1.5707963267948966
g55
tp66
a(g48
F1.5707963267948966
g50
tp67
ag67
a(g48
F1.5707963267948966
g50
tp68
a(g48
F1.5707963267948966
g58
tp69
ag62
ag63
a(g53
F1.5707963267948966
g55
tp70
ag70
ag70
ag70
ag70
a(g53
I0
g55
tp71
ag71
ag57
ag71
a(g53
I0
g55
tp72
ag72
ag57
ag71
ag57
ag71
ag57
ag57
ag57
ag71
ag57
ag57
ag71
ag57
ag59
ag60
ag61
ag62
ag63
ag64
ag65
a(S'p2'
p73
F1.5707963267948966
g58
tp74
ag74
a(g73
F1.5707963267948966
g58
tp75
ag75
ag75
a(g73
F1.5707963267948966
g55
tp76
a(g73
F1.5707963267948966
g50
tp77
ag77
a(S'p3'
p78
F1.5707963267948966
g50
tp79
a(g78
F1.5707963267948966
g50
tp80
a(g78
F1.5707963267948966
g58
tp81
a(g73
F1.5707963267948966
g58
tp82
ag82
ag75
ag75
ag75
a(g73
F1.5707963267948966
g50
tp83
ag79
a(g78
F1.5707963267948966
g55
tp84
ag84
a(g78
F1.5707963267948966
g55
tp85
ag85
ag85
a(g78
F1.5707963267948966
g58
tp86
ag86
ag82
ag83
ag83
a(g73
F1.5707963267948966
g58
tp87
ag87
ag87
ag87
ag75
ag75
ag75
ag75
ag76
ag77
ag77
ag79
ag84
ag86
ag86
ag82
ag83
ag83
ag83
ag79
ag80
ag80
ag84
ag84
ag85
ag85
ag85
ag85
ag86
a(S'p4'
p88
F1.5707963267948966
g58
tp89
asS's'
p90
(lp91
g49
ag49
ag51
ag51
ag52
ag54
ag56
ag56
ag57
ag59
ag60
ag61
ag61
ag62
ag63
ag64
ag64
ag65
ag65
ag60
ag66
ag67
ag67
ag68
ag69
ag62
ag63
ag70
ag70
ag70
ag70
ag70
ag71
ag71
ag57
ag71
ag72
ag72
ag57
ag71
ag57
ag71
ag57
ag57
ag57
ag71
ag57
ag57
ag71
ag57
ag59
ag60
ag61
ag62
ag63
ag64
ag65
ag74
ag74
ag75
ag75
ag75
ag76
ag77
ag77
ag79
ag80
ag81
ag82
ag82
ag75
ag75
ag75
ag83
ag79
ag84
ag84
ag85
ag85
ag85
ag86
ag86
ag82
ag83
ag83
ag87
ag87
ag87
ag87
ag75
ag75
ag75
ag75
ag76
ag77
ag77
ag79
ag84
ag86
ag86
ag82
ag83
ag83
ag83
ag79
ag80
ag80
ag84
ag84
ag85
ag85
ag85
ag85
ag86
asS'ui'
p92
(lp93
S'ss'
p94
aS'hs'
p95
aS'hp'
p96
ag46
ag46
ag96
ag46
ag46
ag96
ag46
ag94
ag96
ag96
ag46
ag46
ag94
ag95
ag94
ag96
ag96
ag95
ag96
ag94
ag46
ag96
ag46
ag95
ag96
ag46
ag46
ag96
ag96
ag96
ag46
ag96
ag94
ag94
ag96
ag96
ag46
ag96
ag46
ag96
ag46
ag94
ag46
ag46
ag94
ag46
ag96
ag94
ag94
ag96
ag46
ag46
ag95
ag94
ag96
ag46
ag46
ag96
ag96
ag95
ag46
ag46
ag46
ag95
ag46
ag96
ag94
ag46
ag94
ag46
ag46
ag46
ag96
ag94
ag96
ag46
ag96
ag94
ag95
ag96
ag46
ag46
ag46
ag96
ag96
ag96
ag96
ag46
ag96
ag46
ag95
ag46
ag96
ag95
ag46
ag94
ag46
ag96
ag96
ag96
ag46
ag46
ag95
ag94
ag46
ag94
ag96
ag96
ag94
ag96
ag94
asS'um_before'
p97
(lp98
g94
ag95
ag96
ag94
ag46
ag96
ag96
ag46
ag96
ag46
ag94
ag46
ag96
ag46
ag46
ag94
ag95
ag95
ag46
ag95
ag95
ag96
ag94
ag95
ag96
ag46
ag96
ag46
ag46
ag46
ag46
ag94
ag96
ag46
ag94
ag94
ag94
ag46
ag94
ag46
ag94
ag46
ag46
ag46
ag94
ag46
ag46
ag94
ag46
ag96
ag46
ag94
ag96
ag46
ag46
ag95
ag94
ag46
ag94
ag46
ag46
ag95
ag95
ag96
ag46
ag46
ag95
ag46
ag46
ag94
ag46
ag94
ag96
ag46
ag96
ag46
ag94
ag94
ag46
ag96
ag95
ag46
ag96
ag96
ag95
ag46
ag46
ag46
ag94
ag46
ag46
ag46
ag95
ag95
ag96
ag46
ag96
ag96
ag95
ag46
ag96
ag96
ag96
ag46
ag46
ag94
ag96
ag46
ag94
ag46
ag46
ag94
ag96
ag94
asS'um_after'
p99
(lp100
Nag95
aNag94
ag46
ag96
aNag46
ag96
ag46
ag94
aNag96
ag46
ag46
aNag95
aNag46
ag95
ag95
aNag94
ag95
ag96
ag46
ag96
aNaNaNaNag94
aNag46
ag94
ag94
ag94
ag46
ag94
ag46
ag94
ag46
aNaNag94
ag46
aNag94
ag46
ag96
ag46
ag94
ag96
ag46
ag46
ag95
ag94
aNag94
aNaNag95
ag95
aNag46
ag46
ag95
ag46
aNag94
aNag94
ag96
ag46
ag96
aNag94
ag94
aNag96
aNag46
ag96
aNag95
aNaNaNag94
aNaNaNag95
ag95
aNag46
ag96
ag96
aNag46
ag96
aNaNag46
ag46
aNag96
aNag94
aNaNag94
ag96
ag94
asaa(lp101
S'index'
p102
aI54180
aatp103
Rp104
.