ccollections
OrderedDict
p0
((lp1
(lp2
S'index'
p3
aI1201
aa(lp4
S'combination_dict'
p5
ag0
((lp6
(lp7
S'r_to_g_config'
p8
aS'tr'
p9
aa(lp10
S'num_turns'
p11
aI1
aa(lp12
S'start_direction'
p13
acutils_ms
StartDirection
p14
(I1
tp15
Rp16
aa(lp17
S'assistance_type'
p18
acutils_ms
AssistanceType
p19
(I1
tp20
Rp21
aa(lp22
S'start_mode'
p23
aS't'
p24
aa(lp25
S'ui_given_a_noise'
p26
aF0.5
aa(lp27
S'um_given_ui_noise'
p28
aF0.1
aa(lp29
S'entropy_threshold'
p30
aF0.5
aa(lp31
S'is_assistance'
p32
aI00
aatp33
Rp34
aa(lp35
S'trials'
p36
ag0
((lp37
(lp38
I0
accollections
defaultdict
p39
(c__builtin__
list
p40
tp41
Rp42
S'a'
p43
(lp44
S'mode_l'
p45
aS'move_p'
p46
aS'mode_r'
p47
ag46
ag46
ag47
ag45
ag45
ag45
ag46
asS'assistance_match_with_ground_truth'
p48
(lp49
I01
aI01
aI01
aI00
aI01
aI00
aI00
aI00
aI01
aI01
asS'total_steps'
p50
I10
sS'sp'
p51
(S'p2'
p52
F1.5707963267948966
S'x'
p53
tp54
sS's'
p55
(lp56
(S'p0'
p57
I0
g24
tp58
a(g57
I0
S'y'
p59
tp60
a(S'p1'
p61
I0
g59
tp62
a(g61
I0
S't'
p63
tp64
a(g61
I0
g63
tp65
a(g61
F1.5707963267948966
g63
tp66
a(g61
F1.5707963267948966
g59
tp67
a(g61
F1.5707963267948966
g59
tp68
ag68
a(g61
F1.5707963267948966
g53
tp69
asS'ui'
p70
(lp71
S'hs'
p72
aS'ss'
p73
aS'hp'
p74
ag73
ag51
ag74
ag51
ag51
ag51
ag51
asS'um_before'
p75
(lp76
g72
ag51
ag74
ag73
ag51
ag72
ag51
ag51
ag72
ag51
asS'um_after'
p77
(lp78
g72
ag51
ag74
ag73
ag51
ag72
ag51
ag51
ag72
ag51
asaa(lp79
I1
ag39
(g40
tp80
Rp81
g43
(lp82
g45
ag45
ag47
ag45
ag45
ag45
ag45
ag47
ag46
ag47
ag46
ag47
ag46
asg48
(lp83
I00
aI00
aI00
aI00
aI00
aI00
aI00
aI01
aI01
aI01
aI01
aI01
aI01
asg50
I13
sg51
g54
sg55
(lp84
(g57
I0
g24
tp85
a(g57
I0
g63
tp86
a(g57
I0
g53
tp87
a(g57
I0
g63
tp88
a(g57
I0
g63
tp89
ag86
ag86
ag87
a(g57
I0
g59
tp90
ag62
ag64
ag66
a(g61
F1.5707963267948966
g53
tp91
asg70
(lp92
g51
ag74
ag74
ag73
ag51
ag72
ag74
ag74
ag51
ag74
ag51
ag74
ag51
asg75
(lp93
g51
ag74
ag72
ag73
ag51
ag51
ag74
ag74
ag51
ag74
ag51
ag74
ag51
asg77
(lp94
g51
ag74
ag72
ag73
ag51
ag51
ag74
ag74
ag51
ag74
ag51
ag74
ag51
asaa(lp95
I2
ag39
(g40
tp96
Rp97
g43
(lp98
g45
ag46
ag47
ag46
ag47
ag46
ag47
ag46
ag46
ag47
ag46
asg48
(lp99
I01
aI00
aI01
aI01
aI01
aI00
aI01
aI00
aI01
aI01
aI01
asg50
I11
sg51
g54
sg55
(lp100
(g57
I0
g24
tp101
ag60
a(g57
I0
g53
tp102
ag90
ag62
ag64
a(g61
I0
g59
tp103
ag64
ag65
ag66
ag91
asg70
(lp104
g72
ag72
ag74
ag51
ag74
ag72
ag74
ag73
ag51
ag74
ag51
asg75
(lp105
g72
ag72
ag74
ag51
ag74
ag72
ag74
ag73
ag51
ag74
ag51
asg77
(lp106
g72
ag72
ag74
ag51
ag74
ag72
ag74
ag73
ag51
ag74
ag51
asaa(lp107
I3
ag39
(g40
tp108
Rp109
g43
(lp110
g45
ag47
ag46
ag47
ag45
asg48
(lp111
I00
aI01
aI01
aI00
aI00
asg50
I5
sg51
(g52
I0
g53
tp112
sg55
(lp113
(g57
I0
g24
tp114
ag87
ag90
ag62
a(g61
I0
g53
tp115
asg70
(lp116
g72
ag74
ag51
ag74
ag73
asg75
(lp117
g74
ag74
ag51
ag72
ag51
asg77
(lp118
g74
ag74
ag51
ag72
ag51
asaa(lp119
I4
ag39
(g40
tp120
Rp121
g43
(lp122
g45
ag46
ag47
ag46
ag45
ag46
ag46
ag47
ag46
ag47
ag47
ag46
ag47
ag46
ag45
ag46
asg48
(lp123
I01
aI01
aI01
aI00
aI01
aI00
aI01
aI01
aI00
aI00
aI01
aI00
aI01
aI01
aI01
aI01
asg50
I16
sg51
g54
sg55
(lp124
(g57
I0
g24
tp125
ag60
ag62
ag64
a(g61
I0
g53
tp126
a(g61
I0
g63
tp127
ag65
ag66
ag91
a(g61
F1.5707963267948966
g63
tp128
a(g61
F1.5707963267948966
g63
tp129
ag91
a(g57
F1.5707963267948966
g53
tp130
a(g57
F1.5707963267948966
g59
tp131
a(g61
F1.5707963267948966
g59
tp132
ag69
asg70
(lp133
g72
ag51
ag74
ag74
ag72
ag51
ag51
ag74
ag72
ag51
ag74
ag73
ag74
ag51
ag72
ag51
asg75
(lp134
g72
ag51
ag74
ag74
ag72
ag73
ag51
ag74
ag72
ag51
ag74
ag73
ag74
ag51
ag72
ag51
asg77
(lp135
g72
ag51
ag74
ag74
ag72
ag73
ag51
ag74
ag72
ag51
ag74
ag73
ag74
ag51
ag72
ag51
asaa(lp136
I5
ag39
(g40
tp137
Rp138
g43
(lp139
g45
ag46
ag47
ag46
ag45
asg48
(lp140
I01
aI01
aI01
aI00
aI00
asg50
I5
sg51
g112
sg55
(lp141
(g57
I0
g24
tp142
ag60
ag62
ag64
ag126
asg70
(lp143
g51
ag51
ag74
ag74
ag51
asg75
(lp144
g72
ag51
ag74
ag74
ag51
asg77
(lp145
g72
ag51
ag74
ag74
ag51
asaa(lp146
I6
ag39
(g40
tp147
Rp148
g43
(lp149
g45
ag45
ag46
ag47
ag46
ag46
ag45
ag47
ag46
ag47
ag46
ag47
ag47
ag46
asg48
(lp150
I00
aI01
aI01
aI01
aI00
aI00
aI00
aI01
aI01
aI01
aI00
aI00
aI01
aI01
asg50
I14
sg51
g54
sg55
(lp151
(g57
I0
g24
tp152
ag89
ag60
ag62
ag64
ag65
ag126
a(g61
I0
g59
tp153
ag64
ag66
ag91
ag128
ag129
ag91
asg70
(lp154
g72
ag72
ag51
ag74
ag51
ag74
ag51
ag74
ag51
ag74
ag51
ag51
ag74
ag51
asg75
(lp155
g73
ag72
ag51
ag74
ag73
ag74
ag74
ag74
ag51
ag74
ag72
ag51
ag74
ag51
asg77
(lp156
g73
ag72
ag51
ag74
ag73
ag74
ag74
ag74
ag51
ag74
ag72
ag51
ag74
ag51
asaa(lp157
I7
ag39
(g40
tp158
Rp159
g43
(lp160
g45
ag46
ag47
ag46
ag47
ag46
asg48
(lp161
I01
aI01
aI01
aI01
aI01
aI01
asg50
I6
sg51
g54
sg55
(lp162
(g57
I0
g24
tp163
ag60
ag62
ag64
ag66
ag91
asg70
(lp164
g72
ag51
ag74
ag51
ag74
ag51
asg75
(lp165
g72
ag51
ag74
ag51
ag74
ag51
asg77
(lp166
g72
ag51
ag74
ag51
ag74
ag51
asaa(lp167
I8
ag39
(g40
tp168
Rp169
g43
(lp170
g45
ag45
ag46
ag47
ag46
ag45
ag45
ag45
ag46
ag47
ag46
ag47
ag46
asg48
(lp171
I00
aI01
aI00
aI01
aI00
aI00
aI00
aI01
aI01
aI01
aI01
aI01
aI01
asg50
I13
sg51
g54
sg55
(lp172
(g57
I0
g24
tp173
ag86
ag60
ag102
ag90
a(g57
I0
g63
tp174
ag86
ag89
ag60
ag62
ag64
ag66
ag91
asg70
(lp175
g51
ag72
ag51
ag74
ag74
ag51
ag73
ag72
ag51
ag74
ag51
ag74
ag51
asg75
(lp176
g51
ag72
ag72
ag74
ag74
ag51
ag73
ag72
ag51
ag74
ag51
ag74
ag51
asg77
(lp177
g51
ag72
ag72
ag74
ag74
ag51
ag73
ag72
ag51
ag74
ag51
ag74
ag51
asaa(lp178
I9
ag39
(g40
tp179
Rp180
g43
(lp181
g45
ag46
ag47
ag46
ag47
ag47
ag46
ag46
ag47
ag46
asg48
(lp182
I01
aI01
aI01
aI00
aI00
aI01
aI00
aI01
aI01
aI01
asg50
I10
sg51
g54
sg55
(lp183
(g57
I0
g24
tp184
ag60
ag62
ag64
ag103
a(g61
I0
g59
tp185
ag64
ag65
ag66
ag91
asg70
(lp186
g72
ag51
ag74
ag72
ag51
ag74
ag73
ag51
ag74
ag51
asg75
(lp187
g72
ag51
ag74
ag72
ag51
ag74
ag73
ag51
ag74
ag51
asg77
(lp188
g72
ag51
ag74
ag72
ag51
ag74
ag73
ag51
ag74
ag51
asaatp189
Rp190
aatp191
Rp192
.