ccollections
OrderedDict
p0
((lp1
(lp2
S'combination_dict'
p3
ag0
((lp4
(lp5
S'r_to_g_config'
p6
aS'tl'
p7
aa(lp8
S'num_turns'
p9
aI3
aa(lp10
S'start_direction'
p11
acutils_ms
StartDirection
p12
(I1
tp13
Rp14
aa(lp15
S'assistance_type'
p16
acutils_ms
AssistanceType
p17
(I0
tp18
Rp19
aa(lp20
S'start_mode'
p21
aS'x'
p22
aa(lp23
S'ui_given_a_noise'
p24
aF0.7
aa(lp25
S'um_given_ui_noise'
p26
aF0.3
aa(lp27
S'entropy_threshold'
p28
aF0.9
aatp29
Rp30
aa(lp31
S'data'
p32
accollections
defaultdict
p33
(c__builtin__
list
p34
tp35
Rp36
S'a'
p37
(lp38
S'mode_r'
p39
ag39
ag39
aS'move_p'
p40
ag39
ag40
ag39
ag39
ag40
ag39
ag40
ag39
ag40
ag39
aS'move_n'
p41
ag39
aS'mode_l'
p42
ag42
ag42
ag40
ag42
ag41
ag42
ag42
ag42
ag42
ag42
ag42
ag42
ag42
ag41
ag39
ag40
ag39
ag40
ag42
ag42
ag42
ag42
ag41
ag39
ag40
ag42
ag41
ag39
ag39
ag39
ag41
ag39
ag41
ag39
ag39
ag41
ag42
ag42
ag42
ag41
ag42
ag41
asS'assistance_match_with_ground_truth'
p43
(lp44
I00
aI00
aI01
aI01
aI01
aI00
aI00
aI01
aI00
aI01
aI01
aI00
aI01
aI01
aI01
aI00
aI00
aI00
aI01
aI01
aI01
aI00
aI00
aI00
aI00
aI00
aI00
aI00
aI00
aI01
aI00
aI01
aI00
aI01
aI00
aI00
aI00
aI00
aI01
aI01
aI01
aI01
aI01
aI00
aI00
aI00
aI01
aI00
aI01
aI00
aI00
aI01
aI00
aI00
aI00
aI01
aI00
aI01
aI01
asS'total_steps'
p45
I59
sS'sp'
p46
(lp47
(S'p0'
p48
I0
g22
tp49
a(g48
I0
S'x'
p50
tp51
a(g48
I0
S'y'
p52
tp53
a(S'p1'
p54
I0
g52
tp55
a(g54
I0
S't'
p56
tp57
a(g54
I0
g52
tp58
a(g54
I0
g52
tp59
ag57
ag58
ag57
a(g54
F1.5707963267948966
g56
tp60
a(g54
I0
g56
tp61
ag60
a(g54
F1.5707963267948966
g50
tp62
a(S'p2'
p63
F1.5707963267948966
g50
tp64
a(g63
F1.5707963267948966
g56
tp65
ag65
a(g63
F1.5707963267948966
g56
tp66
a(g63
F1.5707963267948966
g52
tp67
a(S'p3'
p68
F1.5707963267948966
g52
tp69
a(g68
F1.5707963267948966
g50
tp70
a(g68
F1.5707963267948966
g52
tp71
a(g68
F1.5707963267948966
g52
tp72
ag72
ag72
ag72
a(g68
F1.5707963267948966
g52
tp73
ag73
ag73
ag70
a(g63
F1.5707963267948966
g50
tp74
a(g63
F1.5707963267948966
g52
tp75
a(g63
F1.5707963267948966
g50
tp76
ag75
a(g54
F1.5707963267948966
g52
tp77
ag77
a(g54
F1.5707963267948966
g52
tp78
a(g54
F1.5707963267948966
g52
tp79
a(g54
F1.5707963267948966
g50
tp80
ag64
ag75
ag69
ag70
a(g68
F1.5707963267948966
g56
tp81
a(g68
F1.5707963267948966
g56
tp82
ag82
a(g68
F1.5707963267948966
g50
tp83
ag81
ag83
ag81
ag81
ag83
ag71
ag73
ag73
ag70
ag71
ag70
a(S'p4'
p84
F1.5707963267948966
g50
tp85
asS's'
p86
(lp87
g49
ag49
ag51
ag53
ag55
ag57
ag58
ag59
ag57
ag58
ag57
ag60
ag61
ag60
ag62
ag64
ag65
ag65
ag66
ag67
ag69
ag70
ag71
ag72
ag72
ag72
ag72
ag73
ag73
ag73
ag70
ag74
ag75
ag76
ag75
ag77
ag77
ag78
ag79
ag80
ag64
ag75
ag69
ag70
ag81
ag82
ag82
ag83
ag81
ag83
ag81
ag81
ag83
ag71
ag73
ag73
ag70
ag71
ag70
asS'ui'
p88
(lp89
S'hp'
p90
aS'ss'
p91
ag90
ag46
ag90
ag46
ag91
ag90
aS'hs'
p92
ag90
ag46
ag90
ag46
ag90
ag91
ag92
ag90
ag91
ag92
ag46
ag92
ag91
ag91
ag91
ag91
ag91
ag46
ag46
ag46
ag92
ag46
ag90
ag91
ag90
ag91
ag91
ag91
ag91
ag92
ag91
ag91
ag46
ag92
ag91
ag91
ag90
ag90
ag46
ag90
ag92
ag46
ag90
ag92
ag92
ag46
ag92
ag91
ag92
ag91
asS'um_before'
p93
(lp94
g46
ag91
ag90
ag46
ag90
ag92
ag91
ag90
ag92
ag90
ag46
ag91
ag46
ag90
ag91
ag92
ag90
ag91
ag92
ag46
ag92
ag90
ag91
ag90
ag90
ag91
ag46
ag46
ag46
ag92
ag46
ag90
ag92
ag90
ag91
ag90
ag91
ag46
ag92
ag91
ag90
ag46
ag92
ag92
ag91
ag46
ag90
ag92
ag90
ag92
ag46
ag90
ag90
ag46
ag46
ag92
ag90
ag92
ag91
asS'um_after'
p95
(lp96
Nag91
ag90
ag46
ag90
ag92
ag91
ag90
ag92
ag90
ag46
ag91
ag46
ag90
ag91
ag92
aNag91
ag92
ag46
ag92
ag90
ag91
aNaNag91
ag46
ag46
ag46
ag92
ag46
ag90
ag92
ag90
ag91
aNag91
ag46
ag92
ag91
ag90
ag46
ag92
ag92
ag91
aNag90
ag92
ag90
ag92
aNag90
ag90
ag46
ag46
ag92
ag90
ag92
ag91
asaa(lp97
S'index'
p98
aI53499
aatp99
Rp100
.