ccollections
OrderedDict
p0
((lp1
(lp2
S'index'
p3
aI11570
aa(lp4
S'combination_dict'
p5
ag0
((lp6
(lp7
S'r_to_g_config'
p8
aS'br'
p9
aa(lp10
S'num_turns'
p11
aI1
aa(lp12
S'start_direction'
p13
acutils_ms
StartDirection
p14
(I3
tp15
Rp16
aa(lp17
S'assistance_type'
p18
acutils_ms
AssistanceType
p19
(I0
tp20
Rp21
aa(lp22
S'start_mode'
p23
aS't'
p24
aa(lp25
S'ui_given_a_noise'
p26
aF0.3
aa(lp27
S'um_given_ui_noise'
p28
aF0.3
aa(lp29
S'entropy_threshold'
p30
aF0.5
aa(lp31
S'is_assistance'
p32
aI01
aatp33
Rp34
aa(lp35
S'trials'
p36
ag0
((lp37
(lp38
I0
accollections
defaultdict
p39
(c__builtin__
list
p40
tp41
Rp42
S'a'
p43
(lp44
S'mode_r'
p45
ag45
aS'move_p'
p46
ag45
ag45
ag46
aS'mode_l'
p47
ag46
ag47
ag47
aS'move_n'
p48
asS'assistance_match_with_ground_truth'
p49
(lp50
I00
aI01
aI00
aI00
aI01
aI01
aI01
aI01
aI00
aI01
aI01
asS'total_steps'
p51
I11
sS'sp'
p52
(S'p2'
p53
F1.5707963267948966
S'y'
p54
tp55
sS's'
p56
(lp57
(S'p0'
p58
I0
g24
tp59
a(g58
I0
S't'
p60
tp61
a(g58
I0
S'x'
p62
tp63
a(g58
I0
g60
tp64
ag61
ag63
a(S'p1'
p65
I0
g62
tp66
a(g65
I0
g60
tp67
a(g65
F1.5707963267948966
g60
tp68
ag68
a(g65
F1.5707963267948966
g54
tp69
asS'ui'
p70
(lp71
S'ss'
p72
aS'hp'
p73
aS'hs'
p74
ag73
ag72
ag52
ag74
ag52
ag74
ag74
ag72
asS'um_before'
p75
(lp76
g72
ag73
ag74
ag72
ag73
ag52
ag74
ag52
ag72
ag74
ag72
asS'um_after'
p77
(lp78
g72
ag73
ag74
ag72
ag73
ag52
ag74
ag52
aNag74
ag72
asaa(lp79
I1
ag39
(g40
tp80
Rp81
g43
(lp82
g45
ag46
ag46
ag47
ag46
ag47
ag48
ag47
ag47
ag47
ag47
ag45
ag47
ag47
ag45
ag45
ag46
ag45
ag48
ag47
ag48
ag47
ag48
asg49
(lp83
I01
aI00
aI01
aI01
aI01
aI01
aI00
aI00
aI00
aI00
aI00
aI00
aI00
aI00
aI00
aI01
aI01
aI01
aI00
aI01
aI00
aI01
aI01
asg51
I23
sg52
g55
sg56
(lp84
(g58
I0
g24
tp85
ag63
a(g58
I0
g62
tp86
ag66
ag67
ag68
ag69
a(g58
F1.5707963267948966
g54
tp87
a(g58
F1.5707963267948966
g54
tp88
ag88
ag88
a(g58
F1.5707963267948966
g60
tp89
a(g58
F1.5707963267948966
g54
tp90
ag88
ag89
a(g58
F1.5707963267948966
g60
tp91
a(g58
F1.5707963267948966
g62
tp92
a(g65
F1.5707963267948966
g62
tp93
a(g65
F1.5707963267948966
g54
tp94
a(g65
F1.5707963267948966
g60
tp95
ag69
ag95
ag69
asg70
(lp96
g73
ag52
ag52
ag74
ag52
ag74
ag73
ag74
ag74
ag74
ag73
ag74
ag74
ag74
ag52
ag73
ag52
ag73
ag73
ag74
ag73
ag74
ag72
asg75
(lp97
g73
ag72
ag52
ag74
ag52
ag74
ag52
ag52
ag72
ag52
ag73
ag74
ag52
ag73
ag52
ag73
ag52
ag73
ag73
ag74
ag73
ag74
ag72
asg77
(lp98
g73
ag72
ag52
ag74
ag52
ag74
ag52
ag52
aNag52
ag73
ag74
ag52
ag73
ag52
ag73
ag52
ag73
ag73
ag74
ag73
ag74
ag72
asaa(lp99
I2
ag39
(g40
tp100
Rp101
g43
(lp102
g45
ag45
ag46
ag46
ag47
ag46
ag47
ag48
asg49
(lp103
I00
aI01
aI00
aI01
aI01
aI01
aI01
aI01
asg51
I8
sg52
g55
sg56
(lp104
(g58
I0
g24
tp105
ag61
ag63
ag86
ag66
ag67
ag68
ag69
asg70
(lp106
g73
ag73
ag72
ag52
ag74
ag52
ag74
ag72
asg75
(lp107
g72
ag73
ag72
ag52
ag74
ag52
ag74
ag72
asg77
(lp108
g72
ag73
ag72
ag52
ag74
ag52
ag74
ag72
asaa(lp109
I3
ag39
(g40
tp110
Rp111
g43
(lp112
g45
ag45
ag45
ag45
ag45
ag46
ag46
ag47
ag47
ag47
ag47
ag47
ag47
ag46
ag46
ag45
ag45
ag47
ag47
ag46
ag47
ag45
ag47
ag47
ag46
ag47
ag48
ag47
ag48
asg49
(lp113
I00
aI00
aI00
aI00
aI01
aI00
aI00
aI00
aI00
aI00
aI00
aI00
aI01
aI00
aI00
aI00
aI00
aI00
aI01
aI01
aI00
aI00
aI00
aI01
aI01
aI01
aI00
aI01
aI01
asg51
I29
sg52
g55
sg56
(lp114
(g58
I0
g24
tp115
a(g58
I0
g60
tp116
ag116
ag116
ag61
ag63
ag86
a(g58
I0
g54
tp117
ag117
ag117
ag117
a(g58
I0
g54
tp118
ag118
a(g58
I0
g62
tp119
ag86
ag64
ag61
a(g58
I0
g54
tp120
ag118
ag119
ag66
a(g65
I0
g54
tp121
a(g65
I0
g62
tp122
a(g65
I0
g62
tp123
ag67
ag68
ag69
ag95
ag69
asg70
(lp124
g73
ag52
ag73
ag73
ag73
ag72
ag52
ag73
ag74
ag74
ag74
ag74
ag74
ag52
ag52
ag72
ag73
ag74
ag74
ag52
ag74
ag73
ag73
ag74
ag52
ag74
ag72
ag74
ag72
asg75
(lp125
g52
ag52
ag52
ag72
ag73
ag72
ag73
ag72
ag72
ag72
ag52
ag52
ag74
ag72
ag74
ag72
ag74
ag52
ag74
ag52
ag73
ag74
ag52
ag74
ag52
ag74
ag73
ag74
ag72
asg77
(lp126
g52
ag52
ag52
ag72
ag73
ag72
ag73
aNaNaNag52
ag52
ag74
ag72
ag74
ag72
ag74
ag52
ag74
ag52
ag73
ag74
ag52
ag74
ag52
ag74
ag73
ag74
ag72
asaa(lp127
I4
ag39
(g40
tp128
Rp129
g43
(lp130
g45
ag46
ag47
ag46
ag45
ag45
ag46
ag47
ag46
ag46
ag47
ag48
ag45
ag48
asg49
(lp131
I01
aI00
aI01
aI00
aI00
aI01
aI01
aI01
aI00
aI01
aI01
aI00
aI01
aI01
asg51
I14
sg52
g55
sg56
(lp132
(g58
I0
g24
tp133
ag63
ag117
ag119
ag64
ag116
ag63
ag66
ag67
a(g65
I0
g60
tp134
ag68
ag69
a(g65
F1.5707963267948966
g62
tp135
ag94
asg70
(lp136
g73
ag74
ag74
ag74
ag73
ag73
ag72
ag74
ag72
ag52
ag74
ag73
ag73
ag72
asg75
(lp137
g73
ag73
ag74
ag74
ag52
ag73
ag52
ag74
ag72
ag52
ag74
ag74
ag73
ag72
asg77
(lp138
g73
ag73
ag74
ag74
ag52
ag73
ag52
ag74
ag72
ag52
ag74
ag74
ag73
ag72
asaa(lp139
I5
ag39
(g40
tp140
Rp141
g43
(lp142
g45
ag47
ag47
ag46
ag47
ag46
ag47
ag48
ag47
ag47
ag47
ag45
ag48
ag47
ag48
asg49
(lp143
I00
aI00
aI01
aI01
aI01
aI01
aI01
aI00
aI00
aI00
aI00
aI01
aI00
aI01
aI01
asg51
I15
sg52
g55
sg56
(lp144
(g58
I0
g24
tp145
ag120
ag120
ag119
ag66
ag67
ag68
ag69
ag95
ag95
ag95
a(g65
F1.5707963267948966
g62
tp146
ag94
ag95
ag69
asg70
(lp147
g73
ag73
ag74
ag52
ag74
ag52
ag74
ag73
ag74
ag72
ag74
ag52
ag72
ag74
ag72
asg75
(lp148
g74
ag72
ag74
ag52
ag74
ag52
ag74
ag73
ag72
ag72
ag73
ag73
ag73
ag74
ag72
asg77
(lp149
g74
aNag74
ag52
ag74
ag52
ag74
ag73
aNaNag73
ag73
ag73
ag74
ag72
asaa(lp150
I6
ag39
(g40
tp151
Rp152
g43
(lp153
g45
ag45
ag46
ag47
ag46
ag45
ag46
ag45
ag45
ag45
ag46
ag47
ag47
ag47
ag46
ag47
ag47
ag48
ag47
ag46
ag46
ag45
ag47
ag48
asg49
(lp154
I00
aI01
aI00
aI01
aI00
aI01
aI00
aI00
aI00
aI01
aI01
aI00
aI00
aI01
aI01
aI00
aI01
aI00
aI01
aI00
aI01
aI00
aI01
aI01
asg51
I24
sg52
g55
sg56
(lp155
(g58
I0
g24
tp156
ag61
ag63
ag117
ag119
ag64
ag63
ag64
ag116
ag116
ag63
ag66
ag66
ag66
ag67
ag68
ag68
ag69
ag87
a(g58
F1.5707963267948966
g62
tp157
a(g58
F1.5707963267948966
g62
tp158
ag93
a(g65
F1.5707963267948966
g60
tp159
ag69
asg70
(lp160
g72
ag73
ag52
ag74
ag74
ag73
ag74
ag52
ag52
ag52
ag52
ag74
ag74
ag74
ag52
ag74
ag74
ag72
ag74
ag52
ag52
ag73
ag74
ag72
asg75
(lp161
g72
ag73
ag73
ag74
ag74
ag73
ag74
ag52
ag52
ag73
ag52
ag72
ag72
ag74
ag52
ag72
ag74
ag52
ag74
ag72
ag52
ag74
ag74
ag72
asg77
(lp162
g72
ag73
ag73
ag74
ag74
ag73
ag74
ag52
ag52
ag73
ag52
aNaNag74
ag52
aNag74
ag52
ag74
ag72
ag52
ag74
ag74
ag72
asaa(lp163
I7
ag39
(g40
tp164
Rp165
g43
(lp166
g45
ag46
ag45
ag47
ag46
ag47
ag46
ag47
ag45
ag46
ag45
asg49
(lp167
I01
aI00
aI00
aI01
aI00
aI01
aI01
aI00
aI01
aI00
aI00
asg51
I11
sg52
(g53
I0
g54
tp168
sg56
(lp169
(g58
I0
g24
tp170
ag63
ag64
ag120
ag119
ag117
ag119
ag66
ag121
a(g65
I0
g60
tp171
a(g65
I0
g54
tp172
asg70
(lp173
g73
ag74
ag73
ag74
ag52
ag74
ag52
ag73
ag73
ag74
ag73
asg75
(lp174
g73
ag74
ag74
ag74
ag73
ag74
ag52
ag73
ag73
ag74
ag72
asg77
(lp175
g73
ag74
ag74
ag74
ag73
ag74
ag52
ag73
ag73
ag74
ag72
asaa(lp176
I8
ag39
(g40
tp177
Rp178
g43
(lp179
g45
ag45
ag45
ag46
ag46
ag47
ag47
ag47
ag46
ag47
ag46
ag47
ag45
ag48
asg49
(lp180
I00
aI00
aI01
aI00
aI00
aI00
aI00
aI01
aI01
aI01
aI01
aI00
aI01
aI01
asg51
I14
sg52
g55
sg56
(lp181
(g58
I0
g24
tp182
ag61
ag61
ag63
ag86
ag117
ag117
ag117
ag119
ag66
ag67
ag68
ag146
ag94
asg70
(lp183
g72
ag52
ag73
ag72
ag52
ag74
ag74
ag74
ag52
ag74
ag52
ag73
ag73
ag72
asg75
(lp184
g72
ag72
ag73
ag72
ag73
ag72
ag72
ag74
ag52
ag74
ag52
ag73
ag73
ag72
asg77
(lp185
g72
ag72
ag73
ag72
ag73
aNaNag74
ag52
ag74
ag52
ag73
ag73
ag72
asaa(lp186
I9
ag39
(g40
tp187
Rp188
g43
(lp189
g45
ag46
ag45
ag45
ag45
ag45
ag46
ag45
ag47
ag46
ag47
ag46
ag47
ag46
ag45
ag47
ag46
ag47
ag45
ag47
ag48
asg49
(lp190
I01
aI00
aI00
aI00
aI00
aI01
aI00
aI00
aI01
aI00
aI01
aI01
aI01
aI00
aI00
aI01
aI01
aI00
aI00
aI01
aI01
asg51
I21
sg52
g55
sg56
(lp191
(g58
I0
g24
tp192
ag63
ag64
ag61
ag116
ag61
ag63
ag64
ag120
ag119
ag117
ag119
ag66
ag67
ag172
ag122
ag67
ag68
ag146
ag159
ag69
asg70
(lp193
g73
ag52
ag73
ag52
ag72
ag74
ag74
ag73
ag74
ag72
ag74
ag52
ag74
ag74
ag74
ag74
ag52
ag73
ag73
ag74
ag72
asg75
(lp194
g73
ag74
ag72
ag52
ag72
ag73
ag74
ag74
ag74
ag73
ag74
ag52
ag74
ag74
ag74
ag74
ag52
ag73
ag74
ag74
ag72
asg77
(lp195
g73
ag74
ag72
ag52
ag72
ag73
ag74
ag74
ag74
ag73
ag74
ag52
ag74
ag74
ag74
ag74
ag52
ag73
ag74
ag74
ag72
asaatp196
Rp197
aatp198
Rp199
.