ccollections
OrderedDict
p0
((lp1
(lp2
S'index'
p3
aI1283
aa(lp4
S'combination_dict'
p5
ag0
((lp6
(lp7
S'r_to_g_config'
p8
aS'tr'
p9
aa(lp10
S'num_turns'
p11
aI2
aa(lp12
S'start_direction'
p13
acutils_ms
StartDirection
p14
(I3
tp15
Rp16
aa(lp17
S'assistance_type'
p18
acutils_ms
AssistanceType
p19
(I0
tp20
Rp21
aa(lp22
S'start_mode'
p23
aS't'
p24
aa(lp25
S'ui_given_a_noise'
p26
aF0.1
aa(lp27
S'um_given_ui_noise'
p28
aF0.1
aa(lp29
S'entropy_threshold'
p30
aF0.6
aa(lp31
S'is_assistance'
p32
aI00
aatp33
Rp34
aa(lp35
S'trials'
p36
ag0
((lp37
(lp38
I0
accollections
defaultdict
p39
(c__builtin__
list
p40
tp41
Rp42
S'a'
p43
(lp44
S'mode_r'
p45
aS'move_p'
p46
aS'mode_l'
p47
ag47
ag46
ag47
ag46
ag47
ag46
asS'assistance_match_with_ground_truth'
p48
(lp49
I01
aI01
aI00
aI01
aI01
aI01
aI01
aI01
aI01
asS'total_steps'
p50
I9
sS'sp'
p51
(S'p3'
p52
F1.5707963267948966
S'x'
p53
tp54
sS's'
p55
(lp56
(S'p0'
p57
I0
g24
tp58
a(g57
I0
g53
tp59
a(S'p1'
p60
I0
g53
tp61
a(g60
I0
g53
tp62
a(g60
I0
S't'
p63
tp64
a(g60
F1.5707963267948966
g63
tp65
a(g60
F1.5707963267948966
S'y'
p66
tp67
a(S'p2'
p68
F1.5707963267948966
g66
tp69
a(g68
F1.5707963267948966
g53
tp70
asS'ui'
p71
(lp72
S'hp'
p73
ag51
aS'ss'
p74
aS'hs'
p75
ag51
ag75
ag51
ag75
ag51
asS'um_before'
p76
(lp77
g73
ag51
ag74
ag75
ag51
ag75
ag51
ag75
ag51
asS'um_after'
p78
(lp79
g73
ag51
ag74
ag75
ag51
ag75
ag51
ag75
ag51
asaa(lp80
I1
ag39
(g40
tp81
Rp82
g43
(lp83
g45
ag46
ag47
ag47
ag46
ag47
ag46
ag47
ag46
ag47
ag46
asg48
(lp84
I01
aI01
aI00
aI01
aI00
aI01
aI01
aI01
aI01
aI01
aI01
asg50
I11
sg51
g54
sg55
(lp85
(g57
I0
g24
tp86
ag59
ag61
a(g60
I0
g53
tp87
ag64
a(g60
I0
g53
tp88
ag64
ag65
ag67
ag69
ag70
asg71
(lp89
g73
ag51
ag75
ag75
ag73
ag75
ag51
ag75
ag51
ag75
ag51
asg76
(lp90
g73
ag51
ag51
ag75
ag73
ag75
ag51
ag75
ag51
ag75
ag51
asg78
(lp91
g73
ag51
ag51
ag75
ag73
ag75
ag51
ag75
ag51
ag75
ag51
asaa(lp92
I2
ag39
(g40
tp93
Rp94
g43
(lp95
g45
ag46
ag45
ag45
ag46
ag47
ag46
ag47
ag47
ag45
ag46
ag47
ag46
ag47
ag46
asg48
(lp96
I01
aI00
aI00
aI01
aI01
aI01
aI01
aI00
aI00
aI01
aI01
aI01
aI00
aI01
aI01
asg50
I15
sg51
g54
sg55
(lp97
(g57
I0
g24
tp98
ag59
a(g57
I0
g63
tp99
a(g57
I0
g63
tp100
ag59
ag61
ag64
ag65
a(g60
F1.5707963267948966
g63
tp101
a(g60
F1.5707963267948966
g53
tp102
a(g60
F1.5707963267948966
g66
tp103
ag69
ag70
a(g68
F1.5707963267948966
g66
tp104
ag70
asg71
(lp105
g73
ag75
ag73
ag73
ag51
ag75
ag51
ag75
ag73
ag73
ag51
ag75
ag73
ag75
ag51
asg76
(lp106
g73
ag75
ag74
ag73
ag51
ag75
ag51
ag51
ag73
ag73
ag51
ag75
ag73
ag75
ag51
asg78
(lp107
g73
ag75
ag74
ag73
ag51
ag75
ag51
ag51
ag73
ag73
ag51
ag75
ag73
ag75
ag51
asaa(lp108
I3
ag39
(g40
tp109
Rp110
g43
(lp111
g45
ag46
ag47
ag46
ag46
ag47
ag46
ag47
ag46
asg48
(lp112
I01
aI01
aI01
aI00
aI01
aI01
aI01
aI01
aI01
asg50
I9
sg51
g54
sg55
(lp113
(g57
I0
g24
tp114
ag59
ag61
ag64
a(g60
I0
g63
tp115
ag65
ag67
ag69
ag70
asg71
(lp116
g73
ag51
ag75
ag51
ag51
ag75
ag51
ag75
ag51
asg76
(lp117
g73
ag51
ag75
ag74
ag51
ag75
ag51
ag75
ag51
asg78
(lp118
g73
ag51
ag75
ag74
ag51
ag75
ag51
ag75
ag51
asaa(lp119
I4
ag39
(g40
tp120
Rp121
g43
(lp122
g45
ag46
ag47
ag46
ag46
ag45
ag47
ag46
ag47
ag46
ag46
ag47
ag46
ag47
ag46
ag47
ag46
asg48
(lp123
I01
aI01
aI01
aI00
aI00
aI00
aI01
aI01
aI01
aI00
aI01
aI01
aI00
aI01
aI01
aI01
aI01
asg50
I17
sg51
g54
sg55
(lp124
(g57
I0
g24
tp125
ag59
ag61
ag64
ag115
a(g60
I0
g66
tp126
a(g57
I0
g66
tp127
a(g57
I0
g53
tp128
ag61
ag64
ag115
ag65
ag67
a(g60
F1.5707963267948966
g63
tp129
ag67
ag69
ag70
asg71
(lp130
g73
ag51
ag75
ag74
ag51
ag74
ag75
ag51
ag75
ag74
ag51
ag75
ag73
ag75
ag51
ag75
ag51
asg76
(lp131
g73
ag51
ag75
ag74
ag75
ag74
ag75
ag51
ag75
ag74
ag51
ag75
ag73
ag75
ag51
ag75
ag51
asg78
(lp132
g73
ag51
ag75
ag74
ag75
ag74
ag75
ag51
ag75
ag74
ag51
ag75
ag73
ag75
ag51
ag75
ag51
asaa(lp133
I5
ag39
(g40
tp134
Rp135
g43
(lp136
g45
ag46
ag46
ag46
ag46
ag47
ag46
ag47
ag46
ag47
ag46
ag45
ag46
asg48
(lp137
I01
aI00
aI00
aI00
aI01
aI01
aI01
aI01
aI01
aI01
aI00
aI01
aI01
asg50
I13
sg51
g54
sg55
(lp138
(g57
I0
g24
tp139
ag59
a(g57
I0
g53
tp140
ag140
ag140
ag61
ag64
ag65
ag67
ag69
ag70
a(g68
F1.5707963267948966
g63
tp141
a(g68
F1.5707963267948966
g53
tp142
asg71
(lp143
g73
ag74
ag51
ag74
ag51
ag75
ag51
ag75
ag51
ag75
ag75
ag73
ag51
asg76
(lp144
g73
ag74
ag74
ag74
ag51
ag75
ag51
ag75
ag51
ag75
ag75
ag73
ag51
asg78
(lp145
g73
ag74
ag74
ag74
ag51
ag75
ag51
ag75
ag51
ag75
ag75
ag73
ag51
asaa(lp146
I6
ag39
(g40
tp147
Rp148
g43
(lp149
g45
ag46
ag47
ag46
ag47
ag46
ag47
ag46
ag45
ag46
ag47
ag46
asg48
(lp150
I01
aI01
aI01
aI01
aI01
aI01
aI01
aI00
aI01
aI01
aI01
aI01
asg50
I12
sg51
g54
sg55
(lp151
(g57
I0
g24
tp152
ag59
ag61
ag64
ag65
ag67
ag69
ag70
a(g60
F1.5707963267948966
g53
tp153
ag103
ag69
ag70
asg71
(lp154
g73
ag51
ag75
ag51
ag75
ag51
ag75
ag73
ag73
ag51
ag75
ag51
asg76
(lp155
g73
ag51
ag75
ag51
ag75
ag51
ag75
ag74
ag73
ag51
ag75
ag51
asg78
(lp156
g73
ag51
ag75
ag51
ag75
ag51
ag75
ag74
ag73
ag51
ag75
ag51
asaa(lp157
I7
ag39
(g40
tp158
Rp159
g43
(lp160
g45
ag45
ag47
ag46
ag47
ag45
ag46
ag45
ag46
ag47
ag46
ag47
ag46
ag47
ag46
ag47
ag46
ag47
ag47
ag46
ag45
ag46
ag47
ag46
ag45
ag46
ag47
ag47
ag45
ag45
ag46
asg48
(lp161
I00
aI00
aI01
aI01
aI00
aI01
aI00
aI01
aI01
aI00
aI01
aI00
aI01
aI01
aI00
aI01
aI00
aI00
aI01
aI01
aI01
aI01
aI01
aI00
aI01
aI01
aI00
aI00
aI00
aI01
aI01
asg50
I31
sg51
g54
sg55
(lp162
(g57
I0
g24
tp163
a(g57
I0
g63
tp164
a(g57
I0
g66
tp165
ag128
ag61
a(g60
I0
g66
tp166
a(g60
I0
g63
tp167
ag126
ag167
ag65
a(g60
I0
g63
tp168
ag65
ag168
ag65
ag67
ag129
ag67
a(g57
F1.5707963267948966
g66
tp169
a(g57
F1.5707963267948966
g66
tp170
a(g57
F1.5707963267948966
g53
tp171
a(g60
F1.5707963267948966
g53
tp172
ag103
ag69
ag70
ag153
ag103
ag69
a(g68
F1.5707963267948966
g66
tp173
a(g68
F1.5707963267948966
g63
tp174
a(g68
F1.5707963267948966
g63
tp175
ag142
asg71
(lp176
g51
ag73
ag75
ag51
ag73
ag73
ag75
ag73
ag51
ag74
ag51
ag74
ag51
ag75
ag73
ag75
ag74
ag75
ag75
ag51
ag73
ag51
ag75
ag51
ag73
ag51
ag74
ag73
ag51
ag73
ag51
asg76
(lp177
g51
ag75
ag75
ag51
ag73
ag73
ag75
ag73
ag51
ag74
ag51
ag74
ag51
ag75
ag73
ag75
ag74
ag74
ag75
ag51
ag73
ag51
ag75
ag74
ag73
ag51
ag74
ag73
ag51
ag73
ag51
asg78
(lp178
g51
ag75
ag75
ag51
ag73
ag73
ag75
ag73
ag51
ag74
ag51
ag74
ag51
ag75
ag73
ag75
ag74
ag74
ag75
ag51
ag73
ag51
ag75
ag74
ag73
ag51
ag74
ag73
ag51
ag73
ag51
asaa(lp179
I8
ag39
(g40
tp180
Rp181
g43
(lp182
g45
ag46
ag46
ag46
ag47
ag47
ag46
ag47
ag46
ag47
ag46
ag46
ag47
ag46
ag47
ag46
ag47
ag46
ag45
ag46
ag47
ag46
ag47
ag46
ag47
ag46
ag45
ag46
ag45
ag45
ag47
ag46
ag47
ag46
asg48
(lp183
I01
aI00
aI00
aI00
aI00
aI01
aI01
aI01
aI01
aI00
aI00
aI01
aI01
aI00
aI01
aI00
aI01
aI01
aI01
aI00
aI01
aI00
aI01
aI00
aI01
aI00
aI01
aI01
aI00
aI00
aI01
aI01
aI01
aI01
asg50
I34
sg51
g54
sg55
(lp184
(g57
I0
g24
tp185
ag59
ag140
ag140
a(g57
I0
g66
tp186
a(g57
I0
g66
tp187
ag128
ag61
ag64
ag65
ag168
ag115
ag65
ag67
ag169
ag171
a(g57
F1.5707963267948966
g66
tp188
ag171
ag172
ag103
ag129
ag67
ag169
ag171
ag188
ag171
a(g57
F1.5707963267948966
g63
tp189
a(g57
F1.5707963267948966
g53
tp190
ag172
a(g60
F1.5707963267948966
g53
tp191
a(g60
F1.5707963267948966
g63
tp192
ag67
ag69
ag70
asg71
(lp193
g73
ag51
ag74
ag73
ag74
ag75
ag51
ag75
ag51
ag74
ag74
ag51
ag75
ag51
ag75
ag73
ag75
ag51
ag73
ag73
ag75
ag51
ag75
ag51
ag75
ag73
ag73
ag51
ag73
ag73
ag75
ag51
ag75
ag51
asg76
(lp194
g73
ag74
ag74
ag73
ag74
ag75
ag51
ag75
ag51
ag74
ag74
ag51
ag75
ag74
ag75
ag73
ag75
ag51
ag73
ag73
ag75
ag74
ag75
ag73
ag75
ag75
ag73
ag51
ag74
ag75
ag75
ag51
ag75
ag51
asg78
(lp195
g73
ag74
ag74
ag73
ag74
ag75
ag51
ag75
ag51
ag74
ag74
ag51
ag75
ag74
ag75
ag73
ag75
ag51
ag73
ag73
ag75
ag74
ag75
ag73
ag75
ag75
ag73
ag51
ag74
ag75
ag75
ag51
ag75
ag51
asaa(lp196
I9
ag39
(g40
tp197
Rp198
g43
(lp199
g45
ag46
ag47
ag46
ag47
ag46
ag47
ag46
asg48
(lp200
I01
aI01
aI01
aI01
aI01
aI01
aI01
aI01
asg50
I8
sg51
g54
sg55
(lp201
(g57
I0
g24
tp202
ag59
ag61
ag64
ag65
ag67
ag69
ag70
asg71
(lp203
g73
ag51
ag75
ag51
ag75
ag51
ag75
ag75
asg76
(lp204
g73
ag51
ag75
ag51
ag75
ag51
ag75
ag51
asg78
(lp205
g73
ag51
ag75
ag51
ag75
ag51
ag75
ag51
asaatp206
Rp207
aatp208
Rp209
.