ccollections
OrderedDict
p0
((lp1
(lp2
S'combination_dict'
p3
ag0
((lp4
(lp5
S'r_to_g_config'
p6
aS'tr'
p7
aa(lp8
S'num_turns'
p9
aI2
aa(lp10
S'start_direction'
p11
acutils_ms
StartDirection
p12
(I0
tp13
Rp14
aa(lp15
S'assistance_type'
p16
acutils_ms
AssistanceType
p17
(I2
tp18
Rp19
aa(lp20
S'start_mode'
p21
aS't'
p22
aa(lp23
S'ui_given_a_noise'
p24
aF0.3
aa(lp25
S'um_given_ui_noise'
p26
aF0.3
aa(lp27
S'entropy_threshold'
p28
aF0.7
aatp29
Rp30
aa(lp31
S'data'
p32
accollections
defaultdict
p33
(c__builtin__
list
p34
tp35
Rp36
S'a'
p37
(lp38
S'mode_r'
p39
aS'move_p'
p40
ag39
aS'mode_l'
p41
ag41
ag40
ag40
ag39
ag40
ag41
ag40
ag39
ag40
ag39
ag40
ag39
ag40
ag39
ag39
ag40
ag39
ag40
ag39
ag40
ag39
ag40
ag41
ag40
ag41
ag41
ag40
ag39
ag41
ag40
ag39
ag40
ag39
ag40
ag39
ag40
ag41
ag41
ag41
ag40
asS'assistance_match_with_ground_truth'
p42
(lp43
I01
aI00
aI00
aI00
aI01
aI00
aI00
aI01
aI00
aI01
aI01
aI01
aI01
aI01
aI00
aI01
aI00
aI00
aI01
aI01
aI00
aI01
aI01
aI00
aI01
aI00
aI01
aI00
aI00
aI01
aI00
aI00
aI01
aI00
aI01
aI00
aI01
aI01
aI01
aI01
aI00
aI00
aI01
aI01
asS'total_steps'
p44
I44
sS'sp'
p45
(lp46
(S'p0'
p47
I0
S'x'
p48
tp49
a(g47
I0
S't'
p50
tp51
a(g47
I0
S'y'
p52
tp53
a(g47
I0
g52
tp54
a(g47
I0
g48
tp55
a(g47
I0
g48
tp56
ag51
ag49
a(g47
I0
g52
tp57
ag55
a(S'p1'
p58
I0
g48
tp59
a(g58
I0
g52
tp60
a(S'p2'
p61
I0
g52
tp62
a(g61
I0
g50
tp63
a(g61
I0
g52
tp64
ag63
ag64
a(g61
I0
g52
tp65
ag63
a(g61
F1.5707963267948966
g50
tp66
a(g61
I0
g50
tp67
ag66
a(g61
F1.5707963267948966
g48
tp68
a(g58
F1.5707963267948966
g48
tp69
a(g58
F1.5707963267948966
g52
tp70
a(g47
F1.5707963267948966
g52
tp71
a(g47
F1.5707963267948966
g48
tp72
a(g47
F1.5707963267948966
g52
tp73
a(g47
F1.5707963267948966
g52
tp74
ag72
a(g47
F1.5707963267948966
g50
tp75
a(g47
F1.5707963267948966
g52
tp76
ag72
ag75
a(g47
F1.5707963267948966
g48
tp77
ag75
ag77
a(g58
F1.5707963267948966
g48
tp78
ag70
a(g61
F1.5707963267948966
g52
tp79
a(g61
F1.5707963267948966
g52
tp80
a(g61
F1.5707963267948966
g52
tp81
a(g61
F1.5707963267948966
g48
tp82
a(S'p3'
p83
F1.5707963267948966
g48
tp84
asS's'
p85
(lp86
(g47
I0
g22
tp87
ag49
ag51
ag53
ag54
ag55
ag56
ag51
ag49
ag57
ag55
ag59
ag60
ag62
ag63
ag64
ag63
ag64
ag65
ag63
ag66
ag67
ag66
ag68
ag69
ag70
ag71
ag72
ag73
ag74
ag72
ag75
ag76
ag72
ag75
ag77
ag75
ag77
ag78
ag70
ag79
ag80
ag81
ag82
asS'ui'
p88
(lp89
g45
aS'hs'
p90
ag90
ag90
ag90
aS'ss'
p91
aS'hp'
p92
ag92
ag91
ag90
ag45
ag92
ag45
ag92
ag45
ag90
ag45
ag45
ag92
ag90
ag45
ag45
ag92
ag45
ag92
ag45
ag90
ag45
ag90
ag90
ag90
ag92
ag90
ag90
ag92
ag90
ag92
ag90
ag92
ag45
ag92
ag45
ag90
ag45
asS'um_before'
p93
(lp94
g92
ag90
ag90
ag91
ag90
ag91
ag90
ag92
ag92
ag90
ag45
ag92
ag45
ag92
ag90
ag92
ag90
ag45
ag92
ag45
ag91
ag45
ag92
ag91
ag92
ag91
ag90
ag92
ag91
ag90
ag90
ag90
ag90
ag90
ag92
ag90
ag92
ag45
ag92
ag45
ag91
ag45
ag90
ag45
asS'um_after'
p95
(lp96
g92
ag90
ag90
ag91
ag90
ag91
ag90
ag92
ag92
ag90
ag45
ag92
ag45
ag92
ag90
ag92
ag90
ag45
ag92
ag45
ag91
ag45
ag92
ag91
ag92
ag91
ag90
ag92
ag91
ag90
ag90
ag90
ag90
ag90
ag92
ag90
ag92
ag45
ag92
ag45
ag91
ag45
ag90
ag45
asaa(lp97
S'index'
p98
aI13076
aatp99
Rp100
.