ccollections
OrderedDict
p0
((lp1
(lp2
S'combination_dict'
p3
ag0
((lp4
(lp5
S'r_to_g_config'
p6
aS'tr'
p7
aa(lp8
S'num_turns'
p9
aI3
aa(lp10
S'start_direction'
p11
acutils_ms
StartDirection
p12
(I1
tp13
Rp14
aa(lp15
S'assistance_type'
p16
acutils_ms
AssistanceType
p17
(I1
tp18
Rp19
aa(lp20
S'start_mode'
p21
aS't'
p22
aa(lp23
S'ui_given_a_noise'
p24
aF0.7
aa(lp25
S'um_given_ui_noise'
p26
aF0.7
aa(lp27
S'entropy_threshold'
p28
aF0.7
aatp29
Rp30
aa(lp31
S'data'
p32
accollections
defaultdict
p33
(c__builtin__
list
p34
tp35
Rp36
S'a'
p37
(lp38
S'mode_l'
p39
aS'move_p'
p40
aS'mode_r'
p41
ag41
ag41
ag40
ag41
ag39
ag41
ag39
ag41
ag41
ag39
ag41
ag40
ag41
ag41
ag40
ag41
ag40
ag41
ag39
ag40
ag39
ag41
ag40
ag41
ag41
ag40
ag39
ag41
ag41
ag39
ag41
ag40
ag41
ag41
ag41
ag40
ag41
ag40
ag41
ag41
ag41
ag41
ag41
ag41
ag41
ag41
ag39
ag39
ag39
ag39
ag41
ag41
ag41
ag40
ag39
ag39
ag39
ag41
ag40
ag39
ag40
asS'assistance_match_with_ground_truth'
p42
(lp43
I01
aI00
aI00
aI00
aI01
aI01
aI00
aI00
aI00
aI00
aI00
aI00
aI00
aI01
aI01
aI00
aI01
aI00
aI01
aI00
aI00
aI01
aI00
aI00
aI01
aI00
aI00
aI01
aI00
aI00
aI00
aI00
aI00
aI01
aI01
aI00
aI00
aI01
aI01
aI01
aI01
aI00
aI00
aI00
aI00
aI00
aI00
aI00
aI00
aI00
aI00
aI00
aI00
aI00
aI00
aI01
aI01
aI00
aI00
aI00
aI01
aI00
aI01
aI01
asS'total_steps'
p44
I64
sS'sp'
p45
(lp46
(S'p0'
p47
I0
S'y'
p48
tp49
a(g47
I0
S'x'
p50
tp51
a(g47
I0
g50
tp52
a(g47
I0
g50
tp53
a(g47
I0
g48
tp54
a(S'p1'
p55
I0
g48
tp56
a(g55
I0
g50
tp57
a(g47
I0
g50
tp58
a(g47
I0
S't'
p59
tp60
a(g47
I0
g50
tp61
ag52
ag60
ag61
ag54
ag56
a(g55
I0
g48
tp62
a(g55
I0
g59
tp63
a(g55
I0
g48
tp64
ag63
ag64
ag57
a(g55
I0
g59
tp65
a(g55
I0
g50
tp66
a(g55
I0
g48
tp67
ag63
ag64
ag62
ag63
ag66
ag58
ag53
ag60
ag61
ag54
ag56
ag62
a(g55
I0
g48
tp68
ag63
a(g55
F1.5707963267948966
g59
tp69
a(g55
F1.5707963267948966
g50
tp70
a(S'p2'
p71
F1.5707963267948966
g50
tp72
a(g71
F1.5707963267948966
g50
tp73
ag73
a(g71
F1.5707963267948966
g50
tp74
ag73
ag74
ag74
ag73
a(g71
F1.5707963267948966
g59
tp75
a(g71
F1.5707963267948966
g59
tp76
ag76
ag76
a(g71
F1.5707963267948966
g50
tp77
ag74
ag74
a(g71
F1.5707963267948966
g48
tp78
a(S'p3'
p79
F1.5707963267948966
g48
tp80
a(g79
F1.5707963267948966
g48
tp81
a(g79
F1.5707963267948966
g48
tp82
a(g79
F1.5707963267948966
g59
tp83
a(g79
F1.5707963267948966
g50
tp84
a(g79
F1.5707963267948966
g48
tp85
a(g79
F1.5707963267948966
g50
tp86
a(S'p4'
p87
F1.5707963267948966
g50
tp88
asS's'
p89
(lp90
(g47
I0
g22
tp91
ag49
ag51
ag52
ag53
ag54
ag56
ag57
ag58
ag60
ag61
ag52
ag60
ag61
ag54
ag56
ag62
ag63
ag64
ag63
ag64
ag57
ag65
ag66
ag67
ag63
ag64
ag62
ag63
ag66
ag58
ag53
ag60
ag61
ag54
ag56
ag62
ag68
ag63
ag69
ag70
ag72
ag73
ag73
ag74
ag73
ag74
ag74
ag73
ag75
ag76
ag76
ag76
ag77
ag74
ag74
ag78
ag80
ag81
ag82
ag83
ag84
ag85
ag86
asS'ui'
p92
(lp93
S'hs'
p94
aS'ss'
p95
ag95
ag94
ag95
ag45
aS'hp'
p96
ag45
ag96
ag94
ag96
ag94
ag95
ag45
ag45
ag94
ag96
ag96
ag45
ag94
ag95
ag94
ag45
ag94
ag96
ag94
ag95
ag94
ag45
ag95
ag45
ag95
ag96
ag96
ag94
ag96
ag95
ag96
ag45
ag96
ag45
ag96
ag45
ag45
ag45
ag45
ag95
ag45
ag96
ag45
ag95
ag95
ag94
ag45
ag95
ag96
ag45
ag95
ag45
ag94
ag96
ag45
ag94
ag45
asS'um_before'
p97
(lp98
g94
ag94
ag95
ag45
ag96
ag45
ag94
ag95
ag94
ag96
ag95
ag94
ag96
ag96
ag95
ag45
ag96
ag94
ag96
ag94
ag94
ag94
ag96
ag96
ag96
ag94
ag45
ag96
ag96
ag95
ag45
ag94
ag96
ag96
ag95
ag45
ag95
ag96
ag45
ag96
ag95
ag45
ag45
ag95
ag45
ag95
ag95
ag45
ag94
ag95
ag95
ag95
ag96
ag95
ag95
ag96
ag45
ag95
ag45
ag96
ag96
ag96
ag94
ag45
asS'um_after'
p99
(lp100
g94
ag94
ag95
ag45
ag96
ag45
ag94
ag95
ag94
ag96
ag95
ag94
ag96
ag96
ag45
ag45
ag96
ag94
ag96
ag94
ag94
ag94
ag96
ag96
ag96
ag94
ag45
ag96
ag96
ag95
ag45
ag94
ag96
ag96
ag45
ag45
ag95
ag96
ag45
ag96
ag45
ag45
ag45
ag95
ag45
ag95
ag95
ag45
ag94
ag95
ag95
ag95
ag96
ag95
ag95
ag96
ag45
ag95
ag45
ag96
ag96
ag96
ag94
ag45
asaa(lp101
S'index'
p102
aI27177
aatp103
Rp104
.