ccollections
OrderedDict
p0
((lp1
(lp2
S'combination_dict'
p3
ag0
((lp4
(lp5
S'r_to_g_config'
p6
aS'tr'
p7
aa(lp8
S'num_turns'
p9
aI3
aa(lp10
S'start_direction'
p11
acutils_ms
StartDirection
p12
(I0
tp13
Rp14
aa(lp15
S'assistance_type'
p16
acutils_ms
AssistanceType
p17
(I1
tp18
Rp19
aa(lp20
S'start_mode'
p21
aS't'
p22
aa(lp23
S'ui_given_a_noise'
p24
aF0.5
aa(lp25
S'um_given_ui_noise'
p26
aF0.7
aa(lp27
S'entropy_threshold'
p28
aF0.6
aatp29
Rp30
aa(lp31
S'data'
p32
accollections
defaultdict
p33
(c__builtin__
list
p34
tp35
Rp36
S'a'
p37
(lp38
S'mode_r'
p39
ag39
ag39
aS'move_p'
p40
ag40
aS'mode_l'
p41
ag39
ag39
ag39
ag40
ag40
ag40
ag39
ag41
ag40
ag41
ag41
ag41
ag40
ag41
ag41
ag39
ag39
ag39
ag39
ag39
ag39
ag41
ag39
ag39
ag39
ag40
ag39
ag40
ag39
ag39
ag39
ag41
ag40
ag41
ag39
ag40
ag40
ag39
ag39
ag40
ag41
ag41
ag40
ag41
ag39
ag41
ag41
ag39
ag41
ag41
ag41
ag39
ag39
ag41
ag41
ag40
ag39
ag40
ag41
ag39
ag39
ag39
ag40
ag39
ag39
ag40
ag41
ag40
ag41
ag41
ag40
ag41
ag39
ag40
ag41
ag39
ag39
ag40
ag41
ag41
ag39
ag40
asS'assistance_match_with_ground_truth'
p42
(lp43
I00
aI00
aI01
aI00
aI00
aI00
aI00
aI00
aI01
aI00
aI00
aI01
aI00
aI01
aI00
aI00
aI00
aI01
aI00
aI00
aI00
aI00
aI00
aI00
aI00
aI00
aI00
aI00
aI00
aI00
aI01
aI00
aI01
aI01
aI00
aI00
aI00
aI01
aI00
aI00
aI01
aI00
aI01
aI00
aI01
aI01
aI00
aI01
aI01
aI00
aI00
aI00
aI00
aI00
aI00
aI00
aI00
aI00
aI00
aI00
aI01
aI00
aI01
aI01
aI00
aI00
aI00
aI01
aI00
aI00
aI01
aI01
aI01
aI01
aI00
aI01
aI01
aI00
aI01
aI00
aI00
aI00
aI01
aI00
aI00
aI00
aI01
aI01
asS'total_steps'
p44
I88
sS'sp'
p45
(lp46
(S'p0'
p47
I0
S't'
p48
tp49
ag49
a(g47
I0
S'x'
p50
tp51
a(g47
I0
g50
tp52
a(g47
I0
S'y'
p53
tp54
a(g47
I0
g48
tp55
ag49
ag49
ag51
ag52
ag52
a(S'p1'
p56
I0
g50
tp57
a(g56
I0
g48
tp58
a(g56
I0
g53
tp59
a(g56
I0
g48
tp60
a(g56
I0
g48
tp61
a(g56
I0
g48
tp62
ag59
a(g47
I0
g53
tp63
a(g47
I0
g53
tp64
ag55
a(g47
I0
g48
tp65
ag65
ag49
ag65
ag49
a(g47
I0
g53
tp66
ag55
ag49
ag65
ag51
a(g47
I0
g48
tp67
ag51
ag57
a(g56
I0
g50
tp68
ag68
ag58
ag59
ag63
ag55
ag51
ag52
ag57
ag68
a(g56
I0
g53
tp69
a(S'p2'
p70
I0
g53
tp71
a(g70
I0
g53
tp72
a(g70
I0
g50
tp73
a(S'p3'
p74
I0
g50
tp75
a(g74
I0
g53
tp76
a(g70
I0
g53
tp77
a(g70
I0
g53
tp78
a(g70
I0
g48
tp79
a(g70
I0
g53
tp80
ag78
ag72
ag79
a(g70
I0
g48
tp81
ag80
ag78
ag73
a(g56
I0
g50
tp82
ag69
ag71
ag79
a(g70
I0
g48
tp83
ag81
a(g70
I0
g50
tp84
ag82
ag68
ag69
ag71
ag73
ag75
a(g74
I0
g50
tp85
a(g74
I0
g48
tp86
a(g74
F1.5707963267948966
g48
tp87
a(g74
F1.5707963267948966
g50
tp88
a(g74
F1.5707963267948966
g53
tp89
a(g74
F1.5707963267948966
g48
tp90
ag88
a(g74
F1.5707963267948966
g50
tp91
ag89
ag90
a(g74
F1.5707963267948966
g48
tp92
ag88
ag89
a(S'p4'
p93
F1.5707963267948966
g53
tp94
asS's'
p95
(lp96
(g47
I0
g22
tp97
ag49
ag49
ag51
ag52
ag54
ag55
ag49
ag49
ag51
ag52
ag52
ag57
ag58
ag59
ag60
ag61
ag62
ag59
ag63
ag64
ag55
ag65
ag65
ag49
ag65
ag49
ag66
ag55
ag49
ag65
ag51
ag67
ag51
ag57
ag68
ag68
ag58
ag59
ag63
ag55
ag51
ag52
ag57
ag68
ag69
ag71
ag72
ag73
ag75
ag76
ag77
ag78
ag79
ag80
ag78
ag72
ag79
ag81
ag80
ag78
ag73
ag82
ag69
ag71
ag79
ag83
ag81
ag84
ag82
ag68
ag69
ag71
ag73
ag75
ag85
ag86
ag87
ag88
ag89
ag90
ag88
ag91
ag89
ag90
ag92
ag88
ag89
asS'ui'
p98
(lp99
S'hp'
p100
ag100
ag100
aS'ss'
p101
aS'hs'
p102
ag100
ag45
ag100
ag100
ag45
ag45
ag45
ag102
ag102
ag45
ag100
ag45
ag102
ag101
ag102
ag100
ag100
ag100
ag100
ag100
ag100
ag100
ag100
ag100
ag100
ag100
ag100
ag100
ag45
ag100
ag45
ag102
ag102
ag101
ag102
ag100
ag45
ag102
ag100
ag100
ag45
ag45
ag101
ag45
ag102
ag102
ag102
ag100
ag45
ag102
ag102
ag100
ag100
ag100
ag102
ag102
ag45
ag100
ag45
ag102
ag45
ag100
ag100
ag45
ag45
ag100
ag45
ag45
ag45
ag102
ag102
ag45
ag45
ag100
ag100
ag102
ag100
ag100
ag100
ag102
ag102
ag100
ag45
asS'um_before'
p103
(lp104
g45
ag45
ag100
ag101
ag100
ag100
ag45
ag45
ag100
ag101
ag101
ag45
ag102
ag102
ag100
ag101
ag45
ag102
ag101
ag45
ag100
ag101
ag101
ag45
ag101
ag45
ag102
ag100
ag45
ag101
ag100
ag102
ag100
ag45
ag45
ag45
ag102
ag102
ag101
ag100
ag100
ag101
ag45
ag45
ag100
ag45
ag101
ag102
ag45
ag100
ag101
ag45
ag100
ag102
ag45
ag101
ag100
ag45
ag102
ag45
ag102
ag101
ag100
ag45
ag100
ag101
ag45
ag100
ag101
ag45
ag100
ag45
ag102
ag45
ag101
ag102
ag45
ag100
ag100
ag100
ag100
ag45
ag100
ag100
ag45
ag100
ag100
ag45
asS'um_after'
p105
(lp106
g45
ag45
ag100
ag101
ag100
ag100
ag45
ag45
ag100
ag101
ag101
ag45
ag102
ag102
ag100
ag101
ag45
ag102
ag101
ag45
ag100
ag101
ag101
ag45
ag101
ag45
ag102
ag100
ag45
ag101
ag100
ag102
ag100
ag45
ag45
ag45
ag102
ag102
ag101
ag100
ag100
ag101
ag45
ag45
ag100
ag45
ag101
ag102
ag45
ag100
ag101
ag45
ag100
ag102
ag45
ag101
ag100
ag45
ag102
ag45
ag102
ag101
ag100
ag45
ag100
ag101
ag45
ag100
ag101
ag45
ag100
ag45
ag102
ag45
ag101
ag102
ag45
ag100
ag100
ag100
ag100
ag45
ag100
ag100
ag45
ag100
ag100
ag45
asaa(lp107
S'index'
p108
aI21367
aatp109
Rp110
.