ccollections
OrderedDict
p0
((lp1
(lp2
S'combination_dict'
p3
ag0
((lp4
(lp5
S'r_to_g_config'
p6
aS'bl'
p7
aa(lp8
S'num_turns'
p9
aI2
aa(lp10
S'start_direction'
p11
acutils_ms
StartDirection
p12
(I0
tp13
Rp14
aa(lp15
S'assistance_type'
p16
acutils_ms
AssistanceType
p17
(I1
tp18
Rp19
aa(lp20
S'start_mode'
p21
aS'y'
p22
aa(lp23
S'ui_given_a_noise'
p24
aF0.1
aa(lp25
S'um_given_ui_noise'
p26
aF0.3
aa(lp27
S'entropy_threshold'
p28
aF0.8
aatp29
Rp30
aa(lp31
S'data'
p32
accollections
defaultdict
p33
(c__builtin__
list
p34
tp35
Rp36
S'a'
p37
(lp38
S'mode_l'
p39
aS'move_n'
p40
ag39
aS'mode_r'
p41
aS'move_p'
p42
ag42
ag39
ag40
ag39
ag40
asS'assistance_match_with_ground_truth'
p43
(lp44
I01
aI01
aI00
aI01
aI00
aI01
aI01
aI01
aI01
aI01
asS'total_steps'
p45
I10
sS'sp'
p46
(lp47
(S'p0'
p48
I0
S'x'
p49
tp50
a(S'p1'
p51
I0
g49
tp52
a(g51
I0
S'y'
p53
tp54
a(g51
I0
S't'
p55
tp56
a(g51
I0
g55
tp57
a(g51
F1.5707963267948966
g55
tp58
a(g51
F1.5707963267948966
g53
tp59
a(S'p2'
p60
F1.5707963267948966
g53
tp61
a(g60
F1.5707963267948966
g49
tp62
a(S'p3'
p63
F1.5707963267948966
g49
tp64
asS's'
p65
(lp66
(g48
I0
g22
tp67
ag50
ag52
ag54
ag56
ag57
ag58
ag59
ag61
ag62
asS'ui'
p68
(lp69
g46
aS'ss'
p70
aS'hp'
p71
ag71
ag70
ag46
aS'hs'
p72
ag70
ag72
ag70
asS'um_before'
p73
(lp74
g72
ag70
ag71
ag71
ag70
ag72
ag46
ag70
ag72
ag46
asS'um_after'
p75
(lp76
g72
ag70
ag71
ag71
ag70
ag46
ag72
ag70
ag72
ag70
asaa(lp77
S'index'
p78
aI69681
aatp79
Rp80
.