ccollections
OrderedDict
p0
((lp1
(lp2
S'index'
p3
aI12714
aa(lp4
S'combination_dict'
p5
ag0
((lp6
(lp7
S'r_to_g_config'
p8
aS'br'
p9
aa(lp10
S'num_turns'
p11
aI1
aa(lp12
S'start_direction'
p13
acutils_ms
StartDirection
p14
(I1
tp15
Rp16
aa(lp17
S'assistance_type'
p18
acutils_ms
AssistanceType
p19
(I1
tp20
Rp21
aa(lp22
S'start_mode'
p23
aS't'
p24
aa(lp25
S'ui_given_a_noise'
p26
aF0.3
aa(lp27
S'um_given_ui_noise'
p28
aF0.7
aa(lp29
S'entropy_threshold'
p30
aF0.7
aa(lp31
S'is_assistance'
p32
aI01
aatp33
Rp34
aa(lp35
S'trials'
p36
ag0
((lp37
(lp38
I0
accollections
defaultdict
p39
(c__builtin__
list
p40
tp41
Rp42
S'a'
p43
(lp44
S'mode_l'
p45
aS'mode_r'
p46
aS'move_n'
p47
ag46
ag46
ag46
aS'move_p'
p48
ag46
ag48
asS'assistance_match_with_ground_truth'
p49
(lp50
I00
aI01
aI01
aI00
aI00
aI01
aI01
aI01
aI01
asS'total_steps'
p51
I9
sS'sp'
p52
(S'p2'
p53
F1.5707963267948966
S'x'
p54
tp55
sS's'
p56
(lp57
(S'p0'
p58
I0
g24
tp59
a(g58
I0
g54
tp60
a(g58
I0
S'y'
p61
tp62
a(S'p1'
p63
I0
g61
tp64
a(g63
I0
g61
tp65
ag65
a(g63
I0
S't'
p66
tp67
a(g63
F1.5707963267948966
g66
tp68
a(g63
F1.5707963267948966
g54
tp69
asS'ui'
p70
(lp71
S'ss'
p72
aS'hp'
p73
ag72
aS'hs'
p74
ag72
ag72
ag52
ag73
ag74
asS'um_before'
p75
(lp76
g73
ag73
ag73
ag72
ag72
ag73
ag74
ag74
ag74
asS'um_after'
p77
(lp78
g73
ag73
ag72
ag72
ag72
ag73
ag52
ag73
ag52
asaa(lp79
I1
ag39
(g40
tp80
Rp81
g43
(lp82
g45
ag46
ag47
ag46
ag48
ag45
ag48
ag46
ag48
asg49
(lp83
I00
aI01
aI01
aI01
aI00
aI01
aI01
aI01
aI01
asg51
I9
sg52
g55
sg56
(lp84
(g58
I0
g24
tp85
ag60
ag62
ag64
ag67
a(g63
I0
g54
tp86
a(g63
I0
g66
tp87
ag68
ag69
asg70
(lp88
g72
ag73
ag72
ag72
ag73
ag74
ag52
ag73
ag52
asg75
(lp89
g73
ag52
ag72
ag52
ag73
ag74
ag74
ag74
ag52
asg77
(lp90
g73
ag73
ag72
ag73
ag73
ag74
ag52
ag73
ag52
asaa(lp91
I2
ag39
(g40
tp92
Rp93
g43
(lp94
g45
ag47
ag46
ag48
ag46
ag48
asg49
(lp95
I01
aI01
aI01
aI01
aI01
aI01
asg51
I6
sg52
g55
sg56
(lp96
(g58
I0
g24
tp97
a(g58
I0
g61
tp98
ag64
ag67
ag68
ag69
asg70
(lp99
g72
ag72
ag72
ag52
ag73
ag52
asg75
(lp100
g72
ag73
ag52
ag52
ag73
ag52
asg77
(lp101
g74
ag72
ag73
ag52
ag73
ag52
asaa(lp102
I3
ag39
(g40
tp103
Rp104
g43
(lp105
g45
ag47
ag46
ag48
ag46
ag48
asg49
(lp106
I01
aI01
aI01
aI01
aI01
aI01
asg51
I6
sg52
g55
sg56
(lp107
(g58
I0
g24
tp108
ag98
ag64
ag67
ag68
ag69
asg70
(lp109
g74
ag72
ag73
ag52
ag73
ag52
asg75
(lp110
g72
ag72
ag74
ag52
ag74
ag74
asg77
(lp111
g74
ag72
ag73
ag52
ag73
ag52
asaa(lp112
I4
ag39
(g40
tp113
Rp114
g43
(lp115
g45
ag47
ag46
ag47
ag47
ag46
ag47
ag46
ag47
ag46
ag48
ag46
ag48
asg49
(lp116
I01
aI00
aI01
aI00
aI00
aI01
aI00
aI01
aI01
aI01
aI01
aI01
aI01
asg51
I13
sg52
g55
sg56
(lp117
(g58
I0
g24
tp118
ag98
a(g58
I0
g54
tp119
ag62
a(g58
I0
g61
tp120
ag119
ag62
ag119
ag62
ag64
ag67
ag68
ag69
asg70
(lp121
g74
ag72
ag73
ag72
ag74
ag73
ag52
ag73
ag72
ag73
ag73
ag73
ag52
asg75
(lp122
g74
ag74
ag73
ag52
ag74
ag73
ag74
ag74
ag72
ag74
ag74
ag74
ag52
asg77
(lp123
g74
ag74
ag73
ag52
ag74
ag73
ag74
ag73
ag72
ag73
ag52
ag73
ag52
asaa(lp124
I5
ag39
(g40
tp125
Rp126
g43
(lp127
g45
ag47
ag46
ag48
ag46
ag48
ag46
ag48
asg49
(lp128
I01
aI01
aI01
aI01
aI00
aI01
aI01
aI01
asg51
I8
sg52
g55
sg56
(lp129
(g58
I0
g24
tp130
ag98
ag64
ag67
ag68
a(g63
I0
g66
tp131
ag68
ag69
asg70
(lp132
g74
ag72
ag73
ag52
ag73
ag52
ag74
ag52
asg75
(lp133
g74
ag72
ag74
ag74
ag72
ag74
ag74
ag52
asg77
(lp134
g74
ag72
ag73
ag52
ag72
ag52
ag73
ag52
asaa(lp135
I6
ag39
(g40
tp136
Rp137
g43
(lp138
g45
ag47
ag47
ag46
ag47
ag47
ag46
ag47
ag47
ag46
ag47
ag46
ag46
ag48
ag46
ag48
ag46
ag48
ag45
ag48
asg49
(lp139
I01
aI00
aI00
aI01
aI00
aI00
aI01
aI00
aI00
aI01
aI01
aI00
aI01
aI01
aI00
aI01
aI01
aI00
aI01
aI01
asg51
I20
sg52
g55
sg56
(lp140
(g58
I0
g24
tp141
ag98
ag120
ag119
ag62
ag120
ag119
ag62
ag120
ag119
ag62
ag64
ag65
ag67
ag68
ag131
ag68
ag69
a(g63
F1.5707963267948966
g61
tp142
a(g63
F1.5707963267948966
g54
tp143
asg70
(lp144
g74
ag52
ag72
ag52
ag52
ag74
ag72
ag74
ag52
ag73
ag72
ag74
ag73
ag52
ag72
ag73
ag73
ag73
ag74
ag52
asg75
(lp145
g72
ag52
ag74
ag52
ag52
ag74
ag52
ag52
ag74
ag73
ag72
ag72
ag52
ag52
ag72
ag52
ag73
ag73
ag74
ag74
asg77
(lp146
g74
ag52
ag74
ag73
ag52
ag74
ag73
ag52
ag74
ag73
ag72
ag72
ag73
ag52
ag72
ag52
ag73
ag73
ag74
ag52
asaa(lp147
I7
ag39
(g40
tp148
Rp149
g43
(lp150
g45
ag47
ag47
ag46
ag48
ag46
ag48
asg49
(lp151
I01
aI00
aI01
aI01
aI01
aI01
aI01
asg51
I7
sg52
g55
sg56
(lp152
(g58
I0
g24
tp153
ag98
ag120
ag64
ag67
ag68
ag69
asg70
(lp154
g74
ag52
ag72
ag52
ag52
ag72
ag73
asg75
(lp155
g72
ag52
ag73
ag52
ag52
ag73
ag52
asg77
(lp156
g74
ag52
ag72
ag73
ag52
ag73
ag52
asaa(lp157
I8
ag39
(g40
tp158
Rp159
g43
(lp160
g45
ag47
ag47
ag47
ag46
ag47
ag47
ag46
ag47
ag46
ag48
ag46
ag48
asg49
(lp161
I01
aI00
aI00
aI00
aI01
aI00
aI00
aI01
aI01
aI01
aI01
aI01
aI01
asg51
I13
sg52
g55
sg56
(lp162
(g58
I0
g24
tp163
ag98
ag120
ag120
ag119
ag62
ag120
ag119
ag62
ag64
ag67
ag68
ag69
asg70
(lp164
g74
ag72
ag72
ag74
ag73
ag72
ag52
ag73
ag72
ag52
ag52
ag72
ag73
asg75
(lp165
g74
ag52
ag52
ag74
ag74
ag52
ag74
ag73
ag73
ag52
ag52
ag74
ag74
asg77
(lp166
g74
ag52
ag52
ag74
ag73
ag52
ag74
ag73
ag72
ag73
ag52
ag73
ag52
asaa(lp167
I9
ag39
(g40
tp168
Rp169
g43
(lp170
g45
ag47
ag46
ag46
ag47
ag46
ag48
ag46
ag48
ag45
ag48
asg49
(lp171
I01
aI00
aI00
aI01
aI01
aI01
aI01
aI01
aI00
aI01
aI01
asg51
I11
sg52
g55
sg56
(lp172
(g58
I0
g24
tp173
ag98
ag119
a(g58
I0
g54
tp174
ag62
ag64
ag67
ag68
ag69
ag142
ag143
asg70
(lp175
g74
ag52
ag74
ag73
ag72
ag73
ag52
ag73
ag73
ag52
ag52
asg75
(lp176
g74
ag74
ag72
ag73
ag73
ag73
ag52
ag74
ag73
ag74
ag52
asg77
(lp177
g74
ag74
ag72
ag73
ag72
ag73
ag52
ag73
ag73
ag74
ag52
asaatp178
Rp179
aatp180
Rp181
.