ccollections
OrderedDict
p0
((lp1
(lp2
S'combination_dict'
p3
ag0
((lp4
(lp5
S'r_to_g_config'
p6
aS'tr'
p7
aa(lp8
S'num_turns'
p9
aI3
aa(lp10
S'start_direction'
p11
acutils_ms
StartDirection
p12
(I0
tp13
Rp14
aa(lp15
S'assistance_type'
p16
acutils_ms
AssistanceType
p17
(I0
tp18
Rp19
aa(lp20
S'start_mode'
p21
aS't'
p22
aa(lp23
S'ui_given_a_noise'
p24
aF0.5
aa(lp25
S'um_given_ui_noise'
p26
aF0.3
aa(lp27
S'entropy_threshold'
p28
aF0.9
aatp29
Rp30
aa(lp31
S'data'
p32
accollections
defaultdict
p33
(c__builtin__
list
p34
tp35
Rp36
S'a'
p37
(lp38
S'mode_r'
p39
ag39
aS'move_p'
p40
ag39
ag40
aS'mode_l'
p41
ag40
ag39
ag40
ag41
ag39
ag40
ag41
ag40
ag40
ag40
ag40
ag41
ag40
ag39
ag39
ag41
ag40
ag41
ag41
ag41
ag39
ag39
ag40
ag40
ag39
ag40
ag39
ag39
ag40
ag41
ag41
ag41
ag40
ag41
ag41
ag41
ag41
ag41
ag40
ag41
ag40
ag41
ag39
ag39
ag39
ag39
ag41
ag41
ag40
ag41
ag41
ag39
ag41
ag39
ag40
ag41
ag40
ag41
ag39
ag39
ag39
ag40
ag41
ag41
ag41
ag40
ag41
ag39
ag40
ag41
ag39
ag41
ag40
asS'assistance_match_with_ground_truth'
p42
(lp43
I00
aI01
aI01
aI01
aI01
aI01
aI00
aI01
aI00
aI00
aI01
aI00
aI01
aI00
aI00
aI00
aI00
aI01
aI00
aI00
aI00
aI01
aI00
aI00
aI00
aI00
aI00
aI01
aI00
aI00
aI01
aI01
aI00
aI01
aI00
aI00
aI00
aI01
aI01
aI00
aI00
aI00
aI00
aI01
aI01
aI01
aI00
aI00
aI00
aI00
aI00
aI00
aI00
aI01
aI00
aI00
aI00
aI00
aI00
aI01
aI01
aI00
aI00
aI00
aI00
aI00
aI01
aI00
aI00
aI00
aI01
aI01
aI00
aI01
aI00
aI00
aI00
aI01
aI01
asS'total_steps'
p44
I79
sS'sp'
p45
(lp46
(S'p0'
p47
I0
g22
tp48
a(g47
I0
S'x'
p49
tp50
a(S'p1'
p51
I0
g49
tp52
a(g51
I0
S'y'
p53
tp54
a(S'p2'
p55
I0
g53
tp56
a(g55
I0
g49
tp57
a(g51
I0
g49
tp58
ag54
a(g51
I0
S't'
p59
tp60
a(g51
I0
g49
tp61
ag54
a(g47
I0
g53
tp62
a(g47
I0
g49
tp63
a(g47
I0
g49
tp64
ag64
ag64
a(g47
I0
g53
tp65
ag63
a(g47
I0
g59
tp66
ag66
a(g47
I0
g53
tp67
ag63
ag65
a(g47
I0
g53
tp68
ag68
a(g47
I0
g59
tp69
ag69
ag50
ag64
ag66
ag50
ag52
ag52
ag54
ag60
a(g51
I0
g59
tp70
ag70
a(g51
I0
g53
tp71
ag56
a(g55
I0
g53
tp72
ag72
a(g55
I0
g53
tp73
ag72
ag57
a(S'p3'
p74
I0
g49
tp75
a(g74
I0
g59
tp76
a(g74
I0
g49
tp77
a(g74
I0
g53
tp78
ag78
ag78
ag78
a(g74
I0
g49
tp79
a(g74
I0
g49
tp80
ag76
ag77
ag80
ag78
ag79
ag78
a(g74
I0
g59
tp81
a(g74
F1.5707963267948966
g59
tp82
a(g74
I0
g59
tp83
ag77
ag78
ag78
ag78
ag81
ag77
ag80
a(g74
I0
g49
tp84
ag76
ag82
a(g74
F1.5707963267948966
g49
tp85
a(g74
F1.5707963267948966
g53
tp86
a(g74
F1.5707963267948966
g59
tp87
ag85
a(g74
F1.5707963267948966
g59
tp88
a(g74
F1.5707963267948966
g53
tp89
a(S'p4'
p90
F1.5707963267948966
g53
tp91
asS's'
p92
(lp93
g48
ag48
ag50
ag52
ag54
ag56
ag57
ag58
ag54
ag60
ag61
ag54
ag62
ag63
ag64
ag64
ag64
ag65
ag63
ag66
ag66
ag67
ag63
ag65
ag68
ag68
ag69
ag69
ag50
ag64
ag66
ag50
ag52
ag52
ag54
ag60
ag70
ag70
ag71
ag56
ag72
ag72
ag73
ag72
ag57
ag75
ag76
ag77
ag78
ag78
ag78
ag78
ag79
ag80
ag76
ag77
ag80
ag78
ag79
ag78
ag81
ag82
ag83
ag77
ag78
ag78
ag78
ag81
ag77
ag80
ag84
ag76
ag82
ag85
ag86
ag87
ag85
ag88
ag89
asS'ui'
p94
(lp95
S'hp'
p96
ag96
ag45
ag96
ag45
aS'hs'
p97
aS'ss'
p98
ag96
ag96
ag96
ag96
ag98
ag97
ag98
ag96
ag98
ag96
ag97
ag97
ag96
ag97
ag98
ag97
ag98
ag97
ag96
ag45
ag96
ag97
ag97
ag96
ag45
ag96
ag96
ag98
ag98
ag98
ag97
ag45
ag45
ag45
ag97
ag45
ag97
ag45
ag97
ag45
ag97
ag45
ag45
ag96
ag96
ag98
ag97
ag96
ag97
ag97
ag97
ag96
ag96
ag45
ag97
ag97
ag98
ag96
ag96
ag96
ag98
ag98
ag45
ag97
ag45
ag96
ag96
ag45
ag98
ag97
ag97
ag45
asS'um_before'
p99
(lp100
g98
ag96
ag45
ag96
ag45
ag97
ag98
ag96
ag96
ag96
ag96
ag98
ag97
ag98
ag98
ag98
ag96
ag97
ag97
ag45
ag97
ag97
ag96
ag98
ag98
ag96
ag98
ag96
ag98
ag97
ag96
ag45
ag45
ag96
ag96
ag45
ag45
ag97
ag45
ag45
ag45
ag98
ag45
ag97
ag45
ag97
ag96
ag96
ag45
ag98
ag45
ag97
ag98
ag97
ag96
ag98
ag96
ag97
ag96
ag96
ag45
ag98
ag96
ag96
ag45
ag98
ag96
ag96
ag98
ag45
ag97
ag45
ag96
ag96
ag96
ag96
ag97
ag97
ag45
asS'um_after'
p101
(lp102
Nag96
ag45
ag96
ag45
ag97
ag98
ag96
ag96
ag96
ag96
ag98
ag97
ag98
ag98
ag98
ag96
ag97
ag97
aNag97
ag97
ag96
ag98
ag98
ag96
aNag96
ag98
ag97
ag96
ag45
aNag96
ag96
ag45
ag45
ag97
ag45
ag45
ag45
ag98
ag45
ag97
ag45
ag97
ag96
ag96
aNaNaNag97
ag98
ag97
ag96
ag98
ag96
ag97
ag96
ag96
ag45
ag98
ag96
ag96
aNaNag96
ag96
ag98
ag45
ag97
ag45
ag96
ag96
ag96
ag96
ag97
ag97
ag45
asaa(lp103
S'index'
p104
aI19699
aatp105
Rp106
.