ccollections
OrderedDict
p0
((lp1
(lp2
S'combination_dict'
p3
ag0
((lp4
(lp5
S'r_to_g_config'
p6
aS'tr'
p7
aa(lp8
S'num_turns'
p9
aI3
aa(lp10
S'start_direction'
p11
acutils_ms
StartDirection
p12
(I1
tp13
Rp14
aa(lp15
S'assistance_type'
p16
acutils_ms
AssistanceType
p17
(I2
tp18
Rp19
aa(lp20
S'start_mode'
p21
aS't'
p22
aa(lp23
S'ui_given_a_noise'
p24
aF0.3
aa(lp25
S'um_given_ui_noise'
p26
aF0.7
aa(lp27
S'entropy_threshold'
p28
aF0.7
aatp29
Rp30
aa(lp31
S'data'
p32
accollections
defaultdict
p33
(c__builtin__
list
p34
tp35
Rp36
S'a'
p37
(lp38
S'mode_l'
p39
aS'mode_r'
p40
aS'move_p'
p41
ag41
ag39
ag39
ag39
ag39
ag39
ag41
ag39
ag39
ag41
ag40
ag41
ag39
ag39
ag40
ag41
ag40
ag41
ag40
ag39
ag41
ag40
ag40
ag41
ag40
ag41
ag41
ag41
ag40
ag41
ag40
ag40
ag39
ag41
ag39
ag40
ag41
ag39
ag41
ag40
ag41
ag39
ag40
ag41
ag39
ag41
ag39
ag41
ag39
ag41
ag40
ag41
ag40
ag41
ag39
ag40
ag41
ag39
ag39
ag40
ag41
ag39
ag39
ag41
ag39
ag41
ag39
ag41
ag39
ag41
ag39
ag41
ag39
ag41
ag40
ag41
ag39
ag41
asS'assistance_match_with_ground_truth'
p42
(lp43
I00
aI01
aI00
aI01
aI00
aI00
aI00
aI00
aI01
aI00
aI00
aI01
aI00
aI01
aI01
aI00
aI00
aI01
aI01
aI01
aI01
aI00
aI01
aI00
aI00
aI01
aI00
aI01
aI00
aI00
aI01
aI01
aI00
aI00
aI00
aI01
aI00
aI00
aI01
aI00
aI01
aI01
aI01
aI00
aI00
aI01
aI01
aI01
aI00
aI01
aI00
aI01
aI00
aI01
aI00
aI01
aI00
aI00
aI01
aI00
aI00
aI00
aI01
aI00
aI00
aI01
aI00
aI01
aI00
aI01
aI00
aI01
aI00
aI01
aI00
aI01
aI01
aI01
aI01
aI01
aI01
asS'total_steps'
p44
I81
sS'sp'
p45
(lp46
(S'p0'
p47
I0
S'x'
p48
tp49
a(g47
I0
S'y'
p50
tp51
a(g47
I0
g50
tp52
a(S'p1'
p53
I0
g50
tp54
a(g53
I0
g50
tp55
ag55
a(g53
I0
g50
tp56
ag56
a(g53
I0
g48
tp57
a(g53
I0
g50
tp58
ag56
ag57
a(g47
I0
g48
tp59
ag51
ag54
ag56
a(g53
I0
S't'
p60
tp61
a(g53
I0
g48
tp62
a(S'p2'
p63
I0
g48
tp64
a(g63
I0
g50
tp65
a(S'p3'
p66
I0
g50
tp67
a(g66
I0
g48
tp68
a(g66
I0
g60
tp69
a(g66
I0
g50
tp70
a(g66
I0
g50
tp71
a(g66
I0
g60
tp72
ag70
ag72
a(g66
I0
g60
tp73
ag73
a(g66
F1.5707963267948966
g60
tp74
a(g66
F1.5707963267948966
g48
tp75
a(g63
F1.5707963267948966
g48
tp76
a(g63
F1.5707963267948966
g48
tp77
a(g63
F1.5707963267948966
g60
tp78
a(g63
F1.5707963267948966
g50
tp79
a(g53
F1.5707963267948966
g50
tp80
a(g53
F1.5707963267948966
g60
tp81
a(g53
F1.5707963267948966
g48
tp82
a(g53
F1.5707963267948966
g50
tp83
a(g53
F1.5707963267948966
g48
tp84
a(g63
F1.5707963267948966
g48
tp85
a(g63
F1.5707963267948966
g50
tp86
a(g63
F1.5707963267948966
g60
tp87
a(g63
F1.5707963267948966
g48
tp88
ag86
a(g66
F1.5707963267948966
g50
tp89
a(g66
F1.5707963267948966
g48
tp90
a(g66
F1.5707963267948966
g50
tp91
ag90
ag91
ag90
ag76
ag86
a(g63
F1.5707963267948966
g48
tp92
ag86
ag87
ag88
ag86
ag87
a(g63
F1.5707963267948966
g60
tp93
ag88
ag86
ag87
ag93
ag79
ag87
ag79
ag87
ag79
ag87
ag79
ag80
ag84
ag83
ag84
ag85
ag86
ag89
ag90
a(S'p4'
p94
F1.5707963267948966
g48
tp95
asS's'
p96
(lp97
(g47
I0
g22
tp98
ag49
ag51
ag52
ag54
ag55
ag55
ag56
ag56
ag57
ag58
ag56
ag57
ag59
ag51
ag54
ag56
ag61
ag62
ag64
ag65
ag67
ag68
ag69
ag70
ag71
ag72
ag70
ag72
ag73
ag73
ag74
ag75
ag76
ag77
ag78
ag79
ag80
ag81
ag82
ag83
ag84
ag85
ag86
ag87
ag88
ag86
ag89
ag90
ag91
ag90
ag91
ag90
ag76
ag86
ag92
ag86
ag87
ag88
ag86
ag87
ag93
ag88
ag86
ag87
ag93
ag79
ag87
ag79
ag87
ag79
ag87
ag79
ag80
ag84
ag83
ag84
ag85
ag86
ag89
ag90
asS'ui'
p99
(lp100
S'ss'
p101
aS'hp'
p102
ag45
ag45
ag101
ag45
ag101
aS'hs'
p103
ag103
ag45
ag45
ag101
ag45
ag102
ag45
ag45
ag103
ag102
ag45
ag102
ag45
ag103
ag103
ag45
ag101
ag102
ag45
ag102
ag45
ag102
ag45
ag102
ag45
ag101
ag103
ag103
ag101
ag102
ag102
ag102
ag103
ag45
ag102
ag102
ag101
ag102
ag45
ag103
ag45
ag103
ag45
ag103
ag102
ag102
ag45
ag102
ag102
ag101
ag102
ag102
ag45
ag103
ag102
ag45
ag101
ag45
ag102
ag103
ag45
ag103
ag45
ag103
ag45
ag101
ag45
ag103
ag45
ag102
ag45
ag103
ag45
asS'um_before'
p104
(lp105
g102
ag102
ag101
ag45
ag45
ag45
ag101
ag101
ag103
ag102
ag101
ag103
ag101
ag102
ag45
ag101
ag102
ag102
ag45
ag102
ag45
ag103
ag103
ag103
ag45
ag102
ag103
ag102
ag101
ag101
ag45
ag102
ag101
ag101
ag103
ag103
ag101
ag102
ag102
ag102
ag103
ag45
ag102
ag102
ag102
ag102
ag45
ag103
ag102
ag103
ag102
ag103
ag101
ag102
ag103
ag102
ag102
ag102
ag102
ag102
ag101
ag102
ag102
ag102
ag101
ag103
ag102
ag103
ag102
ag103
ag102
ag103
ag101
ag103
ag102
ag103
ag45
ag102
ag45
ag103
ag45
asS'um_after'
p106
(lp107
g102
ag102
ag101
ag45
ag45
ag45
ag101
ag101
ag103
ag102
ag101
ag103
ag101
ag102
ag45
ag101
ag102
ag102
ag45
ag102
ag45
ag103
ag103
ag103
ag45
ag102
ag103
ag102
ag101
ag101
ag45
ag102
ag101
ag101
ag103
ag103
ag101
ag102
ag102
ag102
ag103
ag45
ag102
ag102
ag102
ag102
ag45
ag103
ag102
ag103
ag102
ag103
ag101
ag102
ag103
ag102
ag102
ag102
ag102
ag102
ag101
ag102
ag102
ag102
ag101
ag103
ag102
ag103
ag102
ag103
ag102
ag103
ag101
ag103
ag102
ag103
ag45
ag102
ag45
ag103
ag45
asaa(lp108
S'index'
p109
aI28372
aatp110
Rp111
.