ccollections
OrderedDict
p0
((lp1
(lp2
S'combination_dict'
p3
ag0
((lp4
(lp5
S'r_to_g_config'
p6
aS'tl'
p7
aa(lp8
S'num_turns'
p9
aI3
aa(lp10
S'start_direction'
p11
acutils_ms
StartDirection
p12
(I1
tp13
Rp14
aa(lp15
S'assistance_type'
p16
acutils_ms
AssistanceType
p17
(I2
tp18
Rp19
aa(lp20
S'start_mode'
p21
aS't'
p22
aa(lp23
S'ui_given_a_noise'
p24
aF0.3
aa(lp25
S'um_given_ui_noise'
p26
aF0.5
aa(lp27
S'entropy_threshold'
p28
aF0.5
aatp29
Rp30
aa(lp31
S'data'
p32
accollections
defaultdict
p33
(c__builtin__
list
p34
tp35
Rp36
S'a'
p37
(lp38
S'mode_l'
p39
ag39
ag39
aS'mode_r'
p40
ag40
ag40
aS'move_p'
p41
ag41
ag41
ag41
ag39
ag41
ag39
ag39
ag40
ag39
ag41
ag40
ag39
ag40
ag41
ag40
ag41
ag41
ag40
ag41
ag40
aS'move_n'
p42
ag39
ag42
ag40
ag39
ag39
ag42
ag40
ag40
ag40
ag39
ag39
ag41
ag39
ag39
ag39
ag42
ag40
ag39
ag39
ag40
ag40
ag40
ag41
ag39
ag40
ag39
ag39
ag40
ag40
ag40
ag41
ag39
ag40
ag42
asS'assistance_match_with_ground_truth'
p43
(lp44
I00
aI00
aI00
aI00
aI00
aI01
aI00
aI00
aI00
aI00
aI01
aI00
aI00
aI00
aI00
aI01
aI01
aI00
aI00
aI01
aI01
aI00
aI00
aI01
aI00
aI01
aI01
aI00
aI01
aI00
aI00
aI00
aI01
aI01
aI00
aI00
aI00
aI00
aI01
aI00
aI00
aI00
aI01
aI01
aI00
aI00
aI00
aI00
aI00
aI01
aI00
aI00
aI00
aI00
aI00
aI00
aI00
aI01
aI01
aI00
aI01
aI01
asS'total_steps'
p45
I62
sS'sp'
p46
(lp47
(S'p0'
p48
I0
S't'
p49
tp50
a(g48
I0
g49
tp51
a(g48
I0
S'x'
p52
tp53
a(g48
I0
g52
tp54
ag54
a(g48
I0
S'y'
p55
tp56
a(g48
I0
g55
tp57
ag57
ag57
a(g48
I0
g49
tp58
a(g48
I0
g55
tp59
ag58
ag50
ag53
a(g48
I0
g49
tp60
ag59
a(S'p1'
p61
I0
g55
tp62
a(g61
I0
g52
tp63
a(g61
I0
g55
tp64
a(g61
I0
g49
tp65
a(g61
F1.5707963267948966
g49
tp66
a(g61
I0
g49
tp67
a(g61
I0
g49
tp68
ag66
ag67
ag66
a(g61
F1.5707963267948966
g52
tp69
a(g61
F1.5707963267948966
g55
tp70
a(g61
F1.5707963267948966
g52
tp71
a(g61
F1.5707963267948966
g49
tp72
a(g61
F1.5707963267948966
g55
tp73
a(g61
F1.5707963267948966
g55
tp74
ag71
a(S'p2'
p75
F1.5707963267948966
g52
tp76
a(g75
F1.5707963267948966
g52
tp77
ag77
a(g75
F1.5707963267948966
g49
tp78
a(g75
F1.5707963267948966
g49
tp79
a(g75
F1.5707963267948966
g55
tp80
a(g61
F1.5707963267948966
g55
tp81
ag74
ag74
ag71
ag76
ag78
ag79
a(g75
F1.5707963267948966
g52
tp82
a(g75
F1.5707963267948966
g52
tp83
ag77
a(g75
F1.5707963267948966
g55
tp84
a(g75
F1.5707963267948966
g49
tp85
ag82
ag78
a(g75
F1.5707963267948966
g49
tp86
ag82
ag77
ag77
ag84
a(S'p3'
p87
F1.5707963267948966
g55
tp88
a(g87
F1.5707963267948966
g49
tp89
a(g87
F1.5707963267948966
g52
tp90
a(S'p4'
p91
F1.5707963267948966
g52
tp92
asS's'
p93
(lp94
(g48
I0
g22
tp95
ag50
ag51
ag53
ag54
ag54
ag56
ag57
ag57
ag57
ag58
ag59
ag58
ag50
ag53
ag60
ag59
ag62
ag63
ag64
ag65
ag66
ag67
ag68
ag66
ag67
ag66
ag69
ag70
ag71
ag72
ag73
ag74
ag71
ag76
ag77
ag77
ag78
ag79
ag80
ag81
ag74
ag74
ag71
ag76
ag78
ag79
ag82
ag83
ag77
ag84
ag85
ag82
ag78
ag86
ag82
ag77
ag77
ag84
ag88
ag89
ag90
asS'ui'
p96
(lp97
g46
ag46
aS'hp'
p98
ag98
ag98
ag98
aS'ss'
p99
ag46
ag46
aS'hs'
p100
ag100
ag98
ag100
ag100
ag98
ag100
ag46
ag98
ag98
ag98
ag46
ag98
ag46
ag46
ag98
ag46
ag98
ag98
ag100
ag99
ag100
ag100
ag100
ag99
ag98
ag100
ag98
ag99
ag100
ag100
ag46
ag100
ag100
ag99
ag100
ag100
ag100
ag100
ag98
ag100
ag99
ag100
ag98
ag46
ag100
ag98
ag98
ag98
ag46
ag100
ag98
ag99
asS'um_before'
p101
(lp102
g46
ag99
ag98
ag99
ag99
ag98
ag99
ag99
ag99
ag98
ag100
ag98
ag46
ag98
ag100
ag100
ag46
ag100
ag98
ag98
ag46
ag99
ag99
ag46
ag99
ag46
ag98
ag98
ag100
ag100
ag100
ag46
ag100
ag99
ag99
ag99
ag100
ag99
ag100
ag99
ag46
ag46
ag100
ag99
ag100
ag99
ag98
ag46
ag99
ag98
ag98
ag98
ag100
ag46
ag98
ag99
ag99
ag98
ag46
ag98
ag98
ag99
asS'um_after'
p103
(lp104
g46
ag99
ag98
ag99
ag99
ag98
ag99
ag99
ag99
ag98
ag100
ag98
ag46
ag98
ag100
ag100
ag46
ag100
ag98
ag98
ag46
ag99
ag99
ag46
ag99
ag46
ag98
ag98
ag100
ag100
ag100
ag46
ag100
ag99
ag99
ag99
ag100
ag99
ag100
ag99
ag46
ag46
ag100
ag99
ag100
ag99
ag98
ag46
ag99
ag98
ag98
ag98
ag100
ag46
ag98
ag99
ag99
ag98
ag46
ag98
ag98
ag99
asaa(lp105
S'index'
p106
aI57108
aatp107
Rp108
.