ccollections
OrderedDict
p0
((lp1
(lp2
S'combination_dict'
p3
ag0
((lp4
(lp5
S'r_to_g_config'
p6
aS'tl'
p7
aa(lp8
S'num_turns'
p9
aI3
aa(lp10
S'start_direction'
p11
acutils_ms
StartDirection
p12
(I0
tp13
Rp14
aa(lp15
S'assistance_type'
p16
acutils_ms
AssistanceType
p17
(I2
tp18
Rp19
aa(lp20
S'start_mode'
p21
aS'y'
p22
aa(lp23
S'ui_given_a_noise'
p24
aF0.5
aa(lp25
S'um_given_ui_noise'
p26
aF0.5
aa(lp27
S'entropy_threshold'
p28
aF0.5
aatp29
Rp30
aa(lp31
S'data'
p32
accollections
defaultdict
p33
(c__builtin__
list
p34
tp35
Rp36
S'a'
p37
(lp38
S'mode_l'
p39
ag39
ag39
ag39
aS'move_n'
p40
aS'mode_r'
p41
aS'move_p'
p42
ag41
ag41
ag41
ag41
ag41
ag39
ag41
ag42
ag39
ag42
ag41
ag42
ag41
ag41
ag41
ag41
ag41
ag39
ag41
ag39
ag42
ag41
ag42
ag39
ag42
ag42
ag41
ag41
ag42
ag41
ag41
ag39
ag41
ag42
ag41
ag41
ag39
ag41
ag42
ag39
ag42
ag39
ag41
ag42
ag39
ag42
ag41
ag39
ag41
ag39
ag42
ag42
ag41
ag39
ag42
ag42
ag42
ag41
ag42
ag39
ag42
ag42
ag41
ag39
ag41
ag42
asS'assistance_match_with_ground_truth'
p43
(lp44
I00
aI00
aI00
aI01
aI01
aI01
aI01
aI00
aI00
aI00
aI00
aI00
aI00
aI01
aI00
aI01
aI01
aI01
aI00
aI00
aI00
aI00
aI00
aI00
aI00
aI00
aI01
aI01
aI01
aI00
aI01
aI00
aI00
aI00
aI01
aI00
aI00
aI00
aI00
aI01
aI01
aI00
aI00
aI00
aI00
aI00
aI01
aI00
aI00
aI01
aI00
aI01
aI01
aI00
aI00
aI00
aI01
aI00
aI00
aI00
aI01
aI00
aI00
aI01
aI00
aI00
aI01
aI00
aI00
aI00
aI00
aI01
aI01
asS'total_steps'
p45
I73
sS'sp'
p46
(lp47
(S'p0'
p48
I0
S'y'
p49
tp50
a(g48
I0
g49
tp51
ag50
a(g48
I0
S'x'
p52
tp53
a(S'p1'
p54
I0
g52
tp55
a(g54
I0
g49
tp56
a(S'p2'
p57
I0
g49
tp58
a(g57
I0
g49
tp59
ag59
a(g57
I0
g49
tp60
ag60
a(g57
I0
g52
tp61
a(g54
I0
g52
tp62
ag56
a(g54
I0
S't'
p63
tp64
a(g54
I0
g49
tp65
ag58
a(g57
I0
g63
tp66
a(g57
I0
g49
tp67
ag60
ag60
ag59
ag59
ag61
ag62
a(g54
I0
g63
tp68
ag65
ag58
ag66
a(g57
I0
g52
tp69
a(g57
I0
g63
tp70
a(g57
I0
g63
tp71
ag67
ag59
ag66
ag67
ag60
ag61
a(g57
I0
g49
tp72
ag66
a(g57
F1.5707963267948966
g63
tp73
a(g57
F1.5707963267948966
g63
tp74
a(g57
F1.5707963267948966
g49
tp75
a(g57
F1.5707963267948966
g63
tp76
a(g57
I0
g63
tp77
ag69
ag70
ag69
ag62
ag56
ag64
ag65
ag58
ag61
ag72
ag61
ag70
ag71
ag67
ag61
ag70
ag71
ag71
ag73
ag77
ag69
ag70
ag71
ag67
ag61
a(S'p3'
p78
I0
g52
tp79
a(g78
I0
g49
tp80
a(S'p4'
p81
I0
g49
tp82
asS's'
p83
(lp84
(g48
I0
g22
tp85
ag50
ag51
ag50
ag53
ag55
ag56
ag58
ag59
ag59
ag60
ag60
ag61
ag62
ag56
ag64
ag65
ag58
ag66
ag67
ag60
ag60
ag59
ag59
ag61
ag62
ag68
ag65
ag58
ag66
ag69
ag70
ag71
ag67
ag59
ag66
ag67
ag60
ag61
ag72
ag66
ag73
ag74
ag75
ag76
ag77
ag69
ag70
ag69
ag62
ag56
ag64
ag65
ag58
ag61
ag72
ag61
ag70
ag71
ag67
ag61
ag70
ag71
ag71
ag73
ag77
ag69
ag70
ag71
ag67
ag61
ag79
ag80
asS'ui'
p86
(lp87
S'ss'
p88
aS'hs'
p89
ag89
ag89
ag88
ag88
ag46
ag88
ag89
aS'hp'
p90
ag89
ag88
ag46
ag90
ag46
ag89
ag46
ag90
ag89
ag90
ag90
ag88
ag90
ag88
ag89
ag90
ag90
ag46
ag90
ag89
ag89
ag89
ag46
ag90
ag90
ag46
ag88
ag89
ag90
ag90
ag46
ag90
ag89
ag89
ag90
ag46
ag89
ag46
ag90
ag90
ag89
ag89
ag46
ag90
ag89
ag89
ag89
ag88
ag46
ag88
ag89
ag88
ag46
ag46
ag88
ag46
ag46
ag88
ag46
ag89
ag89
ag90
ag46
asS'um_before'
p91
(lp92
g88
ag46
ag88
ag89
ag88
ag90
ag46
ag88
ag88
ag46
ag46
ag89
ag46
ag90
ag90
ag89
ag46
ag90
ag89
ag46
ag46
ag88
ag88
ag89
ag46
ag89
ag89
ag46
ag90
ag90
ag89
ag88
ag89
ag88
ag90
ag89
ag46
ag89
ag90
ag90
ag46
ag46
ag89
ag90
ag88
ag90
ag89
ag90
ag46
ag90
ag90
ag89
ag46
ag89
ag90
ag89
ag89
ag88
ag89
ag89
ag89
ag88
ag88
ag46
ag88
ag90
ag89
ag88
ag89
ag89
ag88
ag90
ag46
asS'um_after'
p93
(lp94
g88
ag46
ag88
ag89
ag88
ag90
ag46
ag88
ag88
ag46
ag46
ag89
ag46
ag90
ag90
ag89
ag46
ag90
ag89
ag46
ag46
ag88
ag88
ag89
ag46
ag89
ag89
ag46
ag90
ag90
ag89
ag88
ag89
ag88
ag90
ag89
ag46
ag89
ag90
ag90
ag46
ag46
ag89
ag90
ag88
ag90
ag89
ag90
ag46
ag90
ag90
ag89
ag46
ag89
ag90
ag89
ag89
ag88
ag89
ag89
ag89
ag88
ag88
ag46
ag88
ag90
ag89
ag88
ag89
ag89
ag88
ag90
ag46
asaa(lp95
S'index'
p96
aI52509
aatp97
Rp98
.