ccollections
OrderedDict
p0
((lp1
(lp2
S'combination_dict'
p3
ag0
((lp4
(lp5
S'r_to_g_config'
p6
aS'bl'
p7
aa(lp8
S'num_turns'
p9
aI2
aa(lp10
S'start_direction'
p11
acutils_ms
StartDirection
p12
(I1
tp13
Rp14
aa(lp15
S'assistance_type'
p16
acutils_ms
AssistanceType
p17
(I0
tp18
Rp19
aa(lp20
S'start_mode'
p21
aS't'
p22
aa(lp23
S'ui_given_a_noise'
p24
aF0.7
aa(lp25
S'um_given_ui_noise'
p26
aF0.5
aa(lp27
S'entropy_threshold'
p28
aF0.6
aatp29
Rp30
aa(lp31
S'data'
p32
accollections
defaultdict
p33
(c__builtin__
list
p34
tp35
Rp36
S'a'
p37
(lp38
S'mode_l'
p39
ag39
aS'move_n'
p40
ag40
ag39
aS'mode_r'
p41
ag40
ag41
ag41
ag41
ag39
ag41
ag39
ag39
ag39
ag39
ag41
ag40
ag41
aS'move_p'
p42
ag41
ag39
ag39
ag39
ag40
ag41
ag40
ag39
ag39
ag41
ag41
ag41
ag39
ag40
ag39
ag40
ag41
ag41
ag41
ag40
ag39
ag39
ag41
ag40
ag39
ag39
ag39
ag39
ag40
ag39
ag39
ag39
ag40
ag41
ag41
ag41
ag41
ag39
ag40
ag39
ag40
ag39
ag39
ag39
ag41
ag39
ag39
ag39
ag39
ag40
ag41
ag40
ag40
ag41
ag41
ag40
ag40
ag39
ag40
ag39
ag39
ag39
ag39
ag39
ag40
ag41
ag40
ag39
ag41
ag40
asS'assistance_match_with_ground_truth'
p43
(lp44
I00
aI01
aI00
aI00
aI00
aI01
aI01
aI00
aI00
aI00
aI00
aI00
aI00
aI00
aI00
aI00
aI01
aI01
aI01
aI01
aI00
aI00
aI00
aI01
aI01
aI01
aI00
aI00
aI00
aI00
aI00
aI00
aI01
aI00
aI01
aI00
aI00
aI00
aI01
aI01
aI00
aI00
aI01
aI00
aI00
aI00
aI00
aI01
aI00
aI00
aI00
aI01
aI00
aI00
aI00
aI00
aI00
aI01
aI00
aI01
aI01
aI00
aI00
aI00
aI00
aI00
aI00
aI00
aI01
aI00
aI01
aI00
aI00
aI00
aI01
aI00
aI00
aI01
aI01
aI00
aI00
aI00
aI00
aI01
aI01
aI01
aI00
aI00
aI01
aI01
asS'total_steps'
p45
I90
sS'sp'
p46
(lp47
(S'p0'
p48
I0
S't'
p49
tp50
a(g48
I0
S'y'
p51
tp52
a(g48
I0
g51
tp53
a(g48
I0
g49
tp54
a(g48
I0
S'x'
p55
tp56
a(g48
I0
g51
tp57
a(S'p1'
p58
I0
g51
tp59
a(g58
I0
g51
tp60
ag60
a(g58
I0
g55
tp61
a(g48
I0
g55
tp62
a(g48
I0
g49
tp63
ag50
ag50
ag50
ag56
ag57
ag59
a(g58
I0
g49
tp64
a(g58
F1.5707963267948966
g49
tp65
a(g58
F1.5707963267948966
g51
tp66
a(g58
F1.5707963267948966
g51
tp67
ag67
a(g58
F1.5707963267948966
g55
tp68
a(S'p2'
p69
F1.5707963267948966
g55
tp70
a(g69
F1.5707963267948966
g51
tp71
a(g69
F1.5707963267948966
g49
tp72
a(g69
F1.5707963267948966
g49
tp73
a(g69
F1.5707963267948966
g55
tp74
a(g69
F1.5707963267948966
g55
tp75
a(g69
F1.5707963267948966
g55
tp76
a(g69
F1.5707963267948966
g49
tp77
a(g69
F1.5707963267948966
g51
tp78
a(g58
F1.5707963267948966
g51
tp79
ag68
a(g48
F1.5707963267948966
g55
tp80
a(g48
F1.5707963267948966
g55
tp81
ag81
a(g48
F1.5707963267948966
g51
tp82
a(g58
F1.5707963267948966
g51
tp83
a(g58
F1.5707963267948966
g51
tp84
a(g58
F1.5707963267948966
g49
tp85
a(g58
F1.5707963267948966
g55
tp86
a(g58
F1.5707963267948966
g51
tp87
ag84
ag84
ag67
ag68
ag87
ag67
ag84
ag68
ag80
a(g48
F1.5707963267948966
g55
tp88
ag88
ag81
a(g48
F1.5707963267948966
g49
tp89
a(g48
F1.5707963267948966
g51
tp90
a(g48
F1.5707963267948966
g49
tp91
ag90
ag83
ag67
ag67
ag85
ag66
ag67
ag67
ag67
ag68
ag80
ag82
a(g48
F1.5707963267948966
g51
tp92
a(g48
F1.5707963267948966
g55
tp93
ag81
ag82
ag92
ag91
ag90
ag83
ag67
ag84
ag67
ag67
ag68
ag70
ag71
ag72
ag74
ag71
a(S'p3'
p94
F1.5707963267948966
g51
tp95
asS's'
p96
(lp97
(g48
I0
g22
tp98
ag50
ag52
ag53
ag54
ag56
ag57
ag59
ag60
ag60
ag61
ag62
ag63
ag50
ag50
ag50
ag56
ag57
ag59
ag64
ag65
ag66
ag67
ag67
ag68
ag70
ag71
ag72
ag73
ag74
ag75
ag76
ag77
ag78
ag79
ag68
ag80
ag81
ag81
ag82
ag83
ag84
ag85
ag86
ag87
ag84
ag84
ag67
ag68
ag87
ag67
ag84
ag68
ag80
ag88
ag88
ag81
ag89
ag90
ag91
ag90
ag83
ag67
ag67
ag85
ag66
ag67
ag67
ag67
ag68
ag80
ag82
ag92
ag93
ag81
ag82
ag92
ag91
ag90
ag83
ag67
ag84
ag67
ag67
ag68
ag70
ag71
ag72
ag74
ag71
asS'ui'
p99
(lp100
S'hs'
p101
ag101
aS'ss'
p102
ag102
aS'hp'
p103
ag103
ag101
ag46
ag103
ag102
ag46
ag103
ag102
ag102
ag102
ag103
ag103
ag102
ag103
ag46
ag101
ag102
ag102
ag101
ag102
ag103
ag103
ag103
ag103
ag101
ag102
ag102
ag101
ag101
ag101
ag46
ag102
ag103
ag103
ag102
ag101
ag103
ag103
ag46
ag101
ag46
ag102
ag101
ag103
ag103
ag101
ag101
ag46
ag103
ag46
ag102
ag101
ag101
ag103
ag101
ag102
ag102
ag102
ag103
ag101
ag101
ag102
ag101
ag101
ag103
ag103
ag46
ag102
ag102
ag103
ag102
ag103
ag101
ag46
ag102
ag101
ag102
ag101
ag101
ag102
ag103
ag103
ag103
ag103
ag102
asS'um_before'
p104
(lp105
g102
ag101
ag46
ag103
ag103
ag103
ag102
ag46
ag46
ag101
ag46
ag101
ag102
ag102
ag102
ag103
ag103
ag102
ag103
ag46
ag101
ag102
ag102
ag101
ag102
ag103
ag103
ag46
ag103
ag46
ag102
ag101
ag101
ag46
ag101
ag46
ag102
ag102
ag103
ag102
ag46
ag103
ag103
ag103
ag46
ag46
ag102
ag101
ag103
ag102
ag46
ag101
ag46
ag46
ag46
ag102
ag101
ag101
ag103
ag101
ag102
ag102
ag102
ag103
ag101
ag102
ag102
ag102
ag101
ag46
ag103
ag46
ag101
ag102
ag103
ag46
ag103
ag101
ag102
ag102
ag46
ag102
ag102
ag101
ag102
ag103
ag103
ag103
ag103
ag102
asS'um_after'
p106
(lp107
g102
ag101
ag46
ag103
ag103
ag103
ag102
ag46
ag46
ag101
ag46
ag101
ag102
ag102
ag102
ag103
ag103
ag102
ag103
ag46
ag101
ag102
ag102
ag101
ag102
ag103
ag103
ag46
ag103
ag46
ag102
ag101
ag101
ag46
ag101
ag46
ag102
ag102
ag103
ag102
ag46
ag103
ag103
ag103
ag46
ag46
ag102
ag101
ag103
ag102
ag46
ag101
ag46
ag46
ag46
ag102
ag101
ag101
ag103
ag101
ag102
ag102
ag102
ag103
ag101
ag102
ag102
ag102
ag101
ag46
ag103
ag46
ag101
ag102
ag103
ag46
ag103
ag101
ag102
ag102
ag46
ag102
ag102
ag101
ag102
ag103
ag103
ag103
ag103
ag102
asaa(lp108
S'index'
p109
aI73516
aatp110
Rp111
.