ccollections
OrderedDict
p0
((lp1
(lp2
S'index'
p3
aI11736
aa(lp4
S'combination_dict'
p5
ag0
((lp6
(lp7
S'r_to_g_config'
p8
aS'br'
p9
aa(lp10
S'num_turns'
p11
aI1
aa(lp12
S'start_direction'
p13
acutils_ms
StartDirection
p14
(I3
tp15
Rp16
aa(lp17
S'assistance_type'
p18
acutils_ms
AssistanceType
p19
(I0
tp20
Rp21
aa(lp22
S'start_mode'
p23
aS'y'
p24
aa(lp25
S'ui_given_a_noise'
p26
aF0.3
aa(lp27
S'um_given_ui_noise'
p28
aF0.3
aa(lp29
S'entropy_threshold'
p30
aF0.8
aa(lp31
S'is_assistance'
p32
aI01
aatp33
Rp34
aa(lp35
S'trials'
p36
ag0
((lp37
(lp38
I0
accollections
defaultdict
p39
(c__builtin__
list
p40
tp41
Rp42
S'a'
p43
(lp44
S'mode_l'
p45
aS'move_p'
p46
ag46
ag45
ag46
ag46
ag45
aS'move_n'
p47
asS'assistance_match_with_ground_truth'
p48
(lp49
I01
aI00
aI01
aI01
aI00
aI01
aI01
aI01
asS'total_steps'
p50
I8
sS'sp'
p51
(S'p2'
p52
F1.5707963267948966
S'y'
p53
tp54
sS's'
p55
(lp56
(S'p0'
p57
I0
g24
tp58
a(g57
I0
S'x'
p59
tp60
a(g57
I0
g59
tp61
a(S'p1'
p62
I0
g59
tp63
a(g62
I0
S't'
p64
tp65
ag65
a(g62
F1.5707963267948966
g64
tp66
a(g62
F1.5707963267948966
g53
tp67
asS'ui'
p68
(lp69
S'hs'
p70
aS'ss'
p71
ag51
ag70
ag51
ag51
ag70
ag71
asS'um_before'
p72
(lp73
g70
ag71
ag51
ag70
ag70
ag51
ag70
ag71
asS'um_after'
p74
(lp75
g70
ag71
ag51
ag70
aNag51
ag70
ag71
asaa(lp76
I1
ag39
(g40
tp77
Rp78
g43
(lp79
g45
ag45
ag46
ag46
ag45
ag46
ag45
ag45
ag47
aS'mode_r'
p80
ag47
ag80
ag80
ag47
asg48
(lp81
I00
aI01
aI00
aI01
aI01
aI01
aI00
aI01
aI00
aI01
aI00
aI00
aI01
aI01
asg50
I14
sg51
g54
sg55
(lp82
(g57
I0
g24
tp83
a(g57
I0
g53
tp84
ag60
ag61
ag63
ag65
ag66
ag66
ag67
a(g62
F1.5707963267948966
g59
tp85
a(g62
F1.5707963267948966
g53
tp86
ag85
a(g62
F1.5707963267948966
g59
tp87
ag86
asg68
(lp88
g51
ag70
ag70
ag51
ag70
ag51
ag70
ag70
ag71
aS'hp'
p89
ag70
ag71
ag89
ag71
asg72
(lp90
g51
ag70
ag71
ag51
ag70
ag51
ag71
ag70
ag70
ag89
ag70
ag71
ag89
ag71
asg74
(lp91
g51
ag70
ag71
ag51
ag70
ag51
aNag70
ag70
ag89
ag70
ag71
ag89
ag71
asaa(lp92
I2
ag39
(g40
tp93
Rp94
g43
(lp95
g45
ag46
ag46
ag45
ag46
ag46
ag46
ag46
ag46
ag45
ag47
asg48
(lp96
I01
aI00
aI01
aI01
aI00
aI00
aI00
aI00
aI01
aI01
aI01
asg50
I11
sg51
g54
sg55
(lp97
(g57
I0
g24
tp98
ag60
ag61
ag63
ag65
ag65
ag65
a(g62
I0
g64
tp99
ag99
ag66
ag67
asg68
(lp100
g70
ag71
ag51
ag70
ag51
ag51
ag71
ag51
ag51
ag70
ag71
asg72
(lp101
g70
ag71
ag51
ag70
ag70
ag70
ag71
ag89
ag51
ag70
ag71
asg74
(lp102
g70
ag71
ag51
ag70
aNaNag71
aNag51
ag70
ag71
asaa(lp103
I3
ag39
(g40
tp104
Rp105
g43
(lp106
g45
ag46
ag46
ag45
ag46
ag46
ag45
ag47
ag80
ag80
ag47
ag45
ag80
ag80
ag46
ag46
ag46
ag46
ag46
ag46
ag80
ag47
ag45
ag47
ag45
ag46
ag80
ag80
ag47
ag45
ag46
ag46
ag46
ag80
ag47
ag45
ag46
ag46
ag46
ag80
ag47
asg48
(lp107
I01
aI00
aI01
aI01
aI00
aI01
aI01
aI00
aI00
aI01
aI00
aI00
aI00
aI01
aI00
aI00
aI00
aI00
aI00
aI01
aI01
aI00
aI01
aI00
aI01
aI01
aI00
aI01
aI00
aI01
aI00
aI00
aI01
aI01
aI00
aI01
aI00
aI00
aI01
aI01
aI01
asg50
I41
sg51
g54
sg55
(lp108
(g57
I0
g24
tp109
ag60
ag61
ag63
ag65
ag99
ag66
ag67
ag85
ag85
ag86
a(g57
F1.5707963267948966
g53
tp110
a(g57
F1.5707963267948966
g64
tp111
ag111
a(g57
F1.5707963267948966
g59
tp112
a(g57
F1.5707963267948966
g59
tp113
ag113
ag113
ag113
ag113
a(g62
F1.5707963267948966
g59
tp114
ag86
a(g62
F1.5707963267948966
g64
tp115
ag67
ag110
a(g57
F1.5707963267948966
g59
tp116
ag114
ag87
ag86
ag110
ag116
ag116
ag116
ag114
ag86
ag110
ag116
ag116
ag113
ag114
ag86
asg68
(lp117
g70
ag71
ag51
ag70
ag51
ag51
ag70
ag71
ag89
ag89
ag51
ag70
ag89
ag89
ag71
ag51
ag71
ag71
ag51
ag51
ag89
ag89
ag71
ag71
ag70
ag51
ag71
ag89
ag51
ag70
ag51
ag71
ag51
ag89
ag51
ag70
ag71
ag71
ag51
ag89
ag71
asg72
(lp118
g70
ag71
ag51
ag70
ag71
ag51
ag70
ag70
ag70
ag89
ag51
ag89
ag70
ag89
ag71
ag71
ag71
ag70
ag70
ag51
ag89
ag89
ag70
ag51
ag70
ag51
ag71
ag89
ag51
ag70
ag70
ag70
ag51
ag89
ag51
ag70
ag70
ag71
ag51
ag89
ag71
asg74
(lp119
g70
ag71
ag51
ag70
ag71
ag51
ag70
ag70
aNag89
ag51
ag89
aNag89
ag71
ag71
ag71
aNaNag51
ag89
ag89
ag70
ag51
ag70
ag51
ag71
ag89
ag51
ag70
aNaNag51
ag89
ag51
ag70
aNag71
ag51
ag89
ag71
asaa(lp120
I4
ag39
(g40
tp121
Rp122
g43
(lp123
g45
ag45
ag46
ag45
ag46
ag45
ag47
ag45
ag47
ag80
ag47
ag80
ag47
asg48
(lp124
I00
aI01
aI01
aI01
aI01
aI01
aI00
aI01
aI00
aI01
aI00
aI01
aI01
asg50
I13
sg51
g54
sg55
(lp125
(g57
I0
g24
tp126
ag84
ag60
ag63
ag65
ag66
ag67
ag115
ag67
ag85
ag86
ag85
ag86
asg68
(lp127
g51
ag70
ag51
ag70
ag51
ag70
ag89
ag70
ag70
ag89
ag51
ag89
ag70
asg72
(lp128
g51
ag70
ag51
ag70
ag51
ag70
ag89
ag70
ag70
ag89
ag70
ag89
ag71
asg74
(lp129
g51
ag70
ag51
ag70
ag51
ag70
ag89
ag70
ag70
ag89
ag70
ag89
ag71
asaa(lp130
I5
ag39
(g40
tp131
Rp132
g43
(lp133
g45
ag46
ag45
ag45
ag46
ag45
ag47
ag80
ag80
ag47
ag80
ag80
ag47
ag80
ag47
asg48
(lp134
I01
aI01
aI00
aI01
aI01
aI01
aI00
aI00
aI01
aI00
aI00
aI01
aI00
aI01
aI01
asg50
I15
sg51
g54
sg55
(lp135
(g57
I0
g24
tp136
ag60
ag63
ag63
ag65
ag66
ag67
ag85
ag87
ag86
ag85
a(g62
F1.5707963267948966
g59
tp137
ag86
ag85
ag86
asg68
(lp138
g70
ag51
ag71
ag70
ag51
ag70
ag51
ag89
ag89
ag70
ag89
ag89
ag71
ag89
ag71
asg72
(lp139
g70
ag51
ag71
ag70
ag51
ag70
ag70
ag71
ag89
ag70
ag51
ag89
ag70
ag89
ag71
asg74
(lp140
g70
ag51
aNag70
ag51
ag70
ag70
ag71
ag89
ag70
ag51
ag89
ag70
ag89
ag71
asaa(lp141
I6
ag39
(g40
tp142
Rp143
g43
(lp144
g45
ag45
ag46
ag46
ag45
ag45
ag46
ag45
ag47
ag45
ag47
ag45
ag47
asg48
(lp145
I00
aI01
aI00
aI01
aI00
aI01
aI01
aI01
aI00
aI01
aI00
aI01
aI01
asg50
I13
sg51
g54
sg55
(lp146
(g57
I0
g24
tp147
ag147
ag60
ag61
ag63
a(g62
I0
g59
tp148
ag65
ag66
ag67
ag115
ag67
ag115
ag67
asg68
(lp149
g71
ag70
ag51
ag51
ag51
ag70
ag51
ag70
ag71
ag70
ag89
ag70
ag71
asg72
(lp150
g71
ag70
ag71
ag51
ag51
ag70
ag51
ag70
ag89
ag70
ag89
ag70
ag71
asg74
(lp151
Nag70
ag71
ag51
ag51
ag70
ag51
ag70
ag89
ag70
ag89
ag70
ag71
asaa(lp152
I7
ag39
(g40
tp153
Rp154
g43
(lp155
g45
ag45
ag45
ag46
ag46
ag45
ag46
ag46
ag46
ag46
ag46
ag45
ag80
ag47
ag45
ag47
asg48
(lp156
I00
aI00
aI01
aI00
aI01
aI01
aI00
aI00
aI00
aI00
aI01
aI00
aI01
aI00
aI01
aI01
asg50
I16
sg51
g54
sg55
(lp157
(g57
I0
g24
tp158
ag158
ag84
ag60
ag60
ag63
ag65
ag99
ag99
ag99
ag99
ag66
a(g62
F1.5707963267948966
g59
tp159
ag86
ag115
ag67
asg68
(lp160
g71
ag51
ag70
ag51
ag51
ag70
ag71
ag51
ag71
ag51
ag51
ag71
ag89
ag71
ag70
ag71
asg72
(lp161
g71
ag51
ag70
ag70
ag51
ag70
ag71
ag89
ag71
ag89
ag51
ag89
ag89
ag89
ag70
ag71
asg74
(lp162
Nag51
ag70
aNag51
ag70
ag71
aNag71
aNag51
ag89
ag89
ag89
ag70
ag71
asaa(lp163
I8
ag39
(g40
tp164
Rp165
g43
(lp166
g45
ag46
ag46
ag45
ag80
ag46
ag45
ag45
ag47
ag45
ag46
ag80
ag80
ag47
asg48
(lp167
I01
aI00
aI01
aI00
aI01
aI01
aI00
aI01
aI00
aI01
aI01
aI00
aI01
aI01
asg50
I14
sg51
g54
sg55
(lp168
(g57
I0
g24
tp169
ag60
ag61
ag63
a(g62
I0
g53
tp170
a(g62
I0
g64
tp171
ag66
ag66
ag67
ag110
ag116
ag114
ag137
ag86
asg68
(lp172
g70
ag51
ag51
ag89
ag89
ag51
ag70
ag70
ag71
ag70
ag51
ag71
ag89
ag71
asg72
(lp173
g70
ag71
ag51
ag89
ag89
ag51
ag71
ag70
ag51
ag70
ag51
ag51
ag89
ag71
asg74
(lp174
g70
ag71
ag51
ag89
ag89
ag51
aNag70
ag51
ag70
ag51
ag51
ag89
ag71
asaa(lp175
I9
ag39
(g40
tp176
Rp177
g43
(lp178
g45
ag45
ag46
ag45
ag45
ag46
ag45
ag47
asg48
(lp179
I00
aI01
aI01
aI00
aI01
aI01
aI01
aI01
asg50
I8
sg51
g54
sg55
(lp180
(g57
I0
g24
tp181
ag181
ag60
ag63
ag63
ag65
ag66
ag67
asg68
(lp182
g71
ag70
ag51
ag71
ag70
ag51
ag70
ag71
asg72
(lp183
g71
ag70
ag51
ag71
ag70
ag51
ag70
ag71
asg74
(lp184
Nag70
ag51
aNag70
ag51
ag70
ag71
asaatp185
Rp186
aatp187
Rp188
.