ccollections
OrderedDict
p0
((lp1
(lp2
S'index'
p3
aI6262
aa(lp4
S'combination_dict'
p5
ag0
((lp6
(lp7
S'r_to_g_config'
p8
aS'tl'
p9
aa(lp10
S'num_turns'
p11
aI2
aa(lp12
S'start_direction'
p13
acutils_ms
StartDirection
p14
(I1
tp15
Rp16
aa(lp17
S'assistance_type'
p18
acutils_ms
AssistanceType
p19
(I1
tp20
Rp21
aa(lp22
S'start_mode'
p23
aS't'
p24
aa(lp25
S'ui_given_a_noise'
p26
aF0.1
aa(lp27
S'um_given_ui_noise'
p28
aF0.5
aa(lp29
S'entropy_threshold'
p30
aF0.6
aa(lp31
S'is_assistance'
p32
aI01
aatp33
Rp34
aa(lp35
S'trials'
p36
ag0
((lp37
(lp38
I0
accollections
defaultdict
p39
(c__builtin__
list
p40
tp41
Rp42
S'a'
p43
(lp44
S'mode_l'
p45
aS'move_p'
p46
aS'mode_r'
p47
ag46
ag45
ag46
ag47
aS'move_n'
p48
ag47
ag46
ag45
ag46
asS'assistance_match_with_ground_truth'
p49
(lp50
I01
aI01
aI01
aI00
aI01
aI01
aI01
aI01
aI01
aI00
aI01
aI01
asS'total_steps'
p51
I12
sS'sp'
p52
(S'p3'
p53
F1.5707963267948966
S'y'
p54
tp55
sS's'
p56
(lp57
(S'p0'
p58
I0
g24
tp59
a(g58
I0
g54
tp60
a(S'p1'
p61
I0
g54
tp62
a(g61
I0
S't'
p63
tp64
a(g61
I0
S'x'
p65
tp66
a(g61
I0
g63
tp67
a(g61
F1.5707963267948966
g63
tp68
a(g61
F1.5707963267948966
g65
tp69
a(S'p2'
p70
F1.5707963267948966
g65
tp71
a(g70
F1.5707963267948966
g54
tp72
a(g70
F1.5707963267948966
g63
tp73
a(g70
F1.5707963267948966
g54
tp74
asS'ui'
p75
(lp76
S'hs'
p77
ag52
aS'hp'
p78
ag77
ag77
ag52
ag78
aS'ss'
p79
ag78
ag79
ag77
ag52
asS'um_before'
p80
(lp81
g79
ag52
ag78
ag78
ag52
ag79
ag52
ag79
ag78
ag78
ag79
ag52
asS'um_after'
p82
(lp83
g77
ag52
ag78
ag78
ag77
ag52
ag78
ag79
ag78
ag78
ag77
ag52
asaa(lp84
I1
ag39
(g40
tp85
Rp86
g43
(lp87
g45
ag46
ag47
ag46
ag47
ag48
ag47
ag46
asg49
(lp88
I01
aI01
aI01
aI01
aI01
aI01
aI01
aI01
asg51
I8
sg52
g55
sg56
(lp89
(g58
I0
g24
tp90
ag60
ag62
ag64
ag68
ag69
ag71
ag72
asg75
(lp91
g78
ag52
ag79
ag52
ag78
ag52
ag78
ag77
asg80
(lp92
g78
ag77
ag79
ag77
ag78
ag52
ag79
ag77
asg82
(lp93
g77
ag52
ag78
ag52
ag78
ag79
ag78
ag52
asaa(lp94
I2
ag39
(g40
tp95
Rp96
g43
(lp97
g45
ag46
ag47
ag46
ag47
ag48
ag47
ag46
asg49
(lp98
I01
aI01
aI01
aI01
aI01
aI01
aI01
aI01
asg51
I8
sg52
g55
sg56
(lp99
(g58
I0
g24
tp100
ag60
ag62
ag64
ag68
ag69
ag71
ag72
asg75
(lp101
g77
ag52
ag78
ag52
ag78
ag79
ag78
ag52
asg80
(lp102
g78
ag77
ag52
ag79
ag78
ag79
ag79
ag77
asg82
(lp103
g77
ag52
ag78
ag52
ag78
ag79
ag78
ag52
asaa(lp104
I3
ag39
(g40
tp105
Rp106
g43
(lp107
g45
ag46
ag47
ag46
ag47
ag48
ag47
ag46
ag45
ag46
asg49
(lp108
I01
aI01
aI01
aI01
aI01
aI01
aI01
aI00
aI01
aI01
asg51
I10
sg52
g55
sg56
(lp109
(g58
I0
g24
tp110
ag60
ag62
ag64
ag68
ag69
ag71
ag72
ag73
ag74
asg75
(lp111
g77
ag52
ag78
ag52
ag78
ag79
ag78
ag52
ag77
ag52
asg80
(lp112
g77
ag52
ag78
ag79
ag78
ag79
ag78
ag78
ag77
ag79
asg82
(lp113
g77
ag52
ag78
ag52
ag78
ag79
ag78
ag78
ag77
ag52
asaa(lp114
I4
ag39
(g40
tp115
Rp116
g43
(lp117
g45
ag46
ag47
ag46
ag47
ag48
ag47
ag46
asg49
(lp118
I01
aI01
aI01
aI01
aI01
aI01
aI01
aI01
asg51
I8
sg52
g55
sg56
(lp119
(g58
I0
g24
tp120
ag60
ag62
ag64
ag68
ag69
ag71
ag72
asg75
(lp121
g77
ag52
ag78
ag52
ag78
ag79
ag78
ag52
asg80
(lp122
g78
ag52
ag78
ag52
ag79
ag79
ag78
ag52
asg82
(lp123
g77
ag52
ag78
ag52
ag78
ag79
ag78
ag52
asaa(lp124
I5
ag39
(g40
tp125
Rp126
g43
(lp127
g45
ag46
ag47
ag46
ag47
ag48
ag47
ag46
asg49
(lp128
I01
aI01
aI01
aI01
aI01
aI01
aI01
aI01
asg51
I8
sg52
g55
sg56
(lp129
(g58
I0
g24
tp130
ag60
ag62
ag64
ag68
ag69
ag71
ag72
asg75
(lp131
g77
ag52
ag78
ag52
ag78
ag78
ag78
ag52
asg80
(lp132
g52
ag52
ag52
ag52
ag52
ag52
ag52
ag52
asg82
(lp133
g77
ag52
ag78
ag52
ag78
ag79
ag78
ag52
asaa(lp134
I6
ag39
(g40
tp135
Rp136
g43
(lp137
g45
ag46
ag47
ag46
ag45
ag46
ag47
ag48
ag47
ag46
asg49
(lp138
I01
aI01
aI01
aI00
aI01
aI01
aI01
aI01
aI01
aI01
asg51
I10
sg52
g55
sg56
(lp139
(g58
I0
g24
tp140
ag60
ag62
ag64
ag66
ag67
ag68
ag69
ag71
ag72
asg75
(lp141
g77
ag52
ag78
ag79
ag77
ag52
ag78
ag79
ag78
ag52
asg80
(lp142
g52
ag79
ag78
ag78
ag77
ag52
ag78
ag77
ag78
ag52
asg82
(lp143
g77
ag52
ag78
ag78
ag77
ag52
ag78
ag79
ag78
ag52
asaa(lp144
I7
ag39
(g40
tp145
Rp146
g43
(lp147
g45
ag46
ag47
ag46
ag47
ag48
ag47
ag46
asg49
(lp148
I01
aI01
aI01
aI01
aI01
aI01
aI01
aI01
asg51
I8
sg52
g55
sg56
(lp149
(g58
I0
g24
tp150
ag60
ag62
ag64
ag68
ag69
ag71
ag72
asg75
(lp151
g77
ag52
ag78
ag77
ag78
ag79
ag79
ag52
asg80
(lp152
g77
ag79
ag52
ag77
ag78
ag78
ag79
ag77
asg82
(lp153
g77
ag52
ag78
ag52
ag78
ag79
ag78
ag52
asaa(lp154
I8
ag39
(g40
tp155
Rp156
g43
(lp157
g45
ag46
ag47
ag46
ag45
ag46
ag47
ag48
ag47
ag46
asg49
(lp158
I01
aI01
aI01
aI00
aI01
aI01
aI01
aI01
aI01
aI01
asg51
I10
sg52
g55
sg56
(lp159
(g58
I0
g24
tp160
ag60
ag62
ag64
ag66
ag67
ag68
ag69
ag71
ag72
asg75
(lp161
g77
ag52
ag78
ag78
ag77
ag52
ag78
ag79
ag78
ag52
asg80
(lp162
g79
ag52
ag78
ag78
ag52
ag52
ag78
ag52
ag78
ag79
asg82
(lp163
g77
ag52
ag78
ag78
ag77
ag52
ag78
ag79
ag78
ag52
asaa(lp164
I9
ag39
(g40
tp165
Rp166
g43
(lp167
g45
ag46
ag47
ag46
ag47
ag48
ag47
ag46
asg49
(lp168
I01
aI01
aI01
aI01
aI01
aI01
aI01
aI01
asg51
I8
sg52
g55
sg56
(lp169
(g58
I0
g24
tp170
ag60
ag62
ag64
ag68
ag69
ag71
ag72
asg75
(lp171
g52
ag79
ag78
ag52
ag78
ag79
ag78
ag52
asg80
(lp172
g52
ag79
ag79
ag52
ag78
ag78
ag78
ag52
asg82
(lp173
g77
ag52
ag78
ag52
ag78
ag79
ag78
ag52
asaatp174
Rp175
aatp176
Rp177
.