ccollections
OrderedDict
p0
((lp1
(lp2
S'index'
p3
aI9608
aa(lp4
S'combination_dict'
p5
ag0
((lp6
(lp7
S'r_to_g_config'
p8
aS'bl'
p9
aa(lp10
S'num_turns'
p11
aI2
aa(lp12
S'start_direction'
p13
acutils_ms
StartDirection
p14
(I1
tp15
Rp16
aa(lp17
S'assistance_type'
p18
acutils_ms
AssistanceType
p19
(I0
tp20
Rp21
aa(lp22
S'start_mode'
p23
aS'x'
p24
aa(lp25
S'ui_given_a_noise'
p26
aF0.1
aa(lp27
S'um_given_ui_noise'
p28
aF0.1
aa(lp29
S'entropy_threshold'
p30
aF0.9
aa(lp31
S'is_assistance'
p32
aI01
aatp33
Rp34
aa(lp35
S'trials'
p36
ag0
((lp37
(lp38
I0
accollections
defaultdict
p39
(c__builtin__
list
p40
tp41
Rp42
S'a'
p43
(lp44
S'mode_r'
p45
ag45
aS'move_n'
p46
aS'mode_l'
p47
ag46
ag47
ag46
ag47
ag47
aS'move_p'
p48
ag47
ag46
asS'assistance_match_with_ground_truth'
p49
(lp50
I00
aI01
aI00
aI01
aI01
aI01
aI01
aI00
aI01
aI01
aI01
aI01
asS'total_steps'
p51
I12
sS'sp'
p52
(S'p3'
p53
F1.5707963267948966
S'y'
p54
tp55
sS's'
p56
(lp57
(S'p0'
p58
I0
g24
tp59
a(g58
I0
S'x'
p60
tp61
a(g58
I0
g54
tp62
a(g58
I0
S't'
p63
tp64
a(g58
I0
g54
tp65
a(S'p1'
p66
I0
g54
tp67
a(g66
I0
g60
tp68
a(S'p2'
p69
I0
g60
tp70
ag70
a(g69
I0
g63
tp71
a(g69
F1.5707963267948966
g63
tp72
a(g69
F1.5707963267948966
g54
tp73
asS'ui'
p74
(lp75
S'hp'
p76
ag76
aS'hs'
p77
ag77
aS'ss'
p78
ag77
ag78
ag78
ag77
ag52
ag77
ag78
asS'um_before'
p79
(lp80
g52
ag76
ag76
ag77
ag78
ag77
ag78
ag78
ag77
ag52
ag77
ag78
asS'um_after'
p81
(lp82
g52
ag76
ag76
ag77
ag78
ag77
ag78
aNag77
ag52
ag77
ag78
asaa(lp83
I1
ag39
(g40
tp84
Rp85
g43
(lp86
g45
ag46
ag47
ag46
ag47
ag48
ag47
ag46
ag46
asg49
(lp87
I01
aI01
aI01
aI01
aI01
aI01
aI01
aI00
aI01
asg51
I9
sg52
g55
sg56
(lp88
(g58
I0
g24
tp89
ag62
ag67
ag68
ag70
ag71
ag72
ag73
ag73
asg74
(lp90
g76
ag78
ag77
ag78
ag77
ag52
ag77
ag78
ag78
asg79
(lp91
g76
ag78
ag77
ag78
ag77
ag52
ag77
ag52
ag78
asg81
(lp92
g76
ag78
ag77
ag78
ag77
ag52
ag77
aNag78
asaa(lp93
I2
ag39
(g40
tp94
Rp95
g43
(lp96
g45
ag46
ag47
ag46
ag47
ag48
ag47
ag46
asg49
(lp97
I01
aI01
aI01
aI01
aI01
aI01
aI01
aI01
asg51
I8
sg52
g55
sg56
(lp98
(g58
I0
g24
tp99
ag62
ag67
ag68
ag70
ag71
ag72
ag73
asg74
(lp100
g76
ag78
ag77
ag78
ag77
ag52
ag77
ag78
asg79
(lp101
g76
ag78
ag77
ag78
ag77
ag52
ag77
ag78
asg81
(lp102
g76
ag78
ag77
ag78
ag77
ag52
ag77
ag78
asaa(lp103
I3
ag39
(g40
tp104
Rp105
g43
(lp106
g45
ag46
ag47
ag45
ag46
ag47
ag47
ag48
ag47
ag46
asg49
(lp107
I01
aI01
aI00
aI01
aI01
aI00
aI01
aI01
aI01
aI01
asg51
I10
sg52
g55
sg56
(lp108
(g58
I0
g24
tp109
ag62
ag67
a(g66
I0
g63
tp110
a(g66
I0
g60
tp111
ag70
ag70
ag71
ag72
ag73
asg74
(lp112
g76
ag78
ag77
ag52
ag78
ag78
ag77
ag77
ag77
ag78
asg79
(lp113
g76
ag78
ag76
ag76
ag78
ag78
ag77
ag52
ag77
ag78
asg81
(lp114
g76
ag78
ag76
ag76
ag78
aNag77
ag52
ag77
ag78
asaa(lp115
I4
ag39
(g40
tp116
Rp117
g43
(lp118
g45
ag46
ag45
ag46
ag47
ag46
ag47
ag48
ag47
ag46
asg49
(lp119
I01
aI00
aI01
aI01
aI01
aI01
aI01
aI01
aI01
aI01
asg51
I10
sg52
g55
sg56
(lp120
(g58
I0
g24
tp121
ag62
a(g58
I0
g60
tp122
ag62
ag67
ag68
ag70
ag71
ag72
ag73
asg74
(lp123
g76
ag78
ag76
ag78
ag77
ag78
ag77
ag52
ag77
ag78
asg79
(lp124
g76
ag77
ag76
ag78
ag77
ag78
ag77
ag52
ag77
ag78
asg81
(lp125
g76
ag77
ag76
ag78
ag77
ag78
ag77
ag52
ag77
ag78
asaa(lp126
I5
ag39
(g40
tp127
Rp128
g43
(lp129
g45
ag46
ag47
ag45
ag46
ag47
ag48
ag47
ag46
asg49
(lp130
I01
aI01
aI00
aI01
aI01
aI01
aI01
aI01
aI01
asg51
I9
sg52
g55
sg56
(lp131
(g58
I0
g24
tp132
ag62
ag67
ag110
ag111
ag70
ag71
ag72
ag73
asg74
(lp133
g76
ag78
ag76
ag76
ag78
ag77
ag52
ag77
ag78
asg79
(lp134
g76
ag78
ag76
ag76
ag78
ag77
ag52
ag77
ag78
asg81
(lp135
g76
ag78
ag76
ag76
ag78
ag77
ag52
ag77
ag78
asaa(lp136
I6
ag39
(g40
tp137
Rp138
g43
(lp139
g45
ag46
ag45
ag46
ag47
ag46
ag47
ag48
ag47
ag46
asg49
(lp140
I01
aI00
aI01
aI01
aI01
aI01
aI01
aI01
aI01
aI01
asg51
I10
sg52
g55
sg56
(lp141
(g58
I0
g24
tp142
ag62
ag122
ag62
ag67
ag68
ag70
ag71
ag72
ag73
asg74
(lp143
g76
ag78
ag76
ag78
ag77
ag78
ag77
ag52
ag77
ag78
asg79
(lp144
g76
ag77
ag76
ag78
ag77
ag78
ag77
ag52
ag77
ag78
asg81
(lp145
g76
ag77
ag76
ag78
ag77
ag78
ag77
ag52
ag77
ag78
asaa(lp146
I7
ag39
(g40
tp147
Rp148
g43
(lp149
g45
ag46
ag47
ag46
ag47
ag48
ag47
ag46
asg49
(lp150
I01
aI01
aI01
aI01
aI01
aI01
aI01
aI01
asg51
I8
sg52
g55
sg56
(lp151
(g58
I0
g24
tp152
ag62
ag67
ag68
ag70
ag71
ag72
ag73
asg74
(lp153
g76
ag78
ag77
ag78
ag77
ag52
ag77
ag78
asg79
(lp154
g76
ag78
ag77
ag78
ag77
ag52
ag77
ag78
asg81
(lp155
g76
ag78
ag77
ag78
ag77
ag52
ag77
ag78
asaa(lp156
I8
ag39
(g40
tp157
Rp158
g43
(lp159
g45
ag46
ag47
ag46
ag47
ag48
ag47
ag45
ag48
ag47
ag46
asg49
(lp160
I01
aI01
aI01
aI01
aI01
aI00
aI00
aI01
aI01
aI01
aI01
asg51
I11
sg52
g55
sg56
(lp161
(g58
I0
g24
tp162
ag62
ag67
ag68
ag70
ag71
a(g69
I0
g60
tp163
a(g69
I0
g54
tp164
a(g69
I0
g63
tp165
ag72
ag73
asg74
(lp166
g76
ag78
ag77
ag78
ag77
ag76
ag76
ag76
ag52
ag77
ag78
asg79
(lp167
g76
ag78
ag77
ag78
ag77
ag76
ag76
ag76
ag52
ag77
ag78
asg81
(lp168
g76
ag78
ag77
ag78
ag77
ag76
ag76
ag76
ag52
ag77
ag78
asaa(lp169
I9
ag39
(g40
tp170
Rp171
g43
(lp172
g45
ag46
ag47
ag46
ag47
ag48
ag47
ag46
asg49
(lp173
I01
aI01
aI01
aI01
aI01
aI01
aI01
aI01
asg51
I8
sg52
g55
sg56
(lp174
(g58
I0
g24
tp175
ag62
ag67
ag68
ag70
ag71
ag72
ag73
asg74
(lp176
g76
ag78
ag77
ag78
ag77
ag52
ag77
ag78
asg79
(lp177
g76
ag78
ag77
ag78
ag77
ag52
ag77
ag78
asg81
(lp178
g76
ag78
ag77
ag78
ag77
ag52
ag77
ag78
asaatp179
Rp180
aatp181
Rp182
.