ccollections
OrderedDict
p0
((lp1
(lp2
S'index'
p3
aI11478
aa(lp4
S'combination_dict'
p5
ag0
((lp6
(lp7
S'r_to_g_config'
p8
aS'bl'
p9
aa(lp10
S'num_turns'
p11
aI3
aa(lp12
S'start_direction'
p13
acutils_ms
StartDirection
p14
(I1
tp15
Rp16
aa(lp17
S'assistance_type'
p18
acutils_ms
AssistanceType
p19
(I1
tp20
Rp21
aa(lp22
S'start_mode'
p23
aS't'
p24
aa(lp25
S'ui_given_a_noise'
p26
aF0.5
aa(lp27
S'um_given_ui_noise'
p28
aF0.7
aa(lp29
S'entropy_threshold'
p30
aF0.9
aa(lp31
S'is_assistance'
p32
aI01
aatp33
Rp34
aa(lp35
S'trials'
p36
ag0
((lp37
(lp38
I0
accollections
defaultdict
p39
(c__builtin__
list
p40
tp41
Rp42
S'a'
p43
(lp44
S'mode_l'
p45
aS'move_n'
p46
ag45
ag46
aS'mode_r'
p47
ag46
ag47
aS'move_p'
p48
ag47
ag46
asS'assistance_match_with_ground_truth'
p49
(lp50
I01
aI01
aI01
aI01
aI01
aI01
aI01
aI01
aI01
aI01
asS'total_steps'
p51
I10
sS'sp'
p52
(S'p4'
p53
F1.5707963267948966
S'x'
p54
tp55
sS's'
p56
(lp57
(S'p0'
p58
I0
g24
tp59
a(g58
I0
S'y'
p60
tp61
a(S'p1'
p62
I0
g60
tp63
a(g62
I0
g54
tp64
a(S'p2'
p65
I0
g54
tp66
a(g65
I0
g60
tp67
a(S'p3'
p68
I0
g60
tp69
a(g68
I0
S't'
p70
tp71
a(g68
F1.5707963267948966
g70
tp72
a(g68
F1.5707963267948966
g54
tp73
asS'ui'
p74
(lp75
S'ss'
p76
ag76
aS'hp'
p77
ag76
ag77
ag76
ag77
ag52
ag77
ag76
asS'um_before'
p78
(lp79
S'hs'
p80
ag77
ag77
ag76
ag80
ag80
ag77
ag80
ag77
ag76
asS'um_after'
p81
(lp82
g80
ag76
ag80
ag76
ag77
ag76
ag77
ag52
ag77
ag76
asaa(lp83
I1
ag39
(g40
tp84
Rp85
g43
(lp86
g45
ag46
ag45
ag45
ag45
ag46
ag47
ag47
ag47
ag47
ag46
ag47
ag47
ag48
ag47
ag46
asg49
(lp87
I01
aI01
aI00
aI00
aI01
aI01
aI00
aI00
aI00
aI01
aI01
aI00
aI01
aI01
aI01
aI01
asg51
I16
sg52
g55
sg56
(lp88
(g58
I0
g24
tp89
ag61
ag63
a(g62
I0
g60
tp90
ag90
ag64
ag66
a(g65
I0
g54
tp91
a(g65
I0
g54
tp92
ag91
ag67
ag69
a(g68
I0
g60
tp93
ag71
ag72
ag73
asg74
(lp94
g80
ag76
ag80
ag52
ag80
ag76
ag76
ag80
ag77
ag77
ag76
ag76
ag77
ag52
ag52
ag76
asg78
(lp95
g52
ag76
ag76
ag76
ag80
ag77
ag76
ag52
ag76
ag77
ag77
ag76
ag77
ag80
ag80
ag76
asg81
(lp96
g80
ag76
ag76
ag76
ag80
ag76
ag76
ag52
ag76
ag77
ag76
ag76
ag77
ag52
ag77
ag76
asaa(lp97
I2
ag39
(g40
tp98
Rp99
g43
(lp100
g45
ag46
ag45
ag46
ag47
ag46
ag47
ag47
ag47
ag48
ag47
ag47
ag48
ag47
ag47
ag48
ag47
ag46
asg49
(lp101
I01
aI01
aI01
aI01
aI01
aI01
aI00
aI00
aI01
aI01
aI00
aI00
aI01
aI00
aI00
aI01
aI01
aI01
asg51
I18
sg52
g55
sg56
(lp102
(g58
I0
g24
tp103
ag61
ag63
ag64
ag66
ag67
ag69
a(g68
I0
g60
tp104
ag93
ag71
ag72
a(g68
F1.5707963267948966
g70
tp105
a(g68
I0
g70
tp106
ag72
ag105
ag106
ag72
ag73
asg74
(lp107
g77
ag76
ag80
ag76
ag77
ag76
ag76
ag77
ag77
ag52
ag52
ag77
ag76
ag76
ag77
ag52
ag77
ag76
asg78
(lp108
g77
ag80
ag80
ag52
ag80
ag76
ag52
ag76
ag80
ag76
ag52
ag76
ag76
ag52
ag76
ag52
ag77
ag76
asg81
(lp109
g80
ag76
ag80
ag76
ag77
ag76
ag52
ag76
ag77
ag52
ag52
ag76
ag52
ag52
ag76
ag52
ag77
ag76
asaa(lp110
I3
ag39
(g40
tp111
Rp112
g43
(lp113
g45
ag46
ag45
ag46
ag47
ag46
ag47
ag48
ag47
ag48
ag47
ag46
asg49
(lp114
I01
aI01
aI01
aI01
aI01
aI01
aI01
aI01
aI00
aI01
aI01
aI01
asg51
I12
sg52
g55
sg56
(lp115
(g58
I0
g24
tp116
ag61
ag63
ag64
ag66
ag67
ag69
ag71
ag72
ag106
ag72
ag73
asg74
(lp117
g76
ag77
ag80
ag76
ag80
ag76
ag52
ag52
ag77
ag52
ag77
ag76
asg78
(lp118
g80
ag77
ag80
ag77
ag80
ag76
ag80
ag52
ag76
ag52
ag77
ag76
asg81
(lp119
g80
ag76
ag80
ag76
ag77
ag76
ag77
ag52
ag76
ag52
ag77
ag76
asaa(lp120
I4
ag39
(g40
tp121
Rp122
g43
(lp123
g45
ag46
ag45
ag46
ag47
ag46
ag47
ag47
ag48
ag47
ag46
asg49
(lp124
I01
aI01
aI01
aI01
aI01
aI01
aI00
aI01
aI01
aI01
aI01
asg51
I11
sg52
g55
sg56
(lp125
(g58
I0
g24
tp126
ag61
ag63
ag64
ag66
ag67
ag69
ag93
ag71
ag72
ag73
asg74
(lp127
g80
ag76
ag80
ag76
ag77
ag76
ag76
ag77
ag52
ag77
ag76
asg78
(lp128
g80
ag76
ag52
ag76
ag77
ag80
ag76
ag77
ag52
ag80
ag80
asg81
(lp129
g80
ag76
ag80
ag76
ag77
ag76
ag76
ag77
ag52
ag77
ag76
asaa(lp130
I5
ag39
(g40
tp131
Rp132
g43
(lp133
g45
ag46
ag45
ag46
ag47
ag46
ag47
ag47
ag47
ag48
ag47
ag46
asg49
(lp134
I01
aI01
aI01
aI01
aI01
aI01
aI00
aI00
aI01
aI01
aI01
aI01
asg51
I12
sg52
g55
sg56
(lp135
(g58
I0
g24
tp136
ag61
ag63
ag64
ag66
ag67
ag69
ag104
ag93
ag71
ag72
ag73
asg74
(lp137
g80
ag76
ag77
ag76
ag77
ag76
ag52
ag52
ag76
ag52
ag76
ag76
asg78
(lp138
g80
ag77
ag80
ag76
ag80
ag80
ag52
ag76
ag77
ag76
ag77
ag77
asg81
(lp139
g80
ag76
ag80
ag76
ag77
ag76
ag52
ag76
ag77
ag52
ag77
ag76
asaa(lp140
I6
ag39
(g40
tp141
Rp142
g43
(lp143
g45
ag46
ag45
ag45
ag46
ag47
ag46
ag47
ag48
ag47
ag48
ag47
ag46
asg49
(lp144
I01
aI01
aI00
aI01
aI01
aI01
aI01
aI01
aI01
aI00
aI01
aI01
aI01
asg51
I13
sg52
g55
sg56
(lp145
(g58
I0
g24
tp146
ag61
ag63
ag90
ag64
ag66
ag67
ag69
ag71
ag72
ag106
ag72
ag73
asg74
(lp147
g80
ag77
ag52
ag52
ag76
ag77
ag76
ag77
ag52
ag52
ag52
ag77
ag76
asg78
(lp148
g77
ag76
ag76
ag77
ag76
ag77
ag76
ag80
ag52
ag76
ag76
ag77
ag76
asg81
(lp149
g80
ag76
ag76
ag80
ag76
ag77
ag76
ag77
ag52
ag76
ag52
ag77
ag76
asaa(lp150
I7
ag39
(g40
tp151
Rp152
g43
(lp153
g45
ag46
ag45
ag46
ag47
ag46
ag47
ag48
ag47
ag46
asg49
(lp154
I01
aI01
aI01
aI01
aI01
aI01
aI01
aI01
aI01
aI01
asg51
I10
sg52
g55
sg56
(lp155
(g58
I0
g24
tp156
ag61
ag63
ag64
ag66
ag67
ag69
ag71
ag72
ag73
asg74
(lp157
g80
ag76
ag80
ag77
ag77
ag76
ag77
ag52
ag80
ag76
asg78
(lp158
g80
ag77
ag77
ag80
ag77
ag80
ag77
ag76
ag80
ag76
asg81
(lp159
g80
ag76
ag80
ag76
ag77
ag76
ag77
ag52
ag77
ag76
asaa(lp160
I8
ag39
(g40
tp161
Rp162
g43
(lp163
g45
ag46
ag45
ag46
ag47
ag46
ag47
ag48
ag47
ag46
asg49
(lp164
I01
aI01
aI01
aI01
aI01
aI01
aI01
aI01
aI01
aI01
asg51
I10
sg52
g55
sg56
(lp165
(g58
I0
g24
tp166
ag61
ag63
ag64
ag66
ag67
ag69
ag71
ag72
ag73
asg74
(lp167
g80
ag76
ag80
ag76
ag76
ag76
ag77
ag52
ag76
ag76
asg78
(lp168
g52
ag76
ag80
ag76
ag80
ag52
ag77
ag52
ag80
ag77
asg81
(lp169
g80
ag76
ag80
ag76
ag77
ag76
ag77
ag52
ag77
ag76
asaa(lp170
I9
ag39
(g40
tp171
Rp172
g43
(lp173
g45
ag46
ag45
ag46
ag47
ag46
ag47
ag48
ag47
ag46
asg49
(lp174
I01
aI01
aI01
aI01
aI01
aI01
aI01
aI01
aI01
aI01
asg51
I10
sg52
g55
sg56
(lp175
(g58
I0
g24
tp176
ag61
ag63
ag64
ag66
ag67
ag69
ag71
ag72
ag73
asg74
(lp177
g80
ag76
ag80
ag76
ag77
ag76
ag77
ag52
ag77
ag76
asg78
(lp178
g80
ag76
ag52
ag76
ag77
ag76
ag77
ag52
ag77
ag77
asg81
(lp179
g80
ag76
ag80
ag76
ag77
ag76
ag77
ag52
ag77
ag76
asaatp180
Rp181
aatp182
Rp183
.