ccollections
OrderedDict
p0
((lp1
(lp2
S'combination_dict'
p3
ag0
((lp4
(lp5
S'r_to_g_config'
p6
aS'tr'
p7
aa(lp8
S'num_turns'
p9
aI2
aa(lp10
S'start_direction'
p11
acutils_ms
StartDirection
p12
(I1
tp13
Rp14
aa(lp15
S'assistance_type'
p16
acutils_ms
AssistanceType
p17
(I2
tp18
Rp19
aa(lp20
S'start_mode'
p21
aS'x'
p22
aa(lp23
S'ui_given_a_noise'
p24
aF0.3
aa(lp25
S'um_given_ui_noise'
p26
aF0.7
aa(lp27
S'entropy_threshold'
p28
aF0.8
aatp29
Rp30
aa(lp31
S'data'
p32
accollections
defaultdict
p33
(c__builtin__
list
p34
tp35
Rp36
S'a'
p37
(lp38
S'mode_r'
p39
ag39
aS'move_p'
p40
ag40
aS'mode_l'
p41
ag40
ag41
ag40
ag39
ag41
ag40
ag41
ag40
ag40
ag41
ag39
asS'assistance_match_with_ground_truth'
p42
(lp43
I00
aI01
aI00
aI00
aI01
aI01
aI01
aI00
aI00
aI01
aI01
aI01
aI00
aI00
aI00
aI00
asS'total_steps'
p44
I16
sS'sp'
p45
(lp46
(S'p0'
p47
I0
S'x'
p48
tp49
a(g47
I0
S'y'
p50
tp51
a(g47
I0
g50
tp52
a(g47
I0
S't'
p53
tp54
a(g47
I0
g50
tp55
a(S'p1'
p56
I0
g50
tp57
a(g56
I0
g48
tp58
a(g56
I0
g53
tp59
a(g56
I0
g50
tp60
ag58
a(S'p2'
p61
I0
g48
tp62
a(g61
I0
g53
tp63
a(g61
I0
g53
tp64
a(g61
I0
g48
tp65
a(g61
I0
g50
tp66
a(S'p3'
p67
I0
g50
tp68
asS's'
p69
(lp70
(g47
I0
g22
tp71
ag49
ag51
ag52
ag54
ag55
ag57
ag58
ag59
ag60
ag58
ag62
ag63
ag64
ag65
ag66
asS'ui'
p72
(lp73
S'hp'
p74
ag74
aS'ss'
p75
aS'hs'
p76
ag75
ag45
ag76
ag76
ag75
ag76
ag45
ag76
ag45
ag76
ag74
ag45
asS'um_before'
p77
(lp78
g45
ag74
ag75
ag74
ag76
ag45
ag76
ag76
ag76
ag76
ag45
ag76
ag75
ag74
ag74
ag45
asS'um_after'
p79
(lp80
g45
ag74
ag75
ag74
ag76
ag45
ag76
ag76
ag76
ag76
ag45
ag76
ag75
ag74
ag74
ag45
asaa(lp81
S'index'
p82
aI17984
aatp83
Rp84
.