ccollections
OrderedDict
p0
((lp1
(lp2
S'index'
p3
aI7181
aa(lp4
S'combination_dict'
p5
ag0
((lp6
(lp7
S'r_to_g_config'
p8
aS'tl'
p9
aa(lp10
S'num_turns'
p11
aI3
aa(lp12
S'start_direction'
p13
acutils_ms
StartDirection
p14
(I1
tp15
Rp16
aa(lp17
S'assistance_type'
p18
acutils_ms
AssistanceType
p19
(I0
tp20
Rp21
aa(lp22
S'start_mode'
p23
aS'x'
p24
aa(lp25
S'ui_given_a_noise'
p26
aF0.7
aa(lp27
S'um_given_ui_noise'
p28
aF0.5
aa(lp29
S'entropy_threshold'
p30
aF0.5
aa(lp31
S'is_assistance'
p32
aI00
aatp33
Rp34
aa(lp35
S'trials'
p36
ag0
((lp37
(lp38
I0
accollections
defaultdict
p39
(c__builtin__
list
p40
tp41
Rp42
S'a'
p43
(lp44
S'mode_r'
p45
aS'move_p'
p46
aS'mode_l'
p47
ag46
ag45
ag46
ag45
ag46
ag45
ag46
ag47
ag45
ag46
ag47
ag45
aS'move_n'
p48
ag45
ag45
ag46
ag47
ag47
ag46
ag47
ag47
ag45
ag45
ag47
ag45
ag45
ag48
ag45
ag46
ag47
ag46
ag45
ag47
ag47
ag45
ag45
ag45
ag46
ag45
ag45
ag45
ag45
ag45
ag46
ag47
ag47
ag48
ag45
ag48
ag45
ag45
ag48
ag45
ag45
ag45
ag45
ag46
ag45
ag45
ag45
ag46
ag47
ag47
ag48
ag45
ag45
ag46
ag45
ag46
ag45
ag45
ag45
ag46
ag46
ag46
ag45
ag45
ag45
ag45
ag46
ag45
ag45
ag48
asS'assistance_match_with_ground_truth'
p49
(lp50
I01
aI00
aI01
aI00
aI01
aI00
aI01
aI00
aI01
aI00
aI00
aI01
aI01
aI00
aI01
aI00
aI00
aI01
aI00
aI00
aI01
aI01
aI00
aI00
aI00
aI00
aI00
aI00
aI01
aI01
aI01
aI00
aI01
aI00
aI00
aI00
aI00
aI00
aI00
aI01
aI00
aI00
aI00
aI00
aI00
aI01
aI00
aI00
aI01
aI00
aI01
aI00
aI00
aI01
aI00
aI00
aI00
aI00
aI01
aI00
aI00
aI00
aI01
aI01
aI00
aI01
aI01
aI00
aI01
aI00
aI01
aI01
aI00
aI00
aI01
aI00
aI00
aI00
aI00
aI00
aI00
aI01
aI01
aI00
aI01
aI01
asS'total_steps'
p51
I86
sS'sp'
p52
(S'p4'
p53
F1.5707963267948966
S'x'
p54
tp55
sS's'
p56
(lp57
(S'p0'
p58
I0
g24
tp59
a(g58
I0
S'y'
p60
tp61
a(g58
I0
S't'
p62
tp63
a(g58
I0
g60
tp64
a(g58
I0
g54
tp65
ag61
ag65
ag61
ag65
ag61
ag63
a(g58
I0
g54
tp66
ag61
a(S'p1'
p67
I0
g60
tp68
a(g67
I0
g62
tp69
a(g67
I0
g54
tp70
a(g58
I0
g54
tp71
a(g58
I0
g54
tp72
ag61
ag63
a(g58
I0
g62
tp73
ag64
ag68
a(g67
I0
g60
tp74
ag69
a(g67
I0
g62
tp75
a(g67
I0
g60
tp76
ag69
ag75
ag70
a(S'p2'
p77
I0
g54
tp78
a(g77
I0
g60
tp79
a(g77
I0
g62
tp80
a(g77
I0
g60
tp81
a(g77
I0
g54
tp82
a(g77
I0
g62
tp83
a(g77
I0
g62
tp84
a(g77
I0
g54
tp85
a(g77
I0
g54
tp86
a(g77
I0
g54
tp87
ag79
ag82
ag87
ag86
ag87
ag87
ag79
a(g67
I0
g60
tp88
ag74
a(g67
I0
g54
tp89
a(g67
I0
g62
tp90
ag70
ag90
ag75
ag70
ag71
ag72
ag72
ag72
ag61
ag65
a(g58
I0
g54
tp91
ag72
ag61
ag68
ag74
ag89
ag78
ag87
ag79
ag82
ag79
a(S'p3'
p92
I0
g60
tp93
a(g92
I0
g60
tp94
a(g92
I0
g60
tp95
a(g92
I0
g62
tp96
a(g92
I0
g62
tp97
ag97
a(g92
I0
g60
tp98
ag94
ag95
ag94
ag96
a(g92
F1.5707963267948966
g62
tp99
a(g92
F1.5707963267948966
g62
tp100
a(g92
F1.5707963267948966
g54
tp101
asS'ui'
p102
(lp103
S'hp'
p104
aS'ss'
p105
ag52
aS'hs'
p106
ag104
ag106
ag104
ag106
ag104
ag52
ag104
ag104
ag106
ag52
ag104
ag52
ag104
ag104
ag104
ag106
ag106
ag52
ag104
ag104
ag104
ag52
ag104
ag106
ag104
ag105
ag104
ag104
ag106
ag52
ag52
ag105
ag104
ag104
ag52
ag104
ag52
ag104
ag104
ag104
ag52
ag104
ag105
ag52
ag105
ag105
ag104
ag105
ag104
ag104
ag106
ag104
ag104
ag52
ag104
ag106
ag52
ag52
ag104
ag106
ag52
ag106
ag105
ag104
ag104
ag52
ag104
ag52
ag52
ag104
ag104
ag105
ag52
ag106
ag52
ag104
ag104
ag104
ag52
ag52
ag104
ag106
asS'um_before'
p107
(lp108
g104
ag104
ag106
ag106
ag104
ag106
ag104
ag106
ag104
ag104
ag104
ag104
ag52
ag104
ag104
ag52
ag52
ag104
ag104
ag52
ag106
ag52
ag52
ag104
ag52
ag106
ag104
ag52
ag104
ag105
ag104
ag104
ag106
ag106
ag106
ag105
ag104
ag105
ag52
ag104
ag106
ag52
ag105
ag52
ag52
ag104
ag105
ag52
ag106
ag106
ag104
ag106
ag52
ag104
ag52
ag52
ag52
ag52
ag104
ag106
ag105
ag52
ag104
ag52
ag52
ag106
ag105
ag52
ag104
ag106
ag104
ag52
ag52
ag105
ag104
ag105
ag105
ag106
ag52
ag105
ag52
ag104
ag52
ag52
ag104
ag105
asS'um_after'
p109
(lp110
g104
ag104
ag106
ag106
ag104
ag106
ag104
ag106
ag104
ag104
ag104
ag104
ag52
ag104
ag104
ag52
ag52
ag104
ag104
ag52
ag106
ag52
ag52
ag104
ag52
ag106
ag104
ag52
ag104
ag105
ag104
ag104
ag106
ag106
ag106
ag105
ag104
ag105
ag52
ag104
ag106
ag52
ag105
ag52
ag52
ag104
ag105
ag52
ag106
ag106
ag104
ag106
ag52
ag104
ag52
ag52
ag52
ag52
ag104
ag106
ag105
ag52
ag104
ag52
ag52
ag106
ag105
ag52
ag104
ag106
ag104
ag52
ag52
ag105
ag104
ag105
ag105
ag106
ag52
ag105
ag52
ag104
ag52
ag52
ag104
ag105
asaa(lp111
I1
ag39
(g40
tp112
Rp113
g43
(lp114
g45
ag46
ag47
ag45
ag46
ag47
ag45
ag47
ag47
ag47
ag47
ag45
ag48
ag45
ag45
ag45
ag48
ag45
ag47
ag48
ag45
ag45
ag45
ag47
ag48
ag45
ag46
ag47
ag48
ag45
ag45
ag45
ag46
ag47
ag48
ag45
ag46
ag45
ag45
ag45
ag45
ag46
ag45
ag45
ag45
ag46
ag45
ag45
ag45
ag46
ag47
ag45
ag45
ag45
ag45
ag46
ag45
ag45
ag46
ag45
ag48
asg49
(lp115
I01
aI00
aI00
aI01
aI01
aI00
aI00
aI00
aI00
aI00
aI00
aI01
aI00
aI00
aI00
aI01
aI00
aI00
aI01
aI00
aI00
aI00
aI00
aI01
aI00
aI01
aI01
aI01
aI00
aI00
aI00
aI01
aI01
aI01
aI01
aI01
aI01
aI00
aI00
aI00
aI01
aI00
aI00
aI00
aI01
aI00
aI00
aI00
aI01
aI00
aI00
aI00
aI00
aI00
aI01
aI01
aI00
aI01
aI01
aI01
aI01
asg51
I61
sg52
g55
sg56
(lp116
(g58
I0
g24
tp117
ag61
ag63
ag66
ag61
ag68
ag69
ag76
a(g67
I0
g60
tp118
ag74
ag74
ag69
ag70
ag90
a(g67
I0
g62
tp119
ag75
ag70
ag90
ag76
ag89
ag90
ag75
ag75
ag76
ag89
ag71
ag61
ag68
ag89
ag71
ag72
ag72
ag61
ag68
ag89
ag78
ag79
ag93
ag95
ag94
ag94
ag96
ag98
ag94
ag94
ag96
ag98
ag94
ag95
ag96
a(g92
I0
g54
tp120
a(g77
I0
g54
tp121
ag86
ag87
ag87
ag79
ag93
ag94
ag96
ag99
ag101
asg102
(lp122
g52
ag104
ag104
ag104
ag52
ag104
ag52
ag106
ag104
ag106
ag104
ag104
ag105
ag104
ag52
ag104
ag105
ag52
ag106
ag105
ag52
ag52
ag105
ag106
ag105
ag104
ag52
ag105
ag104
ag52
ag52
ag104
ag104
ag104
ag105
ag104
ag104
ag105
ag104
ag104
ag104
ag52
ag104
ag52
ag104
ag106
ag104
ag52
ag104
ag106
ag104
ag105
ag104
ag52
ag52
ag52
ag104
ag52
ag52
ag104
ag105
asg107
(lp123
g104
ag104
ag104
ag104
ag52
ag104
ag106
ag105
ag52
ag52
ag104
ag104
ag106
ag105
ag52
ag104
ag106
ag106
ag106
ag106
ag52
ag52
ag106
ag106
ag52
ag104
ag52
ag106
ag52
ag52
ag52
ag104
ag52
ag106
ag105
ag104
ag52
ag105
ag52
ag52
ag104
ag106
ag52
ag52
ag104
ag106
ag52
ag105
ag104
ag104
ag52
ag105
ag52
ag52
ag104
ag52
ag52
ag104
ag52
ag104
ag105
asg109
(lp124
g104
ag104
ag104
ag104
ag52
ag104
ag106
ag105
ag52
ag52
ag104
ag104
ag106
ag105
ag52
ag104
ag106
ag106
ag106
ag106
ag52
ag52
ag106
ag106
ag52
ag104
ag52
ag106
ag52
ag52
ag52
ag104
ag52
ag106
ag105
ag104
ag52
ag105
ag52
ag52
ag104
ag106
ag52
ag52
ag104
ag106
ag52
ag105
ag104
ag104
ag52
ag105
ag52
ag52
ag104
ag52
ag52
ag104
ag52
ag104
ag105
asaa(lp125
I2
ag39
(g40
tp126
Rp127
g43
(lp128
g45
ag45
ag47
ag45
ag45
ag45
ag45
ag45
ag46
ag47
ag47
ag48
ag45
ag45
ag45
ag47
ag47
ag46
ag47
ag45
ag45
ag45
ag45
ag45
ag45
ag45
ag46
ag47
ag47
ag48
ag45
ag47
ag47
ag45
ag45
ag46
ag47
ag47
ag45
ag46
ag47
ag47
ag47
ag47
ag47
ag47
ag45
ag45
ag45
ag46
ag47
ag46
ag45
ag45
ag45
ag47
ag45
ag46
ag45
ag46
ag45
ag46
ag47
ag45
ag45
ag45
ag45
ag45
ag47
ag48
ag45
ag46
ag47
ag45
ag48
ag45
ag48
ag47
ag48
ag45
ag48
ag47
ag47
ag45
ag45
ag45
ag48
ag45
ag45
ag46
ag47
ag47
ag45
ag45
ag45
ag45
ag46
ag45
ag45
ag46
ag45
ag45
ag46
ag45
ag45
ag46
ag45
ag48
asg49
(lp129
I00
aI00
aI00
aI00
aI00
aI00
aI00
aI01
aI01
aI00
aI01
aI01
aI00
aI00
aI00
aI00
aI01
aI00
aI00
aI00
aI00
aI00
aI00
aI00
aI00
aI01
aI00
aI00
aI01
aI00
aI00
aI00
aI00
aI00
aI01
aI00
aI00
aI00
aI01
aI00
aI00
aI00
aI00
aI00
aI00
aI00
aI00
aI00
aI01
aI00
aI01
aI00
aI00
aI00
aI00
aI00
aI01
aI00
aI01
aI00
aI01
aI01
aI00
aI00
aI00
aI00
aI00
aI00
aI01
aI00
aI01
aI01
aI00
aI01
aI00
aI01
aI00
aI01
aI00
aI01
aI00
aI00
aI00
aI00
aI00
aI01
aI01
aI00
aI01
aI00
aI00
aI00
aI00
aI00
aI00
aI01
aI00
aI00
aI01
aI01
aI00
aI01
aI00
aI00
aI01
aI01
aI01
aI01
asg51
I108
sg52
g55
sg56
(lp130
(g58
I0
g24
tp131
ag91
a(g58
I0
g62
tp132
ag66
ag72
ag91
ag91
ag91
ag61
ag68
ag74
ag89
ag78
ag87
ag86
ag83
ag84
ag81
ag80
ag85
ag87
ag86
ag86
ag87
ag87
ag86
ag79
ag88
ag74
ag89
ag71
ag132
ag73
ag66
ag72
ag61
ag63
ag73
ag66
ag61
ag63
ag73
ag73
a(g58
I0
g62
tp133
ag73
ag73
ag66
ag91
ag72
ag61
ag63
ag64
ag65
ag72
ag91
ag132
ag66
ag61
ag65
ag61
ag65
ag61
ag68
ag69
ag75
ag119
ag75
ag75
ag76
ag89
ag71
ag61
ag68
ag69
ag70
ag90
ag70
a(g67
I0
g60
tp134
ag89
ag90
ag70
ag134
ag74
ag69
ag119
ag75
ag70
ag78
ag86
ag79
ag80
ag84
ag85
ag87
ag86
ag86
ag79
ag82
ag86
ag79
ag93
ag95
ag96
ag98
ag94
ag96
ag99
ag101
asg102
(lp135
g52
ag52
ag106
ag104
ag52
ag105
ag105
ag104
ag52
ag106
ag52
ag105
ag52
ag52
ag105
ag104
ag105
ag52
ag104
ag52
ag52
ag104
ag104
ag104
ag104
ag104
ag105
ag52
ag52
ag52
ag52
ag52
ag104
ag105
ag104
ag104
ag52
ag104
ag104
ag104
ag52
ag52
ag52
ag52
ag52
ag104
ag104
ag52
ag104
ag104
ag106
ag106
ag104
ag105
ag52
ag104
ag104
ag106
ag104
ag52
ag106
ag52
ag106
ag104
ag104
ag52
ag52
ag52
ag106
ag106
ag104
ag52
ag104
ag104
ag105
ag104
ag105
ag52
ag52
ag104
ag52
ag52
ag104
ag105
ag52
ag104
ag52
ag104
ag104
ag104
ag104
ag104
ag104
ag104
ag52
ag104
ag106
ag105
ag104
ag52
ag104
ag104
ag105
ag52
ag104
ag52
ag104
ag105
asg107
(lp136
g105
ag106
ag104
ag52
ag105
ag105
ag105
ag104
ag52
ag52
ag106
ag105
ag52
ag105
ag106
ag105
ag106
ag104
ag104
ag52
ag105
ag105
ag52
ag52
ag105
ag104
ag105
ag52
ag106
ag52
ag106
ag52
ag104
ag52
ag104
ag104
ag52
ag104
ag104
ag104
ag52
ag52
ag105
ag52
ag52
ag104
ag105
ag52
ag104
ag104
ag106
ag106
ag52
ag105
ag106
ag104
ag104
ag106
ag104
ag106
ag104
ag52
ag104
ag52
ag105
ag52
ag52
ag106
ag106
ag52
ag104
ag52
ag104
ag104
ag106
ag104
ag104
ag106
ag106
ag104
ag104
ag52
ag104
ag105
ag52
ag104
ag105
ag105
ag104
ag104
ag105
ag104
ag52
ag105
ag105
ag104
ag106
ag105
ag104
ag52
ag105
ag104
ag106
ag52
ag104
ag52
ag104
ag105
asg109
(lp137
g105
ag106
ag104
ag52
ag105
ag105
ag105
ag104
ag52
ag52
ag106
ag105
ag52
ag105
ag106
ag105
ag106
ag104
ag104
ag52
ag105
ag105
ag52
ag52
ag105
ag104
ag105
ag52
ag106
ag52
ag106
ag52
ag104
ag52
ag104
ag104
ag52
ag104
ag104
ag104
ag52
ag52
ag105
ag52
ag52
ag104
ag105
ag52
ag104
ag104
ag106
ag106
ag52
ag105
ag106
ag104
ag104
ag106
ag104
ag106
ag104
ag52
ag104
ag52
ag105
ag52
ag52
ag106
ag106
ag52
ag104
ag52
ag104
ag104
ag106
ag104
ag104
ag106
ag106
ag104
ag104
ag52
ag104
ag105
ag52
ag104
ag105
ag105
ag104
ag104
ag105
ag104
ag52
ag105
ag105
ag104
ag106
ag105
ag104
ag52
ag105
ag104
ag106
ag52
ag104
ag52
ag104
ag105
asaa(lp138
I3
ag39
(g40
tp139
Rp140
g43
(lp141
g45
ag47
ag47
ag47
ag46
ag45
ag45
ag46
ag45
ag46
ag46
ag46
ag45
ag46
ag45
ag45
ag46
ag47
ag45
ag45
ag48
ag45
ag48
ag45
ag45
ag46
ag45
ag45
ag46
ag45
ag46
ag45
ag45
ag45
ag46
ag45
ag46
ag45
ag45
ag46
ag45
ag48
ag45
ag46
ag47
ag48
ag45
ag45
ag47
ag47
ag46
ag45
ag45
ag45
ag45
ag45
ag46
ag47
ag47
ag45
ag47
ag46
ag45
ag46
ag47
ag48
ag45
ag46
ag45
ag46
ag45
ag46
ag47
ag45
ag48
ag45
ag45
ag46
ag47
ag45
ag48
ag45
ag45
ag46
ag45
ag46
ag47
ag47
ag47
ag48
asg49
(lp142
I00
aI00
aI00
aI01
aI00
aI00
aI01
aI00
aI01
aI00
aI00
aI00
aI01
aI00
aI00
aI01
aI01
aI00
aI00
aI01
aI00
aI01
aI01
aI00
aI01
aI00
aI00
aI01
aI01
aI01
aI00
aI00
aI00
aI01
aI00
aI01
aI01
aI00
aI00
aI01
aI01
aI00
aI01
aI01
aI01
aI00
aI00
aI00
aI00
aI01
aI00
aI00
aI00
aI00
aI00
aI01
aI00
aI00
aI00
aI00
aI01
aI00
aI01
aI00
aI01
aI01
aI01
aI00
aI01
aI00
aI01
aI01
aI00
aI01
aI00
aI00
aI01
aI01
aI00
aI01
aI00
aI00
aI01
aI00
aI01
aI01
aI00
aI00
aI01
aI01
asg51
I90
sg52
g55
sg56
(lp143
(g58
I0
g24
tp144
ag132
ag133
ag73
ag64
ag65
ag91
ag61
ag65
ag61
a(g58
I0
g60
tp145
ag145
ag65
ag61
ag65
ag91
ag61
ag68
ag69
ag75
ag70
ag90
ag70
ag78
ag87
ag79
ag82
ag86
ag79
ag93
ag96
ag98
ag94
ag94
ag96
ag98
ag96
ag99
ag100
a(g92
I0
g62
tp146
ag99
ag101
a(g77
F1.5707963267948966
g54
tp147
a(g77
F1.5707963267948966
g60
tp148
a(g92
F1.5707963267948966
g60
tp149
a(g92
F1.5707963267948966
g54
tp150
ag147
a(g77
F1.5707963267948966
g54
tp151
a(g77
F1.5707963267948966
g62
tp152
a(g77
F1.5707963267948966
g62
tp153
a(g77
F1.5707963267948966
g60
tp154
a(g77
F1.5707963267948966
g54
tp155
a(g77
F1.5707963267948966
g54
tp156
ag151
ag151
ag156
ag148
a(g77
F1.5707963267948966
g62
tp157
a(g77
F1.5707963267948966
g62
tp158
a(g77
F1.5707963267948966
g54
tp159
ag152
ag154
ag155
ag148
a(g67
F1.5707963267948966
g60
tp160
a(g67
F1.5707963267948966
g54
tp161
a(g77
F1.5707963267948966
g54
tp162
ag148
ag155
ag148
ag155
ag148
ag149
a(g92
F1.5707963267948966
g62
tp163
ag101
ag147
ag151
ag148
ag149
ag163
ag101
ag147
ag151
ag148
ag155
ag148
ag149
a(g92
F1.5707963267948966
g60
tp164
a(g92
F1.5707963267948966
g60
tp165
ag150
asg102
(lp166
g104
ag105
ag52
ag106
ag52
ag52
ag104
ag52
ag104
ag105
ag105
ag52
ag52
ag106
ag105
ag104
ag52
ag104
ag52
ag104
ag105
ag104
ag105
ag104
ag104
ag105
ag104
ag104
ag106
ag104
ag106
ag104
ag104
ag104
ag106
ag104
ag104
ag105
ag105
ag52
ag104
ag105
ag104
ag52
ag106
ag105
ag52
ag106
ag106
ag106
ag106
ag104
ag52
ag104
ag52
ag104
ag104
ag106
ag104
ag104
ag52
ag104
ag104
ag105
ag106
ag105
ag104
ag105
ag104
ag52
ag104
ag52
ag104
ag104
ag105
ag104
ag104
ag52
ag104
ag52
ag106
ag104
ag105
ag106
ag104
ag106
ag106
ag105
ag105
ag106
asg107
(lp167
g106
ag105
ag52
ag106
ag106
ag105
ag104
ag106
ag104
ag105
ag105
ag106
ag104
ag106
ag105
ag104
ag52
ag104
ag52
ag104
ag106
ag104
ag105
ag52
ag104
ag106
ag105
ag104
ag52
ag104
ag106
ag52
ag52
ag104
ag106
ag104
ag52
ag52
ag105
ag52
ag104
ag52
ag104
ag52
ag106
ag52
ag52
ag106
ag52
ag106
ag106
ag105
ag52
ag52
ag105
ag104
ag104
ag105
ag104
ag106
ag106
ag106
ag104
ag105
ag106
ag105
ag104
ag106
ag104
ag106
ag104
ag52
ag104
ag104
ag52
ag52
ag104
ag52
ag104
ag104
ag52
ag52
ag104
ag106
ag104
ag52
ag52
ag105
ag106
ag105
asg109
(lp168
g106
ag105
ag52
ag106
ag106
ag105
ag104
ag106
ag104
ag105
ag105
ag106
ag104
ag106
ag105
ag104
ag52
ag104
ag52
ag104
ag106
ag104
ag105
ag52
ag104
ag106
ag105
ag104
ag52
ag104
ag106
ag52
ag52
ag104
ag106
ag104
ag52
ag52
ag105
ag52
ag104
ag52
ag104
ag52
ag106
ag52
ag52
ag106
ag52
ag106
ag106
ag105
ag52
ag52
ag105
ag104
ag104
ag105
ag104
ag106
ag106
ag106
ag104
ag105
ag106
ag105
ag104
ag106
ag104
ag106
ag104
ag52
ag104
ag104
ag52
ag52
ag104
ag52
ag104
ag104
ag52
ag52
ag104
ag106
ag104
ag52
ag52
ag105
ag106
ag105
asaa(lp169
I4
ag39
(g40
tp170
Rp171
g43
(lp172
g45
ag46
ag47
ag47
ag47
ag47
ag47
ag46
ag47
ag45
ag47
ag47
ag47
ag47
ag45
ag45
ag47
ag45
ag47
ag48
ag45
ag48
ag45
ag47
ag45
ag46
ag47
ag45
ag47
ag47
ag45
ag45
ag47
ag45
ag48
ag45
ag45
ag45
ag45
ag45
ag46
ag45
ag45
ag47
ag47
ag47
ag46
ag47
ag47
ag48
ag45
ag46
ag47
ag48
ag45
ag46
ag47
ag47
ag47
ag48
ag45
ag45
ag45
ag48
ag45
ag45
ag46
ag45
ag46
ag45
ag48
ag45
ag47
ag47
ag45
ag46
ag47
ag47
ag48
ag45
ag47
ag47
ag47
ag47
ag46
ag47
ag47
ag47
ag46
ag45
ag47
ag47
ag47
ag46
ag45
ag45
ag45
ag45
ag46
ag47
ag45
ag45
ag45
ag45
ag45
ag47
ag48
ag45
ag46
ag47
ag47
ag47
ag47
ag45
ag46
ag47
ag48
asg49
(lp173
I01
aI00
aI00
aI00
aI00
aI00
aI01
aI01
aI00
aI00
aI00
aI00
aI00
aI00
aI00
aI00
aI00
aI00
aI01
aI00
aI01
aI00
aI00
aI00
aI01
aI01
aI00
aI00
aI00
aI00
aI00
aI00
aI00
aI01
aI00
aI00
aI00
aI00
aI00
aI01
aI00
aI00
aI00
aI00
aI00
aI01
aI01
aI00
aI01
aI01
aI01
aI00
aI01
aI01
aI01
aI00
aI00
aI00
aI01
aI00
aI00
aI00
aI01
aI01
aI00
aI01
aI01
aI01
aI01
aI01
aI00
aI00
aI00
aI00
aI01
aI00
aI00
aI01
aI01
aI00
aI00
aI00
aI00
aI01
aI00
aI00
aI00
aI01
aI00
aI00
aI00
aI00
aI01
aI00
aI00
aI00
aI00
aI01
aI00
aI00
aI00
aI00
aI00
aI00
aI00
aI01
aI01
aI01
aI00
aI00
aI00
aI00
aI00
aI01
aI01
aI01
aI01
asg51
I117
sg52
g55
sg56
(lp174
(g58
I0
g24
tp175
ag61
ag63
ag133
ag73
ag133
ag73
ag64
ag68
ag69
ag76
ag118
ag118
ag74
ag69
ag75
ag76
ag69
ag76
ag89
ag90
ag70
ag71
ag132
ag66
ag61
ag68
ag69
ag76
ag74
ag69
ag75
ag76
ag69
ag70
ag71
ag91
ag72
ag72
ag72
ag61
ag65
ag72
ag132
ag73
ag73
ag64
ag68
ag74
ag89
ag78
ag79
ag88
ag89
ag78
ag79
ag88
ag74
ag74
ag89
ag90
ag75
ag119
ag70
ag78
ag86
ag79
ag93
ag96
ag99
ag101
ag147
ag152
ag153
ag159
ag148
ag160
a(g67
F1.5707963267948966
g60
tp176
ag161
ag162
ag152
ag153
ag153
ag153
ag154
ag157
ag153
ag158
ag154
ag155
ag152
ag153
ag153
ag154
ag155
ag151
ag151
ag156
ag148
ag160
a(g67
F1.5707963267948966
g62
tp177
a(g67
F1.5707963267948966
g62
tp178
ag178
ag178
ag178
a(g67
F1.5707963267948966
g60
tp179
ag161
ag162
ag148
ag157
ag158
ag158
ag158
ag159
ag148
ag149
ag150
asg102
(lp180
g104
ag104
ag105
ag106
ag106
ag105
ag105
ag106
ag104
ag52
ag105
ag106
ag105
ag104
ag52
ag105
ag104
ag106
ag106
ag106
ag104
ag52
ag106
ag106
ag104
ag52
ag104
ag106
ag52
ag52
ag52
ag106
ag104
ag104
ag105
ag52
ag105
ag52
ag52
ag104
ag106
ag52
ag52
ag52
ag52
ag106
ag52
ag52
ag106
ag105
ag104
ag52
ag106
ag52
ag104
ag52
ag106
ag52
ag106
ag106
ag104
ag104
ag104
ag106
ag104
ag104
ag104
ag104
ag52
ag104
ag52
ag106
ag106
ag104
ag104
ag105
ag104
ag106
ag105
ag104
ag106
ag52
ag105
ag52
ag52
ag52
ag106
ag52
ag52
ag105
ag106
ag52
ag106
ag106
ag52
ag52
ag52
ag104
ag52
ag104
ag104
ag104
ag104
ag52
ag52
ag106
ag105
ag104
ag104
ag104
ag52
ag104
ag104
ag104
ag52
ag106
ag105
asg107
(lp181
g104
ag104
ag105
ag52
ag105
ag52
ag106
ag52
ag104
ag106
ag105
ag105
ag52
ag104
ag52
ag106
ag104
ag106
ag106
ag106
ag104
ag52
ag106
ag104
ag104
ag52
ag104
ag106
ag52
ag104
ag52
ag106
ag104
ag104
ag52
ag105
ag52
ag52
ag52
ag104
ag106
ag52
ag106
ag52
ag52
ag106
ag52
ag52
ag106
ag105
ag104
ag105
ag106
ag105
ag104
ag105
ag52
ag52
ag106
ag106
ag52
ag105
ag104
ag105
ag105
ag104
ag52
ag104
ag52
ag104
ag52
ag106
ag52
ag104
ag104
ag105
ag105
ag106
ag105
ag106
ag52
ag52
ag52
ag106
ag104
ag52
ag105
ag106
ag106
ag106
ag52
ag52
ag106
ag106
ag52
ag52
ag105
ag104
ag105
ag104
ag52
ag52
ag52
ag52
ag106
ag106
ag105
ag104
ag104
ag105
ag105
ag105
ag104
ag104
ag52
ag106
ag105
asg109
(lp182
g104
ag104
ag105
ag52
ag105
ag52
ag106
ag52
ag104
ag106
ag105
ag105
ag52
ag104
ag52
ag106
ag104
ag106
ag106
ag106
ag104
ag52
ag106
ag104
ag104
ag52
ag104
ag106
ag52
ag104
ag52
ag106
ag104
ag104
ag52
ag105
ag52
ag52
ag52
ag104
ag106
ag52
ag106
ag52
ag52
ag106
ag52
ag52
ag106
ag105
ag104
ag105
ag106
ag105
ag104
ag105
ag52
ag52
ag106
ag106
ag52
ag105
ag104
ag105
ag105
ag104
ag52
ag104
ag52
ag104
ag52
ag106
ag52
ag104
ag104
ag105
ag105
ag106
ag105
ag106
ag52
ag52
ag52
ag106
ag104
ag52
ag105
ag106
ag106
ag106
ag52
ag52
ag106
ag106
ag52
ag52
ag105
ag104
ag105
ag104
ag52
ag52
ag52
ag52
ag106
ag106
ag105
ag104
ag104
ag105
ag105
ag105
ag104
ag104
ag52
ag106
ag105
asaa(lp183
I5
ag39
(g40
tp184
Rp185
g43
(lp186
g45
ag45
ag47
ag47
ag46
ag46
ag47
ag47
ag48
ag45
ag45
ag48
ag47
ag47
ag48
ag45
ag45
ag46
ag47
ag45
ag47
ag45
ag48
ag45
ag45
ag45
ag45
ag46
ag47
ag45
ag45
ag48
ag45
ag45
ag45
ag48
ag47
ag45
ag47
ag47
ag47
ag48
ag47
ag48
ag45
ag45
ag48
ag45
ag45
ag45
ag45
ag45
ag45
ag45
ag48
ag45
ag46
ag45
ag45
ag46
ag45
ag45
ag45
ag45
ag45
ag46
ag45
ag45
ag47
asg49
(lp187
I00
aI00
aI00
aI01
aI00
aI01
aI00
aI01
aI00
aI00
aI01
aI00
aI00
aI01
aI01
aI00
aI01
aI00
aI00
aI00
aI00
aI01
aI01
aI00
aI00
aI00
aI01
aI00
aI00
aI00
aI01
aI00
aI00
aI00
aI01
aI00
aI00
aI00
aI00
aI00
aI01
aI00
aI01
aI00
aI00
aI01
aI00
aI00
aI00
aI00
aI00
aI00
aI00
aI01
aI01
aI01
aI00
aI00
aI01
aI00
aI00
aI00
aI00
aI00
aI01
aI01
aI00
aI00
aI00
asg51
I69
sg52
(g53
I0
g54
tp188
sg56
(lp189
(g58
I0
g24
tp190
ag72
ag132
ag133
ag64
ag145
ag68
ag74
ag89
ag90
ag75
ag70
ag134
ag118
ag89
ag78
ag86
ag79
ag88
ag69
ag76
ag69
ag70
ag78
ag87
ag87
ag86
ag79
ag88
ag69
ag75
ag70
ag90
ag119
ag119
ag70
ag134
ag69
ag76
ag74
ag74
ag89
ag134
ag89
ag90
ag119
ag70
ag90
ag75
ag75
ag119
ag119
ag119
ag119
ag70
ag78
ag79
ag82
ag87
ag79
ag82
ag87
ag87
ag87
ag87
ag79
ag93
ag95
a(g92
I0
g54
tp191
asg102
(lp192
g52
ag106
ag105
ag106
ag106
ag52
ag104
ag52
ag105
ag52
ag104
ag104
ag104
ag106
ag105
ag52
ag104
ag52
ag104
ag106
ag104
ag104
ag105
ag106
ag52
ag105
ag104
ag106
ag104
ag52
ag104
ag105
ag52
ag104
ag104
ag104
ag104
ag106
ag104
ag52
ag105
ag52
ag52
ag105
ag105
ag104
ag105
ag52
ag52
ag104
ag104
ag104
ag104
ag104
ag105
ag104
ag52
ag52
ag104
ag52
ag52
ag104
ag104
ag52
ag52
ag106
ag104
ag52
ag52
asg107
(lp193
g52
ag106
ag105
ag106
ag105
ag52
ag52
ag106
ag106
ag52
ag104
ag104
ag105
ag106
ag105
ag105
ag104
ag105
ag104
ag106
ag104
ag104
ag105
ag52
ag52
ag105
ag104
ag105
ag104
ag52
ag104
ag106
ag105
ag105
ag104
ag104
ag104
ag106
ag52
ag52
ag106
ag104
ag106
ag106
ag105
ag104
ag106
ag52
ag52
ag105
ag105
ag105
ag105
ag104
ag105
ag104
ag106
ag52
ag104
ag106
ag52
ag52
ag52
ag52
ag104
ag52
ag105
ag106
ag105
asg109
(lp194
g52
ag106
ag105
ag106
ag105
ag52
ag52
ag106
ag106
ag52
ag104
ag104
ag105
ag106
ag105
ag105
ag104
ag105
ag104
ag106
ag104
ag104
ag105
ag52
ag52
ag105
ag104
ag105
ag104
ag52
ag104
ag106
ag105
ag105
ag104
ag104
ag104
ag106
ag52
ag52
ag106
ag104
ag106
ag106
ag105
ag104
ag106
ag52
ag52
ag105
ag105
ag105
ag105
ag104
ag105
ag104
ag106
ag52
ag104
ag106
ag52
ag52
ag52
ag52
ag104
ag52
ag105
ag106
ag105
asaa(lp195
I6
ag39
(g40
tp196
Rp197
g43
(lp198
g45
ag47
ag46
ag45
ag46
ag47
ag47
ag46
ag47
ag47
ag47
ag48
ag45
ag45
ag45
ag45
ag45
ag45
ag45
ag45
ag46
ag45
ag46
ag45
ag47
ag46
ag45
ag45
ag48
ag45
ag45
ag48
ag45
ag46
ag47
ag47
ag47
ag45
ag48
ag45
ag47
ag47
ag45
ag47
ag47
ag46
ag47
ag47
ag47
ag47
ag47
ag45
ag48
ag47
ag48
asg49
(lp199
I00
aI01
aI00
aI01
aI00
aI00
aI01
aI01
aI00
aI00
aI01
aI01
aI00
aI00
aI00
aI00
aI00
aI00
aI00
aI01
aI01
aI01
aI00
aI00
aI01
aI01
aI00
aI01
aI00
aI00
aI01
aI00
aI01
aI01
aI00
aI00
aI00
aI01
aI00
aI00
aI00
aI00
aI00
aI00
aI01
aI01
aI00
aI00
aI00
aI00
aI00
aI01
aI00
aI01
aI01
asg51
I55
sg52
g55
sg56
(lp200
(g58
I0
g24
tp201
ag132
ag64
ag65
ag61
ag63
ag73
ag64
ag68
ag74
ag118
ag89
ag78
ag87
ag86
ag86
ag87
ag86
ag86
ag87
ag79
ag93
ag96
ag98
ag191
a(g92
I0
g62
tp202
ag99
ag100
ag101
a(g92
F1.5707963267948966
g62
tp203
ag100
ag101
ag147
ag148
ag149
ag164
ag165
ag163
ag101
ag147
ag152
ag158
ag159
ag152
ag153
ag154
ag149
ag165
ag165
ag164
ag165
ag163
ag101
a(g92
F1.5707963267948966
g60
tp204
ag150
asg102
(lp205
g52
ag106
ag106
ag104
ag104
ag52
ag106
ag52
ag104
ag105
ag106
ag105
ag52
ag105
ag104
ag52
ag52
ag104
ag105
ag104
ag106
ag104
ag105
ag52
ag105
ag105
ag104
ag104
ag105
ag106
ag104
ag52
ag104
ag52
ag52
ag105
ag104
ag104
ag52
ag52
ag105
ag104
ag106
ag52
ag106
ag52
ag105
ag104
ag106
ag104
ag104
ag104
ag106
ag106
ag105
asg107
(lp206
g106
ag106
ag106
ag104
ag104
ag52
ag106
ag52
ag52
ag105
ag106
ag105
ag52
ag105
ag105
ag52
ag105
ag105
ag52
ag104
ag52
ag104
ag106
ag106
ag106
ag52
ag52
ag104
ag106
ag52
ag104
ag52
ag104
ag52
ag52
ag105
ag104
ag104
ag52
ag106
ag105
ag104
ag106
ag52
ag106
ag52
ag105
ag105
ag52
ag105
ag104
ag104
ag104
ag106
ag105
asg109
(lp207
g106
ag106
ag106
ag104
ag104
ag52
ag106
ag52
ag52
ag105
ag106
ag105
ag52
ag105
ag105
ag52
ag105
ag105
ag52
ag104
ag52
ag104
ag106
ag106
ag106
ag52
ag52
ag104
ag106
ag52
ag104
ag52
ag104
ag52
ag52
ag105
ag104
ag104
ag52
ag106
ag105
ag104
ag106
ag52
ag106
ag52
ag105
ag105
ag52
ag105
ag104
ag104
ag104
ag106
ag105
asaa(lp208
I7
ag39
(g40
tp209
Rp210
g43
(lp211
g45
ag47
ag45
ag47
ag45
ag47
ag47
ag45
ag46
ag45
ag45
ag46
ag46
ag46
ag47
ag46
ag45
ag46
ag45
ag45
ag45
ag45
ag45
ag45
ag45
ag46
ag47
ag48
ag45
ag45
ag45
ag45
ag45
ag45
ag45
ag47
ag48
ag45
ag45
ag47
ag47
ag47
ag45
ag45
ag46
ag45
ag45
ag45
ag45
ag47
ag47
ag47
ag45
ag45
ag45
ag45
ag46
ag47
ag47
ag48
ag45
ag47
ag47
ag47
ag45
ag45
ag45
ag47
ag47
ag47
ag47
ag45
ag46
ag47
ag45
ag47
ag47
ag48
ag47
ag45
ag45
ag45
ag45
ag48
ag45
ag45
ag46
ag45
ag45
ag46
ag47
ag45
ag47
ag47
ag48
ag45
ag47
ag46
ag47
ag47
ag47
ag46
ag47
ag48
ag45
ag48
ag45
ag47
ag47
ag47
ag48
ag45
ag45
ag45
ag46
ag45
ag45
ag46
ag45
ag47
ag45
ag45
ag46
ag45
ag46
ag45
ag45
ag47
ag46
ag46
ag45
ag45
ag45
ag46
ag45
ag46
ag45
ag45
ag47
ag45
ag45
ag46
ag47
ag45
ag47
ag47
ag47
ag45
ag45
ag45
ag45
ag47
ag47
ag47
ag47
ag46
ag47
ag47
ag47
ag45
ag47
ag45
ag47
ag47
ag45
ag46
ag45
ag45
ag47
ag45
ag45
ag47
ag47
ag47
ag47
ag47
ag46
ag45
ag46
ag45
ag46
ag47
ag45
ag47
ag45
ag45
ag46
ag47
ag46
ag47
ag47
ag45
ag45
ag45
ag46
ag47
ag48
ag45
ag46
ag47
ag48
asg49
(lp212
I00
aI00
aI00
aI00
aI00
aI00
aI00
aI01
aI00
aI00
aI01
aI00
aI00
aI00
aI01
aI00
aI01
aI00
aI00
aI00
aI00
aI00
aI00
aI00
aI01
aI01
aI01
aI00
aI00
aI00
aI00
aI00
aI00
aI00
aI00
aI01
aI00
aI00
aI00
aI00
aI00
aI00
aI00
aI01
aI00
aI00
aI00
aI00
aI00
aI00
aI00
aI00
aI00
aI00
aI00
aI01
aI01
aI00
aI01
aI01
aI00
aI00
aI00
aI00
aI00
aI00
aI00
aI00
aI00
aI00
aI00
aI01
aI00
aI00
aI00
aI00
aI01
aI00
aI00
aI00
aI00
aI00
aI01
aI01
aI00
aI01
aI00
aI00
aI01
aI00
aI00
aI00
aI00
aI01
aI00
aI00
aI01
aI00
aI00
aI00
aI01
aI01
aI01
aI00
aI01
aI00
aI00
aI00
aI00
aI01
aI01
aI00
aI00
aI01
aI01
aI00
aI01
aI00
aI00
aI00
aI00
aI01
aI00
aI01
aI00
aI00
aI00
aI01
aI00
aI00
aI00
aI00
aI01
aI00
aI01
aI01
aI00
aI00
aI00
aI00
aI00
aI00
aI00
aI00
aI00
aI00
aI00
aI00
aI00
aI00
aI00
aI00
aI00
aI00
aI01
aI00
aI00
aI00
aI00
aI00
aI00
aI00
aI00
aI00
aI01
aI01
aI00
aI00
aI00
aI00
aI00
aI00
aI00
aI00
aI00
aI01
aI00
aI01
aI01
aI01
aI00
aI00
aI00
aI00
aI00
aI01
aI00
aI01
aI00
aI00
aI00
aI00
aI00
aI01
aI00
aI01
aI00
aI01
aI01
aI01
aI00
asg51
I201
sg52
g90
sg56
(lp213
(g58
I0
g24
tp214
ag132
ag66
ag132
ag66
ag132
ag73
ag66
ag61
ag65
ag72
ag61
ag145
ag145
ag63
ag64
ag65
ag61
ag65
ag91
ag72
ag91
ag91
ag72
ag91
ag61
ag68
ag89
ag90
ag119
ag75
ag119
ag75
ag119
ag119
ag76
ag89
ag71
ag91
ag132
ag73
ag73
ag66
ag91
ag61
ag65
ag72
ag91
ag91
ag132
ag133
ag73
ag66
ag91
ag91
ag91
ag61
ag68
ag74
ag89
ag78
ag83
a(g77
I0
g62
tp215
ag215
ag85
ag87
ag86
ag83
ag84
ag215
ag215
ag85
ag79
ag88
ag69
ag76
ag74
ag89
ag134
ag69
ag75
ag75
ag75
ag70
ag78
ag87
ag79
ag82
ag86
ag79
ag88
ag69
ag76
ag74
ag89
ag71
ag132
ag64
ag63
ag73
ag133
ag64
ag68
ag89
ag90
ag70
ag90
ag76
ag74
ag118
ag89
ag78
ag87
ag87
ag79
ag93
ag94
ag96
ag98
ag191
a(g92
I0
g60
tp216
ag94
ag96
ag98
ag96
ag98
ag94
ag191
ag202
ag97
ag98
ag95
ag94
ag96
ag98
ag96
ag99
ag100
a(g92
F1.5707963267948966
g60
tp217
ag163
ag100
ag146
ag120
ag121
ag83
ag215
ag84
ag85
ag86
ag86
ag86
ag83
ag215
ag215
ag84
ag81
ag80
ag215
ag215
ag85
ag83
ag85
ag83
ag84
ag85
ag79
ag93
ag94
ag191
ag121
ag86
ag83
ag84
ag215
ag84
ag215
ag81
ag82
ag79
ag93
ag96
ag120
ag121
ag83
ag85
ag87
ag79
ag80
ag81
ag80
ag215
ag85
ag87
ag86
ag79
ag88
ag89
ag71
ag61
ag68
ag89
asg102
(lp218
g106
ag104
ag52
ag52
ag104
ag52
ag104
ag104
ag106
ag52
ag104
ag105
ag52
ag52
ag106
ag106
ag104
ag106
ag104
ag104
ag104
ag104
ag104
ag104
ag104
ag52
ag106
ag106
ag105
ag52
ag104
ag52
ag104
ag104
ag52
ag106
ag52
ag104
ag105
ag105
ag106
ag104
ag52
ag104
ag52
ag52
ag105
ag106
ag52
ag104
ag52
ag104
ag52
ag105
ag52
ag104
ag52
ag52
ag52
ag105
ag105
ag106
ag52
ag106
ag104
ag104
ag106
ag52
ag106
ag106
ag104
ag104
ag52
ag104
ag52
ag52
ag52
ag105
ag104
ag104
ag52
ag106
ag52
ag105
ag52
ag104
ag52
ag104
ag104
ag52
ag104
ag52
ag52
ag52
ag105
ag105
ag106
ag104
ag52
ag105
ag106
ag52
ag52
ag105
ag104
ag105
ag106
ag106
ag106
ag106
ag105
ag104
ag52
ag104
ag106
ag104
ag104
ag106
ag52
ag104
ag52
ag104
ag52
ag104
ag52
ag52
ag106
ag52
ag52
ag52
ag105
ag106
ag105
ag106
ag52
ag52
ag52
ag105
ag52
ag52
ag104
ag52
ag106
ag106
ag106
ag105
ag104
ag52
ag105
ag105
ag105
ag104
ag104
ag106
ag52
ag52
ag52
ag52
ag104
ag52
ag104
ag52
ag106
ag105
ag104
ag106
ag104
ag52
ag52
ag104
ag52
ag105
ag52
ag52
ag52
ag106
ag106
ag104
ag106
ag104
ag104
ag106
ag52
ag104
ag104
ag104
ag52
ag106
ag104
ag104
ag104
ag52
ag52
ag104
ag105
ag106
ag106
ag104
ag52
ag106
ag52
asg107
(lp219
g106
ag104
ag106
ag104
ag106
ag52
ag104
ag104
ag106
ag52
ag104
ag105
ag105
ag104
ag106
ag106
ag104
ag106
ag105
ag52
ag105
ag105
ag52
ag105
ag104
ag52
ag106
ag106
ag105
ag52
ag105
ag52
ag105
ag105
ag106
ag106
ag52
ag105
ag106
ag52
ag52
ag104
ag105
ag104
ag106
ag52
ag105
ag105
ag106
ag105
ag52
ag104
ag105
ag105
ag105
ag104
ag52
ag52
ag106
ag105
ag106
ag52
ag52
ag104
ag52
ag105
ag106
ag105
ag52
ag52
ag104
ag104
ag105
ag104
ag106
ag52
ag106
ag104
ag104
ag52
ag52
ag52
ag104
ag105
ag52
ag104
ag106
ag105
ag104
ag105
ag104
ag106
ag52
ag106
ag52
ag106
ag106
ag104
ag52
ag105
ag106
ag52
ag106
ag106
ag104
ag106
ag106
ag52
ag105
ag106
ag105
ag52
ag52
ag104
ag52
ag52
ag104
ag106
ag106
ag104
ag52
ag104
ag106
ag104
ag106
ag52
ag106
ag106
ag105
ag106
ag105
ag52
ag104
ag106
ag104
ag52
ag52
ag106
ag104
ag52
ag105
ag104
ag52
ag106
ag52
ag105
ag104
ag105
ag105
ag105
ag106
ag52
ag52
ag105
ag106
ag104
ag52
ag52
ag104
ag106
ag104
ag106
ag105
ag104
ag104
ag52
ag52
ag106
ag52
ag105
ag106
ag105
ag52
ag105
ag52
ag106
ag106
ag104
ag52
ag104
ag104
ag52
ag106
ag104
ag52
ag104
ag104
ag106
ag104
ag52
ag104
ag52
ag105
ag104
ag105
ag106
ag52
ag104
ag52
ag106
ag106
asg109
(lp220
g106
ag104
ag106
ag104
ag106
ag52
ag104
ag104
ag106
ag52
ag104
ag105
ag105
ag104
ag106
ag106
ag104
ag106
ag105
ag52
ag105
ag105
ag52
ag105
ag104
ag52
ag106
ag106
ag105
ag52
ag105
ag52
ag105
ag105
ag106
ag106
ag52
ag105
ag106
ag52
ag52
ag104
ag105
ag104
ag106
ag52
ag105
ag105
ag106
ag105
ag52
ag104
ag105
ag105
ag105
ag104
ag52
ag52
ag106
ag105
ag106
ag52
ag52
ag104
ag52
ag105
ag106
ag105
ag52
ag52
ag104
ag104
ag105
ag104
ag106
ag52
ag106
ag104
ag104
ag52
ag52
ag52
ag104
ag105
ag52
ag104
ag106
ag105
ag104
ag105
ag104
ag106
ag52
ag106
ag52
ag106
ag106
ag104
ag52
ag105
ag106
ag52
ag106
ag106
ag104
ag106
ag106
ag52
ag105
ag106
ag105
ag52
ag52
ag104
ag52
ag52
ag104
ag106
ag106
ag104
ag52
ag104
ag106
ag104
ag106
ag52
ag106
ag106
ag105
ag106
ag105
ag52
ag104
ag106
ag104
ag52
ag52
ag106
ag104
ag52
ag105
ag104
ag52
ag106
ag52
ag105
ag104
ag105
ag105
ag105
ag106
ag52
ag52
ag105
ag106
ag104
ag52
ag52
ag104
ag106
ag104
ag106
ag105
ag104
ag104
ag52
ag52
ag106
ag52
ag105
ag106
ag105
ag52
ag105
ag52
ag106
ag106
ag104
ag52
ag104
ag104
ag52
ag106
ag104
ag52
ag104
ag104
ag106
ag104
ag52
ag104
ag52
ag105
ag104
ag105
ag106
ag52
ag104
ag52
ag106
ag106
asaa(lp221
I8
ag39
(g40
tp222
Rp223
g43
(lp224
g45
ag47
ag46
ag47
ag45
ag48
ag45
ag45
ag45
ag46
ag47
ag47
ag46
ag45
ag45
ag46
ag45
ag48
ag45
ag45
ag45
ag46
ag47
ag45
ag47
ag48
asg49
(lp225
I00
aI01
aI01
aI00
aI01
aI01
aI00
aI00
aI01
aI00
aI00
aI01
aI01
aI00
aI01
aI01
aI01
aI00
aI00
aI00
aI01
aI01
aI00
aI00
aI01
aI01
asg51
I26
sg52
g55
sg56
(lp226
(g58
I0
g24
tp227
ag132
ag64
ag68
ag69
ag70
ag78
ag86
ag87
ag79
ag80
ag215
ag81
ag93
ag95
ag96
ag99
ag101
ag147
ag156
ag151
ag148
ag149
ag163
ag217
ag150
asg102
(lp228
g106
ag52
ag52
ag104
ag104
ag105
ag106
ag52
ag104
ag106
ag52
ag106
ag104
ag105
ag104
ag52
ag104
ag104
ag104
ag52
ag104
ag52
ag104
ag106
ag106
ag105
asg107
(lp229
g106
ag106
ag52
ag104
ag104
ag105
ag105
ag52
ag104
ag104
ag52
ag106
ag52
ag105
ag104
ag52
ag104
ag52
ag105
ag52
ag104
ag52
ag104
ag106
ag106
ag105
asg109
(lp230
g106
ag106
ag52
ag104
ag104
ag105
ag105
ag52
ag104
ag104
ag52
ag106
ag52
ag105
ag104
ag52
ag104
ag52
ag105
ag52
ag104
ag52
ag104
ag106
ag106
ag105
asaa(lp231
I9
ag39
(g40
tp232
Rp233
g43
(lp234
g45
ag45
ag45
ag46
ag47
ag47
ag45
ag48
ag45
ag48
ag45
ag45
ag46
ag45
ag45
ag47
asg49
(lp235
I00
aI00
aI01
aI01
aI00
aI00
aI01
aI00
aI01
aI01
aI00
aI01
aI01
aI00
aI00
aI00
asg51
I16
sg52
g188
sg56
(lp236
(g58
I0
g24
tp237
ag72
ag91
ag61
ag68
ag118
ag69
ag70
ag90
ag70
ag78
ag87
ag79
ag93
ag95
ag191
asg102
(lp238
g52
ag104
ag104
ag52
ag105
ag104
ag104
ag106
ag104
ag105
ag104
ag104
ag106
ag105
ag52
ag105
asg107
(lp239
g52
ag105
ag104
ag52
ag105
ag104
ag104
ag106
ag104
ag105
ag52
ag104
ag52
ag105
ag106
ag105
asg109
(lp240
g52
ag105
ag104
ag52
ag105
ag104
ag104
ag106
ag104
ag105
ag52
ag104
ag52
ag105
ag106
ag105
asaatp241
Rp242
aatp243
Rp244
.