ccollections
OrderedDict
p0
((lp1
(lp2
S'index'
p3
aI2563
aa(lp4
S'combination_dict'
p5
ag0
((lp6
(lp7
S'r_to_g_config'
p8
aS'tr'
p9
aa(lp10
S'num_turns'
p11
aI3
aa(lp12
S'start_direction'
p13
acutils_ms
StartDirection
p14
(I3
tp15
Rp16
aa(lp17
S'assistance_type'
p18
acutils_ms
AssistanceType
p19
(I0
tp20
Rp21
aa(lp22
S'start_mode'
p23
aS't'
p24
aa(lp25
S'ui_given_a_noise'
p26
aF0.1
aa(lp27
S'um_given_ui_noise'
p28
aF0.1
aa(lp29
S'entropy_threshold'
p30
aF0.6
aa(lp31
S'is_assistance'
p32
aI00
aatp33
Rp34
aa(lp35
S'trials'
p36
ag0
((lp37
(lp38
I0
accollections
defaultdict
p39
(c__builtin__
list
p40
tp41
Rp42
S'a'
p43
(lp44
S'mode_r'
p45
aS'move_p'
p46
ag45
ag46
ag45
ag46
aS'mode_l'
p47
ag47
ag45
ag45
ag46
ag45
ag46
ag45
ag47
ag46
ag45
ag46
ag47
ag47
ag47
ag45
ag46
ag47
ag46
ag47
ag46
asS'assistance_match_with_ground_truth'
p48
(lp49
I01
aI01
aI01
aI00
aI01
aI01
aI00
aI00
aI00
aI01
aI00
aI01
aI00
aI00
aI01
aI00
aI01
aI01
aI00
aI00
aI00
aI01
aI01
aI01
aI01
aI01
aI01
asS'total_steps'
p50
I27
sS'sp'
p51
(S'p4'
p52
F1.5707963267948966
S'y'
p53
tp54
sS's'
p55
(lp56
(S'p0'
p57
I0
g24
tp58
a(g57
I0
S'x'
p59
tp60
a(S'p1'
p61
I0
g59
tp62
a(g61
I0
g53
tp63
a(g61
I0
g59
tp64
ag63
a(S'p2'
p65
I0
g53
tp66
a(g65
I0
g53
tp67
a(g65
I0
S't'
p68
tp69
a(g65
I0
g68
tp70
a(g65
I0
g59
tp71
a(g65
I0
g68
tp72
ag71
ag72
a(g65
I0
g53
tp73
a(g65
I0
g59
tp74
a(g61
I0
g59
tp75
ag63
ag66
ag67
ag67
ag69
ag71
a(S'p3'
p76
I0
g59
tp77
a(g76
I0
g68
tp78
a(g76
F1.5707963267948966
g68
tp79
a(g76
F1.5707963267948966
g53
tp80
asS'ui'
p81
(lp82
S'hp'
p83
ag51
ag83
ag51
ag83
ag51
aS'hs'
p84
ag84
ag83
ag83
ag51
ag83
ag51
ag84
ag84
aS'ss'
p85
ag83
ag51
ag84
ag85
ag83
ag83
ag51
ag84
ag51
ag84
ag51
asS'um_before'
p86
(lp87
g83
ag51
ag83
ag84
ag83
ag51
ag85
ag83
ag51
ag83
ag84
ag83
ag84
ag84
ag84
ag85
ag83
ag51
ag85
ag85
ag83
ag83
ag51
ag84
ag51
ag84
ag51
asS'um_after'
p88
(lp89
g83
ag51
ag83
ag84
ag83
ag51
ag85
ag83
ag51
ag83
ag84
ag83
ag84
ag84
ag84
ag85
ag83
ag51
ag85
ag85
ag83
ag83
ag51
ag84
ag51
ag84
ag51
asaa(lp90
I1
ag39
(g40
tp91
Rp92
g43
(lp93
g45
ag45
ag47
ag46
ag45
ag46
ag47
ag46
ag47
ag46
ag46
ag45
ag46
ag47
ag46
ag47
ag46
asg48
(lp94
I00
aI00
aI01
aI01
aI01
aI01
aI01
aI01
aI01
aI00
aI00
aI01
aI01
aI00
aI01
aI01
aI01
asg50
I17
sg51
g54
sg55
(lp95
(g57
I0
g24
tp96
a(g57
I0
g68
tp97
a(g57
I0
g53
tp98
a(g57
I0
g59
tp99
ag62
ag63
ag66
ag74
ag77
ag78
a(g76
I0
g68
tp100
a(g76
I0
g53
tp101
a(g76
I0
g68
tp102
ag79
a(g76
I0
g68
tp103
ag79
ag80
asg81
(lp104
g83
ag83
ag84
ag51
ag83
ag51
ag84
ag51
ag84
ag85
ag51
ag83
ag51
ag85
ag51
ag84
ag51
asg86
(lp105
g85
ag84
ag84
ag51
ag83
ag51
ag84
ag51
ag84
ag85
ag84
ag83
ag51
ag85
ag51
ag84
ag51
asg88
(lp106
g85
ag84
ag84
ag51
ag83
ag51
ag84
ag51
ag84
ag85
ag84
ag83
ag51
ag85
ag51
ag84
ag51
asaa(lp107
I2
ag39
(g40
tp108
Rp109
g43
(lp110
g45
ag45
ag46
ag45
ag45
ag46
ag47
ag46
ag47
ag46
ag47
ag47
ag46
ag47
ag46
asg48
(lp111
I00
aI01
aI01
aI00
aI01
aI01
aI01
aI01
aI01
aI01
aI00
aI00
aI01
aI01
aI01
asg50
I15
sg51
g54
sg55
(lp112
(g57
I0
g24
tp113
a(g57
I0
g68
tp114
ag60
ag62
a(g61
I0
g59
tp115
ag63
ag66
ag74
ag77
ag78
ag79
a(g76
F1.5707963267948966
g68
tp116
ag103
ag79
ag80
asg81
(lp117
g83
ag83
ag51
ag51
ag83
ag51
ag84
ag51
ag84
ag51
ag51
ag84
ag51
ag84
ag51
asg86
(lp118
g51
ag83
ag51
ag51
ag83
ag51
ag84
ag51
ag84
ag51
ag51
ag85
ag51
ag84
ag51
asg88
(lp119
g51
ag83
ag51
ag51
ag83
ag51
ag84
ag51
ag84
ag51
ag51
ag85
ag51
ag84
ag51
asaa(lp120
I3
ag39
(g40
tp121
Rp122
g43
(lp123
g45
ag45
ag45
ag47
ag45
ag46
ag45
ag45
ag46
ag47
ag46
ag47
ag46
ag47
ag46
ag47
ag46
ag47
ag46
ag47
ag46
asg48
(lp124
I00
aI00
aI00
aI00
aI01
aI01
aI00
aI01
aI01
aI01
aI00
aI01
aI01
aI01
aI00
aI01
aI01
aI01
aI00
aI01
aI01
asg50
I21
sg51
g54
sg55
(lp125
(g57
I0
g24
tp126
ag114
ag114
ag98
a(g57
I0
g68
tp127
ag60
ag62
a(g61
I0
g59
tp128
ag63
ag66
ag74
a(g65
I0
g53
tp129
ag74
ag77
ag78
a(g76
I0
g59
tp130
ag78
ag79
ag80
a(g76
F1.5707963267948966
g68
tp131
ag80
asg81
(lp132
g83
ag83
ag83
ag84
ag83
ag51
ag51
ag83
ag51
ag84
ag83
ag84
ag51
ag84
ag83
ag84
ag51
ag84
ag83
ag84
ag51
asg86
(lp133
g51
ag51
ag84
ag83
ag83
ag51
ag85
ag83
ag51
ag84
ag83
ag84
ag51
ag84
ag83
ag84
ag51
ag84
ag83
ag84
ag51
asg88
(lp134
g51
ag51
ag84
ag83
ag83
ag51
ag85
ag83
ag51
ag84
ag83
ag84
ag51
ag84
ag83
ag84
ag51
ag84
ag83
ag84
ag51
asaa(lp135
I4
ag39
(g40
tp136
Rp137
g43
(lp138
g45
ag46
ag45
ag46
ag45
ag47
ag47
ag46
ag47
ag46
ag47
ag46
ag47
ag46
ag45
ag46
asg48
(lp139
I01
aI00
aI01
aI01
aI00
aI00
aI01
aI01
aI01
aI01
aI01
aI01
aI01
aI00
aI01
aI01
asg50
I16
sg51
g54
sg55
(lp140
(g57
I0
g24
tp141
ag60
a(g57
I0
g68
tp142
ag60
ag62
a(g61
I0
g68
tp143
a(g61
I0
g68
tp144
a(g61
I0
g53
tp145
ag66
ag74
ag77
ag78
ag79
ag80
a(g76
F1.5707963267948966
g59
tp146
a(g76
F1.5707963267948966
g53
tp147
asg81
(lp148
g83
ag83
ag83
ag51
ag83
ag85
ag84
ag51
ag84
ag51
ag84
ag51
ag84
ag83
ag83
ag51
asg86
(lp149
g83
ag84
ag83
ag51
ag84
ag85
ag84
ag51
ag84
ag51
ag84
ag51
ag84
ag84
ag83
ag51
asg88
(lp150
g83
ag84
ag83
ag51
ag84
ag85
ag84
ag51
ag84
ag51
ag84
ag51
ag84
ag84
ag83
ag51
asaa(lp151
I5
ag39
(g40
tp152
Rp153
g43
(lp154
g45
ag45
ag46
ag46
ag45
ag46
ag47
ag46
ag47
ag46
ag46
ag47
ag46
ag47
ag46
asg48
(lp155
I00
aI01
aI00
aI01
aI01
aI01
aI01
aI01
aI01
aI00
aI01
aI00
aI01
aI01
aI01
asg50
I15
sg51
g54
sg55
(lp156
(g57
I0
g24
tp157
ag114
ag60
a(g57
I0
g59
tp158
ag62
ag63
ag66
ag74
ag77
ag78
ag100
ag79
ag103
ag79
ag80
asg81
(lp159
g51
ag83
ag85
ag51
ag83
ag51
ag84
ag51
ag85
ag85
ag51
ag85
ag51
ag84
ag51
asg86
(lp160
g51
ag83
ag85
ag51
ag83
ag51
ag84
ag51
ag84
ag85
ag51
ag85
ag51
ag84
ag51
asg88
(lp161
g51
ag83
ag85
ag51
ag83
ag51
ag84
ag51
ag84
ag85
ag51
ag85
ag51
ag84
ag51
asaa(lp162
I6
ag39
(g40
tp163
Rp164
g43
(lp165
g45
ag46
ag45
ag46
ag47
ag47
ag46
ag47
ag47
ag46
ag45
ag46
ag47
ag46
ag47
ag46
ag45
ag46
ag47
ag46
ag47
ag46
asg48
(lp166
I01
aI01
aI01
aI00
aI00
aI01
aI01
aI00
aI01
aI00
aI01
aI00
aI01
aI01
aI01
aI00
aI01
aI01
aI01
aI01
aI01
aI01
asg50
I22
sg51
g54
sg55
(lp167
(g57
I0
g24
tp168
ag60
ag62
ag63
a(g61
I0
g68
tp169
a(g61
I0
g68
tp170
ag145
ag66
ag67
ag74
ag75
ag63
ag169
ag145
ag66
ag74
ag72
ag71
ag77
ag78
ag79
ag80
asg81
(lp171
g83
ag51
ag83
ag83
ag51
ag84
ag51
ag84
ag84
ag51
ag83
ag83
ag84
ag51
ag84
ag51
ag83
ag51
ag84
ag51
ag84
ag51
asg86
(lp172
g83
ag51
ag83
ag83
ag51
ag84
ag51
ag85
ag84
ag85
ag83
ag83
ag84
ag51
ag84
ag84
ag83
ag51
ag84
ag51
ag84
ag51
asg88
(lp173
g83
ag51
ag83
ag83
ag51
ag84
ag51
ag85
ag84
ag85
ag83
ag83
ag84
ag51
ag84
ag84
ag83
ag51
ag84
ag51
ag84
ag51
asaa(lp174
I7
ag39
(g40
tp175
Rp176
g43
(lp177
g45
ag46
ag45
ag45
ag46
ag47
ag46
ag47
ag46
ag47
ag46
asg48
(lp178
I01
aI01
aI00
aI01
aI01
aI01
aI01
aI01
aI01
aI01
aI01
asg50
I11
sg51
g54
sg55
(lp179
(g57
I0
g24
tp180
ag60
ag62
ag128
ag63
ag66
ag74
ag77
ag78
ag79
ag80
asg81
(lp181
g83
ag51
ag85
ag83
ag51
ag84
ag51
ag84
ag51
ag84
ag85
asg86
(lp182
g83
ag51
ag85
ag83
ag51
ag84
ag51
ag84
ag51
ag84
ag51
asg88
(lp183
g83
ag51
ag85
ag83
ag51
ag84
ag51
ag84
ag51
ag84
ag51
asaa(lp184
I8
ag39
(g40
tp185
Rp186
g43
(lp187
g45
ag46
ag45
ag46
ag47
ag46
ag47
ag46
ag47
ag45
ag45
ag46
asg48
(lp188
I01
aI01
aI01
aI01
aI01
aI01
aI01
aI01
aI00
aI00
aI01
aI01
asg50
I12
sg51
g54
sg55
(lp189
(g57
I0
g24
tp190
ag60
ag62
ag63
ag66
ag74
ag77
ag78
ag79
a(g76
F1.5707963267948966
g59
tp191
a(g76
F1.5707963267948966
g59
tp192
ag147
asg81
(lp193
g83
ag51
ag83
ag51
ag84
ag51
ag84
ag51
ag83
ag85
ag83
ag51
asg86
(lp194
g83
ag51
ag83
ag51
ag84
ag51
ag84
ag51
ag83
ag85
ag83
ag51
asg88
(lp195
g83
ag51
ag83
ag51
ag84
ag51
ag84
ag51
ag83
ag85
ag83
ag51
asaa(lp196
I9
ag39
(g40
tp197
Rp198
g43
(lp199
g45
ag46
ag45
ag46
ag47
ag46
ag47
ag46
ag47
ag46
asg48
(lp200
I01
aI01
aI01
aI01
aI01
aI01
aI01
aI01
aI01
aI01
asg50
I10
sg51
g54
sg55
(lp201
(g57
I0
g24
tp202
ag60
ag62
ag63
ag66
ag74
ag77
ag78
ag79
ag80
asg81
(lp203
g83
ag51
ag83
ag51
ag84
ag51
ag84
ag51
ag84
ag51
asg86
(lp204
g83
ag51
ag83
ag51
ag84
ag51
ag84
ag51
ag84
ag51
asg88
(lp205
g83
ag51
ag83
ag51
ag84
ag51
ag84
ag51
ag84
ag51
asaatp206
Rp207
aatp208
Rp209
.