ccollections
OrderedDict
p0
((lp1
(lp2
S'combination_dict'
p3
ag0
((lp4
(lp5
S'r_to_g_config'
p6
aS'tl'
p7
aa(lp8
S'num_turns'
p9
aI3
aa(lp10
S'start_direction'
p11
acutils_ms
StartDirection
p12
(I1
tp13
Rp14
aa(lp15
S'assistance_type'
p16
acutils_ms
AssistanceType
p17
(I2
tp18
Rp19
aa(lp20
S'start_mode'
p21
aS'x'
p22
aa(lp23
S'ui_given_a_noise'
p24
aF0.5
aa(lp25
S'um_given_ui_noise'
p26
aF0.7
aa(lp27
S'entropy_threshold'
p28
aF0.9
aatp29
Rp30
aa(lp31
S'data'
p32
accollections
defaultdict
p33
(c__builtin__
list
p34
tp35
Rp36
S'a'
p37
(lp38
S'mode_r'
p39
ag39
ag39
ag39
aS'move_p'
p40
ag40
ag39
ag40
ag40
ag39
ag39
aS'mode_l'
p41
ag41
ag40
ag39
ag41
ag40
ag41
ag39
ag39
ag39
ag39
ag41
ag41
ag40
ag40
ag41
ag39
ag40
ag41
aS'move_n'
p42
ag41
ag39
ag41
ag42
ag41
ag39
ag40
ag41
ag39
ag40
ag41
ag41
ag40
ag41
ag39
ag40
ag40
ag40
ag41
ag39
ag40
ag41
ag39
ag40
ag41
ag41
ag41
ag39
ag41
ag40
ag41
ag39
ag39
ag39
ag41
ag41
ag41
ag42
ag39
ag42
ag39
ag39
ag41
ag42
ag39
ag39
ag39
ag41
ag40
ag39
ag39
ag40
ag41
ag40
ag41
ag42
asS'assistance_match_with_ground_truth'
p43
(lp44
I00
aI00
aI00
aI01
aI00
aI00
aI01
aI00
aI00
aI00
aI00
aI00
aI01
aI00
aI00
aI01
aI00
aI00
aI00
aI00
aI00
aI00
aI00
aI01
aI00
aI00
aI00
aI01
aI01
aI01
aI01
aI00
aI00
aI01
aI00
aI00
aI01
aI00
aI00
aI01
aI00
aI00
aI01
aI00
aI00
aI01
aI00
aI00
aI00
aI00
aI01
aI00
aI00
aI01
aI01
aI00
aI00
aI00
aI00
aI01
aI00
aI00
aI00
aI00
aI00
aI00
aI00
aI01
aI00
aI01
aI00
aI00
aI00
aI01
aI01
aI00
aI00
aI00
aI01
aI00
aI00
aI01
aI00
aI01
aI01
aI01
aI01
asS'total_steps'
p45
I87
sS'sp'
p46
(lp47
(S'p0'
p48
I0
S'x'
p49
tp50
ag50
ag50
a(g48
I0
S'y'
p51
tp52
a(g48
I0
g51
tp53
a(g48
I0
g49
tp54
ag52
ag53
ag54
ag50
a(g48
I0
S't'
p55
tp56
a(g48
I0
g55
tp57
a(g48
I0
g51
tp58
ag54
ag56
ag58
a(g48
I0
g55
tp59
a(g48
I0
g49
tp60
a(g48
I0
g49
tp61
ag50
ag61
ag56
ag57
ag58
ag53
ag59
ag60
ag52
a(S'p1'
p62
I0
g51
tp63
a(g62
I0
g49
tp64
a(S'p2'
p65
I0
g49
tp66
a(g65
I0
g51
tp67
a(S'p3'
p68
I0
g51
tp69
a(g68
I0
g49
tp70
a(g65
I0
g49
tp71
ag67
a(g65
I0
g55
tp72
a(g65
I0
g49
tp73
ag67
ag72
ag73
a(g65
I0
g49
tp74
a(g65
I0
g55
tp75
ag73
ag67
ag72
a(g65
I0
g55
tp76
ag76
ag73
ag67
ag72
ag73
ag67
ag72
a(g65
F1.5707963267948966
g55
tp77
a(g65
F1.5707963267948966
g55
tp78
ag78
a(g65
F1.5707963267948966
g49
tp79
a(g65
F1.5707963267948966
g55
tp80
a(g65
F1.5707963267948966
g51
tp81
a(g62
F1.5707963267948966
g51
tp82
a(g62
F1.5707963267948966
g55
tp83
a(g62
F1.5707963267948966
g55
tp84
ag84
a(g62
F1.5707963267948966
g51
tp85
a(g62
F1.5707963267948966
g51
tp86
ag86
a(g62
F1.5707963267948966
g49
tp87
a(g62
F1.5707963267948966
g55
tp88
a(g62
F1.5707963267948966
g49
tp89
ag88
ag84
ag85
ag87
a(g65
F1.5707963267948966
g49
tp90
a(g65
F1.5707963267948966
g49
tp91
a(g65
F1.5707963267948966
g49
tp92
ag80
ag81
a(g65
F1.5707963267948966
g49
tp93
ag91
a(g65
F1.5707963267948966
g51
tp94
a(g65
F1.5707963267948966
g55
tp95
ag81
a(g68
F1.5707963267948966
g51
tp96
a(g68
F1.5707963267948966
g49
tp97
a(S'p4'
p98
F1.5707963267948966
g49
tp99
asS's'
p100
(lp101
(g48
I0
g22
tp102
ag50
ag50
ag50
ag52
ag53
ag54
ag52
ag53
ag54
ag50
ag56
ag57
ag58
ag54
ag56
ag58
ag59
ag60
ag61
ag50
ag61
ag56
ag57
ag58
ag53
ag59
ag60
ag52
ag63
ag64
ag66
ag67
ag69
ag70
ag71
ag67
ag72
ag73
ag67
ag72
ag73
ag74
ag75
ag73
ag67
ag72
ag76
ag76
ag73
ag67
ag72
ag73
ag67
ag72
ag77
ag78
ag78
ag79
ag80
ag81
ag82
ag83
ag84
ag84
ag85
ag86
ag86
ag87
ag88
ag89
ag88
ag84
ag85
ag87
ag90
ag91
ag92
ag80
ag81
ag93
ag91
ag94
ag95
ag81
ag96
ag97
asS'ui'
p103
(lp104
S'hp'
p105
aS'ss'
p106
ag106
ag105
ag105
ag46
ag105
ag106
ag46
ag105
aS'hs'
p107
ag107
ag107
ag107
ag107
ag107
ag46
ag106
ag46
ag106
ag46
ag107
ag46
ag106
ag106
ag46
ag105
ag105
ag46
ag107
ag105
ag105
ag105
ag107
ag105
ag105
ag107
ag46
ag105
ag105
ag46
ag107
ag107
ag46
ag46
ag105
ag106
ag105
ag105
ag105
ag105
ag105
ag105
ag105
ag46
ag107
ag107
ag46
ag107
ag107
ag105
ag106
ag106
ag105
ag107
ag106
ag106
ag105
ag105
ag105
ag107
ag106
ag107
ag106
ag106
ag105
ag105
ag107
ag107
ag106
ag105
ag105
ag105
ag107
ag46
ag107
ag106
asS'um_before'
p108
(lp109
g106
ag106
ag106
ag105
ag106
ag107
ag105
ag106
ag107
ag106
ag107
ag46
ag107
ag107
ag107
ag107
ag105
ag105
ag46
ag106
ag46
ag107
ag46
ag107
ag106
ag105
ag105
ag105
ag46
ag107
ag106
ag105
ag46
ag107
ag46
ag105
ag105
ag105
ag105
ag105
ag105
ag106
ag107
ag105
ag105
ag105
ag106
ag106
ag105
ag105
ag105
ag105
ag105
ag105
ag46
ag46
ag46
ag105
ag107
ag107
ag106
ag105
ag106
ag106
ag107
ag106
ag106
ag107
ag107
ag105
ag107
ag106
ag107
ag107
ag106
ag106
ag46
ag107
ag107
ag107
ag106
ag105
ag105
ag107
ag46
ag107
ag106
asS'um_after'
p110
(lp111
g106
ag106
ag106
ag105
ag106
ag107
ag105
ag106
ag107
ag106
ag107
ag46
ag107
ag107
ag107
ag107
ag105
ag105
ag46
ag106
ag46
ag107
ag46
ag107
ag106
ag105
ag105
ag105
ag46
ag107
ag106
ag105
ag46
ag107
ag46
ag105
ag105
ag105
ag105
ag105
ag105
ag106
ag107
ag105
ag105
ag105
ag106
ag106
ag105
ag105
ag105
ag105
ag105
ag105
ag46
ag46
ag46
ag105
ag107
ag107
ag106
ag105
ag106
ag106
ag107
ag106
ag106
ag107
ag107
ag105
ag107
ag106
ag107
ag107
ag106
ag106
ag46
ag107
ag107
ag107
ag106
ag105
ag105
ag107
ag46
ag107
ag106
asaa(lp112
S'index'
p113
aI56597
aatp114
Rp115
.