ccollections
OrderedDict
p0
((lp1
(lp2
S'index'
p3
aI3034
aa(lp4
S'combination_dict'
p5
ag0
((lp6
(lp7
S'r_to_g_config'
p8
aS'tr'
p9
aa(lp10
S'num_turns'
p11
aI3
aa(lp12
S'start_direction'
p13
acutils_ms
StartDirection
p14
(I3
tp15
Rp16
aa(lp17
S'assistance_type'
p18
acutils_ms
AssistanceType
p19
(I1
tp20
Rp21
aa(lp22
S'start_mode'
p23
aS't'
p24
aa(lp25
S'ui_given_a_noise'
p26
aF0.7
aa(lp27
S'um_given_ui_noise'
p28
aF0.7
aa(lp29
S'entropy_threshold'
p30
aF0.7
aa(lp31
S'is_assistance'
p32
aI01
aatp33
Rp34
aa(lp35
S'trials'
p36
ag0
((lp37
(lp38
I0
accollections
defaultdict
p39
(c__builtin__
list
p40
tp41
Rp42
S'a'
p43
(lp44
S'mode_r'
p45
aS'move_p'
p46
ag46
aS'mode_l'
p47
ag47
ag45
ag46
ag45
ag45
ag45
ag45
ag45
ag45
ag45
ag47
ag45
ag47
ag47
ag45
ag46
ag45
ag45
ag46
ag47
ag46
ag45
ag45
ag45
ag46
ag47
ag45
ag46
ag45
ag46
ag47
ag47
ag47
ag46
ag47
ag45
ag46
ag47
ag45
ag47
ag46
ag45
ag45
ag45
ag45
ag46
ag47
ag46
ag47
ag46
ag47
ag45
ag46
asS'assistance_match_with_ground_truth'
p48
(lp49
I01
aI00
aI00
aI00
aI00
aI01
aI01
aI00
aI00
aI00
aI00
aI00
aI00
aI00
aI00
aI00
aI00
aI00
aI01
aI00
aI00
aI01
aI01
aI01
aI00
aI00
aI00
aI01
aI00
aI00
aI01
aI00
aI01
aI01
aI00
aI00
aI01
aI00
aI00
aI01
aI00
aI00
aI00
aI01
aI00
aI00
aI00
aI00
aI01
aI00
aI01
aI01
aI01
aI01
aI00
aI01
aI01
asS'total_steps'
p50
I57
sS'sp'
p51
(S'p4'
p52
F1.5707963267948966
S'y'
p53
tp54
sS's'
p55
(lp56
(S'p0'
p57
I0
g24
tp58
a(g57
I0
S'x'
p59
tp60
a(g57
I0
g59
tp61
a(g57
I0
g53
tp62
a(g57
I0
g53
tp63
a(g57
I0
S't'
p64
tp65
ag60
a(S'p1'
p66
I0
g59
tp67
a(g66
I0
g59
tp68
ag68
ag68
ag68
ag68
ag68
a(g66
I0
g64
tp69
a(g66
I0
g59
tp70
ag69
a(g66
I0
g64
tp71
ag70
a(g66
I0
g53
tp72
a(g66
I0
g59
tp73
ag68
ag72
a(S'p2'
p74
I0
g53
tp75
a(g74
I0
g59
tp76
a(g66
I0
g59
tp77
ag68
a(g66
I0
g59
tp78
ag72
a(g66
I0
g64
tp79
ag70
ag72
ag73
ag72
ag75
a(g74
I0
g53
tp80
ag80
ag76
a(g74
I0
g53
tp81
a(g74
I0
g64
tp82
a(g74
I0
g59
tp83
ag81
ag82
a(g74
I0
g53
tp84
ag76
a(g74
I0
g64
tp85
a(g74
I0
g64
tp86
a(g74
I0
g64
tp87
ag87
ag83
ag81
ag76
a(S'p3'
p88
I0
g59
tp89
a(g88
I0
g64
tp90
a(g88
F1.5707963267948966
g64
tp91
a(g88
F1.5707963267948966
g59
tp92
a(g88
F1.5707963267948966
g53
tp93
asS'ui'
p94
(lp95
S'hp'
p96
aS'ss'
p97
aS'hs'
p98
ag98
ag98
ag97
ag51
ag51
ag97
ag96
ag97
ag96
ag98
ag96
ag98
ag98
ag97
ag96
ag96
ag51
ag97
ag96
ag51
ag98
ag96
ag97
ag97
ag96
ag51
ag96
ag97
ag51
ag96
ag51
ag97
ag51
ag98
ag51
ag96
ag97
ag51
ag98
ag98
ag98
ag51
ag96
ag98
ag98
ag96
ag98
ag98
ag51
ag98
ag51
ag97
ag96
ag51
asS'um_before'
p99
(lp100
g96
ag97
ag96
ag97
ag96
ag96
ag51
ag97
ag97
ag97
ag97
ag97
ag97
ag98
ag96
ag98
ag97
ag96
ag96
ag98
ag97
ag96
ag51
ag98
ag97
ag97
ag51
ag96
ag96
ag96
ag96
ag98
ag96
ag51
ag97
ag97
ag98
ag96
ag96
ag96
ag96
ag96
ag98
ag98
ag98
ag97
ag51
ag51
ag96
ag96
ag98
ag51
ag98
ag51
ag96
ag96
ag51
asS'um_after'
p101
(lp102
g96
ag97
ag96
ag97
ag96
ag96
ag51
ag97
ag97
ag97
ag97
ag97
ag97
ag98
ag96
ag98
ag97
ag96
ag96
ag98
ag97
ag96
ag51
ag98
ag97
ag97
ag51
ag96
ag96
ag96
ag96
ag98
ag96
ag51
ag97
ag97
ag98
ag96
ag96
ag96
ag96
ag96
ag98
ag98
ag98
ag97
ag51
ag51
ag96
ag96
ag98
ag51
ag98
ag51
ag96
ag96
ag51
asaa(lp103
I1
ag39
(g40
tp104
Rp105
g43
(lp106
g45
ag46
ag46
ag45
ag45
ag46
ag47
ag47
ag45
ag46
ag45
ag47
ag46
ag47
ag47
ag45
ag47
ag47
ag46
ag47
ag47
ag47
ag45
ag46
ag47
ag47
ag46
ag46
ag47
ag46
ag45
ag47
ag46
ag47
ag46
ag45
ag45
ag46
ag47
ag47
ag45
ag45
ag45
ag45
ag47
ag46
ag45
ag45
ag45
ag45
ag46
ag45
ag45
ag45
ag47
ag46
ag47
ag45
ag45
ag45
ag46
ag47
ag47
ag45
ag47
ag46
ag47
ag46
ag45
ag45
ag46
ag45
ag45
ag47
ag46
ag47
ag47
ag46
ag45
ag47
ag45
ag46
ag45
ag46
ag45
ag47
ag46
ag45
ag46
ag47
ag45
ag45
ag47
ag46
ag47
ag45
ag46
asg48
(lp107
I01
aI00
aI01
aI00
aI01
aI01
aI00
aI00
aI01
aI00
aI00
aI01
aI01
aI00
aI00
aI00
aI00
aI01
aI00
aI00
aI00
aI00
aI01
aI00
aI00
aI01
aI00
aI01
aI01
aI00
aI00
aI00
aI01
aI01
aI00
aI00
aI01
aI00
aI00
aI00
aI00
aI00
aI00
aI00
aI01
aI00
aI00
aI00
aI00
aI01
aI01
aI00
aI00
aI00
aI00
aI01
aI00
aI00
aI00
aI01
aI00
aI00
aI00
aI00
aI01
aI00
aI01
aI00
aI00
aI01
aI00
aI00
aI00
aI01
aI01
aI00
aI01
aI00
aI00
aI00
aI01
aI00
aI01
aI01
aI00
aI00
aI00
aI01
aI01
aI00
aI00
aI00
aI00
aI01
aI00
aI01
aI01
asg50
I97
sg51
g54
sg55
(lp108
(g57
I0
g24
tp109
ag60
ag61
ag67
ag78
ag72
ag75
ag80
ag82
ag83
ag85
ag84
ag76
ag89
a(g88
I0
g59
tp110
a(g88
I0
g53
tp111
a(g88
I0
g59
tp112
ag110
ag90
a(g88
I0
g59
tp113
a(g88
I0
g59
tp114
ag114
ag111
a(g88
I0
g64
tp115
ag113
ag114
ag90
a(g88
I0
g64
tp116
ag91
a(g88
F1.5707963267948966
g53
tp117
a(g88
F1.5707963267948966
g59
tp118
a(g88
F1.5707963267948966
g64
tp119
a(g88
I0
g64
tp120
ag91
ag117
ag118
a(g88
F1.5707963267948966
g59
tp121
ag93
a(g74
F1.5707963267948966
g53
tp122
a(g74
F1.5707963267948966
g53
tp123
a(g74
F1.5707963267948966
g64
tp124
a(g74
F1.5707963267948966
g64
tp125
ag125
a(g74
F1.5707963267948966
g64
tp126
a(g74
F1.5707963267948966
g53
tp127
a(g74
F1.5707963267948966
g59
tp128
a(g74
F1.5707963267948966
g64
tp129
ag126
ag125
ag125
a(g74
F1.5707963267948966
g59
tp130
a(g88
F1.5707963267948966
g59
tp131
a(g88
F1.5707963267948966
g59
tp132
ag121
ag119
ag120
ag91
ag92
ag132
ag121
ag93
ag122
ag123
ag124
ag127
ag128
a(g74
F1.5707963267948966
g53
tp133
ag128
a(g66
F1.5707963267948966
g59
tp134
a(g66
F1.5707963267948966
g59
tp135
a(g66
F1.5707963267948966
g53
tp136
a(g66
F1.5707963267948966
g59
tp137
ag135
a(g66
F1.5707963267948966
g64
tp138
a(g66
F1.5707963267948966
g53
tp139
a(g74
F1.5707963267948966
g53
tp140
a(g74
F1.5707963267948966
g53
tp141
ag128
ag129
ag127
ag124
ag130
ag129
ag130
ag131
ag119
ag120
a(g88
I0
g53
tp142
ag115
ag91
ag92
ag121
ag119
ag120
ag91
ag92
ag93
asg94
(lp143
g98
ag96
ag98
ag97
ag98
ag51
ag97
ag98
ag97
ag51
ag98
ag96
ag98
ag98
ag51
ag96
ag97
ag98
ag98
ag51
ag98
ag98
ag98
ag96
ag98
ag98
ag97
ag51
ag96
ag96
ag96
ag97
ag51
ag96
ag97
ag96
ag96
ag97
ag51
ag96
ag97
ag97
ag97
ag98
ag98
ag51
ag98
ag97
ag97
ag96
ag51
ag98
ag97
ag98
ag96
ag98
ag98
ag97
ag96
ag98
ag97
ag98
ag96
ag98
ag96
ag97
ag98
ag98
ag97
ag96
ag97
ag97
ag98
ag98
ag97
ag98
ag98
ag97
ag96
ag98
ag98
ag51
ag96
ag51
ag98
ag97
ag51
ag98
ag51
ag96
ag98
ag96
ag97
ag51
ag96
ag97
ag51
asg99
(lp144
g96
ag97
ag51
ag51
ag96
ag51
ag97
ag96
ag96
ag98
ag98
ag98
ag51
ag97
ag96
ag98
ag97
ag98
ag96
ag51
ag51
ag96
ag96
ag96
ag51
ag98
ag97
ag51
ag98
ag98
ag98
ag97
ag51
ag98
ag98
ag97
ag96
ag97
ag51
ag96
ag97
ag97
ag51
ag98
ag98
ag98
ag51
ag97
ag97
ag96
ag51
ag51
ag97
ag98
ag97
ag51
ag96
ag51
ag97
ag96
ag97
ag51
ag96
ag98
ag98
ag96
ag98
ag97
ag97
ag96
ag98
ag97
ag98
ag98
ag51
ag97
ag98
ag98
ag98
ag96
ag96
ag98
ag96
ag51
ag98
ag97
ag98
ag96
ag51
ag96
ag97
ag98
ag97
ag51
ag96
ag96
ag51
asg101
(lp145
g96
ag97
ag51
ag51
ag96
ag51
ag97
ag96
ag96
ag98
ag98
ag98
ag51
ag97
ag96
ag98
ag97
ag98
ag96
ag51
ag51
ag96
ag96
ag96
ag51
ag98
ag97
ag51
ag98
ag98
ag98
ag97
ag51
ag98
ag98
ag97
ag96
ag97
ag51
ag96
ag97
ag97
ag51
ag98
ag98
ag98
ag51
ag97
ag97
ag96
ag51
ag51
ag97
ag98
ag97
ag51
ag96
ag51
ag97
ag96
ag97
ag51
ag96
ag98
ag98
ag96
ag98
ag97
ag97
ag96
ag98
ag97
ag98
ag98
ag51
ag97
ag98
ag98
ag98
ag96
ag96
ag98
ag96
ag51
ag98
ag97
ag98
ag96
ag51
ag96
ag97
ag98
ag97
ag51
ag96
ag96
ag51
asaa(lp146
I2
ag39
(g40
tp147
Rp148
g43
(lp149
g45
ag46
ag47
ag47
ag47
ag46
ag47
ag46
ag45
ag45
ag45
ag45
ag47
ag45
ag45
ag45
ag47
ag47
ag46
ag45
ag45
ag47
ag47
ag47
ag47
ag45
ag46
ag45
ag45
ag45
ag45
ag45
ag47
ag46
ag47
ag47
ag46
ag47
ag45
ag46
ag45
ag46
ag47
ag47
ag47
ag47
ag46
ag45
ag47
ag46
ag47
ag46
ag45
ag45
ag45
ag47
ag47
ag47
ag46
ag47
ag46
ag47
ag46
ag45
ag45
ag47
ag47
ag47
ag47
ag47
ag45
ag45
ag45
ag47
ag47
ag46
ag45
ag46
ag45
ag46
ag47
ag47
ag45
ag47
ag46
ag47
ag47
ag47
ag46
ag47
ag45
ag47
ag47
ag46
ag47
ag46
ag47
ag47
ag46
ag45
ag46
asg48
(lp150
I01
aI00
aI00
aI00
aI01
aI00
aI01
aI00
aI00
aI00
aI00
aI00
aI00
aI00
aI00
aI00
aI00
aI01
aI01
aI00
aI00
aI00
aI00
aI00
aI00
aI01
aI00
aI00
aI00
aI00
aI00
aI00
aI01
aI00
aI00
aI01
aI00
aI00
aI01
aI01
aI01
aI00
aI00
aI00
aI00
aI01
aI00
aI00
aI01
aI00
aI01
aI01
aI00
aI00
aI00
aI00
aI00
aI01
aI01
aI01
aI00
aI01
aI00
aI00
aI00
aI00
aI00
aI00
aI00
aI00
aI00
aI00
aI00
aI00
aI01
aI00
aI01
aI00
aI01
aI01
aI00
aI00
aI00
aI01
aI01
aI00
aI00
aI01
aI01
aI00
aI00
aI00
aI00
aI01
aI00
aI01
aI00
aI01
aI00
aI01
aI01
asg50
I101
sg51
g54
sg55
(lp151
(g57
I0
g24
tp152
ag60
ag62
ag63
a(g57
I0
g53
tp153
a(g57
I0
g59
tp154
ag62
ag154
a(g57
I0
g64
tp155
a(g57
I0
g64
tp156
a(g57
I0
g64
tp157
ag156
a(g57
I0
g53
tp158
ag65
ag157
ag157
ag158
ag153
ag154
ag67
ag68
ag69
a(g66
I0
g64
tp159
ag159
ag71
ag70
ag72
ag73
ag78
ag78
ag68
ag78
ag69
a(g66
I0
g53
tp160
ag79
ag159
ag160
a(g57
I0
g53
tp161
ag65
ag60
ag67
ag72
ag79
ag159
ag71
ag159
ag160
ag73
ag69
ag160
ag161
ag154
ag67
ag78
ag78
ag69
ag159
ag159
ag160
ag75
ag76
ag81
ag76
ag85
ag87
ag84
a(g74
I0
g53
tp162
ag162
ag162
ag80
ag82
ag86
ag86
ag84
ag80
ag76
ag85
ag83
ag77
ag72
ag75
ag80
ag82
ag84
ag76
ag89
ag114
ag114
ag90
ag91
ag92
ag119
a(g88
F1.5707963267948966
g64
tp163
ag120
ag91
ag120
ag91
ag163
ag117
ag118
ag93
asg94
(lp164
g96
ag51
ag98
ag98
ag98
ag51
ag96
ag51
ag51
ag97
ag97
ag98
ag96
ag51
ag51
ag98
ag98
ag98
ag51
ag97
ag96
ag98
ag51
ag97
ag96
ag96
ag98
ag98
ag51
ag97
ag51
ag96
ag98
ag51
ag98
ag96
ag97
ag96
ag96
ag97
ag98
ag97
ag97
ag97
ag98
ag98
ag98
ag96
ag98
ag97
ag98
ag97
ag51
ag98
ag98
ag97
ag51
ag98
ag51
ag98
ag51
ag98
ag96
ag97
ag96
ag98
ag98
ag51
ag98
ag98
ag96
ag97
ag51
ag98
ag98
ag98
ag96
ag51
ag96
ag51
ag97
ag98
ag98
ag98
ag97
ag98
ag96
ag98
ag51
ag98
ag98
ag51
ag98
ag51
ag97
ag96
ag51
ag98
ag51
ag97
ag98
asg99
(lp165
g96
ag96
ag97
ag51
ag98
ag96
ag98
ag98
ag97
ag51
ag97
ag98
ag96
ag51
ag51
ag98
ag51
ag98
ag51
ag97
ag98
ag51
ag51
ag97
ag96
ag96
ag98
ag51
ag51
ag97
ag51
ag98
ag98
ag96
ag51
ag98
ag97
ag96
ag96
ag51
ag96
ag96
ag51
ag97
ag51
ag98
ag98
ag98
ag98
ag97
ag98
ag51
ag51
ag51
ag98
ag51
ag51
ag98
ag51
ag98
ag96
ag98
ag98
ag51
ag98
ag51
ag51
ag51
ag97
ag96
ag97
ag97
ag98
ag97
ag98
ag98
ag96
ag97
ag96
ag51
ag97
ag96
ag98
ag98
ag51
ag51
ag51
ag98
ag51
ag96
ag98
ag51
ag97
ag51
ag97
ag51
ag51
ag98
ag98
ag96
ag51
asg101
(lp166
g96
ag96
ag97
ag51
ag98
ag96
ag98
ag98
ag97
ag51
ag97
ag98
ag96
ag51
ag51
ag98
ag51
ag98
ag51
ag97
ag98
ag51
ag51
ag97
ag96
ag96
ag98
ag51
ag51
ag97
ag51
ag98
ag98
ag96
ag51
ag98
ag97
ag96
ag96
ag51
ag96
ag96
ag51
ag97
ag51
ag98
ag98
ag98
ag98
ag97
ag98
ag51
ag51
ag51
ag98
ag51
ag51
ag98
ag51
ag98
ag96
ag98
ag98
ag51
ag98
ag51
ag51
ag51
ag97
ag96
ag97
ag97
ag98
ag97
ag98
ag98
ag96
ag97
ag96
ag51
ag97
ag96
ag98
ag98
ag51
ag51
ag51
ag98
ag51
ag96
ag98
ag51
ag97
ag51
ag97
ag51
ag51
ag98
ag98
ag96
ag51
asaa(lp167
I3
ag39
(g40
tp168
Rp169
g43
(lp170
g45
ag46
ag47
ag46
ag46
ag45
ag46
ag45
ag47
ag47
ag46
ag47
ag46
ag47
ag45
ag46
ag47
ag47
ag45
ag47
ag45
ag47
ag46
ag47
ag46
ag45
ag46
ag45
ag46
ag47
ag47
ag45
ag47
ag47
ag46
asg48
(lp171
I01
aI00
aI01
aI00
aI00
aI01
aI01
aI00
aI00
aI01
aI01
aI01
aI00
aI00
aI01
aI01
aI00
aI00
aI00
aI00
aI00
aI01
aI01
aI01
aI00
aI01
aI00
aI01
aI01
aI00
aI00
aI00
aI00
aI01
aI01
asg50
I35
sg51
g54
sg55
(lp172
(g57
I0
g24
tp173
ag60
ag62
ag154
ag61
ag155
ag60
ag67
ag69
ag159
ag160
ag75
ag76
ag81
ag82
ag83
ag89
ag110
ag111
a(g74
I0
g53
tp174
ag82
ag84
ag76
ag89
ag90
ag142
ag115
ag142
ag115
ag91
ag163
ag92
ag119
ag163
ag117
asg94
(lp175
g98
ag96
ag98
ag97
ag51
ag96
ag51
ag98
ag97
ag98
ag97
ag98
ag51
ag96
ag96
ag51
ag96
ag98
ag97
ag96
ag98
ag98
ag51
ag96
ag98
ag97
ag98
ag98
ag51
ag97
ag96
ag96
ag98
ag98
ag97
asg99
(lp176
g96
ag96
ag98
ag97
ag98
ag96
ag51
ag98
ag51
ag98
ag51
ag98
ag96
ag96
ag96
ag51
ag97
ag96
ag97
ag96
ag98
ag98
ag51
ag98
ag98
ag96
ag98
ag96
ag51
ag51
ag96
ag98
ag51
ag98
ag51
asg101
(lp177
g96
ag96
ag98
ag97
ag98
ag96
ag51
ag98
ag51
ag98
ag51
ag98
ag96
ag96
ag96
ag51
ag97
ag96
ag97
ag96
ag98
ag98
ag51
ag98
ag98
ag96
ag98
ag96
ag51
ag51
ag96
ag98
ag51
ag98
ag51
asaa(lp178
I4
ag39
(g40
tp179
Rp180
g43
(lp181
g45
ag46
ag47
ag45
ag46
ag47
ag45
ag47
ag47
ag46
ag46
ag45
ag46
ag47
ag47
ag47
ag45
ag45
ag46
ag47
ag45
ag46
ag46
ag47
ag46
ag46
ag45
ag46
ag47
ag47
ag46
ag46
ag47
ag45
ag46
ag47
ag47
ag47
ag46
ag47
ag46
ag47
ag46
ag46
ag47
ag46
ag47
ag47
ag46
ag45
ag47
ag47
ag45
ag45
ag45
ag46
ag47
ag45
ag45
ag45
ag45
ag46
ag47
ag46
ag46
ag45
ag47
ag47
ag45
ag45
ag45
ag45
ag47
ag47
ag47
ag46
ag47
ag45
ag45
ag47
ag46
ag45
ag46
ag47
ag45
ag45
ag46
ag46
ag46
ag45
ag45
ag45
ag46
ag45
ag45
ag45
ag45
ag45
ag45
ag46
ag47
ag47
ag47
ag47
ag46
ag46
ag46
ag47
ag47
ag47
ag45
ag45
ag45
ag45
ag46
ag47
ag47
ag46
ag47
ag45
ag47
ag46
ag45
ag47
ag46
ag47
ag46
ag47
ag47
ag47
ag45
ag47
ag47
ag47
ag47
ag46
ag47
ag47
ag47
ag47
ag46
ag47
ag46
ag47
ag47
ag46
ag47
ag46
ag46
ag47
ag45
ag46
ag47
ag47
ag45
ag47
ag45
ag45
ag47
ag45
ag46
ag47
ag46
ag47
ag45
ag45
ag45
ag45
ag45
ag47
ag47
ag45
ag47
ag46
ag45
ag45
ag47
ag47
ag46
ag45
ag47
ag45
ag46
ag47
ag46
ag46
ag47
ag47
ag46
ag46
ag47
ag47
ag46
ag47
ag45
ag47
ag47
ag45
ag46
asg48
(lp182
I01
aI00
aI00
aI01
aI00
aI00
aI00
aI00
aI01
aI00
aI01
aI01
aI01
aI00
aI00
aI00
aI00
aI01
aI01
aI00
aI01
aI00
aI01
aI00
aI00
aI00
aI01
aI00
aI00
aI01
aI00
aI00
aI00
aI01
aI00
aI00
aI00
aI01
aI01
aI01
aI00
aI00
aI00
aI01
aI00
aI00
aI00
aI01
aI00
aI00
aI00
aI00
aI00
aI00
aI01
aI00
aI00
aI00
aI00
aI00
aI01
aI01
aI01
aI00
aI00
aI00
aI00
aI00
aI00
aI00
aI00
aI00
aI00
aI00
aI01
aI00
aI00
aI00
aI00
aI01
aI00
aI01
aI00
aI00
aI00
aI01
aI00
aI00
aI00
aI00
aI00
aI01
aI00
aI00
aI00
aI00
aI00
aI00
aI01
aI00
aI00
aI00
aI00
aI01
aI00
aI00
aI00
aI00
aI00
aI00
aI00
aI00
aI00
aI01
aI00
aI00
aI01
aI00
aI00
aI00
aI01
aI01
aI00
aI01
aI00
aI01
aI00
aI00
aI00
aI00
aI00
aI00
aI00
aI00
aI01
aI00
aI00
aI00
aI00
aI01
aI00
aI01
aI01
aI00
aI01
aI01
aI01
aI00
aI01
aI00
aI01
aI00
aI00
aI00
aI00
aI00
aI00
aI00
aI00
aI01
aI00
aI01
aI00
aI00
aI00
aI00
aI00
aI00
aI00
aI00
aI00
aI00
aI01
aI01
aI00
aI00
aI00
aI01
aI00
aI00
aI00
aI01
aI00
aI00
aI00
aI00
aI00
aI01
aI00
aI00
aI00
aI01
aI01
aI00
aI00
aI00
aI00
aI01
aI01
asg50
I199
sg51
g54
sg55
(lp183
(g57
I0
g24
tp184
ag60
ag62
ag65
ag60
ag62
ag65
ag158
ag63
ag154
ag61
ag67
ag72
ag75
ag80
ag162
ag82
ag86
ag83
ag89
ag111
ag115
ag116
ag91
ag120
ag116
ag142
ag115
ag113
ag110
ag90
ag116
ag113
ag111
ag115
ag113
ag110
ag114
ag90
ag91
ag117
a(g88
F1.5707963267948966
g64
tp185
ag120
ag116
ag91
ag120
ag113
ag110
ag90
ag142
ag174
ag80
ag82
ag87
ag87
ag83
ag81
ag82
ag86
ag87
ag87
ag83
ag89
ag90
ag116
ag142
ag174
ag80
ag82
ag86
ag86
ag86
ag84
ag162
ag162
ag76
ag81
ag82
ag86
ag84
ag76
ag77
ag72
ag161
ag65
ag156
ag60
ag61
ag61
ag155
ag157
ag156
ag60
ag155
ag156
ag156
ag156
ag156
ag156
ag60
ag62
ag153
ag63
ag63
ag154
ag61
ag61
ag62
ag153
ag63
ag65
ag156
ag156
ag157
ag60
ag62
ag153
ag154
ag62
ag65
ag158
ag154
ag67
ag69
ag160
ag79
ag160
ag79
ag159
ag71
ag70
ag69
ag71
ag71
ag159
ag160
ag79
ag159
ag159
ag71
ag160
ag79
ag160
ag75
ag80
ag76
ag89
ag90
ag116
ag91
ag92
ag93
ag122
ag141
ag124
ag127
ag124
ag125
ag127
ag124
ag130
ag133
ag128
ag133
ag124
ag125
ag126
ag126
ag126
ag127
ag123
ag124
ag127
ag128
ag131
ag132
ag119
ag163
ag117
ag118
ag119
ag92
ag93
ag185
ag120
ag116
ag113
ag114
ag90
ag116
ag113
ag110
ag90
ag91
ag92
ag119
ag163
ag92
ag93
asg94
(lp186
g96
ag51
ag96
ag96
ag51
ag96
ag51
ag97
ag98
ag96
ag51
ag51
ag97
ag97
ag51
ag98
ag97
ag98
ag51
ag98
ag98
ag51
ag98
ag97
ag96
ag51
ag51
ag51
ag97
ag98
ag98
ag97
ag98
ag96
ag51
ag98
ag97
ag98
ag51
ag98
ag51
ag97
ag97
ag51
ag96
ag96
ag97
ag98
ag96
ag97
ag97
ag96
ag98
ag97
ag96
ag51
ag96
ag96
ag51
ag98
ag96
ag98
ag98
ag96
ag98
ag97
ag97
ag96
ag98
ag96
ag97
ag51
ag98
ag97
ag98
ag96
ag96
ag96
ag98
ag98
ag51
ag51
ag97
ag98
ag97
ag98
ag97
ag97
ag51
ag51
ag96
ag96
ag98
ag96
ag96
ag97
ag96
ag96
ag98
ag51
ag97
ag96
ag97
ag98
ag97
ag97
ag97
ag98
ag97
ag98
ag96
ag97
ag97
ag96
ag51
ag98
ag98
ag51
ag96
ag98
ag96
ag51
ag96
ag97
ag51
ag98
ag51
ag97
ag98
ag98
ag96
ag98
ag98
ag97
ag98
ag51
ag97
ag51
ag98
ag98
ag51
ag98
ag51
ag51
ag98
ag51
ag98
ag51
ag51
ag96
ag96
ag98
ag51
ag96
ag98
ag96
ag97
ag96
ag96
ag96
ag97
ag97
ag51
ag97
ag96
ag97
ag51
ag97
ag98
ag97
ag98
ag98
ag96
ag51
ag98
ag96
ag97
ag98
ag51
ag98
ag96
ag98
ag51
ag97
ag97
ag98
ag97
ag98
ag97
ag96
ag98
ag96
ag98
ag97
ag97
ag98
ag51
ag96
ag97
asg99
(lp187
g96
ag96
ag96
ag96
ag96
ag96
ag98
ag97
ag98
ag97
ag51
ag96
ag51
ag97
ag51
ag96
ag97
ag96
ag51
ag96
ag96
ag97
ag51
ag97
ag97
ag98
ag96
ag96
ag97
ag98
ag97
ag96
ag96
ag96
ag96
ag97
ag51
ag98
ag51
ag98
ag96
ag97
ag97
ag51
ag97
ag96
ag97
ag98
ag98
ag97
ag97
ag96
ag51
ag51
ag96
ag96
ag96
ag97
ag51
ag51
ag96
ag51
ag98
ag97
ag98
ag97
ag97
ag96
ag97
ag97
ag97
ag98
ag51
ag51
ag98
ag96
ag96
ag97
ag98
ag98
ag97
ag96
ag97
ag96
ag97
ag96
ag97
ag97
ag98
ag51
ag97
ag96
ag98
ag97
ag97
ag97
ag97
ag97
ag96
ag96
ag51
ag97
ag97
ag98
ag97
ag97
ag96
ag51
ag97
ag96
ag97
ag97
ag51
ag96
ag96
ag51
ag98
ag96
ag96
ag98
ag98
ag51
ag98
ag98
ag96
ag98
ag96
ag51
ag97
ag96
ag98
ag97
ag97
ag51
ag98
ag96
ag51
ag51
ag97
ag98
ag96
ag98
ag51
ag97
ag98
ag51
ag98
ag97
ag51
ag96
ag96
ag97
ag97
ag96
ag98
ag96
ag97
ag98
ag96
ag96
ag96
ag98
ag96
ag96
ag97
ag51
ag51
ag51
ag98
ag51
ag96
ag98
ag98
ag51
ag51
ag98
ag51
ag98
ag98
ag98
ag96
ag96
ag96
ag97
ag97
ag96
ag51
ag98
ag97
ag96
ag97
ag98
ag51
ag96
ag98
ag51
ag96
ag96
ag51
asg101
(lp188
g96
ag96
ag96
ag96
ag96
ag96
ag98
ag97
ag98
ag97
ag51
ag96
ag51
ag97
ag51
ag96
ag97
ag96
ag51
ag96
ag96
ag97
ag51
ag97
ag97
ag98
ag96
ag96
ag97
ag98
ag97
ag96
ag96
ag96
ag96
ag97
ag51
ag98
ag51
ag98
ag96
ag97
ag97
ag51
ag97
ag96
ag97
ag98
ag98
ag97
ag97
ag96
ag51
ag51
ag96
ag96
ag96
ag97
ag51
ag51
ag96
ag51
ag98
ag97
ag98
ag97
ag97
ag96
ag97
ag97
ag97
ag98
ag51
ag51
ag98
ag96
ag96
ag97
ag98
ag98
ag97
ag96
ag97
ag96
ag97
ag96
ag97
ag97
ag98
ag51
ag97
ag96
ag98
ag97
ag97
ag97
ag97
ag97
ag96
ag96
ag51
ag97
ag97
ag98
ag97
ag97
ag96
ag51
ag97
ag96
ag97
ag97
ag51
ag96
ag96
ag51
ag98
ag96
ag96
ag98
ag98
ag51
ag98
ag98
ag96
ag98
ag96
ag51
ag97
ag96
ag98
ag97
ag97
ag51
ag98
ag96
ag51
ag51
ag97
ag98
ag96
ag98
ag51
ag97
ag98
ag51
ag98
ag97
ag51
ag96
ag96
ag97
ag97
ag96
ag98
ag96
ag97
ag98
ag96
ag96
ag96
ag98
ag96
ag96
ag97
ag51
ag51
ag51
ag98
ag51
ag96
ag98
ag98
ag51
ag51
ag98
ag51
ag98
ag98
ag98
ag96
ag96
ag96
ag97
ag97
ag96
ag51
ag98
ag97
ag96
ag97
ag98
ag51
ag96
ag98
ag51
ag96
ag96
ag51
asaa(lp189
I5
ag39
(g40
tp190
Rp191
g43
(lp192
g45
ag47
ag46
ag47
ag47
ag47
ag47
ag47
ag45
ag46
ag45
ag45
ag47
ag47
ag46
ag46
ag47
ag47
ag47
ag47
ag46
ag47
ag47
ag45
ag46
ag47
ag45
ag45
ag46
ag45
ag45
ag46
ag46
ag45
ag45
ag45
ag45
ag45
ag45
ag46
ag45
ag47
ag47
ag45
ag45
ag45
ag46
ag47
ag45
ag45
ag45
ag46
ag46
ag47
ag46
ag45
ag46
ag47
ag47
ag45
ag46
ag47
ag47
ag47
ag45
ag47
ag46
ag45
ag47
ag45
ag47
ag46
ag47
ag47
ag45
ag47
ag47
ag45
ag47
ag47
ag47
ag46
ag47
ag45
ag46
ag47
ag45
asg48
(lp193
I00
aI01
aI00
aI00
aI00
aI00
aI00
aI00
aI01
aI00
aI00
aI00
aI00
aI01
aI00
aI00
aI00
aI00
aI00
aI01
aI00
aI00
aI00
aI01
aI00
aI00
aI00
aI01
aI00
aI00
aI01
aI00
aI01
aI00
aI00
aI00
aI00
aI00
aI01
aI00
aI00
aI00
aI00
aI00
aI00
aI01
aI00
aI00
aI00
aI00
aI01
aI00
aI00
aI01
aI01
aI01
aI01
aI00
aI00
aI01
aI01
aI00
aI00
aI00
aI00
aI01
aI00
aI00
aI00
aI00
aI01
aI01
aI00
aI00
aI00
aI00
aI00
aI00
aI00
aI00
aI01
aI00
aI00
aI01
aI01
aI00
aI00
asg50
I87
sg51
(g52
I0
g53
tp194
sg55
(lp195
(g57
I0
g24
tp196
ag158
ag154
ag62
ag153
ag63
ag153
ag153
ag65
ag60
ag155
ag156
ag158
ag63
ag154
ag61
ag62
ag63
ag63
ag153
ag154
ag62
ag153
ag65
ag60
ag62
ag65
ag157
ag60
ag155
ag156
ag60
ag61
ag67
ag68
ag68
ag68
ag68
ag78
ag72
ag73
ag69
ag71
ag70
ag78
ag68
ag72
ag161
ag65
ag156
ag157
ag60
ag61
ag62
ag154
ag67
ag72
ag75
ag162
ag82
ag83
ag89
ag114
ag110
ag111
ag174
ag76
ag85
ag84
ag82
ag84
ag76
ag89
ag110
ag111
ag112
ag114
ag111
ag174
ag162
ag162
ag76
ag81
ag82
ag83
ag89
ag111
asg94
(lp197
g98
ag98
ag97
ag98
ag97
ag97
ag97
ag98
ag96
ag51
ag97
ag51
ag96
ag98
ag96
ag51
ag97
ag97
ag98
ag98
ag96
ag98
ag96
ag96
ag96
ag96
ag98
ag96
ag51
ag97
ag96
ag97
ag51
ag97
ag97
ag96
ag98
ag98
ag96
ag51
ag98
ag98
ag98
ag98
ag97
ag96
ag51
ag98
ag96
ag98
ag98
ag98
ag97
ag98
ag97
ag96
ag51
ag98
ag96
ag98
ag98
ag98
ag97
ag51
ag98
ag98
ag51
ag96
ag98
ag98
ag98
ag51
ag97
ag96
ag96
ag98
ag96
ag98
ag98
ag98
ag51
ag51
ag51
ag96
ag98
ag96
ag97
asg99
(lp198
g98
ag98
ag96
ag51
ag97
ag51
ag51
ag96
ag96
ag98
ag97
ag98
ag97
ag98
ag97
ag96
ag97
ag97
ag51
ag98
ag96
ag51
ag96
ag96
ag96
ag96
ag51
ag96
ag98
ag97
ag96
ag97
ag51
ag97
ag97
ag97
ag97
ag51
ag96
ag98
ag98
ag97
ag96
ag51
ag97
ag96
ag97
ag96
ag97
ag51
ag96
ag97
ag96
ag98
ag51
ag96
ag51
ag51
ag96
ag96
ag51
ag51
ag97
ag96
ag97
ag98
ag98
ag98
ag96
ag98
ag98
ag51
ag97
ag96
ag98
ag51
ag96
ag97
ag51
ag51
ag98
ag96
ag96
ag96
ag51
ag96
ag51
asg101
(lp199
g98
ag98
ag96
ag51
ag97
ag51
ag51
ag96
ag96
ag98
ag97
ag98
ag97
ag98
ag97
ag96
ag97
ag97
ag51
ag98
ag96
ag51
ag96
ag96
ag96
ag96
ag51
ag96
ag98
ag97
ag96
ag97
ag51
ag97
ag97
ag97
ag97
ag51
ag96
ag98
ag98
ag97
ag96
ag51
ag97
ag96
ag97
ag96
ag97
ag51
ag96
ag97
ag96
ag98
ag51
ag96
ag51
ag51
ag96
ag96
ag51
ag51
ag97
ag96
ag97
ag98
ag98
ag98
ag96
ag98
ag98
ag51
ag97
ag96
ag98
ag51
ag96
ag97
ag51
ag51
ag98
ag96
ag96
ag96
ag51
ag96
ag51
asaa(lp200
I6
ag39
(g40
tp201
Rp202
g43
(lp203
g45
ag45
ag45
ag45
ag46
ag45
ag46
ag45
ag46
ag47
ag46
ag46
ag46
ag47
ag46
ag45
ag45
ag45
ag46
ag46
ag45
ag46
ag47
ag47
ag46
ag46
ag45
ag46
ag47
ag47
ag47
ag45
ag45
ag45
ag46
ag47
ag47
ag45
ag45
ag46
ag47
ag46
ag47
ag47
ag47
ag47
ag47
ag46
ag47
ag45
ag46
ag46
ag46
ag45
ag46
ag47
ag45
ag46
ag47
ag47
ag46
ag45
ag47
ag46
ag45
ag45
ag47
ag47
ag46
ag45
ag45
ag46
ag47
ag46
ag45
ag47
ag47
ag46
ag47
ag47
ag46
ag47
ag45
asg48
(lp204
I00
aI00
aI00
aI01
aI01
aI01
aI00
aI01
aI00
aI01
aI00
aI00
aI00
aI01
aI00
aI00
aI00
aI01
aI00
aI01
aI01
aI00
aI00
aI01
aI00
aI01
aI01
aI01
aI00
aI00
aI00
aI00
aI00
aI01
aI00
aI00
aI00
aI00
aI01
aI01
aI01
aI00
aI00
aI00
aI00
aI00
aI01
aI00
aI00
aI01
aI00
aI00
aI00
aI01
aI00
aI00
aI01
aI01
aI00
aI00
aI00
aI00
aI01
aI00
aI00
aI00
aI00
aI01
aI00
aI00
aI01
aI00
aI01
aI01
aI00
aI00
aI01
aI01
aI00
aI01
aI01
aI00
aI00
asg50
I83
sg51
g194
sg55
(lp205
(g57
I0
g24
tp206
ag156
ag156
ag156
ag60
ag67
ag72
ag73
ag72
ag161
ag154
ag61
ag61
ag62
ag154
ag155
ag157
ag156
ag60
ag61
ag67
ag72
ag161
ag153
ag154
ag61
ag67
ag72
ag75
ag80
ag162
ag82
ag86
ag86
ag83
ag81
ag80
ag82
ag87
ag83
ag89
ag90
ag113
ag110
ag110
ag114
ag114
ag90
ag113
ag111
ag115
ag116
ag116
ag142
ag115
ag113
ag111
ag115
ag91
ag163
ag120
ag142
ag174
ag76
ag85
ag86
ag84
ag80
ag76
ag77
ag78
ag72
ag161
ag154
ag67
ag69
ag159
ag160
ag75
ag80
ag76
ag89
ag111
asg94
(lp207
g97
ag97
ag96
ag96
ag51
ag96
ag51
ag98
ag96
ag96
ag98
ag97
ag51
ag98
ag96
ag98
ag97
ag98
ag97
ag97
ag98
ag97
ag97
ag98
ag97
ag51
ag97
ag51
ag97
ag98
ag98
ag97
ag96
ag96
ag51
ag97
ag51
ag98
ag96
ag51
ag98
ag51
ag97
ag97
ag51
ag97
ag98
ag51
ag98
ag96
ag97
ag97
ag98
ag96
ag51
ag97
ag96
ag51
ag51
ag96
ag51
ag96
ag98
ag51
ag97
ag98
ag97
ag51
ag97
ag98
ag98
ag51
ag98
ag98
ag98
ag97
ag98
ag51
ag96
ag98
ag51
ag98
ag97
asg99
(lp208
g97
ag97
ag97
ag96
ag51
ag96
ag98
ag96
ag97
ag98
ag97
ag97
ag96
ag98
ag98
ag51
ag97
ag96
ag97
ag51
ag96
ag97
ag51
ag98
ag97
ag51
ag96
ag51
ag97
ag51
ag96
ag97
ag97
ag96
ag96
ag97
ag96
ag51
ag96
ag51
ag98
ag96
ag97
ag97
ag51
ag51
ag98
ag96
ag96
ag96
ag97
ag97
ag98
ag96
ag96
ag96
ag96
ag51
ag51
ag97
ag98
ag97
ag98
ag98
ag97
ag98
ag97
ag98
ag97
ag51
ag96
ag97
ag98
ag51
ag98
ag51
ag98
ag51
ag97
ag98
ag51
ag96
ag51
asg101
(lp209
g97
ag97
ag97
ag96
ag51
ag96
ag98
ag96
ag97
ag98
ag97
ag97
ag96
ag98
ag98
ag51
ag97
ag96
ag97
ag51
ag96
ag97
ag51
ag98
ag97
ag51
ag96
ag51
ag97
ag51
ag96
ag97
ag97
ag96
ag96
ag97
ag96
ag51
ag96
ag51
ag98
ag96
ag97
ag97
ag51
ag51
ag98
ag96
ag96
ag96
ag97
ag97
ag98
ag96
ag96
ag96
ag96
ag51
ag51
ag97
ag98
ag97
ag98
ag98
ag97
ag98
ag97
ag98
ag97
ag51
ag96
ag97
ag98
ag51
ag98
ag51
ag98
ag51
ag97
ag98
ag51
ag96
ag51
asaa(lp210
I7
ag39
(g40
tp211
Rp212
g43
(lp213
g45
ag46
ag47
ag45
ag46
ag47
ag47
ag47
ag47
ag47
ag47
ag46
ag46
ag46
ag46
ag46
ag45
ag46
ag45
ag46
ag45
ag47
ag46
ag47
ag46
ag47
ag46
ag47
ag46
ag47
ag45
ag45
ag45
ag45
ag46
ag47
ag46
ag45
ag47
ag46
ag45
ag45
ag46
ag45
ag47
ag47
ag47
ag45
ag46
ag45
ag46
ag47
ag47
ag47
ag45
ag45
ag46
ag47
ag46
ag45
ag47
ag45
ag46
ag47
ag47
ag46
ag45
ag47
ag46
ag47
ag45
ag46
ag47
ag46
asg48
(lp214
I01
aI00
aI00
aI01
aI00
aI00
aI00
aI00
aI00
aI00
aI01
aI00
aI00
aI00
aI00
aI00
aI01
aI01
aI01
aI00
aI00
aI01
aI00
aI01
aI00
aI01
aI01
aI01
aI00
aI00
aI00
aI00
aI00
aI01
aI01
aI01
aI00
aI00
aI01
aI00
aI00
aI01
aI00
aI00
aI00
aI00
aI00
aI01
aI00
aI01
aI01
aI00
aI00
aI00
aI00
aI01
aI00
aI01
aI00
aI00
aI00
aI01
aI01
aI00
aI01
aI00
aI00
aI01
aI01
aI00
aI01
aI01
aI01
aI01
asg50
I74
sg51
g54
sg55
(lp215
(g57
I0
g24
tp216
ag60
ag62
ag65
ag60
ag62
ag153
ag63
ag63
ag63
ag63
ag154
ag61
ag61
ag61
ag61
ag155
ag60
ag67
ag72
ag73
ag69
ag160
ag79
ag160
ag79
ag160
ag75
ag76
ag81
ag82
ag87
ag87
ag86
ag83
ag89
ag90
ag142
ag174
ag76
ag77
ag78
ag72
ag73
ag69
ag71
ag71
ag70
ag72
ag73
ag72
ag75
ag162
ag80
ag82
ag86
ag83
ag81
ag76
ag85
ag84
ag82
ag83
ag89
ag114
ag90
ag142
ag174
ag76
ag89
ag111
ag115
ag91
ag117
asg94
(lp217
g96
ag51
ag51
ag96
ag51
ag98
ag98
ag97
ag97
ag97
ag98
ag51
ag97
ag97
ag97
ag51
ag97
ag51
ag96
ag51
ag96
ag98
ag51
ag98
ag51
ag98
ag51
ag98
ag51
ag98
ag51
ag97
ag98
ag96
ag51
ag98
ag98
ag97
ag51
ag97
ag51
ag98
ag98
ag98
ag97
ag96
ag98
ag96
ag96
ag96
ag51
ag97
ag97
ag96
ag97
ag96
ag97
ag98
ag51
ag96
ag96
ag98
ag97
ag51
ag96
ag97
ag97
ag98
ag98
ag96
ag96
ag51
ag98
ag51
asg99
(lp218
g96
ag96
ag96
ag96
ag96
ag51
ag97
ag97
ag97
ag97
ag98
ag97
ag97
ag97
ag97
ag98
ag96
ag51
ag96
ag98
ag98
ag98
ag96
ag98
ag96
ag98
ag51
ag98
ag96
ag96
ag51
ag51
ag97
ag96
ag51
ag98
ag98
ag97
ag98
ag97
ag51
ag96
ag98
ag98
ag97
ag97
ag96
ag96
ag98
ag96
ag51
ag51
ag97
ag96
ag97
ag96
ag96
ag98
ag98
ag98
ag96
ag96
ag51
ag51
ag98
ag98
ag97
ag98
ag51
ag96
ag96
ag51
ag98
ag51
asg101
(lp219
g96
ag96
ag96
ag96
ag96
ag51
ag97
ag97
ag97
ag97
ag98
ag97
ag97
ag97
ag97
ag98
ag96
ag51
ag96
ag98
ag98
ag98
ag96
ag98
ag96
ag98
ag51
ag98
ag96
ag96
ag51
ag51
ag97
ag96
ag51
ag98
ag98
ag97
ag98
ag97
ag51
ag96
ag98
ag98
ag97
ag97
ag96
ag96
ag98
ag96
ag51
ag51
ag97
ag96
ag97
ag96
ag96
ag98
ag98
ag98
ag96
ag96
ag51
ag51
ag98
ag98
ag97
ag98
ag51
ag96
ag96
ag51
ag98
ag51
asaa(lp220
I8
ag39
(g40
tp221
Rp222
g43
(lp223
g45
ag46
ag46
ag46
ag45
ag47
ag45
ag45
ag45
ag46
ag47
ag45
ag45
ag45
ag47
ag45
ag47
ag45
ag47
ag47
ag47
ag47
ag47
ag45
ag46
ag47
ag47
ag47
ag47
ag45
ag46
ag47
ag45
ag46
ag47
ag46
ag45
asg48
(lp224
I01
aI00
aI00
aI01
aI00
aI00
aI00
aI00
aI01
aI00
aI00
aI00
aI00
aI00
aI00
aI00
aI00
aI00
aI00
aI00
aI00
aI00
aI00
aI01
aI01
aI00
aI00
aI00
aI00
aI01
aI01
aI00
aI01
aI01
aI00
aI00
aI00
asg50
I37
sg51
g194
sg55
(lp225
(g57
I0
g24
tp226
ag60
ag61
ag61
ag67
ag69
ag70
ag78
ag68
ag72
ag79
ag70
ag68
ag68
ag69
ag70
ag69
ag70
ag69
ag159
ag159
ag159
ag71
ag70
ag72
ag75
ag80
ag162
ag162
ag82
ag83
ag89
ag111
ag115
ag91
ag120
ag142
asg94
(lp227
g96
ag97
ag51
ag97
ag98
ag96
ag98
ag97
ag96
ag51
ag98
ag97
ag96
ag98
ag98
ag96
ag51
ag97
ag98
ag98
ag98
ag97
ag96
ag98
ag51
ag97
ag98
ag98
ag96
ag96
ag51
ag98
ag96
ag51
ag97
ag98
ag51
asg99
(lp228
g96
ag97
ag97
ag51
ag98
ag96
ag51
ag97
ag96
ag96
ag96
ag97
ag97
ag98
ag96
ag98
ag96
ag98
ag51
ag51
ag51
ag97
ag96
ag96
ag51
ag97
ag51
ag51
ag96
ag96
ag51
ag96
ag96
ag51
ag97
ag98
ag51
asg101
(lp229
g96
ag97
ag97
ag51
ag98
ag96
ag51
ag97
ag96
ag96
ag96
ag97
ag97
ag98
ag96
ag98
ag96
ag98
ag51
ag51
ag51
ag97
ag96
ag96
ag51
ag97
ag51
ag51
ag96
ag96
ag51
ag96
ag96
ag51
ag97
ag98
ag51
asaa(lp230
I9
ag39
(g40
tp231
Rp232
g43
(lp233
g45
ag47
ag45
ag47
ag47
ag45
ag47
ag47
ag47
ag47
ag46
ag47
ag45
ag45
ag45
ag46
ag46
ag47
ag45
ag45
ag46
ag47
ag45
ag47
ag46
ag47
ag47
ag47
ag47
ag45
ag46
ag45
ag45
ag45
ag45
ag45
ag46
ag45
ag45
ag45
ag46
ag47
ag45
ag46
ag47
ag46
ag45
ag47
ag45
ag47
ag45
ag45
ag45
ag46
ag45
ag45
ag47
ag46
ag47
ag46
ag47
ag47
ag46
ag47
ag47
ag46
ag47
ag47
ag47
ag45
ag47
ag46
ag45
ag46
ag45
ag45
ag47
ag45
ag46
ag47
ag45
ag45
ag46
ag47
ag47
ag47
ag45
ag46
ag47
ag45
ag47
ag45
ag46
ag47
ag47
ag46
ag47
ag46
asg48
(lp234
I00
aI00
aI00
aI00
aI00
aI00
aI00
aI00
aI00
aI01
aI00
aI00
aI00
aI00
aI01
aI00
aI00
aI00
aI00
aI01
aI00
aI00
aI00
aI01
aI00
aI00
aI00
aI00
aI00
aI01
aI01
aI00
aI00
aI00
aI00
aI01
aI00
aI00
aI00
aI01
aI01
aI00
aI01
aI01
aI01
aI00
aI00
aI00
aI00
aI00
aI00
aI00
aI01
aI00
aI00
aI00
aI01
aI01
aI01
aI01
aI00
aI00
aI01
aI00
aI00
aI00
aI00
aI00
aI00
aI00
aI01
aI00
aI01
aI00
aI00
aI00
aI00
aI01
aI01
aI00
aI00
aI01
aI01
aI00
aI00
aI00
aI01
aI01
aI00
aI00
aI00
aI01
aI00
aI00
aI01
aI00
aI01
aI01
asg50
I98
sg51
g54
sg55
(lp235
(g57
I0
g24
tp236
ag158
ag65
ag158
ag63
ag65
ag158
ag63
ag153
ag153
ag154
ag62
ag65
ag157
ag156
ag60
ag61
ag62
ag65
ag156
ag60
ag62
ag65
ag158
ag154
ag62
ag153
ag153
ag63
ag65
ag60
ag67
ag68
ag68
ag78
ag68
ag72
ag73
ag68
ag68
ag72
ag75
ag82
ag83
ag89
ag90
ag142
ag174
ag82
ag84
ag82
ag86
ag86
ag83
ag85
ag86
ag84
ag76
ag89
ag90
ag91
ag163
ag120
ag91
ag163
ag120
ag113
ag114
ag114
ag111
ag174
ag76
ag77
ag72
ag73
ag68
ag69
ag70
ag72
ag75
ag82
ag86
ag83
ag89
ag114
ag114
ag111
ag115
ag91
ag92
ag119
ag92
ag93
ag185
ag163
ag117
ag185
ag117
asg94
(lp237
g51
ag96
ag51
ag97
ag98
ag97
ag97
ag97
ag97
ag98
ag51
ag98
ag98
ag97
ag96
ag97
ag51
ag96
ag97
ag96
ag51
ag98
ag98
ag98
ag51
ag51
ag98
ag97
ag98
ag98
ag51
ag97
ag98
ag98
ag96
ag96
ag98
ag96
ag97
ag96
ag51
ag98
ag96
ag97
ag98
ag51
ag97
ag96
ag51
ag96
ag97
ag97
ag96
ag51
ag97
ag96
ag98
ag51
ag96
ag51
ag97
ag96
ag51
ag98
ag97
ag51
ag97
ag51
ag96
ag97
ag51
ag97
ag96
ag51
ag51
ag51
ag98
ag96
ag51
ag98
ag96
ag98
ag51
ag98
ag97
ag96
ag96
ag98
ag51
ag96
ag51
ag96
ag97
ag98
ag98
ag51
ag98
ag51
asg99
(lp238
g98
ag96
ag98
ag97
ag96
ag98
ag97
ag51
ag51
ag98
ag96
ag96
ag51
ag97
ag96
ag97
ag96
ag96
ag97
ag96
ag96
ag96
ag98
ag98
ag96
ag51
ag51
ag97
ag96
ag96
ag51
ag97
ag97
ag51
ag97
ag96
ag98
ag97
ag97
ag96
ag51
ag96
ag96
ag51
ag98
ag98
ag97
ag96
ag98
ag96
ag97
ag97
ag96
ag98
ag97
ag98
ag98
ag51
ag98
ag51
ag51
ag97
ag51
ag51
ag97
ag96
ag51
ag51
ag96
ag97
ag98
ag97
ag96
ag98
ag97
ag98
ag96
ag96
ag51
ag96
ag97
ag96
ag51
ag51
ag51
ag96
ag96
ag51
ag96
ag98
ag96
ag96
ag96
ag51
ag98
ag96
ag98
ag51
asg101
(lp239
g98
ag96
ag98
ag97
ag96
ag98
ag97
ag51
ag51
ag98
ag96
ag96
ag51
ag97
ag96
ag97
ag96
ag96
ag97
ag96
ag96
ag96
ag98
ag98
ag96
ag51
ag51
ag97
ag96
ag96
ag51
ag97
ag97
ag51
ag97
ag96
ag98
ag97
ag97
ag96
ag51
ag96
ag96
ag51
ag98
ag98
ag97
ag96
ag98
ag96
ag97
ag97
ag96
ag98
ag97
ag98
ag98
ag51
ag98
ag51
ag51
ag97
ag51
ag51
ag97
ag96
ag51
ag51
ag96
ag97
ag98
ag97
ag96
ag98
ag97
ag98
ag96
ag96
ag51
ag96
ag97
ag96
ag51
ag51
ag51
ag96
ag96
ag51
ag96
ag98
ag96
ag96
ag96
ag51
ag98
ag96
ag98
ag51
asaatp240
Rp241
aatp242
Rp243
.