ccollections
OrderedDict
p0
((lp1
(lp2
S'index'
p3
aI15306
aa(lp4
S'combination_dict'
p5
ag0
((lp6
(lp7
S'r_to_g_config'
p8
aS'br'
p9
aa(lp10
S'num_turns'
p11
aI3
aa(lp12
S'start_direction'
p13
acutils_ms
StartDirection
p14
(I1
tp15
Rp16
aa(lp17
S'assistance_type'
p18
acutils_ms
AssistanceType
p19
(I1
tp20
Rp21
aa(lp22
S'start_mode'
p23
aS't'
p24
aa(lp25
S'ui_given_a_noise'
p26
aF0.5
aa(lp27
S'um_given_ui_noise'
p28
aF0.5
aa(lp29
S'entropy_threshold'
p30
aF0.8
aa(lp31
S'is_assistance'
p32
aI01
aatp33
Rp34
aa(lp35
S'trials'
p36
ag0
((lp37
(lp38
I0
accollections
defaultdict
p39
(c__builtin__
list
p40
tp41
Rp42
S'a'
p43
(lp44
S'mode_l'
p45
aS'mode_r'
p46
ag46
ag46
ag46
ag46
ag46
ag46
ag46
aS'move_n'
p47
ag45
aS'move_p'
p48
ag46
ag47
ag46
ag46
ag48
ag46
ag48
asS'assistance_match_with_ground_truth'
p49
(lp50
I00
aI00
aI00
aI00
aI00
aI00
aI00
aI00
aI01
aI01
aI01
aI01
aI01
aI01
aI00
aI01
aI01
aI01
aI01
asS'total_steps'
p51
I19
sS'sp'
p52
(S'p4'
p53
F1.5707963267948966
S'x'
p54
tp55
sS's'
p56
(lp57
(S'p0'
p58
I0
g24
tp59
a(g58
I0
g54
tp60
a(g58
I0
g54
tp61
a(g58
I0
g54
tp62
ag62
ag62
ag62
ag61
ag61
a(g58
I0
S'y'
p63
tp64
a(S'p1'
p65
I0
g63
tp66
a(g65
I0
g54
tp67
a(S'p2'
p68
I0
g54
tp69
a(g68
I0
g63
tp70
a(S'p3'
p71
I0
g63
tp72
a(g71
I0
g63
tp73
a(g71
I0
S't'
p74
tp75
a(g71
F1.5707963267948966
g74
tp76
a(g71
F1.5707963267948966
g54
tp77
asS'ui'
p78
(lp79
S'hp'
p80
aS'ss'
p81
ag81
aS'hs'
p82
ag80
ag82
ag81
ag82
ag80
ag81
ag82
ag52
ag80
ag81
ag81
ag82
ag52
ag80
ag52
asS'um_before'
p83
(lp84
g80
ag52
ag81
ag81
ag81
ag81
ag52
ag52
ag82
ag81
ag52
ag82
ag82
ag81
ag52
ag80
ag82
ag80
ag81
asS'um_after'
p85
(lp86
g80
ag52
ag81
ag81
ag81
ag81
ag52
ag52
ag80
ag81
ag82
ag52
ag80
ag81
ag52
ag80
ag52
ag80
ag52
asaa(lp87
I1
ag39
(g40
tp88
Rp89
g43
(lp90
g45
ag47
ag46
ag47
ag46
ag46
ag47
ag45
ag45
ag48
ag46
ag46
ag47
ag46
ag48
ag46
ag48
asg49
(lp91
I01
aI00
aI01
aI00
aI00
aI01
aI01
aI00
aI01
aI01
aI00
aI01
aI01
aI01
aI01
aI01
aI01
asg51
I17
sg52
g55
sg56
(lp92
(g58
I0
g24
tp93
a(g58
I0
g63
tp94
a(g58
I0
g54
tp95
ag64
ag95
ag62
ag64
ag66
a(g65
I0
g63
tp96
ag67
ag69
a(g68
I0
g54
tp97
ag70
ag72
ag75
ag76
ag77
asg78
(lp98
g82
ag82
ag80
ag80
ag81
ag81
ag81
ag82
ag52
ag82
ag81
ag80
ag81
ag82
ag52
ag80
ag52
asg83
(lp99
g82
ag82
ag82
ag82
ag81
ag82
ag81
ag81
ag52
ag82
ag81
ag80
ag52
ag82
ag82
ag82
ag52
asg85
(lp100
g82
ag82
ag80
ag82
ag81
ag80
ag81
ag81
ag82
ag52
ag81
ag80
ag81
ag80
ag52
ag80
ag52
asaa(lp101
I2
ag39
(g40
tp102
Rp103
g43
(lp104
g45
ag45
ag47
ag46
ag46
ag47
ag45
ag45
ag48
ag46
ag47
ag46
ag48
ag46
ag48
asg49
(lp105
I00
aI01
aI00
aI00
aI01
aI01
aI00
aI01
aI01
aI01
aI01
aI01
aI01
aI01
aI01
asg51
I15
sg52
g55
sg56
(lp106
(g58
I0
g24
tp107
a(g58
I0
g74
tp108
ag94
ag95
ag62
ag64
ag66
ag96
ag67
ag69
ag70
ag72
ag75
ag76
ag77
asg78
(lp109
g81
ag82
ag82
ag82
ag80
ag81
ag80
ag52
ag52
ag80
ag81
ag80
ag52
ag82
ag81
asg83
(lp110
g81
ag82
ag82
ag81
ag80
ag81
ag81
ag82
ag82
ag80
ag80
ag82
ag80
ag82
ag81
asg85
(lp111
g81
ag82
ag82
ag81
ag80
ag81
ag81
ag82
ag52
ag80
ag81
ag80
ag52
ag80
ag52
asaa(lp112
I3
ag39
(g40
tp113
Rp114
g43
(lp115
g45
ag45
ag45
ag45
ag45
ag45
ag47
ag45
ag46
ag48
ag46
ag46
ag47
ag46
ag48
ag46
ag46
ag48
asg49
(lp116
I00
aI00
aI00
aI00
aI00
aI01
aI01
aI00
aI01
aI01
aI00
aI01
aI01
aI01
aI01
aI00
aI01
aI01
asg51
I18
sg52
g55
sg56
(lp117
(g58
I0
g24
tp118
ag108
ag108
ag108
ag108
ag108
ag94
ag66
a(g65
I0
g74
tp119
a(g65
I0
g54
tp120
ag69
ag97
ag70
ag72
ag75
ag76
a(g71
F1.5707963267948966
g74
tp121
ag77
asg78
(lp122
g82
ag82
ag82
ag52
ag82
ag82
ag81
ag80
ag82
ag81
ag81
ag82
ag81
ag80
ag52
ag81
ag80
ag52
asg83
(lp123
g81
ag81
ag81
ag81
ag81
ag82
ag80
ag80
ag82
ag81
ag81
ag82
ag80
ag80
ag52
ag52
ag82
ag52
asg85
(lp124
g81
ag81
ag81
ag81
ag81
ag82
ag81
ag80
ag80
ag52
ag81
ag80
ag81
ag80
ag52
ag52
ag80
ag52
asaa(lp125
I4
ag39
(g40
tp126
Rp127
g43
(lp128
g45
ag47
ag46
ag47
ag45
ag48
ag46
ag47
ag46
ag46
ag48
ag46
ag48
asg49
(lp129
I01
aI00
aI01
aI01
aI01
aI01
aI01
aI01
aI00
aI01
aI01
aI01
aI01
asg51
I13
sg52
g55
sg56
(lp130
(g58
I0
g24
tp131
ag94
ag95
ag64
ag66
ag67
ag69
ag70
ag72
a(g71
I0
g63
tp132
ag75
ag76
ag77
asg78
(lp133
g82
ag81
ag80
ag82
ag82
ag52
ag80
ag82
ag81
ag81
ag52
ag80
ag52
asg83
(lp134
g82
ag82
ag80
ag80
ag82
ag80
ag80
ag52
ag81
ag82
ag82
ag80
ag52
asg85
(lp135
g82
ag82
ag80
ag81
ag82
ag52
ag80
ag81
ag81
ag80
ag52
ag80
ag52
asaa(lp136
I5
ag39
(g40
tp137
Rp138
g43
(lp139
g45
ag47
ag46
ag46
ag46
ag47
ag46
ag47
ag46
ag47
ag45
ag48
ag46
ag47
ag46
ag48
ag46
ag48
asg49
(lp140
I01
aI00
aI00
aI00
aI01
aI00
aI01
aI00
aI01
aI01
aI01
aI01
aI01
aI01
aI01
aI01
aI01
aI01
asg51
I18
sg52
g55
sg56
(lp141
(g58
I0
g24
tp142
ag94
ag95
ag62
ag62
ag64
ag95
ag64
ag95
ag64
ag66
ag67
ag69
ag70
ag72
ag75
ag76
ag77
asg78
(lp143
g80
ag82
ag80
ag81
ag80
ag82
ag80
ag82
ag80
ag81
ag82
ag52
ag80
ag81
ag82
ag81
ag82
ag82
asg83
(lp144
g82
ag82
ag81
ag81
ag82
ag82
ag82
ag82
ag80
ag80
ag82
ag82
ag82
ag81
ag82
ag80
ag82
ag82
asg85
(lp145
g82
ag82
ag81
ag81
ag80
ag82
ag80
ag82
ag80
ag81
ag82
ag52
ag80
ag81
ag80
ag52
ag80
ag52
asaa(lp146
I6
ag39
(g40
tp147
Rp148
g43
(lp149
g45
ag45
ag46
ag47
ag45
ag48
ag46
ag46
ag46
ag47
ag46
ag48
ag46
ag48
asg49
(lp150
I00
aI00
aI01
aI01
aI01
aI01
aI00
aI00
aI01
aI01
aI01
aI01
aI01
aI01
asg51
I14
sg52
g55
sg56
(lp151
(g58
I0
g24
tp152
ag108
ag60
ag64
ag66
ag67
ag69
ag97
a(g68
I0
g54
tp153
ag70
ag72
ag75
ag76
ag77
asg78
(lp154
g82
ag52
ag80
ag81
ag82
ag52
ag80
ag81
ag80
ag81
ag80
ag80
ag80
ag52
asg83
(lp155
g81
ag80
ag80
ag81
ag82
ag52
ag81
ag52
ag80
ag80
ag80
ag81
ag80
ag82
asg85
(lp156
g81
ag80
ag80
ag81
ag82
ag52
ag81
ag52
ag80
ag81
ag80
ag52
ag80
ag52
asaa(lp157
I7
ag39
(g40
tp158
Rp159
g43
(lp160
g45
ag45
ag46
ag46
ag47
ag45
ag46
ag46
ag48
ag46
ag46
ag47
ag46
ag48
ag46
ag48
asg49
(lp161
I00
aI00
aI00
aI01
aI01
aI00
aI00
aI01
aI01
aI00
aI01
aI01
aI01
aI01
aI01
aI01
asg51
I16
sg52
g55
sg56
(lp162
(g58
I0
g24
tp163
ag108
ag60
ag62
ag64
ag66
ag119
a(g65
I0
g74
tp164
ag120
ag69
ag97
ag70
ag72
ag75
ag76
ag77
asg78
(lp165
g82
ag81
ag80
ag80
ag81
ag82
ag80
ag80
ag52
ag81
ag80
ag82
ag82
ag80
ag80
ag81
asg83
(lp166
g81
ag80
ag81
ag80
ag81
ag80
ag81
ag80
ag52
ag81
ag80
ag80
ag82
ag80
ag82
ag52
asg85
(lp167
g81
ag80
ag81
ag80
ag81
ag80
ag81
ag80
ag52
ag81
ag80
ag81
ag80
ag52
ag80
ag52
asaa(lp168
I8
ag39
(g40
tp169
Rp170
g43
(lp171
g45
ag47
ag45
ag48
ag46
ag46
ag47
ag46
ag48
ag46
ag48
asg49
(lp172
I01
aI01
aI01
aI01
aI00
aI01
aI01
aI01
aI01
aI01
aI01
asg51
I11
sg52
g55
sg56
(lp173
(g58
I0
g24
tp174
ag94
ag66
ag67
ag69
ag153
ag70
ag72
ag75
ag76
ag77
asg78
(lp175
g80
ag81
ag82
ag52
ag81
ag82
ag81
ag81
ag52
ag80
ag81
asg83
(lp176
g82
ag52
ag82
ag52
ag52
ag82
ag80
ag80
ag52
ag80
ag81
asg85
(lp177
g82
ag81
ag82
ag52
ag52
ag80
ag81
ag80
ag52
ag80
ag52
asaa(lp178
I9
ag39
(g40
tp179
Rp180
g43
(lp181
g45
ag47
ag45
ag46
ag48
ag46
ag46
ag47
ag46
ag48
ag46
ag48
ag46
ag48
asg49
(lp182
I01
aI01
aI00
aI01
aI01
aI00
aI01
aI01
aI01
aI01
aI00
aI01
aI01
aI01
asg51
I14
sg52
g55
sg56
(lp183
(g58
I0
g24
tp184
ag94
ag66
ag119
ag120
ag69
ag97
ag70
ag72
ag75
ag76
a(g71
I0
g74
tp185
ag76
ag77
asg78
(lp186
g80
ag81
ag80
ag80
ag52
ag81
ag80
ag81
ag82
ag52
ag82
ag81
ag81
ag52
asg83
(lp187
g82
ag52
ag80
ag80
ag52
ag81
ag80
ag52
ag82
ag52
ag81
ag81
ag82
ag82
asg85
(lp188
g82
ag81
ag80
ag80
ag52
ag81
ag80
ag81
ag80
ag52
ag81
ag52
ag80
ag52
asaatp189
Rp190
aatp191
Rp192
.