ccollections
OrderedDict
p0
((lp1
(lp2
S'combination_dict'
p3
ag0
((lp4
(lp5
S'r_to_g_config'
p6
aS'tl'
p7
aa(lp8
S'num_turns'
p9
aI2
aa(lp10
S'start_direction'
p11
acutils_ms
StartDirection
p12
(I0
tp13
Rp14
aa(lp15
S'assistance_type'
p16
acutils_ms
AssistanceType
p17
(I1
tp18
Rp19
aa(lp20
S'start_mode'
p21
aS't'
p22
aa(lp23
S'ui_given_a_noise'
p24
aF0.7
aa(lp25
S'um_given_ui_noise'
p26
aF0.5
aa(lp27
S'entropy_threshold'
p28
aF0.7
aatp29
Rp30
aa(lp31
S'data'
p32
accollections
defaultdict
p33
(c__builtin__
list
p34
tp35
Rp36
S'a'
p37
(lp38
S'mode_r'
p39
aS'mode_l'
p40
aS'move_n'
p41
ag41
ag41
ag39
ag39
ag39
ag40
ag39
ag40
ag40
ag39
ag41
ag39
ag40
ag41
ag39
ag40
ag40
ag39
ag39
ag40
ag39
aS'move_p'
p42
ag39
ag40
ag39
ag39
ag40
ag39
ag42
ag40
ag42
ag40
ag39
ag41
ag39
ag41
ag39
ag40
ag39
ag42
ag40
ag42
ag39
ag42
ag42
ag39
ag41
ag39
ag40
ag40
ag39
ag41
ag40
ag41
ag39
ag41
ag39
ag39
ag40
ag39
ag42
ag40
ag39
ag41
ag41
ag40
ag39
ag40
ag39
ag41
ag40
ag39
ag41
ag39
ag41
ag39
ag40
ag39
ag42
ag39
ag42
ag40
ag41
ag39
ag42
ag40
ag40
ag41
asS'assistance_match_with_ground_truth'
p43
(lp44
I00
aI01
aI00
aI00
aI00
aI00
aI00
aI00
aI00
aI00
aI00
aI00
aI01
aI00
aI00
aI01
aI01
aI00
aI00
aI00
aI00
aI00
aI00
aI01
aI01
aI00
aI00
aI00
aI00
aI00
aI01
aI00
aI01
aI00
aI00
aI01
aI00
aI01
aI01
aI00
aI00
aI01
aI00
aI01
aI01
aI01
aI00
aI01
aI01
aI00
aI00
aI00
aI00
aI01
aI00
aI01
aI00
aI01
aI00
aI00
aI00
aI00
aI01
aI00
aI00
aI01
aI00
aI00
aI00
aI00
aI00
aI01
aI00
aI00
aI01
aI00
aI01
aI01
aI00
aI00
aI01
aI00
aI01
aI01
aI01
aI00
aI01
aI01
aI00
aI01
aI01
asS'total_steps'
p45
I91
sS'sp'
p46
(lp47
(S'p0'
p48
I0
S'y'
p49
tp50
a(g48
I0
S'x'
p51
tp52
a(g48
I0
g51
tp53
ag53
a(g48
I0
S't'
p54
tp55
a(g48
I0
g54
tp56
ag56
ag50
a(g48
I0
g54
tp57
ag50
a(g48
I0
g49
tp58
ag57
a(g48
I0
g51
tp59
ag55
ag50
ag52
a(S'p1'
p60
I0
g51
tp61
a(g60
I0
g54
tp62
a(g60
I0
g54
tp63
a(g60
I0
g51
tp64
a(g60
I0
g51
tp65
ag62
ag64
a(g60
I0
g49
tp66
a(S'p2'
p67
I0
g49
tp68
a(g67
I0
g51
tp69
a(g60
I0
g51
tp70
ag65
ag62
ag64
ag66
a(g60
I0
g54
tp71
a(g60
I0
g49
tp72
a(g48
I0
g49
tp73
ag57
ag59
ag55
ag59
ag61
ag62
ag64
ag66
ag71
ag72
ag68
a(g67
I0
g54
tp74
a(g67
I0
g54
tp75
a(g67
F1.5707963267948966
g54
tp76
a(g67
F1.5707963267948966
g51
tp77
a(g67
F1.5707963267948966
g54
tp78
a(g67
F1.5707963267948966
g49
tp79
a(g67
F1.5707963267948966
g49
tp80
a(g67
F1.5707963267948966
g54
tp81
ag77
a(g67
F1.5707963267948966
g49
tp82
a(g67
F1.5707963267948966
g51
tp83
ag78
ag77
a(g60
F1.5707963267948966
g51
tp84
a(g60
F1.5707963267948966
g51
tp85
a(g60
F1.5707963267948966
g54
tp86
a(g60
F1.5707963267948966
g51
tp87
a(g60
F1.5707963267948966
g49
tp88
a(g48
F1.5707963267948966
g49
tp89
a(g48
F1.5707963267948966
g54
tp90
a(g48
F1.5707963267948966
g51
tp91
a(g48
F1.5707963267948966
g51
tp92
a(g48
F1.5707963267948966
g49
tp93
ag90
a(g48
F1.5707963267948966
g49
tp94
ag90
ag91
ag93
ag90
ag91
a(g48
F1.5707963267948966
g54
tp95
ag91
a(g60
F1.5707963267948966
g51
tp96
ag86
ag87
ag88
a(g60
F1.5707963267948966
g51
tp97
ag88
a(g67
F1.5707963267948966
g49
tp98
ag83
ag84
ag88
ag98
a(g67
F1.5707963267948966
g49
tp99
ag83
a(S'p3'
p100
F1.5707963267948966
g51
tp101
asS's'
p102
(lp103
(g48
I0
g22
tp104
ag50
ag52
ag53
ag53
ag55
ag56
ag56
ag50
ag57
ag50
ag58
ag57
ag59
ag55
ag50
ag52
ag61
ag62
ag63
ag64
ag65
ag62
ag64
ag66
ag68
ag69
ag70
ag65
ag62
ag64
ag66
ag71
ag72
ag73
ag57
ag59
ag55
ag59
ag61
ag62
ag64
ag66
ag71
ag72
ag68
ag74
ag75
ag76
ag77
ag78
ag79
ag80
ag81
ag77
ag82
ag83
ag78
ag77
ag84
ag85
ag86
ag87
ag88
ag89
ag90
ag91
ag92
ag93
ag90
ag94
ag90
ag91
ag93
ag90
ag91
ag95
ag91
ag96
ag86
ag87
ag88
ag97
ag88
ag98
ag83
ag84
ag88
ag98
ag99
ag83
asS'ui'
p105
(lp106
S'hs'
p107
ag107
ag46
ag46
ag107
aS'ss'
p108
aS'hp'
p109
ag108
ag109
ag109
ag107
ag46
ag108
ag46
ag107
ag109
ag108
ag107
ag107
ag109
ag109
ag109
ag109
ag46
ag46
ag107
ag46
ag107
ag107
ag107
ag46
ag46
ag108
ag46
ag107
ag107
ag107
ag46
ag108
ag108
ag107
ag46
ag109
ag46
ag46
ag109
ag46
ag46
ag109
ag108
ag107
ag46
ag109
ag46
ag108
ag107
ag107
ag46
ag46
ag109
ag107
ag107
ag109
ag109
ag109
ag109
ag46
ag108
ag46
ag109
ag46
ag109
ag108
ag46
ag109
ag46
ag46
ag108
ag108
ag107
ag109
ag108
ag109
ag109
ag107
ag108
ag109
ag46
ag109
ag107
ag108
asS'um_before'
p110
(lp111
g107
ag107
ag46
ag46
ag107
ag108
ag108
ag107
ag109
ag107
ag108
ag109
ag109
ag107
ag107
ag107
ag108
ag107
ag46
ag109
ag108
ag107
ag109
ag109
ag46
ag107
ag46
ag108
ag107
ag109
ag46
ag109
ag107
ag108
ag109
ag109
ag107
ag109
ag108
ag107
ag109
ag46
ag109
ag107
ag46
ag109
ag108
ag46
ag109
ag107
ag107
ag46
ag109
ag109
ag109
ag107
ag107
ag46
ag46
ag108
ag107
ag109
ag109
ag108
ag109
ag109
ag46
ag109
ag109
ag107
ag109
ag46
ag109
ag109
ag109
ag107
ag46
ag108
ag107
ag109
ag46
ag107
ag109
ag46
ag107
ag46
ag109
ag46
ag108
ag107
ag108
asS'um_after'
p112
(lp113
g107
ag107
ag46
ag46
ag107
ag108
ag108
ag107
ag109
ag107
ag108
ag109
ag109
ag107
ag107
ag107
ag108
ag107
ag46
ag109
ag108
ag107
ag109
ag109
ag46
ag107
ag46
ag108
ag107
ag109
ag109
ag109
ag107
ag108
ag109
ag109
ag107
ag109
ag108
ag107
ag109
ag109
ag109
ag107
ag46
ag109
ag108
ag46
ag109
ag107
ag107
ag46
ag109
ag109
ag109
ag107
ag107
ag109
ag46
ag108
ag107
ag109
ag109
ag108
ag109
ag109
ag46
ag109
ag109
ag107
ag109
ag109
ag109
ag109
ag109
ag107
ag109
ag108
ag107
ag109
ag109
ag107
ag109
ag46
ag107
ag46
ag109
ag46
ag108
ag107
ag108
asaa(lp114
S'index'
p115
aI40723
aatp116
Rp117
.