ccollections
OrderedDict
p0
((lp1
(lp2
S'combination_dict'
p3
ag0
((lp4
(lp5
S'r_to_g_config'
p6
aS'br'
p7
aa(lp8
S'num_turns'
p9
aI3
aa(lp10
S'start_direction'
p11
acutils_ms
StartDirection
p12
(I1
tp13
Rp14
aa(lp15
S'assistance_type'
p16
acutils_ms
AssistanceType
p17
(I1
tp18
Rp19
aa(lp20
S'start_mode'
p21
aS'x'
p22
aa(lp23
S'ui_given_a_noise'
p24
aF0.5
aa(lp25
S'um_given_ui_noise'
p26
aF0.7
aa(lp27
S'entropy_threshold'
p28
aF0.7
aatp29
Rp30
aa(lp31
S'data'
p32
accollections
defaultdict
p33
(c__builtin__
list
p34
tp35
Rp36
S'a'
p37
(lp38
S'mode_r'
p39
ag39
aS'move_n'
p40
ag39
aS'move_p'
p41
aS'mode_l'
p42
ag39
ag40
ag42
ag40
ag39
ag40
ag39
ag39
ag40
ag39
ag41
ag39
ag41
ag39
ag40
ag42
ag41
ag39
ag40
ag42
ag42
ag40
ag39
ag40
ag42
ag42
ag41
ag39
ag40
ag42
ag42
ag42
ag42
ag42
ag42
ag42
ag41
asS'assistance_match_with_ground_truth'
p43
(lp44
I00
aI01
aI01
aI01
aI00
aI00
aI01
aI00
aI01
aI00
aI01
aI00
aI00
aI01
aI01
aI01
aI01
aI01
aI01
aI01
aI00
aI01
aI01
aI01
aI00
aI00
aI01
aI00
aI01
aI00
aI00
aI01
aI01
aI01
aI01
aI00
aI00
aI00
aI00
aI00
aI00
aI01
aI01
asS'total_steps'
p45
I43
sS'sp'
p46
(lp47
(S'p0'
p48
I0
S'x'
p49
tp50
a(g48
I0
S'y'
p51
tp52
a(S'p1'
p53
I0
g51
tp54
a(g53
I0
S't'
p55
tp56
a(g53
I0
g49
tp57
a(g48
I0
g49
tp58
ag52
a(g48
I0
g55
tp59
a(g48
I0
g51
tp60
a(g48
I0
g49
tp61
ag52
ag61
ag50
ag52
ag54
ag56
a(g53
F1.5707963267948966
g55
tp62
a(g53
F1.5707963267948966
g49
tp63
a(S'p2'
p64
F1.5707963267948966
g49
tp65
a(g64
F1.5707963267948966
g51
tp66
a(g53
F1.5707963267948966
g51
tp67
a(g53
F1.5707963267948966
g49
tp68
ag65
ag66
a(g64
F1.5707963267948966
g55
tp69
a(g64
F1.5707963267948966
g55
tp70
a(g64
F1.5707963267948966
g51
tp71
a(g64
F1.5707963267948966
g49
tp72
ag66
ag67
a(g53
F1.5707963267948966
g51
tp73
ag68
ag65
ag66
a(S'p3'
p74
F1.5707963267948966
g51
tp75
a(g74
F1.5707963267948966
g51
tp76
ag76
ag76
ag76
a(g74
F1.5707963267948966
g51
tp77
ag76
a(g74
F1.5707963267948966
g49
tp78
a(S'p4'
p79
F1.5707963267948966
g49
tp80
asS's'
p81
(lp82
(g48
I0
g22
tp83
ag50
ag52
ag54
ag56
ag57
ag58
ag52
ag59
ag60
ag61
ag52
ag61
ag50
ag52
ag54
ag56
ag62
ag63
ag65
ag66
ag67
ag68
ag65
ag66
ag69
ag70
ag71
ag72
ag66
ag67
ag73
ag68
ag65
ag66
ag75
ag76
ag76
ag76
ag76
ag77
ag76
ag78
asS'ui'
p84
(lp85
g46
aS'hp'
p86
aS'ss'
p87
aS'hs'
p88
ag86
ag87
ag86
ag86
ag88
ag88
ag86
ag87
ag46
ag86
ag87
ag88
ag46
ag86
ag46
ag86
ag46
ag88
ag46
ag86
ag46
ag87
ag88
ag88
ag86
ag46
ag46
ag88
ag46
ag86
ag88
ag87
ag87
ag88
ag88
ag46
ag88
ag87
ag46
asS'um_before'
p89
(lp90
g46
ag86
ag87
ag88
ag86
ag87
ag86
ag86
ag88
ag88
ag86
ag88
ag46
ag87
ag87
ag86
ag46
ag86
ag46
ag87
ag46
ag88
ag46
ag87
ag86
ag87
ag86
ag88
ag87
ag46
ag87
ag88
ag87
ag86
ag87
ag87
ag87
ag87
ag87
ag46
ag87
ag88
ag46
asS'um_after'
p91
(lp92
g46
ag86
ag87
ag86
ag86
ag87
ag86
ag86
ag88
ag88
ag86
ag88
ag46
ag86
ag87
ag86
ag46
ag86
ag46
ag86
ag46
ag88
ag46
ag86
ag86
ag87
ag88
ag88
ag86
ag46
ag87
ag88
ag46
ag86
ag87
ag87
ag87
ag87
ag87
ag46
ag87
ag88
ag46
asaa(lp93
S'index'
p94
aI112571
aatp95
Rp96
.