ccollections
OrderedDict
p0
((lp1
(lp2
S'combination_dict'
p3
ag0
((lp4
(lp5
S'r_to_g_config'
p6
aS'br'
p7
aa(lp8
S'num_turns'
p9
aI2
aa(lp10
S'start_direction'
p11
acutils_ms
StartDirection
p12
(I0
tp13
Rp14
aa(lp15
S'assistance_type'
p16
acutils_ms
AssistanceType
p17
(I1
tp18
Rp19
aa(lp20
S'start_mode'
p21
aS'y'
p22
aa(lp23
S'ui_given_a_noise'
p24
aF0.5
aa(lp25
S'um_given_ui_noise'
p26
aF0.7
aa(lp27
S'entropy_threshold'
p28
aF0.5
aatp29
Rp30
aa(lp31
S'data'
p32
accollections
defaultdict
p33
(c__builtin__
list
p34
tp35
Rp36
S'a'
p37
(lp38
S'mode_l'
p39
aS'move_p'
p40
ag40
aS'mode_r'
p41
ag41
ag40
ag40
ag39
ag40
ag39
ag39
ag39
ag40
ag39
ag40
ag41
ag39
ag40
ag39
aS'move_n'
p42
ag39
ag39
ag39
ag39
ag39
ag40
ag40
ag39
ag39
ag40
ag40
ag41
ag41
ag41
ag41
ag39
ag40
ag41
ag40
ag41
ag40
ag40
ag39
ag42
ag39
ag39
ag40
ag39
ag41
ag41
ag41
ag41
ag42
ag39
ag39
ag40
ag41
ag41
ag42
ag41
ag41
ag41
ag41
ag42
ag39
ag42
ag39
ag40
ag41
ag42
ag39
ag41
ag41
ag40
ag41
ag40
ag40
ag41
ag41
ag39
ag39
ag39
ag41
ag41
ag40
ag40
ag41
ag41
ag42
ag39
ag39
ag39
ag39
ag40
ag41
ag42
ag39
ag39
ag39
ag39
ag39
ag39
ag40
asS'assistance_match_with_ground_truth'
p43
(lp44
I01
aI00
aI00
aI00
aI01
aI00
aI01
aI01
aI00
aI00
aI00
aI01
aI01
aI00
aI00
aI00
aI01
aI01
aI01
aI00
aI00
aI00
aI00
aI00
aI01
aI00
aI00
aI00
aI01
aI00
aI01
aI00
aI00
aI00
aI00
aI00
aI00
aI01
aI00
aI01
aI00
aI01
aI01
aI00
aI00
aI00
aI01
aI00
aI00
aI00
aI00
aI01
aI00
aI00
aI01
aI01
aI00
aI01
aI00
aI00
aI00
aI00
aI01
aI00
aI01
aI00
aI01
aI01
aI01
aI00
aI00
aI00
aI01
aI00
aI01
aI00
aI00
aI00
aI00
aI00
aI00
aI00
aI00
aI01
aI00
aI01
aI00
aI01
aI01
aI00
aI00
aI00
aI01
aI00
aI01
aI01
aI00
aI00
aI00
aI00
aI00
aI01
aI01
asS'total_steps'
p45
I103
sS'sp'
p46
(lp47
(S'p0'
p48
I0
S'x'
p49
tp50
a(g48
I0
g49
tp51
a(g48
I0
S't'
p52
tp53
a(g48
I0
g52
tp54
a(g48
I0
g49
tp55
ag51
a(S'p1'
p56
I0
g49
tp57
a(g56
I0
g52
tp58
a(g56
I0
g49
tp59
a(g56
I0
g49
tp60
a(g56
I0
g49
tp61
ag58
a(g56
F1.5707963267948966
g52
tp62
a(g56
I0
g52
tp63
a(g56
I0
S'y'
p64
tp65
a(g56
I0
g49
tp66
ag58
ag62
a(g56
F1.5707963267948966
g64
tp67
a(g48
F1.5707963267948966
g64
tp68
a(g48
F1.5707963267948966
g64
tp69
ag69
a(g48
F1.5707963267948966
g64
tp70
ag70
a(g48
F1.5707963267948966
g49
tp71
a(g48
F1.5707963267948966
g49
tp72
a(g48
F1.5707963267948966
g64
tp73
ag70
ag71
ag72
a(g56
F1.5707963267948966
g49
tp74
a(g56
F1.5707963267948966
g49
tp75
ag75
ag75
a(g56
F1.5707963267948966
g52
tp76
ag63
ag65
a(g56
I0
g52
tp77
ag65
ag77
a(g56
I0
g52
tp78
ag62
ag67
a(g56
F1.5707963267948966
g52
tp79
a(g56
F1.5707963267948966
g52
tp80
ag63
ag62
a(g56
F1.5707963267948966
g49
tp81
a(g56
F1.5707963267948966
g49
tp82
ag75
ag82
a(g56
F1.5707963267948966
g64
tp83
ag68
ag69
ag71
ag74
ag82
ag83
a(g56
F1.5707963267948966
g49
tp84
ag75
ag75
ag75
ag83
ag79
ag67
ag68
ag71
ag74
ag83
ag68
a(g48
F1.5707963267948966
g52
tp85
a(g48
F1.5707963267948966
g52
tp86
a(g48
F1.5707963267948966
g49
tp87
a(g48
F1.5707963267948966
g52
tp88
ag87
ag72
ag88
a(g48
F1.5707963267948966
g52
tp89
a(g48
F1.5707963267948966
g64
tp90
ag70
ag70
ag85
ag89
ag87
ag72
ag74
ag75
ag83
a(S'p2'
p91
F1.5707963267948966
g64
tp92
a(g91
F1.5707963267948966
g64
tp93
ag93
a(g91
F1.5707963267948966
g64
tp94
a(g91
F1.5707963267948966
g49
tp95
a(g56
F1.5707963267948966
g49
tp96
ag83
ag92
ag94
ag93
ag93
ag94
ag94
ag95
a(S'p3'
p97
F1.5707963267948966
g49
tp98
asS's'
p99
(lp100
(g48
I0
g22
tp101
ag50
ag51
ag53
ag54
ag55
ag51
ag57
ag58
ag59
ag60
ag61
ag58
ag62
ag63
ag65
ag66
ag58
ag62
ag67
ag68
ag69
ag69
ag70
ag70
ag71
ag72
ag73
ag70
ag71
ag72
ag74
ag75
ag75
ag75
ag76
ag63
ag65
ag77
ag65
ag77
ag78
ag62
ag67
ag79
ag80
ag63
ag62
ag81
ag82
ag75
ag82
ag83
ag68
ag69
ag71
ag74
ag82
ag83
ag84
ag75
ag75
ag75
ag83
ag79
ag67
ag68
ag71
ag74
ag83
ag68
ag85
ag86
ag87
ag88
ag87
ag72
ag88
ag89
ag90
ag70
ag70
ag85
ag89
ag87
ag72
ag74
ag75
ag83
ag92
ag93
ag93
ag94
ag95
ag96
ag83
ag92
ag94
ag93
ag93
ag94
ag94
ag95
asS'ui'
p102
(lp103
S'hs'
p104
ag46
ag46
aS'hp'
p105
ag105
ag46
ag46
ag46
ag46
ag46
ag104
ag104
ag46
aS'ss'
p106
ag46
ag46
ag104
ag46
ag106
ag104
ag46
ag105
ag104
ag106
ag104
ag46
ag46
ag104
ag104
ag46
ag46
ag105
ag105
ag104
ag46
ag46
ag104
ag105
ag46
ag105
ag105
ag46
ag104
ag106
ag46
ag106
ag105
ag105
ag46
ag46
ag105
ag46
ag106
ag105
ag104
ag46
ag104
ag105
ag104
ag46
ag46
ag105
ag105
ag106
ag104
ag46
ag104
ag105
ag105
ag106
ag105
ag46
ag105
ag104
ag105
ag46
ag46
ag46
ag104
ag104
ag105
ag105
ag46
ag105
ag46
ag105
ag104
ag46
ag106
ag104
ag46
ag106
ag104
ag46
ag105
ag106
ag105
ag46
ag46
ag106
ag104
ag104
ag46
asS'um_before'
p107
(lp108
g104
ag106
ag104
ag46
ag105
ag106
ag46
ag104
ag105
ag46
ag106
ag104
ag46
ag106
ag104
ag104
ag104
ag46
ag104
ag46
ag46
ag46
ag106
ag106
ag104
ag106
ag105
ag106
ag104
ag106
ag46
ag46
ag46
ag46
ag104
ag106
ag104
ag105
ag104
ag105
ag106
ag46
ag104
ag105
ag46
ag106
ag46
ag105
ag106
ag46
ag106
ag105
ag46
ag46
ag104
ag46
ag106
ag105
ag104
ag46
ag46
ag46
ag105
ag105
ag104
ag46
ag104
ag46
ag105
ag46
ag105
ag106
ag105
ag104
ag105
ag106
ag104
ag46
ag104
ag106
ag106
ag105
ag46
ag105
ag106
ag46
ag46
ag105
ag106
ag46
ag46
ag106
ag104
ag106
ag105
ag106
ag106
ag46
ag46
ag106
ag106
ag104
ag46
asS'um_after'
p109
(lp110
g104
ag106
ag104
ag46
ag105
ag106
ag46
ag104
ag105
ag46
ag106
ag104
ag46
ag106
ag104
ag104
ag104
ag46
ag104
ag46
ag46
ag46
ag106
ag106
ag104
ag106
ag105
ag106
ag104
ag106
ag46
ag46
ag46
ag46
ag104
ag106
ag104
ag105
ag104
ag105
ag106
ag46
ag104
ag105
ag46
ag106
ag46
ag105
ag106
ag46
ag106
ag105
ag46
ag46
ag104
ag46
ag106
ag105
ag104
ag46
ag46
ag46
ag105
ag105
ag104
ag46
ag104
ag46
ag105
ag46
ag105
ag106
ag105
ag104
ag105
ag106
ag104
ag46
ag104
ag106
ag106
ag105
ag46
ag105
ag106
ag46
ag46
ag105
ag106
ag46
ag46
ag106
ag104
ag106
ag105
ag106
ag106
ag46
ag46
ag106
ag106
ag104
ag46
asaa(lp111
S'index'
p112
aI98956
aatp113
Rp114
.