ccollections
OrderedDict
p0
((lp1
(lp2
S'index'
p3
aI3541
aa(lp4
S'combination_dict'
p5
ag0
((lp6
(lp7
S'r_to_g_config'
p8
aS'tr'
p9
aa(lp10
S'num_turns'
p11
aI3
aa(lp12
S'start_direction'
p13
acutils_ms
StartDirection
p14
(I1
tp15
Rp16
aa(lp17
S'assistance_type'
p18
acutils_ms
AssistanceType
p19
(I1
tp20
Rp21
aa(lp22
S'start_mode'
p23
aS'x'
p24
aa(lp25
S'ui_given_a_noise'
p26
aF0.1
aa(lp27
S'um_given_ui_noise'
p28
aF0.5
aa(lp29
S'entropy_threshold'
p30
aF0.5
aa(lp31
S'is_assistance'
p32
aI00
aatp33
Rp34
aa(lp35
S'trials'
p36
ag0
((lp37
(lp38
I0
accollections
defaultdict
p39
(c__builtin__
list
p40
tp41
Rp42
S'a'
p43
(lp44
S'mode_r'
p45
aS'move_p'
p46
aS'mode_l'
p47
ag46
ag47
ag46
ag47
ag46
ag47
ag46
asS'assistance_match_with_ground_truth'
p48
(lp49
I01
aI01
aI01
aI01
aI01
aI01
aI01
aI01
aI01
aI01
asS'total_steps'
p50
I10
sS'sp'
p51
(S'p4'
p52
F1.5707963267948966
S'x'
p53
tp54
sS's'
p55
(lp56
(S'p0'
p57
I0
g24
tp58
a(g57
I0
S'y'
p59
tp60
a(S'p1'
p61
I0
g59
tp62
a(g61
I0
g53
tp63
a(S'p2'
p64
I0
g53
tp65
a(g64
I0
S't'
p66
tp67
a(g64
F1.5707963267948966
g66
tp68
a(g64
F1.5707963267948966
g59
tp69
a(S'p3'
p70
F1.5707963267948966
g59
tp71
a(g70
F1.5707963267948966
g53
tp72
asS'ui'
p73
(lp74
S'hp'
p75
ag51
aS'hs'
p76
ag51
ag76
ag51
ag76
ag51
ag76
ag51
asS'um_before'
p77
(lp78
g75
ag51
ag76
ag51
ag76
ag51
ag76
ag51
ag76
ag51
asS'um_after'
p79
(lp80
g75
ag51
ag76
ag51
ag76
ag51
ag76
ag51
ag76
ag51
asaa(lp81
I1
ag39
(g40
tp82
Rp83
g43
(lp84
g45
ag45
ag45
ag46
ag47
ag46
ag47
ag46
ag47
ag46
ag47
ag46
ag45
ag45
ag46
ag47
ag47
ag46
asg48
(lp85
I00
aI00
aI01
aI01
aI01
aI01
aI01
aI01
aI01
aI00
aI01
aI01
aI00
aI01
aI01
aI00
aI01
aI01
asg50
I18
sg51
g54
sg55
(lp86
(g57
I0
g24
tp87
a(g57
I0
g53
tp88
ag88
ag60
ag62
ag63
ag65
ag67
ag68
ag69
a(g61
F1.5707963267948966
g59
tp89
a(g61
F1.5707963267948966
g53
tp90
a(g64
F1.5707963267948966
g53
tp91
a(g64
F1.5707963267948966
g53
tp92
a(g64
F1.5707963267948966
g59
tp93
ag71
a(g70
F1.5707963267948966
g59
tp94
ag72
asg73
(lp95
g75
ag75
ag75
ag51
ag76
ag51
ag76
aS'ss'
p96
ag76
ag51
ag76
ag51
ag75
ag75
ag51
ag51
ag76
ag51
asg77
(lp97
g96
ag96
ag75
ag51
ag76
ag51
ag76
ag51
ag76
ag96
ag76
ag51
ag51
ag75
ag51
ag51
ag76
ag51
asg79
(lp98
g96
ag96
ag75
ag51
ag76
ag51
ag76
ag51
ag76
ag96
ag76
ag51
ag51
ag75
ag51
ag51
ag76
ag51
asaa(lp99
I2
ag39
(g40
tp100
Rp101
g43
(lp102
g45
ag45
ag46
ag47
ag45
ag46
ag47
ag46
ag47
ag47
ag46
ag47
ag46
ag46
ag47
ag46
ag47
ag46
asg48
(lp103
I00
aI01
aI00
aI00
aI01
aI01
aI01
aI01
aI00
aI01
aI01
aI00
aI00
aI01
aI01
aI01
aI01
aI01
asg50
I18
sg51
g54
sg55
(lp104
(g57
I0
g24
tp105
ag88
ag60
a(g57
I0
g66
tp106
a(g57
I0
g53
tp107
ag60
ag62
ag63
ag65
a(g64
I0
g53
tp108
ag67
ag68
a(g64
I0
g66
tp109
a(g64
I0
g66
tp110
ag68
ag69
ag71
ag72
asg73
(lp111
g75
ag75
ag51
ag76
ag75
ag51
ag76
ag51
ag76
ag76
ag51
ag76
ag96
ag51
ag76
ag51
ag76
ag51
asg77
(lp112
g96
ag75
ag75
ag75
ag75
ag51
ag76
ag51
ag96
ag76
ag51
ag96
ag96
ag51
ag76
ag51
ag76
ag51
asg79
(lp113
g96
ag75
ag75
ag75
ag75
ag51
ag76
ag51
ag96
ag76
ag51
ag96
ag96
ag51
ag76
ag51
ag76
ag51
asaa(lp114
I3
ag39
(g40
tp115
Rp116
g43
(lp117
g45
ag45
ag47
ag46
ag47
ag46
ag47
ag46
ag47
ag47
ag46
ag47
ag46
ag47
ag46
asg48
(lp118
I00
aI00
aI01
aI00
aI01
aI01
aI01
aI01
aI00
aI01
aI01
aI01
aI01
aI01
aI01
asg50
I15
sg51
g54
sg55
(lp119
(g57
I0
g24
tp120
a(g57
I0
g53
tp121
a(g57
I0
g66
tp122
a(g57
I0
g59
tp123
ag106
ag123
ag62
ag63
ag65
a(g64
I0
g53
tp124
ag67
ag68
ag69
ag71
ag72
asg73
(lp125
g96
ag76
ag76
ag51
ag76
ag51
ag76
ag51
ag96
ag76
ag51
ag76
ag51
ag76
ag51
asg77
(lp126
g51
ag76
ag76
ag75
ag76
ag51
ag76
ag51
ag51
ag76
ag51
ag76
ag51
ag76
ag51
asg79
(lp127
g51
ag76
ag76
ag75
ag76
ag51
ag76
ag51
ag51
ag76
ag51
ag76
ag51
ag76
ag51
asaa(lp128
I4
ag39
(g40
tp129
Rp130
g43
(lp131
g45
ag45
ag46
ag47
ag46
ag47
ag46
ag47
ag45
ag46
ag47
ag47
ag46
ag47
ag46
asg48
(lp132
I00
aI01
aI01
aI01
aI01
aI01
aI01
aI00
aI01
aI01
aI00
aI01
aI00
aI01
aI01
asg50
I15
sg51
g54
sg55
(lp133
(g57
I0
g24
tp134
ag88
ag60
ag62
ag63
ag65
ag67
ag68
a(g64
F1.5707963267948966
g53
tp135
ag93
ag71
ag94
ag72
a(g70
F1.5707963267948966
g59
tp136
ag72
asg73
(lp137
g75
ag75
ag51
ag76
ag51
ag76
ag51
ag76
ag75
ag51
ag76
ag76
ag96
ag76
ag51
asg77
(lp138
g96
ag75
ag51
ag76
ag51
ag76
ag51
ag75
ag75
ag51
ag51
ag76
ag75
ag76
ag51
asg79
(lp139
g96
ag75
ag51
ag76
ag51
ag76
ag51
ag75
ag75
ag51
ag51
ag76
ag75
ag76
ag51
asaa(lp140
I5
ag39
(g40
tp141
Rp142
g43
(lp143
g45
ag46
ag47
ag46
ag47
ag47
ag46
ag47
ag46
ag47
ag46
ag47
ag46
ag47
ag47
ag46
asg48
(lp144
I01
aI01
aI01
aI01
aI00
aI01
aI01
aI00
aI01
aI00
aI01
aI01
aI01
aI00
aI01
aI01
asg50
I16
sg51
g54
sg55
(lp145
(g57
I0
g24
tp146
ag60
ag62
ag63
ag65
ag124
ag67
ag68
ag109
ag68
ag109
ag68
ag69
ag71
ag94
ag72
asg73
(lp147
g75
ag51
ag76
ag51
ag51
ag76
ag51
ag96
ag51
ag96
ag51
ag76
ag51
ag76
ag76
ag51
asg77
(lp148
g75
ag51
ag76
ag51
ag51
ag76
ag51
ag96
ag51
ag96
ag51
ag76
ag51
ag51
ag76
ag51
asg79
(lp149
g75
ag51
ag76
ag51
ag51
ag76
ag51
ag96
ag51
ag96
ag51
ag76
ag51
ag51
ag76
ag51
asaa(lp150
I6
ag39
(g40
tp151
Rp152
g43
(lp153
g45
ag46
ag47
ag45
ag46
ag47
ag47
ag46
ag47
ag46
ag47
ag46
asg48
(lp154
I01
aI01
aI00
aI01
aI01
aI00
aI01
aI01
aI01
aI01
aI01
aI01
asg50
I12
sg51
g54
sg55
(lp155
(g57
I0
g24
tp156
ag60
ag62
a(g61
I0
g66
tp157
a(g61
I0
g53
tp158
ag65
ag108
ag67
ag68
ag69
ag71
ag72
asg73
(lp159
g75
ag51
ag76
ag75
ag51
ag76
ag76
ag51
ag76
ag51
ag76
ag51
asg77
(lp160
g75
ag51
ag75
ag75
ag51
ag96
ag76
ag51
ag76
ag51
ag76
ag51
asg79
(lp161
g75
ag51
ag75
ag75
ag51
ag96
ag76
ag51
ag76
ag51
ag76
ag51
asaa(lp162
I7
ag39
(g40
tp163
Rp164
g43
(lp165
g45
ag46
ag47
ag47
ag46
ag47
ag47
ag45
ag47
ag45
ag47
ag46
ag47
ag46
ag47
ag46
ag47
ag47
ag46
asg48
(lp166
I01
aI01
aI00
aI01
aI01
aI00
aI00
aI00
aI00
aI00
aI01
aI01
aI01
aI01
aI01
aI01
aI00
aI01
aI01
asg50
I19
sg51
g54
sg55
(lp167
(g57
I0
g24
tp168
ag60
ag62
a(g61
I0
g59
tp169
ag63
ag65
ag124
a(g64
I0
g59
tp170
a(g61
I0
g59
tp171
ag157
a(g61
I0
g59
tp172
ag63
ag65
ag67
ag68
ag69
ag71
a(g70
F1.5707963267948966
g59
tp173
ag72
asg73
(lp174
g75
ag51
ag75
ag76
ag51
ag75
ag76
ag75
ag76
ag75
ag76
ag51
ag76
ag51
ag75
ag51
ag76
ag76
ag51
asg77
(lp175
g75
ag51
ag96
ag76
ag51
ag51
ag75
ag96
ag75
ag76
ag76
ag51
ag76
ag51
ag76
ag51
ag96
ag76
ag51
asg79
(lp176
g75
ag51
ag96
ag76
ag51
ag51
ag75
ag96
ag75
ag76
ag76
ag51
ag76
ag51
ag76
ag51
ag96
ag76
ag51
asaa(lp177
I8
ag39
(g40
tp178
Rp179
g43
(lp180
g45
ag46
ag47
ag45
ag45
ag46
ag47
ag46
ag47
ag46
ag47
ag46
ag45
ag47
ag46
ag47
ag47
ag45
ag45
ag45
ag46
asg48
(lp181
I01
aI01
aI00
aI00
aI01
aI01
aI01
aI01
aI01
aI01
aI01
aI00
aI00
aI01
aI01
aI00
aI00
aI00
aI00
aI01
aI01
asg50
I21
sg51
g54
sg55
(lp182
(g57
I0
g24
tp183
ag60
ag62
ag157
a(g61
I0
g66
tp184
ag158
ag65
ag67
ag68
ag69
ag71
ag72
a(g64
F1.5707963267948966
g53
tp185
a(g64
F1.5707963267948966
g66
tp186
ag69
ag71
ag94
a(g70
F1.5707963267948966
g66
tp187
a(g70
F1.5707963267948966
g66
tp188
a(g70
F1.5707963267948966
g66
tp189
a(g70
F1.5707963267948966
g53
tp190
asg73
(lp191
g75
ag51
ag76
ag75
ag75
ag51
ag76
ag51
ag76
ag51
ag76
ag96
ag75
ag76
ag51
ag51
ag96
ag75
ag75
ag75
ag51
asg77
(lp192
g75
ag51
ag75
ag96
ag75
ag51
ag76
ag51
ag76
ag51
ag76
ag96
ag76
ag76
ag51
ag51
ag75
ag51
ag96
ag75
ag51
asg79
(lp193
g75
ag51
ag75
ag96
ag75
ag51
ag76
ag51
ag76
ag51
ag76
ag96
ag76
ag76
ag51
ag51
ag75
ag51
ag96
ag75
ag51
asaa(lp194
I9
ag39
(g40
tp195
Rp196
g43
(lp197
g45
ag45
ag46
ag47
ag45
ag46
ag47
ag46
ag47
ag45
ag47
ag46
asg48
(lp198
I00
aI01
aI01
aI00
aI01
aI00
aI01
aI01
aI00
aI00
aI01
aI01
asg50
I12
sg51
(g52
I0
g53
tp199
sg55
(lp200
(g57
I0
g24
tp201
ag88
ag60
ag62
ag157
ag158
a(g61
I0
g59
tp202
ag63
ag65
ag170
a(g70
I0
g59
tp203
a(g70
I0
g53
tp204
asg73
(lp205
g75
ag75
ag51
ag76
ag75
ag75
ag76
ag51
ag76
ag75
ag76
ag51
asg77
(lp206
g96
ag75
ag51
ag75
ag75
ag75
ag76
ag51
ag75
ag51
ag76
ag51
asg79
(lp207
g96
ag75
ag51
ag75
ag75
ag75
ag76
ag51
ag75
ag51
ag76
ag51
asaatp208
Rp209
aatp210
Rp211
.