ccollections
OrderedDict
p0
((lp1
(lp2
S'index'
p3
aI13923
aa(lp4
S'combination_dict'
p5
ag0
((lp6
(lp7
S'r_to_g_config'
p8
aS'br'
p9
aa(lp10
S'num_turns'
p11
aI2
aa(lp12
S'start_direction'
p13
acutils_ms
StartDirection
p14
(I1
tp15
Rp16
aa(lp17
S'assistance_type'
p18
acutils_ms
AssistanceType
p19
(I1
tp20
Rp21
aa(lp22
S'start_mode'
p23
aS't'
p24
aa(lp25
S'ui_given_a_noise'
p26
aF0.1
aa(lp27
S'um_given_ui_noise'
p28
aF0.1
aa(lp29
S'entropy_threshold'
p30
aF0.6
aa(lp31
S'is_assistance'
p32
aI00
aatp33
Rp34
aa(lp35
S'trials'
p36
ag0
((lp37
(lp38
I0
accollections
defaultdict
p39
(c__builtin__
list
p40
tp41
Rp42
S'a'
p43
(lp44
S'mode_l'
p45
aS'move_n'
p46
aS'mode_r'
p47
ag47
aS'move_p'
p48
ag48
ag47
ag48
ag47
ag48
ag47
ag46
ag45
ag46
asS'assistance_match_with_ground_truth'
p49
(lp50
I01
aI01
aI00
aI01
aI00
aI01
aI00
aI01
aI01
aI01
aI01
aI00
aI01
aI01
asS'total_steps'
p51
I14
sS'sp'
p52
(S'p3'
p53
F1.5707963267948966
S'y'
p54
tp55
sS's'
p56
(lp57
(S'p0'
p58
I0
g24
tp59
a(g58
I0
g54
tp60
a(S'p1'
p61
I0
g54
tp62
a(g61
I0
g54
tp63
a(g61
I0
S't'
p64
tp65
a(g61
I0
g64
tp66
a(g61
F1.5707963267948966
g64
tp67
a(g61
I0
g64
tp68
ag67
a(g61
F1.5707963267948966
S'x'
p69
tp70
a(S'p2'
p71
F1.5707963267948966
g69
tp72
a(g71
F1.5707963267948966
g54
tp73
a(g71
F1.5707963267948966
g64
tp74
a(g71
F1.5707963267948966
g54
tp75
asS'ui'
p76
(lp77
S'hs'
p78
aS'ss'
p79
aS'hp'
p80
ag80
ag52
ag52
ag80
ag52
ag80
ag52
ag80
ag80
ag78
ag79
asS'um_before'
p81
(lp82
g78
ag79
ag52
ag80
ag79
ag52
ag79
ag52
ag80
ag52
ag80
ag80
ag78
ag79
asS'um_after'
p83
(lp84
g78
ag79
ag52
ag80
ag79
ag52
ag79
ag52
ag80
ag52
ag80
ag80
ag78
ag79
asaa(lp85
I1
ag39
(g40
tp86
Rp87
g43
(lp88
g45
ag46
ag47
ag48
ag47
ag48
ag47
ag46
asg49
(lp89
I01
aI01
aI01
aI01
aI01
aI01
aI01
aI01
asg51
I8
sg52
g55
sg56
(lp90
(g58
I0
g24
tp91
ag60
ag62
ag65
ag67
ag70
ag72
ag73
asg76
(lp92
g78
ag79
ag80
ag52
ag80
ag52
ag80
ag79
asg81
(lp93
g78
ag79
ag80
ag52
ag80
ag52
ag80
ag79
asg83
(lp94
g78
ag79
ag80
ag52
ag80
ag52
ag80
ag79
asaa(lp95
I2
ag39
(g40
tp96
Rp97
g43
(lp98
g45
ag46
ag47
ag47
ag48
ag47
ag48
ag45
ag48
ag47
ag48
ag45
ag48
ag47
ag46
ag46
ag45
ag48
ag47
ag46
asg49
(lp99
I01
aI01
aI00
aI01
aI00
aI01
aI00
aI01
aI01
aI01
aI00
aI01
aI00
aI01
aI00
aI01
aI01
aI01
aI01
aI01
asg51
I20
sg52
g55
sg56
(lp100
(g58
I0
g24
tp101
ag60
ag62
ag63
ag65
a(g61
I0
g54
tp102
ag65
a(g61
I0
g69
tp103
a(g61
I0
g64
tp104
ag67
ag70
a(g61
F1.5707963267948966
g54
tp105
a(g61
F1.5707963267948966
g69
tp106
a(g58
F1.5707963267948966
g69
tp107
a(g58
F1.5707963267948966
g54
tp108
a(g58
F1.5707963267948966
g54
tp109
a(g61
F1.5707963267948966
g54
tp110
ag106
ag72
ag73
asg76
(lp111
g78
ag79
ag80
ag80
ag52
ag80
ag78
ag78
ag52
ag80
ag80
ag78
ag79
ag80
ag79
ag79
ag78
ag52
ag80
ag79
asg81
(lp112
g78
ag79
ag52
ag80
ag78
ag80
ag80
ag78
ag52
ag80
ag80
ag78
ag79
ag80
ag52
ag79
ag78
ag52
ag80
ag79
asg83
(lp113
g78
ag79
ag52
ag80
ag78
ag80
ag80
ag78
ag52
ag80
ag80
ag78
ag79
ag80
ag52
ag79
ag78
ag52
ag80
ag79
asaa(lp114
I3
ag39
(g40
tp115
Rp116
g43
(lp117
g45
ag45
ag46
ag45
ag46
ag47
ag45
ag48
ag47
ag48
ag45
ag48
ag47
ag48
ag47
ag47
ag48
ag47
ag46
asg49
(lp118
I00
aI01
aI00
aI01
aI01
aI00
aI01
aI01
aI01
aI00
aI01
aI00
aI00
aI01
aI00
aI01
aI01
aI01
aI01
asg51
I19
sg52
g55
sg56
(lp119
(g58
I0
g24
tp120
a(g58
I0
g64
tp121
ag60
a(g58
I0
g64
tp122
ag60
ag62
a(g61
I0
g69
tp123
ag104
ag67
ag70
ag105
ag106
a(g61
F1.5707963267948966
g64
tp124
ag68
ag67
a(g61
F1.5707963267948966
g64
tp125
ag70
ag72
ag73
asg76
(lp126
g52
ag78
ag80
ag78
ag79
ag79
ag78
ag52
ag80
ag52
ag78
ag78
ag80
ag52
ag80
ag80
ag52
ag80
ag80
asg81
(lp127
g52
ag78
ag80
ag78
ag79
ag78
ag78
ag52
ag80
ag80
ag78
ag78
ag79
ag52
ag52
ag80
ag52
ag80
ag79
asg83
(lp128
g52
ag78
ag80
ag78
ag79
ag78
ag78
ag52
ag80
ag80
ag78
ag78
ag79
ag52
ag52
ag80
ag52
ag80
ag79
asaa(lp129
I4
ag39
(g40
tp130
Rp131
g43
(lp132
g45
ag46
ag47
ag47
ag46
ag45
ag45
ag46
ag47
ag48
ag47
ag48
ag47
ag46
asg49
(lp133
I01
aI00
aI00
aI01
aI00
aI00
aI01
aI01
aI01
aI01
aI01
aI01
aI01
aI01
asg51
I14
sg52
g55
sg56
(lp134
(g58
I0
g24
tp135
ag60
a(g58
I0
g69
tp136
a(g58
I0
g69
tp137
a(g58
I0
g54
tp138
ag122
a(g58
I0
g64
tp139
ag60
ag62
ag65
ag67
ag70
ag72
ag73
asg76
(lp140
g78
ag79
ag80
ag80
ag80
ag79
ag78
ag79
ag80
ag52
ag80
ag52
ag80
ag79
asg81
(lp141
g78
ag78
ag52
ag80
ag80
ag79
ag78
ag79
ag80
ag52
ag80
ag52
ag80
ag79
asg83
(lp142
g78
ag78
ag52
ag80
ag80
ag79
ag78
ag79
ag80
ag52
ag80
ag52
ag80
ag79
asaa(lp143
I5
ag39
(g40
tp144
Rp145
g43
(lp146
g45
ag46
ag47
ag48
ag47
ag48
ag47
ag46
asg49
(lp147
I01
aI01
aI01
aI01
aI01
aI01
aI01
aI01
asg51
I8
sg52
g55
sg56
(lp148
(g58
I0
g24
tp149
ag60
ag62
ag65
ag67
ag70
ag72
ag73
asg76
(lp150
g78
ag79
ag80
ag52
ag80
ag52
ag80
ag79
asg81
(lp151
g78
ag79
ag80
ag52
ag80
ag52
ag80
ag79
asg83
(lp152
g78
ag79
ag80
ag52
ag80
ag52
ag80
ag79
asaa(lp153
I6
ag39
(g40
tp154
Rp155
g43
(lp156
g45
ag47
ag46
ag47
ag48
ag47
ag47
ag48
ag47
ag46
ag47
ag46
asg49
(lp157
I00
aI01
aI01
aI01
aI01
aI00
aI01
aI01
aI01
aI00
aI01
aI01
asg51
I12
sg52
g55
sg56
(lp158
(g58
I0
g24
tp159
a(g58
I0
g69
tp160
ag138
ag62
ag65
ag67
ag125
ag70
ag72
ag73
a(g71
F1.5707963267948966
g69
tp161
ag73
asg76
(lp162
g78
ag80
ag79
ag80
ag52
ag80
ag80
ag52
ag80
ag79
ag80
ag79
asg81
(lp163
g80
ag80
ag79
ag80
ag52
ag52
ag80
ag52
ag80
ag78
ag80
ag79
asg83
(lp164
g80
ag80
ag79
ag80
ag52
ag52
ag80
ag52
ag80
ag78
ag80
ag79
asaa(lp165
I7
ag39
(g40
tp166
Rp167
g43
(lp168
g45
ag46
ag45
ag46
ag47
ag47
ag47
ag48
ag45
ag48
ag47
ag48
ag47
ag46
asg49
(lp169
I01
aI00
aI01
aI01
aI00
aI00
aI01
aI00
aI01
aI01
aI01
aI01
aI01
aI01
asg51
I14
sg52
g55
sg56
(lp170
(g58
I0
g24
tp171
ag60
ag122
ag60
ag62
a(g61
I0
g54
tp172
ag172
ag65
ag103
ag104
ag67
ag70
ag72
ag73
asg76
(lp173
g78
ag80
ag78
ag79
ag79
ag79
ag80
ag52
ag78
ag52
ag80
ag52
ag80
ag79
asg81
(lp174
g78
ag80
ag78
ag79
ag79
ag79
ag80
ag80
ag78
ag52
ag80
ag52
ag80
ag79
asg83
(lp175
g78
ag80
ag78
ag79
ag79
ag79
ag80
ag80
ag78
ag52
ag80
ag52
ag80
ag79
asaa(lp176
I8
ag39
(g40
tp177
Rp178
g43
(lp179
g45
ag45
ag46
ag47
ag48
ag47
ag48
ag45
ag48
ag47
ag46
ag45
ag45
ag46
asg49
(lp180
I00
aI01
aI01
aI01
aI01
aI01
aI00
aI01
aI01
aI01
aI00
aI00
aI01
aI01
asg51
I14
sg52
g55
sg56
(lp181
(g58
I0
g24
tp182
ag121
ag60
ag62
ag65
ag67
ag70
ag105
ag106
ag72
ag73
ag74
a(g71
F1.5707963267948966
g64
tp183
ag75
asg76
(lp184
g52
ag78
ag79
ag80
ag52
ag80
ag52
ag78
ag52
ag80
ag80
ag52
ag78
ag79
asg81
(lp185
g52
ag78
ag79
ag80
ag52
ag80
ag80
ag78
ag52
ag80
ag80
ag52
ag78
ag79
asg83
(lp186
g52
ag78
ag79
ag80
ag52
ag80
ag80
ag78
ag52
ag80
ag80
ag52
ag78
ag79
asaa(lp187
I9
ag39
(g40
tp188
Rp189
g43
(lp190
g45
ag47
ag45
ag47
ag46
ag47
ag48
ag47
ag47
ag48
ag47
ag46
asg49
(lp191
I00
aI00
aI00
aI01
aI01
aI01
aI01
aI00
aI01
aI01
aI01
aI01
asg51
I12
sg52
g55
sg56
(lp192
(g58
I0
g24
tp193
ag160
a(g58
I0
g64
tp194
ag160
ag138
ag62
ag65
ag67
ag125
ag70
ag72
ag73
asg76
(lp195
g52
ag78
ag78
ag80
ag79
ag80
ag52
ag80
ag80
ag52
ag80
ag79
asg81
(lp196
g80
ag78
ag80
ag80
ag79
ag80
ag52
ag52
ag80
ag52
ag80
ag79
asg83
(lp197
g80
ag78
ag80
ag80
ag79
ag80
ag52
ag52
ag80
ag52
ag80
ag79
asaatp198
Rp199
aatp200
Rp201
.