ccollections
OrderedDict
p0
((lp1
(lp2
S'combination_dict'
p3
ag0
((lp4
(lp5
S'r_to_g_config'
p6
aS'bl'
p7
aa(lp8
S'num_turns'
p9
aI2
aa(lp10
S'start_direction'
p11
acutils_ms
StartDirection
p12
(I1
tp13
Rp14
aa(lp15
S'assistance_type'
p16
acutils_ms
AssistanceType
p17
(I2
tp18
Rp19
aa(lp20
S'start_mode'
p21
aS'x'
p22
aa(lp23
S'ui_given_a_noise'
p24
aF0.5
aa(lp25
S'um_given_ui_noise'
p26
aF0.5
aa(lp27
S'entropy_threshold'
p28
aF0.9
aatp29
Rp30
aa(lp31
S'data'
p32
accollections
defaultdict
p33
(c__builtin__
list
p34
tp35
Rp36
S'a'
p37
(lp38
S'mode_r'
p39
aS'move_n'
p40
aS'mode_l'
p41
ag41
ag39
ag41
ag40
ag41
ag40
ag39
ag40
ag41
ag39
ag41
ag40
ag41
ag39
ag40
ag41
ag40
ag41
ag39
ag40
ag39
ag41
ag40
ag39
ag40
ag41
ag41
ag40
ag41
ag41
ag40
ag39
ag39
ag40
ag41
ag39
ag41
ag41
ag40
ag39
ag40
ag39
ag40
ag41
ag39
ag41
ag40
ag41
ag40
ag39
ag41
ag39
ag41
ag39
ag41
ag40
ag41
ag39
ag40
ag40
ag41
ag41
ag41
ag39
ag40
ag39
ag40
ag41
ag39
ag40
ag41
ag41
ag39
aS'move_p'
p42
ag41
ag40
ag41
ag40
ag41
ag39
ag41
ag40
ag41
ag39
ag40
ag39
ag40
ag41
ag39
ag40
ag39
ag40
ag39
ag41
ag40
asS'assistance_match_with_ground_truth'
p43
(lp44
I01
aI01
aI00
aI00
aI00
aI01
aI00
aI01
aI00
aI01
aI01
aI00
aI00
aI01
aI00
aI00
aI01
aI00
aI01
aI00
aI00
aI01
aI00
aI00
aI01
aI00
aI01
aI01
aI00
aI01
aI00
aI00
aI01
aI00
aI00
aI01
aI01
aI00
aI00
aI00
aI01
aI00
aI01
aI00
aI01
aI00
aI00
aI00
aI01
aI00
aI01
aI00
aI00
aI00
aI00
aI00
aI00
aI01
aI00
aI00
aI01
aI00
aI01
aI00
aI00
aI00
aI01
aI00
aI01
aI00
aI00
aI01
aI01
aI00
aI00
aI01
aI01
aI01
aI00
aI01
aI00
aI00
aI00
aI01
aI00
aI00
aI01
aI01
aI01
aI00
aI00
aI01
aI00
aI01
aI01
aI00
aI01
aI01
asS'total_steps'
p45
I98
sS'sp'
p46
(lp47
(S'p0'
p48
I0
S'y'
p49
tp50
a(S'p1'
p51
I0
g49
tp52
a(g51
I0
g49
tp53
a(g51
I0
S't'
p54
tp55
a(g51
I0
g49
tp56
a(g51
I0
S'x'
p57
tp58
a(g51
I0
g49
tp59
ag58
a(g51
I0
g54
tp60
a(g51
I0
g57
tp61
a(S'p2'
p62
I0
g57
tp63
a(g62
I0
g49
tp64
a(g51
I0
g49
tp65
ag58
ag59
ag55
ag61
ag59
ag58
ag59
ag55
ag61
a(g48
I0
g57
tp66
a(g48
I0
g54
tp67
a(g48
I0
g49
tp68
a(g48
I0
g57
tp69
ag50
ag52
ag53
ag58
ag59
a(g51
I0
g49
tp70
ag58
ag66
a(g48
I0
g57
tp71
ag50
ag52
ag55
ag56
ag70
ag58
ag66
ag50
ag69
ag50
a(g48
I0
g54
tp72
a(g48
I0
g57
tp73
ag67
ag68
ag72
ag68
ag69
ag67
ag73
ag67
ag73
ag67
ag68
ag72
ag73
ag50
a(g48
I0
g49
tp74
ag52
ag70
ag70
ag55
ag61
ag60
ag61
ag59
ag55
ag61
ag63
a(g62
I0
g57
tp75
ag64
a(g62
I0
g54
tp76
a(g62
F1.5707963267948966
g54
tp77
a(g62
F1.5707963267948966
g49
tp78
a(g62
F1.5707963267948966
g54
tp79
ag78
a(g51
F1.5707963267948966
g49
tp80
a(g51
F1.5707963267948966
g54
tp81
a(g51
F1.5707963267948966
g49
tp82
a(g51
F1.5707963267948966
g57
tp83
a(g51
F1.5707963267948966
g49
tp84
ag81
a(g51
F1.5707963267948966
g57
tp85
a(g62
F1.5707963267948966
g57
tp86
a(g62
F1.5707963267948966
g49
tp87
ag80
ag81
ag85
a(g51
F1.5707963267948966
g54
tp88
ag85
ag86
a(g62
F1.5707963267948966
g54
tp89
ag78
a(S'p3'
p90
F1.5707963267948966
g49
tp91
asS's'
p92
(lp93
(g48
I0
g22
tp94
ag50
ag52
ag53
ag55
ag56
ag58
ag59
ag58
ag60
ag61
ag63
ag64
ag65
ag58
ag59
ag55
ag61
ag59
ag58
ag59
ag55
ag61
ag66
ag67
ag68
ag69
ag50
ag52
ag53
ag58
ag59
ag70
ag58
ag66
ag71
ag50
ag52
ag55
ag56
ag70
ag58
ag66
ag50
ag69
ag50
ag72
ag73
ag67
ag68
ag72
ag68
ag69
ag67
ag73
ag67
ag73
ag67
ag68
ag72
ag73
ag50
ag74
ag52
ag70
ag70
ag55
ag61
ag60
ag61
ag59
ag55
ag61
ag63
ag75
ag64
ag76
ag77
ag78
ag79
ag78
ag80
ag81
ag82
ag83
ag84
ag81
ag85
ag86
ag87
ag80
ag81
ag85
ag88
ag85
ag86
ag89
ag78
asS'ui'
p95
(lp96
S'hp'
p97
aS'ss'
p98
aS'hs'
p99
ag99
ag99
ag97
ag97
ag99
ag46
ag97
ag98
ag97
ag46
ag99
ag97
ag97
ag97
ag98
ag99
ag98
ag97
ag97
ag46
ag97
ag99
ag98
ag97
ag98
ag98
ag99
ag97
ag97
ag99
ag46
ag46
ag97
ag98
ag99
ag99
ag46
ag97
ag46
ag97
ag98
ag99
ag97
ag99
ag99
ag99
ag99
ag97
ag97
ag97
ag97
ag97
ag99
ag97
ag99
ag98
ag99
ag97
ag99
ag98
ag97
ag99
ag97
ag97
ag98
ag97
ag98
ag99
ag97
ag98
ag98
ag99
ag97
ag46
ag99
ag98
ag97
ag98
ag97
ag97
ag99
ag98
ag97
ag97
ag98
ag97
ag46
ag99
ag97
ag99
ag97
ag98
ag46
ag99
ag98
asS'um_before'
p100
(lp101
g97
ag98
ag98
ag97
ag99
ag99
ag97
ag99
ag99
ag97
ag98
ag97
ag46
ag99
ag97
ag97
ag97
ag97
ag99
ag97
ag97
ag97
ag46
ag99
ag99
ag99
ag97
ag98
ag98
ag99
ag97
ag46
ag99
ag46
ag46
ag97
ag98
ag97
ag99
ag46
ag99
ag46
ag97
ag99
ag97
ag97
ag97
ag99
ag99
ag97
ag99
ag99
ag99
ag97
ag99
ag97
ag99
ag99
ag97
ag97
ag97
ag46
ag98
ag46
ag46
ag97
ag97
ag99
ag97
ag97
ag97
ag97
ag98
ag98
ag97
ag97
ag46
ag99
ag97
ag99
ag46
ag97
ag99
ag99
ag97
ag97
ag97
ag98
ag97
ag46
ag97
ag97
ag99
ag97
ag98
ag99
ag99
ag98
asS'um_after'
p102
(lp103
g97
ag98
ag98
ag97
ag99
ag99
ag97
ag99
ag99
ag97
ag98
ag97
ag46
ag99
ag97
ag97
ag97
ag97
ag99
ag97
ag97
ag97
ag46
ag99
ag99
ag99
ag97
ag98
ag98
ag99
ag97
ag46
ag99
ag46
ag46
ag97
ag98
ag97
ag99
ag46
ag99
ag46
ag97
ag99
ag97
ag97
ag97
ag99
ag99
ag97
ag99
ag99
ag99
ag97
ag99
ag97
ag99
ag99
ag97
ag97
ag97
ag46
ag98
ag46
ag46
ag97
ag97
ag99
ag97
ag97
ag97
ag97
ag98
ag98
ag97
ag97
ag46
ag99
ag97
ag99
ag46
ag97
ag99
ag99
ag97
ag97
ag97
ag98
ag97
ag46
ag97
ag97
ag99
ag97
ag98
ag99
ag99
ag98
asaa(lp104
S'index'
p105
aI75741
aatp106
Rp107
.