ccollections
OrderedDict
p0
((lp1
(lp2
S'index'
p3
aI180
aa(lp4
S'combination_dict'
p5
ag0
((lp6
(lp7
S'r_to_g_config'
p8
aS'tr'
p9
aa(lp10
S'num_turns'
p11
aI1
aa(lp12
S'start_direction'
p13
acutils_ms
StartDirection
p14
(I3
tp15
Rp16
aa(lp17
S'assistance_type'
p18
acutils_ms
AssistanceType
p19
(I0
tp20
Rp21
aa(lp22
S'start_mode'
p23
aS'y'
p24
aa(lp25
S'ui_given_a_noise'
p26
aF0.1
aa(lp27
S'um_given_ui_noise'
p28
aF0.5
aa(lp29
S'entropy_threshold'
p30
aF0.5
aa(lp31
S'is_assistance'
p32
aI01
aatp33
Rp34
aa(lp35
S'trials'
p36
ag0
((lp37
(lp38
I0
accollections
defaultdict
p39
(c__builtin__
list
p40
tp41
Rp42
S'a'
p43
(lp44
S'mode_l'
p45
ag45
aS'move_p'
p46
ag45
ag45
ag45
ag46
ag46
ag46
ag45
ag45
ag45
ag45
ag45
ag45
ag46
ag46
asS'assistance_match_with_ground_truth'
p47
(lp48
I00
aI01
aI01
aI00
aI00
aI01
aI00
aI00
aI01
aI00
aI00
aI00
aI00
aI00
aI01
aI00
aI01
asS'total_steps'
p49
I17
sS'sp'
p50
(S'p2'
p51
F1.5707963267948966
S'y'
p52
tp53
sS's'
p54
(lp55
(S'p0'
p56
I0
g24
tp57
ag57
a(g56
I0
S'x'
p58
tp59
a(S'p1'
p60
I0
g58
tp61
ag61
ag61
a(g60
I0
S't'
p62
tp63
ag63
ag63
a(g60
F1.5707963267948966
g62
tp64
a(g60
F1.5707963267948966
g62
tp65
ag65
ag65
ag65
ag65
a(g60
F1.5707963267948966
g52
tp66
ag66
asS'ui'
p67
(lp68
S'hs'
p69
ag69
ag50
ag69
ag69
ag69
aS'hp'
p70
ag50
ag50
ag50
ag50
ag69
ag69
ag69
ag69
ag50
ag50
asS'um_before'
p71
(lp72
g70
ag69
ag50
ag70
aS'ss'
p73
ag69
ag70
ag70
ag50
ag50
ag50
ag73
ag73
ag73
ag69
ag70
ag50
asS'um_after'
p74
(lp75
Nag69
ag50
aNaNag69
aNaNag50
ag50
ag50
aNaNaNag69
aNag50
asaa(lp76
I1
ag39
(g40
tp77
Rp78
g43
(lp79
g45
ag45
ag46
ag45
ag45
ag45
ag45
ag45
ag45
ag46
ag46
ag46
ag45
ag45
ag45
ag46
ag46
ag46
asg47
(lp80
I00
aI01
aI01
aI00
aI00
aI00
aI00
aI00
aI01
aI00
aI00
aI01
aI00
aI00
aI01
aI00
aI00
aI01
asg49
I18
sg50
g53
sg54
(lp81
(g56
I0
g24
tp82
a(g56
I0
g52
tp83
ag59
ag61
ag61
a(g60
I0
g58
tp84
ag84
ag84
ag84
ag63
ag63
ag63
ag64
ag65
ag65
ag66
ag66
ag66
asg67
(lp85
g69
ag69
ag50
ag69
ag69
ag69
ag69
ag69
ag69
ag50
ag50
ag50
ag69
ag69
ag69
ag50
ag50
ag50
asg71
(lp86
g50
ag69
ag50
ag70
ag50
ag73
ag73
ag70
ag69
ag70
ag73
ag50
ag50
ag73
ag69
ag73
ag70
ag50
asg74
(lp87
g50
ag69
ag50
aNag50
aNaNaNag69
aNaNag50
ag50
aNag69
aNaNag50
asaa(lp88
I2
ag39
(g40
tp89
Rp90
g43
(lp91
g45
ag45
ag45
ag46
ag45
ag45
ag46
ag46
ag46
ag46
ag46
aS'mode_r'
p92
ag46
ag46
ag45
ag45
ag46
ag46
asg47
(lp93
I00
aI00
aI01
aI01
aI00
aI01
aI00
aI00
aI00
aI00
aI00
aI01
aI00
aI01
aI00
aI01
aI00
aI01
asg49
I18
sg50
g53
sg54
(lp94
(g56
I0
g24
tp95
ag95
ag95
ag59
ag61
ag61
ag63
ag63
ag63
ag63
ag63
a(g60
I0
g52
tp96
a(g60
I0
g62
tp97
ag97
ag64
ag64
ag66
ag66
asg67
(lp98
g69
ag69
ag69
ag50
ag69
ag69
ag50
ag70
ag50
ag50
ag50
ag70
ag50
ag50
ag69
ag69
ag50
ag50
asg71
(lp99
g70
ag73
ag69
ag50
ag73
ag69
ag70
ag73
ag70
ag73
ag69
ag70
ag73
ag50
ag70
ag69
ag73
ag50
asg74
(lp100
NaNag69
ag50
aNag69
aNaNaNaNag69
ag70
aNag50
aNag69
aNag50
asaa(lp101
I3
ag39
(g40
tp102
Rp103
g43
(lp104
g45
ag45
ag45
ag46
ag45
ag45
ag45
ag45
ag46
ag45
ag46
ag46
ag46
ag46
asg47
(lp105
I00
aI00
aI01
aI01
aI00
aI00
aI00
aI01
aI01
aI01
aI00
aI00
aI00
aI01
asg49
I14
sg50
g53
sg54
(lp106
(g56
I0
g24
tp107
ag83
ag83
ag59
ag61
ag61
ag61
ag61
ag63
ag64
ag66
ag66
ag66
ag66
asg67
(lp108
g69
ag69
ag69
ag50
ag70
ag69
ag69
ag69
ag50
ag69
ag50
ag50
ag69
ag50
asg71
(lp109
g50
ag50
ag69
ag50
ag70
ag70
ag70
ag69
ag50
ag69
ag73
ag73
ag73
ag50
asg74
(lp110
g50
ag50
ag69
ag50
aNaNaNag69
ag50
ag69
aNaNaNag50
asaa(lp111
I4
ag39
(g40
tp112
Rp113
g43
(lp114
g45
ag46
ag92
ag46
ag45
ag46
ag45
ag46
ag46
asg47
(lp115
I01
aI00
aI01
aI01
aI01
aI01
aI01
aI00
aI01
asg49
I9
sg50
g53
sg54
(lp116
(g56
I0
g24
tp117
ag59
a(g56
I0
g62
tp118
a(g56
I0
g58
tp119
ag61
ag63
ag64
ag66
ag66
asg67
(lp120
g69
ag69
ag70
ag50
ag69
ag50
ag69
ag50
ag50
asg71
(lp121
g69
ag69
ag70
ag50
ag69
ag50
ag69
ag73
ag50
asg74
(lp122
g69
ag69
ag70
ag50
ag69
ag50
ag69
aNag50
asaa(lp123
I5
ag39
(g40
tp124
Rp125
g43
(lp126
g45
ag45
ag45
ag46
ag45
ag45
ag46
ag46
ag46
ag46
ag45
ag45
ag45
ag45
ag45
ag46
ag46
ag46
asg47
(lp127
I00
aI00
aI01
aI01
aI00
aI01
aI00
aI00
aI00
aI01
aI00
aI00
aI00
aI00
aI01
aI00
aI00
aI01
asg49
I18
sg50
g53
sg54
(lp128
(g56
I0
g24
tp129
ag83
ag83
ag59
ag61
ag84
ag63
ag63
ag63
ag63
ag64
ag64
ag64
ag65
ag65
ag66
ag66
ag66
asg67
(lp130
g69
ag69
ag69
ag50
ag50
ag69
ag50
ag50
ag50
ag50
ag69
ag69
ag69
ag69
ag69
ag50
ag50
ag50
asg71
(lp131
g50
ag70
ag69
ag50
ag50
ag69
ag73
ag73
ag70
ag50
ag70
ag70
ag50
ag73
ag69
ag73
ag73
ag50
asg74
(lp132
g50
aNag69
ag50
ag50
ag69
aNaNaNag50
aNaNag50
aNag69
aNaNag50
asaa(lp133
I6
ag39
(g40
tp134
Rp135
g43
(lp136
g45
ag46
ag45
ag46
ag46
ag46
ag46
ag46
ag45
ag45
ag46
ag92
ag46
asg47
(lp137
I01
aI01
aI01
aI00
aI00
aI00
aI00
aI01
aI00
aI01
aI00
aI01
aI01
asg49
I13
sg50
g53
sg54
(lp138
(g56
I0
g24
tp139
ag59
ag61
ag63
ag63
ag63
ag63
ag63
ag64
ag64
ag66
a(g60
F1.5707963267948966
g58
tp140
a(g60
F1.5707963267948966
g52
tp141
asg67
(lp142
g69
ag50
ag69
ag73
ag50
ag50
ag50
ag50
ag69
ag69
ag69
ag70
ag50
asg71
(lp143
g69
ag50
ag69
ag70
ag73
ag70
ag73
ag50
ag73
ag69
ag69
ag70
ag50
asg74
(lp144
g69
ag50
ag69
aNaNaNaNag50
aNag69
ag69
ag70
ag50
asaa(lp145
I7
ag39
(g40
tp146
Rp147
g43
(lp148
g45
ag45
ag45
ag46
ag45
ag45
ag46
ag46
ag46
ag46
ag46
ag46
ag46
ag46
ag46
ag46
ag45
ag46
ag46
ag46
asg47
(lp149
I00
aI00
aI01
aI01
aI00
aI01
aI00
aI00
aI00
aI00
aI00
aI00
aI00
aI00
aI00
aI01
aI01
aI00
aI00
aI01
asg49
I20
sg50
g53
sg54
(lp150
(g56
I0
g24
tp151
ag151
ag151
ag59
ag61
ag84
ag63
ag63
ag63
ag63
ag63
ag63
ag63
ag63
ag63
ag63
ag64
ag66
ag66
ag66
asg67
(lp152
g69
ag69
ag69
ag50
ag69
ag69
ag70
ag50
ag50
ag70
ag50
ag50
ag50
ag50
ag50
ag69
ag69
ag50
ag50
ag50
asg71
(lp153
g73
ag73
ag69
ag50
ag50
ag69
ag70
ag73
ag70
ag70
ag73
ag70
ag73
ag70
ag73
ag50
ag69
ag73
ag73
ag50
asg74
(lp154
NaNag69
ag50
ag50
ag69
aNaNaNaNaNaNaNaNaNag50
ag69
aNaNag50
asaa(lp155
I8
ag39
(g40
tp156
Rp157
g43
(lp158
g45
ag45
ag45
ag46
ag92
ag92
ag46
ag46
ag46
ag45
ag46
ag45
ag45
ag46
ag46
asg47
(lp159
I00
aI00
aI01
aI00
aI00
aI01
aI00
aI00
aI01
aI01
aI01
aI00
aI01
aI00
aI01
asg49
I15
sg50
g53
sg54
(lp160
(g56
I0
g24
tp161
ag161
ag161
ag59
ag118
ag118
ag119
ag119
ag119
ag61
ag63
ag64
ag65
ag66
ag66
asg67
(lp162
g69
ag69
ag69
ag69
ag70
ag70
ag50
ag50
ag50
ag69
ag50
ag69
ag69
ag50
ag50
asg71
(lp163
g73
ag73
ag69
ag69
ag69
ag70
ag70
ag73
ag50
ag69
ag50
ag50
ag69
ag73
ag50
asg74
(lp164
NaNag69
ag69
aNag70
aNaNag50
ag69
ag50
ag50
ag69
aNag50
asaa(lp165
I9
ag39
(g40
tp166
Rp167
g43
(lp168
g45
ag46
ag45
ag46
ag46
ag45
ag45
ag45
ag45
ag46
ag46
asg47
(lp169
I01
aI01
aI01
aI00
aI01
aI00
aI00
aI00
aI01
aI00
aI01
asg49
I11
sg50
g53
sg54
(lp170
(g56
I0
g24
tp171
ag59
ag61
ag63
ag63
ag64
ag65
ag65
ag65
ag66
ag66
asg67
(lp172
g69
ag50
ag69
ag50
ag50
ag69
ag50
ag69
ag69
ag50
ag50
asg71
(lp173
g69
ag50
ag69
ag70
ag50
ag50
ag50
ag70
ag69
ag70
ag50
asg74
(lp174
g69
ag50
ag69
aNag50
ag50
ag50
aNag69
aNag50
asaatp175
Rp176
aatp177
Rp178
.