ccollections
OrderedDict
p0
((lp1
(lp2
S'combination_dict'
p3
ag0
((lp4
(lp5
S'r_to_g_config'
p6
aS'br'
p7
aa(lp8
S'num_turns'
p9
aI3
aa(lp10
S'start_direction'
p11
acutils_ms
StartDirection
p12
(I0
tp13
Rp14
aa(lp15
S'assistance_type'
p16
acutils_ms
AssistanceType
p17
(I2
tp18
Rp19
aa(lp20
S'start_mode'
p21
aS't'
p22
aa(lp23
S'ui_given_a_noise'
p24
aF0.3
aa(lp25
S'um_given_ui_noise'
p26
aF0.7
aa(lp27
S'entropy_threshold'
p28
aF0.6
aatp29
Rp30
aa(lp31
S'data'
p32
accollections
defaultdict
p33
(c__builtin__
list
p34
tp35
Rp36
S'a'
p37
(lp38
S'mode_r'
p39
ag39
aS'mode_l'
p40
ag39
aS'move_p'
p41
ag39
ag39
ag39
aS'move_n'
p42
ag40
ag39
ag39
ag42
ag40
ag40
ag39
ag41
ag39
ag41
ag40
ag41
ag40
ag39
ag39
ag39
ag41
ag40
ag40
ag39
ag41
ag40
ag40
ag41
ag40
ag39
ag40
ag39
ag41
ag40
ag41
ag39
ag39
ag39
ag41
ag40
ag41
ag40
ag41
ag39
ag42
ag40
ag42
ag39
ag42
ag40
ag40
ag41
ag39
ag42
ag39
ag41
ag41
ag39
ag41
ag39
ag39
ag39
ag41
ag39
ag39
ag41
ag41
ag40
ag39
ag40
ag39
ag39
ag42
ag40
ag40
ag42
ag39
ag40
ag41
ag39
ag39
ag41
ag39
ag39
ag41
ag39
ag41
ag40
ag39
ag41
ag40
ag41
ag39
ag41
ag40
ag41
ag39
ag39
ag39
ag39
ag39
ag41
ag40
ag39
ag39
ag39
ag41
ag39
ag39
ag39
ag39
ag41
ag39
ag40
ag39
ag41
ag39
ag40
ag42
ag40
ag39
ag40
ag41
ag40
ag40
ag41
ag39
ag41
ag39
ag39
ag39
ag39
ag42
ag40
ag39
ag42
ag40
ag42
ag40
ag42
ag39
ag42
ag40
ag41
ag39
ag42
ag39
ag42
ag40
ag42
ag40
ag42
asS'assistance_match_with_ground_truth'
p43
(lp44
I00
aI00
aI00
aI01
aI01
aI00
aI00
aI01
aI00
aI00
aI00
aI01
aI00
aI00
aI00
aI01
aI00
aI01
aI00
aI01
aI00
aI00
aI00
aI00
aI01
aI00
aI00
aI00
aI01
aI00
aI00
aI01
aI00
aI00
aI00
aI00
aI01
aI00
aI01
aI00
aI00
aI00
aI01
aI00
aI01
aI00
aI01
aI01
aI01
aI00
aI01
aI00
aI01
aI00
aI00
aI01
aI01
aI01
aI01
aI01
aI00
aI00
aI01
aI00
aI00
aI00
aI01
aI00
aI00
aI01
aI00
aI00
aI00
aI00
aI00
aI00
aI01
aI00
aI00
aI01
aI01
aI00
aI01
aI00
aI00
aI01
aI00
aI00
aI01
aI00
aI01
aI00
aI00
aI01
aI00
aI01
aI00
aI01
aI00
aI01
aI00
aI00
aI00
aI00
aI00
aI01
aI00
aI00
aI00
aI00
aI01
aI00
aI00
aI00
aI00
aI01
aI01
aI00
aI00
aI01
aI00
aI00
aI01
aI01
aI00
aI00
aI01
aI00
aI00
aI01
aI00
aI01
aI00
aI00
aI00
aI00
aI01
aI00
aI00
aI01
aI00
aI01
aI00
aI01
aI00
aI01
aI01
aI01
aI01
aI01
aI00
aI01
aI00
aI01
aI00
aI01
aI01
asS'total_steps'
p45
I157
sS'sp'
p46
(lp47
(S'p0'
p48
I0
S't'
p49
tp50
a(g48
I0
S'y'
p51
tp52
a(g48
I0
g49
tp53
a(g48
I0
S'x'
p54
tp55
a(S'p1'
p56
I0
g54
tp57
a(g56
I0
g54
tp58
ag58
a(g56
I0
g51
tp59
a(g56
I0
g49
tp60
a(g56
I0
g54
tp61
a(g56
I0
g54
tp62
ag59
a(g48
I0
g51
tp63
a(g48
I0
g51
tp64
ag53
ag55
a(g48
I0
g49
tp65
ag55
a(g48
I0
g51
tp66
a(g48
I0
g54
tp67
ag66
ag53
a(g48
I0
g49
tp68
ag50
ag55
ag66
ag64
ag53
ag55
ag66
ag64
ag67
ag66
ag53
ag52
ag53
ag55
ag66
ag67
ag65
ag68
ag68
ag55
ag66
ag67
ag66
ag67
ag57
ag59
ag60
a(g56
I0
g51
tp69
a(g56
I0
g54
tp70
ag59
ag63
ag64
ag67
ag57
ag59
a(S'p2'
p71
I0
g51
tp72
a(g71
I0
g49
tp73
a(g71
I0
g49
tp74
a(g71
I0
g51
tp75
ag73
ag75
a(g71
I0
g51
tp76
ag76
ag73
ag75
a(g71
I0
g51
tp77
ag73
ag74
a(g71
I0
g54
tp78
a(g71
I0
g51
tp79
a(g71
I0
g54
tp80
a(g56
I0
g54
tp81
ag58
ag59
ag60
a(g56
I0
g49
tp82
ag69
ag72
ag80
a(g71
I0
g49
tp83
ag75
ag77
ag73
ag75
ag77
ag73
ag75
ag73
ag78
ag79
ag73
ag78
ag83
ag75
ag73
ag78
ag83
ag75
ag76
ag76
ag77
ag77
ag73
ag78
ag79
ag76
ag77
ag73
ag75
ag77
ag77
ag76
ag73
a(g71
F1.5707963267948966
g49
tp84
a(g71
F1.5707963267948966
g51
tp85
a(g71
F1.5707963267948966
g49
tp86
a(g71
F1.5707963267948966
g54
tp87
a(g56
F1.5707963267948966
g54
tp88
a(g56
F1.5707963267948966
g49
tp89
a(g56
F1.5707963267948966
g51
tp90
a(g71
F1.5707963267948966
g51
tp91
ag86
ag85
a(g71
F1.5707963267948966
g54
tp92
a(g71
F1.5707963267948966
g51
tp93
a(g71
F1.5707963267948966
g51
tp94
ag92
a(g71
F1.5707963267948966
g49
tp95
ag87
ag88
a(g56
F1.5707963267948966
g54
tp96
a(g56
F1.5707963267948966
g54
tp97
ag96
a(g56
F1.5707963267948966
g51
tp98
a(g56
F1.5707963267948966
g49
tp99
a(g56
F1.5707963267948966
g54
tp100
ag98
ag99
ag90
ag99
ag90
a(g56
F1.5707963267948966
g54
tp101
ag98
ag91
ag92
a(S'p3'
p102
F1.5707963267948966
g54
tp103
a(g102
F1.5707963267948966
g51
tp104
a(g102
F1.5707963267948966
g54
tp105
ag104
a(g102
F1.5707963267948966
g49
tp106
a(g102
F1.5707963267948966
g51
tp107
ag106
ag107
a(S'p4'
p108
F1.5707963267948966
g51
tp109
asS's'
p110
(lp111
(g48
I0
g22
tp112
ag50
ag52
ag53
ag55
ag57
ag58
ag58
ag59
ag60
ag61
ag62
ag59
ag63
ag64
ag53
ag55
ag65
ag55
ag66
ag67
ag66
ag53
ag68
ag50
ag55
ag66
ag64
ag53
ag55
ag66
ag64
ag67
ag66
ag53
ag52
ag53
ag55
ag66
ag67
ag65
ag68
ag68
ag55
ag66
ag67
ag66
ag67
ag57
ag59
ag60
ag69
ag70
ag59
ag63
ag64
ag67
ag57
ag59
ag72
ag73
ag74
ag75
ag73
ag75
ag76
ag76
ag73
ag75
ag77
ag73
ag74
ag78
ag79
ag80
ag81
ag58
ag59
ag60
ag82
ag69
ag72
ag80
ag83
ag75
ag77
ag73
ag75
ag77
ag73
ag75
ag73
ag78
ag79
ag73
ag78
ag83
ag75
ag73
ag78
ag83
ag75
ag76
ag76
ag77
ag77
ag73
ag78
ag79
ag76
ag77
ag73
ag75
ag77
ag77
ag76
ag73
ag84
ag85
ag86
ag87
ag88
ag89
ag90
ag91
ag86
ag85
ag92
ag93
ag94
ag92
ag95
ag87
ag88
ag96
ag97
ag96
ag98
ag99
ag100
ag98
ag99
ag90
ag99
ag90
ag101
ag98
ag91
ag92
ag103
ag104
ag105
ag104
ag106
ag107
ag106
ag107
asS'ui'
p113
(lp114
S'hp'
p115
aS'hs'
p116
ag46
aS'ss'
p117
ag46
ag115
ag117
ag115
ag117
ag116
ag115
ag115
ag116
ag116
ag46
ag115
ag116
ag115
ag46
ag116
ag117
ag116
ag115
ag115
ag115
ag117
ag116
ag116
ag115
ag46
ag117
ag116
ag46
ag116
ag116
ag116
ag46
ag46
ag46
ag46
ag115
ag115
ag115
ag115
ag116
ag115
ag46
ag46
ag117
ag117
ag116
ag117
ag117
ag46
ag117
ag46
ag46
ag115
ag117
ag115
ag117
ag46
ag115
ag116
ag115
ag115
ag46
ag46
ag46
ag115
ag116
ag116
ag116
ag46
ag116
ag115
ag115
ag117
ag117
ag116
ag117
ag46
ag116
ag46
ag115
ag115
ag46
ag46
ag115
ag46
ag115
ag115
ag46
ag117
ag115
ag46
ag116
ag115
ag46
ag116
ag46
ag115
ag117
ag115
ag46
ag115
ag115
ag116
ag117
ag115
ag115
ag116
ag46
ag115
ag117
ag115
ag46
ag46
ag46
ag115
ag117
ag117
ag116
ag117
ag116
ag46
ag116
ag46
ag117
ag116
ag116
ag115
ag117
ag115
ag115
ag117
ag115
ag117
ag116
ag115
ag115
ag116
ag115
ag116
ag116
ag46
ag117
ag116
ag46
ag115
ag46
ag115
ag117
ag116
ag117
ag116
ag117
asS'um_before'
p118
(lp119
g117
ag116
ag115
ag115
ag46
ag117
ag117
ag115
ag115
ag115
ag46
ag115
ag46
ag117
ag115
ag115
ag116
ag115
ag115
ag116
ag115
ag115
ag46
ag117
ag115
ag115
ag117
ag115
ag115
ag115
ag117
ag116
ag115
ag115
ag116
ag115
ag115
ag115
ag116
ag116
ag46
ag46
ag115
ag115
ag116
ag115
ag116
ag46
ag115
ag115
ag116
ag116
ag115
ag46
ag117
ag116
ag46
ag115
ag117
ag115
ag117
ag116
ag115
ag116
ag117
ag117
ag115
ag116
ag46
ag115
ag117
ag115
ag115
ag116
ag117
ag117
ag115
ag115
ag117
ag116
ag117
ag116
ag116
ag116
ag46
ag115
ag116
ag46
ag115
ag116
ag115
ag115
ag115
ag115
ag115
ag116
ag116
ag115
ag115
ag116
ag116
ag117
ag117
ag46
ag46
ag115
ag115
ag115
ag117
ag46
ag115
ag116
ag46
ag46
ag117
ag115
ag46
ag116
ag115
ag115
ag117
ag116
ag116
ag117
ag115
ag116
ag116
ag115
ag117
ag116
ag116
ag115
ag117
ag117
ag46
ag117
ag115
ag115
ag115
ag115
ag115
ag116
ag115
ag116
ag116
ag115
ag117
ag116
ag46
ag115
ag116
ag115
ag115
ag116
ag115
ag116
ag117
asS'um_after'
p120
(lp121
g117
ag116
ag115
ag115
ag46
ag117
ag117
ag115
ag115
ag115
ag46
ag115
ag46
ag117
ag115
ag115
ag116
ag115
ag115
ag116
ag115
ag115
ag46
ag117
ag115
ag115
ag117
ag115
ag115
ag115
ag117
ag116
ag115
ag115
ag116
ag115
ag115
ag115
ag116
ag116
ag46
ag46
ag115
ag115
ag116
ag115
ag116
ag46
ag115
ag115
ag116
ag116
ag115
ag46
ag117
ag116
ag46
ag115
ag117
ag115
ag117
ag116
ag115
ag116
ag117
ag117
ag115
ag116
ag46
ag115
ag117
ag115
ag115
ag116
ag117
ag117
ag115
ag115
ag117
ag116
ag117
ag116
ag116
ag116
ag46
ag115
ag116
ag46
ag115
ag116
ag115
ag115
ag115
ag115
ag115
ag116
ag116
ag115
ag115
ag116
ag116
ag117
ag117
ag46
ag46
ag115
ag115
ag115
ag117
ag46
ag115
ag116
ag46
ag46
ag117
ag115
ag46
ag116
ag115
ag115
ag117
ag116
ag116
ag117
ag115
ag116
ag116
ag115
ag117
ag116
ag116
ag115
ag117
ag117
ag46
ag117
ag115
ag115
ag115
ag115
ag115
ag116
ag115
ag116
ag116
ag115
ag117
ag116
ag46
ag115
ag116
ag115
ag115
ag116
ag115
ag116
ag117
asaa(lp122
S'index'
p123
aI109162
aatp124
Rp125
.