ccollections
OrderedDict
p0
((lp1
(lp2
S'combination_dict'
p3
ag0
((lp4
(lp5
S'r_to_g_config'
p6
aS'br'
p7
aa(lp8
S'num_turns'
p9
aI2
aa(lp10
S'start_direction'
p11
acutils_ms
StartDirection
p12
(I0
tp13
Rp14
aa(lp15
S'assistance_type'
p16
acutils_ms
AssistanceType
p17
(I2
tp18
Rp19
aa(lp20
S'start_mode'
p21
aS't'
p22
aa(lp23
S'ui_given_a_noise'
p24
aF0.7
aa(lp25
S'um_given_ui_noise'
p26
aF0.7
aa(lp27
S'entropy_threshold'
p28
aF0.9
aatp29
Rp30
aa(lp31
S'data'
p32
accollections
defaultdict
p33
(c__builtin__
list
p34
tp35
Rp36
S'a'
p37
(lp38
S'mode_r'
p39
ag39
aS'move_p'
p40
ag39
ag39
ag40
ag39
ag40
aS'mode_l'
p41
ag39
ag40
ag40
ag39
ag40
ag40
ag39
ag41
ag39
ag40
ag41
ag41
aS'move_n'
p42
ag41
ag40
ag39
ag40
ag40
ag41
ag40
ag41
ag41
ag41
ag41
ag39
ag40
ag39
ag39
ag40
ag41
ag40
ag41
ag39
ag39
ag40
ag39
ag41
ag39
ag41
ag40
ag40
ag39
ag41
ag41
ag40
ag39
ag40
ag41
ag41
ag39
ag40
ag39
ag41
ag39
ag41
ag39
ag42
ag39
ag39
ag42
ag41
ag39
ag41
ag40
ag39
ag39
ag40
ag39
ag42
ag39
ag41
ag41
ag42
ag39
ag41
ag41
ag39
ag42
ag41
ag39
ag40
ag41
ag39
ag40
ag39
ag42
ag41
ag42
ag41
ag39
ag39
ag40
ag39
ag42
ag41
ag39
ag40
ag41
ag40
ag39
ag39
ag42
ag41
ag39
ag40
asS'assistance_match_with_ground_truth'
p43
(lp44
I00
aI01
aI00
aI00
aI01
aI00
aI01
aI01
aI00
aI01
aI00
aI00
aI01
aI00
aI00
aI00
aI00
aI01
aI01
aI00
aI01
aI00
aI01
aI00
aI01
aI00
aI00
aI01
aI00
aI00
aI00
aI00
aI00
aI01
aI00
aI00
aI01
aI00
aI01
aI00
aI00
aI00
aI01
aI00
aI00
aI00
aI00
aI01
aI00
aI00
aI00
aI00
aI01
aI00
aI01
aI00
aI00
aI00
aI01
aI01
aI00
aI00
aI00
aI00
aI01
aI00
aI00
aI01
aI00
aI00
aI00
aI01
aI00
aI00
aI01
aI01
aI01
aI00
aI00
aI00
aI01
aI00
aI00
aI00
aI00
aI01
aI01
aI00
aI01
aI00
aI00
aI01
aI00
aI01
aI00
aI01
aI01
aI00
aI00
aI01
aI00
aI01
aI01
aI00
aI01
aI00
aI01
aI00
aI00
aI01
aI01
aI00
aI01
aI01
asS'total_steps'
p45
I114
sS'sp'
p46
(lp47
(S'p0'
p48
I0
S't'
p49
tp50
a(g48
I0
S'x'
p51
tp52
a(g48
I0
g49
tp53
ag50
ag52
ag53
ag52
a(S'p1'
p54
I0
g51
tp55
a(g54
I0
S'y'
p56
tp57
a(g54
I0
g49
tp58
a(g54
I0
g49
tp59
a(g54
I0
g56
tp60
ag58
ag59
ag60
a(g54
I0
g51
tp61
ag57
ag58
a(g54
F1.5707963267948966
g49
tp62
a(g54
F1.5707963267948966
g49
tp63
a(g54
F1.5707963267948966
g56
tp64
a(g48
F1.5707963267948966
g56
tp65
a(g48
F1.5707963267948966
g51
tp66
a(g48
F1.5707963267948966
g49
tp67
a(g48
F1.5707963267948966
g51
tp68
a(g48
F1.5707963267948966
g51
tp69
a(g48
F1.5707963267948966
g56
tp70
ag66
ag70
a(g48
F1.5707963267948966
g56
tp71
a(g48
F1.5707963267948966
g56
tp72
ag71
a(g48
F1.5707963267948966
g49
tp73
ag68
ag67
a(g48
F1.5707963267948966
g49
tp74
ag68
ag70
ag66
ag70
ag73
ag74
ag68
ag67
a(g48
F1.5707963267948966
g56
tp75
ag73
ag75
ag66
ag69
ag67
ag75
ag71
ag66
ag67
ag68
ag70
ag71
ag73
ag68
a(g54
F1.5707963267948966
g51
tp76
a(g54
F1.5707963267948966
g49
tp77
a(g54
F1.5707963267948966
g51
tp78
ag77
ag78
a(g54
F1.5707963267948966
g56
tp79
a(g54
F1.5707963267948966
g51
tp80
a(g54
F1.5707963267948966
g51
tp81
ag79
ag65
ag73
ag75
ag66
ag67
ag74
ag68
ag76
ag79
ag80
ag77
ag63
ag64
ag80
ag77
ag63
ag78
ag79
a(S'p2'
p82
F1.5707963267948966
g56
tp83
a(g82
F1.5707963267948966
g49
tp84
a(g82
F1.5707963267948966
g51
tp85
a(g82
F1.5707963267948966
g56
tp86
ag84
ag85
a(g54
F1.5707963267948966
g51
tp87
ag79
a(g54
F1.5707963267948966
g49
tp88
ag64
ag83
ag84
a(g82
F1.5707963267948966
g49
tp89
ag85
ag87
ag79
ag83
ag84
ag85
ag86
a(g82
F1.5707963267948966
g51
tp90
ag87
a(g54
F1.5707963267948966
g51
tp91
ag79
ag83
ag84
ag85
a(S'p3'
p92
F1.5707963267948966
g51
tp93
asS's'
p94
(lp95
(g48
I0
g22
tp96
ag50
ag52
ag53
ag50
ag52
ag53
ag52
ag55
ag57
ag58
ag59
ag60
ag58
ag59
ag60
ag61
ag57
ag58
ag62
ag63
ag64
ag65
ag66
ag67
ag68
ag69
ag70
ag66
ag70
ag71
ag72
ag71
ag73
ag68
ag67
ag74
ag68
ag70
ag66
ag70
ag73
ag74
ag68
ag67
ag75
ag73
ag75
ag66
ag69
ag67
ag75
ag71
ag66
ag67
ag68
ag70
ag71
ag73
ag68
ag76
ag77
ag78
ag77
ag78
ag79
ag80
ag81
ag79
ag65
ag73
ag75
ag66
ag67
ag74
ag68
ag76
ag79
ag80
ag77
ag63
ag64
ag80
ag77
ag63
ag78
ag79
ag83
ag84
ag85
ag86
ag84
ag85
ag87
ag79
ag88
ag64
ag83
ag84
ag89
ag85
ag87
ag79
ag83
ag84
ag85
ag86
ag90
ag87
ag91
ag79
ag83
ag84
ag85
asS'ui'
p97
(lp98
S'ss'
p99
aS'hp'
p100
ag99
ag99
ag100
ag46
ag46
ag46
aS'hs'
p101
ag100
ag99
ag46
ag100
ag99
ag101
ag100
ag101
ag100
ag46
ag101
ag100
ag101
ag46
ag46
ag100
ag99
ag100
ag101
ag46
ag101
ag99
ag46
ag101
ag100
ag46
ag100
ag100
ag46
ag101
ag100
ag100
ag99
ag100
ag101
ag100
ag46
ag100
ag101
ag99
ag101
ag100
ag99
ag101
ag100
ag100
ag46
ag101
ag101
ag46
ag46
ag100
ag100
ag100
ag101
ag101
ag99
ag46
ag100
ag99
ag100
ag100
ag100
ag101
ag100
ag100
ag46
ag100
ag100
ag100
ag101
ag100
ag46
ag100
ag101
ag101
ag100
ag99
ag100
ag99
ag46
ag101
ag100
ag99
ag100
ag99
ag101
ag99
ag101
ag99
ag100
ag46
ag99
ag100
ag101
ag100
ag46
ag100
ag99
ag99
ag100
ag99
ag101
ag100
ag46
asS'um_before'
p102
(lp103
g99
ag100
ag101
ag99
ag100
ag101
ag100
ag46
ag100
ag100
ag99
ag101
ag100
ag99
ag101
ag101
ag100
ag100
ag46
ag46
ag101
ag46
ag101
ag101
ag100
ag99
ag100
ag101
ag100
ag46
ag99
ag46
ag100
ag100
ag101
ag99
ag100
ag100
ag101
ag100
ag100
ag99
ag100
ag101
ag101
ag100
ag101
ag101
ag99
ag101
ag101
ag46
ag101
ag101
ag100
ag100
ag46
ag100
ag100
ag46
ag101
ag100
ag101
ag100
ag100
ag101
ag46
ag100
ag46
ag100
ag101
ag101
ag101
ag99
ag100
ag46
ag100
ag101
ag101
ag46
ag101
ag101
ag101
ag46
ag100
ag100
ag99
ag100
ag100
ag100
ag100
ag100
ag99
ag100
ag100
ag101
ag99
ag100
ag99
ag100
ag99
ag100
ag99
ag100
ag100
ag100
ag101
ag99
ag99
ag100
ag99
ag100
ag100
ag46
asS'um_after'
p104
(lp105
g99
ag100
ag101
ag99
ag100
ag101
ag100
ag46
ag100
ag100
ag99
ag101
ag100
ag99
ag101
ag101
ag100
ag100
ag46
ag46
ag101
ag46
ag101
ag101
ag100
ag99
ag100
ag101
ag100
ag46
ag99
ag46
ag100
ag100
ag101
ag99
ag100
ag100
ag101
ag100
ag100
ag99
ag100
ag101
ag101
ag100
ag101
ag101
ag99
ag101
ag101
ag46
ag101
ag101
ag100
ag100
ag46
ag100
ag100
ag46
ag101
ag100
ag101
ag100
ag100
ag101
ag46
ag100
ag46
ag100
ag101
ag101
ag101
ag99
ag100
ag46
ag100
ag101
ag101
ag46
ag101
ag101
ag101
ag46
ag100
ag100
ag99
ag100
ag100
ag100
ag100
ag100
ag99
ag100
ag100
ag101
ag99
ag100
ag99
ag100
ag99
ag100
ag99
ag100
ag100
ag100
ag101
ag99
ag99
ag100
ag99
ag100
ag100
ag46
asaa(lp106
S'index'
p107
aI99991
aatp108
Rp109
.