ccollections
OrderedDict
p0
((lp1
(lp2
S'combination_dict'
p3
ag0
((lp4
(lp5
S'r_to_g_config'
p6
aS'tl'
p7
aa(lp8
S'num_turns'
p9
aI3
aa(lp10
S'start_direction'
p11
acutils_ms
StartDirection
p12
(I0
tp13
Rp14
aa(lp15
S'assistance_type'
p16
acutils_ms
AssistanceType
p17
(I0
tp18
Rp19
aa(lp20
S'start_mode'
p21
aS't'
p22
aa(lp23
S'ui_given_a_noise'
p24
aF0.7
aa(lp25
S'um_given_ui_noise'
p26
aF0.5
aa(lp27
S'entropy_threshold'
p28
aF0.6
aatp29
Rp30
aa(lp31
S'data'
p32
accollections
defaultdict
p33
(c__builtin__
list
p34
tp35
Rp36
S'a'
p37
(lp38
S'mode_r'
p39
aS'move_n'
p40
ag40
ag39
ag39
ag39
ag40
aS'mode_l'
p41
ag41
ag41
aS'move_p'
p42
ag39
ag42
ag42
ag41
ag41
ag41
ag41
ag42
ag41
ag42
ag41
ag41
ag39
ag39
ag40
ag40
ag41
ag40
ag39
ag39
ag39
ag41
ag41
ag39
ag40
ag40
ag39
ag42
ag41
ag39
ag39
ag39
ag39
ag40
ag39
ag42
ag41
ag42
ag41
ag42
ag42
ag41
ag42
ag41
ag40
ag41
ag40
ag39
ag42
ag41
ag42
ag41
ag40
ag41
ag40
ag39
ag39
ag41
ag42
ag42
ag42
ag42
ag41
ag39
ag41
ag41
ag39
ag39
ag41
ag41
ag41
ag39
ag40
ag41
ag39
ag41
ag40
ag41
ag41
ag41
ag39
ag41
ag40
ag39
ag39
ag39
ag42
ag39
ag39
ag39
ag41
ag41
ag41
ag41
ag41
ag39
ag42
asS'assistance_match_with_ground_truth'
p43
(lp44
I01
aI00
aI00
aI00
aI00
aI01
aI01
aI00
aI00
aI01
aI00
aI01
aI00
aI00
aI00
aI00
aI00
aI01
aI01
aI01
aI00
aI00
aI00
aI00
aI01
aI00
aI00
aI01
aI00
aI00
aI00
aI00
aI00
aI00
aI01
aI00
aI01
aI01
aI00
aI00
aI00
aI00
aI00
aI01
aI01
aI01
aI00
aI00
aI01
aI00
aI00
aI01
aI01
aI00
aI01
aI00
aI01
aI01
aI01
aI00
aI01
aI00
aI01
aI00
aI01
aI01
aI00
aI00
aI00
aI00
aI00
aI00
aI00
aI00
aI00
aI00
aI00
aI00
aI00
aI00
aI00
aI00
aI01
aI00
aI00
aI00
aI01
aI01
aI00
aI00
aI00
aI00
aI01
aI01
aI00
aI00
aI01
aI00
aI00
aI00
aI00
aI00
aI00
aI00
aI00
aI00
aI01
aI01
asS'total_steps'
p45
I108
sS'sp'
p46
(lp47
(S'p0'
p48
I0
S'x'
p49
tp50
a(g48
I0
g49
tp51
a(g48
I0
S't'
p52
tp53
a(g48
I0
g52
tp54
ag54
ag50
a(S'p1'
p55
I0
g49
tp56
a(g55
I0
g49
tp57
ag57
a(g55
I0
g52
tp58
a(g55
I0
S'y'
p59
tp60
a(g55
I0
g52
tp61
a(g55
I0
g52
tp62
a(g55
I0
g49
tp63
ag57
ag57
ag57
ag58
a(g55
F1.5707963267948966
g52
tp64
a(g55
F1.5707963267948966
g59
tp65
a(g48
F1.5707963267948966
g59
tp66
a(g48
F1.5707963267948966
g59
tp67
a(g48
F1.5707963267948966
g52
tp68
a(g48
F1.5707963267948966
g52
tp69
a(g48
F1.5707963267948966
g49
tp70
a(g48
F1.5707963267948966
g49
tp71
a(g48
F1.5707963267948966
g59
tp72
a(g48
F1.5707963267948966
g49
tp73
a(g48
F1.5707963267948966
g52
tp74
ag69
a(g48
F1.5707963267948966
g52
tp75
a(g48
F1.5707963267948966
g59
tp76
ag67
ag68
ag70
ag71
a(g55
F1.5707963267948966
g49
tp77
a(g55
F1.5707963267948966
g59
tp78
ag66
ag68
ag75
ag69
ag75
ag70
ag77
ag78
a(g55
F1.5707963267948966
g52
tp79
a(g55
I0
g52
tp80
ag64
ag80
ag62
ag64
ag65
ag66
ag73
ag72
ag73
ag77
ag78
ag79
ag65
ag66
ag73
ag72
ag73
ag77
a(g55
F1.5707963267948966
g49
tp81
a(g55
F1.5707963267948966
g52
tp82
ag80
ag62
ag62
ag62
ag63
a(g55
I0
g59
tp83
a(g48
I0
g59
tp84
a(g48
I0
g59
tp85
a(g48
I0
g52
tp86
ag54
a(g48
I0
g59
tp87
a(g48
I0
g59
tp88
ag88
ag86
ag50
a(g48
I0
g59
tp89
ag86
ag87
a(g48
I0
g49
tp90
ag56
ag57
ag57
ag83
a(S'p2'
p91
I0
g59
tp92
a(g91
I0
g49
tp93
a(S'p3'
p94
I0
g49
tp95
a(g94
I0
g49
tp96
a(g94
I0
g49
tp97
a(g94
I0
g59
tp98
a(g94
I0
g49
tp99
ag96
ag96
a(g94
I0
g52
tp100
a(g94
I0
g52
tp101
a(g94
I0
g52
tp102
ag101
ag101
a(g94
I0
g49
tp103
ag98
a(S'p4'
p104
I0
g59
tp105
asS's'
p106
(lp107
(g48
I0
g22
tp108
ag50
ag51
ag53
ag54
ag54
ag50
ag56
ag57
ag57
ag58
ag60
ag61
ag62
ag63
ag57
ag57
ag57
ag58
ag64
ag65
ag66
ag67
ag68
ag69
ag70
ag71
ag72
ag73
ag74
ag69
ag75
ag76
ag67
ag68
ag70
ag71
ag77
ag78
ag66
ag68
ag75
ag69
ag75
ag70
ag77
ag78
ag79
ag80
ag64
ag80
ag62
ag64
ag65
ag66
ag73
ag72
ag73
ag77
ag78
ag79
ag65
ag66
ag73
ag72
ag73
ag77
ag81
ag82
ag80
ag62
ag62
ag62
ag63
ag83
ag84
ag85
ag86
ag54
ag87
ag88
ag88
ag86
ag50
ag89
ag86
ag87
ag90
ag56
ag57
ag57
ag83
ag92
ag93
ag95
ag96
ag97
ag98
ag99
ag96
ag96
ag100
ag101
ag102
ag101
ag101
ag103
ag98
asS'ui'
p109
(lp110
S'hp'
p111
ag46
aS'hs'
p112
ag111
ag111
ag111
aS'ss'
p113
ag111
ag111
ag112
ag111
ag46
ag111
ag111
ag112
ag113
ag46
ag112
ag46
ag112
ag113
ag113
ag113
ag111
ag111
ag46
ag111
ag112
ag111
ag111
ag46
ag111
ag113
ag113
ag111
ag46
ag113
ag111
ag112
ag111
ag46
ag111
ag46
ag111
ag113
ag111
ag111
ag111
ag113
ag46
ag113
ag46
ag112
ag113
ag112
ag111
ag112
ag113
ag111
ag112
ag111
ag46
ag46
ag113
ag46
ag113
ag111
ag111
ag113
ag46
ag46
ag111
ag46
ag112
ag111
ag113
ag111
ag111
ag111
ag113
ag113
ag111
ag46
ag111
ag112
ag46
ag112
ag111
ag113
ag113
ag113
ag46
ag112
ag113
ag46
ag111
ag111
ag46
ag46
ag46
ag46
ag111
ag112
ag113
ag113
ag111
ag111
ag46
asS'um_before'
p114
(lp115
g111
ag46
ag112
ag113
ag113
ag111
ag113
ag113
ag113
ag112
ag112
ag111
ag113
ag111
ag113
ag113
ag113
ag112
ag46
ag112
ag113
ag113
ag111
ag113
ag111
ag46
ag111
ag112
ag112
ag113
ag46
ag112
ag113
ag111
ag111
ag46
ag113
ag111
ag113
ag111
ag46
ag113
ag46
ag111
ag113
ag111
ag111
ag113
ag46
ag113
ag113
ag46
ag112
ag113
ag112
ag111
ag112
ag113
ag111
ag111
ag112
ag113
ag112
ag111
ag112
ag113
ag113
ag112
ag113
ag113
ag113
ag113
ag111
ag111
ag113
ag46
ag111
ag113
ag112
ag113
ag113
ag111
ag111
ag111
ag111
ag112
ag112
ag113
ag113
ag113
ag111
ag46
ag112
ag113
ag46
ag113
ag111
ag112
ag46
ag46
ag112
ag113
ag46
ag113
ag113
ag111
ag111
ag46
asS'um_after'
p116
(lp117
g111
ag46
ag112
ag113
ag113
ag111
ag113
ag113
ag113
ag112
ag112
ag111
ag113
ag111
ag113
ag113
ag113
ag112
ag46
ag112
ag113
ag113
ag111
ag113
ag111
ag46
ag111
ag112
ag112
ag113
ag46
ag112
ag113
ag111
ag111
ag46
ag113
ag111
ag113
ag111
ag46
ag113
ag46
ag111
ag113
ag111
ag111
ag113
ag46
ag113
ag113
ag46
ag112
ag113
ag112
ag111
ag112
ag113
ag111
ag111
ag112
ag113
ag112
ag111
ag112
ag113
ag113
ag112
ag113
ag113
ag113
ag113
ag111
ag111
ag113
ag46
ag111
ag113
ag112
ag113
ag113
ag111
ag111
ag111
ag111
ag112
ag112
ag113
ag113
ag113
ag111
ag46
ag112
ag113
ag46
ag113
ag111
ag112
ag46
ag46
ag112
ag113
ag46
ag113
ag113
ag111
ag111
ag46
asaa(lp118
S'index'
p119
aI48718
aatp120
Rp121
.