ccollections
OrderedDict
p0
((lp1
(lp2
S'index'
p3
aI4819
aa(lp4
S'combination_dict'
p5
ag0
((lp6
(lp7
S'r_to_g_config'
p8
aS'tl'
p9
aa(lp10
S'num_turns'
p11
aI1
aa(lp12
S'start_direction'
p13
acutils_ms
StartDirection
p14
(I1
tp15
Rp16
aa(lp17
S'assistance_type'
p18
acutils_ms
AssistanceType
p19
(I1
tp20
Rp21
aa(lp22
S'start_mode'
p23
aS'x'
p24
aa(lp25
S'ui_given_a_noise'
p26
aF0.1
aa(lp27
S'um_given_ui_noise'
p28
aF0.3
aa(lp29
S'entropy_threshold'
p30
aF0.9
aa(lp31
S'is_assistance'
p32
aI00
aatp33
Rp34
aa(lp35
S'trials'
p36
ag0
((lp37
(lp38
I0
accollections
defaultdict
p39
(c__builtin__
list
p40
tp41
Rp42
S'a'
p43
(lp44
S'mode_r'
p45
ag45
aS'move_p'
p46
ag45
ag45
ag45
ag46
ag45
aS'move_n'
p47
ag45
ag46
aS'mode_l'
p48
ag48
ag46
ag48
ag47
asS'assistance_match_with_ground_truth'
p49
(lp50
I00
aI01
aI01
aI00
aI00
aI01
aI01
aI01
aI00
aI01
aI00
aI00
aI01
aI01
aI01
aI01
asS'total_steps'
p51
I16
sS'sp'
p52
(S'p2'
p53
F1.5707963267948966
S'x'
p54
tp55
sS's'
p56
(lp57
(S'p0'
p58
I0
g24
tp59
a(g58
I0
g54
tp60
a(g58
I0
S'y'
p61
tp62
a(S'p1'
p63
I0
g61
tp64
a(g63
I0
g61
tp65
a(g63
I0
g61
tp66
a(g63
I0
S't'
p67
tp68
a(g63
F1.5707963267948966
g67
tp69
a(g63
F1.5707963267948966
g54
tp70
a(g58
F1.5707963267948966
g54
tp71
a(g58
F1.5707963267948966
g61
tp72
a(g58
F1.5707963267948966
g67
tp73
a(g58
F1.5707963267948966
g67
tp74
a(g58
F1.5707963267948966
g61
tp75
a(g63
F1.5707963267948966
g61
tp76
a(g63
F1.5707963267948966
g54
tp77
asS'ui'
p78
(lp79
g52
aS'hp'
p80
ag52
ag80
ag80
ag80
ag52
ag80
aS'ss'
p81
ag80
ag52
aS'hs'
p82
ag82
ag52
ag82
ag81
asS'um_before'
p83
(lp84
g52
ag80
ag52
ag52
ag81
ag80
ag52
ag80
ag52
ag80
ag80
ag52
ag82
ag52
ag82
ag81
asS'um_after'
p85
(lp86
g52
ag80
ag52
ag52
ag81
ag80
ag52
ag80
ag52
ag80
ag80
ag52
ag82
ag52
ag82
ag81
asaa(lp87
I1
ag39
(g40
tp88
Rp89
g43
(lp90
g45
ag45
ag46
ag45
ag45
ag46
ag45
ag45
ag47
asg49
(lp91
I00
aI01
aI01
aI00
aI01
aI01
aI00
aI01
aI01
asg51
I9
sg52
g55
sg56
(lp92
(g58
I0
g24
tp93
ag60
ag62
ag64
ag66
ag68
ag69
a(g63
F1.5707963267948966
g67
tp94
ag70
asg78
(lp95
g80
ag80
ag52
ag80
ag80
ag52
ag80
ag80
ag81
asg83
(lp96
g52
ag80
ag52
ag81
ag80
ag52
ag52
ag80
ag81
asg85
(lp97
g52
ag80
ag52
ag81
ag80
ag52
ag52
ag80
ag81
asaa(lp98
I2
ag39
(g40
tp99
Rp100
g43
(lp101
g45
ag46
ag46
ag45
ag45
ag48
ag46
ag46
ag45
ag47
ag48
ag47
asg49
(lp102
I01
aI00
aI01
aI00
aI00
aI01
aI00
aI01
aI01
aI00
aI01
aI01
asg51
I12
sg52
g55
sg56
(lp103
(g58
I0
g24
tp104
ag62
a(g58
I0
g61
tp105
ag64
ag66
a(g63
I0
g54
tp106
a(g63
I0
g67
tp107
a(g63
I0
g67
tp108
ag69
ag70
a(g63
F1.5707963267948966
g61
tp109
ag77
asg78
(lp110
g52
ag52
ag52
ag80
ag81
ag82
ag52
ag52
ag80
ag81
ag82
ag81
asg83
(lp111
g80
ag81
ag52
ag81
ag82
ag82
ag81
ag52
ag80
ag80
ag82
ag81
asg85
(lp112
g80
ag81
ag52
ag81
ag82
ag82
ag81
ag52
ag80
ag80
ag82
ag81
asaa(lp113
I3
ag39
(g40
tp114
Rp115
g43
(lp116
g45
ag46
ag45
ag45
ag46
ag45
ag46
ag46
ag45
ag45
ag46
ag45
ag47
ag45
ag46
ag48
ag48
ag45
ag47
asg49
(lp117
I01
aI01
aI00
aI01
aI01
aI00
aI00
aI01
aI00
aI00
aI01
aI01
aI00
aI01
aI01
aI00
aI00
aI01
aI01
asg51
I19
sg52
g55
sg56
(lp118
(g58
I0
g24
tp119
ag62
ag64
ag66
ag68
ag69
a(g63
I0
g67
tp120
ag108
ag69
ag94
ag120
ag69
ag70
ag71
ag72
ag76
a(g63
F1.5707963267948966
g61
tp121
a(g63
F1.5707963267948966
g67
tp122
ag70
asg78
(lp123
g80
ag52
ag80
ag80
ag52
ag81
ag52
ag52
ag80
ag52
ag52
ag80
ag52
ag80
ag52
ag52
ag82
ag80
ag81
asg83
(lp124
g80
ag52
ag81
ag80
ag52
ag81
ag81
ag52
ag52
ag81
ag52
ag80
ag52
ag80
ag52
ag52
ag80
ag80
ag81
asg85
(lp125
g80
ag52
ag81
ag80
ag52
ag81
ag81
ag52
ag52
ag81
ag52
ag80
ag52
ag80
ag52
ag52
ag80
ag80
ag81
asaa(lp126
I4
ag39
(g40
tp127
Rp128
g43
(lp129
g45
ag46
ag45
ag45
ag46
ag45
ag46
ag45
ag47
ag45
ag47
asg49
(lp130
I01
aI01
aI00
aI01
aI01
aI00
aI01
aI01
aI00
aI01
aI01
asg51
I11
sg52
g55
sg56
(lp131
(g58
I0
g24
tp132
ag62
ag64
ag65
ag68
ag69
ag120
ag69
ag70
a(g63
F1.5707963267948966
g67
tp133
ag70
asg78
(lp134
g80
ag52
ag80
ag80
ag52
ag81
ag52
ag80
ag82
ag80
ag81
asg83
(lp135
g80
ag52
ag52
ag80
ag52
ag81
ag52
ag80
ag82
ag80
ag81
asg85
(lp136
g80
ag52
ag52
ag80
ag52
ag81
ag52
ag80
ag82
ag80
ag81
asaa(lp137
I5
ag39
(g40
tp138
Rp139
g43
(lp140
g45
ag46
ag48
ag46
ag45
ag45
ag46
ag46
ag45
ag47
asg49
(lp141
I01
aI00
aI01
aI01
aI00
aI01
aI00
aI01
aI01
aI01
asg51
I10
sg52
g55
sg56
(lp142
(g58
I0
g24
tp143
ag62
a(g58
I0
g67
tp144
a(g58
I0
g61
tp145
ag64
ag66
ag68
ag108
ag69
ag70
asg78
(lp146
g80
ag80
ag82
ag52
ag80
ag80
ag81
ag52
ag80
ag81
asg83
(lp147
g80
ag80
ag82
ag52
ag81
ag80
ag81
ag52
ag80
ag81
asg85
(lp148
g80
ag80
ag82
ag52
ag81
ag80
ag81
ag52
ag80
ag81
asaa(lp149
I6
ag39
(g40
tp150
Rp151
g43
(lp152
g45
ag46
ag45
ag45
ag45
ag46
ag45
ag47
ag45
ag47
ag48
ag45
ag45
ag47
asg49
(lp153
I01
aI01
aI00
aI00
aI01
aI01
aI01
aI00
aI01
aI00
aI00
aI00
aI01
aI01
asg51
I14
sg52
g55
sg56
(lp154
(g58
I0
g24
tp155
ag62
ag64
ag65
ag65
ag68
ag69
ag70
ag133
ag70
ag109
ag122
ag94
ag70
asg78
(lp156
g80
ag52
ag52
ag80
ag80
ag52
ag80
ag81
ag80
ag81
ag82
ag52
ag80
ag81
asg83
(lp157
g80
ag52
ag52
ag52
ag80
ag52
ag80
ag82
ag80
ag80
ag80
ag52
ag80
ag81
asg85
(lp158
g80
ag52
ag52
ag52
ag80
ag52
ag80
ag82
ag80
ag80
ag80
ag52
ag80
ag81
asaa(lp159
I7
ag39
(g40
tp160
Rp161
g43
(lp162
g45
ag46
ag45
ag46
ag45
ag46
ag48
ag46
ag48
ag46
ag45
ag47
ag45
ag46
ag48
ag47
asg49
(lp163
I01
aI01
aI01
aI01
aI00
aI00
aI01
aI00
aI01
aI01
aI01
aI00
aI01
aI01
aI01
aI01
asg51
I16
sg52
g55
sg56
(lp164
(g58
I0
g24
tp165
ag62
ag64
ag68
ag69
ag120
a(g63
I0
g54
tp166
ag107
ag166
ag107
ag69
ag70
ag71
ag72
ag76
ag77
asg78
(lp167
g80
ag52
ag80
ag52
ag80
ag52
ag82
ag52
ag82
ag52
ag80
ag81
ag80
ag52
ag82
ag81
asg83
(lp168
g80
ag52
ag80
ag52
ag81
ag80
ag82
ag80
ag82
ag52
ag80
ag52
ag80
ag52
ag82
ag81
asg85
(lp169
g80
ag52
ag80
ag52
ag81
ag80
ag82
ag80
ag82
ag52
ag80
ag52
ag80
ag52
ag82
ag81
asaa(lp170
I8
ag39
(g40
tp171
Rp172
g43
(lp173
g45
ag46
ag45
ag46
ag46
ag45
ag47
ag45
ag46
ag48
ag48
ag47
ag45
ag47
ag45
ag47
asg49
(lp174
I01
aI01
aI01
aI00
aI01
aI01
aI00
aI01
aI01
aI00
aI01
aI00
aI01
aI00
aI01
aI01
asg51
I16
sg52
g55
sg56
(lp175
(g58
I0
g24
tp176
ag62
ag64
ag68
ag108
ag69
ag70
ag71
ag72
ag76
a(g63
F1.5707963267948966
g61
tp177
ag77
ag133
ag70
ag133
ag70
asg78
(lp178
g80
ag52
ag80
ag81
ag52
ag80
ag81
ag80
ag52
ag82
ag82
ag82
ag80
ag81
ag80
ag81
asg83
(lp179
g80
ag52
ag80
ag81
ag52
ag80
ag52
ag80
ag52
ag81
ag82
ag82
ag80
ag82
ag80
ag81
asg85
(lp180
g80
ag52
ag80
ag81
ag52
ag80
ag52
ag80
ag52
ag81
ag82
ag82
ag80
ag82
ag80
ag81
asaa(lp181
I9
ag39
(g40
tp182
Rp183
g43
(lp184
g45
ag46
ag45
ag45
ag45
ag46
ag45
ag47
ag48
ag47
ag45
ag45
ag47
asg49
(lp185
I01
aI01
aI00
aI00
aI01
aI01
aI01
aI00
aI01
aI00
aI00
aI01
aI01
asg51
I13
sg52
g55
sg56
(lp186
(g58
I0
g24
tp187
ag62
ag64
ag65
ag65
ag68
ag69
ag70
ag109
ag77
ag133
ag94
ag70
asg78
(lp188
g80
ag52
ag80
ag80
ag80
ag52
ag80
ag81
ag82
ag81
ag80
ag80
ag81
asg83
(lp189
g80
ag52
ag52
ag52
ag80
ag52
ag80
ag80
ag82
ag82
ag52
ag80
ag81
asg85
(lp190
g80
ag52
ag52
ag52
ag80
ag52
ag80
ag80
ag82
ag82
ag52
ag80
ag81
asaatp191
Rp192
aatp193
Rp194
.