ccollections
OrderedDict
p0
((lp1
(lp2
S'index'
p3
aI4523
aa(lp4
S'combination_dict'
p5
ag0
((lp6
(lp7
S'r_to_g_config'
p8
aS'tl'
p9
aa(lp10
S'num_turns'
p11
aI1
aa(lp12
S'start_direction'
p13
acutils_ms
StartDirection
p14
(I1
tp15
Rp16
aa(lp17
S'assistance_type'
p18
acutils_ms
AssistanceType
p19
(I0
tp20
Rp21
aa(lp22
S'start_mode'
p23
aS'x'
p24
aa(lp25
S'ui_given_a_noise'
p26
aF0.3
aa(lp27
S'um_given_ui_noise'
p28
aF0.1
aa(lp29
S'entropy_threshold'
p30
aF0.6
aa(lp31
S'is_assistance'
p32
aI00
aatp33
Rp34
aa(lp35
S'trials'
p36
ag0
((lp37
(lp38
I0
accollections
defaultdict
p39
(c__builtin__
list
p40
tp41
Rp42
S'a'
p43
(lp44
S'mode_r'
p45
aS'mode_l'
p46
aS'move_p'
p47
ag47
ag45
ag47
ag46
ag47
ag45
aS'move_n'
p48
ag45
ag45
ag48
asS'assistance_match_with_ground_truth'
p49
(lp50
I00
aI01
aI00
aI01
aI01
aI00
aI01
aI01
aI01
aI00
aI00
aI01
aI01
asS'total_steps'
p51
I13
sS'sp'
p52
(S'p2'
p53
F1.5707963267948966
S'x'
p54
tp55
sS's'
p56
(lp57
(S'p0'
p58
I0
g24
tp59
a(g58
I0
S't'
p60
tp61
a(g58
I0
S'y'
p62
tp63
a(g58
I0
g62
tp64
a(S'p1'
p65
I0
g62
tp66
a(g65
I0
g60
tp67
a(g65
I0
g54
tp68
a(g65
I0
g60
tp69
a(g65
F1.5707963267948966
g60
tp70
a(g65
F1.5707963267948966
g54
tp71
a(g65
F1.5707963267948966
g60
tp72
a(g65
F1.5707963267948966
g60
tp73
ag71
asS'ui'
p74
(lp75
S'hp'
p76
aS'hs'
p77
aS'ss'
p78
ag52
ag76
ag76
ag77
ag52
ag76
ag77
ag76
ag76
ag78
asS'um_before'
p79
(lp80
g77
ag77
ag78
ag52
ag76
ag76
ag77
ag52
ag76
ag77
ag52
ag76
ag78
asS'um_after'
p81
(lp82
g77
ag77
ag78
ag52
ag76
ag76
ag77
ag52
ag76
ag77
ag52
ag76
ag78
asaa(lp83
I1
ag39
(g40
tp84
Rp85
g43
(lp86
g45
ag47
ag45
ag46
asg49
(lp87
I01
aI01
aI00
aI00
asg51
I4
sg52
(g53
I0
g54
tp88
sg56
(lp89
(g58
I0
g24
tp90
a(g58
I0
g62
tp91
ag66
a(g65
I0
g54
tp92
asg74
(lp93
g76
ag52
ag77
ag78
asg79
(lp94
g76
ag52
ag77
ag78
asg81
(lp95
g76
ag52
ag77
ag78
asaa(lp96
I2
ag39
(g40
tp97
Rp98
g43
(lp99
g45
ag45
ag47
ag47
ag45
ag47
ag45
ag47
ag45
ag48
asg49
(lp100
I00
aI01
aI00
aI00
aI01
aI01
aI01
aI01
aI01
aI01
asg51
I10
sg52
g55
sg56
(lp101
(g58
I0
g24
tp102
a(g58
I0
g54
tp103
ag91
ag64
a(g58
I0
g54
tp104
ag91
ag66
ag67
ag70
ag71
asg74
(lp105
g76
ag76
ag78
ag52
ag76
ag52
ag76
ag52
ag76
ag78
asg79
(lp106
g52
ag76
ag78
ag77
ag76
ag52
ag76
ag52
ag76
ag78
asg81
(lp107
g52
ag76
ag78
ag77
ag76
ag52
ag76
ag52
ag76
ag78
asaa(lp108
I3
ag39
(g40
tp109
Rp110
g43
(lp111
g45
ag47
ag47
ag45
ag46
ag47
ag45
ag46
ag47
ag45
ag46
ag45
ag48
asg49
(lp112
I01
aI00
aI01
aI00
aI01
aI00
aI00
aI01
aI01
aI00
aI00
aI01
aI01
asg51
I13
sg52
g55
sg56
(lp113
(g58
I0
g24
tp114
ag91
ag64
ag66
ag92
ag69
a(g65
I0
g62
tp115
ag92
ag69
ag70
a(g65
F1.5707963267948966
g62
tp116
a(g65
F1.5707963267948966
g60
tp117
ag71
asg74
(lp118
g76
ag78
ag52
ag76
ag77
ag77
ag76
ag77
ag52
ag77
ag76
ag76
ag78
asg79
(lp119
g76
ag78
ag52
ag77
ag77
ag77
ag77
ag77
ag52
ag77
ag76
ag76
ag78
asg81
(lp120
g76
ag78
ag52
ag77
ag77
ag77
ag77
ag77
ag52
ag77
ag76
ag76
ag78
asaa(lp121
I4
ag39
(g40
tp122
Rp123
g43
(lp124
g45
ag47
ag47
ag45
ag47
ag45
ag48
asg49
(lp125
I01
aI00
aI01
aI01
aI01
aI01
aI01
asg51
I7
sg52
g55
sg56
(lp126
(g58
I0
g24
tp127
ag91
ag64
ag66
ag67
ag70
ag71
asg74
(lp128
g76
ag78
ag52
ag76
ag52
ag76
ag78
asg79
(lp129
g76
ag78
ag52
ag76
ag52
ag76
ag78
asg81
(lp130
g76
ag78
ag52
ag76
ag52
ag76
ag78
asaa(lp131
I5
ag39
(g40
tp132
Rp133
g43
(lp134
g45
ag46
ag45
ag47
ag45
ag47
ag47
ag45
ag46
ag46
ag48
ag45
ag48
ag45
ag45
ag48
ag45
ag47
ag47
ag46
ag45
ag48
asg49
(lp135
I00
aI00
aI01
aI01
aI01
aI00
aI01
aI00
aI00
aI01
aI00
aI01
aI00
aI00
aI01
aI00
aI01
aI00
aI01
aI00
aI01
aI01
asg51
I22
sg52
g55
sg56
(lp136
(g58
I0
g24
tp137
ag61
a(g58
I0
g54
tp138
ag91
ag66
ag67
a(g65
I0
g60
tp139
ag70
ag116
a(g65
F1.5707963267948966
g62
tp140
a(g65
F1.5707963267948966
g54
tp141
ag72
ag71
ag72
ag73
ag71
a(g58
F1.5707963267948966
g54
tp142
a(g58
F1.5707963267948966
g62
tp143
a(g58
F1.5707963267948966
g62
tp144
a(g65
F1.5707963267948966
g62
tp145
ag117
ag71
asg74
(lp146
g76
ag76
ag76
ag52
ag76
ag78
ag52
ag78
ag52
ag77
ag77
ag76
ag77
ag52
ag76
ag76
ag76
ag78
ag52
ag76
ag76
ag78
asg79
(lp147
g77
ag76
ag76
ag52
ag76
ag78
ag52
ag77
ag52
ag77
ag77
ag76
ag77
ag52
ag76
ag52
ag76
ag78
ag52
ag76
ag76
ag78
asg81
(lp148
g77
ag76
ag76
ag52
ag76
ag78
ag52
ag77
ag52
ag77
ag77
ag76
ag77
ag52
ag76
ag52
ag76
ag78
ag52
ag76
ag76
ag78
asaa(lp149
I6
ag39
(g40
tp150
Rp151
g43
(lp152
g45
ag47
ag45
ag45
ag47
ag47
ag46
ag47
ag46
ag47
ag45
ag48
ag45
ag45
ag47
ag46
ag48
asg49
(lp153
I01
aI01
aI00
aI01
aI00
aI00
aI01
aI00
aI01
aI01
aI01
aI00
aI00
aI01
aI01
aI01
aI01
asg51
I17
sg52
g55
sg56
(lp154
(g58
I0
g24
tp155
ag91
ag66
a(g65
I0
g62
tp156
ag67
ag139
ag68
ag69
ag68
ag69
ag70
ag71
ag142
a(g58
F1.5707963267948966
g54
tp157
ag143
ag145
ag141
asg74
(lp158
g76
ag52
ag52
ag76
ag78
ag76
ag77
ag76
ag77
ag52
ag76
ag77
ag52
ag76
ag52
ag77
ag78
asg79
(lp159
g76
ag52
ag52
ag76
ag78
ag76
ag77
ag76
ag77
ag52
ag76
ag52
ag52
ag76
ag52
ag77
ag78
asg81
(lp160
g76
ag52
ag52
ag76
ag78
ag76
ag77
ag76
ag77
ag52
ag76
ag52
ag52
ag76
ag52
ag77
ag78
asaa(lp161
I7
ag39
(g40
tp162
Rp163
g43
(lp164
g45
ag47
ag45
ag47
ag45
ag48
ag45
ag48
asg49
(lp165
I01
aI01
aI01
aI01
aI01
aI00
aI01
aI01
asg51
I8
sg52
g55
sg56
(lp166
(g58
I0
g24
tp167
ag91
ag66
ag67
ag70
ag71
ag72
ag71
asg74
(lp168
g76
ag52
ag76
ag52
ag76
ag78
ag76
ag78
asg79
(lp169
g76
ag52
ag76
ag52
ag76
ag77
ag76
ag78
asg81
(lp170
g76
ag52
ag76
ag52
ag76
ag77
ag76
ag78
asaa(lp171
I8
ag39
(g40
tp172
Rp173
g43
(lp174
g45
ag47
ag47
ag45
ag47
ag45
ag47
ag45
ag46
ag48
asg49
(lp175
I01
aI00
aI00
aI01
aI01
aI01
aI01
aI00
aI01
aI01
asg51
I10
sg52
g55
sg56
(lp176
(g58
I0
g24
tp177
ag91
ag64
ag104
ag91
ag66
ag67
ag70
ag116
ag141
asg74
(lp178
g76
ag78
ag52
ag52
ag52
ag76
ag52
ag76
ag77
ag78
asg79
(lp179
g76
ag78
ag77
ag76
ag52
ag76
ag52
ag77
ag77
ag78
asg81
(lp180
g76
ag78
ag77
ag76
ag52
ag76
ag52
ag77
ag77
ag78
asaa(lp181
I9
ag39
(g40
tp182
Rp183
g43
(lp184
g45
ag47
ag47
ag45
ag45
ag46
ag47
ag45
ag48
asg49
(lp185
I01
aI00
aI01
aI00
aI00
aI01
aI01
aI01
aI01
asg51
I9
sg52
g55
sg56
(lp186
(g58
I0
g24
tp187
ag91
ag64
ag66
ag156
ag92
ag69
ag70
ag71
asg74
(lp188
g76
ag78
ag52
ag52
ag76
ag77
ag52
ag76
ag78
asg79
(lp189
g76
ag78
ag52
ag52
ag77
ag77
ag52
ag76
ag78
asg81
(lp190
g76
ag78
ag52
ag52
ag77
ag77
ag52
ag76
ag78
asaatp191
Rp192
aatp193
Rp194
.