ccollections
OrderedDict
p0
((lp1
(lp2
S'index'
p3
aI11535
aa(lp4
S'combination_dict'
p5
ag0
((lp6
(lp7
S'r_to_g_config'
p8
aS'br'
p9
aa(lp10
S'num_turns'
p11
aI1
aa(lp12
S'start_direction'
p13
acutils_ms
StartDirection
p14
(I3
tp15
Rp16
aa(lp17
S'assistance_type'
p18
acutils_ms
AssistanceType
p19
(I0
tp20
Rp21
aa(lp22
S'start_mode'
p23
aS't'
p24
aa(lp25
S'ui_given_a_noise'
p26
aF0.1
aa(lp27
S'um_given_ui_noise'
p28
aF0.3
aa(lp29
S'entropy_threshold'
p30
aF0.7
aa(lp31
S'is_assistance'
p32
aI00
aatp33
Rp34
aa(lp35
S'trials'
p36
ag0
((lp37
(lp38
I0
accollections
defaultdict
p39
(c__builtin__
list
p40
tp41
Rp42
S'a'
p43
(lp44
S'mode_r'
p45
ag45
aS'move_p'
p46
ag46
aS'mode_l'
p47
ag45
ag47
ag45
ag47
ag45
ag45
ag47
ag45
ag45
ag46
ag45
ag46
ag47
ag45
ag46
ag46
ag47
aS'move_n'
p48
asS'assistance_match_with_ground_truth'
p49
(lp50
I00
aI01
aI00
aI01
aI00
aI00
aI00
aI00
aI00
aI00
aI00
aI00
aI00
aI01
aI00
aI01
aI01
aI00
aI01
aI00
aI01
aI01
aI01
asS'total_steps'
p51
I23
sS'sp'
p52
(S'p2'
p53
F1.5707963267948966
S'y'
p54
tp55
sS's'
p56
(lp57
(S'p0'
p58
I0
g24
tp59
a(g58
I0
S't'
p60
tp61
a(g58
I0
S'x'
p62
tp63
a(g58
I0
g62
tp64
a(S'p1'
p65
I0
g62
tp66
a(g65
I0
g54
tp67
a(g58
I0
g54
tp68
a(g58
I0
g60
tp69
a(g58
I0
g54
tp70
ag69
ag61
ag70
ag69
ag61
ag63
a(g58
I0
g60
tp71
ag63
ag66
ag67
a(g65
I0
g60
tp72
a(g65
I0
g60
tp73
a(g65
F1.5707963267948966
g60
tp74
a(g65
F1.5707963267948966
g54
tp75
asS'ui'
p76
(lp77
S'hp'
p78
ag78
ag52
ag52
aS'hs'
p79
ag52
ag79
ag78
ag79
ag78
ag78
ag79
ag78
aS'ss'
p80
ag79
ag78
ag52
ag79
ag78
ag80
ag52
ag79
ag80
asS'um_before'
p81
(lp82
g80
ag78
ag80
ag52
ag78
ag52
ag78
ag79
ag78
ag80
ag79
ag78
ag80
ag78
ag79
ag78
ag52
ag78
ag78
ag80
ag52
ag79
ag80
asS'um_after'
p83
(lp84
g80
ag78
ag80
ag52
ag78
ag52
ag78
ag79
ag78
ag80
ag79
ag78
ag80
ag78
ag79
ag78
ag52
ag78
ag78
ag80
ag52
ag79
ag80
asaa(lp85
I1
ag39
(g40
tp86
Rp87
g43
(lp88
g45
ag45
ag46
ag46
ag45
ag46
ag47
ag46
ag45
ag46
ag47
ag45
ag46
ag47
ag48
ag47
ag45
ag45
ag48
ag47
ag48
ag47
ag48
ag45
ag45
ag47
ag45
ag45
ag45
ag48
asg49
(lp89
I00
aI01
aI00
aI00
aI01
aI00
aI01
aI00
aI01
aI01
aI00
aI01
aI01
aI01
aI00
aI00
aI00
aI01
aI00
aI01
aI00
aI01
aI00
aI00
aI00
aI00
aI00
aI00
aI01
aI01
asg51
I30
sg52
g55
sg56
(lp90
(g58
I0
g24
tp91
a(g58
I0
g60
tp92
ag63
ag64
ag71
ag63
a(g58
I0
g54
tp93
a(g58
I0
g62
tp94
ag71
ag63
ag66
ag67
ag72
ag74
ag75
a(g65
F1.5707963267948966
g60
tp95
a(g65
F1.5707963267948966
g62
tp96
a(g65
F1.5707963267948966
g62
tp97
a(g65
F1.5707963267948966
g54
tp98
ag95
ag75
ag95
ag75
a(g65
F1.5707963267948966
g62
tp99
ag97
a(g65
F1.5707963267948966
g60
tp100
ag96
ag97
ag97
ag98
asg76
(lp101
g52
ag78
ag79
ag79
ag78
ag80
ag79
ag79
ag78
ag52
ag79
ag78
ag52
ag79
ag80
ag79
ag78
ag78
ag80
ag79
ag80
ag79
ag80
ag78
ag78
ag79
ag78
ag78
ag78
ag80
asg81
(lp102
g52
ag78
ag80
ag79
ag78
ag78
ag79
ag79
ag78
ag52
ag78
ag78
ag52
ag79
ag78
ag78
ag80
ag78
ag78
ag79
ag78
ag79
ag79
ag80
ag79
ag78
ag80
ag80
ag78
ag80
asg83
(lp103
g52
ag78
ag80
ag79
ag78
ag78
ag79
ag79
ag78
ag52
ag78
ag78
ag52
ag79
ag78
ag78
ag80
ag78
ag78
ag79
ag78
ag79
ag79
ag80
ag79
ag78
ag80
ag80
ag78
ag80
asaa(lp104
I2
ag39
(g40
tp105
Rp106
g43
(lp107
g45
ag45
ag45
ag46
ag47
ag46
ag46
ag47
ag46
ag47
ag47
ag47
ag48
asg49
(lp108
I00
aI00
aI01
aI01
aI01
aI00
aI00
aI01
aI01
aI00
aI00
aI01
aI01
asg51
I13
sg52
g55
sg56
(lp109
(g58
I0
g24
tp110
ag92
ag92
ag63
ag66
a(g65
I0
g60
tp111
ag73
a(g65
I0
g62
tp112
ag111
ag74
a(g65
F1.5707963267948966
g60
tp113
ag113
ag75
asg76
(lp114
g78
ag78
ag78
ag52
ag79
ag52
ag79
ag79
ag52
ag52
ag79
ag79
ag80
asg81
(lp115
g52
ag52
ag78
ag52
ag79
ag80
ag78
ag79
ag52
ag52
ag52
ag79
ag80
asg83
(lp116
g52
ag52
ag78
ag52
ag79
ag80
ag78
ag79
ag52
ag52
ag52
ag79
ag80
asaa(lp117
I3
ag39
(g40
tp118
Rp119
g43
(lp120
g45
ag45
ag47
ag46
ag46
ag45
ag46
ag45
ag46
ag47
ag45
ag46
ag46
ag46
ag47
ag47
ag45
ag48
ag45
ag48
ag45
ag45
ag48
ag47
ag45
ag48
ag45
ag48
ag45
ag45
ag47
ag45
ag47
ag48
ag45
ag48
asg49
(lp121
I00
aI00
aI01
aI00
aI00
aI01
aI00
aI01
aI01
aI00
aI01
aI00
aI00
aI01
aI00
aI00
aI01
aI00
aI01
aI00
aI00
aI01
aI00
aI00
aI01
aI00
aI01
aI00
aI00
aI00
aI00
aI00
aI01
aI00
aI01
aI01
asg51
I36
sg52
g55
sg56
(lp122
(g58
I0
g24
tp123
ag61
ag70
ag94
ag64
ag71
ag63
ag71
ag63
ag66
ag67
ag72
ag73
ag73
ag74
ag113
ag96
ag98
ag99
ag98
ag99
ag97
ag98
ag95
ag96
ag98
ag99
ag98
ag99
ag97
ag100
ag96
ag100
ag75
ag99
ag98
asg76
(lp124
g52
ag78
ag79
ag80
ag52
ag78
ag79
ag78
ag52
ag79
ag78
ag52
ag80
ag52
ag79
ag79
ag78
ag80
ag78
ag80
ag52
ag78
ag80
ag79
ag78
ag80
ag78
ag80
ag78
ag78
ag79
ag78
ag79
ag80
ag78
ag80
asg81
(lp125
g80
ag79
ag79
ag80
ag79
ag78
ag79
ag78
ag52
ag78
ag78
ag80
ag80
ag52
ag52
ag78
ag78
ag79
ag78
ag79
ag80
ag78
ag78
ag78
ag78
ag79
ag78
ag79
ag80
ag79
ag78
ag79
ag79
ag79
ag78
ag80
asg83
(lp126
g80
ag79
ag79
ag80
ag79
ag78
ag79
ag78
ag52
ag78
ag78
ag80
ag80
ag52
ag52
ag78
ag78
ag79
ag78
ag79
ag80
ag78
ag78
ag78
ag78
ag79
ag78
ag79
ag80
ag79
ag78
ag79
ag79
ag79
ag78
ag80
asaa(lp127
I4
ag39
(g40
tp128
Rp129
g43
(lp130
g45
ag47
ag47
ag46
ag47
ag47
ag45
ag46
ag47
ag46
ag47
ag46
ag47
ag48
asg49
(lp131
I00
aI00
aI01
aI00
aI00
aI00
aI01
aI01
aI01
aI01
aI00
aI01
aI01
aI01
asg51
I14
sg52
g55
sg56
(lp132
(g58
I0
g24
tp133
ag70
a(g58
I0
g54
tp134
ag94
ag93
ag134
ag69
ag63
ag66
ag111
ag74
a(g65
I0
g60
tp135
ag74
ag75
asg76
(lp136
g78
ag79
ag79
ag79
ag79
ag78
ag78
ag52
ag79
ag52
ag79
ag52
ag79
ag80
asg81
(lp137
g79
ag52
ag79
ag78
ag52
ag78
ag78
ag52
ag79
ag52
ag80
ag52
ag79
ag80
asg83
(lp138
g79
ag52
ag79
ag78
ag52
ag78
ag78
ag52
ag79
ag52
ag80
ag52
ag79
ag80
asaa(lp139
I5
ag39
(g40
tp140
Rp141
g43
(lp142
g45
ag46
ag46
ag46
ag47
ag46
ag47
ag46
ag45
ag47
ag46
ag47
ag48
asg49
(lp143
I01
aI00
aI00
aI01
aI01
aI01
aI00
aI00
aI00
aI01
aI01
aI01
aI01
asg51
I13
sg52
g55
sg56
(lp144
(g58
I0
g24
tp145
ag63
ag64
ag64
ag66
ag111
ag74
ag135
a(g65
I0
g54
tp146
a(g65
I0
g62
tp147
ag111
ag74
ag75
asg76
(lp148
g78
ag52
ag52
ag52
ag79
ag52
ag79
ag79
ag78
ag79
ag52
ag79
ag80
asg81
(lp149
g78
ag80
ag80
ag52
ag79
ag52
ag80
ag79
ag79
ag79
ag52
ag79
ag80
asg83
(lp150
g78
ag80
ag80
ag52
ag79
ag52
ag80
ag79
ag79
ag79
ag52
ag79
ag80
asaa(lp151
I6
ag39
(g40
tp152
Rp153
g43
(lp154
g45
ag45
ag47
ag47
ag46
ag47
ag45
ag46
ag47
ag48
asg49
(lp155
I00
aI00
aI00
aI01
aI01
aI00
aI01
aI01
aI01
aI01
asg51
I10
sg52
g55
sg56
(lp156
(g58
I0
g24
tp157
ag61
ag70
ag134
ag94
ag66
ag67
ag72
ag74
ag75
asg76
(lp158
g78
ag78
ag79
ag79
ag52
ag79
ag78
ag52
ag79
ag80
asg81
(lp159
g80
ag79
ag52
ag79
ag52
ag78
ag78
ag52
ag79
ag80
asg83
(lp160
g80
ag79
ag52
ag79
ag52
ag78
ag78
ag52
ag79
ag80
asaa(lp161
I7
ag39
(g40
tp162
Rp163
g43
(lp164
g45
ag47
ag47
ag46
ag45
ag45
ag46
ag47
ag46
ag47
ag45
ag48
ag45
ag48
ag45
ag47
ag45
ag48
ag47
ag46
ag47
ag48
asg49
(lp165
I00
aI00
aI01
aI00
aI00
aI01
aI01
aI01
aI01
aI00
aI01
aI00
aI01
aI00
aI00
aI00
aI01
aI00
aI00
aI01
aI01
aI01
asg51
I22
sg52
g55
sg56
(lp166
(g58
I0
g24
tp167
ag70
a(g58
I0
g54
tp168
ag94
ag71
ag92
ag63
ag66
ag111
ag74
ag96
ag98
ag99
ag98
ag99
ag100
ag96
ag98
ag95
ag135
ag74
ag75
asg76
(lp169
g78
ag79
ag79
ag79
ag52
ag78
ag52
ag79
ag52
ag79
ag80
ag80
ag78
ag80
ag80
ag79
ag78
ag80
ag79
ag52
ag79
ag80
asg81
(lp170
g79
ag80
ag79
ag79
ag52
ag78
ag52
ag79
ag52
ag78
ag78
ag79
ag78
ag79
ag79
ag78
ag78
ag78
ag80
ag52
ag79
ag80
asg83
(lp171
g79
ag80
ag79
ag79
ag52
ag78
ag52
ag79
ag52
ag78
ag78
ag79
ag78
ag79
ag79
ag78
ag78
ag78
ag80
ag52
ag79
ag80
asaa(lp172
I8
ag39
(g40
tp173
Rp174
g43
(lp175
g45
ag46
ag47
ag45
ag47
ag47
ag47
ag47
ag46
ag47
ag47
ag45
ag48
asg49
(lp176
I01
aI01
aI00
aI00
aI00
aI00
aI00
aI01
aI01
aI00
aI00
aI01
aI01
asg51
I13
sg52
g55
sg56
(lp177
(g58
I0
g24
tp178
ag63
ag66
ag67
ag147
a(g65
I0
g62
tp179
ag179
ag179
ag111
ag74
ag113
ag96
ag98
asg76
(lp180
g78
ag52
ag79
ag52
ag52
ag79
ag52
ag79
ag52
ag52
ag79
ag78
ag80
asg81
(lp181
g78
ag52
ag78
ag79
ag52
ag52
ag52
ag79
ag52
ag52
ag78
ag78
ag80
asg83
(lp182
g78
ag52
ag78
ag79
ag52
ag52
ag52
ag79
ag52
ag52
ag78
ag78
ag80
asaa(lp183
I9
ag39
(g40
tp184
Rp185
g43
(lp186
g45
ag46
ag47
ag46
ag47
ag45
ag48
ag45
ag48
ag45
ag48
asg49
(lp187
I01
aI01
aI01
aI01
aI00
aI01
aI00
aI01
aI00
aI01
aI01
asg51
I11
sg52
g55
sg56
(lp188
(g58
I0
g24
tp189
ag63
ag66
ag111
ag74
ag96
ag98
ag99
ag98
ag99
ag98
asg76
(lp190
g78
ag52
ag78
ag52
ag79
ag78
ag80
ag78
ag80
ag78
ag80
asg81
(lp191
g78
ag52
ag79
ag52
ag78
ag78
ag79
ag78
ag79
ag78
ag80
asg83
(lp192
g78
ag52
ag79
ag52
ag78
ag78
ag79
ag78
ag79
ag78
ag80
asaatp193
Rp194
aatp195
Rp196
.