ccollections
OrderedDict
p0
((lp1
(lp2
S'combination_dict'
p3
ag0
((lp4
(lp5
S'r_to_g_config'
p6
aS'bl'
p7
aa(lp8
S'num_turns'
p9
aI1
aa(lp10
S'start_direction'
p11
acutils_ms
StartDirection
p12
(I1
tp13
Rp14
aa(lp15
S'assistance_type'
p16
acutils_ms
AssistanceType
p17
(I2
tp18
Rp19
aa(lp20
S'start_mode'
p21
aS't'
p22
aa(lp23
S'ui_given_a_noise'
p24
aF0.1
aa(lp25
S'um_given_ui_noise'
p26
aF0.7
aa(lp27
S'entropy_threshold'
p28
aF0.7
aatp29
Rp30
aa(lp31
S'data'
p32
accollections
defaultdict
p33
(c__builtin__
list
p34
tp35
Rp36
S'a'
p37
(lp38
S'mode_l'
p39
ag39
aS'move_n'
p40
aS'mode_r'
p41
ag40
ag39
ag41
ag40
ag41
aS'move_p'
p42
ag41
ag42
ag42
ag41
ag41
ag41
ag39
ag40
ag39
ag41
ag41
ag39
ag41
ag40
ag39
ag39
ag40
ag39
ag40
ag39
ag41
ag41
ag42
ag42
ag41
ag41
ag42
ag41
ag41
ag42
ag41
ag42
ag39
ag41
ag39
ag40
ag39
ag39
ag40
ag40
ag41
ag42
ag41
ag40
ag41
ag40
ag39
ag39
ag39
ag41
ag39
ag39
ag41
ag41
ag41
ag42
ag41
ag42
ag42
ag41
ag42
ag41
ag40
asS'assistance_match_with_ground_truth'
p43
(lp44
I00
aI01
aI00
aI01
aI00
aI00
aI01
aI01
aI01
aI00
aI01
aI00
aI01
aI00
aI00
aI00
aI01
aI00
aI00
aI00
aI00
aI00
aI01
aI00
aI00
aI01
aI00
aI01
aI00
aI00
aI00
aI00
aI00
aI00
aI00
aI01
aI01
aI00
aI00
aI00
aI01
aI00
aI00
aI00
aI01
aI00
aI00
aI01
aI00
aI01
aI01
aI01
aI01
aI00
aI01
aI00
aI00
aI00
aI00
aI00
aI00
aI00
aI00
aI00
aI00
aI01
aI00
aI00
aI00
aI01
aI01
aI01
aI01
asS'total_steps'
p45
I73
sS'sp'
p46
(lp47
(S'p0'
p48
I0
S't'
p49
tp50
a(g48
I0
S'y'
p51
tp52
a(g48
I0
S'x'
p53
tp54
a(g48
I0
g51
tp55
a(g48
I0
g49
tp56
a(g48
I0
g53
tp57
ag55
a(S'p1'
p58
I0
g51
tp59
a(g58
I0
g49
tp60
a(g58
I0
g51
tp61
ag60
a(g58
I0
g49
tp62
a(g58
F1.5707963267948966
g49
tp63
a(g58
F1.5707963267948966
g49
tp64
ag64
a(g58
F1.5707963267948966
g51
tp65
a(g58
F1.5707963267948966
g53
tp66
a(g58
F1.5707963267948966
g51
tp67
a(g58
F1.5707963267948966
g49
tp68
ag64
ag65
ag68
a(g58
F1.5707963267948966
g53
tp69
ag67
a(g58
F1.5707963267948966
g51
tp70
ag66
ag67
ag66
ag67
ag68
ag64
a(g58
I0
g49
tp71
ag62
ag61
a(g58
I0
g51
tp72
ag60
ag63
ag64
ag71
ag61
ag60
a(g58
I0
g53
tp73
a(g48
I0
g53
tp74
a(g48
I0
g49
tp75
ag52
ag56
a(g48
I0
g49
tp76
ag52
a(g48
I0
g51
tp77
ag59
ag60
ag63
ag69
a(g58
F1.5707963267948966
g49
tp78
ag69
ag67
a(g58
F1.5707963267948966
g51
tp79
ag70
ag68
ag65
ag79
ag68
ag64
ag64
ag71
ag63
ag71
ag62
ag61
ag60
ag63
ag69
a(S'p2'
p80
F1.5707963267948966
g53
tp81
asS's'
p82
(lp83
(g48
I0
g22
tp84
ag50
ag52
ag54
ag55
ag56
ag57
ag55
ag59
ag60
ag61
ag60
ag62
ag63
ag64
ag64
ag65
ag66
ag67
ag68
ag64
ag65
ag68
ag69
ag67
ag70
ag66
ag67
ag66
ag67
ag68
ag64
ag71
ag62
ag61
ag72
ag60
ag63
ag64
ag71
ag61
ag60
ag73
ag74
ag75
ag52
ag56
ag76
ag52
ag77
ag59
ag60
ag63
ag69
ag78
ag69
ag67
ag79
ag70
ag68
ag65
ag79
ag68
ag64
ag64
ag71
ag63
ag71
ag62
ag61
ag60
ag63
ag69
asS'ui'
p85
(lp86
S'hs'
p87
ag87
ag87
aS'hp'
p88
ag88
ag46
ag88
aS'ss'
p89
ag88
ag87
ag88
ag46
ag46
ag88
ag88
ag88
ag87
ag89
ag87
ag88
ag88
ag87
ag88
ag89
ag87
ag87
ag89
ag87
ag89
ag87
ag88
ag89
ag46
ag46
ag89
ag88
ag46
ag88
ag88
ag46
ag88
ag88
ag87
ag89
ag87
ag89
ag46
ag87
ag89
ag89
ag88
ag46
ag88
ag89
ag88
ag89
ag87
ag87
ag87
ag88
ag46
ag88
ag88
ag88
ag88
ag46
ag88
ag46
ag46
ag88
ag46
ag88
ag89
asS'um_before'
p90
(lp91
g46
ag87
ag87
ag88
ag88
ag88
ag88
ag89
ag88
ag87
ag88
ag89
ag46
ag46
ag46
ag87
ag87
ag88
ag88
ag46
ag87
ag88
ag88
ag88
ag46
ag87
ag88
ag87
ag88
ag88
ag46
ag89
ag89
ag87
ag89
ag88
ag46
ag46
ag89
ag87
ag88
ag88
ag46
ag87
ag87
ag88
ag89
ag87
ag46
ag89
ag88
ag46
ag88
ag87
ag88
ag88
ag89
ag46
ag88
ag87
ag89
ag88
ag46
ag46
ag89
ag46
ag89
ag89
ag87
ag88
ag46
ag88
ag89
asS'um_after'
p92
(lp93
g46
ag87
ag87
ag88
ag88
ag88
ag88
ag89
ag88
ag87
ag88
ag89
ag46
ag46
ag46
ag87
ag87
ag88
ag88
ag46
ag87
ag88
ag88
ag88
ag46
ag87
ag88
ag87
ag88
ag88
ag46
ag89
ag89
ag87
ag89
ag88
ag46
ag46
ag89
ag87
ag88
ag88
ag46
ag87
ag87
ag88
ag89
ag87
ag46
ag89
ag88
ag46
ag88
ag87
ag88
ag88
ag89
ag46
ag88
ag87
ag89
ag88
ag46
ag46
ag89
ag46
ag89
ag89
ag87
ag88
ag46
ag88
ag89
asaa(lp94
S'index'
p95
aI66575
aatp96
Rp97
.