ccollections
OrderedDict
p0
((lp1
(lp2
S'index'
p3
aI7784
aa(lp4
S'combination_dict'
p5
ag0
((lp6
(lp7
S'r_to_g_config'
p8
aS'bl'
p9
aa(lp10
S'num_turns'
p11
aI1
aa(lp12
S'start_direction'
p13
acutils_ms
StartDirection
p14
(I3
tp15
Rp16
aa(lp17
S'assistance_type'
p18
acutils_ms
AssistanceType
p19
(I0
tp20
Rp21
aa(lp22
S'start_mode'
p23
aS't'
p24
aa(lp25
S'ui_given_a_noise'
p26
aF0.5
aa(lp27
S'um_given_ui_noise'
p28
aF0.5
aa(lp29
S'entropy_threshold'
p30
aF0.7
aa(lp31
S'is_assistance'
p32
aI01
aatp33
Rp34
aa(lp35
S'trials'
p36
ag0
((lp37
(lp38
I0
accollections
defaultdict
p39
(c__builtin__
list
p40
tp41
Rp42
S'a'
p43
(lp44
S'mode_r'
p45
aS'move_n'
p46
aS'mode_l'
p47
ag46
ag47
ag45
aS'move_p'
p48
ag48
ag47
ag46
asS'assistance_match_with_ground_truth'
p49
(lp50
I01
aI00
aI01
aI01
aI00
aI01
aI00
aI01
aI01
aI01
asS'total_steps'
p51
I10
sS'sp'
p52
(S'p2'
p53
F1.5707963267948966
S'y'
p54
tp55
sS's'
p56
(lp57
(S'p0'
p58
I0
g24
tp59
a(g58
I0
S'x'
p60
tp61
a(g58
I0
g54
tp62
a(g58
I0
g60
tp63
a(S'p1'
p64
I0
g60
tp65
a(g64
I0
g54
tp66
a(g64
I0
S't'
p67
tp68
ag68
a(g64
F1.5707963267948966
g67
tp69
a(g64
F1.5707963267948966
g54
tp70
asS'ui'
p71
(lp72
S'hp'
p73
aS'hs'
p74
ag74
aS'ss'
p75
ag74
ag73
ag74
ag52
ag74
ag75
asS'um_before'
p76
(lp77
g73
ag73
ag74
ag75
ag73
ag73
ag74
ag52
ag74
ag75
asS'um_after'
p78
(lp79
g73
ag73
ag74
ag75
ag73
ag73
aNag52
ag74
ag75
asaa(lp80
I1
ag39
(g40
tp81
Rp82
g43
(lp83
g45
ag47
ag46
ag46
ag45
ag47
ag46
ag47
ag47
ag47
ag47
ag47
ag47
ag47
ag48
ag47
ag46
asg49
(lp84
I00
aI01
aI00
aI00
aI00
aI01
aI01
aI00
aI00
aI00
aI00
aI00
aI00
aI01
aI01
aI01
aI01
asg51
I17
sg52
g55
sg56
(lp85
(g58
I0
g24
tp86
a(g58
I0
g54
tp87
ag63
ag63
a(g58
I0
g67
tp88
ag87
ag63
ag65
a(g64
I0
g60
tp89
ag89
ag89
ag89
ag89
ag89
a(g64
I0
g67
tp90
ag69
ag70
asg71
(lp91
g74
ag74
ag75
ag73
ag73
ag74
ag75
ag74
ag75
ag75
ag52
ag52
ag74
ag52
ag52
ag74
ag75
asg76
(lp92
g74
ag74
ag52
ag74
ag74
ag74
ag75
ag52
ag75
ag52
ag52
ag52
ag75
ag74
ag52
ag74
ag75
asg78
(lp93
g74
ag74
aNag74
ag74
ag74
ag75
ag52
aNag52
ag52
ag52
aNag74
ag52
ag74
ag75
asaa(lp94
I2
ag39
(g40
tp95
Rp96
g43
(lp97
g45
ag45
ag47
ag46
ag47
ag48
ag48
ag47
ag47
ag45
ag45
ag46
asg49
(lp98
I00
aI00
aI01
aI01
aI01
aI00
aI01
aI00
aI00
aI00
aI01
aI01
asg51
I12
sg52
g55
sg56
(lp99
(g58
I0
g24
tp100
a(g58
I0
g67
tp101
ag87
ag63
ag65
ag90
a(g64
I0
g67
tp102
ag69
ag69
a(g64
F1.5707963267948966
g60
tp103
a(g64
F1.5707963267948966
g60
tp104
a(g64
F1.5707963267948966
g54
tp105
asg71
(lp106
g52
ag74
ag74
ag75
ag74
ag75
ag52
ag74
ag74
ag52
ag74
ag75
asg76
(lp107
g52
ag74
ag74
ag75
ag74
ag75
ag52
ag75
ag73
ag52
ag73
ag75
asg78
(lp108
g52
ag74
ag74
ag75
ag74
ag75
ag52
aNag73
ag52
ag73
ag75
asaa(lp109
I3
ag39
(g40
tp110
Rp111
g43
(lp112
g45
ag47
ag46
ag47
ag47
ag47
ag46
ag47
ag45
ag47
ag47
ag46
ag45
ag47
ag46
ag46
ag47
ag47
ag45
ag48
ag48
ag47
ag48
ag47
ag47
ag46
asg49
(lp113
I00
aI01
aI00
aI00
aI00
aI01
aI01
aI00
aI00
aI00
aI01
aI00
aI00
aI01
aI00
aI01
aI00
aI00
aI01
aI00
aI00
aI01
aI01
aI00
aI01
aI01
asg51
I26
sg52
g55
sg56
(lp114
(g58
I0
g24
tp115
ag87
ag63
ag62
a(g58
I0
g54
tp116
ag116
ag63
ag65
ag66
a(g58
I0
g54
tp117
ag117
ag63
ag88
ag87
ag63
ag63
ag65
ag89
ag66
ag68
ag102
a(g64
I0
g60
tp118
ag90
ag69
ag69
ag70
asg71
(lp119
g74
ag74
ag73
ag74
ag74
ag74
ag75
ag74
ag52
ag75
ag73
ag52
ag73
ag74
ag75
ag75
ag52
ag74
ag73
ag75
ag52
ag52
ag52
ag74
ag74
ag75
asg76
(lp120
g74
ag74
ag73
ag52
ag52
ag74
ag75
ag73
ag52
ag75
ag74
ag74
ag74
ag74
ag52
ag75
ag52
ag73
ag73
ag75
ag73
ag74
ag52
ag75
ag74
ag75
asg78
(lp121
g74
ag74
ag73
ag52
ag52
ag74
ag75
ag73
ag52
aNag74
ag74
ag74
ag74
aNag75
ag52
ag73
ag73
ag75
ag73
ag74
ag52
aNag74
ag75
asaa(lp122
I4
ag39
(g40
tp123
Rp124
g43
(lp125
g45
ag47
ag46
ag45
ag45
ag46
ag46
ag47
ag47
ag48
ag48
ag48
ag48
ag48
ag47
ag46
ag46
asg49
(lp126
I00
aI01
aI00
aI00
aI01
aI00
aI01
aI00
aI01
aI00
aI00
aI00
aI00
aI01
aI01
aI00
aI01
asg51
I17
sg52
g55
sg56
(lp127
(g58
I0
g24
tp128
ag87
ag63
ag88
a(g58
I0
g67
tp129
ag61
ag61
ag65
ag65
ag90
ag90
ag102
ag102
ag102
ag69
ag70
ag70
asg71
(lp130
g52
ag74
ag73
ag75
ag73
ag75
ag75
ag74
ag74
ag52
ag75
ag52
ag52
ag52
ag74
ag75
ag74
asg76
(lp131
g74
ag74
ag74
ag75
ag73
ag52
ag75
ag75
ag74
ag74
ag75
ag74
ag75
ag52
ag74
ag52
ag75
asg78
(lp132
g74
ag74
ag74
ag75
ag73
aNag75
aNag74
aNag75
aNag75
ag52
ag74
aNag75
asaa(lp133
I5
ag39
(g40
tp134
Rp135
g43
(lp136
g45
ag46
ag47
ag47
ag47
ag45
ag47
ag46
ag47
ag48
ag48
ag48
ag47
ag46
ag46
asg49
(lp137
I01
aI01
aI00
aI00
aI00
aI00
aI01
aI01
aI01
aI00
aI00
aI01
aI01
aI00
aI01
asg51
I15
sg52
g55
sg56
(lp138
(g58
I0
g24
tp139
ag61
ag65
ag65
ag89
ag66
ag117
ag63
ag65
ag90
ag102
ag102
ag69
ag70
ag70
asg71
(lp140
g73
ag75
ag75
ag52
ag74
ag75
ag74
ag75
ag74
ag52
ag75
ag52
ag74
ag52
ag75
asg76
(lp141
g73
ag75
ag75
ag52
ag73
ag52
ag74
ag75
ag74
ag75
ag75
ag52
ag74
ag52
ag75
asg78
(lp142
g73
ag75
aNag52
ag73
ag52
ag74
ag75
ag74
ag75
ag75
ag52
ag74
aNag75
asaa(lp143
I6
ag39
(g40
tp144
Rp145
g43
(lp146
g45
ag45
ag46
ag47
ag48
ag48
ag47
ag47
ag45
ag45
ag46
ag46
ag47
ag47
ag47
ag46
asg49
(lp147
I00
aI01
aI01
aI01
aI00
aI01
aI00
aI00
aI00
aI01
aI00
aI00
aI00
aI00
aI01
aI01
asg51
I16
sg52
g55
sg56
(lp148
(g58
I0
g24
tp149
ag101
ag61
ag65
ag90
ag90
ag69
ag69
ag103
a(g64
F1.5707963267948966
g60
tp150
ag105
ag105
a(g64
F1.5707963267948966
g67
tp151
ag151
a(g64
F1.5707963267948966
g67
tp152
ag70
asg71
(lp153
g52
ag74
ag75
ag74
ag74
ag52
ag74
ag75
ag75
ag73
ag75
ag73
ag75
ag52
ag74
ag75
asg76
(lp154
g52
ag73
ag75
ag74
ag74
ag52
ag75
ag73
ag75
ag73
ag52
ag73
ag75
ag52
ag74
ag75
asg78
(lp155
g52
ag73
ag75
ag74
aNag52
aNag73
ag75
ag73
aNag73
aNag52
ag74
ag75
asaa(lp156
I7
ag39
(g40
tp157
Rp158
g43
(lp159
g45
ag46
ag47
ag46
ag47
ag48
ag48
ag47
ag46
ag47
ag45
ag46
ag47
ag47
ag47
ag46
asg49
(lp160
I01
aI00
aI01
aI01
aI01
aI00
aI01
aI01
aI00
aI00
aI01
aI00
aI00
aI00
aI01
aI01
asg51
I16
sg52
g55
sg56
(lp161
(g58
I0
g24
tp162
ag61
ag62
ag63
ag65
ag90
ag102
ag69
ag70
ag151
ag103
ag105
ag151
ag151
ag151
ag70
asg71
(lp163
g73
ag75
ag74
ag75
ag74
ag74
ag74
ag74
ag73
ag74
ag73
ag73
ag74
ag74
ag74
ag75
asg76
(lp164
g73
ag73
ag74
ag75
ag74
ag75
ag52
ag74
ag73
ag73
ag73
ag73
ag75
ag75
ag74
ag75
asg78
(lp165
g73
ag73
ag74
ag75
ag74
ag75
ag52
ag74
ag73
ag73
ag73
ag73
aNaNag74
ag75
asaa(lp166
I8
ag39
(g40
tp167
Rp168
g43
(lp169
g45
ag46
ag47
ag47
ag48
ag47
ag48
ag47
ag47
ag47
ag47
ag46
ag45
ag46
asg49
(lp170
I01
aI01
aI00
aI01
aI00
aI01
aI01
aI00
aI00
aI00
aI01
aI00
aI01
aI01
asg51
I14
sg52
g55
sg56
(lp171
(g58
I0
g24
tp172
ag61
ag65
ag65
ag90
ag118
ag90
ag69
ag69
ag69
ag152
ag70
a(g64
F1.5707963267948966
g60
tp173
ag105
asg71
(lp174
g75
ag75
ag74
ag74
ag52
ag74
ag52
ag75
ag74
ag75
ag74
ag73
ag73
ag75
asg76
(lp175
g73
ag75
ag75
ag74
ag73
ag74
ag52
ag75
ag75
ag52
ag74
ag74
ag73
ag75
asg78
(lp176
g73
ag75
aNag74
ag73
ag74
ag52
aNaNag52
ag74
ag74
ag73
ag75
asaa(lp177
I9
ag39
(g40
tp178
Rp179
g43
(lp180
g45
ag46
ag46
ag47
ag46
ag47
ag46
ag46
ag47
ag48
ag48
ag47
ag47
ag47
ag47
ag46
ag45
ag46
ag47
ag45
ag45
ag46
ag47
ag45
ag45
ag46
asg49
(lp181
I01
aI00
aI00
aI01
aI00
aI01
aI00
aI01
aI01
aI00
aI01
aI00
aI00
aI00
aI01
aI00
aI01
aI00
aI00
aI00
aI01
aI00
aI00
aI00
aI01
aI01
asg51
I26
sg52
g55
sg56
(lp182
(g58
I0
g24
tp183
ag61
ag61
ag62
ag63
ag62
ag63
ag63
ag65
ag90
ag90
ag69
ag152
ag152
ag152
ag70
ag173
ag105
ag151
ag103
ag150
ag105
ag151
ag103
ag104
ag105
asg71
(lp184
g73
ag75
ag75
ag74
ag75
ag74
ag75
ag75
ag74
ag52
ag52
ag52
ag75
ag74
ag74
ag74
ag73
ag73
ag74
ag75
ag73
ag75
ag74
ag52
ag73
ag75
asg76
(lp185
g73
ag52
ag73
ag74
ag73
ag74
ag52
ag75
ag74
ag74
ag52
ag52
ag52
ag75
ag74
ag74
ag73
ag73
ag73
ag75
ag73
ag73
ag73
ag52
ag73
ag75
asg78
(lp186
g73
aNag73
ag74
ag73
ag74
aNag75
ag74
aNag52
ag52
ag52
aNag74
ag74
ag73
ag73
ag73
ag75
ag73
ag73
ag73
ag52
ag73
ag75
asaatp187
Rp188
aatp189
Rp190
.