ccollections
OrderedDict
p0
((lp1
(lp2
S'combination_dict'
p3
ag0
((lp4
(lp5
S'r_to_g_config'
p6
aS'tr'
p7
aa(lp8
S'num_turns'
p9
aI3
aa(lp10
S'start_direction'
p11
acutils_ms
StartDirection
p12
(I1
tp13
Rp14
aa(lp15
S'assistance_type'
p16
acutils_ms
AssistanceType
p17
(I0
tp18
Rp19
aa(lp20
S'start_mode'
p21
aS'x'
p22
aa(lp23
S'ui_given_a_noise'
p24
aF0.5
aa(lp25
S'um_given_ui_noise'
p26
aF0.1
aa(lp27
S'entropy_threshold'
p28
aF0.7
aatp29
Rp30
aa(lp31
S'data'
p32
accollections
defaultdict
p33
(c__builtin__
list
p34
tp35
Rp36
S'a'
p37
(lp38
S'mode_r'
p39
ag39
ag39
aS'mode_l'
p40
aS'move_p'
p41
ag40
ag41
ag40
ag40
ag40
ag40
ag39
ag40
ag39
ag40
ag39
ag40
ag41
ag40
ag39
ag40
ag40
ag39
ag39
ag41
ag39
ag39
ag39
ag39
ag40
ag39
ag40
ag41
ag40
ag41
ag39
ag39
ag41
ag40
ag40
ag41
ag40
ag41
ag40
ag40
ag40
ag41
ag40
ag40
ag39
ag41
ag39
ag39
ag41
ag39
ag40
ag41
ag40
ag40
ag41
ag39
ag41
ag40
ag41
ag39
ag39
ag39
ag41
ag40
ag40
ag39
ag39
ag39
ag39
ag41
ag39
ag39
ag41
ag40
ag39
ag41
asS'assistance_match_with_ground_truth'
p42
(lp43
I00
aI00
aI00
aI01
aI01
aI01
aI01
aI00
aI00
aI00
aI00
aI00
aI00
aI00
aI00
aI00
aI01
aI01
aI00
aI00
aI00
aI00
aI00
aI01
aI00
aI00
aI00
aI00
aI00
aI00
aI00
aI01
aI01
aI01
aI00
aI00
aI01
aI00
aI00
aI01
aI01
aI01
aI01
aI00
aI00
aI01
aI00
aI00
aI00
aI01
aI00
aI00
aI01
aI01
aI00
aI01
aI00
aI00
aI01
aI01
aI01
aI01
aI01
aI00
aI00
aI00
aI01
aI00
aI00
aI00
aI00
aI00
aI00
aI01
aI00
aI00
aI01
aI01
aI00
aI01
aI01
asS'total_steps'
p44
I81
sS'sp'
p45
(lp46
(S'p0'
p47
I0
S'x'
p48
tp49
ag49
a(g47
I0
S't'
p50
tp51
a(g47
I0
S'y'
p52
tp53
a(S'p1'
p54
I0
g52
tp55
a(g54
I0
g48
tp56
a(S'p2'
p57
I0
g48
tp58
a(g57
I0
g48
tp59
ag59
ag59
a(g57
I0
g52
tp60
a(g54
I0
g52
tp61
a(g54
I0
g50
tp62
a(g54
I0
g52
tp63
ag62
ag63
ag56
ag58
ag60
ag61
a(g54
I0
g52
tp64
ag62
a(g54
I0
g50
tp65
a(g54
I0
g48
tp66
a(g47
I0
g48
tp67
a(g47
I0
g48
tp68
ag49
ag68
ag51
a(g47
I0
g48
tp69
ag51
ag53
ag55
ag56
a(g54
I0
g50
tp70
ag65
ag66
a(g54
I0
g52
tp71
ag64
ag56
ag58
a(g57
I0
g50
tp72
a(g57
F1.5707963267948966
g50
tp73
a(g57
F1.5707963267948966
g50
tp74
ag74
a(g57
F1.5707963267948966
g52
tp75
a(g54
F1.5707963267948966
g52
tp76
a(g54
F1.5707963267948966
g52
tp77
a(g54
F1.5707963267948966
g50
tp78
a(g54
F1.5707963267948966
g48
tp79
a(g54
F1.5707963267948966
g50
tp80
a(g54
F1.5707963267948966
g50
tp81
ag79
a(g57
F1.5707963267948966
g48
tp82
a(g57
F1.5707963267948966
g50
tp83
ag75
ag76
ag77
a(g54
F1.5707963267948966
g48
tp84
ag82
a(g57
F1.5707963267948966
g52
tp85
a(S'p3'
p86
F1.5707963267948966
g52
tp87
a(g86
F1.5707963267948966
g48
tp88
a(g57
F1.5707963267948966
g48
tp89
a(g57
F1.5707963267948966
g48
tp90
a(g57
F1.5707963267948966
g48
tp91
ag85
a(g57
F1.5707963267948966
g50
tp92
ag74
a(g57
F1.5707963267948966
g48
tp93
ag91
ag91
ag91
ag85
a(g57
F1.5707963267948966
g48
tp94
ag91
ag85
ag87
a(g86
F1.5707963267948966
g50
tp95
a(g86
F1.5707963267948966
g48
tp96
a(S'p4'
p97
F1.5707963267948966
g48
tp98
asS's'
p99
(lp100
(g47
I0
g22
tp101
ag49
ag49
ag51
ag53
ag55
ag56
ag58
ag59
ag59
ag59
ag60
ag61
ag62
ag63
ag62
ag63
ag56
ag58
ag60
ag61
ag64
ag62
ag65
ag66
ag67
ag68
ag49
ag68
ag51
ag69
ag51
ag53
ag55
ag56
ag70
ag65
ag66
ag71
ag64
ag56
ag58
ag72
ag73
ag74
ag74
ag75
ag76
ag77
ag78
ag79
ag80
ag81
ag79
ag82
ag83
ag75
ag76
ag77
ag84
ag82
ag85
ag87
ag88
ag89
ag90
ag91
ag85
ag92
ag74
ag93
ag91
ag91
ag91
ag85
ag94
ag91
ag85
ag87
ag95
ag96
asS'ui'
p102
(lp103
S'ss'
p104
ag104
aS'hp'
p105
aS'hs'
p106
ag45
ag106
ag45
ag45
ag45
ag45
ag105
ag104
ag105
ag106
ag105
ag105
ag106
ag45
ag106
ag45
ag45
ag105
ag104
ag105
ag104
ag45
ag104
ag104
ag106
ag45
ag106
ag106
ag45
ag106
ag106
ag104
ag105
ag105
ag45
ag106
ag45
ag45
ag45
ag45
ag45
ag106
ag104
ag45
ag105
ag105
ag106
ag105
ag45
ag45
ag105
ag106
ag104
ag45
ag106
ag45
ag105
ag45
ag106
ag104
ag45
ag104
ag105
ag105
ag45
ag106
ag106
ag104
ag45
ag105
ag106
ag104
ag105
ag45
ag105
ag105
ag45
asS'um_before'
p107
(lp108
g104
ag104
ag106
ag106
ag45
ag106
ag45
ag45
ag45
ag45
ag105
ag104
ag105
ag106
ag105
ag106
ag106
ag45
ag105
ag104
ag45
ag105
ag104
ag105
ag104
ag45
ag104
ag45
ag106
ag105
ag106
ag106
ag45
ag106
ag106
ag104
ag105
ag105
ag45
ag106
ag45
ag106
ag45
ag45
ag45
ag106
ag104
ag45
ag105
ag105
ag106
ag45
ag105
ag45
ag106
ag106
ag104
ag45
ag106
ag45
ag105
ag45
ag106
ag104
ag45
ag104
ag105
ag105
ag45
ag105
ag104
ag104
ag104
ag105
ag106
ag104
ag105
ag45
ag105
ag105
ag45
asS'um_after'
p109
(lp110
g104
ag104
ag106
ag106
ag45
ag106
ag45
ag45
ag45
ag45
ag105
ag104
ag105
ag106
ag105
ag106
ag106
ag45
ag105
ag104
ag45
ag105
ag104
ag105
ag104
ag45
ag104
ag45
ag106
ag105
ag106
ag106
ag45
ag106
ag106
ag104
ag105
ag105
ag45
ag106
ag45
ag106
ag45
ag45
ag45
ag106
ag104
ag45
ag105
ag105
ag106
ag45
ag105
ag45
ag106
ag106
ag104
ag45
ag106
ag45
ag105
ag45
ag106
ag104
ag45
ag104
ag105
ag105
ag45
ag105
ag104
ag104
ag104
ag105
ag106
ag104
ag105
ag45
ag105
ag105
ag45
asaa(lp111
S'index'
p112
aI24427
aatp113
Rp114
.