ccollections
OrderedDict
p0
((lp1
(lp2
S'index'
p3
aI11846
aa(lp4
S'combination_dict'
p5
ag0
((lp6
(lp7
S'r_to_g_config'
p8
aS'br'
p9
aa(lp10
S'num_turns'
p11
aI1
aa(lp12
S'start_direction'
p13
acutils_ms
StartDirection
p14
(I3
tp15
Rp16
aa(lp17
S'assistance_type'
p18
acutils_ms
AssistanceType
p19
(I1
tp20
Rp21
aa(lp22
S'start_mode'
p23
aS't'
p24
aa(lp25
S'ui_given_a_noise'
p26
aF0.1
aa(lp27
S'um_given_ui_noise'
p28
aF0.1
aa(lp29
S'entropy_threshold'
p30
aF0.8
aa(lp31
S'is_assistance'
p32
aI01
aatp33
Rp34
aa(lp35
S'trials'
p36
ag0
((lp37
(lp38
I0
accollections
defaultdict
p39
(c__builtin__
list
p40
tp41
Rp42
S'a'
p43
(lp44
S'mode_r'
p45
aS'move_p'
p46
aS'mode_l'
p47
ag46
ag47
aS'move_n'
p48
asS'assistance_match_with_ground_truth'
p49
(lp50
I01
aI01
aI01
aI01
aI01
aI01
asS'total_steps'
p51
I6
sS'sp'
p52
(S'p2'
p53
F1.5707963267948966
S'y'
p54
tp55
sS's'
p56
(lp57
(S'p0'
p58
I0
g24
tp59
a(g58
I0
S'x'
p60
tp61
a(S'p1'
p62
I0
g60
tp63
a(g62
I0
S't'
p64
tp65
a(g62
F1.5707963267948966
g64
tp66
a(g62
F1.5707963267948966
g54
tp67
asS'ui'
p68
(lp69
S'hp'
p70
ag52
aS'hs'
p71
ag52
ag71
aS'ss'
p72
asS'um_before'
p73
(lp74
g70
ag52
ag71
ag52
ag71
ag72
asS'um_after'
p75
(lp76
g70
ag52
ag71
ag52
ag71
ag72
asaa(lp77
I1
ag39
(g40
tp78
Rp79
g43
(lp80
g45
ag46
ag47
ag46
ag47
ag48
asg49
(lp81
I01
aI01
aI01
aI01
aI01
aI01
asg51
I6
sg52
g55
sg56
(lp82
(g58
I0
g24
tp83
ag61
ag63
ag65
ag66
ag67
asg68
(lp84
g70
ag52
ag71
ag52
ag71
ag72
asg73
(lp85
g70
ag52
ag71
ag52
ag71
ag72
asg75
(lp86
g70
ag52
ag71
ag52
ag71
ag72
asaa(lp87
I2
ag39
(g40
tp88
Rp89
g43
(lp90
g45
ag46
ag47
ag46
ag47
ag48
asg49
(lp91
I01
aI01
aI01
aI01
aI01
aI01
asg51
I6
sg52
g55
sg56
(lp92
(g58
I0
g24
tp93
ag61
ag63
ag65
ag66
ag67
asg68
(lp94
g70
ag52
ag71
ag52
ag71
ag72
asg73
(lp95
g52
ag52
ag71
ag52
ag71
ag72
asg75
(lp96
g70
ag52
ag71
ag52
ag71
ag72
asaa(lp97
I3
ag39
(g40
tp98
Rp99
g43
(lp100
g45
ag46
ag47
ag46
ag47
ag48
asg49
(lp101
I01
aI01
aI01
aI01
aI01
aI01
asg51
I6
sg52
g55
sg56
(lp102
(g58
I0
g24
tp103
ag61
ag63
ag65
ag66
ag67
asg68
(lp104
g70
ag52
ag71
ag52
ag71
ag72
asg73
(lp105
g70
ag52
ag71
ag52
ag71
ag72
asg75
(lp106
g70
ag52
ag71
ag52
ag71
ag72
asaa(lp107
I4
ag39
(g40
tp108
Rp109
g43
(lp110
g45
ag46
ag47
ag47
ag46
ag47
ag48
ag47
ag46
ag45
ag48
ag47
ag47
ag46
ag45
ag45
ag48
asg49
(lp111
I01
aI01
aI00
aI01
aI01
aI01
aI00
aI01
aI01
aI01
aI00
aI00
aI01
aI01
aI00
aI01
aI01
asg51
I17
sg52
g55
sg56
(lp112
(g58
I0
g24
tp113
ag61
ag63
a(g62
I0
g60
tp114
ag65
ag66
ag67
a(g58
F1.5707963267948966
g54
tp115
a(g58
F1.5707963267948966
g60
tp116
a(g62
F1.5707963267948966
g60
tp117
a(g62
F1.5707963267948966
g54
tp118
ag115
a(g58
F1.5707963267948966
g54
tp119
ag116
ag117
a(g62
F1.5707963267948966
g60
tp120
ag118
asg68
(lp121
g70
ag52
ag52
ag71
ag52
ag71
ag52
ag71
ag52
ag70
ag72
ag71
ag71
ag52
ag72
ag70
ag72
asg73
(lp122
g70
ag52
ag52
ag71
ag52
ag71
ag52
ag72
ag52
ag70
ag52
ag52
ag71
ag52
ag72
ag70
ag72
asg75
(lp123
g70
ag52
ag52
ag71
ag52
ag71
ag52
ag71
ag52
ag70
ag52
ag52
ag71
ag52
ag72
ag70
ag72
asaa(lp124
I5
ag39
(g40
tp125
Rp126
g43
(lp127
g45
ag46
ag47
ag46
ag47
ag48
asg49
(lp128
I01
aI01
aI01
aI01
aI01
aI01
asg51
I6
sg52
g55
sg56
(lp129
(g58
I0
g24
tp130
ag61
ag63
ag65
ag66
ag67
asg68
(lp131
g70
ag52
ag71
ag52
ag71
ag72
asg73
(lp132
g70
ag52
ag71
ag52
ag71
ag72
asg75
(lp133
g70
ag52
ag71
ag52
ag71
ag72
asaa(lp134
I6
ag39
(g40
tp135
Rp136
g43
(lp137
g45
ag46
ag47
ag46
ag47
ag48
ag47
ag46
ag45
ag47
ag47
ag47
ag48
asg49
(lp138
I01
aI01
aI01
aI01
aI01
aI00
aI01
aI01
aI00
aI00
aI00
aI01
aI01
asg51
I13
sg52
g55
sg56
(lp139
(g58
I0
g24
tp140
ag61
ag63
ag65
ag66
ag67
ag115
ag116
ag117
a(g62
F1.5707963267948966
g64
tp141
a(g62
F1.5707963267948966
g64
tp142
ag142
ag67
asg68
(lp143
g70
ag52
ag71
ag52
ag71
ag52
ag72
ag52
ag71
ag52
ag52
ag71
ag72
asg73
(lp144
g70
ag52
ag71
ag52
ag71
ag52
ag72
ag52
ag71
ag52
ag52
ag71
ag72
asg75
(lp145
g70
ag52
ag71
ag52
ag71
ag52
ag71
ag52
ag71
ag52
ag52
ag71
ag72
asaa(lp146
I7
ag39
(g40
tp147
Rp148
g43
(lp149
g45
ag46
ag45
ag46
ag47
ag46
ag47
ag48
asg49
(lp150
I01
aI00
aI01
aI01
aI01
aI01
aI01
aI01
asg51
I8
sg52
g55
sg56
(lp151
(g58
I0
g24
tp152
ag61
a(g58
I0
g64
tp153
ag61
ag63
ag65
ag66
ag67
asg68
(lp154
g70
ag52
ag70
ag52
ag71
ag52
ag71
ag72
asg73
(lp155
g70
ag71
ag70
ag52
ag71
ag52
ag71
ag72
asg75
(lp156
g70
ag71
ag70
ag52
ag71
ag52
ag71
ag72
asaa(lp157
I8
ag39
(g40
tp158
Rp159
g43
(lp160
g45
ag47
ag46
ag47
ag46
ag47
ag48
asg49
(lp161
I00
aI01
aI01
aI01
aI01
aI01
aI01
asg51
I7
sg52
g55
sg56
(lp162
(g58
I0
g24
tp163
a(g58
I0
g54
tp164
a(g58
I0
g60
tp165
ag63
ag65
ag66
ag67
asg68
(lp166
g71
ag71
ag52
ag71
ag52
ag71
ag72
asg73
(lp167
g71
ag72
ag52
ag71
ag52
ag71
ag72
asg75
(lp168
g71
ag71
ag52
ag71
ag52
ag71
ag72
asaa(lp169
I9
ag39
(g40
tp170
Rp171
g43
(lp172
g45
ag46
ag47
ag47
ag46
ag47
ag48
asg49
(lp173
I01
aI01
aI00
aI01
aI01
aI01
aI01
asg51
I7
sg52
g55
sg56
(lp174
(g58
I0
g24
tp175
ag61
ag63
ag114
ag65
ag66
ag67
asg68
(lp176
g70
ag52
ag52
ag71
ag52
ag71
ag72
asg73
(lp177
g70
ag52
ag52
ag71
ag52
ag71
ag72
asg75
(lp178
g70
ag52
ag52
ag71
ag52
ag71
ag72
asaatp179
Rp180
aatp181
Rp182
.