ccollections
OrderedDict
p0
((lp1
(lp2
S'combination_dict'
p3
ag0
((lp4
(lp5
S'r_to_g_config'
p6
aS'tr'
p7
aa(lp8
S'num_turns'
p9
aI2
aa(lp10
S'start_direction'
p11
acutils_ms
StartDirection
p12
(I1
tp13
Rp14
aa(lp15
S'assistance_type'
p16
acutils_ms
AssistanceType
p17
(I0
tp18
Rp19
aa(lp20
S'start_mode'
p21
aS'x'
p22
aa(lp23
S'ui_given_a_noise'
p24
aF0.7
aa(lp25
S'um_given_ui_noise'
p26
aF0.7
aa(lp27
S'entropy_threshold'
p28
aF0.9
aatp29
Rp30
aa(lp31
S'data'
p32
accollections
defaultdict
p33
(c__builtin__
list
p34
tp35
Rp36
S'a'
p37
(lp38
S'mode_r'
p39
ag39
aS'move_p'
p40
ag40
ag40
ag39
ag39
ag39
ag40
ag39
ag39
ag39
ag39
ag39
ag40
aS'mode_l'
p41
ag41
ag41
ag39
ag40
ag39
ag40
ag39
ag39
ag40
ag39
ag39
ag39
ag40
ag39
ag40
ag41
ag41
ag41
ag41
ag41
ag41
ag41
ag41
ag40
ag39
ag39
ag40
ag41
ag41
ag41
ag40
ag39
ag39
ag40
ag39
ag40
ag39
ag40
ag39
ag39
ag39
ag39
ag39
ag39
ag39
ag39
ag39
ag39
ag39
ag39
ag40
ag39
ag39
ag39
ag39
ag39
ag40
ag39
ag39
ag40
ag41
ag41
ag40
ag39
ag39
ag39
ag40
ag41
ag41
ag41
ag41
ag40
ag41
ag41
ag40
ag39
ag40
ag39
ag39
ag40
ag39
ag40
ag39
ag39
ag39
ag39
ag39
ag39
ag39
ag40
ag39
ag40
asS'assistance_match_with_ground_truth'
p42
(lp43
I00
aI01
aI00
aI00
aI00
aI00
aI00
aI01
aI01
aI00
aI00
aI00
aI00
aI01
aI00
aI00
aI00
aI00
aI01
aI01
aI01
aI00
aI00
aI01
aI01
aI00
aI00
aI01
aI00
aI01
aI01
aI00
aI00
aI00
aI00
aI00
aI00
aI00
aI01
aI01
aI00
aI01
aI00
aI00
aI00
aI01
aI00
aI00
aI00
aI01
aI00
aI00
aI01
aI00
aI00
aI00
aI00
aI00
aI00
aI00
aI00
aI00
aI00
aI00
aI00
aI01
aI00
aI00
aI00
aI00
aI00
aI01
aI00
aI00
aI01
aI00
aI00
aI01
aI00
aI00
aI00
aI01
aI00
aI00
aI00
aI00
aI01
aI00
aI00
aI01
aI01
aI01
aI01
aI00
aI01
aI00
aI01
aI00
aI00
aI00
aI00
aI00
aI00
aI00
aI01
aI00
aI01
aI01
asS'total_steps'
p44
I108
sS'sp'
p45
(lp46
(S'p0'
p47
I0
S'x'
p48
tp49
a(g47
I0
S'y'
p50
tp51
a(g47
I0
g50
tp52
ag52
a(g47
I0
g48
tp53
ag49
ag49
ag51
a(S'p1'
p54
I0
g50
tp55
ag55
a(g54
I0
g50
tp56
ag56
ag56
a(g54
I0
S't'
p57
tp58
a(g54
I0
g48
tp59
ag59
ag59
a(g47
I0
g48
tp60
ag51
ag55
ag58
a(g54
I0
g50
tp61
ag61
ag58
a(g54
F1.5707963267948966
g57
tp62
ag62
ag62
a(g54
F1.5707963267948966
g48
tp63
a(g47
F1.5707963267948966
g48
tp64
a(g47
F1.5707963267948966
g50
tp65
a(g54
F1.5707963267948966
g50
tp66
ag66
ag66
a(g54
F1.5707963267948966
g50
tp67
ag67
ag67
ag67
ag67
a(g54
F1.5707963267948966
g48
tp68
a(S'p2'
p69
F1.5707963267948966
g48
tp70
a(g69
F1.5707963267948966
g48
tp71
a(g69
F1.5707963267948966
g50
tp72
a(g54
F1.5707963267948966
g50
tp73
ag67
ag67
ag68
a(g54
F1.5707963267948966
g57
tp74
a(g54
F1.5707963267948966
g57
tp75
a(g54
I0
g57
tp76
ag62
ag76
ag61
ag58
ag61
ag56
ag56
ag56
ag56
ag56
a(g54
I0
g50
tp77
ag77
ag77
ag77
ag77
ag77
ag58
ag61
ag61
ag61
ag77
ag77
ag58
ag61
ag56
ag58
ag59
ag59
a(g54
I0
g57
tp78
ag61
ag61
ag77
ag58
ag59
ag59
ag59
ag59
ag78
ag59
ag59
ag78
ag62
ag63
ag70
ag70
ag72
a(g69
F1.5707963267948966
g48
tp79
ag72
ag79
a(g69
F1.5707963267948966
g48
tp80
ag80
ag80
ag80
ag80
ag80
ag72
ag79
ag72
a(S'p3'
p81
F1.5707963267948966
g50
tp82
asS's'
p83
(lp84
(g47
I0
g22
tp85
ag49
ag51
ag52
ag52
ag53
ag49
ag49
ag51
ag55
ag55
ag56
ag56
ag56
ag58
ag59
ag59
ag59
ag60
ag51
ag55
ag58
ag61
ag61
ag58
ag62
ag62
ag62
ag63
ag64
ag65
ag66
ag66
ag66
ag67
ag67
ag67
ag67
ag67
ag68
ag70
ag71
ag72
ag73
ag67
ag67
ag68
ag74
ag75
ag76
ag62
ag76
ag61
ag58
ag61
ag56
ag56
ag56
ag56
ag56
ag77
ag77
ag77
ag77
ag77
ag77
ag58
ag61
ag61
ag61
ag77
ag77
ag58
ag61
ag56
ag58
ag59
ag59
ag78
ag61
ag61
ag77
ag58
ag59
ag59
ag59
ag59
ag78
ag59
ag59
ag78
ag62
ag63
ag70
ag70
ag72
ag79
ag72
ag79
ag80
ag80
ag80
ag80
ag80
ag80
ag72
ag79
ag72
asS'ui'
p86
(lp87
S'hp'
p88
ag88
ag88
aS'hs'
p89
ag89
ag45
ag89
ag88
ag88
ag88
ag88
ag88
ag88
ag88
ag88
ag45
ag89
aS'ss'
p90
ag88
ag45
ag88
ag89
ag89
ag90
ag88
ag90
ag90
ag88
ag45
ag88
ag45
ag89
ag89
ag90
ag90
ag90
ag45
ag89
ag89
ag88
ag90
ag88
ag45
ag90
ag89
ag89
ag88
ag90
ag90
ag89
ag88
ag89
ag88
ag45
ag90
ag88
ag88
ag88
ag88
ag45
ag89
ag90
ag45
ag89
ag90
ag88
ag89
ag88
ag88
ag89
ag90
ag88
ag45
ag90
ag88
ag88
ag90
ag89
ag45
ag88
ag90
ag45
ag89
ag90
ag89
ag90
ag89
ag45
ag88
ag89
ag45
ag88
ag45
ag89
ag45
ag89
ag88
ag89
ag88
ag88
ag89
ag89
ag88
ag90
ag88
ag89
ag88
ag45
asS'um_before'
p91
(lp92
g90
ag88
ag90
ag90
ag89
ag90
ag89
ag88
ag45
ag89
ag90
ag90
ag90
ag88
ag88
ag45
ag45
ag90
ag88
ag45
ag88
ag89
ag89
ag88
ag45
ag89
ag89
ag88
ag90
ag88
ag45
ag45
ag88
ag90
ag45
ag90
ag90
ag90
ag89
ag45
ag90
ag88
ag90
ag90
ag45
ag89
ag89
ag45
ag90
ag45
ag90
ag89
ag88
ag89
ag90
ag89
ag89
ag89
ag89
ag45
ag89
ag89
ag45
ag89
ag45
ag88
ag89
ag89
ag89
ag45
ag45
ag88
ag89
ag90
ag88
ag88
ag88
ag89
ag89
ag89
ag45
ag88
ag88
ag45
ag45
ag88
ag89
ag88
ag45
ag89
ag45
ag88
ag45
ag89
ag88
ag89
ag88
ag89
ag45
ag89
ag89
ag89
ag89
ag45
ag88
ag89
ag88
ag45
asS'um_after'
p93
(lp94
g90
ag88
ag90
ag90
ag89
ag90
aNag88
ag45
aNag90
ag90
ag90
ag88
ag88
aNaNag90
ag88
ag45
ag88
ag89
aNag88
ag45
aNaNag88
ag90
ag88
ag45
aNaNag90
aNag90
ag90
ag90
ag89
ag45
ag90
ag88
ag90
ag90
aNag89
ag89
ag45
ag90
ag45
ag90
ag89
ag88
ag89
ag90
aNaNaNaNag45
aNaNag45
aNag45
ag88
ag89
aNaNag45
ag45
ag88
ag89
ag90
ag88
ag88
aNag89
ag89
aNag45
ag88
ag88
aNaNaNag89
ag88
aNag89
ag45
ag88
ag45
aNag88
ag89
ag88
ag89
ag45
aNaNaNaNag45
ag88
ag89
ag88
ag45
asaa(lp95
S'index'
p96
aI15190
aatp97
Rp98
.