ccollections
OrderedDict
p0
((lp1
(lp2
S'combination_dict'
p3
ag0
((lp4
(lp5
S'r_to_g_config'
p6
aS'br'
p7
aa(lp8
S'num_turns'
p9
aI3
aa(lp10
S'start_direction'
p11
acutils_ms
StartDirection
p12
(I1
tp13
Rp14
aa(lp15
S'assistance_type'
p16
acutils_ms
AssistanceType
p17
(I2
tp18
Rp19
aa(lp20
S'start_mode'
p21
aS't'
p22
aa(lp23
S'ui_given_a_noise'
p24
aF0.7
aa(lp25
S'um_given_ui_noise'
p26
aF0.5
aa(lp27
S'entropy_threshold'
p28
aF0.9
aatp29
Rp30
aa(lp31
S'data'
p32
accollections
defaultdict
p33
(c__builtin__
list
p34
tp35
Rp36
S'a'
p37
(lp38
S'mode_l'
p39
aS'move_n'
p40
ag39
ag40
ag40
ag40
aS'mode_r'
p41
ag41
ag41
ag41
ag40
ag41
aS'move_p'
p42
ag41
ag42
ag41
ag42
ag41
ag40
ag39
ag39
ag39
ag42
ag39
ag42
ag41
ag41
ag40
ag39
ag42
ag41
ag39
ag39
ag41
ag41
ag40
ag41
ag40
ag41
ag40
ag39
ag41
ag40
ag39
ag39
ag42
ag41
ag42
ag41
ag41
ag41
ag41
ag41
ag41
ag41
ag39
ag41
ag41
ag41
ag42
ag41
ag40
ag39
ag39
ag39
ag39
ag39
ag42
ag39
ag42
ag41
ag41
ag41
ag40
ag39
ag41
ag41
ag40
ag39
ag40
ag39
ag40
ag39
ag42
ag41
ag41
ag42
ag39
ag42
ag41
ag40
ag39
ag42
ag41
ag39
ag39
ag42
ag39
ag42
ag41
ag41
ag42
ag41
ag41
ag41
ag41
ag40
ag40
ag40
ag40
ag40
ag39
ag39
ag42
ag41
ag42
ag41
ag42
ag41
ag40
ag39
ag39
ag39
ag41
ag42
ag39
ag41
ag39
ag39
ag39
ag41
ag41
ag42
ag41
ag41
ag41
ag42
ag41
ag40
ag39
ag41
ag42
ag39
ag41
ag41
ag42
ag41
ag41
ag41
ag41
ag41
ag41
ag40
ag41
ag39
ag39
ag39
ag39
ag39
ag39
ag40
ag39
ag39
ag42
asS'assistance_match_with_ground_truth'
p43
(lp44
I01
aI00
aI01
aI00
aI00
aI00
aI00
aI00
aI00
aI01
aI01
aI01
aI01
aI00
aI01
aI01
aI00
aI01
aI01
aI00
aI00
aI01
aI00
aI01
aI00
aI00
aI01
aI01
aI01
aI01
aI00
aI00
aI00
aI00
aI01
aI00
aI01
aI00
aI01
aI00
aI00
aI01
aI01
aI00
aI01
aI00
aI01
aI00
aI00
aI00
aI00
aI00
aI00
aI00
aI00
aI00
aI00
aI00
aI01
aI00
aI01
aI00
aI00
aI00
aI00
aI00
aI01
aI00
aI01
aI01
aI00
aI00
aI01
aI00
aI00
aI00
aI01
aI00
aI01
aI00
aI01
aI00
aI01
aI00
aI00
aI01
aI00
aI01
aI00
aI01
aI01
aI01
aI00
aI00
aI00
aI01
aI00
aI01
aI00
aI00
aI01
aI00
aI00
aI00
aI00
aI01
aI00
aI00
aI00
aI00
aI01
aI00
aI01
aI00
aI01
aI00
aI01
aI01
aI01
aI01
aI00
aI00
aI00
aI01
aI00
aI00
aI00
aI00
aI00
aI00
aI00
aI01
aI00
aI00
aI00
aI01
aI00
aI01
aI01
aI00
aI01
aI00
aI00
aI00
aI01
aI00
aI00
aI00
aI00
aI00
aI00
aI01
aI00
aI00
aI00
aI00
aI00
aI00
aI00
aI01
aI01
aI00
aI01
aI01
asS'total_steps'
p45
I164
sS'sp'
p46
(lp47
(S'p0'
p48
I0
S'y'
p49
tp50
a(g48
I0
S't'
p51
tp52
ag50
a(g48
I0
g49
tp53
ag53
a(g48
I0
S'x'
p54
tp55
a(g48
I0
g54
tp56
a(g48
I0
g54
tp57
ag57
a(g48
I0
g49
tp58
a(S'p1'
p59
I0
g49
tp60
a(g59
I0
g51
tp61
a(g59
F1.5707963267948966
g51
tp62
a(g59
I0
g51
tp63
ag62
a(g59
F1.5707963267948966
g54
tp64
a(g48
F1.5707963267948966
g54
tp65
a(g48
F1.5707963267948966
g49
tp66
a(g59
F1.5707963267948966
g49
tp67
a(g59
F1.5707963267948966
g49
tp68
a(g59
F1.5707963267948966
g49
tp69
a(g59
F1.5707963267948966
g54
tp70
a(g59
F1.5707963267948966
g49
tp71
ag70
ag65
a(g48
F1.5707963267948966
g54
tp72
ag66
ag67
ag70
a(S'p2'
p73
F1.5707963267948966
g54
tp74
a(g73
F1.5707963267948966
g51
tp75
a(g73
F1.5707963267948966
g51
tp76
a(g73
F1.5707963267948966
g54
tp77
a(g73
F1.5707963267948966
g54
tp78
a(g73
F1.5707963267948966
g49
tp79
a(g73
F1.5707963267948966
g54
tp80
ag79
ag80
ag79
a(g73
F1.5707963267948966
g51
tp81
ag77
ag79
a(S'p3'
p82
F1.5707963267948966
g49
tp83
a(g82
F1.5707963267948966
g49
tp84
a(g82
F1.5707963267948966
g54
tp85
a(g82
F1.5707963267948966
g51
tp86
a(g82
F1.5707963267948966
g54
tp87
ag86
a(g82
F1.5707963267948966
g51
tp88
ag88
ag88
ag88
a(g82
F1.5707963267948966
g51
tp89
ag88
a(g82
F1.5707963267948966
g49
tp90
a(g82
F1.5707963267948966
g51
tp91
ag89
ag88
ag87
a(g73
F1.5707963267948966
g54
tp92
ag79
a(g59
F1.5707963267948966
g49
tp93
ag69
ag68
ag69
ag69
ag70
ag71
ag70
ag74
ag78
ag78
ag79
ag81
ag77
a(g73
F1.5707963267948966
g54
tp94
ag79
ag81
a(g73
F1.5707963267948966
g49
tp95
ag81
ag95
ag93
ag70
a(g59
F1.5707963267948966
g51
tp96
a(g59
F1.5707963267948966
g51
tp97
ag64
ag71
ag70
ag65
ag66
ag67
ag70
ag96
a(g59
F1.5707963267948966
g49
tp98
ag68
ag70
ag71
ag70
ag96
ag97
ag64
ag65
ag72
a(g48
F1.5707963267948966
g54
tp99
ag72
ag66
a(g48
F1.5707963267948966
g49
tp100
ag100
ag100
ag100
ag67
ag69
ag70
ag96
ag64
ag96
ag64
ag74
ag79
ag83
ag84
a(g82
F1.5707963267948966
g49
tp101
ag91
ag87
a(g82
F1.5707963267948966
g49
tp102
ag91
ag90
ag101
ag101
ag91
ag88
ag87
ag86
ag89
ag88
ag87
ag92
ag79
ag83
ag91
ag87
ag102
ag91
ag89
ag87
ag92
ag94
ag94
ag78
ag78
ag78
ag79
ag80
ag75
ag76
ag76
a(g73
F1.5707963267948966
g51
tp103
ag76
ag103
ag95
ag83
ag101
ag85
a(S'p4'
p104
F1.5707963267948966
g54
tp105
asS's'
p106
(lp107
(g48
I0
g22
tp108
ag50
ag52
ag50
ag53
ag53
ag55
ag56
ag57
ag57
ag58
ag60
ag61
ag62
ag63
ag62
ag64
ag65
ag66
ag67
ag68
ag69
ag70
ag71
ag70
ag65
ag72
ag66
ag67
ag70
ag74
ag75
ag76
ag77
ag78
ag79
ag80
ag79
ag80
ag79
ag81
ag77
ag79
ag83
ag84
ag85
ag86
ag87
ag86
ag88
ag88
ag88
ag88
ag89
ag88
ag90
ag91
ag89
ag88
ag87
ag92
ag79
ag93
ag69
ag68
ag69
ag69
ag70
ag71
ag70
ag74
ag78
ag78
ag79
ag81
ag77
ag94
ag79
ag81
ag95
ag81
ag95
ag93
ag70
ag96
ag97
ag64
ag71
ag70
ag65
ag66
ag67
ag70
ag96
ag98
ag68
ag70
ag71
ag70
ag96
ag97
ag64
ag65
ag72
ag99
ag72
ag66
ag100
ag100
ag100
ag100
ag67
ag69
ag70
ag96
ag64
ag96
ag64
ag74
ag79
ag83
ag84
ag101
ag91
ag87
ag102
ag91
ag90
ag101
ag101
ag91
ag88
ag87
ag86
ag89
ag88
ag87
ag92
ag79
ag83
ag91
ag87
ag102
ag91
ag89
ag87
ag92
ag94
ag94
ag78
ag78
ag78
ag79
ag80
ag75
ag76
ag76
ag103
ag76
ag103
ag95
ag83
ag101
ag85
asS'ui'
p109
(lp110
g46
aS'ss'
p111
ag46
aS'hs'
p112
ag46
ag46
ag46
ag111
ag111
aS'hp'
p113
ag111
ag111
ag46
ag111
ag46
ag113
ag112
ag113
ag111
ag111
ag112
ag46
ag46
ag112
ag111
ag46
ag113
ag113
ag112
ag46
ag46
ag46
ag46
ag46
ag113
ag111
ag111
ag112
ag113
ag111
ag112
ag111
ag46
ag112
ag112
ag112
ag113
ag46
ag46
ag46
ag46
ag46
ag111
ag46
ag113
ag113
ag111
ag46
ag113
ag112
ag113
ag111
ag111
ag113
ag112
ag112
ag46
ag111
ag112
ag46
ag111
ag111
ag111
ag113
ag46
ag111
ag111
ag111
ag112
ag113
ag112
ag112
ag46
ag112
ag46
ag113
ag111
ag112
ag112
ag113
ag112
ag112
ag112
ag46
ag111
ag46
ag111
ag112
ag112
ag111
ag113
ag46
ag111
ag113
ag46
ag111
ag46
ag46
ag112
ag46
ag111
ag112
ag112
ag111
ag46
ag46
ag113
ag111
ag113
ag111
ag112
ag112
ag113
ag113
ag46
ag113
ag112
ag112
ag111
ag112
ag46
ag113
ag46
ag111
ag111
ag113
ag112
ag111
ag111
ag111
ag113
ag113
ag113
ag111
ag46
ag112
ag111
ag111
ag46
ag46
ag46
ag111
ag112
ag46
ag112
ag46
ag112
ag46
ag112
ag112
ag111
ag46
ag112
ag111
asS'um_before'
p114
(lp115
g112
ag113
ag112
ag46
ag46
ag112
ag46
ag111
ag111
ag113
ag111
ag113
ag46
ag111
ag46
ag113
ag111
ag113
ag111
ag46
ag111
ag112
ag113
ag112
ag111
ag46
ag113
ag111
ag112
ag46
ag112
ag46
ag113
ag46
ag113
ag112
ag113
ag112
ag113
ag113
ag113
ag113
ag111
ag111
ag112
ag112
ag113
ag112
ag46
ag46
ag46
ag46
ag111
ag46
ag112
ag113
ag111
ag46
ag113
ag111
ag113
ag46
ag111
ag46
ag111
ag111
ag112
ag113
ag112
ag46
ag46
ag46
ag113
ag113
ag113
ag111
ag113
ag113
ag112
ag113
ag112
ag46
ag112
ag112
ag46
ag113
ag113
ag112
ag111
ag113
ag111
ag112
ag112
ag112
ag46
ag112
ag113
ag112
ag112
ag46
ag113
ag111
ag46
ag111
ag46
ag113
ag46
ag46
ag46
ag46
ag111
ag111
ag112
ag112
ag113
ag112
ag113
ag46
ag113
ag111
ag111
ag46
ag113
ag113
ag113
ag113
ag112
ag46
ag46
ag113
ag46
ag113
ag112
ag111
ag46
ag113
ag111
ag113
ag111
ag113
ag113
ag113
ag113
ag111
ag113
ag111
ag111
ag111
ag46
ag46
ag46
ag113
ag112
ag112
ag46
ag46
ag111
ag46
ag111
ag112
ag111
ag46
ag112
ag46
asS'um_after'
p116
(lp117
g112
ag113
ag112
ag46
ag46
ag112
ag46
ag111
ag111
ag113
ag111
ag113
ag46
ag111
ag46
ag113
ag111
ag113
ag111
ag46
ag111
ag112
ag113
ag112
ag111
ag46
ag113
ag111
ag112
ag46
ag112
ag46
ag113
ag46
ag113
ag112
ag113
ag112
ag113
ag113
ag113
ag113
ag111
ag111
ag112
ag112
ag113
ag112
ag46
ag46
ag46
ag46
ag111
ag46
ag112
ag113
ag111
ag46
ag113
ag111
ag113
ag46
ag111
ag46
ag111
ag111
ag112
ag113
ag112
ag46
ag46
ag46
ag113
ag113
ag113
ag111
ag113
ag113
ag112
ag113
ag112
ag46
ag112
ag112
ag46
ag113
ag113
ag112
ag111
ag113
ag111
ag112
ag112
ag112
ag46
ag112
ag113
ag112
ag112
ag46
ag113
ag111
ag46
ag111
ag46
ag113
ag46
ag46
ag46
ag46
ag111
ag111
ag112
ag112
ag113
ag112
ag113
ag46
ag113
ag111
ag111
ag46
ag113
ag113
ag113
ag113
ag112
ag46
ag46
ag113
ag46
ag113
ag112
ag111
ag46
ag113
ag111
ag113
ag111
ag113
ag113
ag113
ag113
ag111
ag113
ag111
ag111
ag111
ag46
ag46
ag46
ag113
ag112
ag112
ag46
ag46
ag111
ag46
ag111
ag112
ag111
ag46
ag112
ag46
asaa(lp118
S'index'
p119
aI115141
aatp120
Rp121
.