ccollections
OrderedDict
p0
((lp1
(lp2
S'index'
p3
aI4004
aa(lp4
S'combination_dict'
p5
ag0
((lp6
(lp7
S'r_to_g_config'
p8
aS'tl'
p9
aa(lp10
S'num_turns'
p11
aI1
aa(lp12
S'start_direction'
p13
acutils_ms
StartDirection
p14
(I3
tp15
Rp16
aa(lp17
S'assistance_type'
p18
acutils_ms
AssistanceType
p19
(I0
tp20
Rp21
aa(lp22
S'start_mode'
p23
aS'y'
p24
aa(lp25
S'ui_given_a_noise'
p26
aF0.1
aa(lp27
S'um_given_ui_noise'
p28
aF0.1
aa(lp29
S'entropy_threshold'
p30
aF0.7
aa(lp31
S'is_assistance'
p32
aI01
aatp33
Rp34
aa(lp35
S'trials'
p36
ag0
((lp37
(lp38
I0
accollections
defaultdict
p39
(c__builtin__
list
p40
tp41
Rp42
S'a'
p43
(lp44
S'mode_l'
p45
aS'move_n'
p46
ag46
ag46
ag45
aS'move_p'
p47
ag45
ag45
ag47
ag47
asS'assistance_match_with_ground_truth'
p48
(lp49
I01
aI00
aI00
aI01
aI01
aI01
aI00
aI01
aI00
aI01
asS'total_steps'
p50
I10
sS'sp'
p51
(S'p2'
p52
F1.5707963267948966
S'y'
p53
tp54
sS's'
p55
(lp56
(S'p0'
p57
I0
g24
tp58
a(g57
I0
S'x'
p59
tp60
a(g57
I0
g59
tp61
ag61
a(S'p1'
p62
I0
g59
tp63
a(g62
I0
S't'
p64
tp65
a(g62
F1.5707963267948966
g64
tp66
ag66
a(g62
F1.5707963267948966
g53
tp67
ag67
asS'ui'
p68
(lp69
S'hs'
p70
ag51
ag51
aS'ss'
p71
ag70
ag51
ag70
ag70
ag70
ag51
asS'um_before'
p72
(lp73
g70
ag51
ag51
ag71
ag70
ag51
ag51
ag70
ag70
ag51
asS'um_after'
p74
(lp75
g70
ag51
ag51
ag71
ag70
ag51
aNag70
aNag51
asaa(lp76
I1
ag39
(g40
tp77
Rp78
g43
(lp79
g45
ag46
ag45
ag47
ag45
ag47
asg48
(lp80
I01
aI01
aI01
aI01
aI01
aI01
asg50
I6
sg51
g54
sg55
(lp81
(g57
I0
g24
tp82
ag60
ag63
ag65
ag66
ag67
asg68
(lp83
g70
ag71
ag70
ag51
ag70
ag51
asg72
(lp84
g70
ag71
ag70
ag51
ag70
ag51
asg74
(lp85
g70
ag71
ag70
ag51
ag70
ag51
asaa(lp86
I2
ag39
(g40
tp87
Rp88
g43
(lp89
g45
ag46
ag45
ag47
ag45
ag45
ag47
ag47
asg48
(lp90
I01
aI01
aI01
aI01
aI00
aI01
aI00
aI01
asg50
I8
sg51
g54
sg55
(lp91
(g57
I0
g24
tp92
ag60
ag63
ag65
ag66
ag66
ag67
ag67
asg68
(lp93
g70
ag71
ag70
ag51
ag70
ag70
ag70
ag51
asg72
(lp94
g70
ag71
ag70
ag51
ag51
ag70
ag71
ag51
asg74
(lp95
g70
ag71
ag70
ag51
aNag70
aNag51
asaa(lp96
I3
ag39
(g40
tp97
Rp98
g43
(lp99
g45
ag46
ag45
ag47
ag45
ag47
ag45
ag45
ag45
ag47
ag47
asg48
(lp100
I01
aI01
aI01
aI01
aI01
aI00
aI00
aI00
aI01
aI00
aI01
asg50
I11
sg51
g54
sg55
(lp101
(g57
I0
g24
tp102
ag60
ag63
ag65
ag66
ag67
a(g62
F1.5707963267948966
g64
tp103
ag103
ag103
ag67
ag67
asg68
(lp104
g70
ag71
ag70
ag51
ag70
aS'hp'
p105
ag70
ag70
ag70
ag71
ag51
asg72
(lp106
g70
ag71
ag70
ag51
ag70
ag105
ag51
ag71
ag70
ag71
ag51
asg74
(lp107
g70
ag71
ag70
ag51
ag70
ag105
aNaNag70
aNag51
asaa(lp108
I4
ag39
(g40
tp109
Rp110
g43
(lp111
g45
ag46
aS'mode_r'
p112
ag46
ag45
ag47
ag45
ag47
asg48
(lp113
I01
aI00
aI01
aI01
aI01
aI01
aI01
aI01
asg50
I8
sg51
g54
sg55
(lp114
(g57
I0
g24
tp115
ag60
a(g57
I0
g64
tp116
a(g57
I0
g59
tp117
ag63
ag65
ag66
ag67
asg68
(lp118
g70
ag70
ag105
ag71
ag70
ag51
ag70
ag51
asg72
(lp119
g70
ag70
ag105
ag71
ag70
ag51
ag70
ag51
asg74
(lp120
g70
ag70
ag105
ag71
ag70
ag51
ag70
ag51
asaa(lp121
I5
ag39
(g40
tp122
Rp123
g43
(lp124
g45
ag46
ag45
ag45
ag47
ag45
ag45
ag47
ag47
asg48
(lp125
I01
aI01
aI00
aI01
aI01
aI00
aI01
aI00
aI01
asg50
I9
sg51
g54
sg55
(lp126
(g57
I0
g24
tp127
ag60
ag63
ag63
ag65
ag66
ag66
ag67
ag67
asg68
(lp128
g70
ag71
ag70
ag70
ag51
ag70
ag70
ag70
ag51
asg72
(lp129
g70
ag71
ag105
ag70
ag51
ag51
ag70
ag70
ag51
asg74
(lp130
g70
ag71
aNag70
ag51
aNag70
aNag51
asaa(lp131
I6
ag39
(g40
tp132
Rp133
g43
(lp134
g45
ag46
ag45
ag45
ag47
ag47
ag45
ag47
asg48
(lp135
I01
aI01
aI00
aI01
aI00
aI01
aI01
aI01
asg50
I8
sg51
g54
sg55
(lp136
(g57
I0
g24
tp137
ag60
ag63
ag63
ag65
ag65
ag66
ag67
asg68
(lp138
g51
ag71
ag70
ag70
ag70
ag51
ag70
ag51
asg72
(lp139
g70
ag71
ag51
ag70
ag71
ag51
ag70
ag51
asg74
(lp140
g70
ag71
aNag70
aNag51
ag70
ag51
asaa(lp141
I7
ag39
(g40
tp142
Rp143
g43
(lp144
g45
ag46
ag45
ag47
ag45
ag47
asg48
(lp145
I01
aI01
aI01
aI01
aI01
aI01
asg50
I6
sg51
g54
sg55
(lp146
(g57
I0
g24
tp147
ag60
ag63
ag65
ag66
ag67
asg68
(lp148
g70
ag71
ag70
ag51
ag70
ag51
asg72
(lp149
g70
ag71
ag70
ag51
ag70
ag51
asg74
(lp150
g70
ag71
ag70
ag51
ag70
ag51
asaa(lp151
I8
ag39
(g40
tp152
Rp153
g43
(lp154
g45
ag46
ag45
ag47
ag45
ag47
ag45
ag47
asg48
(lp155
I01
aI01
aI01
aI01
aI01
aI00
aI01
aI01
asg50
I8
sg51
g54
sg55
(lp156
(g57
I0
g24
tp157
ag60
ag63
ag65
ag66
ag67
ag103
ag67
asg68
(lp158
g70
ag71
ag70
ag51
ag70
ag105
ag70
ag51
asg72
(lp159
g70
ag71
ag70
ag51
ag70
ag105
ag70
ag51
asg74
(lp160
g70
ag71
ag70
ag51
ag70
ag105
ag70
ag51
asaa(lp161
I9
ag39
(g40
tp162
Rp163
g43
(lp164
g45
ag46
ag45
ag47
ag45
ag47
asg48
(lp165
I01
aI01
aI01
aI01
aI01
aI01
asg50
I6
sg51
g54
sg55
(lp166
(g57
I0
g24
tp167
ag60
ag63
ag65
ag66
ag67
asg68
(lp168
g70
ag71
ag70
ag51
ag70
ag51
asg72
(lp169
g70
ag71
ag70
ag51
ag70
ag51
asg74
(lp170
g70
ag71
ag70
ag51
ag70
ag51
asaatp171
Rp172
aatp173
Rp174
.