ccollections
OrderedDict
p0
((lp1
(lp2
S'index'
p3
aI4737
aa(lp4
S'combination_dict'
p5
ag0
((lp6
(lp7
S'r_to_g_config'
p8
aS'tl'
p9
aa(lp10
S'num_turns'
p11
aI1
aa(lp12
S'start_direction'
p13
acutils_ms
StartDirection
p14
(I1
tp15
Rp16
aa(lp17
S'assistance_type'
p18
acutils_ms
AssistanceType
p19
(I0
tp20
Rp21
aa(lp22
S'start_mode'
p23
aS't'
p24
aa(lp25
S'ui_given_a_noise'
p26
aF0.5
aa(lp27
S'um_given_ui_noise'
p28
aF0.3
aa(lp29
S'entropy_threshold'
p30
aF0.8
aa(lp31
S'is_assistance'
p32
aI00
aatp33
Rp34
aa(lp35
S'trials'
p36
ag0
((lp37
(lp38
I0
accollections
defaultdict
p39
(c__builtin__
list
p40
tp41
Rp42
S'a'
p43
(lp44
S'mode_l'
p45
ag45
aS'mode_r'
p46
ag45
ag46
ag45
aS'move_p'
p47
ag46
ag45
ag47
ag46
aS'move_n'
p48
ag45
ag45
ag46
ag46
ag48
ag45
ag45
ag45
ag48
asS'assistance_match_with_ground_truth'
p49
(lp50
I00
aI00
aI00
aI00
aI00
aI01
aI01
aI00
aI01
aI01
aI01
aI00
aI00
aI00
aI00
aI01
aI00
aI00
aI00
aI01
aI01
asS'total_steps'
p51
I21
sS'sp'
p52
(S'p2'
p53
F1.5707963267948966
S'x'
p54
tp55
sS's'
p56
(lp57
(S'p0'
p58
I0
g24
tp59
a(g58
I0
S't'
p60
tp61
a(g58
I0
g54
tp62
a(g58
I0
g60
tp63
ag62
ag63
a(g58
I0
S'y'
p64
tp65
a(S'p1'
p66
I0
g64
tp67
a(g66
I0
g54
tp68
a(g66
I0
g60
tp69
a(g66
F1.5707963267948966
g60
tp70
a(g66
F1.5707963267948966
g54
tp71
a(g66
F1.5707963267948966
g64
tp72
a(g66
F1.5707963267948966
g64
tp73
a(g66
F1.5707963267948966
g60
tp74
a(g66
F1.5707963267948966
g60
tp75
ag71
ag72
a(g66
F1.5707963267948966
g64
tp76
ag73
a(g66
F1.5707963267948966
g54
tp77
asS'ui'
p78
(lp79
g52
aS'hp'
p80
ag80
ag80
ag80
aS'hs'
p81
ag52
ag80
ag81
ag52
ag80
ag80
ag52
ag80
ag80
ag80
ag80
ag81
ag52
ag81
aS'ss'
p82
asS'um_before'
p83
(lp84
g52
ag80
ag81
ag80
ag81
ag81
ag52
ag81
ag81
ag52
ag80
ag80
ag52
ag80
ag52
ag80
ag80
ag82
ag52
ag81
ag82
asS'um_after'
p85
(lp86
g52
ag80
ag81
ag80
ag81
ag81
ag52
ag81
ag81
ag52
ag80
ag80
ag52
ag80
ag52
ag80
ag80
ag82
ag52
ag81
ag82
asaa(lp87
I1
ag39
(g40
tp88
Rp89
g43
(lp90
g45
ag47
ag46
ag45
ag46
ag46
ag47
ag47
ag46
ag47
ag45
ag46
ag45
asg49
(lp91
I01
aI01
aI00
aI00
aI00
aI01
aI00
aI01
aI01
aI00
aI00
aI00
aI00
asg51
I13
sg52
(g53
I0
g54
tp92
sg56
(lp93
(g58
I0
g24
tp94
ag65
ag67
ag68
a(g58
I0
g54
tp95
a(g58
I0
g54
tp96
a(g58
I0
g64
tp97
a(g58
I0
g64
tp98
ag67
a(g66
I0
g60
tp99
a(g66
I0
g54
tp100
a(g66
I0
g64
tp101
ag68
asg78
(lp102
g81
ag52
ag80
ag81
ag80
ag80
ag81
ag52
ag80
ag52
ag80
ag80
ag52
asg83
(lp103
g81
ag52
ag81
ag52
ag52
ag80
ag82
ag52
ag80
ag80
ag80
ag81
ag82
asg85
(lp104
g81
ag52
ag81
ag52
ag52
ag80
ag82
ag52
ag80
ag80
ag80
ag81
ag82
asaa(lp105
I2
ag39
(g40
tp106
Rp107
g43
(lp108
g45
ag45
ag45
ag47
ag46
ag46
ag47
ag46
ag48
ag45
ag48
ag46
ag45
ag48
ag45
ag48
ag45
ag45
ag48
ag46
ag45
ag46
ag48
ag45
ag48
ag46
ag48
asg49
(lp109
I00
aI00
aI01
aI01
aI00
aI01
aI01
aI01
aI00
aI01
aI00
aI00
aI01
aI00
aI01
aI00
aI00
aI01
aI00
aI00
aI00
aI01
aI00
aI01
aI00
aI01
aI01
asg51
I27
sg52
g55
sg56
(lp110
(g58
I0
g24
tp111
ag61
a(g58
I0
g60
tp112
ag65
ag67
a(g66
I0
g64
tp113
ag99
ag70
ag71
ag72
ag77
a(g66
F1.5707963267948966
g60
tp114
a(g66
F1.5707963267948966
g64
tp115
ag77
ag72
ag77
ag72
ag73
ag77
ag114
ag115
ag74
ag71
ag72
ag77
ag114
ag71
asg78
(lp116
g52
ag81
ag81
ag52
ag82
ag80
ag52
ag80
ag80
ag81
ag81
ag80
ag81
ag80
ag81
ag80
ag81
ag81
ag81
ag80
ag81
ag80
ag82
ag81
ag81
ag80
ag82
asg83
(lp117
g52
ag82
ag81
ag52
ag82
ag80
ag52
ag80
ag80
ag81
ag81
ag81
ag81
ag80
ag81
ag80
ag52
ag81
ag81
ag81
ag80
ag80
ag80
ag81
ag81
ag80
ag82
asg85
(lp118
g52
ag82
ag81
ag52
ag82
ag80
ag52
ag80
ag80
ag81
ag81
ag81
ag81
ag80
ag81
ag80
ag52
ag81
ag81
ag81
ag80
ag80
ag80
ag81
ag81
ag80
ag82
asaa(lp119
I3
ag39
(g40
tp120
Rp121
g43
(lp122
g45
ag45
ag47
ag45
ag47
ag46
ag46
ag47
ag46
ag48
asg49
(lp123
I00
aI01
aI00
aI01
aI01
aI00
aI01
aI01
aI01
aI01
asg51
I10
sg52
g55
sg56
(lp124
(g58
I0
g24
tp125
ag61
ag65
a(g58
I0
g60
tp126
ag65
ag67
a(g66
I0
g64
tp127
ag99
ag70
ag71
asg78
(lp128
g52
ag81
ag80
ag81
ag52
ag52
ag80
ag52
ag80
ag82
asg83
(lp129
g52
ag81
ag80
ag81
ag52
ag52
ag80
ag52
ag80
ag82
asg85
(lp130
g52
ag81
ag80
ag81
ag52
ag52
ag80
ag52
ag80
ag82
asaa(lp131
I4
ag39
(g40
tp132
Rp133
g43
(lp134
g45
ag46
ag47
ag47
ag45
ag45
ag47
ag46
ag45
ag45
ag47
ag45
ag45
ag45
ag45
ag46
ag47
ag47
ag47
ag46
ag47
ag46
ag48
asg49
(lp135
I00
aI01
aI00
aI00
aI00
aI01
aI00
aI00
aI00
aI01
aI00
aI00
aI00
aI00
aI00
aI01
aI00
aI00
aI01
aI01
aI01
aI01
aI01
asg51
I23
sg52
g55
sg56
(lp136
(g58
I0
g24
tp137
ag62
ag97
ag98
ag126
ag61
ag65
a(g58
I0
g54
tp138
ag63
ag61
ag65
ag126
ag61
ag61
ag61
ag62
ag97
ag98
ag98
ag67
ag99
ag70
ag71
asg78
(lp139
g80
ag80
ag82
ag80
ag81
ag81
ag81
ag80
ag81
ag81
ag52
ag52
ag52
ag81
ag80
ag80
ag82
ag81
ag81
ag80
ag52
ag80
ag81
asg83
(lp140
g80
ag80
ag82
ag80
ag52
ag81
ag81
ag81
ag52
ag81
ag80
ag52
ag52
ag52
ag80
ag80
ag82
ag82
ag52
ag80
ag52
ag80
ag82
asg85
(lp141
g80
ag80
ag82
ag80
ag52
ag81
ag81
ag81
ag52
ag81
ag80
ag52
ag52
ag52
ag80
ag80
ag82
ag82
ag52
ag80
ag52
ag80
ag82
asaa(lp142
I5
ag39
(g40
tp143
Rp144
g43
(lp145
g45
ag45
ag45
ag45
ag46
ag47
ag47
ag46
ag47
ag46
ag46
ag47
ag46
ag45
ag47
ag46
ag48
ag46
ag45
ag48
ag46
ag47
ag45
ag48
asg49
(lp146
I00
aI00
aI00
aI00
aI01
aI00
aI01
aI01
aI01
aI00
aI00
aI00
aI00
aI01
aI01
aI01
aI00
aI00
aI01
aI00
aI01
aI01
aI01
aI01
asg51
I24
sg52
g55
sg56
(lp147
(g58
I0
g24
tp148
ag112
ag61
ag61
ag62
ag97
ag98
ag67
ag99
ag70
ag75
a(g66
I0
g60
tp149
a(g66
I0
g64
tp150
ag68
ag69
ag70
ag71
ag114
ag115
ag77
a(g58
F1.5707963267948966
g54
tp151
a(g58
F1.5707963267948966
g64
tp152
a(g66
F1.5707963267948966
g64
tp153
ag77
asg78
(lp154
g81
ag52
ag52
ag52
ag80
ag82
ag52
ag80
ag52
ag80
ag80
ag81
ag80
ag81
ag52
ag80
ag81
ag80
ag81
ag82
ag80
ag52
ag81
ag82
asg83
(lp155
g82
ag52
ag52
ag80
ag80
ag82
ag52
ag80
ag52
ag52
ag82
ag81
ag81
ag81
ag52
ag80
ag81
ag81
ag81
ag52
ag80
ag52
ag81
ag82
asg85
(lp156
g82
ag52
ag52
ag80
ag80
ag82
ag52
ag80
ag52
ag52
ag82
ag81
ag81
ag81
ag52
ag80
ag81
ag81
ag81
ag52
ag80
ag52
ag81
ag82
asaa(lp157
I6
ag39
(g40
tp158
Rp159
g43
(lp160
g45
ag45
ag46
ag47
ag46
ag47
ag46
ag47
ag46
ag45
ag48
ag45
ag48
asg49
(lp161
I00
aI00
aI01
aI00
aI01
aI01
aI01
aI01
aI00
aI01
aI00
aI01
aI01
asg51
I13
sg52
g55
sg56
(lp162
(g58
I0
g24
tp163
ag61
ag62
ag97
ag138
ag97
ag67
ag99
ag70
ag115
ag77
ag72
ag77
asg78
(lp164
g52
ag80
ag80
ag81
ag52
ag52
ag52
ag80
ag80
ag81
ag52
ag80
ag82
asg83
(lp165
g52
ag80
ag80
ag81
ag80
ag52
ag80
ag52
ag81
ag81
ag80
ag81
ag82
asg85
(lp166
g52
ag80
ag80
ag81
ag80
ag52
ag80
ag52
ag81
ag81
ag80
ag81
ag82
asaa(lp167
I7
ag39
(g40
tp168
Rp169
g43
(lp170
g45
ag47
ag45
ag47
ag46
ag47
ag46
ag48
asg49
(lp171
I01
aI00
aI01
aI01
aI01
aI01
aI01
aI01
asg51
I8
sg52
g55
sg56
(lp172
(g58
I0
g24
tp173
ag65
ag126
ag65
ag67
ag99
ag70
ag71
asg78
(lp174
g81
ag80
ag81
ag52
ag80
ag52
ag80
ag82
asg83
(lp175
g81
ag80
ag81
ag52
ag80
ag52
ag80
ag82
asg85
(lp176
g81
ag80
ag81
ag52
ag80
ag52
ag80
ag82
asaa(lp177
I8
ag39
(g40
tp178
Rp179
g43
(lp180
g45
ag46
ag47
ag45
ag45
ag46
ag46
ag46
ag46
ag47
ag47
ag45
ag47
ag47
ag45
ag47
ag46
ag47
ag46
ag48
ag46
ag47
ag45
ag48
ag46
ag45
ag45
ag45
ag47
ag45
ag46
ag48
asg49
(lp181
I00
aI01
aI00
aI00
aI00
aI00
aI00
aI00
aI01
aI00
aI00
aI01
aI00
aI00
aI01
aI01
aI01
aI01
aI01
aI00
aI01
aI01
aI01
aI00
aI00
aI00
aI00
aI01
aI01
aI00
aI01
aI01
asg51
I32
sg52
g55
sg56
(lp182
(g58
I0
g24
tp183
ag62
ag97
ag126
ag61
ag62
ag96
ag96
ag96
ag97
ag98
ag126
ag65
ag98
ag126
ag65
ag67
ag99
ag70
ag71
ag151
ag152
ag153
ag77
ag151
a(g58
F1.5707963267948966
g60
tp184
a(g58
F1.5707963267948966
g60
tp185
ag185
a(g58
F1.5707963267948966
g64
tp186
ag153
ag74
ag71
asg78
(lp187
g52
ag80
ag80
ag52
ag80
ag52
ag52
ag80
ag80
ag81
ag80
ag81
ag82
ag80
ag81
ag80
ag80
ag52
ag80
ag82
ag80
ag81
ag81
ag82
ag80
ag81
ag52
ag80
ag52
ag80
ag80
ag82
asg83
(lp188
g80
ag80
ag80
ag52
ag80
ag52
ag52
ag52
ag80
ag82
ag80
ag81
ag82
ag80
ag81
ag52
ag80
ag52
ag80
ag52
ag80
ag52
ag81
ag52
ag81
ag52
ag52
ag81
ag52
ag80
ag80
ag82
asg85
(lp189
g80
ag80
ag80
ag52
ag80
ag52
ag52
ag52
ag80
ag82
ag80
ag81
ag82
ag80
ag81
ag52
ag80
ag52
ag80
ag52
ag80
ag52
ag81
ag52
ag81
ag52
ag52
ag81
ag52
ag80
ag80
ag82
asaa(lp190
I9
ag39
(g40
tp191
Rp192
g43
(lp193
g45
ag45
ag45
ag47
ag46
ag47
ag46
ag45
ag47
ag46
ag45
ag47
ag46
ag48
asg49
(lp194
I00
aI00
aI01
aI01
aI01
aI00
aI00
aI01
aI00
aI00
aI01
aI01
aI01
aI01
asg51
I14
sg52
g55
sg56
(lp195
(g58
I0
g24
tp196
ag61
ag61
ag65
ag67
ag99
ag150
ag68
ag69
ag150
ag68
ag69
ag70
ag71
asg78
(lp197
g52
ag52
ag81
ag52
ag80
ag81
ag80
ag81
ag81
ag80
ag81
ag52
ag80
ag82
asg83
(lp198
g52
ag52
ag81
ag52
ag80
ag81
ag81
ag81
ag81
ag81
ag81
ag52
ag80
ag82
asg85
(lp199
g52
ag52
ag81
ag52
ag80
ag81
ag81
ag81
ag81
ag81
ag81
ag52
ag80
ag82
asaatp200
Rp201
aatp202
Rp203
.