ccollections
OrderedDict
p0
((lp1
(lp2
S'combination_dict'
p3
ag0
((lp4
(lp5
S'r_to_g_config'
p6
aS'tr'
p7
aa(lp8
S'num_turns'
p9
aI1
aa(lp10
S'start_direction'
p11
acutils_ms
StartDirection
p12
(I1
tp13
Rp14
aa(lp15
S'assistance_type'
p16
acutils_ms
AssistanceType
p17
(I2
tp18
Rp19
aa(lp20
S'start_mode'
p21
aS'x'
p22
aa(lp23
S'ui_given_a_noise'
p24
aF0.3
aa(lp25
S'um_given_ui_noise'
p26
aF0.5
aa(lp27
S'entropy_threshold'
p28
aF0.9
aatp29
Rp30
aa(lp31
S'data'
p32
accollections
defaultdict
p33
(c__builtin__
list
p34
tp35
Rp36
S'a'
p37
(lp38
S'mode_r'
p39
aS'mode_l'
p40
aS'move_p'
p41
ag39
ag39
ag41
ag39
ag40
ag41
ag41
ag41
ag39
ag41
ag39
ag40
ag40
ag39
ag41
asS'assistance_match_with_ground_truth'
p42
(lp43
I00
aI01
aI00
aI00
aI01
aI01
aI00
aI01
aI00
aI00
aI01
aI00
aI01
aI00
aI00
aI00
aI01
aI01
asS'total_steps'
p44
I18
sS'sp'
p45
(lp46
(S'p0'
p47
I0
S't'
p48
tp49
a(g47
I0
S'y'
p50
tp51
a(g47
I0
S'x'
p52
tp53
a(g47
I0
g52
tp54
a(g47
I0
g50
tp55
a(S'p1'
p56
I0
g50
tp57
a(g56
I0
g52
tp58
a(g56
I0
g48
tp59
a(g56
I0
g48
tp60
ag60
a(g56
F1.5707963267948966
g48
tp61
a(g56
I0
g48
tp62
ag61
a(g56
F1.5707963267948966
g50
tp63
a(g56
F1.5707963267948966
g50
tp64
a(g56
F1.5707963267948966
g48
tp65
a(g56
F1.5707963267948966
g52
tp66
a(S'p2'
p67
F1.5707963267948966
g52
tp68
asS's'
p69
(lp70
(g47
I0
g22
tp71
ag49
ag51
ag53
ag54
ag55
ag57
ag58
ag59
ag60
ag60
ag61
ag62
ag61
ag63
ag64
ag65
ag66
asS'ui'
p72
(lp73
S'hp'
p74
aS'hs'
p75
ag45
ag74
ag74
ag45
ag74
ag75
ag45
ag45
ag45
ag74
ag45
ag75
ag45
ag45
ag74
ag45
asS'um_before'
p76
(lp77
g75
ag75
ag75
aS'ss'
p78
ag74
ag45
ag75
ag75
ag78
ag78
ag45
ag78
ag45
ag75
ag78
ag74
ag74
ag45
asS'um_after'
p79
(lp80
g75
ag75
ag75
ag78
ag74
ag45
ag75
ag75
ag78
ag78
ag45
ag78
ag45
ag75
ag78
ag74
ag74
ag45
asaa(lp81
S'index'
p82
aI8344
aatp83
Rp84
.