ccollections
OrderedDict
p0
((lp1
(lp2
S'combination_dict'
p3
ag0
((lp4
(lp5
S'r_to_g_config'
p6
aS'tl'
p7
aa(lp8
S'num_turns'
p9
aI3
aa(lp10
S'start_direction'
p11
acutils_ms
StartDirection
p12
(I1
tp13
Rp14
aa(lp15
S'assistance_type'
p16
acutils_ms
AssistanceType
p17
(I0
tp18
Rp19
aa(lp20
S'start_mode'
p21
aS'x'
p22
aa(lp23
S'ui_given_a_noise'
p24
aF0.7
aa(lp25
S'um_given_ui_noise'
p26
aF0.3
aa(lp27
S'entropy_threshold'
p28
aF0.6
aatp29
Rp30
aa(lp31
S'data'
p32
accollections
defaultdict
p33
(c__builtin__
list
p34
tp35
Rp36
S'a'
p37
(lp38
S'mode_r'
p39
ag39
aS'move_p'
p40
ag39
ag39
ag40
aS'mode_l'
p41
ag41
aS'move_n'
p42
ag39
ag39
ag39
ag39
ag39
ag39
ag42
ag41
ag39
ag41
ag41
ag41
ag42
ag39
ag39
ag42
ag41
ag41
ag41
ag39
ag40
ag40
ag39
ag40
ag39
ag40
ag40
ag41
ag39
ag41
ag39
ag39
ag39
ag39
ag39
ag39
ag42
ag39
ag39
ag42
ag41
ag40
ag40
ag41
ag40
ag41
ag41
ag40
ag39
ag40
ag41
ag40
ag41
ag41
ag41
ag42
asS'assistance_match_with_ground_truth'
p43
(lp44
I00
aI01
aI00
aI00
aI01
aI01
aI00
aI01
aI00
aI00
aI00
aI00
aI00
aI00
aI01
aI01
aI00
aI00
aI00
aI00
aI01
aI00
aI00
aI01
aI00
aI00
aI00
aI00
aI01
aI00
aI00
aI01
aI00
aI01
aI00
aI00
aI00
aI00
aI00
aI00
aI00
aI00
aI00
aI00
aI01
aI00
aI00
aI01
aI00
aI01
aI00
aI00
aI01
aI01
aI00
aI01
aI00
aI01
aI00
aI01
aI01
aI00
aI00
aI01
aI01
asS'total_steps'
p45
I65
sS'sp'
p46
(lp47
(S'p0'
p48
I0
S'x'
p49
tp50
a(g48
I0
S'y'
p51
tp52
a(g48
I0
g49
tp53
a(g48
I0
g49
tp54
ag52
a(S'p1'
p55
I0
g51
tp56
a(g55
I0
g51
tp57
a(g55
I0
g49
tp58
a(g55
I0
S't'
p59
tp60
a(g55
I0
g59
tp61
a(g55
I0
g59
tp62
ag61
ag61
ag62
a(g55
I0
g49
tp63
a(S'p2'
p64
I0
g49
tp65
a(g64
I0
g51
tp66
a(S'p3'
p67
I0
g51
tp68
a(g67
I0
g51
tp69
ag69
a(g67
I0
g49
tp70
a(g67
I0
g59
tp71
a(g67
I0
g59
tp72
a(g67
I0
g49
tp73
a(g64
I0
g49
tp74
a(g64
I0
g49
tp75
ag75
ag66
a(g64
I0
g59
tp76
a(g64
I0
g59
tp77
a(g64
I0
g51
tp78
ag76
ag78
ag76
ag77
a(g64
I0
g49
tp79
ag66
ag68
a(g67
I0
g59
tp80
a(g67
I0
g59
tp81
ag81
ag81
ag72
ag81
ag73
ag71
ag81
ag73
ag74
a(g64
I0
g59
tp82
ag77
ag79
ag82
a(g64
F1.5707963267948966
g59
tp83
a(g64
F1.5707963267948966
g59
tp84
a(g64
F1.5707963267948966
g51
tp85
a(g64
F1.5707963267948966
g49
tp86
a(g64
F1.5707963267948966
g51
tp87
a(g64
F1.5707963267948966
g59
tp88
ag85
a(g67
F1.5707963267948966
g51
tp89
a(g67
F1.5707963267948966
g51
tp90
ag90
a(g67
F1.5707963267948966
g49
tp91
a(S'p4'
p92
F1.5707963267948966
g49
tp93
asS's'
p94
(lp95
(g48
I0
g22
tp96
ag50
ag52
ag53
ag54
ag52
ag56
ag57
ag58
ag60
ag61
ag62
ag61
ag61
ag62
ag63
ag65
ag66
ag68
ag69
ag69
ag70
ag71
ag72
ag73
ag74
ag75
ag75
ag66
ag76
ag77
ag78
ag76
ag78
ag76
ag77
ag79
ag66
ag68
ag80
ag81
ag81
ag81
ag72
ag81
ag73
ag71
ag81
ag73
ag74
ag82
ag77
ag79
ag82
ag83
ag84
ag85
ag86
ag87
ag88
ag85
ag89
ag90
ag90
ag91
asS'ui'
p97
(lp98
S'hp'
p99
ag99
aS'hs'
p100
ag99
ag99
ag46
aS'ss'
p101
ag100
ag46
ag101
ag46
ag101
ag101
ag46
ag99
ag100
ag100
ag46
ag99
ag101
ag100
ag100
ag99
ag99
ag46
ag46
ag46
ag99
ag99
ag101
ag100
ag99
ag46
ag99
ag99
ag99
ag46
ag99
ag99
ag101
ag99
ag101
ag46
ag101
ag99
ag100
ag101
ag99
ag46
ag100
ag46
ag99
ag99
ag46
ag46
ag46
ag100
ag99
ag99
ag101
ag46
ag101
ag99
ag100
ag101
asS'um_before'
p102
(lp103
g46
ag99
ag100
ag101
ag99
ag46
ag101
ag100
ag100
ag101
ag46
ag101
ag101
ag46
ag99
ag101
ag99
ag46
ag101
ag101
ag100
ag100
ag46
ag99
ag46
ag46
ag46
ag99
ag99
ag101
ag100
ag99
ag100
ag99
ag101
ag99
ag99
ag46
ag99
ag101
ag101
ag101
ag46
ag101
ag99
ag100
ag101
ag99
ag46
ag100
ag101
ag99
ag100
ag46
ag46
ag100
ag100
ag99
ag99
ag100
ag46
ag101
ag101
ag100
ag101
asS'um_after'
p104
(lp105
g46
ag99
ag100
ag101
ag99
ag46
ag101
ag100
ag100
ag101
ag46
ag101
ag101
ag46
ag99
ag101
ag99
ag46
ag101
ag101
ag100
ag100
ag46
ag99
ag46
ag46
ag46
ag99
ag99
ag101
ag100
ag99
ag100
ag99
ag101
ag99
ag99
ag46
ag99
ag101
ag101
ag101
ag46
ag101
ag99
ag100
ag101
ag99
ag46
ag100
ag101
ag99
ag100
ag46
ag46
ag100
ag100
ag99
ag99
ag100
ag46
ag101
ag101
ag100
ag101
asaa(lp106
S'index'
p107
aI53465
aatp108
Rp109
.