ccollections
OrderedDict
p0
((lp1
(lp2
S'combination_dict'
p3
ag0
((lp4
(lp5
S'r_to_g_config'
p6
aS'br'
p7
aa(lp8
S'num_turns'
p9
aI3
aa(lp10
S'start_direction'
p11
acutils_ms
StartDirection
p12
(I1
tp13
Rp14
aa(lp15
S'assistance_type'
p16
acutils_ms
AssistanceType
p17
(I2
tp18
Rp19
aa(lp20
S'start_mode'
p21
aS't'
p22
aa(lp23
S'ui_given_a_noise'
p24
aF0.7
aa(lp25
S'um_given_ui_noise'
p26
aF0.7
aa(lp27
S'entropy_threshold'
p28
aF0.5
aatp29
Rp30
aa(lp31
S'data'
p32
accollections
defaultdict
p33
(c__builtin__
list
p34
tp35
Rp36
S'a'
p37
(lp38
S'mode_l'
p39
ag39
aS'move_n'
p40
ag40
ag39
ag39
aS'mode_r'
p41
ag40
ag40
ag39
ag41
ag39
ag41
aS'move_p'
p42
ag39
ag42
ag39
ag39
ag39
ag39
ag39
ag42
ag39
ag40
ag39
ag39
ag40
ag39
ag42
ag41
ag42
ag41
ag39
ag39
ag40
ag39
ag40
ag40
ag39
ag40
ag40
ag40
ag39
ag41
ag41
ag42
ag39
ag41
ag41
ag41
ag41
ag41
ag39
ag39
ag42
ag41
ag40
ag39
ag39
ag39
ag41
ag39
ag40
ag39
ag40
ag39
ag39
ag42
ag41
ag40
ag39
ag40
ag39
ag39
ag39
ag42
ag39
ag42
ag41
ag41
ag42
ag39
ag39
ag42
ag39
ag42
asS'assistance_match_with_ground_truth'
p43
(lp44
I00
aI01
aI00
aI00
aI00
aI00
aI01
aI00
aI01
aI00
aI00
aI00
aI01
aI01
aI01
aI00
aI00
aI00
aI00
aI00
aI01
aI01
aI01
aI00
aI00
aI01
aI00
aI01
aI00
aI01
aI00
aI00
aI00
aI01
aI00
aI01
aI00
aI00
aI01
aI00
aI00
aI01
aI00
aI00
aI01
aI00
aI00
aI00
aI00
aI00
aI00
aI00
aI00
aI01
aI00
aI01
aI00
aI00
aI00
aI00
aI00
aI01
aI00
aI01
aI01
aI00
aI01
aI01
aI01
aI00
aI01
aI01
aI00
aI00
aI01
aI00
aI01
aI00
aI00
aI01
aI00
aI00
aI01
aI00
aI01
aI01
asS'total_steps'
p45
I86
sS'sp'
p46
(lp47
(S'p0'
p48
I0
S't'
p49
tp50
a(g48
I0
S'y'
p51
tp52
a(g48
I0
g51
tp53
a(g48
I0
g49
tp54
ag50
a(g48
I0
S'x'
p55
tp56
a(g48
I0
g51
tp57
ag53
a(S'p1'
p58
I0
g51
tp59
a(g58
I0
g49
tp60
a(g58
I0
g51
tp61
ag60
a(g58
I0
g55
tp62
a(S'p2'
p63
I0
g55
tp64
a(g63
I0
g49
tp65
a(g63
I0
g55
tp66
a(g63
I0
g55
tp67
a(g63
I0
g55
tp68
ag68
ag68
ag65
a(g63
F1.5707963267948966
g49
tp69
a(g63
F1.5707963267948966
g51
tp70
a(g63
F1.5707963267948966
g49
tp71
a(g63
F1.5707963267948966
g49
tp72
ag70
a(g58
F1.5707963267948966
g51
tp73
a(g58
F1.5707963267948966
g55
tp74
a(g58
F1.5707963267948966
g49
tp75
a(g58
F1.5707963267948966
g55
tp76
a(g48
F1.5707963267948966
g55
tp77
a(g48
F1.5707963267948966
g49
tp78
a(g48
F1.5707963267948966
g49
tp79
a(g48
F1.5707963267948966
g51
tp80
a(g48
F1.5707963267948966
g49
tp81
ag80
a(g48
F1.5707963267948966
g51
tp82
ag81
ag80
ag82
ag82
a(g58
F1.5707963267948966
g51
tp83
a(g58
F1.5707963267948966
g49
tp84
a(g58
F1.5707963267948966
g49
tp85
ag76
a(g58
F1.5707963267948966
g51
tp86
ag84
ag85
ag85
ag85
ag85
a(g58
F1.5707963267948966
g51
tp87
a(g58
F1.5707963267948966
g51
tp88
ag74
ag77
a(g48
F1.5707963267948966
g51
tp89
ag81
ag79
ag79
a(g48
F1.5707963267948966
g55
tp90
ag78
ag80
ag81
ag80
ag83
ag88
ag74
a(g63
F1.5707963267948966
g55
tp91
a(g63
F1.5707963267948966
g51
tp92
ag71
ag70
a(S'p3'
p93
F1.5707963267948966
g51
tp94
a(g93
F1.5707963267948966
g51
tp95
a(g93
F1.5707963267948966
g51
tp96
a(g93
F1.5707963267948966
g55
tp97
a(g93
F1.5707963267948966
g51
tp98
ag97
a(g93
F1.5707963267948966
g49
tp99
a(g93
F1.5707963267948966
g49
tp100
a(g93
F1.5707963267948966
g55
tp101
ag98
ag96
ag97
ag98
ag97
a(S'p4'
p102
F1.5707963267948966
g55
tp103
asS's'
p104
(lp105
(g48
I0
g22
tp106
ag50
ag52
ag53
ag54
ag50
ag56
ag57
ag53
ag59
ag60
ag61
ag60
ag62
ag64
ag65
ag66
ag67
ag68
ag68
ag68
ag65
ag69
ag70
ag71
ag72
ag70
ag73
ag74
ag75
ag76
ag77
ag78
ag79
ag80
ag81
ag80
ag82
ag81
ag80
ag82
ag82
ag83
ag84
ag85
ag76
ag86
ag84
ag85
ag85
ag85
ag85
ag87
ag88
ag74
ag77
ag89
ag81
ag79
ag79
ag90
ag78
ag80
ag81
ag80
ag83
ag88
ag74
ag91
ag92
ag71
ag70
ag94
ag95
ag96
ag97
ag98
ag97
ag99
ag100
ag101
ag98
ag96
ag97
ag98
ag97
asS'ui'
p107
(lp108
S'ss'
p109
ag109
ag109
aS'hp'
p110
ag109
ag109
ag110
ag46
ag109
ag109
ag110
aS'hs'
p111
ag110
ag109
ag111
ag109
ag110
ag110
ag109
ag111
ag111
ag46
ag111
ag110
ag46
ag111
ag109
ag111
ag109
ag110
ag109
ag110
ag109
ag111
ag109
ag111
ag46
ag109
ag111
ag46
ag46
ag109
ag46
ag46
ag110
ag46
ag111
ag110
ag110
ag109
ag110
ag110
ag46
ag111
ag109
ag110
ag110
ag111
ag111
ag111
ag110
ag111
ag110
ag111
ag109
ag46
ag46
ag109
ag110
ag109
ag111
ag109
ag111
ag111
ag111
ag109
ag111
ag111
ag110
ag110
ag46
ag111
ag46
ag46
ag111
ag46
asS'um_before'
p112
(lp113
g109
ag111
ag46
ag110
ag109
ag110
ag110
ag46
ag109
ag110
ag111
ag110
ag110
ag46
ag111
ag110
ag46
ag109
ag109
ag109
ag111
ag46
ag111
ag110
ag46
ag111
ag46
ag111
ag111
ag110
ag109
ag111
ag109
ag111
ag110
ag111
ag46
ag110
ag111
ag46
ag46
ag109
ag110
ag46
ag110
ag110
ag110
ag46
ag46
ag46
ag46
ag111
ag46
ag111
ag109
ag110
ag110
ag109
ag109
ag110
ag111
ag111
ag110
ag111
ag109
ag46
ag111
ag46
ag110
ag110
ag111
ag109
ag46
ag109
ag111
ag110
ag111
ag111
ag109
ag110
ag110
ag109
ag111
ag110
ag111
ag46
asS'um_after'
p114
(lp115
g109
ag111
ag46
ag110
ag109
ag110
ag110
ag46
ag109
ag110
ag111
ag110
ag110
ag46
ag111
ag110
ag46
ag109
ag109
ag109
ag111
ag46
ag111
ag110
ag46
ag111
ag46
ag111
ag111
ag110
ag109
ag111
ag109
ag111
ag110
ag111
ag46
ag110
ag111
ag46
ag46
ag109
ag110
ag46
ag110
ag110
ag110
ag46
ag46
ag46
ag46
ag111
ag46
ag111
ag109
ag110
ag110
ag109
ag109
ag110
ag111
ag111
ag110
ag111
ag109
ag46
ag111
ag46
ag110
ag110
ag111
ag109
ag46
ag109
ag111
ag110
ag111
ag111
ag109
ag110
ag110
ag109
ag111
ag110
ag111
ag46
asaa(lp116
S'index'
p117
aI115153
aatp118
Rp119
.