ccollections
OrderedDict
p0
((lp1
(lp2
S'index'
p3
aI14480
aa(lp4
S'combination_dict'
p5
ag0
((lp6
(lp7
S'r_to_g_config'
p8
aS'br'
p9
aa(lp10
S'num_turns'
p11
aI3
aa(lp12
S'start_direction'
p13
acutils_ms
StartDirection
p14
(I3
tp15
Rp16
aa(lp17
S'assistance_type'
p18
acutils_ms
AssistanceType
p19
(I1
tp20
Rp21
aa(lp22
S'start_mode'
p23
aS't'
p24
aa(lp25
S'ui_given_a_noise'
p26
aF0.5
aa(lp27
S'um_given_ui_noise'
p28
aF0.1
aa(lp29
S'entropy_threshold'
p30
aF0.5
aa(lp31
S'is_assistance'
p32
aI01
aatp33
Rp34
aa(lp35
S'trials'
p36
ag0
((lp37
(lp38
I0
accollections
defaultdict
p39
(c__builtin__
list
p40
tp41
Rp42
S'a'
p43
(lp44
S'mode_r'
p45
aS'mode_l'
p46
ag46
aS'move_p'
p47
ag45
aS'move_n'
p48
ag46
ag46
ag46
ag46
ag46
ag45
ag45
ag45
ag45
ag45
ag48
ag46
ag46
ag48
ag45
ag48
ag46
ag46
ag48
ag46
ag46
ag48
ag45
ag47
ag45
ag47
ag45
ag48
ag46
ag47
ag45
ag48
ag46
ag47
ag45
ag45
ag47
ag45
ag45
ag48
ag45
ag48
ag46
ag46
ag45
ag47
ag45
ag45
ag48
asS'assistance_match_with_ground_truth'
p49
(lp50
I00
aI00
aI01
aI01
aI01
aI00
aI00
aI00
aI00
aI00
aI00
aI00
aI00
aI00
aI00
aI01
aI00
aI00
aI01
aI00
aI01
aI00
aI00
aI01
aI00
aI00
aI01
aI01
aI01
aI01
aI01
aI01
aI01
aI00
aI01
aI00
aI01
aI00
aI01
aI00
aI00
aI01
aI01
aI00
aI01
aI00
aI01
aI01
aI00
aI00
aI01
aI01
aI00
aI01
aI01
asS'total_steps'
p51
I55
sS'sp'
p52
(S'p4'
p53
F1.5707963267948966
S'y'
p54
tp55
sS's'
p56
(lp57
(S'p0'
p58
I0
g24
tp59
a(g58
I0
g54
tp60
a(g58
I0
g54
tp61
a(g58
I0
S'x'
p62
tp63
a(S'p1'
p64
I0
g62
tp65
a(g64
I0
g54
tp66
a(g64
I0
S't'
p67
tp68
a(g64
I0
g67
tp69
ag69
a(g64
I0
g67
tp70
ag70
a(g64
I0
g62
tp71
a(g64
I0
g62
tp72
ag72
ag72
ag72
ag66
ag68
ag70
a(g64
I0
g54
tp73
a(g64
I0
g62
tp74
ag66
ag68
ag69
ag73
ag68
ag69
ag73
a(S'p2'
p75
I0
g54
tp76
a(g75
I0
g67
tp77
a(g75
F1.5707963267948966
g67
tp78
a(g75
F1.5707963267948966
g62
tp79
a(S'p3'
p80
F1.5707963267948966
g62
tp81
a(g80
F1.5707963267948966
g54
tp82
a(g75
F1.5707963267948966
g54
tp83
a(g75
F1.5707963267948966
g62
tp84
a(g64
F1.5707963267948966
g62
tp85
a(g64
F1.5707963267948966
g54
tp86
a(g58
F1.5707963267948966
g54
tp87
a(g58
F1.5707963267948966
g62
tp88
a(g58
F1.5707963267948966
g67
tp89
a(g58
F1.5707963267948966
g67
tp90
a(g58
F1.5707963267948966
g62
tp91
a(g64
F1.5707963267948966
g62
tp92
a(g64
F1.5707963267948966
g62
tp93
ag86
a(g64
F1.5707963267948966
g62
tp94
ag86
a(g75
F1.5707963267948966
g54
tp95
a(g75
F1.5707963267948966
g54
tp96
a(g75
F1.5707963267948966
g67
tp97
ag79
ag81
a(g80
F1.5707963267948966
g62
tp98
ag82
asS'ui'
p99
(lp100
S'hp'
p101
ag52
aS'hs'
p102
ag52
ag101
ag52
aS'ss'
p103
ag103
ag52
ag52
ag103
ag52
ag52
ag101
ag52
ag101
ag101
ag52
ag102
ag101
ag101
ag101
ag102
ag102
ag101
ag103
ag102
ag103
ag101
ag52
ag101
ag52
ag101
ag52
ag102
ag103
ag101
ag52
ag102
ag102
ag52
ag101
ag52
ag101
ag101
ag102
ag101
ag103
ag52
ag102
ag101
ag52
ag101
ag101
ag103
asS'um_before'
p104
(lp105
g102
ag52
ag102
ag52
ag101
ag101
ag103
ag103
ag52
ag52
ag101
ag52
ag52
ag52
ag52
ag101
ag101
ag52
ag102
ag102
ag101
ag101
ag103
ag102
ag101
ag103
ag102
ag103
ag101
ag52
ag101
ag52
ag101
ag52
ag102
ag103
ag101
ag52
ag102
ag102
ag52
ag101
ag52
ag52
ag101
ag102
ag101
ag103
ag52
ag101
ag101
ag52
ag52
ag101
ag103
asS'um_after'
p106
(lp107
g102
ag52
ag102
ag52
ag101
ag101
ag103
ag103
ag52
ag52
ag101
ag52
ag52
ag52
ag52
ag101
ag101
ag52
ag102
ag102
ag101
ag101
ag103
ag102
ag101
ag103
ag102
ag103
ag101
ag52
ag101
ag52
ag101
ag52
ag102
ag103
ag101
ag52
ag102
ag102
ag52
ag101
ag52
ag52
ag101
ag102
ag101
ag103
ag52
ag101
ag101
ag52
ag52
ag101
ag103
asaa(lp108
I1
ag39
(g40
tp109
Rp110
g43
(lp111
g45
ag47
ag45
ag48
ag46
ag46
ag47
ag45
ag47
ag45
ag45
ag48
ag45
ag46
ag46
ag48
ag46
ag46
ag47
ag45
ag45
ag45
ag46
ag46
ag45
ag45
ag48
ag45
ag47
ag45
ag45
ag47
ag45
ag47
ag45
ag47
ag45
ag46
ag45
ag47
ag45
ag47
ag45
ag48
ag46
ag47
ag45
ag48
ag46
ag48
ag46
ag48
ag46
ag47
ag45
ag48
ag46
ag46
ag46
ag46
ag46
ag47
ag47
ag45
ag48
ag46
ag45
ag48
ag46
ag46
ag47
ag45
ag48
ag45
ag48
ag46
ag47
ag45
ag45
ag45
ag46
ag47
ag45
ag48
ag46
ag45
ag48
asg49
(lp112
I01
aI01
aI01
aI00
aI00
aI01
aI00
aI01
aI01
aI00
aI01
aI00
aI00
aI00
aI01
aI00
aI00
aI01
aI01
aI00
aI00
aI00
aI00
aI00
aI00
aI01
aI01
aI01
aI00
aI00
aI01
aI01
aI01
aI00
aI00
aI01
aI00
aI00
aI01
aI00
aI01
aI00
aI01
aI01
aI01
aI00
aI01
aI00
aI01
aI00
aI01
aI00
aI01
aI01
aI01
aI00
aI00
aI00
aI00
aI00
aI01
aI00
aI01
aI01
aI00
aI00
aI01
aI01
aI00
aI01
aI01
aI01
aI00
aI01
aI00
aI01
aI00
aI00
aI00
aI00
aI01
aI01
aI01
aI00
aI00
aI01
aI01
asg51
I87
sg52
g55
sg56
(lp113
(g58
I0
g24
tp114
a(g58
I0
g62
tp115
ag65
ag66
a(g58
I0
g54
tp116
ag61
ag63
a(g58
I0
g67
tp117
ag115
ag65
ag72
ag66
ag74
a(g64
I0
g67
tp118
ag69
ag73
ag116
ag61
ag63
ag65
ag72
ag72
ag118
ag69
ag71
a(g64
I0
g62
tp119
ag66
ag76
ag77
a(g75
I0
g54
tp120
a(g75
I0
g54
tp121
ag77
ag78
ag79
a(g75
F1.5707963267948966
g67
tp122
a(g75
I0
g67
tp123
ag78
a(g75
F1.5707963267948966
g54
tp124
ag97
ag79
ag122
ag79
ag85
ag86
ag95
ag84
ag85
ag86
a(g64
F1.5707963267948966
g67
tp125
a(g64
F1.5707963267948966
g54
tp126
ag125
ag126
ag87
ag88
ag92
ag86
ag87
a(g58
F1.5707963267948966
g54
tp127
a(g58
F1.5707963267948966
g54
tp128
ag127
ag128
ag88
a(g58
F1.5707963267948966
g62
tp129
ag92
ag86
ag125
a(g64
F1.5707963267948966
g62
tp130
ag86
ag95
ag96
ag84
ag81
ag82
a(g80
F1.5707963267948966
g62
tp131
ag82
ag83
ag84
ag122
a(g75
F1.5707963267948966
g67
tp132
ag132
ag124
ag84
ag81
ag82
a(g80
F1.5707963267948966
g67
tp133
a(g80
F1.5707963267948966
g62
tp134
ag82
asg99
(lp135
g101
ag52
ag101
ag52
ag52
ag102
ag102
ag101
ag52
ag52
ag101
ag102
ag101
ag103
ag102
ag52
ag52
ag102
ag52
ag52
ag52
ag101
ag103
ag103
ag103
ag101
ag103
ag101
ag102
ag101
ag101
ag102
ag101
ag102
ag101
ag52
ag101
ag101
ag101
ag102
ag101
ag103
ag103
ag103
ag102
ag103
ag101
ag101
ag102
ag101
ag102
ag52
ag102
ag52
ag101
ag52
ag103
ag102
ag103
ag102
ag102
ag103
ag102
ag101
ag101
ag101
ag101
ag103
ag52
ag102
ag52
ag101
ag102
ag101
ag52
ag102
ag102
ag101
ag52
ag101
ag102
ag52
ag101
ag103
ag101
ag101
ag103
asg104
(lp136
g101
ag52
ag101
ag52
ag52
ag102
ag102
ag101
ag52
ag52
ag101
ag102
ag102
ag103
ag102
ag52
ag52
ag102
ag52
ag52
ag52
ag102
ag103
ag101
ag103
ag101
ag103
ag101
ag102
ag52
ag101
ag52
ag101
ag102
ag103
ag52
ag102
ag101
ag101
ag102
ag101
ag103
ag101
ag103
ag102
ag103
ag101
ag101
ag102
ag101
ag102
ag52
ag102
ag52
ag101
ag52
ag103
ag52
ag103
ag52
ag102
ag103
ag52
ag101
ag101
ag101
ag101
ag103
ag52
ag102
ag52
ag101
ag102
ag101
ag52
ag102
ag102
ag52
ag52
ag102
ag102
ag52
ag101
ag101
ag101
ag101
ag103
asg106
(lp137
g101
ag52
ag101
ag52
ag52
ag102
ag102
ag101
ag52
ag52
ag101
ag102
ag102
ag103
ag102
ag52
ag52
ag102
ag52
ag52
ag52
ag102
ag103
ag101
ag103
ag101
ag103
ag101
ag102
ag52
ag101
ag52
ag101
ag102
ag103
ag52
ag102
ag101
ag101
ag102
ag101
ag103
ag101
ag103
ag102
ag103
ag101
ag101
ag102
ag101
ag102
ag52
ag102
ag52
ag101
ag52
ag103
ag52
ag103
ag52
ag102
ag103
ag52
ag101
ag101
ag101
ag101
ag103
ag52
ag102
ag52
ag101
ag102
ag101
ag52
ag102
ag102
ag52
ag52
ag102
ag102
ag52
ag101
ag101
ag101
ag101
ag103
asaa(lp138
I2
ag39
(g40
tp139
Rp140
g43
(lp141
g45
ag47
ag45
ag45
ag47
ag47
ag46
ag47
ag45
ag47
ag47
ag45
ag45
ag47
ag45
ag45
ag45
ag47
ag45
ag45
ag45
ag47
ag45
ag45
ag47
ag45
ag46
ag45
ag48
ag45
ag46
ag45
ag48
ag45
ag45
ag48
ag45
ag45
ag45
ag47
ag46
ag47
ag47
ag45
ag45
ag47
ag45
ag45
ag48
ag46
ag46
ag46
ag46
ag46
ag46
ag47
ag46
ag46
ag47
ag45
ag48
ag46
ag47
ag46
ag46
ag46
ag46
ag47
ag45
ag48
ag46
ag46
ag47
ag45
ag47
ag45
ag48
asg49
(lp142
I01
aI00
aI00
aI01
aI00
aI00
aI01
aI00
aI01
aI00
aI00
aI00
aI01
aI00
aI00
aI00
aI01
aI00
aI00
aI00
aI01
aI00
aI00
aI01
aI01
aI00
aI00
aI01
aI01
aI00
aI00
aI01
aI00
aI00
aI01
aI01
aI00
aI00
aI01
aI00
aI01
aI00
aI01
aI00
aI01
aI00
aI00
aI01
aI00
aI00
aI00
aI00
aI00
aI00
aI01
aI00
aI00
aI01
aI01
aI01
aI01
aI01
aI00
aI00
aI00
aI00
aI01
aI00
aI01
aI01
aI00
aI01
aI00
aI01
aI01
aI01
aI01
asg51
I77
sg52
g55
sg56
(lp143
(g58
I0
g24
tp144
ag115
ag117
a(g58
I0
g67
tp145
ag115
a(g58
I0
g62
tp146
a(g58
I0
g54
tp147
ag63
ag117
ag115
ag146
ag117
ag145
ag115
ag117
a(g58
I0
g67
tp148
ag145
ag115
ag117
ag148
ag148
ag115
ag117
ag148
ag115
ag65
ag118
ag71
ag66
ag76
a(g75
I0
g62
tp149
a(g64
I0
g62
tp150
ag66
ag74
ag72
ag66
ag76
a(g75
I0
g54
tp151
ag151
ag77
a(g75
I0
g62
tp152
a(g75
I0
g67
tp153
a(g75
I0
g67
tp154
ag78
ag132
ag79
ag85
a(g64
F1.5707963267948966
g62
tp155
ag86
ag87
ag127
ag128
ag127
ag128
ag127
ag88
a(g58
F1.5707963267948966
g54
tp156
ag127
ag88
ag92
ag86
ag95
ag84
a(g75
F1.5707963267948966
g54
tp157
ag96
ag96
a(g75
F1.5707963267948966
g54
tp158
ag84
ag85
ag86
ag95
ag96
ag84
ag122
ag79
ag81
ag82
asg99
(lp159
g101
ag102
ag103
ag101
ag102
ag102
ag102
ag102
ag101
ag103
ag102
ag103
ag101
ag102
ag52
ag103
ag101
ag102
ag52
ag52
ag101
ag102
ag52
ag101
ag101
ag102
ag101
ag101
ag103
ag101
ag103
ag101
ag52
ag52
ag101
ag103
ag101
ag103
ag101
ag101
ag102
ag103
ag52
ag52
ag101
ag103
ag103
ag101
ag52
ag102
ag102
ag102
ag52
ag101
ag102
ag101
ag103
ag102
ag52
ag101
ag103
ag102
ag52
ag52
ag52
ag103
ag102
ag103
ag101
ag52
ag52
ag102
ag102
ag101
ag52
ag101
ag103
asg104
(lp160
g101
ag102
ag103
ag101
ag103
ag101
ag102
ag102
ag101
ag103
ag102
ag103
ag101
ag102
ag52
ag103
ag101
ag102
ag52
ag52
ag101
ag102
ag52
ag101
ag52
ag102
ag101
ag101
ag103
ag102
ag103
ag101
ag102
ag52
ag101
ag103
ag103
ag103
ag101
ag101
ag102
ag103
ag52
ag52
ag101
ag103
ag103
ag101
ag52
ag103
ag52
ag103
ag52
ag103
ag102
ag101
ag103
ag102
ag52
ag101
ag103
ag102
ag101
ag52
ag52
ag103
ag102
ag103
ag101
ag103
ag52
ag102
ag102
ag101
ag52
ag101
ag103
asg106
(lp161
g101
ag102
ag103
ag101
ag103
ag101
ag102
ag102
ag101
ag103
ag102
ag103
ag101
ag102
ag52
ag103
ag101
ag102
ag52
ag52
ag101
ag102
ag52
ag101
ag52
ag102
ag101
ag101
ag103
ag102
ag103
ag101
ag102
ag52
ag101
ag103
ag103
ag103
ag101
ag101
ag102
ag103
ag52
ag52
ag101
ag103
ag103
ag101
ag52
ag103
ag52
ag103
ag52
ag103
ag102
ag101
ag103
ag102
ag52
ag101
ag103
ag102
ag101
ag52
ag52
ag103
ag102
ag103
ag101
ag103
ag52
ag102
ag102
ag101
ag52
ag101
ag103
asaa(lp162
I3
ag39
(g40
tp163
Rp164
g43
(lp165
g45
ag47
ag45
ag47
ag47
ag45
ag47
ag45
ag46
ag45
ag48
ag46
ag46
ag48
ag45
ag48
ag46
ag47
ag47
ag45
ag45
ag48
ag45
ag47
ag45
ag47
ag45
ag47
ag45
ag47
ag45
ag47
ag45
ag47
ag45
ag47
ag45
ag46
ag46
ag46
ag48
asg49
(lp166
I01
aI00
aI01
aI00
aI00
aI01
aI01
aI00
aI00
aI01
aI00
aI00
aI01
aI00
aI01
aI00
aI01
aI00
aI01
aI00
aI01
aI01
aI01
aI00
aI01
aI00
aI01
aI00
aI01
aI01
aI00
aI00
aI01
aI01
aI01
aI01
aI00
aI00
aI00
aI01
aI01
asg51
I41
sg52
g55
sg56
(lp167
(g58
I0
g24
tp168
ag115
ag117
ag115
ag146
ag117
ag115
ag65
ag118
ag71
ag66
ag68
ag70
ag73
ag74
ag66
ag116
ag63
ag146
ag65
ag72
ag66
ag76
ag77
ag120
ag77
ag120
ag77
ag120
ag77
ag78
ag123
ag120
ag77
ag78
ag79
ag81
a(g80
F1.5707963267948966
g67
tp169
a(g80
F1.5707963267948966
g67
tp170
ag170
a(g80
F1.5707963267948966
g54
tp171
asg99
(lp172
g101
ag52
ag101
ag103
ag102
ag101
ag52
ag101
ag103
ag101
ag101
ag52
ag102
ag103
ag101
ag52
ag102
ag52
ag52
ag52
ag101
ag103
ag101
ag102
ag101
ag102
ag101
ag102
ag101
ag52
ag103
ag102
ag101
ag52
ag101
ag52
ag101
ag103
ag103
ag102
ag103
asg104
(lp173
g101
ag102
ag101
ag103
ag102
ag101
ag52
ag102
ag101
ag101
ag101
ag52
ag102
ag102
ag101
ag52
ag102
ag103
ag52
ag52
ag101
ag103
ag101
ag102
ag101
ag102
ag101
ag102
ag101
ag52
ag103
ag102
ag101
ag52
ag101
ag52
ag102
ag103
ag103
ag102
ag103
asg106
(lp174
g101
ag102
ag101
ag103
ag102
ag101
ag52
ag102
ag101
ag101
ag101
ag52
ag102
ag102
ag101
ag52
ag102
ag103
ag52
ag52
ag101
ag103
ag101
ag102
ag101
ag102
ag101
ag102
ag101
ag52
ag103
ag102
ag101
ag52
ag101
ag52
ag102
ag103
ag103
ag102
ag103
asaa(lp175
I4
ag39
(g40
tp176
Rp177
g43
(lp178
g45
ag45
ag47
ag45
ag47
ag45
ag48
ag45
ag47
ag45
ag45
ag47
ag45
ag47
ag45
ag47
ag45
ag47
ag46
ag46
ag46
ag47
ag45
ag48
ag45
ag48
asg49
(lp179
I00
aI01
aI00
aI01
aI01
aI01
aI01
aI01
aI00
aI00
aI01
aI01
aI00
aI00
aI01
aI01
aI01
aI00
aI00
aI00
aI01
aI01
aI01
aI00
aI01
aI01
asg51
I26
sg52
g55
sg56
(lp180
(g58
I0
g24
tp181
ag148
ag115
ag117
ag115
ag65
ag66
ag76
ag77
ag120
ag121
ag77
ag78
ag123
ag120
ag77
ag78
ag79
ag157
ag96
ag96
ag84
ag81
ag82
ag131
ag82
asg99
(lp182
g101
ag101
ag102
ag101
ag52
ag101
ag103
ag101
ag102
ag52
ag101
ag102
ag101
ag102
ag101
ag52
ag52
ag52
ag52
ag52
ag102
ag52
ag101
ag102
ag101
ag103
asg104
(lp183
g52
ag101
ag102
ag101
ag52
ag101
ag103
ag101
ag102
ag52
ag101
ag52
ag103
ag102
ag101
ag52
ag101
ag101
ag52
ag52
ag102
ag52
ag101
ag102
ag101
ag103
asg106
(lp184
g52
ag101
ag102
ag101
ag52
ag101
ag103
ag101
ag102
ag52
ag101
ag52
ag103
ag102
ag101
ag52
ag101
ag101
ag52
ag52
ag102
ag52
ag101
ag102
ag101
ag103
asaa(lp185
I5
ag39
(g40
tp186
Rp187
g43
(lp188
g45
ag47
ag45
ag48
ag45
ag45
ag47
ag46
ag45
ag45
ag47
ag45
ag47
ag45
ag47
ag45
ag47
ag45
ag48
ag46
ag46
ag45
ag45
ag45
ag45
ag47
ag47
ag45
ag47
ag45
ag46
ag48
ag46
ag47
ag45
ag48
ag46
ag46
ag47
ag45
ag48
ag45
ag48
asg49
(lp189
I01
aI01
aI01
aI01
aI00
aI01
aI00
aI00
aI00
aI01
aI00
aI01
aI01
aI01
aI00
aI01
aI00
aI01
aI00
aI00
aI00
aI00
aI00
aI00
aI01
aI00
aI00
aI01
aI01
aI00
aI01
aI01
aI01
aI01
aI01
aI00
aI00
aI01
aI01
aI01
aI00
aI01
aI01
asg51
I43
sg52
g55
sg56
(lp190
(g58
I0
g24
tp191
ag115
ag65
ag66
ag76
ag121
ag77
ag152
a(g75
I0
g54
tp192
ag151
ag77
ag120
ag77
ag78
ag79
ag122
ag79
ag85
ag86
ag87
ag127
a(g58
F1.5707963267948966
g67
tp193
a(g58
F1.5707963267948966
g67
tp194
ag194
ag90
ag91
ag129
ag89
ag91
ag92
a(g64
F1.5707963267948966
g67
tp195
ag126
ag95
ag84
ag81
ag82
ag83
ag96
ag84
ag81
ag82
ag131
ag82
asg99
(lp196
g101
ag52
ag101
ag103
ag52
ag101
ag102
ag103
ag101
ag101
ag102
ag101
ag52
ag101
ag52
ag101
ag103
ag52
ag52
ag52
ag101
ag101
ag103
ag52
ag101
ag103
ag102
ag101
ag102
ag101
ag102
ag103
ag102
ag52
ag101
ag52
ag52
ag102
ag52
ag101
ag102
ag101
ag103
asg104
(lp197
g101
ag52
ag101
ag103
ag52
ag101
ag101
ag101
ag103
ag101
ag102
ag101
ag52
ag101
ag102
ag101
ag103
ag101
ag52
ag103
ag101
ag103
ag103
ag52
ag101
ag103
ag102
ag101
ag52
ag102
ag102
ag103
ag102
ag52
ag101
ag52
ag52
ag102
ag52
ag101
ag102
ag101
ag103
asg106
(lp198
g101
ag52
ag101
ag103
ag52
ag101
ag101
ag101
ag103
ag101
ag102
ag101
ag52
ag101
ag102
ag101
ag103
ag101
ag52
ag103
ag101
ag103
ag103
ag52
ag101
ag103
ag102
ag101
ag52
ag102
ag102
ag103
ag102
ag52
ag101
ag52
ag52
ag102
ag52
ag101
ag102
ag101
ag103
asaa(lp199
I6
ag39
(g40
tp200
Rp201
g43
(lp202
g45
ag47
ag45
ag48
ag46
ag46
ag45
ag45
ag46
ag48
ag45
ag45
ag45
ag47
ag45
ag47
ag45
ag45
ag46
ag48
ag46
ag47
ag45
ag48
ag45
ag48
ag46
ag45
ag46
ag48
ag46
ag47
ag45
ag48
asg49
(lp203
I01
aI01
aI01
aI00
aI00
aI00
aI00
aI00
aI01
aI01
aI00
aI00
aI01
aI01
aI01
aI00
aI00
aI00
aI01
aI01
aI01
aI00
aI01
aI00
aI01
aI00
aI00
aI00
aI01
aI01
aI01
aI01
aI01
aI01
asg51
I34
sg52
g55
sg56
(lp204
(g58
I0
g24
tp205
ag115
ag65
ag66
ag68
ag70
ag71
ag119
ag118
ag73
ag76
ag151
ag151
ag77
ag78
ag79
ag85
ag155
ag195
ag126
ag95
ag84
ag85
ag86
ag94
ag86
ag125
ag130
ag195
ag126
ag95
ag84
ag81
ag82
asg99
(lp206
g101
ag52
ag101
ag103
ag52
ag103
ag101
ag101
ag102
ag103
ag101
ag103
ag101
ag52
ag101
ag103
ag101
ag103
ag102
ag103
ag102
ag103
ag101
ag102
ag101
ag103
ag101
ag52
ag102
ag103
ag102
ag52
ag101
ag103
asg104
(lp207
g101
ag52
ag101
ag101
ag52
ag101
ag103
ag102
ag102
ag103
ag103
ag103
ag101
ag52
ag101
ag103
ag103
ag102
ag102
ag103
ag102
ag103
ag101
ag102
ag101
ag101
ag101
ag102
ag102
ag103
ag102
ag52
ag101
ag103
asg106
(lp208
g101
ag52
ag101
ag101
ag52
ag101
ag103
ag102
ag102
ag103
ag103
ag103
ag101
ag52
ag101
ag103
ag103
ag102
ag102
ag103
ag102
ag103
ag101
ag102
ag101
ag101
ag101
ag102
ag102
ag103
ag102
ag52
ag101
ag103
asaa(lp209
I7
ag39
(g40
tp210
Rp211
g43
(lp212
g45
ag47
ag45
ag46
ag48
ag45
ag48
ag45
ag47
ag45
ag47
ag47
ag45
ag47
ag46
ag47
ag45
ag45
ag45
ag45
ag45
ag48
ag46
ag46
ag48
ag45
ag48
ag46
ag48
asg49
(lp213
I01
aI01
aI00
aI01
aI00
aI01
aI01
aI01
aI00
aI01
aI00
aI01
aI01
aI00
aI01
aI01
aI00
aI00
aI00
aI00
aI01
aI00
aI00
aI01
aI00
aI01
aI00
aI01
aI01
asg51
I29
sg52
g55
sg56
(lp214
(g58
I0
g24
tp215
ag115
ag65
ag118
ag73
ag74
ag66
ag76
ag77
ag120
ag77
ag154
ag78
ag79
ag157
ag84
ag81
a(g80
F1.5707963267948966
g62
tp216
ag216
ag216
ag216
ag82
ag133
a(g80
F1.5707963267948966
g67
tp217
ag171
ag131
ag82
ag133
ag171
asg99
(lp218
g101
ag52
ag101
ag102
ag102
ag101
ag103
ag101
ag102
ag101
ag103
ag52
ag101
ag52
ag102
ag52
ag103
ag103
ag103
ag103
ag101
ag101
ag52
ag102
ag102
ag101
ag103
ag102
ag103
asg104
(lp219
g101
ag52
ag102
ag102
ag102
ag101
ag103
ag101
ag102
ag101
ag103
ag52
ag101
ag101
ag102
ag52
ag103
ag103
ag103
ag103
ag101
ag101
ag52
ag102
ag102
ag101
ag101
ag102
ag103
asg106
(lp220
g101
ag52
ag102
ag102
ag102
ag101
ag103
ag101
ag102
ag101
ag103
ag52
ag101
ag101
ag102
ag52
ag103
ag103
ag103
ag103
ag101
ag101
ag52
ag102
ag102
ag101
ag101
ag102
ag103
asaa(lp221
I8
ag39
(g40
tp222
Rp223
g43
(lp224
g45
ag47
ag45
ag48
ag46
ag46
ag46
ag48
ag45
ag48
ag45
ag47
ag45
ag47
ag45
ag48
ag46
ag46
ag45
ag46
ag46
ag48
ag46
ag48
ag46
ag48
ag46
ag46
ag46
ag46
ag48
asg49
(lp225
I01
aI01
aI01
aI00
aI00
aI00
aI01
aI00
aI01
aI01
aI01
aI01
aI01
aI01
aI01
aI00
aI00
aI00
aI00
aI00
aI01
aI00
aI01
aI00
aI01
aI00
aI00
aI00
aI00
aI01
aI01
asg51
I31
sg52
g55
sg56
(lp226
(g58
I0
g24
tp227
ag115
ag65
ag66
ag68
ag70
ag70
ag73
ag74
ag66
ag76
ag77
ag78
ag79
ag81
ag82
ag133
ag217
ag134
ag169
ag170
ag171
ag133
ag171
ag133
ag171
ag133
ag170
ag170
ag170
ag171
asg99
(lp228
g52
ag52
ag101
ag101
ag52
ag52
ag52
ag102
ag101
ag103
ag101
ag52
ag101
ag52
ag101
ag101
ag52
ag102
ag101
ag103
ag102
ag103
ag102
ag103
ag102
ag101
ag52
ag103
ag103
ag102
ag103
asg104
(lp229
g101
ag52
ag101
ag101
ag52
ag52
ag102
ag102
ag101
ag103
ag101
ag52
ag101
ag52
ag101
ag101
ag52
ag101
ag102
ag103
ag102
ag101
ag102
ag101
ag102
ag101
ag103
ag103
ag103
ag102
ag103
asg106
(lp230
g101
ag52
ag101
ag101
ag52
ag52
ag102
ag102
ag101
ag103
ag101
ag52
ag101
ag52
ag101
ag101
ag52
ag101
ag102
ag103
ag102
ag101
ag102
ag101
ag102
ag101
ag103
ag103
ag103
ag102
ag103
asaa(lp231
I9
ag39
(g40
tp232
Rp233
g43
(lp234
g45
ag47
ag45
ag45
ag48
ag46
ag46
ag47
ag45
ag48
ag45
ag48
ag46
ag46
ag47
ag47
ag45
ag45
ag45
ag45
ag47
ag45
ag47
ag45
ag48
ag46
ag48
ag45
ag47
ag45
ag47
ag47
ag45
ag47
ag45
ag47
ag45
ag46
ag46
ag48
ag45
ag48
asg49
(lp235
I01
aI01
aI00
aI01
aI00
aI00
aI01
aI01
aI01
aI00
aI01
aI00
aI00
aI01
aI00
aI00
aI00
aI00
aI00
aI01
aI00
aI01
aI01
aI01
aI00
aI01
aI01
aI01
aI01
aI00
aI00
aI01
aI00
aI01
aI01
aI01
aI00
aI00
aI01
aI00
aI01
aI01
asg51
I42
sg52
g55
sg56
(lp236
(g58
I0
g24
tp237
ag115
ag65
ag72
ag66
ag116
a(g58
I0
g54
tp238
ag63
ag65
ag66
ag74
ag66
ag116
ag61
ag63
ag146
ag117
ag145
ag148
ag145
ag115
ag117
ag115
ag65
ag66
ag68
ag73
ag76
ag77
ag78
ag123
ag154
ag78
ag123
ag78
ag79
ag81
ag169
ag170
ag171
ag131
ag82
asg99
(lp239
g101
ag52
ag52
ag101
ag52
ag52
ag102
ag52
ag101
ag103
ag101
ag52
ag52
ag102
ag102
ag102
ag103
ag52
ag52
ag101
ag103
ag101
ag52
ag101
ag103
ag102
ag103
ag101
ag52
ag103
ag103
ag52
ag103
ag52
ag101
ag52
ag101
ag103
ag102
ag102
ag101
ag103
asg104
(lp240
g101
ag52
ag52
ag101
ag52
ag103
ag102
ag52
ag101
ag102
ag101
ag52
ag52
ag102
ag103
ag102
ag103
ag52
ag103
ag101
ag102
ag101
ag52
ag101
ag101
ag102
ag103
ag101
ag52
ag103
ag103
ag52
ag103
ag52
ag101
ag52
ag102
ag103
ag102
ag102
ag101
ag103
asg106
(lp241
g101
ag52
ag52
ag101
ag52
ag103
ag102
ag52
ag101
ag102
ag101
ag52
ag52
ag102
ag103
ag102
ag103
ag52
ag103
ag101
ag102
ag101
ag52
ag101
ag101
ag102
ag103
ag101
ag52
ag103
ag103
ag52
ag103
ag52
ag101
ag52
ag102
ag103
ag102
ag102
ag101
ag103
asaatp242
Rp243
aatp244
Rp245
.