ccollections
OrderedDict
p0
((lp1
(lp2
S'combination_dict'
p3
ag0
((lp4
(lp5
S'r_to_g_config'
p6
aS'tl'
p7
aa(lp8
S'num_turns'
p9
aI3
aa(lp10
S'start_direction'
p11
acutils_ms
StartDirection
p12
(I1
tp13
Rp14
aa(lp15
S'assistance_type'
p16
acutils_ms
AssistanceType
p17
(I0
tp18
Rp19
aa(lp20
S'start_mode'
p21
aS'x'
p22
aa(lp23
S'ui_given_a_noise'
p24
aF0.7
aa(lp25
S'um_given_ui_noise'
p26
aF0.1
aa(lp27
S'entropy_threshold'
p28
aF0.7
aatp29
Rp30
aa(lp31
S'data'
p32
accollections
defaultdict
p33
(c__builtin__
list
p34
tp35
Rp36
S'a'
p37
(lp38
S'mode_r'
p39
aS'move_p'
p40
ag39
ag40
aS'mode_l'
p41
ag39
ag40
ag41
ag39
ag40
ag39
ag41
ag40
ag40
ag39
aS'move_n'
p42
ag39
ag41
ag41
ag41
ag40
ag39
ag40
ag41
ag41
ag39
ag41
ag39
ag42
ag39
ag39
ag41
ag41
ag41
ag41
ag41
ag40
ag39
ag40
ag41
ag39
ag42
ag39
ag40
ag41
ag39
ag42
ag39
ag39
ag40
ag41
ag41
ag42
ag39
ag40
ag41
ag39
ag40
ag41
ag42
ag39
ag39
ag40
ag41
ag41
ag41
ag41
ag40
ag39
ag39
ag40
ag41
ag42
ag39
ag41
ag42
ag39
ag41
ag42
ag41
ag39
ag42
ag39
ag41
ag39
ag40
ag41
ag40
ag39
ag39
ag41
ag41
ag41
ag40
ag41
ag39
ag40
ag41
ag39
ag42
ag39
ag40
ag41
ag39
ag42
ag41
ag41
ag41
ag42
ag41
ag42
ag39
ag40
ag39
ag40
ag41
ag41
ag41
ag41
ag39
ag42
ag39
ag40
ag41
ag41
ag42
asS'assistance_match_with_ground_truth'
p43
(lp44
I01
aI01
aI01
aI00
aI00
aI01
aI00
aI00
aI01
aI00
aI00
aI01
aI00
aI01
aI01
aI01
aI00
aI00
aI00
aI01
aI00
aI01
aI00
aI00
aI00
aI00
aI00
aI01
aI01
aI00
aI00
aI00
aI00
aI00
aI00
aI01
aI00
aI01
aI01
aI00
aI01
aI00
aI01
aI00
aI00
aI01
aI01
aI00
aI01
aI00
aI00
aI01
aI00
aI01
aI00
aI00
aI01
aI01
aI01
aI01
aI00
aI01
aI00
aI00
aI00
aI00
aI01
aI00
aI00
aI01
aI01
aI01
aI00
aI00
aI01
aI00
aI00
aI01
aI00
aI00
aI01
aI00
aI00
aI00
aI01
aI00
aI01
aI00
aI00
aI00
aI00
aI00
aI01
aI00
aI00
aI01
aI01
aI00
aI01
aI00
aI01
aI00
aI00
aI01
aI00
aI00
aI00
aI01
aI00
aI01
aI01
aI01
aI00
aI01
aI01
aI00
aI00
aI00
aI00
aI01
aI00
aI01
aI01
aI00
aI01
aI01
asS'total_steps'
p45
I126
sS'sp'
p46
(lp47
(S'p0'
p48
I0
S'y'
p49
tp50
a(S'p1'
p51
I0
g49
tp52
a(g51
I0
S't'
p53
tp54
a(g51
I0
S'x'
p55
tp56
a(g51
I0
g49
tp57
ag54
ag56
a(S'p2'
p58
I0
g55
tp59
a(g58
I0
g49
tp60
a(g51
I0
g49
tp61
a(g51
I0
g55
tp62
a(g51
I0
g53
tp63
a(g51
I0
g53
tp64
a(g51
F1.5707963267948966
g53
tp65
a(g51
F1.5707963267948966
g55
tp66
a(g58
F1.5707963267948966
g55
tp67
a(g58
F1.5707963267948966
g53
tp68
a(g58
F1.5707963267948966
g53
tp69
ag69
a(g58
F1.5707963267948966
g49
tp70
a(g58
F1.5707963267948966
g55
tp71
a(g58
F1.5707963267948966
g49
tp72
a(g51
F1.5707963267948966
g49
tp73
a(g51
F1.5707963267948966
g49
tp74
a(g51
F1.5707963267948966
g53
tp75
a(g51
F1.5707963267948966
g49
tp76
ag75
ag66
ag67
a(g58
F1.5707963267948966
g55
tp77
ag68
ag69
ag69
ag69
a(g58
F1.5707963267948966
g53
tp78
ag70
ag71
ag72
a(S'p3'
p79
F1.5707963267948966
g49
tp80
a(g79
F1.5707963267948966
g53
tp81
a(g79
F1.5707963267948966
g55
tp82
a(g58
F1.5707963267948966
g55
tp83
ag72
ag73
ag75
ag66
ag67
a(g58
F1.5707963267948966
g55
tp84
ag72
ag73
a(g51
F1.5707963267948966
g49
tp85
a(g51
F1.5707963267948966
g55
tp86
a(g48
F1.5707963267948966
g55
tp87
a(g48
F1.5707963267948966
g49
tp88
a(g48
F1.5707963267948966
g53
tp89
a(g48
F1.5707963267948966
g55
tp90
ag88
a(g51
F1.5707963267948966
g49
tp91
ag86
ag67
ag77
ag72
a(g58
F1.5707963267948966
g53
tp92
ag69
ag78
ag78
ag70
ag71
ag84
ag72
ag80
a(g79
F1.5707963267948966
g55
tp93
a(g79
F1.5707963267948966
g53
tp94
a(g79
F1.5707963267948966
g49
tp95
ag93
ag94
ag95
ag93
a(g79
F1.5707963267948966
g49
tp96
ag81
ag82
ag83
ag68
a(g58
F1.5707963267948966
g55
tp97
ag72
ag92
ag70
ag71
ag77
ag68
ag69
ag69
ag70
ag92
ag97
ag72
ag80
ag81
ag82
ag83
ag72
ag73
ag75
ag66
a(g51
F1.5707963267948966
g49
tp98
ag74
ag85
ag86
ag98
ag86
ag67
ag72
ag71
ag72
ag80
a(g79
F1.5707963267948966
g49
tp99
ag99
a(g79
F1.5707963267948966
g49
tp100
ag81
ag82
ag83
ag72
ag80
ag100
ag93
a(S'p4'
p101
F1.5707963267948966
g55
tp102
asS's'
p103
(lp104
(g48
I0
g22
tp105
ag50
ag52
ag54
ag56
ag57
ag54
ag56
ag59
ag60
ag61
ag62
ag63
ag64
ag65
ag66
ag67
ag68
ag69
ag69
ag70
ag71
ag72
ag73
ag74
ag75
ag76
ag75
ag66
ag67
ag77
ag68
ag69
ag69
ag69
ag78
ag70
ag71
ag72
ag80
ag81
ag82
ag83
ag72
ag73
ag75
ag66
ag67
ag84
ag72
ag73
ag85
ag86
ag87
ag88
ag89
ag90
ag88
ag91
ag86
ag67
ag77
ag72
ag92
ag69
ag78
ag78
ag70
ag71
ag84
ag72
ag80
ag93
ag94
ag95
ag93
ag94
ag95
ag93
ag96
ag81
ag82
ag83
ag68
ag97
ag72
ag92
ag70
ag71
ag77
ag68
ag69
ag69
ag70
ag92
ag97
ag72
ag80
ag81
ag82
ag83
ag72
ag73
ag75
ag66
ag98
ag74
ag85
ag86
ag98
ag86
ag67
ag72
ag71
ag72
ag80
ag99
ag99
ag100
ag81
ag82
ag83
ag72
ag80
ag100
ag93
asS'ui'
p106
(lp107
S'hp'
p108
ag46
ag108
ag108
ag108
ag108
ag108
aS'ss'
p109
ag108
ag109
aS'hs'
p110
ag109
ag109
ag46
ag108
ag109
ag110
ag109
ag109
ag110
ag110
ag108
ag109
ag109
ag108
ag110
ag108
ag108
ag109
ag46
ag110
ag109
ag109
ag109
ag46
ag110
ag110
ag108
ag46
ag108
ag108
ag46
ag108
ag109
ag108
ag108
ag109
ag109
ag108
ag46
ag46
ag110
ag46
ag108
ag110
ag108
ag108
ag46
ag110
ag109
ag46
ag108
ag109
ag109
ag109
ag46
ag109
ag110
ag109
ag108
ag46
ag110
ag110
ag110
ag110
ag109
ag110
ag110
ag108
ag108
ag108
ag46
ag110
ag108
ag108
ag110
ag110
ag110
ag46
ag110
ag109
ag110
ag110
ag109
ag108
ag108
ag46
ag108
ag108
ag46
ag108
ag109
ag108
ag108
ag46
ag109
ag46
ag110
ag108
ag110
ag109
ag108
ag110
ag110
ag46
ag109
ag109
ag46
ag108
ag108
ag46
ag108
ag46
ag108
ag110
ag109
asS'um_before'
p111
(lp112
g108
ag46
ag108
ag108
ag108
ag108
ag108
ag109
ag108
ag109
ag110
ag110
ag109
ag46
ag108
ag109
ag110
ag109
ag109
ag110
ag110
ag108
ag109
ag109
ag108
ag110
ag108
ag108
ag109
ag46
ag110
ag109
ag109
ag109
ag46
ag110
ag110
ag108
ag46
ag108
ag108
ag46
ag108
ag109
ag108
ag108
ag109
ag109
ag108
ag109
ag46
ag110
ag46
ag108
ag108
ag108
ag108
ag46
ag110
ag109
ag46
ag108
ag108
ag109
ag46
ag46
ag110
ag110
ag109
ag108
ag46
ag110
ag110
ag110
ag110
ag110
ag110
ag110
ag108
ag108
ag108
ag46
ag110
ag108
ag108
ag108
ag110
ag110
ag46
ag110
ag109
ag109
ag110
ag108
ag108
ag108
ag46
ag108
ag108
ag46
ag108
ag109
ag108
ag108
ag108
ag109
ag46
ag110
ag108
ag110
ag109
ag108
ag110
ag108
ag46
ag109
ag109
ag46
ag108
ag108
ag46
ag108
ag46
ag46
ag110
ag109
asS'um_after'
p113
(lp114
g108
ag46
ag108
ag108
ag108
ag108
ag108
ag109
ag108
ag109
ag110
ag110
ag109
ag46
ag108
ag109
ag110
ag109
ag109
ag110
ag110
ag108
ag109
ag109
ag108
ag110
ag108
ag108
ag109
ag46
ag110
ag109
ag109
ag109
ag46
ag110
ag110
ag108
ag46
ag108
ag108
ag46
ag108
ag109
ag108
ag108
ag109
ag109
ag108
ag109
ag46
ag110
ag46
ag108
ag108
ag108
ag108
ag46
ag110
ag109
ag46
ag108
ag108
ag109
ag46
ag46
ag110
ag110
ag109
ag108
ag46
ag110
ag110
ag110
ag110
ag110
ag110
ag110
ag108
ag108
ag108
ag46
ag110
ag108
ag108
ag108
ag110
ag110
ag46
ag110
ag109
ag109
ag110
ag108
ag108
ag108
ag46
ag108
ag108
ag46
ag108
ag109
ag108
ag108
ag108
ag109
ag46
ag110
ag108
ag110
ag109
ag108
ag110
ag108
ag46
ag109
ag109
ag46
ag108
ag108
ag46
ag108
ag46
ag46
ag110
ag109
asaa(lp115
S'index'
p116
aI53422
aatp117
Rp118
.