ccollections
OrderedDict
p0
((lp1
(lp2
S'index'
p3
aI748
aa(lp4
S'combination_dict'
p5
ag0
((lp6
(lp7
S'r_to_g_config'
p8
aS'tr'
p9
aa(lp10
S'num_turns'
p11
aI1
aa(lp12
S'start_direction'
p13
acutils_ms
StartDirection
p14
(I1
tp15
Rp16
aa(lp17
S'assistance_type'
p18
acutils_ms
AssistanceType
p19
(I0
tp20
Rp21
aa(lp22
S'start_mode'
p23
aS'x'
p24
aa(lp25
S'ui_given_a_noise'
p26
aF0.5
aa(lp27
S'um_given_ui_noise'
p28
aF0.5
aa(lp29
S'entropy_threshold'
p30
aF0.9
aa(lp31
S'is_assistance'
p32
aI01
aatp33
Rp34
aa(lp35
S'trials'
p36
ag0
((lp37
(lp38
I0
accollections
defaultdict
p39
(c__builtin__
list
p40
tp41
Rp42
S'a'
p43
(lp44
S'mode_r'
p45
ag45
ag45
ag45
ag45
aS'move_p'
p46
ag45
ag45
ag45
ag45
ag46
ag46
ag45
ag45
ag46
asS'assistance_match_with_ground_truth'
p47
(lp48
I00
aI00
aI00
aI00
aI01
aI01
aI00
aI00
aI00
aI01
aI00
aI01
aI00
aI01
aI01
asS'total_steps'
p49
I15
sS'sp'
p50
(S'p2'
p51
F1.5707963267948966
S'x'
p52
tp53
sS's'
p54
(lp55
(S'p0'
p56
I0
g24
tp57
a(g56
I0
g52
tp58
ag58
ag58
ag58
a(g56
I0
S'y'
p59
tp60
a(S'p1'
p61
I0
g59
tp62
a(g61
I0
g59
tp63
ag63
ag63
a(g61
I0
S't'
p64
tp65
ag65
a(g61
F1.5707963267948966
g64
tp66
ag66
a(g61
F1.5707963267948966
g52
tp67
asS'ui'
p68
(lp69
S'ss'
p70
ag70
aS'hp'
p71
aS'hs'
p72
ag71
ag71
ag70
ag71
ag70
ag71
ag50
ag50
ag72
ag70
ag50
asS'um_before'
p73
(lp74
g70
ag70
ag72
ag70
ag71
ag50
ag70
ag50
ag70
ag71
ag70
ag50
ag50
ag71
ag50
asS'um_after'
p75
(lp76
g70
ag70
aNag70
ag71
ag50
ag70
aNag70
ag71
aNag50
aNag71
ag50
asaa(lp77
I1
ag39
(g40
tp78
Rp79
g43
(lp80
g45
ag45
ag45
ag46
ag45
ag46
ag45
ag46
asg47
(lp81
I00
aI00
aI01
aI01
aI01
aI01
aI01
aI01
asg49
I8
sg50
g53
sg54
(lp82
(g56
I0
g24
tp83
ag83
ag58
ag60
ag62
ag65
ag66
ag67
asg68
(lp84
g70
ag72
ag71
ag70
ag71
ag50
ag71
ag71
asg73
(lp85
g72
ag70
ag71
ag50
ag71
ag50
ag71
ag50
asg75
(lp86
Nag70
ag71
ag50
ag71
ag50
ag71
ag50
asaa(lp87
I2
ag39
(g40
tp88
Rp89
g43
(lp90
g45
ag45
ag45
ag46
ag46
ag45
ag45
ag46
aS'mode_l'
p91
ag46
ag45
ag45
ag46
ag45
ag46
ag45
ag46
ag91
ag91
ag46
ag46
ag45
ag46
asg47
(lp92
I00
aI00
aI01
aI00
aI01
aI00
aI01
aI00
aI01
aI00
aI00
aI01
aI01
aI00
aI01
aI01
aI00
aI00
aI01
aI00
aI00
aI01
aI01
asg49
I23
sg50
g53
sg54
(lp93
(g56
I0
g24
tp94
ag94
ag94
ag60
ag60
ag62
ag62
ag65
a(g61
I0
g52
tp95
a(g61
I0
g64
tp96
a(g61
I0
g59
tp97
ag97
ag65
ag66
a(g61
I0
g64
tp98
ag66
ag67
a(g61
F1.5707963267948966
g59
tp99
ag99
a(g61
F1.5707963267948966
g52
tp100
ag100
a(g61
F1.5707963267948966
g64
tp101
ag67
asg68
(lp102
g70
ag72
ag71
ag70
ag50
ag72
ag71
ag71
ag72
ag50
ag71
ag71
ag71
ag70
ag50
ag71
ag71
ag72
ag72
ag70
ag50
ag71
ag50
asg73
(lp103
g72
ag72
ag71
ag70
ag50
ag72
ag71
ag71
ag72
ag72
ag50
ag71
ag50
ag70
ag50
ag71
ag71
ag50
ag72
ag70
ag72
ag71
ag50
asg75
(lp104
NaNag71
aNag50
aNag71
ag71
ag72
ag72
aNag71
ag50
ag70
ag50
ag71
ag71
aNag72
aNag72
ag71
ag50
asaa(lp105
I3
ag39
(g40
tp106
Rp107
g43
(lp108
g45
ag46
ag46
ag45
ag45
ag46
ag46
ag46
ag46
ag91
ag91
ag46
ag45
ag45
ag45
ag46
ag46
ag45
ag45
ag45
ag45
ag45
ag45
ag45
ag45
ag45
ag45
ag46
ag45
ag46
asg47
(lp109
I01
aI00
aI00
aI00
aI01
aI00
aI00
aI00
aI00
aI00
aI01
aI00
aI00
aI00
aI01
aI00
aI01
aI00
aI00
aI00
aI00
aI00
aI00
aI00
aI00
aI00
aI01
aI01
aI01
aI01
asg49
I30
sg50
g53
sg54
(lp110
(g56
I0
g24
tp111
ag60
ag60
a(g56
I0
g52
tp112
ag58
ag60
ag60
ag60
ag60
a(g56
I0
g64
tp113
ag113
a(g56
I0
g59
tp114
ag112
ag112
ag112
ag60
ag60
ag62
ag62
ag62
ag63
ag63
ag63
ag63
ag63
ag63
ag63
ag65
ag66
ag67
asg68
(lp115
g71
ag50
ag72
ag70
ag71
ag71
ag72
ag50
ag71
ag70
ag72
ag50
ag50
ag72
ag71
ag50
ag50
ag71
ag70
ag71
ag70
ag71
ag71
ag71
ag72
ag72
ag71
ag72
ag72
ag50
asg73
(lp116
g71
ag70
ag72
ag70
ag71
ag70
ag70
ag70
ag71
ag71
ag72
ag72
ag50
ag72
ag71
ag70
ag50
ag72
ag72
ag70
ag72
ag70
ag50
ag50
ag72
ag70
ag71
ag50
ag71
ag50
asg75
(lp117
g71
aNag72
ag70
ag71
aNaNaNag71
aNag72
ag72
aNaNag71
aNag50
aNaNag70
aNag70
aNaNaNag70
ag71
ag50
ag71
ag50
asaa(lp118
I4
ag39
(g40
tp119
Rp120
g43
(lp121
g45
ag45
ag45
ag46
ag46
ag45
ag45
ag46
ag45
ag45
ag45
ag45
ag45
ag46
ag46
ag45
ag46
ag46
ag45
ag46
asg47
(lp122
I00
aI00
aI01
aI00
aI01
aI00
aI01
aI00
aI00
aI00
aI00
aI00
aI01
aI00
aI01
aI01
aI00
aI00
aI01
aI01
asg49
I20
sg50
g53
sg54
(lp123
(g56
I0
g24
tp124
ag124
ag58
ag60
ag60
ag62
ag63
ag65
ag97
ag97
ag63
ag63
ag63
ag65
ag65
ag66
ag67
ag67
ag101
ag67
asg68
(lp125
g71
ag70
ag70
ag50
ag50
ag70
ag71
ag72
ag71
ag70
ag50
ag50
ag70
ag72
ag71
ag71
ag50
ag50
ag71
ag71
asg73
(lp126
g72
ag70
ag71
ag70
ag50
ag70
ag71
ag72
ag72
ag70
ag50
ag72
ag71
ag70
ag50
ag71
ag70
ag72
ag71
ag50
asg75
(lp127
Nag70
ag71
aNag50
ag70
ag71
ag72
aNag70
aNaNag71
aNag50
ag71
aNag72
ag71
ag50
asaa(lp128
I5
ag39
(g40
tp129
Rp130
g43
(lp131
g45
ag46
ag45
ag46
ag45
ag45
ag45
ag46
ag45
ag45
ag45
ag46
asg47
(lp132
I01
aI01
aI01
aI00
aI00
aI00
aI01
aI01
aI00
aI00
aI01
aI01
asg49
I12
sg50
g53
sg54
(lp133
(g56
I0
g24
tp134
ag60
ag62
ag65
ag97
ag97
ag97
ag65
ag66
ag66
ag66
ag67
asg68
(lp135
g71
ag50
ag71
ag70
ag70
ag72
ag71
ag70
ag71
ag70
ag71
ag50
asg73
(lp136
g71
ag50
ag71
ag72
ag72
ag72
ag71
ag50
ag50
ag72
ag71
ag50
asg75
(lp137
g71
ag50
ag71
ag72
aNaNag71
ag50
aNaNag71
ag50
asaa(lp138
I6
ag39
(g40
tp139
Rp140
g43
(lp141
g45
ag46
ag46
ag91
ag91
ag91
ag46
ag45
ag45
ag46
ag46
ag45
ag45
ag46
ag46
asg47
(lp142
I01
aI00
aI00
aI00
aI00
aI01
aI01
aI00
aI01
aI00
aI01
aI00
aI01
aI00
aI01
asg49
I15
sg50
g53
sg54
(lp143
(g56
I0
g24
tp144
ag60
ag60
ag113
ag113
ag113
ag114
ag62
ag63
ag65
ag65
ag66
ag66
ag67
ag67
asg68
(lp145
g71
ag70
ag71
ag72
ag72
ag70
ag71
ag70
ag70
ag50
ag50
ag70
ag71
ag50
ag71
asg73
(lp146
g71
ag70
ag71
ag70
ag70
ag72
ag50
ag70
ag71
ag70
ag50
ag50
ag71
ag70
ag50
asg75
(lp147
g71
aNag71
aNaNag72
ag50
ag70
ag71
aNag50
aNag71
aNag50
asaa(lp148
I7
ag39
(g40
tp149
Rp150
g43
(lp151
g45
ag46
ag91
ag91
ag91
ag91
ag91
ag91
ag91
ag91
ag46
ag45
ag45
ag45
ag45
ag46
ag45
ag45
ag46
ag46
ag45
ag46
ag45
ag45
ag46
asg47
(lp152
I01
aI00
aI00
aI00
aI00
aI00
aI00
aI00
aI00
aI01
aI00
aI00
aI00
aI00
aI01
aI01
aI00
aI01
aI00
aI01
aI01
aI00
aI00
aI01
aI01
asg49
I25
sg50
g53
sg54
(lp153
(g56
I0
g24
tp154
ag60
ag113
ag113
ag113
ag113
ag113
ag113
ag113
ag113
ag114
ag112
ag112
ag112
ag112
ag60
ag62
ag63
ag65
ag65
ag66
ag67
ag101
ag101
ag67
asg68
(lp155
g71
ag71
ag71
ag72
ag72
ag72
ag70
ag72
ag70
ag72
ag70
ag71
ag71
ag71
ag71
ag50
ag50
ag71
ag50
ag71
ag71
ag71
ag71
ag71
ag50
asg73
(lp156
g71
ag71
ag71
ag71
ag50
ag70
ag50
ag71
ag70
ag72
ag72
ag50
ag50
ag72
ag71
ag50
ag70
ag71
ag70
ag50
ag71
ag72
ag72
ag71
ag50
asg75
(lp157
g71
ag71
aNaNaNaNaNaNaNag72
ag72
aNaNaNag71
ag50
ag70
ag71
aNag50
ag71
ag72
aNag71
ag50
asaa(lp158
I8
ag39
(g40
tp159
Rp160
g43
(lp161
g45
ag45
ag46
ag46
ag91
ag91
ag91
ag91
ag46
ag46
ag91
ag46
ag46
ag46
ag46
ag46
ag91
ag91
ag91
ag46
ag45
ag46
ag46
ag45
ag45
ag45
ag45
ag46
asg47
(lp162
I00
aI01
aI00
aI00
aI00
aI00
aI00
aI01
aI00
aI00
aI01
aI00
aI00
aI00
aI00
aI00
aI00
aI00
aI01
aI01
aI01
aI00
aI01
aI00
aI00
aI00
aI01
aI01
asg49
I28
sg50
g53
sg54
(lp163
(g56
I0
g24
tp164
ag164
ag60
ag60
ag113
ag113
ag113
ag113
ag114
ag114
ag113
ag114
ag114
ag114
ag114
ag114
ag113
ag113
ag113
ag114
ag62
ag65
ag65
ag66
ag66
ag66
ag66
ag67
asg68
(lp165
g71
ag71
ag50
ag50
ag72
ag70
ag72
ag72
ag50
ag71
ag72
ag70
ag70
ag70
ag72
ag50
ag72
ag70
ag72
ag50
ag71
ag70
ag50
ag71
ag71
ag72
ag71
ag50
asg73
(lp166
g50
ag71
ag70
ag71
ag71
ag70
ag70
ag72
ag70
ag71
ag72
ag70
ag70
ag70
ag70
ag71
ag70
ag70
ag72
ag50
ag71
ag70
ag50
ag50
ag72
ag72
ag71
ag50
asg75
(lp167
Nag71
aNag71
aNaNaNag72
aNag71
ag72
aNaNaNaNag71
aNaNag72
ag50
ag71
aNag50
aNaNaNag71
ag50
asaa(lp168
I9
ag39
(g40
tp169
Rp170
g43
(lp171
g45
ag46
ag91
ag46
ag45
ag45
ag45
ag45
ag46
ag46
ag46
ag45
ag46
ag46
ag46
ag45
ag46
ag45
ag46
ag46
ag45
ag46
ag91
ag91
ag46
ag45
ag45
ag46
asg47
(lp172
I01
aI00
aI01
aI00
aI00
aI00
aI00
aI01
aI00
aI00
aI01
aI01
aI00
aI00
aI01
aI00
aI00
aI01
aI00
aI00
aI01
aI00
aI00
aI01
aI01
aI00
aI01
aI01
asg49
I28
sg50
g53
sg54
(lp173
(g56
I0
g24
tp174
ag60
ag113
ag114
ag112
ag112
ag112
ag112
ag60
ag60
ag60
ag62
ag65
ag65
ag65
ag66
ag98
ag97
ag65
ag65
ag97
ag65
ag95
ag95
ag96
ag66
ag66
ag67
asg68
(lp175
g71
ag50
ag72
ag50
ag71
ag50
ag71
ag70
ag70
ag70
ag71
ag71
ag70
ag50
ag71
ag70
ag50
ag71
ag70
ag71
ag71
ag50
ag71
ag72
ag71
ag72
ag71
ag50
asg73
(lp176
g71
ag71
ag72
ag72
ag50
ag50
ag50
ag71
ag70
ag70
ag50
ag71
ag70
ag70
ag50
ag70
ag72
ag71
ag70
ag72
ag71
ag71
ag71
ag72
ag50
ag72
ag71
ag50
asg75
(lp177
g71
ag71
ag72
ag72
aNaNaNag71
aNaNag50
ag71
aNaNag50
ag70
ag72
ag71
aNag72
ag71
ag71
aNag72
ag50
aNag71
ag50
asaatp178
Rp179
aatp180
Rp181
.