ccollections
OrderedDict
p0
((lp1
(lp2
S'index'
p3
aI4715
aa(lp4
S'combination_dict'
p5
ag0
((lp6
(lp7
S'r_to_g_config'
p8
aS'tl'
p9
aa(lp10
S'num_turns'
p11
aI1
aa(lp12
S'start_direction'
p13
acutils_ms
StartDirection
p14
(I1
tp15
Rp16
aa(lp17
S'assistance_type'
p18
acutils_ms
AssistanceType
p19
(I0
tp20
Rp21
aa(lp22
S'start_mode'
p23
aS't'
p24
aa(lp25
S'ui_given_a_noise'
p26
aF0.3
aa(lp27
S'um_given_ui_noise'
p28
aF0.7
aa(lp29
S'entropy_threshold'
p30
aF0.7
aa(lp31
S'is_assistance'
p32
aI00
aatp33
Rp34
aa(lp35
S'trials'
p36
ag0
((lp37
(lp38
I0
accollections
defaultdict
p39
(c__builtin__
list
p40
tp41
Rp42
S'a'
p43
(lp44
S'mode_l'
p45
ag45
ag45
aS'mode_r'
p46
aS'move_p'
p47
ag47
ag46
ag47
ag45
ag47
ag47
ag46
ag45
asS'assistance_match_with_ground_truth'
p48
(lp49
I00
aI00
aI00
aI01
aI00
aI00
aI01
aI00
aI01
aI00
aI01
aI00
aI00
asS'total_steps'
p50
I13
sS'sp'
p51
(S'p2'
p52
I0
S'x'
p53
tp54
sS's'
p55
(lp56
(S'p0'
p57
I0
g24
tp58
a(g57
I0
S't'
p59
tp60
a(g57
I0
g59
tp61
a(g57
I0
g53
tp62
a(g57
I0
S'y'
p63
tp64
a(g57
I0
g63
tp65
a(g57
I0
g53
tp66
ag64
a(g57
I0
g59
tp67
a(g57
I0
g63
tp68
ag65
a(S'p1'
p69
I0
g63
tp70
a(g69
I0
g53
tp71
asS'ui'
p72
(lp73
S'hs'
p74
aS'ss'
p75
aS'hp'
p76
ag76
ag74
ag51
ag76
ag51
ag74
ag75
ag51
ag75
ag75
asS'um_before'
p77
(lp78
g51
ag75
ag76
ag76
ag75
ag74
ag76
ag76
ag74
ag75
ag51
ag74
ag75
asS'um_after'
p79
(lp80
g51
ag75
ag76
ag76
ag75
ag74
ag76
ag76
ag74
ag75
ag51
ag74
ag75
asaa(lp81
I1
ag39
(g40
tp82
Rp83
g43
(lp84
g45
ag45
ag45
ag45
ag47
ag47
ag47
ag46
ag47
ag47
ag45
ag47
ag46
ag47
ag45
ag47
ag46
aS'move_n'
p85
asg48
(lp86
I00
aI00
aI00
aI01
aI00
aI00
aI00
aI01
aI00
aI00
aI01
aI01
aI01
aI00
aI01
aI01
aI01
aI01
asg50
I18
sg51
(g52
F1.5707963267948966
g53
tp87
sg55
(lp88
(g57
I0
g24
tp89
ag61
ag60
ag60
ag68
ag65
ag65
ag66
ag64
ag65
ag67
ag68
ag70
a(g69
I0
g59
tp90
a(g69
I0
g53
tp91
a(g69
I0
g59
tp92
a(g69
F1.5707963267948966
g59
tp93
a(g69
F1.5707963267948966
g53
tp94
asg72
(lp95
g76
ag74
ag75
ag74
ag76
ag74
ag51
ag76
ag74
ag51
ag74
ag51
ag76
ag51
ag76
ag51
ag76
ag75
asg77
(lp96
g75
ag51
ag51
ag74
ag75
ag75
ag74
ag76
ag75
ag76
ag74
ag51
ag76
ag76
ag74
ag51
ag76
ag75
asg79
(lp97
g75
ag51
ag51
ag74
ag75
ag75
ag74
ag76
ag75
ag76
ag74
ag51
ag76
ag76
ag74
ag51
ag76
ag75
asaa(lp98
I2
ag39
(g40
tp99
Rp100
g43
(lp101
g45
ag45
ag47
ag45
ag45
ag46
ag46
ag47
ag46
ag46
ag45
ag45
ag45
ag45
ag45
ag47
ag46
ag46
ag46
ag46
ag47
ag46
ag47
ag46
ag47
ag45
asg48
(lp102
I00
aI01
aI00
aI00
aI00
aI00
aI01
aI00
aI00
aI00
aI00
aI00
aI00
aI00
aI01
aI01
aI00
aI00
aI00
aI01
aI00
aI01
aI01
aI00
aI00
aI00
asg50
I26
sg51
g54
sg55
(lp103
(g57
I0
g24
tp104
ag60
ag68
ag67
ag60
ag62
a(g57
I0
g53
tp105
ag64
ag66
ag105
a(g57
I0
g59
tp106
ag60
ag60
ag60
ag61
ag68
ag70
a(g69
I0
g63
tp107
ag107
ag107
ag90
a(g69
I0
g63
tp108
ag90
ag93
a(g69
I0
g59
tp109
ag91
asg72
(lp110
g51
ag74
ag76
ag74
ag76
ag74
ag51
ag51
ag74
ag76
ag75
ag74
ag74
ag74
ag74
ag51
ag76
ag76
ag76
ag76
ag75
ag76
ag51
ag75
ag75
ag75
asg77
(lp111
g51
ag74
ag76
ag51
ag76
ag75
ag76
ag74
ag75
ag74
ag51
ag51
ag51
ag75
ag74
ag51
ag75
ag75
ag75
ag76
ag74
ag76
ag51
ag75
ag76
ag75
asg79
(lp112
g51
ag74
ag76
ag51
ag76
ag75
ag76
ag74
ag75
ag74
ag51
ag51
ag51
ag75
ag74
ag51
ag75
ag75
ag75
ag76
ag74
ag76
ag51
ag75
ag76
ag75
asaa(lp113
I3
ag39
(g40
tp114
Rp115
g43
(lp116
g45
ag45
ag45
ag45
ag45
ag45
ag45
ag45
ag46
ag45
ag47
ag45
ag47
ag46
ag46
ag46
ag47
ag45
ag47
ag46
ag46
ag47
ag47
ag45
ag47
ag46
ag47
ag45
asg48
(lp117
I00
aI00
aI00
aI00
aI00
aI00
aI00
aI00
aI00
aI01
aI00
aI01
aI00
aI00
aI00
aI01
aI00
aI01
aI01
aI00
aI01
aI00
aI00
aI01
aI00
aI01
aI00
aI00
asg50
I28
sg51
g54
sg55
(lp118
(g57
I0
g24
tp119
ag60
ag60
ag61
ag61
ag61
ag61
ag60
ag62
ag106
ag68
ag67
ag68
ag66
a(g57
I0
g53
tp120
ag120
ag64
ag67
ag68
ag70
ag107
ag90
a(g69
I0
g59
tp121
ag91
ag92
ag108
ag90
ag91
asg72
(lp122
g74
ag76
ag76
ag74
ag75
ag74
ag74
ag76
ag76
ag74
ag76
ag74
ag51
ag75
ag74
ag76
ag75
ag74
ag51
ag75
ag76
ag74
ag51
ag74
ag51
ag76
ag51
ag74
asg77
(lp123
g51
ag51
ag75
ag75
ag75
ag75
ag51
ag76
ag74
ag74
ag76
ag74
ag74
ag51
ag51
ag76
ag76
ag74
ag51
ag75
ag76
ag75
ag76
ag74
ag74
ag76
ag76
ag75
asg79
(lp124
g51
ag51
ag75
ag75
ag75
ag75
ag51
ag76
ag74
ag74
ag76
ag74
ag74
ag51
ag51
ag76
ag76
ag74
ag51
ag75
ag76
ag75
ag76
ag74
ag74
ag76
ag76
ag75
asaa(lp125
I4
ag39
(g40
tp126
Rp127
g43
(lp128
g45
ag45
ag45
ag47
ag46
ag47
ag46
ag47
ag45
ag47
ag45
ag46
ag46
ag47
ag47
ag47
ag46
ag47
ag46
ag47
ag46
ag45
ag45
ag85
ag45
ag46
ag85
ag45
ag85
ag46
ag45
ag45
ag45
ag45
ag45
ag45
ag46
ag46
ag85
asg48
(lp129
I00
aI00
aI01
aI00
aI01
aI01
aI01
aI00
aI01
aI00
aI00
aI00
aI01
aI00
aI00
aI01
aI01
aI01
aI00
aI01
aI00
aI00
aI01
aI00
aI00
aI01
aI00
aI01
aI00
aI00
aI00
aI00
aI00
aI00
aI00
aI00
aI00
aI01
aI01
asg50
I39
sg51
g87
sg55
(lp130
(g57
I0
g24
tp131
ag60
ag61
ag68
ag66
ag64
ag70
ag90
ag91
ag92
ag91
a(g57
I0
g53
tp132
ag105
ag64
ag65
ag65
ag70
ag90
ag93
ag109
ag93
a(g69
F1.5707963267948966
g63
tp133
a(g69
F1.5707963267948966
g63
tp134
a(g69
F1.5707963267948966
g53
tp135
a(g69
F1.5707963267948966
g63
tp136
a(g69
F1.5707963267948966
g59
tp137
ag94
ag136
ag135
a(g69
F1.5707963267948966
g59
tp138
ag133
a(g69
F1.5707963267948966
g63
tp139
ag139
ag134
ag139
ag134
ag137
a(g69
F1.5707963267948966
g59
tp140
ag94
asg72
(lp141
g75
ag74
ag74
ag51
ag75
ag51
ag76
ag51
ag74
ag76
ag74
ag75
ag76
ag76
ag74
ag74
ag74
ag51
ag74
ag74
ag76
ag74
ag74
ag75
ag76
ag74
ag76
ag74
ag75
ag76
ag75
ag74
ag74
ag75
ag74
ag76
ag76
ag51
ag75
asg77
(lp142
g51
ag75
ag74
ag74
ag76
ag51
ag76
ag76
ag74
ag76
ag51
ag75
ag76
ag75
ag75
ag51
ag76
ag51
ag75
ag51
ag74
ag51
ag74
ag76
ag76
ag76
ag76
ag74
ag74
ag74
ag75
ag75
ag51
ag75
ag51
ag76
ag51
ag76
ag75
asg79
(lp143
g51
ag75
ag74
ag74
ag76
ag51
ag76
ag76
ag74
ag76
ag51
ag75
ag76
ag75
ag75
ag51
ag76
ag51
ag75
ag51
ag74
ag51
ag74
ag76
ag76
ag76
ag76
ag74
ag74
ag74
ag75
ag75
ag51
ag75
ag51
ag76
ag51
ag76
ag75
asaa(lp144
I5
ag39
(g40
tp145
Rp146
g43
(lp147
g45
ag46
ag47
ag47
ag45
ag47
ag46
ag46
ag47
ag46
ag47
ag46
ag47
ag47
ag46
ag45
asg48
(lp148
I00
aI01
aI00
aI00
aI01
aI01
aI00
aI01
aI01
aI00
aI01
aI00
aI00
aI00
aI00
aI00
asg50
I16
sg51
g54
sg55
(lp149
(g57
I0
g24
tp150
ag62
ag64
ag65
ag67
ag68
ag70
ag107
ag90
ag93
ag109
ag93
ag109
ag121
ag108
ag71
asg72
(lp151
g74
ag76
ag75
ag76
ag74
ag51
ag76
ag76
ag51
ag76
ag51
ag74
ag76
ag74
ag74
ag75
asg77
(lp152
g76
ag76
ag75
ag76
ag74
ag51
ag75
ag76
ag51
ag75
ag51
ag75
ag75
ag74
ag74
ag75
asg79
(lp153
g76
ag76
ag75
ag76
ag74
ag51
ag75
ag76
ag51
ag75
ag51
ag75
ag75
ag74
ag74
ag75
asaa(lp154
I6
ag39
(g40
tp155
Rp156
g43
(lp157
g45
ag47
ag45
ag45
ag45
ag47
ag46
ag46
ag46
ag45
ag46
ag47
ag46
ag45
ag85
ag46
ag46
ag45
ag45
ag45
ag47
ag45
ag45
ag46
ag45
ag47
ag45
ag45
ag45
ag47
ag45
ag47
ag45
ag47
ag47
ag46
ag45
ag45
ag46
ag45
ag47
ag47
ag45
ag45
ag45
ag45
ag85
ag46
ag85
asg48
(lp158
I01
aI00
aI00
aI00
aI01
aI01
aI00
aI00
aI00
aI00
aI01
aI01
aI00
aI01
aI00
aI00
aI00
aI00
aI00
aI01
aI00
aI00
aI00
aI00
aI01
aI00
aI00
aI00
aI01
aI00
aI01
aI00
aI01
aI00
aI00
aI00
aI00
aI00
aI00
aI01
aI00
aI01
aI00
aI00
aI00
aI01
aI00
aI01
aI01
asg50
I49
sg51
g87
sg55
(lp159
(g57
I0
g24
tp160
ag68
ag67
ag61
ag61
ag68
ag70
ag107
ag107
ag71
a(g69
I0
g63
tp161
ag90
ag93
ag133
ag135
a(g57
F1.5707963267948966
g53
tp162
a(g57
F1.5707963267948966
g53
tp163
a(g57
F1.5707963267948966
g59
tp164
a(g57
F1.5707963267948966
g59
tp165
ag165
a(g57
F1.5707963267948966
g63
tp166
a(g57
F1.5707963267948966
g59
tp167
a(g57
F1.5707963267948966
g59
tp168
a(g57
F1.5707963267948966
g53
tp169
ag164
ag166
ag167
ag165
ag165
ag166
ag167
ag166
ag167
ag166
a(g57
F1.5707963267948966
g63
tp170
a(g57
F1.5707963267948966
g53
tp171
ag164
ag165
ag169
ag164
ag166
ag170
a(g69
F1.5707963267948966
g63
tp172
ag134
ag139
ag134
ag135
ag138
ag94
asg72
(lp173
g74
ag76
ag75
ag75
ag75
ag51
ag75
ag75
ag75
ag76
ag74
ag51
ag74
ag74
ag75
ag75
ag51
ag75
ag74
ag74
ag51
ag74
ag74
ag74
ag74
ag75
ag75
ag75
ag74
ag51
ag74
ag51
ag74
ag75
ag74
ag76
ag74
ag75
ag74
ag74
ag74
ag51
ag74
ag74
ag74
ag75
ag75
ag76
ag75
asg77
(lp174
g74
ag76
ag75
ag75
ag74
ag51
ag75
ag75
ag74
ag76
ag76
ag51
ag74
ag74
ag51
ag75
ag74
ag75
ag75
ag74
ag76
ag51
ag76
ag74
ag74
ag76
ag75
ag75
ag74
ag76
ag74
ag76
ag74
ag75
ag74
ag74
ag75
ag76
ag74
ag74
ag75
ag51
ag51
ag75
ag51
ag74
ag74
ag76
ag75
asg79
(lp175
g74
ag76
ag75
ag75
ag74
ag51
ag75
ag75
ag74
ag76
ag76
ag51
ag74
ag74
ag51
ag75
ag74
ag75
ag75
ag74
ag76
ag51
ag76
ag74
ag74
ag76
ag75
ag75
ag74
ag76
ag74
ag76
ag74
ag75
ag74
ag74
ag75
ag76
ag74
ag74
ag75
ag51
ag51
ag75
ag51
ag74
ag74
ag76
ag75
asaa(lp176
I7
ag39
(g40
tp177
Rp178
g43
(lp179
g45
ag45
ag46
ag47
ag46
ag45
ag46
ag47
ag46
ag47
ag47
ag46
ag85
ag45
ag46
ag47
ag47
ag45
asg48
(lp180
I00
aI00
aI01
aI01
aI00
aI00
aI01
aI00
aI01
aI00
aI01
aI01
aI00
aI00
aI00
aI00
aI00
aI00
asg50
I18
sg51
g54
sg55
(lp181
(g57
I0
g24
tp182
ag61
ag62
ag64
ag70
ag71
ag161
ag90
ag108
ag90
ag121
ag93
ag94
ag136
ag137
ag109
ag121
ag91
asg72
(lp183
g74
ag51
ag76
ag51
ag75
ag76
ag75
ag51
ag76
ag75
ag51
ag76
ag75
ag74
ag76
ag75
ag51
ag74
asg77
(lp184
g75
ag76
ag76
ag51
ag74
ag76
ag76
ag74
ag76
ag75
ag51
ag76
ag76
ag76
ag75
ag75
ag76
ag75
asg79
(lp185
g75
ag76
ag76
ag51
ag74
ag76
ag76
ag74
ag76
ag75
ag51
ag76
ag76
ag76
ag75
ag75
ag76
ag75
asaa(lp186
I8
ag39
(g40
tp187
Rp188
g43
(lp189
g45
ag45
ag47
ag46
ag47
ag45
ag45
ag45
ag47
ag46
ag47
ag46
ag46
ag47
ag46
ag47
ag45
ag46
ag46
ag47
ag46
ag85
ag46
ag47
ag46
ag47
ag46
ag47
ag46
ag46
ag46
ag47
ag46
ag46
ag47
ag45
ag45
ag45
ag85
asg48
(lp190
I00
aI01
aI00
aI01
aI00
aI00
aI00
aI01
aI00
aI01
aI01
aI00
aI01
aI00
aI01
aI00
aI00
aI00
aI01
aI01
aI01
aI00
aI01
aI00
aI01
aI00
aI01
aI00
aI00
aI00
aI01
aI00
aI00
aI01
aI01
aI00
aI00
aI01
aI01
asg50
I39
sg51
g87
sg55
(lp191
(g57
I0
g24
tp192
ag60
ag68
ag66
ag64
ag67
ag61
ag60
ag68
ag66
ag64
ag70
a(g69
I0
g63
tp193
ag90
ag108
ag90
ag91
ag161
ag193
ag90
ag93
ag94
ag162
a(g57
F1.5707963267948966
g63
tp194
ag171
ag194
ag171
ag194
ag171
ag163
a(g57
F1.5707963267948966
g53
tp195
ag194
ag171
ag163
ag194
ag172
ag139
ag134
ag135
asg72
(lp196
g74
ag74
ag75
ag51
ag51
ag75
ag74
ag74
ag51
ag76
ag51
ag75
ag76
ag74
ag76
ag51
ag76
ag76
ag76
ag51
ag75
ag75
ag75
ag51
ag75
ag51
ag76
ag74
ag76
ag51
ag76
ag75
ag76
ag76
ag51
ag76
ag51
ag74
ag75
asg77
(lp197
g51
ag74
ag74
ag76
ag76
ag75
ag51
ag74
ag74
ag76
ag51
ag51
ag76
ag74
ag76
ag76
ag76
ag51
ag76
ag51
ag76
ag51
ag76
ag74
ag76
ag74
ag76
ag74
ag75
ag51
ag76
ag74
ag75
ag76
ag51
ag75
ag51
ag74
ag75
asg79
(lp198
g51
ag74
ag74
ag76
ag76
ag75
ag51
ag74
ag74
ag76
ag51
ag51
ag76
ag74
ag76
ag76
ag76
ag51
ag76
ag51
ag76
ag51
ag76
ag74
ag76
ag74
ag76
ag74
ag75
ag51
ag76
ag74
ag75
ag76
ag51
ag75
ag51
ag74
ag75
asaa(lp199
I9
ag39
(g40
tp200
Rp201
g43
(lp202
g45
ag45
ag46
ag45
ag45
ag45
ag46
ag46
ag47
ag47
ag47
ag45
ag45
ag45
ag45
ag47
ag47
ag45
ag45
ag47
ag46
ag46
ag47
ag46
ag47
ag46
ag47
ag46
ag47
ag46
ag45
ag46
ag85
asg48
(lp203
I00
aI00
aI00
aI00
aI00
aI00
aI00
aI01
aI00
aI00
aI00
aI00
aI00
aI00
aI01
aI00
aI00
aI00
aI01
aI00
aI00
aI01
aI01
aI01
aI00
aI01
aI01
aI00
aI01
aI00
aI00
aI01
aI01
asg50
I33
sg51
g87
sg55
(lp204
(g57
I0
g24
tp205
ag61
ag62
ag106
ag61
ag61
ag62
ag120
ag64
ag65
ag65
ag67
ag60
ag61
ag61
ag68
ag65
ag67
ag61
ag68
ag66
ag105
ag64
ag70
ag90
ag108
ag90
ag93
ag109
ag93
ag133
ag137
ag94
asg72
(lp206
g74
ag74
ag76
ag74
ag74
ag76
ag76
ag76
ag74
ag75
ag76
ag74
ag74
ag75
ag74
ag75
ag74
ag74
ag74
ag76
ag76
ag76
ag51
ag76
ag75
ag76
ag51
ag76
ag51
ag74
ag74
ag76
ag74
asg77
(lp207
g75
ag76
ag74
ag75
ag75
ag76
ag51
ag76
ag75
ag75
ag76
ag51
ag75
ag75
ag74
ag75
ag76
ag75
ag74
ag74
ag75
ag76
ag51
ag76
ag74
ag76
ag51
ag75
ag51
ag74
ag76
ag76
ag75
asg79
(lp208
g75
ag76
ag74
ag75
ag75
ag76
ag51
ag76
ag75
ag75
ag76
ag51
ag75
ag75
ag74
ag75
ag76
ag75
ag74
ag74
ag75
ag76
ag51
ag76
ag74
ag76
ag51
ag75
ag51
ag74
ag76
ag76
ag75
asaatp209
Rp210
aatp211
Rp212
.