ccollections
OrderedDict
p0
((lp1
(lp2
S'combination_dict'
p3
ag0
((lp4
(lp5
S'r_to_g_config'
p6
aS'tl'
p7
aa(lp8
S'num_turns'
p9
aI3
aa(lp10
S'start_direction'
p11
acutils_ms
StartDirection
p12
(I0
tp13
Rp14
aa(lp15
S'assistance_type'
p16
acutils_ms
AssistanceType
p17
(I2
tp18
Rp19
aa(lp20
S'start_mode'
p21
aS't'
p22
aa(lp23
S'ui_given_a_noise'
p24
aF0.7
aa(lp25
S'um_given_ui_noise'
p26
aF0.3
aa(lp27
S'entropy_threshold'
p28
aF0.7
aatp29
Rp30
aa(lp31
S'data'
p32
accollections
defaultdict
p33
(c__builtin__
list
p34
tp35
Rp36
S'a'
p37
(lp38
S'mode_r'
p39
ag39
ag39
aS'move_n'
p40
ag39
ag39
aS'move_p'
p41
aS'mode_l'
p42
ag41
ag42
ag42
ag42
ag42
ag40
ag40
ag39
ag42
ag41
ag39
ag41
ag39
ag41
ag39
ag41
ag39
ag41
ag39
ag41
ag39
ag40
ag39
ag41
ag42
ag40
ag39
ag41
ag42
ag40
ag39
ag39
ag39
ag42
ag42
ag42
ag42
ag42
ag40
ag39
ag42
ag39
ag40
ag42
ag42
ag40
ag39
ag41
ag42
ag40
ag39
ag40
ag42
ag40
ag39
ag42
ag42
ag42
ag42
ag39
ag39
ag39
ag39
ag39
ag39
ag41
ag39
ag42
ag41
ag42
ag41
ag39
ag41
ag42
ag42
ag39
ag41
ag39
ag39
ag39
ag41
asS'assistance_match_with_ground_truth'
p43
(lp44
I00
aI00
aI01
aI01
aI00
aI01
aI00
aI01
aI00
aI00
aI00
aI00
aI01
aI00
aI01
aI00
aI01
aI01
aI01
aI00
aI01
aI00
aI01
aI01
aI00
aI00
aI01
aI01
aI01
aI00
aI01
aI01
aI01
aI01
aI01
aI00
aI01
aI00
aI00
aI00
aI00
aI00
aI00
aI00
aI00
aI01
aI00
aI00
aI00
aI01
aI00
aI00
aI01
aI01
aI01
aI00
aI01
aI00
aI01
aI00
aI01
aI01
aI00
aI00
aI00
aI00
aI00
aI00
aI00
aI00
aI00
aI00
aI01
aI00
aI00
aI01
aI00
aI01
aI00
aI01
aI00
aI00
aI00
aI01
aI00
aI00
aI00
aI01
aI01
asS'total_steps'
p45
I89
sS'sp'
p46
(lp47
(S'p0'
p48
I0
S't'
p49
tp50
a(g48
I0
g49
tp51
a(g48
I0
S'x'
p52
tp53
a(S'p1'
p54
I0
g52
tp55
a(g54
I0
g52
tp56
a(g54
I0
S'y'
p57
tp58
a(g54
I0
g49
tp59
a(g54
I0
g57
tp60
a(g48
I0
g57
tp61
a(g48
I0
g57
tp62
a(g48
I0
g57
tp63
ag63
a(g48
I0
g52
tp64
a(g48
I0
g52
tp65
ag55
a(g54
I0
g49
tp66
ag60
a(S'p2'
p67
I0
g57
tp68
a(g67
I0
g49
tp69
a(g67
I0
g57
tp70
ag69
ag70
ag69
a(g67
F1.5707963267948966
g49
tp71
a(g67
I0
g49
tp72
ag70
ag69
ag71
a(g67
F1.5707963267948966
g52
tp73
a(g54
F1.5707963267948966
g52
tp74
a(g54
F1.5707963267948966
g57
tp75
a(g67
F1.5707963267948966
g57
tp76
a(g67
F1.5707963267948966
g52
tp77
a(S'p3'
p78
F1.5707963267948966
g52
tp79
a(g78
F1.5707963267948966
g57
tp80
a(g67
F1.5707963267948966
g57
tp81
ag77
a(g67
F1.5707963267948966
g49
tp82
a(g67
F1.5707963267948966
g49
tp83
ag83
a(g67
F1.5707963267948966
g57
tp84
a(g67
F1.5707963267948966
g57
tp85
ag85
a(g67
F1.5707963267948966
g57
tp86
ag85
ag77
ag82
ag84
a(g67
F1.5707963267948966
g49
tp87
ag73
a(g67
F1.5707963267948966
g57
tp88
ag86
ag77
ag79
ag80
ag81
ag77
ag82
ag73
ag88
ag77
ag79
a(g78
F1.5707963267948966
g49
tp89
a(g78
F1.5707963267948966
g49
tp90
ag90
ag90
a(g78
F1.5707963267948966
g52
tp91
a(g78
F1.5707963267948966
g52
tp92
a(g78
F1.5707963267948966
g52
tp93
ag92
ag92
ag93
ag80
a(g78
F1.5707963267948966
g52
tp94
ag89
a(g78
F1.5707963267948966
g57
tp95
a(g78
F1.5707963267948966
g49
tp96
ag95
ag94
ag80
ag96
ag90
ag91
ag80
ag94
ag93
ag92
ag80
a(S'p4'
p97
F1.5707963267948966
g57
tp98
asS's'
p99
(lp100
(g48
I0
g22
tp101
ag50
ag51
ag53
ag55
ag56
ag58
ag59
ag60
ag61
ag62
ag63
ag63
ag64
ag65
ag55
ag66
ag60
ag68
ag69
ag70
ag69
ag70
ag69
ag71
ag72
ag70
ag69
ag71
ag73
ag74
ag75
ag76
ag77
ag79
ag80
ag81
ag77
ag82
ag83
ag83
ag84
ag85
ag85
ag86
ag85
ag77
ag82
ag84
ag87
ag73
ag88
ag86
ag77
ag79
ag80
ag81
ag77
ag82
ag73
ag88
ag77
ag79
ag89
ag90
ag90
ag90
ag91
ag92
ag93
ag92
ag92
ag93
ag80
ag94
ag89
ag95
ag96
ag95
ag94
ag80
ag96
ag90
ag91
ag80
ag94
ag93
ag92
ag80
asS'ui'
p102
(lp103
S'ss'
p104
ag46
aS'hp'
p105
aS'hs'
p106
ag104
ag104
ag105
ag106
ag104
ag104
ag104
ag106
ag106
ag104
ag106
ag105
ag106
ag46
ag105
ag46
ag105
ag46
ag105
ag46
ag105
ag105
ag105
ag46
ag46
ag46
ag105
ag46
ag106
ag46
ag105
ag104
ag106
ag106
ag46
ag46
ag105
ag46
ag106
ag46
ag46
ag106
ag106
ag106
ag105
ag105
ag46
ag46
ag46
ag106
ag105
ag104
ag106
ag106
ag105
ag105
ag106
ag104
ag106
ag46
ag46
ag46
ag46
ag46
ag105
ag105
ag46
ag104
ag105
ag106
ag106
ag106
ag46
ag106
ag46
ag105
ag46
ag46
ag46
ag105
ag104
ag104
ag106
ag105
ag46
asS'um_before'
p107
(lp108
g104
ag46
ag105
ag104
ag104
ag105
ag105
ag106
ag104
ag46
ag104
ag104
ag106
ag46
ag104
ag106
ag106
ag46
ag105
ag106
ag105
ag106
ag105
ag46
ag104
ag106
ag105
ag46
ag105
ag46
ag105
ag46
ag106
ag104
ag105
ag104
ag106
ag106
ag46
ag46
ag106
ag104
ag104
ag46
ag104
ag106
ag106
ag106
ag105
ag105
ag105
ag46
ag106
ag104
ag105
ag104
ag106
ag106
ag105
ag105
ag106
ag104
ag106
ag46
ag46
ag46
ag105
ag46
ag104
ag46
ag46
ag104
ag105
ag106
ag106
ag106
ag105
ag106
ag106
ag105
ag105
ag46
ag105
ag105
ag106
ag104
ag46
ag105
ag46
asS'um_after'
p109
(lp110
g104
ag46
ag105
ag104
ag104
ag105
ag105
ag106
ag104
ag46
ag104
ag104
ag106
ag46
ag104
ag106
ag106
ag46
ag105
ag106
ag105
ag106
ag105
ag46
ag104
ag106
ag105
ag46
ag105
ag46
ag105
ag46
ag106
ag104
ag105
ag104
ag106
ag106
ag46
ag46
ag106
ag104
ag104
ag46
ag104
ag106
ag106
ag106
ag105
ag105
ag105
ag46
ag106
ag104
ag105
ag104
ag106
ag106
ag105
ag105
ag106
ag104
ag106
ag46
ag46
ag46
ag105
ag46
ag104
ag46
ag46
ag104
ag105
ag106
ag106
ag106
ag105
ag106
ag106
ag105
ag105
ag46
ag105
ag105
ag106
ag104
ag46
ag105
ag46
asaa(lp111
S'index'
p112
aI51874
aatp113
Rp114
.