ccollections
OrderedDict
p0
((lp1
(lp2
S'index'
p3
aI6085
aa(lp4
S'combination_dict'
p5
ag0
((lp6
(lp7
S'r_to_g_config'
p8
aS'tl'
p9
aa(lp10
S'num_turns'
p11
aI2
aa(lp12
S'start_direction'
p13
acutils_ms
StartDirection
p14
(I1
tp15
Rp16
aa(lp17
S'assistance_type'
p18
acutils_ms
AssistanceType
p19
(I1
tp20
Rp21
aa(lp22
S'start_mode'
p23
aS'x'
p24
aa(lp25
S'ui_given_a_noise'
p26
aF0.1
aa(lp27
S'um_given_ui_noise'
p28
aF0.1
aa(lp29
S'entropy_threshold'
p30
aF0.7
aa(lp31
S'is_assistance'
p32
aI00
aatp33
Rp34
aa(lp35
S'trials'
p36
ag0
((lp37
(lp38
I0
accollections
defaultdict
p39
(c__builtin__
list
p40
tp41
Rp42
S'a'
p43
(lp44
S'mode_r'
p45
aS'move_p'
p46
aS'mode_l'
p47
aS'move_n'
p48
ag47
ag46
ag47
ag46
asS'assistance_match_with_ground_truth'
p49
(lp50
I01
aI01
aI01
aI01
aI01
aI01
aI01
aI01
asS'total_steps'
p51
I8
sS'sp'
p52
(S'p3'
p53
F1.5707963267948966
S'y'
p54
tp55
sS's'
p56
(lp57
(S'p0'
p58
I0
g24
tp59
a(g58
I0
g54
tp60
a(S'p1'
p61
I0
g54
tp62
a(g61
I0
S'x'
p63
tp64
a(S'p2'
p65
I0
g63
tp66
a(g65
I0
S't'
p67
tp68
a(g65
F1.5707963267948966
g67
tp69
a(g65
F1.5707963267948966
g54
tp70
asS'ui'
p71
(lp72
S'hp'
p73
ag52
aS'hs'
p74
aS'ss'
p75
ag74
ag52
ag74
ag52
asS'um_before'
p76
(lp77
g73
ag52
ag74
ag75
ag74
ag52
ag74
ag52
asS'um_after'
p78
(lp79
g73
ag52
ag74
ag75
ag74
ag52
ag74
ag52
asaa(lp80
I1
ag39
(g40
tp81
Rp82
g43
(lp83
g45
ag46
ag47
ag46
ag45
ag46
ag47
ag48
ag47
ag46
ag46
ag47
ag46
ag47
ag46
ag47
ag46
ag45
asg49
(lp84
I01
aI00
aI01
aI00
aI01
aI01
aI01
aI01
aI01
aI00
aI01
aI01
aI00
aI01
aI00
aI00
aI00
aI00
asg51
I18
sg52
(g53
I0
g54
tp85
sg56
(lp86
(g58
I0
g24
tp87
ag60
a(g58
I0
g67
tp88
a(g58
I0
g54
tp89
a(g58
I0
g63
tp90
ag60
ag62
ag64
ag66
ag68
a(g65
I0
g67
tp91
ag69
ag70
a(g65
F1.5707963267948966
g67
tp92
ag70
ag92
a(g65
I0
g67
tp93
a(g65
I0
g54
tp94
asg71
(lp95
g73
ag73
ag74
ag52
ag73
ag52
ag74
ag75
ag74
ag75
ag52
ag74
ag52
ag74
ag73
ag74
ag52
ag73
asg76
(lp96
g73
ag73
ag74
ag74
ag73
ag52
ag74
ag75
ag74
ag75
ag52
ag74
ag73
ag74
ag73
ag75
ag74
ag52
asg78
(lp97
g73
ag73
ag74
ag74
ag73
ag52
ag74
ag75
ag74
ag75
ag52
ag74
ag73
ag74
ag73
ag75
ag74
ag52
asaa(lp98
I2
ag39
(g40
tp99
Rp100
g43
(lp101
g45
ag46
ag46
ag47
ag48
ag47
ag46
ag47
ag46
asg49
(lp102
I01
aI00
aI01
aI01
aI01
aI01
aI01
aI01
aI01
asg51
I9
sg52
g55
sg56
(lp103
(g58
I0
g24
tp104
ag60
a(g58
I0
g54
tp105
ag62
ag64
ag66
ag68
ag69
ag70
asg71
(lp106
g73
ag75
ag52
ag74
ag75
ag74
ag52
ag74
ag52
asg76
(lp107
g73
ag75
ag52
ag74
ag75
ag74
ag52
ag74
ag52
asg78
(lp108
g73
ag75
ag52
ag74
ag75
ag74
ag52
ag74
ag52
asaa(lp109
I3
ag39
(g40
tp110
Rp111
g43
(lp112
g45
ag46
ag47
ag48
ag47
ag46
ag47
ag46
ag45
ag46
asg49
(lp113
I01
aI01
aI01
aI01
aI01
aI01
aI01
aI00
aI01
aI01
asg51
I10
sg52
g55
sg56
(lp114
(g58
I0
g24
tp115
ag60
ag62
ag64
ag66
ag68
ag69
ag70
a(g65
F1.5707963267948966
g63
tp116
a(g65
F1.5707963267948966
g54
tp117
asg71
(lp118
g73
ag52
ag74
ag75
ag74
ag52
ag74
ag74
ag73
ag52
asg76
(lp119
g73
ag52
ag74
ag75
ag74
ag52
ag74
ag74
ag73
ag52
asg78
(lp120
g73
ag52
ag74
ag75
ag74
ag52
ag74
ag74
ag73
ag52
asaa(lp121
I4
ag39
(g40
tp122
Rp123
g43
(lp124
g45
ag46
ag47
ag48
ag47
ag46
ag47
ag46
asg49
(lp125
I01
aI01
aI01
aI01
aI01
aI01
aI01
aI01
asg51
I8
sg52
g55
sg56
(lp126
(g58
I0
g24
tp127
ag60
ag62
ag64
ag66
ag68
ag69
ag70
asg71
(lp128
g73
ag52
ag74
ag75
ag74
ag52
ag74
ag52
asg76
(lp129
g73
ag52
ag74
ag75
ag74
ag52
ag74
ag52
asg78
(lp130
g73
ag52
ag74
ag75
ag74
ag52
ag74
ag52
asaa(lp131
I5
ag39
(g40
tp132
Rp133
g43
(lp134
g45
ag46
ag47
ag48
ag47
ag46
ag45
ag47
ag47
ag48
ag47
ag46
ag47
ag46
asg49
(lp135
I01
aI01
aI01
aI01
aI01
aI00
aI00
aI00
aI01
aI01
aI01
aI01
aI01
aI01
asg51
I14
sg52
g55
sg56
(lp136
(g58
I0
g24
tp137
ag60
ag62
ag64
ag66
ag68
ag94
a(g61
I0
g54
tp138
a(g61
I0
g54
tp139
ag64
ag66
ag68
ag69
ag70
asg71
(lp140
g73
ag52
ag74
ag75
ag74
ag52
ag73
ag75
ag74
ag75
ag74
ag52
ag74
ag52
asg76
(lp141
g73
ag52
ag74
ag75
ag74
ag74
ag75
ag75
ag74
ag75
ag74
ag52
ag74
ag52
asg78
(lp142
g73
ag52
ag74
ag75
ag74
ag74
ag75
ag75
ag74
ag75
ag74
ag52
ag74
ag52
asaa(lp143
I6
ag39
(g40
tp144
Rp145
g43
(lp146
g45
ag46
ag47
ag48
ag47
ag46
ag47
ag46
ag45
ag46
asg49
(lp147
I01
aI01
aI01
aI01
aI01
aI01
aI01
aI00
aI01
aI01
asg51
I10
sg52
g55
sg56
(lp148
(g58
I0
g24
tp149
ag60
ag62
ag64
ag66
ag68
ag69
ag70
ag116
ag117
asg71
(lp150
g73
ag52
ag74
ag75
ag74
ag52
ag74
ag52
ag73
ag52
asg76
(lp151
g73
ag52
ag74
ag75
ag74
ag52
ag74
ag74
ag73
ag52
asg78
(lp152
g73
ag52
ag74
ag75
ag74
ag52
ag74
ag74
ag73
ag52
asaa(lp153
I7
ag39
(g40
tp154
Rp155
g43
(lp156
g45
ag46
ag45
ag47
ag46
ag47
ag48
ag47
ag46
ag47
ag46
ag45
ag45
ag46
asg49
(lp157
I01
aI00
aI00
aI01
aI01
aI01
aI01
aI01
aI01
aI01
aI00
aI00
aI01
aI01
asg51
I14
sg52
g55
sg56
(lp158
(g58
I0
g24
tp159
ag60
ag90
a(g58
I0
g67
tp160
ag89
ag62
ag64
ag66
ag68
ag69
ag70
ag116
a(g65
F1.5707963267948966
g63
tp161
ag117
asg71
(lp162
g73
ag73
ag74
ag74
ag52
ag74
ag75
ag74
ag52
ag74
ag52
ag73
ag73
ag52
asg76
(lp163
g73
ag74
ag74
ag74
ag52
ag74
ag75
ag74
ag52
ag74
ag74
ag75
ag73
ag52
asg78
(lp164
g73
ag74
ag74
ag74
ag52
ag74
ag75
ag74
ag52
ag74
ag74
ag75
ag73
ag52
asaa(lp165
I8
ag39
(g40
tp166
Rp167
g43
(lp168
g45
ag46
ag47
ag48
ag45
ag48
ag47
ag47
ag46
ag47
ag46
asg49
(lp169
I01
aI01
aI01
aI00
aI01
aI01
aI00
aI01
aI01
aI01
aI01
asg51
I11
sg52
g55
sg56
(lp170
(g58
I0
g24
tp171
ag60
ag62
ag64
a(g61
I0
g67
tp172
a(g61
I0
g63
tp173
ag66
a(g65
I0
g63
tp174
ag68
ag69
ag70
asg71
(lp175
g73
ag52
ag74
ag74
ag73
ag75
ag74
ag74
ag52
ag74
ag52
asg76
(lp176
g73
ag52
ag74
ag74
ag73
ag75
ag75
ag74
ag52
ag74
ag52
asg78
(lp177
g73
ag52
ag74
ag74
ag73
ag75
ag75
ag74
ag52
ag74
ag52
asaa(lp178
I9
ag39
(g40
tp179
Rp180
g43
(lp181
g45
ag46
ag46
ag47
ag48
ag47
ag48
ag47
ag46
ag47
ag46
asg49
(lp182
I01
aI00
aI01
aI01
aI00
aI01
aI01
aI01
aI01
aI01
aI01
asg51
I11
sg52
g55
sg56
(lp183
(g58
I0
g24
tp184
ag60
ag105
ag62
ag64
a(g61
I0
g54
tp185
ag64
ag66
ag68
ag69
ag70
asg71
(lp186
g73
ag52
ag52
ag74
ag73
ag74
ag75
ag74
ag52
ag74
ag52
asg76
(lp187
g73
ag75
ag52
ag74
ag73
ag74
ag75
ag74
ag52
ag74
ag52
asg78
(lp188
g73
ag75
ag52
ag74
ag73
ag74
ag75
ag74
ag52
ag74
ag52
asaatp189
Rp190
aatp191
Rp192
.