ccollections
OrderedDict
p0
((lp1
(lp2
S'combination_dict'
p3
ag0
((lp4
(lp5
S'r_to_g_config'
p6
aS'bl'
p7
aa(lp8
S'num_turns'
p9
aI3
aa(lp10
S'start_direction'
p11
acutils_ms
StartDirection
p12
(I1
tp13
Rp14
aa(lp15
S'assistance_type'
p16
acutils_ms
AssistanceType
p17
(I1
tp18
Rp19
aa(lp20
S'start_mode'
p21
aS't'
p22
aa(lp23
S'ui_given_a_noise'
p24
aF0.7
aa(lp25
S'um_given_ui_noise'
p26
aF0.7
aa(lp27
S'entropy_threshold'
p28
aF0.8
aatp29
Rp30
aa(lp31
S'data'
p32
accollections
defaultdict
p33
(c__builtin__
list
p34
tp35
Rp36
S'a'
p37
(lp38
S'mode_l'
p39
aS'move_n'
p40
ag40
ag39
ag40
ag39
ag40
aS'mode_r'
p41
ag40
ag39
ag40
ag39
ag40
ag41
ag41
ag40
ag39
ag40
ag39
ag40
ag41
ag41
ag40
ag41
ag41
ag40
ag39
ag40
ag41
ag41
ag41
ag41
ag40
ag39
ag40
ag39
ag40
ag41
ag40
ag41
aS'move_p'
p42
ag41
ag42
ag41
ag40
ag41
ag40
ag39
ag40
ag41
ag40
ag39
ag40
ag39
ag40
asS'assistance_match_with_ground_truth'
p43
(lp44
I01
aI00
aI00
aI01
aI01
aI01
aI00
aI01
aI01
aI01
aI00
aI01
aI00
aI00
aI01
aI01
aI01
aI00
aI01
aI01
aI00
aI01
aI00
aI00
aI01
aI00
aI01
aI00
aI00
aI00
aI00
aI01
aI00
aI01
aI00
aI01
aI01
aI01
aI01
aI01
aI00
aI01
aI01
aI01
aI00
aI01
aI00
aI01
aI00
aI01
aI01
aI01
aI00
aI01
aI01
asS'total_steps'
p45
I55
sS'sp'
p46
(lp47
(S'p0'
p48
I0
S'y'
p49
tp50
a(g48
I0
g49
tp51
a(g48
I0
S't'
p52
tp53
ag50
a(S'p1'
p54
I0
g49
tp55
a(g54
I0
S'x'
p56
tp57
a(g48
I0
g56
tp58
a(g48
I0
g49
tp59
ag55
ag57
a(g54
I0
g49
tp60
ag57
ag58
a(g48
I0
g56
tp61
ag59
ag55
ag57
ag60
ag57
a(S'p2'
p62
I0
g56
tp63
a(g62
I0
g56
tp64
a(g62
I0
g49
tp65
a(g62
I0
g56
tp66
a(g62
I0
g56
tp67
ag65
a(g54
I0
g49
tp68
ag57
a(g54
I0
g52
tp69
a(g54
I0
g52
tp70
a(g54
I0
g52
tp71
ag70
a(g54
I0
g56
tp72
ag60
ag57
ag60
ag57
ag63
ag65
a(S'p3'
p73
I0
g49
tp74
a(g73
I0
g52
tp75
a(g73
I0
g49
tp76
ag75
a(g73
F1.5707963267948966
g52
tp77
a(g73
F1.5707963267948966
g56
tp78
a(g73
F1.5707963267948966
g52
tp79
ag78
a(g73
F1.5707963267948966
g49
tp80
a(g73
F1.5707963267948966
g56
tp81
a(g62
F1.5707963267948966
g56
tp82
a(g62
F1.5707963267948966
g49
tp83
a(g73
F1.5707963267948966
g49
tp84
ag81
ag80
ag81
a(S'p4'
p85
F1.5707963267948966
g56
tp86
asS's'
p87
(lp88
(g48
I0
g22
tp89
ag50
ag51
ag53
ag50
ag55
ag57
ag58
ag59
ag55
ag57
ag60
ag57
ag58
ag61
ag59
ag55
ag57
ag60
ag57
ag63
ag64
ag65
ag66
ag67
ag65
ag68
ag57
ag69
ag70
ag71
ag70
ag72
ag60
ag57
ag60
ag57
ag63
ag65
ag74
ag75
ag76
ag75
ag77
ag78
ag79
ag78
ag80
ag81
ag82
ag83
ag84
ag81
ag80
ag81
asS'ui'
p90
(lp91
g46
ag46
ag46
ag46
aS'ss'
p92
aS'hs'
p93
ag46
aS'hp'
p94
ag92
ag93
ag94
ag93
ag46
ag46
ag46
ag92
ag93
ag93
ag46
ag92
ag46
ag93
ag94
ag92
ag94
ag46
ag94
ag93
ag92
ag46
ag46
ag94
ag46
ag93
ag92
ag93
ag92
ag94
ag93
ag94
ag94
ag94
ag92
ag94
ag93
ag93
ag94
ag46
ag46
ag46
ag93
ag93
ag94
ag46
ag92
asS'um_before'
p95
(lp96
g46
ag46
ag94
ag94
ag92
ag92
ag46
ag94
ag92
ag93
ag94
ag92
ag46
ag46
ag94
ag92
ag46
ag94
ag92
ag92
ag46
ag93
ag93
ag92
ag94
ag46
ag93
ag93
ag92
ag46
ag92
ag93
ag94
ag93
ag94
ag92
ag92
ag94
ag92
ag93
ag93
ag94
ag92
ag94
ag93
ag94
ag94
ag92
ag46
ag94
ag92
ag94
ag94
ag94
ag92
asS'um_after'
p97
(lp98
g93
ag46
ag94
ag93
ag92
ag93
ag46
ag94
ag92
ag93
ag94
ag93
ag46
ag46
ag94
ag92
ag93
ag94
ag93
ag92
ag46
ag94
ag93
ag92
ag94
ag46
ag93
ag93
ag92
ag46
ag92
ag94
ag94
ag93
ag94
ag93
ag92
ag94
ag92
ag94
ag93
ag94
ag46
ag94
ag93
ag94
ag94
ag93
ag46
ag94
ag92
ag93
ag94
ag93
ag92
asaa(lp99
S'index'
p100
aI84784
aatp101
Rp102
.