ccollections
OrderedDict
p0
((lp1
(lp2
S'combination_dict'
p3
ag0
((lp4
(lp5
S'r_to_g_config'
p6
aS'tl'
p7
aa(lp8
S'num_turns'
p9
aI2
aa(lp10
S'start_direction'
p11
acutils_ms
StartDirection
p12
(I0
tp13
Rp14
aa(lp15
S'assistance_type'
p16
acutils_ms
AssistanceType
p17
(I0
tp18
Rp19
aa(lp20
S'start_mode'
p21
aS'y'
p22
aa(lp23
S'ui_given_a_noise'
p24
aF0.7
aa(lp25
S'um_given_ui_noise'
p26
aF0.5
aa(lp27
S'entropy_threshold'
p28
aF0.8
aatp29
Rp30
aa(lp31
S'data'
p32
accollections
defaultdict
p33
(c__builtin__
list
p34
tp35
Rp36
S'a'
p37
(lp38
S'mode_l'
p39
ag39
ag39
ag39
aS'move_n'
p40
aS'mode_r'
p41
ag40
ag40
ag39
ag39
ag41
ag41
ag41
ag41
ag40
ag39
aS'move_p'
p42
ag39
ag42
ag39
ag39
ag39
ag39
ag42
ag39
ag42
ag39
ag42
ag41
ag39
ag40
ag39
ag39
ag41
ag39
ag39
ag40
ag39
ag39
ag39
ag39
ag39
ag42
ag41
ag39
ag40
ag40
ag39
ag39
ag39
ag40
ag39
ag39
ag42
ag41
ag39
ag39
ag41
ag40
ag40
ag41
ag41
ag41
ag41
ag41
ag41
ag41
ag41
ag40
ag39
ag40
ag39
ag39
ag41
ag40
ag39
ag39
ag40
ag39
ag39
ag42
ag41
ag42
ag41
ag39
ag39
ag40
ag39
ag40
ag39
ag39
ag39
ag39
ag40
ag39
ag39
ag39
ag39
ag39
ag40
ag39
ag42
ag41
ag39
ag40
ag39
ag40
ag39
ag39
ag39
ag39
ag40
ag41
ag41
ag41
ag41
ag40
ag39
ag42
ag41
ag42
ag41
ag39
ag39
ag39
ag41
ag41
ag41
ag40
ag39
ag41
ag40
ag39
ag39
ag39
ag39
ag42
ag39
ag42
ag39
ag42
ag39
ag39
ag41
ag40
ag40
ag39
ag39
ag39
ag39
ag39
ag41
ag41
ag41
ag41
ag41
ag40
ag41
ag41
ag41
ag41
ag41
ag41
ag42
ag41
ag42
ag39
ag41
ag40
asS'assistance_match_with_ground_truth'
p43
(lp44
I00
aI00
aI00
aI01
aI00
aI01
aI00
aI00
aI00
aI00
aI00
aI00
aI00
aI01
aI01
aI01
aI00
aI01
aI00
aI00
aI00
aI00
aI01
aI00
aI01
aI00
aI01
aI00
aI00
aI01
aI01
aI00
aI00
aI00
aI00
aI01
aI01
aI00
aI00
aI00
aI00
aI01
aI00
aI00
aI01
aI00
aI00
aI00
aI00
aI01
aI01
aI00
aI01
aI00
aI00
aI00
aI00
aI01
aI00
aI00
aI00
aI00
aI00
aI00
aI00
aI00
aI00
aI01
aI00
aI01
aI00
aI00
aI00
aI01
aI00
aI00
aI01
aI01
aI00
aI01
aI00
aI01
aI00
aI00
aI00
aI01
aI00
aI01
aI00
aI00
aI00
aI00
aI01
aI00
aI00
aI00
aI00
aI00
aI01
aI01
aI01
aI00
aI00
aI01
aI00
aI01
aI00
aI00
aI00
aI00
aI01
aI00
aI00
aI00
aI00
aI01
aI01
aI01
aI00
aI01
aI00
aI00
aI00
aI00
aI00
aI00
aI00
aI01
aI00
aI00
aI01
aI01
aI00
aI00
aI00
aI01
aI00
aI01
aI01
aI01
aI00
aI00
aI00
aI01
aI00
aI00
aI00
aI00
aI00
aI00
aI00
aI00
aI00
aI00
aI00
aI01
aI01
aI00
aI00
aI00
aI00
aI00
aI01
aI00
aI01
aI01
aI00
aI01
aI01
asS'total_steps'
p45
I169
sS'sp'
p46
(lp47
(S'p0'
p48
I0
S'y'
p49
tp50
ag50
ag50
a(g48
I0
S'x'
p51
tp52
a(g48
I0
S't'
p53
tp54
a(g48
I0
g51
tp55
a(g48
I0
g51
tp56
a(g48
I0
g49
tp57
ag57
a(g48
I0
g53
tp58
a(g48
I0
g53
tp59
ag59
ag59
ag55
a(S'p1'
p60
I0
g51
tp61
a(g60
I0
g53
tp62
a(g60
I0
g51
tp63
ag62
ag63
a(g60
I0
g51
tp64
ag64
ag64
ag62
ag63
ag62
ag63
ag62
a(g60
I0
g49
tp65
a(g48
I0
g49
tp66
ag52
ag61
ag64
a(g60
I0
g49
tp67
ag66
ag66
ag52
ag61
ag61
ag61
ag64
ag64
ag62
ag65
ag66
ag52
ag56
ag57
ag50
ag50
ag52
ag61
ag61
ag62
ag65
ag66
ag66
ag58
ag55
ag56
ag54
ag59
ag59
ag59
ag59
ag59
a(g48
I0
g53
tp68
ag59
ag55
ag57
ag52
ag57
ag50
ag58
ag55
ag57
ag57
ag52
ag61
ag61
ag62
ag65
a(g60
I0
g53
tp69
ag65
ag66
ag66
ag52
ag57
ag52
ag57
ag57
ag50
ag50
ag52
ag57
ag57
ag57
ag50
ag50
ag52
ag61
ag62
ag65
ag66
ag52
ag57
ag52
ag57
ag57
ag57
ag50
ag52
ag54
ag59
ag59
ag59
ag55
ag61
ag62
ag65
ag69
ag65
ag66
ag66
ag50
ag58
ag59
ag59
ag55
ag57
ag58
ag55
ag61
ag64
ag64
ag64
ag62
ag63
ag62
a(g60
F1.5707963267948966
g53
tp70
a(g60
F1.5707963267948966
g49
tp71
a(g48
F1.5707963267948966
g49
tp72
a(g48
F1.5707963267948966
g49
tp73
a(g48
F1.5707963267948966
g53
tp74
a(g48
F1.5707963267948966
g51
tp75
a(g48
F1.5707963267948966
g51
tp76
a(g48
F1.5707963267948966
g49
tp77
ag77
ag77
ag73
ag73
ag74
a(g48
F1.5707963267948966
g53
tp78
ag78
a(g48
F1.5707963267948966
g53
tp79
ag79
ag75
a(g60
F1.5707963267948966
g51
tp80
ag80
a(g60
F1.5707963267948966
g51
tp81
ag81
ag81
ag81
a(g60
F1.5707963267948966
g49
tp82
a(g60
F1.5707963267948966
g51
tp83
ag82
a(S'p2'
p84
F1.5707963267948966
g49
tp85
a(g84
F1.5707963267948966
g53
tp86
a(g84
F1.5707963267948966
g51
tp87
a(S'p3'
p88
F1.5707963267948966
g51
tp89
asS's'
p90
(lp91
(g48
I0
g22
tp92
ag50
ag50
ag50
ag52
ag54
ag55
ag56
ag57
ag57
ag58
ag59
ag59
ag59
ag55
ag61
ag62
ag63
ag62
ag63
ag64
ag64
ag64
ag62
ag63
ag62
ag63
ag62
ag65
ag66
ag52
ag61
ag64
ag67
ag66
ag66
ag52
ag61
ag61
ag61
ag64
ag64
ag62
ag65
ag66
ag52
ag56
ag57
ag50
ag50
ag52
ag61
ag61
ag62
ag65
ag66
ag66
ag58
ag55
ag56
ag54
ag59
ag59
ag59
ag59
ag59
ag68
ag59
ag55
ag57
ag52
ag57
ag50
ag58
ag55
ag57
ag57
ag52
ag61
ag61
ag62
ag65
ag69
ag65
ag66
ag66
ag52
ag57
ag52
ag57
ag57
ag50
ag50
ag52
ag57
ag57
ag57
ag50
ag50
ag52
ag61
ag62
ag65
ag66
ag52
ag57
ag52
ag57
ag57
ag57
ag50
ag52
ag54
ag59
ag59
ag59
ag55
ag61
ag62
ag65
ag69
ag65
ag66
ag66
ag50
ag58
ag59
ag59
ag55
ag57
ag58
ag55
ag61
ag64
ag64
ag64
ag62
ag63
ag62
ag70
ag71
ag72
ag73
ag74
ag75
ag76
ag77
ag77
ag77
ag73
ag73
ag74
ag78
ag78
ag79
ag79
ag75
ag80
ag80
ag81
ag81
ag81
ag81
ag82
ag83
ag82
ag85
ag86
ag87
asS'ui'
p93
(lp94
S'hs'
p95
ag95
ag95
ag95
aS'hp'
p96
ag96
ag46
ag96
ag46
ag95
aS'ss'
p97
ag97
ag97
ag96
ag97
ag95
ag96
ag95
ag96
ag97
ag46
ag97
ag97
ag96
ag95
ag96
ag95
ag96
ag97
ag95
ag97
ag97
ag95
ag96
ag46
ag95
ag97
ag46
ag46
ag97
ag97
ag95
ag96
ag97
ag95
ag46
ag96
ag97
ag97
ag95
ag97
ag95
ag95
ag95
ag97
ag46
ag96
ag96
ag95
ag97
ag96
ag96
ag97
ag97
ag97
ag96
ag96
ag96
ag96
ag95
ag96
ag97
ag46
ag96
ag97
ag95
ag95
ag96
ag95
ag95
ag95
ag96
ag95
ag96
ag46
ag97
ag96
ag95
ag96
ag46
ag97
ag97
ag95
ag46
ag46
ag46
ag97
ag46
ag95
ag97
ag95
ag96
ag97
ag95
ag46
ag95
ag96
ag95
ag95
ag97
ag95
ag97
ag97
ag97
ag97
ag96
ag97
ag95
ag95
ag96
ag95
ag97
ag95
ag97
ag97
ag97
ag97
ag96
ag46
ag97
ag96
ag97
ag97
ag97
ag97
ag95
ag46
ag95
ag46
ag95
ag97
ag97
ag46
ag46
ag46
ag96
ag95
ag46
ag97
ag97
ag95
ag46
ag96
ag97
ag96
ag96
ag97
ag95
ag97
ag97
ag97
ag97
ag96
ag95
ag96
ag46
ag96
ag97
ag97
asS'um_before'
p98
(lp99
g97
ag97
ag97
ag95
ag95
ag96
ag46
ag96
ag46
ag96
ag97
ag97
ag97
ag96
ag97
ag95
ag96
ag95
ag96
ag97
ag46
ag97
ag95
ag96
ag95
ag96
ag95
ag95
ag97
ag95
ag97
ag97
ag96
ag97
ag46
ag95
ag97
ag46
ag46
ag97
ag97
ag95
ag95
ag97
ag95
ag46
ag96
ag97
ag97
ag95
ag97
ag46
ag95
ag95
ag97
ag46
ag96
ag96
ag46
ag95
ag97
ag95
ag97
ag97
ag97
ag46
ag97
ag96
ag96
ag95
ag96
ag97
ag96
ag96
ag96
ag46
ag95
ag97
ag46
ag95
ag95
ag96
ag95
ag97
ag46
ag95
ag96
ag95
ag96
ag46
ag97
ag97
ag95
ag96
ag46
ag46
ag97
ag46
ag95
ag97
ag95
ag95
ag97
ag95
ag96
ag95
ag96
ag46
ag46
ag97
ag95
ag95
ag97
ag97
ag97
ag96
ag97
ag95
ag95
ag96
ag95
ag97
ag46
ag97
ag96
ag97
ag97
ag96
ag96
ag96
ag96
ag97
ag97
ag97
ag97
ag95
ag96
ag95
ag46
ag95
ag97
ag97
ag96
ag96
ag46
ag96
ag46
ag46
ag97
ag97
ag96
ag46
ag95
ag97
ag95
ag96
ag97
ag95
ag97
ag95
ag97
ag97
ag96
ag95
ag96
ag46
ag96
ag96
ag97
asS'um_after'
p100
(lp101
g97
ag97
ag97
ag95
ag95
ag96
ag46
ag96
aNag96
ag97
ag97
ag97
ag96
ag97
ag95
ag96
ag95
ag96
ag97
aNag97
ag95
ag96
ag95
ag96
ag95
ag95
ag97
ag95
ag97
ag97
ag96
ag97
aNag95
ag97
aNaNag97
ag97
ag95
ag95
ag97
ag95
ag46
ag96
ag97
ag97
ag95
ag97
aNag95
ag95
ag97
aNag96
ag96
ag46
ag95
ag97
aNag97
ag97
ag97
ag46
ag97
ag96
ag96
ag95
ag96
ag97
ag96
ag96
ag96
aNag95
ag97
aNag95
ag95
ag96
ag95
ag97
aNag95
ag96
ag95
ag96
aNag97
ag97
ag95
ag96
aNaNag97
aNag95
ag97
ag95
ag95
ag97
ag95
ag96
ag95
ag96
aNaNag97
ag95
ag95
ag97
ag97
ag97
ag96
ag97
ag95
ag95
ag96
ag95
ag97
aNag97
ag96
ag97
ag97
ag96
ag96
ag96
ag96
ag97
ag97
ag97
ag97
ag95
ag96
ag95
ag46
ag95
ag97
ag97
ag96
ag96
ag46
ag96
aNaNag97
ag97
ag96
ag46
aNag97
aNag96
ag97
aNag97
aNag97
ag97
ag96
ag95
ag96
ag46
ag96
ag96
ag97
asaa(lp102
S'index'
p103
aI39936
aatp104
Rp105
.