ccollections
OrderedDict
p0
((lp1
(lp2
S'index'
p3
aI1004
aa(lp4
S'combination_dict'
p5
ag0
((lp6
(lp7
S'r_to_g_config'
p8
aS'tr'
p9
aa(lp10
S'num_turns'
p11
aI1
aa(lp12
S'start_direction'
p13
acutils_ms
StartDirection
p14
(I1
tp15
Rp16
aa(lp17
S'assistance_type'
p18
acutils_ms
AssistanceType
p19
(I1
tp20
Rp21
aa(lp22
S'start_mode'
p23
aS'x'
p24
aa(lp25
S'ui_given_a_noise'
p26
aF0.3
aa(lp27
S'um_given_ui_noise'
p28
aF0.1
aa(lp29
S'entropy_threshold'
p30
aF0.7
aa(lp31
S'is_assistance'
p32
aI01
aatp33
Rp34
aa(lp35
S'trials'
p36
ag0
((lp37
(lp38
I0
accollections
defaultdict
p39
(c__builtin__
list
p40
tp41
Rp42
S'a'
p43
(lp44
S'mode_r'
p45
aS'mode_l'
p46
aS'move_p'
p47
ag47
ag45
ag45
ag47
ag47
ag47
ag45
ag47
ag46
ag47
ag46
ag46
ag47
ag46
ag47
ag46
ag47
ag45
ag45
ag45
ag47
ag46
ag47
asS'assistance_match_with_ground_truth'
p48
(lp49
I00
aI01
aI00
aI01
aI00
aI01
aI00
aI00
aI01
aI01
aI00
aI01
aI00
aI00
aI01
aI00
aI01
aI00
aI01
aI00
aI00
aI00
aI01
aI01
aI01
aI01
asS'total_steps'
p50
I26
sS'sp'
p51
(S'p2'
p52
F1.5707963267948966
S'x'
p53
tp54
sS's'
p55
(lp56
(S'p0'
p57
I0
g24
tp58
a(g57
I0
S't'
p59
tp60
a(g57
I0
S'y'
p61
tp62
a(g57
I0
g61
tp63
a(S'p1'
p64
I0
g61
tp65
a(g64
I0
g61
tp66
a(g64
I0
g59
tp67
a(g64
I0
g59
tp68
ag68
a(g64
F1.5707963267948966
g59
tp69
a(g64
F1.5707963267948966
g53
tp70
a(g64
F1.5707963267948966
g61
tp71
a(g64
F1.5707963267948966
g53
tp72
ag71
a(g64
F1.5707963267948966
g61
tp73
ag72
ag71
ag72
ag71
ag72
a(g57
F1.5707963267948966
g53
tp74
a(g57
F1.5707963267948966
g53
tp75
a(g57
F1.5707963267948966
g53
tp76
a(g57
F1.5707963267948966
g61
tp77
a(g64
F1.5707963267948966
g61
tp78
ag72
asS'ui'
p79
(lp80
S'hs'
p81
ag81
aS'ss'
p82
ag51
aS'hp'
p83
ag83
ag51
ag82
ag51
ag83
ag83
ag81
ag83
ag83
ag81
ag83
ag81
ag83
ag83
ag82
ag83
ag51
ag83
ag51
ag81
ag51
asS'um_before'
p84
(lp85
g81
ag81
ag82
ag51
ag51
ag83
ag82
ag82
ag51
ag83
ag83
ag81
ag83
ag82
ag81
ag83
ag81
ag83
ag81
ag82
ag82
ag51
ag83
ag51
ag81
ag51
asS'um_after'
p86
(lp87
g81
ag81
ag82
ag51
ag51
ag83
ag82
ag82
ag51
ag83
ag83
ag81
ag83
ag82
ag81
ag83
ag81
ag83
ag81
ag82
ag82
ag51
ag83
ag51
ag81
ag51
asaa(lp88
I1
ag39
(g40
tp89
Rp90
g43
(lp91
g45
ag47
ag47
ag45
ag47
ag45
ag46
ag47
asg48
(lp92
I01
aI00
aI01
aI01
aI01
aI00
aI01
aI01
asg50
I8
sg51
g54
sg55
(lp93
(g57
I0
g24
tp94
a(g57
I0
g61
tp95
ag63
ag65
ag67
ag69
a(g64
F1.5707963267948966
g61
tp96
ag72
asg79
(lp97
g83
ag82
ag51
ag83
ag51
ag83
ag81
ag51
asg84
(lp98
g83
ag82
ag51
ag83
ag51
ag81
ag81
ag51
asg86
(lp99
g83
ag82
ag51
ag83
ag51
ag81
ag81
ag51
asaa(lp100
I2
ag39
(g40
tp101
Rp102
g43
(lp103
g45
ag47
ag46
ag47
ag45
ag47
ag45
ag47
asg48
(lp104
I01
aI00
aI01
aI01
aI01
aI01
aI01
aI01
asg50
I8
sg51
g54
sg55
(lp105
(g57
I0
g24
tp106
ag95
a(g57
I0
g59
tp107
ag62
ag65
ag67
ag69
ag70
asg79
(lp108
g83
ag83
ag81
ag51
ag83
ag51
ag83
ag51
asg84
(lp109
g83
ag83
ag81
ag51
ag83
ag51
ag83
ag51
asg86
(lp110
g83
ag83
ag81
ag51
ag83
ag51
ag83
ag51
asaa(lp111
I3
ag39
(g40
tp112
Rp113
g43
(lp114
g45
ag47
ag47
ag45
ag46
ag47
ag47
ag45
ag45
ag47
ag45
ag47
ag46
ag47
ag46
ag47
ag46
ag47
ag46
ag47
asg48
(lp115
I01
aI00
aI01
aI00
aI01
aI00
aI01
aI00
aI01
aI00
aI01
aI00
aI01
aI00
aI01
aI01
aI01
aI00
aI01
aI01
asg50
I20
sg51
g54
sg55
(lp116
(g57
I0
g24
tp117
ag95
ag63
ag65
a(g64
I0
g53
tp118
a(g64
I0
g59
tp119
ag68
ag69
a(g64
F1.5707963267948966
g59
tp120
ag70
ag74
ag77
a(g57
F1.5707963267948966
g59
tp121
a(g57
F1.5707963267948966
g61
tp122
ag121
ag122
ag78
ag72
ag71
ag72
asg79
(lp123
g83
ag82
ag51
ag83
ag81
ag51
ag51
ag51
ag83
ag83
ag83
ag83
ag81
ag83
ag81
ag51
ag81
ag83
ag81
ag51
asg84
(lp124
g83
ag82
ag51
ag81
ag81
ag82
ag51
ag51
ag83
ag82
ag83
ag83
ag81
ag83
ag81
ag51
ag81
ag83
ag81
ag51
asg86
(lp125
g83
ag82
ag51
ag81
ag81
ag82
ag51
ag51
ag83
ag82
ag83
ag83
ag81
ag83
ag81
ag51
ag81
ag83
ag81
ag51
asaa(lp126
I4
ag39
(g40
tp127
Rp128
g43
(lp129
g45
ag47
ag45
ag46
ag47
ag45
ag47
asg48
(lp130
I01
aI01
aI00
aI01
aI01
aI01
aI01
asg50
I7
sg51
g54
sg55
(lp131
(g57
I0
g24
tp132
ag95
ag65
ag118
ag119
ag69
ag70
asg79
(lp133
g83
ag51
ag81
ag81
ag51
ag83
ag51
asg84
(lp134
g83
ag51
ag81
ag81
ag51
ag83
ag51
asg86
(lp135
g83
ag51
ag81
ag81
ag51
ag83
ag51
asaa(lp136
I5
ag39
(g40
tp137
Rp138
g43
(lp139
g45
ag47
ag46
ag47
ag46
ag47
ag45
ag47
ag46
ag47
ag45
ag47
asg48
(lp140
I01
aI00
aI01
aI00
aI01
aI01
aI01
aI00
aI01
aI01
aI01
aI01
asg50
I12
sg51
g54
sg55
(lp141
(g57
I0
g24
tp142
ag95
ag107
ag62
ag107
ag62
ag65
ag67
a(g64
I0
g53
tp143
ag119
ag69
ag70
asg79
(lp144
g83
ag83
ag81
ag83
ag81
ag51
ag83
ag82
ag81
ag51
ag83
ag51
asg84
(lp145
g83
ag83
ag81
ag83
ag81
ag51
ag83
ag83
ag81
ag51
ag83
ag51
asg86
(lp146
g83
ag83
ag81
ag83
ag81
ag51
ag83
ag83
ag81
ag51
ag83
ag51
asaa(lp147
I6
ag39
(g40
tp148
Rp149
g43
(lp150
g45
ag45
ag45
ag47
ag45
ag47
ag46
ag47
ag45
ag45
ag47
asg48
(lp151
I00
aI00
aI01
aI01
aI01
aI00
aI01
aI01
aI00
aI01
aI01
asg50
I11
sg51
g54
sg55
(lp152
(g57
I0
g24
tp153
a(g57
I0
g53
tp154
ag154
ag95
ag65
ag67
ag143
ag119
ag69
ag120
ag70
asg79
(lp155
g82
ag82
ag83
ag51
ag83
ag83
ag81
ag51
ag51
ag83
ag51
asg84
(lp156
g82
ag82
ag83
ag51
ag83
ag83
ag81
ag51
ag51
ag83
ag51
asg86
(lp157
g82
ag82
ag83
ag51
ag83
ag83
ag81
ag51
ag51
ag83
ag51
asaa(lp158
I7
ag39
(g40
tp159
Rp160
g43
(lp161
g45
ag47
ag45
ag47
ag47
ag45
ag47
ag45
ag47
ag46
ag47
ag46
ag47
asg48
(lp162
I01
aI01
aI01
aI00
aI01
aI01
aI00
aI01
aI00
aI01
aI01
aI01
aI01
asg50
I13
sg51
g54
sg55
(lp163
(g57
I0
g24
tp164
ag95
ag65
ag67
ag68
ag69
ag70
ag74
ag77
ag121
ag122
ag78
ag72
asg79
(lp165
g83
ag51
ag83
ag82
ag51
ag83
ag82
ag83
ag83
ag81
ag51
ag81
ag51
asg84
(lp166
g83
ag51
ag83
ag82
ag51
ag83
ag82
ag83
ag83
ag81
ag51
ag81
ag51
asg86
(lp167
g83
ag51
ag83
ag82
ag51
ag83
ag82
ag83
ag83
ag81
ag51
ag81
ag51
asaa(lp168
I8
ag39
(g40
tp169
Rp170
g43
(lp171
g45
ag47
ag47
ag46
ag47
ag47
ag45
ag45
ag47
ag45
ag47
asg48
(lp172
I01
aI00
aI00
aI01
aI00
aI01
aI00
aI01
aI01
aI01
aI01
asg50
I11
sg51
g54
sg55
(lp173
(g57
I0
g24
tp174
ag95
ag63
ag107
ag62
ag63
ag65
a(g64
I0
g61
tp175
ag67
ag69
ag70
asg79
(lp176
g83
ag82
ag51
ag81
ag82
ag51
ag82
ag83
ag51
ag83
ag51
asg84
(lp177
g83
ag82
ag83
ag81
ag82
ag51
ag82
ag83
ag51
ag83
ag51
asg86
(lp178
g83
ag82
ag83
ag81
ag82
ag51
ag82
ag83
ag51
ag83
ag51
asaa(lp179
I9
ag39
(g40
tp180
Rp181
g43
(lp182
g45
ag47
ag45
ag47
ag46
ag45
ag47
ag45
ag46
ag47
ag45
ag45
ag47
ag46
ag46
ag47
asg48
(lp183
I01
aI01
aI01
aI00
aI00
aI01
aI01
aI00
aI01
aI00
aI00
aI01
aI01
aI00
aI01
aI01
asg50
I16
sg51
g54
sg55
(lp184
(g57
I0
g24
tp185
ag95
ag65
ag67
ag143
a(g64
I0
g61
tp186
ag67
ag69
ag96
ag72
ag74
ag76
ag77
ag78
a(g64
F1.5707963267948966
g61
tp187
ag72
asg79
(lp188
g83
ag51
ag83
ag83
ag83
ag83
ag51
ag81
ag81
ag82
ag51
ag83
ag51
ag51
ag83
ag51
asg84
(lp189
g83
ag51
ag83
ag83
ag83
ag83
ag51
ag81
ag81
ag82
ag51
ag83
ag51
ag51
ag81
ag51
asg86
(lp190
g83
ag51
ag83
ag83
ag83
ag83
ag51
ag81
ag81
ag82
ag51
ag83
ag51
ag51
ag81
ag51
asaatp191
Rp192
aatp193
Rp194
.