ccollections
OrderedDict
p0
((lp1
(lp2
S'combination_dict'
p3
ag0
((lp4
(lp5
S'r_to_g_config'
p6
aS'tr'
p7
aa(lp8
S'num_turns'
p9
aI2
aa(lp10
S'start_direction'
p11
acutils_ms
StartDirection
p12
(I1
tp13
Rp14
aa(lp15
S'assistance_type'
p16
acutils_ms
AssistanceType
p17
(I1
tp18
Rp19
aa(lp20
S'start_mode'
p21
aS't'
p22
aa(lp23
S'ui_given_a_noise'
p24
aF0.7
aa(lp25
S'um_given_ui_noise'
p26
aF0.7
aa(lp27
S'entropy_threshold'
p28
aF0.5
aatp29
Rp30
aa(lp31
S'data'
p32
accollections
defaultdict
p33
(c__builtin__
list
p34
tp35
Rp36
S'a'
p37
(lp38
S'mode_l'
p39
aS'mode_r'
p40
ag40
ag39
ag40
ag39
ag40
ag40
ag39
ag39
ag40
ag40
ag40
ag40
aS'move_p'
p41
ag39
ag40
ag39
ag41
ag40
ag41
ag39
ag39
ag39
ag40
ag40
ag41
ag39
ag41
ag40
ag39
ag41
ag39
ag41
ag39
ag41
ag39
ag41
ag41
ag39
ag41
ag41
ag41
ag41
ag39
ag41
ag41
ag39
ag41
ag39
ag41
ag41
ag41
ag40
ag39
ag41
ag40
ag39
ag41
ag39
ag39
ag40
ag41
ag39
ag41
ag39
ag41
ag39
ag39
ag41
ag39
ag40
ag41
ag40
ag41
ag40
ag39
ag41
ag40
ag40
ag40
ag41
ag39
ag41
ag39
ag41
ag39
ag41
ag39
ag41
ag39
ag41
ag40
ag41
ag40
ag41
ag40
ag41
ag40
ag40
ag39
ag41
asS'assistance_match_with_ground_truth'
p42
(lp43
I00
aI00
aI00
aI00
aI00
aI00
aI00
aI00
aI00
aI00
aI00
aI00
aI00
aI01
aI01
aI00
aI00
aI01
aI00
aI01
aI00
aI00
aI00
aI00
aI00
aI01
aI01
aI01
aI00
aI00
aI01
aI00
aI01
aI00
aI01
aI00
aI01
aI00
aI00
aI01
aI00
aI00
aI00
aI00
aI01
aI00
aI00
aI01
aI00
aI01
aI00
aI00
aI00
aI00
aI01
aI00
aI00
aI01
aI00
aI00
aI00
aI01
aI00
aI01
aI01
aI01
aI00
aI00
aI01
aI00
aI00
aI01
aI00
aI01
aI00
aI00
aI01
aI00
aI00
aI00
aI01
aI00
aI01
aI01
aI01
aI01
aI01
aI01
aI01
aI00
aI01
aI00
aI01
aI01
aI01
aI00
aI01
aI00
aI00
aI00
aI01
aI01
asS'total_steps'
p44
I102
sS'sp'
p45
(lp46
(S'p0'
p47
I0
S'x'
p48
tp49
a(g47
I0
g48
tp50
a(g47
I0
S't'
p51
tp52
ag49
ag52
ag49
a(g47
I0
g48
tp53
ag52
a(g47
I0
g51
tp54
ag49
ag53
ag50
ag53
a(g47
I0
S'y'
p55
tp56
a(S'p1'
p57
I0
g55
tp58
a(g57
I0
g51
tp59
a(g57
I0
g55
tp60
a(g57
I0
g48
tp61
a(g57
I0
g51
tp62
a(g57
I0
g48
tp63
a(g57
I0
g55
tp64
a(g57
I0
g55
tp65
ag65
ag59
a(g57
I0
g51
tp66
ag63
a(S'p2'
p67
I0
g48
tp68
a(g67
I0
g51
tp69
a(g67
I0
g55
tp70
a(g67
I0
g48
tp71
ag69
a(g67
I0
g48
tp72
ag69
ag72
ag69
ag72
ag69
a(g67
I0
g51
tp73
ag72
ag69
ag73
ag73
ag73
ag72
ag69
ag73
ag72
ag69
ag72
ag69
ag73
ag73
ag70
a(g57
I0
g55
tp74
ag61
ag62
ag60
ag61
ag64
ag65
ag59
ag63
ag64
ag61
ag68
ag69
ag72
a(g67
I0
g48
tp75
ag69
ag72
a(g67
I0
g55
tp76
a(g67
I0
g51
tp77
ag70
ag77
ag70
ag74
ag61
a(g47
I0
g48
tp78
ag53
ag50
ag56
a(g47
I0
g51
tp79
a(g47
I0
g55
tp80
ag58
ag61
ag68
ag69
a(g67
F1.5707963267948966
g51
tp81
a(g67
F1.5707963267948966
g55
tp82
a(g57
F1.5707963267948966
g55
tp83
a(g57
F1.5707963267948966
g48
tp84
a(g57
F1.5707963267948966
g51
tp85
a(g57
F1.5707963267948966
g48
tp86
a(g67
F1.5707963267948966
g48
tp87
a(g67
F1.5707963267948966
g55
tp88
a(g67
F1.5707963267948966
g48
tp89
ag88
ag89
a(g67
F1.5707963267948966
g48
tp90
a(g67
F1.5707963267948966
g51
tp91
ag82
a(S'p3'
p92
F1.5707963267948966
g55
tp93
asS's'
p94
(lp95
(g47
I0
g22
tp96
ag49
ag50
ag52
ag49
ag52
ag49
ag53
ag52
ag54
ag49
ag53
ag50
ag53
ag56
ag58
ag59
ag60
ag61
ag62
ag63
ag64
ag65
ag65
ag59
ag66
ag63
ag68
ag69
ag70
ag71
ag69
ag72
ag69
ag72
ag69
ag72
ag69
ag73
ag72
ag69
ag73
ag73
ag73
ag72
ag69
ag73
ag72
ag69
ag72
ag69
ag73
ag73
ag70
ag74
ag61
ag62
ag60
ag61
ag64
ag65
ag59
ag63
ag64
ag61
ag68
ag69
ag72
ag75
ag69
ag72
ag76
ag77
ag70
ag77
ag70
ag74
ag61
ag78
ag53
ag50
ag56
ag79
ag80
ag58
ag61
ag68
ag69
ag81
ag82
ag83
ag84
ag85
ag86
ag87
ag88
ag89
ag88
ag89
ag90
ag91
ag82
asS'ui'
p97
(lp98
S'hs'
p99
aS'ss'
p100
aS'hp'
p101
ag99
ag101
ag101
ag100
ag99
ag101
ag100
ag100
ag99
ag99
ag101
ag100
ag99
ag101
ag99
ag101
ag101
ag45
ag99
ag100
ag99
ag100
ag45
ag45
ag99
ag99
ag99
ag99
ag100
ag101
ag45
ag99
ag99
ag99
ag100
ag101
ag99
ag101
ag100
ag100
ag101
ag99
ag100
ag101
ag45
ag99
ag99
ag99
ag45
ag99
ag101
ag99
ag45
ag101
ag99
ag101
ag100
ag99
ag101
ag45
ag99
ag45
ag99
ag100
ag99
ag101
ag101
ag101
ag100
ag100
ag99
ag99
ag100
ag99
ag45
ag100
ag45
ag99
ag100
ag99
ag45
ag45
ag45
ag45
ag45
ag99
ag45
ag99
ag101
ag101
ag99
ag45
ag45
ag100
ag45
ag99
ag99
ag99
ag100
asS'um_before'
p102
(lp103
g101
ag45
ag99
ag101
ag99
ag101
ag100
ag99
ag100
ag101
ag100
ag45
ag100
ag101
ag45
ag101
ag99
ag99
ag99
ag101
ag101
ag100
ag100
ag101
ag100
ag101
ag45
ag45
ag99
ag99
ag45
ag101
ag99
ag101
ag99
ag101
ag99
ag100
ag101
ag99
ag100
ag100
ag100
ag101
ag99
ag100
ag101
ag45
ag101
ag99
ag100
ag100
ag99
ag100
ag99
ag99
ag99
ag99
ag101
ag100
ag101
ag101
ag101
ag45
ag45
ag99
ag101
ag100
ag99
ag101
ag101
ag101
ag99
ag101
ag99
ag100
ag99
ag100
ag100
ag45
ag101
ag101
ag99
ag45
ag45
ag45
ag45
ag45
ag99
ag100
ag99
ag99
ag101
ag45
ag101
ag99
ag101
ag99
ag100
ag99
ag45
ag45
asS'um_after'
p104
(lp105
g101
ag45
ag99
ag101
ag99
ag101
ag100
ag99
ag100
ag101
ag100
ag45
ag100
ag101
ag45
ag101
ag99
ag99
ag99
ag101
ag101
ag100
ag100
ag101
ag100
ag101
ag45
ag99
ag99
ag99
ag99
ag101
ag99
ag101
ag99
ag101
ag99
ag100
ag101
ag99
ag100
ag100
ag100
ag101
ag99
ag100
ag101
ag99
ag101
ag99
ag100
ag100
ag99
ag100
ag99
ag99
ag99
ag99
ag101
ag100
ag101
ag101
ag101
ag99
ag45
ag99
ag101
ag100
ag99
ag101
ag101
ag101
ag99
ag101
ag99
ag100
ag99
ag100
ag100
ag45
ag101
ag101
ag99
ag45
ag99
ag45
ag99
ag45
ag99
ag100
ag99
ag99
ag101
ag45
ag101
ag99
ag101
ag99
ag100
ag99
ag99
ag45
asaa(lp106
S'index'
p107
aI17551
aatp108
Rp109
.