ccollections
OrderedDict
p0
((lp1
(lp2
S'index'
p3
aI8928
aa(lp4
S'combination_dict'
p5
ag0
((lp6
(lp7
S'r_to_g_config'
p8
aS'bl'
p9
aa(lp10
S'num_turns'
p11
aI1
aa(lp12
S'start_direction'
p13
acutils_ms
StartDirection
p14
(I1
tp15
Rp16
aa(lp17
S'assistance_type'
p18
acutils_ms
AssistanceType
p19
(I1
tp20
Rp21
aa(lp22
S'start_mode'
p23
aS't'
p24
aa(lp25
S'ui_given_a_noise'
p26
aF0.7
aa(lp27
S'um_given_ui_noise'
p28
aF0.1
aa(lp29
S'entropy_threshold'
p30
aF0.9
aa(lp31
S'is_assistance'
p32
aI01
aatp33
Rp34
aa(lp35
S'trials'
p36
ag0
((lp37
(lp38
I0
accollections
defaultdict
p39
(c__builtin__
list
p40
tp41
Rp42
S'a'
p43
(lp44
S'mode_l'
p45
ag45
aS'mode_r'
p46
ag46
ag46
ag45
aS'move_n'
p47
ag46
ag45
asS'assistance_match_with_ground_truth'
p48
(lp49
I00
aI00
aI00
aI00
aI00
aI01
aI01
aI00
aI00
asS'total_steps'
p50
I9
sS'sp'
p51
(S'p2'
p52
I0
S'x'
p53
tp54
sS's'
p55
(lp56
(S'p0'
p57
I0
g24
tp58
a(g57
I0
S't'
p59
tp60
a(g57
I0
g53
tp61
a(g57
I0
g53
tp62
a(g57
I0
g53
tp63
a(g57
I0
g59
tp64
a(g57
I0
S'y'
p65
tp66
a(S'p1'
p67
I0
g65
tp68
a(g67
I0
g53
tp69
asS'ui'
p70
(lp71
g51
aS'hp'
p72
ag51
aS'ss'
p73
aS'hs'
p74
ag74
ag73
ag73
ag73
asS'um_before'
p75
(lp76
g51
ag72
ag51
ag73
ag74
ag74
ag73
ag74
ag73
asS'um_after'
p77
(lp78
g51
ag72
ag51
ag73
ag74
ag74
ag73
ag74
ag73
asaa(lp79
I1
ag39
(g40
tp80
Rp81
g43
(lp82
g45
ag47
ag45
ag47
ag46
ag45
aS'move_p'
p83
ag45
ag83
ag46
ag47
asg48
(lp84
I01
aI00
aI01
aI01
aI00
aI01
aI00
aI01
aI01
aI01
aI01
asg50
I11
sg51
(g52
F1.5707963267948966
g53
tp85
sg55
(lp86
(g57
I0
g24
tp87
ag66
a(g57
I0
g59
tp88
ag66
ag68
ag69
a(g67
I0
g59
tp89
a(g67
I0
g53
tp90
ag89
a(g67
F1.5707963267948966
g59
tp91
a(g67
F1.5707963267948966
g53
tp92
asg70
(lp93
g74
ag72
ag74
ag73
ag74
ag74
ag72
ag74
ag51
ag72
ag73
asg75
(lp94
g74
ag72
ag74
ag73
ag74
ag74
ag72
ag74
ag51
ag72
ag73
asg77
(lp95
g74
ag72
ag74
ag73
ag74
ag74
ag72
ag74
ag51
ag72
ag73
asaa(lp96
I2
ag39
(g40
tp97
Rp98
g43
(lp99
g45
ag47
ag45
ag45
ag47
ag46
ag46
ag46
ag46
ag45
ag46
ag46
ag46
ag83
ag45
ag46
ag47
ag46
ag83
ag46
ag46
ag46
ag46
ag46
ag83
ag46
ag47
asg48
(lp100
I01
aI00
aI00
aI01
aI01
aI00
aI00
aI00
aI00
aI00
aI00
aI00
aI01
aI00
aI00
aI01
aI01
aI01
aI00
aI00
aI00
aI00
aI00
aI01
aI01
aI01
aI01
asg50
I27
sg51
g85
sg55
(lp101
(g57
I0
g24
tp102
ag66
ag88
a(g57
I0
g59
tp103
ag66
ag68
a(g67
I0
g65
tp104
a(g67
I0
g65
tp105
ag105
ag69
a(g67
I0
g65
tp106
ag105
ag104
a(g67
I0
g59
tp107
ag90
a(g57
I0
g53
tp108
a(g57
I0
g65
tp109
ag68
ag107
a(g67
I0
g65
tp110
ag105
ag105
ag105
ag105
ag107
ag91
ag92
asg70
(lp111
g74
ag72
ag72
ag74
ag73
ag51
ag73
ag73
ag74
ag72
ag51
ag51
ag72
ag72
ag74
ag72
ag73
ag74
ag74
ag74
ag72
ag73
ag51
ag72
ag51
ag72
ag73
asg75
(lp112
g74
ag72
ag73
ag74
ag73
ag51
ag73
ag73
ag74
ag72
ag73
ag51
ag72
ag72
ag51
ag72
ag73
ag72
ag74
ag73
ag73
ag73
ag73
ag72
ag51
ag72
ag73
asg77
(lp113
g74
ag72
ag73
ag74
ag73
ag51
ag73
ag73
ag74
ag72
ag73
ag51
ag72
ag72
ag51
ag72
ag73
ag72
ag74
ag73
ag73
ag73
ag73
ag72
ag51
ag72
ag73
asaa(lp114
I3
ag39
(g40
tp115
Rp116
g43
(lp117
g45
ag45
ag47
ag46
ag47
ag46
ag47
ag46
ag46
ag46
ag45
ag83
ag45
ag83
ag46
ag83
ag46
ag83
ag45
ag83
ag83
ag46
ag47
asg48
(lp118
I00
aI01
aI00
aI01
aI00
aI01
aI01
aI00
aI00
aI00
aI01
aI00
aI01
aI01
aI00
aI01
aI00
aI00
aI01
aI00
aI01
aI01
aI01
asg50
I23
sg51
g85
sg55
(lp119
(g57
I0
g24
tp120
ag60
ag66
a(g57
I0
g53
tp121
ag109
ag121
ag109
ag68
ag104
ag104
ag69
ag89
ag90
ag89
ag91
a(g67
I0
g59
tp122
ag91
ag122
ag90
ag89
a(g67
I0
g59
tp123
ag91
ag92
asg70
(lp124
g51
ag74
ag74
ag72
ag73
ag74
ag73
ag51
ag51
ag74
ag74
ag72
ag74
ag51
ag73
ag51
ag73
ag72
ag74
ag74
ag51
ag72
ag73
asg75
(lp125
g51
ag74
ag74
ag72
ag74
ag72
ag73
ag51
ag51
ag74
ag74
ag72
ag74
ag51
ag73
ag51
ag73
ag72
ag74
ag73
ag51
ag72
ag73
asg77
(lp126
g51
ag74
ag74
ag72
ag74
ag72
ag73
ag51
ag51
ag74
ag74
ag72
ag74
ag51
ag73
ag51
ag73
ag72
ag74
ag73
ag51
ag72
ag73
asaa(lp127
I4
ag39
(g40
tp128
Rp129
g43
(lp130
g45
ag47
ag45
ag45
ag47
ag46
ag46
ag46
ag47
ag46
ag46
ag83
ag46
ag45
asg48
(lp131
I01
aI00
aI00
aI01
aI00
aI00
aI00
aI01
aI01
aI00
aI01
aI00
aI00
aI00
asg50
I14
sg51
g54
sg55
(lp132
(g57
I0
g24
tp133
ag66
ag88
ag60
ag66
ag121
ag63
ag63
ag109
ag68
ag104
ag107
ag110
ag69
asg70
(lp134
g74
ag72
ag72
ag74
ag74
ag73
ag73
ag72
ag73
ag51
ag72
ag74
ag72
ag73
asg75
(lp135
g74
ag72
ag51
ag74
ag74
ag73
ag73
ag72
ag73
ag51
ag72
ag74
ag74
ag73
asg77
(lp136
g74
ag72
ag51
ag74
ag74
ag73
ag73
ag72
ag73
ag51
ag72
ag74
ag74
ag73
asaa(lp137
I5
ag39
(g40
tp138
Rp139
g43
(lp140
g45
ag47
ag47
ag46
ag83
ag83
ag46
ag47
ag45
ag47
ag46
ag47
asg48
(lp141
I01
aI00
aI01
aI01
aI00
aI01
aI01
aI00
aI01
aI00
aI01
aI01
asg50
I12
sg51
g85
sg55
(lp142
(g57
I0
g24
tp143
ag66
a(g57
I0
g65
tp144
ag68
ag107
ag123
ag91
ag92
a(g67
F1.5707963267948966
g65
tp145
a(g67
F1.5707963267948966
g53
tp146
a(g67
F1.5707963267948966
g59
tp147
ag92
asg70
(lp148
g74
ag73
ag73
ag72
ag74
ag74
ag72
ag72
ag74
ag74
ag72
ag73
asg75
(lp149
g74
ag51
ag73
ag72
ag73
ag51
ag72
ag72
ag74
ag74
ag72
ag73
asg77
(lp150
g74
ag51
ag73
ag72
ag73
ag51
ag72
ag72
ag74
ag74
ag72
ag73
asaa(lp151
I6
ag39
(g40
tp152
Rp153
g43
(lp154
g45
ag47
ag46
ag46
ag45
ag47
ag45
ag47
ag45
ag45
ag45
ag47
ag46
ag83
ag46
ag47
ag46
ag46
ag47
asg48
(lp155
I01
aI00
aI00
aI00
aI01
aI00
aI01
aI00
aI00
aI00
aI01
aI01
aI01
aI01
aI01
aI00
aI00
aI01
aI01
asg50
I19
sg51
g85
sg55
(lp156
(g57
I0
g24
tp157
ag66
ag121
ag62
ag64
ag66
ag88
ag66
ag88
ag60
ag60
ag66
ag68
ag107
ag91
ag92
ag147
a(g67
F1.5707963267948966
g59
tp158
ag92
asg70
(lp159
g74
ag74
ag51
ag74
ag74
ag72
ag74
ag72
ag51
ag51
ag74
ag73
ag72
ag51
ag72
ag72
ag51
ag72
ag73
asg75
(lp160
g74
ag74
ag51
ag74
ag74
ag72
ag74
ag72
ag51
ag51
ag74
ag73
ag72
ag51
ag72
ag74
ag51
ag72
ag73
asg77
(lp161
g74
ag74
ag51
ag74
ag74
ag72
ag74
ag72
ag51
ag51
ag74
ag73
ag72
ag51
ag72
ag74
ag51
ag72
ag73
asaa(lp162
I7
ag39
(g40
tp163
Rp164
g43
(lp165
g45
ag45
ag45
ag45
ag45
ag45
ag45
ag47
ag46
ag46
ag46
ag46
ag83
ag45
ag83
ag46
ag45
ag47
ag45
ag46
ag47
asg48
(lp166
I00
aI00
aI00
aI00
aI00
aI00
aI01
aI01
aI00
aI00
aI00
aI01
aI00
aI01
aI01
aI00
aI01
aI00
aI00
aI01
aI01
asg50
I21
sg51
g85
sg55
(lp167
(g57
I0
g24
tp168
ag103
ag103
ag60
ag60
ag103
ag60
ag66
ag68
ag104
ag105
ag105
ag107
ag90
ag89
ag91
a(g67
F1.5707963267948966
g65
tp169
ag146
ag145
a(g67
F1.5707963267948966
g59
tp170
ag92
asg70
(lp171
g73
ag73
ag51
ag74
ag73
ag51
ag74
ag73
ag51
ag72
ag73
ag72
ag72
ag74
ag51
ag74
ag74
ag72
ag74
ag74
ag73
asg75
(lp172
g73
ag73
ag51
ag51
ag73
ag51
ag74
ag73
ag51
ag73
ag73
ag72
ag72
ag74
ag51
ag74
ag74
ag72
ag72
ag72
ag73
asg77
(lp173
g73
ag73
ag51
ag51
ag73
ag51
ag74
ag73
ag51
ag73
ag73
ag72
ag72
ag74
ag51
ag74
ag74
ag72
ag72
ag72
ag73
asaa(lp174
I8
ag39
(g40
tp175
Rp176
g43
(lp177
g45
ag45
ag45
ag47
ag45
ag47
ag46
ag83
ag46
ag47
asg48
(lp178
I00
aI00
aI01
aI00
aI01
aI01
aI01
aI01
aI01
aI01
asg50
I10
sg51
g85
sg55
(lp179
(g57
I0
g24
tp180
ag103
ag103
ag66
ag88
ag66
ag68
ag107
ag91
ag92
asg70
(lp181
g73
ag74
ag74
ag74
ag74
ag73
ag72
ag51
ag72
ag73
asg75
(lp182
g73
ag73
ag74
ag72
ag74
ag73
ag72
ag51
ag72
ag73
asg77
(lp183
g73
ag73
ag74
ag72
ag74
ag73
ag72
ag51
ag72
ag73
asaa(lp184
I9
ag39
(g40
tp185
Rp186
g43
(lp187
g45
ag46
ag46
ag47
ag46
ag45
ag46
ag47
ag46
ag45
ag83
ag45
ag83
ag45
ag46
ag47
ag45
ag47
ag46
ag83
ag83
ag46
ag46
ag47
ag45
ag47
asg48
(lp188
I00
aI00
aI01
aI01
aI00
aI00
aI01
aI01
aI00
aI01
aI00
aI01
aI00
aI00
aI01
aI00
aI01
aI01
aI01
aI00
aI01
aI00
aI01
aI00
aI01
aI01
asg50
I26
sg51
g85
sg55
(lp189
(g57
I0
g24
tp190
ag61
ag62
ag109
ag68
ag69
ag108
ag109
ag68
ag69
ag89
ag90
ag89
ag90
ag108
ag109
ag88
ag66
ag68
ag107
ag123
ag91
ag158
ag92
ag145
ag146
asg70
(lp191
g72
ag74
ag72
ag73
ag74
ag51
ag72
ag73
ag74
ag74
ag72
ag74
ag72
ag51
ag72
ag72
ag72
ag73
ag72
ag73
ag51
ag51
ag72
ag72
ag74
ag73
asg75
(lp192
g72
ag51
ag72
ag73
ag74
ag51
ag72
ag73
ag74
ag74
ag72
ag74
ag72
ag51
ag72
ag72
ag74
ag73
ag72
ag73
ag51
ag51
ag72
ag72
ag74
ag73
asg77
(lp193
g72
ag51
ag72
ag73
ag74
ag51
ag72
ag73
ag74
ag74
ag72
ag74
ag72
ag51
ag72
ag72
ag74
ag73
ag72
ag73
ag51
ag51
ag72
ag72
ag74
ag73
asaatp194
Rp195
aatp196
Rp197
.