ccollections
OrderedDict
p0
((lp1
(lp2
S'combination_dict'
p3
ag0
((lp4
(lp5
S'r_to_g_config'
p6
aS'tr'
p7
aa(lp8
S'num_turns'
p9
aI3
aa(lp10
S'start_direction'
p11
acutils_ms
StartDirection
p12
(I1
tp13
Rp14
aa(lp15
S'assistance_type'
p16
acutils_ms
AssistanceType
p17
(I2
tp18
Rp19
aa(lp20
S'start_mode'
p21
aS'x'
p22
aa(lp23
S'ui_given_a_noise'
p24
aF0.1
aa(lp25
S'um_given_ui_noise'
p26
aF0.7
aa(lp27
S'entropy_threshold'
p28
aF0.7
aatp29
Rp30
aa(lp31
S'data'
p32
accollections
defaultdict
p33
(c__builtin__
list
p34
tp35
Rp36
S'a'
p37
(lp38
S'mode_r'
p39
aS'move_p'
p40
ag39
ag39
aS'mode_l'
p41
ag41
ag41
ag40
ag40
ag41
ag40
ag40
ag40
ag39
ag39
ag39
ag39
ag40
ag41
ag40
ag40
ag41
ag40
ag39
ag39
ag40
ag39
ag40
ag40
ag39
ag41
ag39
ag40
ag39
ag40
ag41
ag41
ag41
ag39
ag40
ag41
ag40
ag40
ag41
ag39
ag41
ag40
ag41
ag40
ag39
ag39
ag41
ag40
ag41
ag40
asS'assistance_match_with_ground_truth'
p42
(lp43
I01
aI00
aI00
aI00
aI00
aI00
aI01
aI00
aI00
aI01
aI00
aI00
aI01
aI00
aI00
aI00
aI01
aI00
aI01
aI00
aI00
aI01
aI00
aI00
aI01
aI00
aI01
aI00
aI01
aI00
aI00
aI01
aI00
aI01
aI00
aI00
aI00
aI00
aI01
aI00
aI01
aI00
aI01
aI00
aI00
aI01
aI00
aI01
aI01
aI00
aI00
aI01
aI01
aI01
aI01
asS'total_steps'
p44
I55
sS'sp'
p45
(lp46
(S'p0'
p47
I0
S'y'
p48
tp49
a(g47
I0
S'x'
p50
tp51
a(g47
I0
g50
tp52
a(g47
I0
S't'
p53
tp54
a(g47
I0
g53
tp55
ag55
a(g47
I0
g48
tp56
a(g47
I0
g48
tp57
a(g47
I0
g53
tp58
ag56
ag57
ag57
a(S'p1'
p59
I0
g48
tp60
a(g59
I0
g48
tp61
ag61
ag61
a(g59
I0
g53
tp62
a(g59
I0
g50
tp63
a(g59
I0
g53
tp64
a(g59
I0
g53
tp65
ag63
ag64
a(g59
I0
g48
tp66
ag61
ag62
ag66
ag62
ag65
a(g59
F1.5707963267948966
g53
tp67
a(g59
F1.5707963267948966
g48
tp68
a(g59
F1.5707963267948966
g53
tp69
a(g59
F1.5707963267948966
g50
tp70
a(g47
F1.5707963267948966
g50
tp71
a(g47
F1.5707963267948966
g48
tp72
a(g47
F1.5707963267948966
g53
tp73
a(g47
F1.5707963267948966
g53
tp74
a(g47
F1.5707963267948966
g53
tp75
a(g47
F1.5707963267948966
g50
tp76
ag72
ag73
a(g47
F1.5707963267948966
g48
tp77
a(g47
F1.5707963267948966
g48
tp78
a(g59
F1.5707963267948966
g48
tp79
ag69
ag68
a(g59
F1.5707963267948966
g50
tp80
a(g59
F1.5707963267948966
g48
tp81
ag80
a(S'p2'
p82
F1.5707963267948966
g50
tp83
a(g82
F1.5707963267948966
g50
tp84
a(g82
F1.5707963267948966
g53
tp85
a(g82
F1.5707963267948966
g48
tp86
a(S'p3'
p87
F1.5707963267948966
g48
tp88
a(g87
F1.5707963267948966
g50
tp89
a(S'p4'
p90
F1.5707963267948966
g50
tp91
asS's'
p92
(lp93
(g47
I0
g22
tp94
ag49
ag51
ag52
ag54
ag55
ag55
ag56
ag57
ag58
ag56
ag57
ag57
ag60
ag61
ag61
ag61
ag62
ag63
ag64
ag65
ag63
ag64
ag66
ag61
ag62
ag66
ag62
ag65
ag67
ag68
ag69
ag70
ag71
ag72
ag73
ag74
ag75
ag76
ag72
ag73
ag77
ag78
ag79
ag69
ag68
ag80
ag81
ag80
ag83
ag84
ag85
ag86
ag88
ag89
asS'ui'
p95
(lp96
S'hp'
p97
ag97
ag97
ag97
aS'hs'
p98
ag98
ag98
ag45
ag45
ag98
ag45
ag45
ag45
ag97
aS'ss'
p99
ag99
ag97
ag45
ag98
ag98
ag45
ag98
ag45
ag97
ag97
ag45
ag97
ag99
ag45
ag97
ag97
ag97
ag45
ag97
ag45
ag98
ag98
ag98
ag97
ag97
ag98
ag45
ag45
ag98
ag97
ag98
ag45
ag98
ag45
ag97
ag97
ag98
ag45
ag98
ag45
asS'um_before'
p100
(lp101
g97
ag98
ag99
ag98
ag45
ag45
ag98
ag99
ag97
ag98
ag99
ag99
ag45
ag99
ag99
ag99
ag97
ag97
ag98
ag99
ag97
ag98
ag98
ag99
ag97
ag98
ag97
ag99
ag45
ag98
ag97
ag97
ag99
ag97
ag97
ag45
ag99
ag97
ag97
ag97
ag98
ag99
ag45
ag97
ag98
ag98
ag97
ag98
ag45
ag99
ag98
ag98
ag45
ag98
ag45
asS'um_after'
p102
(lp103
g97
ag98
ag99
ag98
ag45
ag45
ag98
ag99
ag97
ag98
ag99
ag99
ag45
ag99
ag99
ag99
ag97
ag97
ag98
ag99
ag97
ag98
ag98
ag99
ag97
ag98
ag97
ag99
ag45
ag98
ag97
ag97
ag99
ag97
ag97
ag45
ag99
ag97
ag97
ag97
ag98
ag99
ag45
ag97
ag98
ag98
ag97
ag98
ag45
ag99
ag98
ag98
ag45
ag98
ag45
asaa(lp104
S'index'
p105
aI27371
aatp106
Rp107
.