ccollections
OrderedDict
p0
((lp1
(lp2
S'index'
p3
aI7786
aa(lp4
S'combination_dict'
p5
ag0
((lp6
(lp7
S'r_to_g_config'
p8
aS'bl'
p9
aa(lp10
S'num_turns'
p11
aI1
aa(lp12
S'start_direction'
p13
acutils_ms
StartDirection
p14
(I3
tp15
Rp16
aa(lp17
S'assistance_type'
p18
acutils_ms
AssistanceType
p19
(I0
tp20
Rp21
aa(lp22
S'start_mode'
p23
aS't'
p24
aa(lp25
S'ui_given_a_noise'
p26
aF0.5
aa(lp27
S'um_given_ui_noise'
p28
aF0.5
aa(lp29
S'entropy_threshold'
p30
aF0.8
aa(lp31
S'is_assistance'
p32
aI01
aatp33
Rp34
aa(lp35
S'trials'
p36
ag0
((lp37
(lp38
I0
accollections
defaultdict
p39
(c__builtin__
list
p40
tp41
Rp42
S'a'
p43
(lp44
S'mode_r'
p45
aS'move_n'
p46
ag46
ag46
aS'mode_l'
p47
ag45
ag47
aS'move_p'
p48
ag48
ag48
ag48
ag48
ag48
ag47
ag48
ag47
ag45
ag46
asS'assistance_match_with_ground_truth'
p49
(lp50
I01
aI00
aI00
aI01
aI00
aI00
aI01
aI00
aI00
aI00
aI00
aI00
aI01
aI00
aI01
aI00
aI01
aI01
asS'total_steps'
p51
I18
sS'sp'
p52
(S'p2'
p53
F1.5707963267948966
S'y'
p54
tp55
sS's'
p56
(lp57
(S'p0'
p58
I0
g24
tp59
a(g58
I0
S'x'
p60
tp61
ag61
ag61
a(S'p1'
p62
I0
g60
tp63
a(g62
I0
g54
tp64
a(g62
I0
g60
tp65
a(g62
I0
S't'
p66
tp67
ag67
ag67
ag67
ag67
ag67
a(g62
F1.5707963267948966
g66
tp68
a(g62
I0
g66
tp69
ag68
a(g62
F1.5707963267948966
g60
tp70
a(g62
F1.5707963267948966
g54
tp71
asS'ui'
p72
(lp73
S'hp'
p74
ag74
aS'ss'
p75
ag74
ag52
ag74
ag75
ag52
ag52
ag52
ag52
ag52
ag52
ag75
ag52
ag74
ag74
ag75
asS'um_before'
p76
(lp77
g74
ag52
aS'hs'
p78
ag75
ag74
ag78
ag78
ag74
ag74
ag74
ag74
ag78
ag52
ag75
ag52
ag74
ag74
ag75
asS'um_after'
p79
(lp80
g74
aNaNag75
ag74
ag78
ag78
aNaNaNaNaNag52
ag75
ag52
ag74
ag74
ag75
asaa(lp81
I1
ag39
(g40
tp82
Rp83
g43
(lp84
g45
ag47
ag47
ag47
ag47
ag47
ag46
ag47
ag45
ag48
ag48
ag48
ag48
ag48
ag48
ag48
ag47
ag47
ag47
ag46
ag47
ag45
ag47
ag45
ag45
ag47
ag47
ag48
ag48
ag47
ag45
ag45
ag45
ag45
ag47
ag46
ag46
asg49
(lp85
I00
aI00
aI00
aI00
aI00
aI01
aI01
aI00
aI01
aI00
aI00
aI00
aI00
aI00
aI00
aI01
aI00
aI00
aI01
aI00
aI00
aI00
aI00
aI00
aI00
aI00
aI00
aI00
aI01
aI00
aI00
aI00
aI00
aI00
aI01
aI00
aI01
asg51
I37
sg52
g55
sg56
(lp86
(g58
I0
g24
tp87
a(g58
I0
g54
tp88
a(g58
I0
g54
tp89
a(g58
I0
g54
tp90
ag89
ag89
a(g58
I0
g60
tp91
ag63
ag64
a(g62
I0
g66
tp92
ag92
ag92
ag92
ag92
ag92
ag92
ag68
a(g62
F1.5707963267948966
g66
tp93
ag93
a(g62
F1.5707963267948966
g54
tp94
a(g62
F1.5707963267948966
g66
tp95
ag70
a(g62
F1.5707963267948966
g66
tp96
ag70
a(g62
F1.5707963267948966
g60
tp97
ag96
ag93
ag69
ag69
ag68
ag70
ag97
ag97
ag97
ag96
ag94
ag94
asg72
(lp98
g74
ag75
ag78
ag78
ag78
ag78
ag75
ag78
ag78
ag52
ag52
ag52
ag52
ag52
ag52
ag52
ag52
ag78
ag78
ag74
ag74
ag78
ag74
ag75
ag78
ag52
ag75
ag52
ag52
ag74
ag75
ag75
ag75
ag78
ag78
ag78
ag74
asg76
(lp99
g78
ag75
ag52
ag75
ag75
ag78
ag75
ag74
ag74
ag74
ag75
ag74
ag75
ag78
ag74
ag52
ag52
ag52
ag78
ag74
ag74
ag78
ag74
ag75
ag78
ag52
ag75
ag78
ag52
ag74
ag75
ag75
ag75
ag78
ag78
ag78
ag75
asg79
(lp100
g78
ag75
ag52
ag75
ag75
ag78
ag75
ag74
ag74
aNaNaNaNaNaNag52
ag52
ag52
ag78
ag74
ag74
ag78
ag74
ag75
ag78
ag52
ag75
aNag52
ag74
ag75
ag75
ag75
ag78
ag78
aNag75
asaa(lp101
I2
ag39
(g40
tp102
Rp103
g43
(lp104
g45
ag45
ag46
ag47
ag47
ag48
ag47
ag46
asg49
(lp105
I00
aI01
aI01
aI00
aI01
aI01
aI01
aI01
asg51
I8
sg52
g55
sg56
(lp106
(g58
I0
g24
tp107
a(g58
I0
g66
tp108
ag61
ag63
a(g62
I0
g60
tp109
ag67
ag68
ag94
asg72
(lp110
g78
ag74
ag75
ag75
ag74
ag52
ag78
ag75
asg76
(lp111
g75
ag74
ag75
ag75
ag78
ag52
ag78
ag75
asg79
(lp112
g75
ag74
ag75
ag75
ag78
ag52
ag78
ag75
asaa(lp113
I3
ag39
(g40
tp114
Rp115
g43
(lp116
g45
ag46
ag47
ag47
ag47
ag48
ag47
ag46
ag46
asg49
(lp117
I01
aI01
aI00
aI00
aI01
aI01
aI01
aI00
aI01
asg51
I9
sg52
g55
sg56
(lp118
(g58
I0
g24
tp119
ag61
ag63
a(g62
I0
g60
tp120
ag120
ag67
ag68
ag94
ag94
asg72
(lp121
g74
ag75
ag74
ag52
ag78
ag52
ag75
ag75
ag75
asg76
(lp122
g74
ag75
ag52
ag52
ag78
ag52
ag78
ag78
ag75
asg79
(lp123
g74
ag75
ag52
ag52
ag78
ag52
ag78
aNag75
asaa(lp124
I4
ag39
(g40
tp125
Rp126
g43
(lp127
g45
ag46
ag47
ag47
ag47
ag45
ag46
ag47
ag45
asg49
(lp128
I01
aI00
aI00
aI00
aI00
aI01
aI01
aI00
aI00
asg51
I9
sg52
(g53
I0
g54
tp129
sg56
(lp130
(g58
I0
g24
tp131
ag61
a(g58
I0
g54
tp132
ag90
ag89
a(g58
I0
g66
tp133
ag61
ag63
ag64
asg72
(lp134
g74
ag75
ag52
ag75
ag74
ag74
ag75
ag78
ag74
asg76
(lp135
g74
ag74
ag52
ag75
ag74
ag74
ag75
ag74
ag75
asg79
(lp136
g74
ag74
ag52
ag75
ag74
ag74
ag75
ag74
ag75
asaa(lp137
I5
ag39
(g40
tp138
Rp139
g43
(lp140
g45
ag45
ag45
ag46
ag47
ag46
ag46
ag47
ag47
ag45
ag47
ag48
ag48
ag48
ag47
ag45
ag46
ag47
ag47
ag45
ag46
ag46
ag47
ag45
ag47
ag46
ag47
ag46
asg49
(lp141
I00
aI00
aI01
aI00
aI01
aI00
aI01
aI00
aI00
aI00
aI01
aI00
aI00
aI01
aI00
aI01
aI00
aI00
aI00
aI01
aI00
aI00
aI00
aI00
aI01
aI00
aI01
aI01
asg51
I28
sg52
g55
sg56
(lp142
(g58
I0
g24
tp143
ag108
ag108
ag61
ag132
ag91
ag91
ag63
ag109
ag64
ag65
ag67
ag67
ag67
ag68
ag70
ag71
ag95
ag93
ag70
ag71
ag71
ag95
ag70
ag96
ag94
ag95
ag94
asg72
(lp144
g75
ag75
ag78
ag75
ag78
ag74
ag75
ag52
ag74
ag75
ag78
ag52
ag52
ag52
ag78
ag74
ag75
ag78
ag74
ag74
ag75
ag78
ag74
ag78
ag78
ag78
ag52
ag75
asg76
(lp145
g75
ag75
ag74
ag74
ag78
ag52
ag75
ag75
ag74
ag78
ag78
ag78
ag78
ag52
ag74
ag74
ag74
ag52
ag74
ag74
ag78
ag74
ag74
ag78
ag78
ag74
ag78
ag75
asg79
(lp146
g75
ag75
ag74
ag74
ag78
aNag75
ag75
ag74
ag78
ag78
aNaNag52
ag74
ag74
ag74
ag52
ag74
ag74
aNag74
ag74
ag78
ag78
ag74
ag78
ag75
asaa(lp147
I6
ag39
(g40
tp148
Rp149
g43
(lp150
g45
ag45
ag45
ag46
ag47
ag48
ag47
ag46
asg49
(lp151
I00
aI00
aI01
aI01
aI01
aI01
aI01
aI01
asg51
I8
sg52
g55
sg56
(lp152
(g58
I0
g24
tp153
ag108
ag108
ag61
ag63
ag67
ag68
ag94
asg72
(lp154
g75
ag74
ag74
ag75
ag78
ag52
ag78
ag75
asg76
(lp155
g75
ag52
ag74
ag75
ag78
ag52
ag78
ag75
asg79
(lp156
g75
aNag74
ag75
ag78
ag52
ag78
ag75
asaa(lp157
I7
ag39
(g40
tp158
Rp159
g43
(lp160
g45
ag45
ag47
ag46
ag47
ag48
ag48
ag47
ag47
ag45
ag46
asg49
(lp161
I00
aI00
aI01
aI01
aI01
aI00
aI01
aI00
aI00
aI01
aI01
asg51
I11
sg52
g55
sg56
(lp162
(g58
I0
g24
tp163
ag108
ag88
ag91
ag63
ag67
ag67
ag68
ag93
ag70
ag71
asg72
(lp164
g74
ag74
ag78
ag75
ag78
ag52
ag52
ag74
ag74
ag78
ag75
asg76
(lp165
g75
ag78
ag78
ag75
ag78
ag74
ag52
ag52
ag74
ag74
ag75
asg79
(lp166
g75
ag78
ag78
ag75
ag78
aNag52
ag52
ag74
ag74
ag75
asaa(lp167
I8
ag39
(g40
tp168
Rp169
g43
(lp170
g45
ag46
ag47
ag47
ag48
ag47
ag45
ag46
ag46
ag46
asg49
(lp171
I01
aI01
aI00
aI01
aI01
aI00
aI01
aI00
aI00
aI01
asg51
I10
sg52
g55
sg56
(lp172
(g58
I0
g24
tp173
ag61
ag63
ag109
ag67
ag68
ag70
ag71
ag71
ag71
asg72
(lp174
g74
ag75
ag78
ag78
ag52
ag74
ag78
ag75
ag78
ag75
asg76
(lp175
g74
ag75
ag75
ag78
ag52
ag74
ag74
ag78
ag78
ag75
asg79
(lp176
g74
ag75
ag75
ag78
ag52
ag74
ag74
aNaNag75
asaa(lp177
I9
ag39
(g40
tp178
Rp179
g43
(lp180
g45
ag46
ag47
ag48
ag48
ag47
ag46
asg49
(lp181
I01
aI01
aI01
aI00
aI01
aI01
aI01
asg51
I7
sg52
g55
sg56
(lp182
(g58
I0
g24
tp183
ag61
ag63
ag67
ag67
ag68
ag94
asg72
(lp184
g74
ag75
ag78
ag52
ag52
ag78
ag75
asg76
(lp185
g74
ag75
ag78
ag78
ag52
ag78
ag75
asg79
(lp186
g74
ag75
ag78
aNag52
ag78
ag75
asaatp187
Rp188
aatp189
Rp190
.