ccollections
OrderedDict
p0
((lp1
(lp2
S'combination_dict'
p3
ag0
((lp4
(lp5
S'r_to_g_config'
p6
aS'tr'
p7
aa(lp8
S'num_turns'
p9
aI3
aa(lp10
S'start_direction'
p11
acutils_ms
StartDirection
p12
(I0
tp13
Rp14
aa(lp15
S'assistance_type'
p16
acutils_ms
AssistanceType
p17
(I0
tp18
Rp19
aa(lp20
S'start_mode'
p21
aS'y'
p22
aa(lp23
S'ui_given_a_noise'
p24
aF0.7
aa(lp25
S'um_given_ui_noise'
p26
aF0.7
aa(lp27
S'entropy_threshold'
p28
aF0.9
aatp29
Rp30
aa(lp31
S'data'
p32
accollections
defaultdict
p33
(c__builtin__
list
p34
tp35
Rp36
S'a'
p37
(lp38
S'mode_l'
p39
ag39
aS'move_p'
p40
ag40
aS'mode_r'
p41
ag40
ag41
ag39
ag39
ag39
ag40
ag39
ag39
ag40
ag41
ag41
ag40
ag40
ag40
ag41
ag41
ag41
ag40
ag41
ag41
ag41
ag40
ag41
ag41
ag41
ag40
ag40
ag39
ag41
ag40
ag40
ag39
ag39
ag41
ag40
ag40
ag39
ag40
ag41
ag41
ag40
ag40
asS'assistance_match_with_ground_truth'
p42
(lp43
I00
aI01
aI00
aI01
aI01
aI00
aI00
aI00
aI00
aI01
aI00
aI00
aI01
aI00
aI00
aI01
aI00
aI00
aI01
aI00
aI00
aI01
aI00
aI00
aI00
aI01
aI00
aI00
aI00
aI01
aI00
aI01
aI00
aI01
aI00
aI01
aI00
aI00
aI01
aI00
aI01
aI01
aI00
aI00
aI01
aI00
aI01
asS'total_steps'
p44
I47
sS'sp'
p45
(lp46
(S'p0'
p47
I0
g22
tp48
a(g47
I0
S'x'
p49
tp50
ag50
a(S'p1'
p51
I0
g49
tp52
a(g51
I0
S'y'
p53
tp54
a(g51
I0
g49
tp55
a(g51
I0
S't'
p56
tp57
a(g51
I0
g56
tp58
ag58
a(g51
I0
g53
tp59
a(g47
I0
g53
tp60
ag60
ag50
a(g47
I0
g56
tp61
a(g47
I0
g56
tp62
a(g47
I0
g49
tp63
ag63
a(g47
I0
g49
tp64
ag52
a(g51
I0
g49
tp65
a(g51
I0
g49
tp66
ag54
ag55
ag65
ag65
ag54
ag55
ag65
ag65
ag54
ag54
a(S'p2'
p67
I0
g53
tp68
a(g67
I0
g56
tp69
a(g67
I0
g49
tp70
ag70
a(S'p3'
p71
I0
g49
tp72
ag72
a(g71
I0
g53
tp73
a(g71
I0
g56
tp74
a(g71
I0
g56
tp75
a(g71
F1.5707963267948966
g56
tp76
a(g71
F1.5707963267948966
g53
tp77
a(g71
F1.5707963267948966
g49
tp78
a(g71
F1.5707963267948966
g49
tp79
a(g71
F1.5707963267948966
g53
tp80
ag80
a(S'p4'
p81
F1.5707963267948966
g53
tp82
asS's'
p83
(lp84
g48
ag48
ag50
ag50
ag52
ag54
ag55
ag57
ag58
ag58
ag59
ag60
ag60
ag50
ag61
ag62
ag63
ag63
ag64
ag52
ag65
ag66
ag54
ag55
ag65
ag65
ag54
ag55
ag65
ag65
ag54
ag54
ag68
ag69
ag70
ag70
ag72
ag72
ag73
ag74
ag75
ag76
ag77
ag78
ag79
ag80
ag80
asS'ui'
p85
(lp86
g45
ag45
aS'hp'
p87
ag45
ag45
ag87
aS'ss'
p88
ag87
aS'hs'
p89
ag89
ag88
ag89
ag89
ag89
ag87
ag45
ag45
ag87
ag45
ag87
ag45
ag87
ag89
ag88
ag88
ag87
ag89
ag87
ag87
ag45
ag87
ag45
ag87
ag87
ag45
ag45
ag45
ag45
ag87
ag88
ag45
ag88
ag89
ag88
ag87
ag89
ag87
asS'um_before'
p90
(lp91
g45
ag89
ag87
ag45
ag87
ag89
ag89
ag88
ag88
ag89
ag88
ag45
ag89
ag89
ag88
ag87
ag87
ag88
ag45
ag88
ag45
ag87
ag89
ag88
ag88
ag87
ag89
ag88
ag88
ag87
ag87
ag45
ag87
ag87
ag87
ag45
ag45
ag87
ag87
ag88
ag45
ag89
ag89
ag88
ag87
ag87
ag45
asS'um_after'
p92
(lp93
Nag89
aNag45
ag87
ag89
ag89
ag88
ag88
ag89
ag88
aNag89
ag89
ag88
ag87
aNag88
ag45
ag88
ag45
ag87
ag89
ag88
ag88
ag87
ag89
ag88
ag88
ag87
aNag45
ag87
ag87
aNag45
aNag87
ag87
ag88
ag45
ag89
ag89
ag88
ag87
aNag45
asaa(lp94
S'index'
p95
aI20798
aatp96
Rp97
.