ccollections
OrderedDict
p0
((lp1
(lp2
S'index'
p3
aI7546
aa(lp4
S'combination_dict'
p5
ag0
((lp6
(lp7
S'r_to_g_config'
p8
aS'tl'
p9
aa(lp10
S'num_turns'
p11
aI3
aa(lp12
S'start_direction'
p13
acutils_ms
StartDirection
p14
(I1
tp15
Rp16
aa(lp17
S'assistance_type'
p18
acutils_ms
AssistanceType
p19
(I1
tp20
Rp21
aa(lp22
S'start_mode'
p23
aS't'
p24
aa(lp25
S'ui_given_a_noise'
p26
aF0.1
aa(lp27
S'um_given_ui_noise'
p28
aF0.5
aa(lp29
S'entropy_threshold'
p30
aF0.8
aa(lp31
S'is_assistance'
p32
aI01
aatp33
Rp34
aa(lp35
S'trials'
p36
ag0
((lp37
(lp38
I0
accollections
defaultdict
p39
(c__builtin__
list
p40
tp41
Rp42
S'a'
p43
(lp44
S'mode_l'
p45
aS'move_p'
p46
ag45
aS'move_n'
p47
aS'mode_r'
p48
ag46
ag48
ag46
ag48
ag47
ag48
ag46
ag45
ag47
asS'assistance_match_with_ground_truth'
p49
(lp50
I01
aI01
aI01
aI01
aI01
aI01
aI01
aI01
aI01
aI00
aI01
aI01
aI01
aI01
asS'total_steps'
p51
I14
sS'sp'
p52
(S'p4'
p53
F1.5707963267948966
S'x'
p54
tp55
sS's'
p56
(lp57
(S'p0'
p58
I0
g24
tp59
a(g58
I0
S'y'
p60
tp61
a(S'p1'
p62
I0
g60
tp63
a(g62
I0
g54
tp64
a(S'p2'
p65
I0
g54
tp66
a(g65
I0
g60
tp67
a(S'p3'
p68
I0
g60
tp69
a(g68
I0
S't'
p70
tp71
a(g68
F1.5707963267948966
g70
tp72
a(g68
F1.5707963267948966
g54
tp73
a(g65
F1.5707963267948966
g54
tp74
a(g65
F1.5707963267948966
g60
tp75
a(g68
F1.5707963267948966
g60
tp76
a(g68
F1.5707963267948966
g54
tp77
asS'ui'
p78
(lp79
S'hs'
p80
aS'ss'
p81
ag80
ag81
aS'hp'
p82
ag52
ag82
ag52
ag80
ag52
ag82
ag52
ag80
ag81
asS'um_before'
p83
(lp84
g82
ag80
ag82
ag80
ag81
ag52
ag82
ag81
ag52
ag52
ag80
ag52
ag80
ag82
asS'um_after'
p85
(lp86
g80
ag52
ag80
ag81
ag82
ag52
ag82
ag52
ag82
ag52
ag82
ag52
ag80
ag81
asaa(lp87
I1
ag39
(g40
tp88
Rp89
g43
(lp90
g45
ag46
ag45
ag47
ag48
ag46
ag48
ag46
ag48
ag47
asg49
(lp91
I01
aI01
aI01
aI01
aI01
aI01
aI01
aI01
aI01
aI01
asg51
I10
sg52
g55
sg56
(lp92
(g58
I0
g24
tp93
ag61
ag63
ag64
ag66
ag67
ag69
ag71
ag72
ag73
asg78
(lp94
g80
ag52
ag80
ag81
ag82
ag52
ag81
ag52
ag82
ag81
asg83
(lp95
g80
ag82
ag80
ag82
ag82
ag52
ag81
ag52
ag80
ag82
asg85
(lp96
g80
ag52
ag80
ag81
ag82
ag52
ag82
ag52
ag82
ag81
asaa(lp97
I2
ag39
(g40
tp98
Rp99
g43
(lp100
g45
ag46
ag45
ag47
ag48
ag46
ag48
ag46
ag48
ag47
asg49
(lp101
I01
aI01
aI01
aI01
aI01
aI01
aI01
aI01
aI01
aI01
asg51
I10
sg52
g55
sg56
(lp102
(g58
I0
g24
tp103
ag61
ag63
ag64
ag66
ag67
ag69
ag71
ag72
ag73
asg78
(lp104
g80
ag52
ag80
ag81
ag82
ag52
ag82
ag52
ag82
ag81
asg83
(lp105
g80
ag80
ag80
ag80
ag52
ag82
ag82
ag52
ag82
ag80
asg85
(lp106
g80
ag52
ag80
ag81
ag82
ag52
ag82
ag52
ag82
ag81
asaa(lp107
I3
ag39
(g40
tp108
Rp109
g43
(lp110
g45
ag46
ag45
ag47
ag48
ag46
ag48
ag46
ag48
ag47
asg49
(lp111
I01
aI01
aI01
aI01
aI01
aI01
aI01
aI01
aI01
aI01
asg51
I10
sg52
g55
sg56
(lp112
(g58
I0
g24
tp113
ag61
ag63
ag64
ag66
ag67
ag69
ag71
ag72
ag73
asg78
(lp114
g52
ag52
ag80
ag81
ag81
ag52
ag80
ag52
ag82
ag81
asg83
(lp115
g52
ag82
ag80
ag81
ag81
ag52
ag52
ag81
ag82
ag81
asg85
(lp116
g80
ag52
ag80
ag81
ag82
ag52
ag82
ag52
ag82
ag81
asaa(lp117
I4
ag39
(g40
tp118
Rp119
g43
(lp120
g45
ag46
ag45
ag47
ag48
ag46
ag48
ag46
ag48
ag47
asg49
(lp121
I01
aI01
aI01
aI01
aI01
aI01
aI01
aI01
aI01
aI01
asg51
I10
sg52
g55
sg56
(lp122
(g58
I0
g24
tp123
ag61
ag63
ag64
ag66
ag67
ag69
ag71
ag72
ag73
asg78
(lp124
g80
ag52
ag80
ag81
ag82
ag52
ag82
ag52
ag82
ag81
asg83
(lp125
g82
ag81
ag52
ag82
ag52
ag52
ag52
ag80
ag52
ag81
asg85
(lp126
g80
ag52
ag80
ag81
ag82
ag52
ag82
ag52
ag82
ag81
asaa(lp127
I5
ag39
(g40
tp128
Rp129
g43
(lp130
g45
ag46
ag45
ag47
ag48
ag46
ag48
ag46
ag48
ag47
asg49
(lp131
I01
aI01
aI01
aI01
aI01
aI01
aI01
aI01
aI01
aI01
asg51
I10
sg52
g55
sg56
(lp132
(g58
I0
g24
tp133
ag61
ag63
ag64
ag66
ag67
ag69
ag71
ag72
ag73
asg78
(lp134
g80
ag52
ag82
ag81
ag82
ag52
ag82
ag52
ag82
ag81
asg83
(lp135
g82
ag82
ag81
ag81
ag52
ag52
ag82
ag52
ag52
ag82
asg85
(lp136
g80
ag52
ag80
ag81
ag82
ag52
ag82
ag52
ag82
ag81
asaa(lp137
I6
ag39
(g40
tp138
Rp139
g43
(lp140
g45
ag46
ag45
ag47
ag48
ag46
ag48
ag46
ag48
ag47
asg49
(lp141
I01
aI01
aI01
aI01
aI01
aI01
aI01
aI01
aI01
aI01
asg51
I10
sg52
g55
sg56
(lp142
(g58
I0
g24
tp143
ag61
ag63
ag64
ag66
ag67
ag69
ag71
ag72
ag73
asg78
(lp144
g80
ag52
ag80
ag52
ag82
ag52
ag82
ag52
ag82
ag81
asg83
(lp145
g80
ag52
ag80
ag81
ag81
ag82
ag82
ag81
ag82
ag82
asg85
(lp146
g80
ag52
ag80
ag81
ag82
ag52
ag82
ag52
ag82
ag81
asaa(lp147
I7
ag39
(g40
tp148
Rp149
g43
(lp150
g45
ag46
ag45
ag47
ag48
ag46
ag48
ag46
ag48
ag47
asg49
(lp151
I01
aI01
aI01
aI01
aI01
aI01
aI01
aI01
aI01
aI01
asg51
I10
sg52
g55
sg56
(lp152
(g58
I0
g24
tp153
ag61
ag63
ag64
ag66
ag67
ag69
ag71
ag72
ag73
asg78
(lp154
g80
ag81
ag80
ag81
ag82
ag80
ag82
ag52
ag82
ag52
asg83
(lp155
g82
ag81
ag80
ag82
ag82
ag80
ag52
ag52
ag82
ag81
asg85
(lp156
g80
ag52
ag80
ag81
ag82
ag52
ag82
ag52
ag82
ag81
asaa(lp157
I8
ag39
(g40
tp158
Rp159
g43
(lp160
g45
ag46
ag45
ag47
ag48
ag46
ag48
ag46
ag48
ag47
asg49
(lp161
I01
aI01
aI01
aI01
aI01
aI01
aI01
aI01
aI01
aI01
asg51
I10
sg52
g55
sg56
(lp162
(g58
I0
g24
tp163
ag61
ag63
ag64
ag66
ag67
ag69
ag71
ag72
ag73
asg78
(lp164
g80
ag52
ag80
ag81
ag82
ag80
ag82
ag52
ag80
ag81
asg83
(lp165
g80
ag52
ag80
ag81
ag52
ag80
ag82
ag82
ag82
ag81
asg85
(lp166
g80
ag52
ag80
ag81
ag82
ag52
ag82
ag52
ag82
ag81
asaa(lp167
I9
ag39
(g40
tp168
Rp169
g43
(lp170
g45
ag46
ag45
ag47
ag48
ag46
ag48
ag46
ag48
ag47
asg49
(lp171
I01
aI01
aI01
aI01
aI01
aI01
aI01
aI01
aI01
aI01
asg51
I10
sg52
g55
sg56
(lp172
(g58
I0
g24
tp173
ag61
ag63
ag64
ag66
ag67
ag69
ag71
ag72
ag73
asg78
(lp174
g82
ag52
ag80
ag81
ag82
ag52
ag82
ag52
ag80
ag81
asg83
(lp175
g82
ag52
ag80
ag82
ag81
ag52
ag52
ag52
ag80
ag81
asg85
(lp176
g80
ag52
ag80
ag81
ag82
ag52
ag82
ag52
ag82
ag81
asaatp177
Rp178
aatp179
Rp180
.