ccollections
OrderedDict
p0
((lp1
(lp2
S'index'
p3
aI1634
aa(lp4
S'combination_dict'
p5
ag0
((lp6
(lp7
S'r_to_g_config'
p8
aS'tr'
p9
aa(lp10
S'num_turns'
p11
aI2
aa(lp12
S'start_direction'
p13
acutils_ms
StartDirection
p14
(I3
tp15
Rp16
aa(lp17
S'assistance_type'
p18
acutils_ms
AssistanceType
p19
(I1
tp20
Rp21
aa(lp22
S'start_mode'
p23
aS't'
p24
aa(lp25
S'ui_given_a_noise'
p26
aF0.1
aa(lp27
S'um_given_ui_noise'
p28
aF0.7
aa(lp29
S'entropy_threshold'
p30
aF0.7
aa(lp31
S'is_assistance'
p32
aI01
aatp33
Rp34
aa(lp35
S'trials'
p36
ag0
((lp37
(lp38
I0
accollections
defaultdict
p39
(c__builtin__
list
p40
tp41
Rp42
S'a'
p43
(lp44
S'mode_r'
p45
aS'move_p'
p46
aS'mode_l'
p47
ag46
ag47
ag46
ag47
ag46
asS'assistance_match_with_ground_truth'
p48
(lp49
I01
aI01
aI01
aI01
aI01
aI01
aI01
aI01
asS'total_steps'
p50
I8
sS'sp'
p51
(S'p3'
p52
F1.5707963267948966
S'x'
p53
tp54
sS's'
p55
(lp56
(S'p0'
p57
I0
g24
tp58
a(g57
I0
g53
tp59
a(S'p1'
p60
I0
g53
tp61
a(g60
I0
S't'
p62
tp63
a(g60
F1.5707963267948966
g62
tp64
a(g60
F1.5707963267948966
S'y'
p65
tp66
a(S'p2'
p67
F1.5707963267948966
g65
tp68
a(g67
F1.5707963267948966
g53
tp69
asS'ui'
p70
(lp71
S'hs'
p72
ag51
ag72
ag51
ag72
ag51
ag72
ag51
asS'um_before'
p73
(lp74
g72
ag51
aS'hp'
p75
ag51
ag75
ag51
ag72
ag51
asS'um_after'
p76
(lp77
g75
ag51
ag72
ag51
ag72
ag51
ag72
ag51
asaa(lp78
I1
ag39
(g40
tp79
Rp80
g43
(lp81
g45
ag46
ag47
ag46
ag47
ag46
ag47
ag46
asg48
(lp82
I01
aI01
aI01
aI01
aI01
aI01
aI01
aI01
asg50
I8
sg51
g54
sg55
(lp83
(g57
I0
g24
tp84
ag59
ag61
ag63
ag64
ag66
ag68
ag69
asg70
(lp85
g75
ag51
ag72
ag51
ag72
ag51
ag72
ag51
asg73
(lp86
g72
ag72
ag72
ag72
ag51
ag72
ag51
ag75
asg76
(lp87
g75
ag51
ag72
ag51
ag72
ag51
ag72
ag51
asaa(lp88
I2
ag39
(g40
tp89
Rp90
g43
(lp91
g45
ag46
ag47
ag46
ag47
ag46
ag47
ag46
asg48
(lp92
I01
aI01
aI01
aI01
aI01
aI01
aI01
aI01
asg50
I8
sg51
g54
sg55
(lp93
(g57
I0
g24
tp94
ag59
ag61
ag63
ag64
ag66
ag68
ag69
asg70
(lp95
g51
ag51
ag72
ag75
ag72
ag72
ag72
ag51
asg73
(lp96
g51
ag75
ag51
ag75
ag51
ag72
aS'ss'
p97
ag51
asg76
(lp98
g75
ag51
ag72
ag51
ag72
ag51
ag72
ag51
asaa(lp99
I3
ag39
(g40
tp100
Rp101
g43
(lp102
g45
ag46
ag47
ag46
ag47
ag46
ag47
ag46
asg48
(lp103
I01
aI01
aI01
aI01
aI01
aI01
aI01
aI01
asg50
I8
sg51
g54
sg55
(lp104
(g57
I0
g24
tp105
ag59
ag61
ag63
ag64
ag66
ag68
ag69
asg70
(lp106
g75
ag51
ag72
ag51
ag72
ag51
ag72
ag75
asg73
(lp107
g97
ag51
ag75
ag75
ag51
ag51
ag72
ag51
asg76
(lp108
g75
ag51
ag72
ag51
ag72
ag51
ag72
ag51
asaa(lp109
I4
ag39
(g40
tp110
Rp111
g43
(lp112
g45
ag46
ag47
ag46
ag47
ag46
ag47
ag46
asg48
(lp113
I01
aI01
aI01
aI01
aI01
aI01
aI01
aI01
asg50
I8
sg51
g54
sg55
(lp114
(g57
I0
g24
tp115
ag59
ag61
ag63
ag64
ag66
ag68
ag69
asg70
(lp116
g72
ag51
ag72
ag51
ag72
ag51
ag75
ag51
asg73
(lp117
g51
ag51
ag51
ag51
ag75
ag51
ag97
ag75
asg76
(lp118
g75
ag51
ag72
ag51
ag72
ag51
ag72
ag51
asaa(lp119
I5
ag39
(g40
tp120
Rp121
g43
(lp122
g45
ag46
ag47
ag46
ag47
ag46
ag47
ag46
ag45
ag46
ag47
ag46
asg48
(lp123
I01
aI01
aI01
aI01
aI01
aI00
aI01
aI01
aI01
aI01
aI01
aI01
asg50
I12
sg51
g54
sg55
(lp124
(g57
I0
g24
tp125
ag59
ag61
ag63
ag64
ag66
a(g57
F1.5707963267948966
g65
tp126
a(g57
F1.5707963267948966
g53
tp127
a(g60
F1.5707963267948966
g53
tp128
a(g60
F1.5707963267948966
g65
tp129
ag68
ag69
asg70
(lp130
g75
ag51
ag72
ag51
ag72
ag72
ag72
ag51
ag72
ag51
ag72
ag51
asg73
(lp131
g75
ag51
ag51
ag72
ag75
ag97
ag51
ag72
ag75
ag51
ag72
ag51
asg76
(lp132
g75
ag51
ag72
ag51
ag72
ag97
ag72
ag51
ag75
ag51
ag72
ag51
asaa(lp133
I6
ag39
(g40
tp134
Rp135
g43
(lp136
g45
ag46
ag47
ag46
ag47
ag46
ag47
ag46
asg48
(lp137
I01
aI01
aI01
aI01
aI01
aI01
aI01
aI01
asg50
I8
sg51
g54
sg55
(lp138
(g57
I0
g24
tp139
ag59
ag61
ag63
ag64
ag66
ag68
ag69
asg70
(lp140
g75
ag51
ag72
ag51
ag72
ag51
ag72
ag72
asg73
(lp141
g72
ag72
ag72
ag75
ag97
ag75
ag72
ag72
asg76
(lp142
g75
ag51
ag72
ag51
ag72
ag51
ag72
ag51
asaa(lp143
I7
ag39
(g40
tp144
Rp145
g43
(lp146
g45
ag46
ag47
ag46
ag47
ag46
ag47
ag46
asg48
(lp147
I01
aI01
aI01
aI01
aI01
aI01
aI01
aI01
asg50
I8
sg51
g54
sg55
(lp148
(g57
I0
g24
tp149
ag59
ag61
ag63
ag64
ag66
ag68
ag69
asg70
(lp150
g75
ag51
ag72
ag72
ag72
ag51
ag72
ag51
asg73
(lp151
g75
ag75
ag51
ag72
ag75
ag51
ag51
ag51
asg76
(lp152
g75
ag51
ag72
ag51
ag72
ag51
ag72
ag51
asaa(lp153
I8
ag39
(g40
tp154
Rp155
g43
(lp156
g45
ag46
ag47
ag46
ag47
ag46
ag47
ag46
asg48
(lp157
I01
aI01
aI01
aI01
aI01
aI01
aI01
aI01
asg50
I8
sg51
g54
sg55
(lp158
(g57
I0
g24
tp159
ag59
ag61
ag63
ag64
ag66
ag68
ag69
asg70
(lp160
g75
ag51
ag72
ag51
ag72
ag51
ag72
ag51
asg73
(lp161
g75
ag72
ag72
ag51
ag72
ag51
ag51
ag72
asg76
(lp162
g75
ag51
ag72
ag51
ag72
ag51
ag72
ag51
asaa(lp163
I9
ag39
(g40
tp164
Rp165
g43
(lp166
g45
ag46
ag47
ag46
ag47
ag46
ag47
ag46
asg48
(lp167
I01
aI01
aI01
aI01
aI01
aI01
aI01
aI01
asg50
I8
sg51
g54
sg55
(lp168
(g57
I0
g24
tp169
ag59
ag61
ag63
ag64
ag66
ag68
ag69
asg70
(lp170
g75
ag72
ag72
ag51
ag72
ag51
ag72
ag51
asg73
(lp171
g75
ag51
ag51
ag51
ag51
ag51
ag51
ag51
asg76
(lp172
g75
ag51
ag72
ag51
ag72
ag51
ag72
ag51
asaatp173
Rp174
aatp175
Rp176
.