ccollections
OrderedDict
p0
((lp1
(lp2
S'combination_dict'
p3
ag0
((lp4
(lp5
S'r_to_g_config'
p6
aS'bl'
p7
aa(lp8
S'num_turns'
p9
aI1
aa(lp10
S'start_direction'
p11
acutils_ms
StartDirection
p12
(I1
tp13
Rp14
aa(lp15
S'assistance_type'
p16
acutils_ms
AssistanceType
p17
(I0
tp18
Rp19
aa(lp20
S'start_mode'
p21
aS'x'
p22
aa(lp23
S'ui_given_a_noise'
p24
aF0.7
aa(lp25
S'um_given_ui_noise'
p26
aF0.7
aa(lp27
S'entropy_threshold'
p28
aF0.8
aatp29
Rp30
aa(lp31
S'data'
p32
accollections
defaultdict
p33
(c__builtin__
list
p34
tp35
Rp36
S'a'
p37
(lp38
S'mode_r'
p39
ag39
ag39
aS'move_n'
p40
ag40
ag40
ag39
ag39
ag39
ag39
ag39
ag39
ag39
ag39
aS'mode_l'
p41
asS'assistance_match_with_ground_truth'
p42
(lp43
I00
aI00
aI01
aI00
aI00
aI01
aI00
aI00
aI00
aI00
aI00
aI00
aI00
aI00
aI00
asS'total_steps'
p44
I15
sS'sp'
p45
(lp46
(S'p0'
p47
I0
S'x'
p48
tp49
ag49
a(g47
I0
S'y'
p50
tp51
a(g47
I0
g50
tp52
ag52
a(S'p1'
p53
I0
g50
tp54
a(g53
I0
g50
tp55
a(g53
I0
g50
tp56
ag55
ag56
ag56
ag55
ag56
a(g53
I0
g48
tp57
a(S'p2'
p58
I0
g48
tp59
asS's'
p60
(lp61
(g47
I0
g22
tp62
ag49
ag49
ag51
ag52
ag52
ag54
ag55
ag56
ag55
ag56
ag56
ag55
ag56
ag57
asS'ui'
p63
(lp64
S'hp'
p65
ag65
ag65
aS'ss'
p66
ag66
ag66
aS'hs'
p67
ag66
ag65
ag65
ag65
ag65
ag66
ag67
ag67
asS'um_before'
p68
(lp69
g45
ag45
ag65
ag45
ag45
ag66
ag45
ag66
ag45
ag66
ag66
ag45
ag66
ag67
ag66
asS'um_after'
p70
(lp71
g45
ag45
ag65
ag45
ag45
ag66
ag45
ag66
ag45
ag66
ag66
ag45
ag66
ag67
ag66
asaa(lp72
S'index'
p73
aI63185
aatp74
Rp75
.