ccollections
OrderedDict
p0
((lp1
(lp2
S'combination_dict'
p3
ag0
((lp4
(lp5
S'r_to_g_config'
p6
aS'tr'
p7
aa(lp8
S'num_turns'
p9
aI3
aa(lp10
S'start_direction'
p11
acutils_ms
StartDirection
p12
(I1
tp13
Rp14
aa(lp15
S'assistance_type'
p16
acutils_ms
AssistanceType
p17
(I0
tp18
Rp19
aa(lp20
S'start_mode'
p21
aS't'
p22
aa(lp23
S'ui_given_a_noise'
p24
aF0.7
aa(lp25
S'um_given_ui_noise'
p26
aF0.5
aa(lp27
S'entropy_threshold'
p28
aF0.6
aatp29
Rp30
aa(lp31
S'data'
p32
accollections
defaultdict
p33
(c__builtin__
list
p34
tp35
Rp36
S'a'
p37
(lp38
S'mode_l'
p39
ag39
aS'mode_r'
p40
ag40
aS'move_p'
p41
ag39
ag41
ag39
ag41
ag39
ag39
ag41
ag39
ag41
ag40
ag39
ag39
ag40
ag39
ag41
ag40
ag39
ag40
ag40
ag41
ag39
ag39
ag39
ag41
ag41
ag41
ag40
ag41
ag40
ag41
ag39
ag39
ag39
ag39
ag41
ag39
ag39
ag41
ag39
ag40
ag39
ag41
ag39
ag41
ag39
ag41
ag39
ag41
ag40
ag40
ag41
ag39
ag41
ag39
ag41
ag40
ag40
ag40
ag41
ag39
ag41
ag41
ag41
ag41
ag39
ag40
ag39
ag40
ag39
ag39
ag41
ag39
ag41
ag40
ag41
ag39
ag41
ag40
ag39
ag41
ag39
ag40
ag39
ag40
ag41
ag41
ag41
ag39
ag40
ag39
ag39
ag40
ag41
ag39
ag40
ag39
ag39
ag40
ag39
ag40
ag40
ag41
ag40
ag41
ag41
ag41
ag39
ag39
ag39
ag39
ag41
ag40
ag40
ag41
ag39
ag40
ag41
ag40
ag41
ag39
ag39
ag39
ag39
ag39
ag39
ag41
ag39
ag40
ag41
ag39
ag41
ag41
ag40
ag41
ag41
ag41
ag40
ag39
ag41
ag39
ag40
ag39
ag39
ag40
ag39
ag40
ag41
ag39
ag39
ag40
ag39
ag40
ag40
ag41
ag40
ag39
ag41
ag41
ag40
ag40
ag41
ag39
ag41
ag39
ag39
ag40
ag39
ag41
ag41
ag41
ag39
ag41
ag40
ag40
ag41
ag40
ag39
ag41
ag39
ag41
ag40
ag39
ag41
ag40
ag39
ag39
ag39
ag39
ag40
ag40
ag40
ag41
ag40
ag41
ag39
ag40
asS'assistance_match_with_ground_truth'
p42
(lp43
I00
aI00
aI00
aI01
aI00
aI01
aI01
aI01
aI01
aI00
aI01
aI00
aI01
aI00
aI00
aI00
aI00
aI00
aI01
aI00
aI00
aI00
aI00
aI01
aI01
aI00
aI00
aI01
aI00
aI00
aI00
aI01
aI00
aI01
aI00
aI00
aI00
aI00
aI01
aI00
aI00
aI01
aI00
aI00
aI00
aI01
aI01
aI01
aI01
aI01
aI01
aI01
aI00
aI00
aI01
aI00
aI01
aI00
aI01
aI01
aI00
aI00
aI01
aI00
aI00
aI00
aI00
aI00
aI00
aI00
aI00
aI00
aI00
aI00
aI01
aI00
aI01
aI00
aI01
aI00
aI01
aI00
aI00
aI01
aI01
aI00
aI00
aI00
aI01
aI00
aI00
aI00
aI00
aI00
aI00
aI00
aI01
aI01
aI00
aI00
aI00
aI00
aI00
aI00
aI00
aI01
aI00
aI01
aI00
aI00
aI01
aI00
aI00
aI00
aI01
aI00
aI00
aI01
aI00
aI00
aI01
aI00
aI01
aI00
aI00
aI00
aI00
aI00
aI00
aI01
aI01
aI00
aI01
aI00
aI01
aI00
aI00
aI01
aI00
aI00
aI00
aI00
aI01
aI00
aI00
aI00
aI00
aI00
aI00
aI00
aI01
aI00
aI00
aI00
aI00
aI00
aI00
aI01
aI00
aI00
aI01
aI00
aI00
aI00
aI01
aI01
aI01
aI01
aI00
aI00
aI00
aI01
aI00
aI00
aI01
aI01
aI00
aI00
aI01
aI00
aI00
aI01
aI00
aI01
aI00
aI00
aI01
aI00
aI00
aI00
aI00
aI00
aI00
aI00
aI00
aI01
aI01
aI01
aI00
aI00
aI01
asS'total_steps'
p44
I201
sS'sp'
p45
(lp46
(S'p0'
p47
I0
S't'
p48
tp49
a(g47
I0
S'x'
p50
tp51
a(g47
I0
g50
tp52
a(g47
I0
S'y'
p53
tp54
a(g47
I0
g48
tp55
a(g47
I0
g53
tp56
a(S'p1'
p57
I0
g53
tp58
a(g57
I0
g50
tp59
a(S'p2'
p60
I0
g50
tp61
a(g60
I0
g50
tp62
a(g60
I0
g48
tp63
a(g60
I0
g50
tp64
ag63
a(g60
I0
g53
tp65
a(g60
I0
g50
tp66
ag62
a(g60
I0
g53
tp67
ag66
ag63
ag65
a(g57
I0
g53
tp68
a(g57
I0
g48
tp69
a(g57
I0
g48
tp70
a(g57
I0
g50
tp71
ag61
ag62
ag62
ag63
a(g60
I0
g48
tp72
ag72
ag65
a(g60
I0
g48
tp73
ag65
ag73
ag64
a(g60
I0
g50
tp74
ag62
ag62
ag63
ag64
ag62
ag63
ag64
ag67
ag68
ag59
ag61
ag63
a(g60
F1.5707963267948966
g48
tp75
a(g60
F1.5707963267948966
g53
tp76
a(S'p3'
p77
F1.5707963267948966
g53
tp78
a(g77
F1.5707963267948966
g50
tp79
a(g60
F1.5707963267948966
g50
tp80
a(g60
F1.5707963267948966
g50
tp81
a(g60
F1.5707963267948966
g53
tp82
a(g57
F1.5707963267948966
g53
tp83
a(g57
F1.5707963267948966
g50
tp84
a(g57
F1.5707963267948966
g53
tp85
ag84
a(g60
F1.5707963267948966
g50
tp86
a(g60
F1.5707963267948966
g50
tp87
ag87
ag82
a(g60
F1.5707963267948966
g48
tp88
a(g60
I0
g48
tp89
ag72
ag72
ag72
ag64
ag67
a(g77
I0
g53
tp90
a(g77
I0
g48
tp91
a(g77
I0
g53
tp92
a(g77
I0
g53
tp93
a(g77
I0
g50
tp94
a(g60
I0
g50
tp95
ag63
ag65
ag73
ag64
ag63
ag65
ag68
ag59
ag61
ag67
ag66
ag67
ag73
ag72
ag72
ag64
ag67
ag68
a(g57
I0
g53
tp96
ag69
ag71
ag61
ag67
ag68
ag96
ag69
a(g57
I0
g53
tp97
ag69
ag70
ag71
a(g47
I0
g50
tp98
ag54
a(g47
I0
g53
tp99
ag99
ag58
ag96
a(g57
I0
g53
tp100
ag96
ag59
a(g57
I0
g48
tp101
a(g57
I0
g48
tp102
ag71
a(g57
I0
g53
tp103
ag69
ag71
ag101
ag71
ag103
ag100
ag100
ag100
ag96
ag100
ag59
ag61
ag67
ag73
ag64
ag63
ag72
ag65
ag73
ag72
ag72
ag65
ag90
ag94
ag95
ag67
ag66
ag74
ag67
ag90
ag91
a(g77
I0
g50
tp104
ag95
ag62
ag67
ag68
ag69
ag102
ag71
ag98
a(g47
I0
g48
tp105
ag56
ag99
a(g47
I0
g50
tp106
ag52
ag54
ag58
ag59
ag61
ag62
ag67
ag66
ag63
ag72
ag72
ag75
ag76
a(g60
F1.5707963267948966
g50
tp107
ag81
ag82
ag107
a(g60
F1.5707963267948966
g48
tp108
ag76
ag83
ag84
a(g57
F1.5707963267948966
g48
tp109
a(g57
F1.5707963267948966
g53
tp110
ag84
ag109
ag110
a(g57
F1.5707963267948966
g53
tp111
a(g57
F1.5707963267948966
g53
tp112
ag111
a(g57
F1.5707963267948966
g48
tp113
a(g57
F1.5707963267948966
g48
tp114
ag114
a(g57
F1.5707963267948966
g50
tp115
ag86
ag82
ag83
ag113
ag115
asS's'
p116
(lp117
(g47
I0
g22
tp118
ag49
ag51
ag52
ag54
ag55
ag56
ag58
ag59
ag61
ag62
ag63
ag64
ag63
ag65
ag66
ag62
ag67
ag66
ag63
ag65
ag68
ag69
ag70
ag71
ag61
ag62
ag62
ag63
ag72
ag72
ag65
ag73
ag65
ag73
ag64
ag74
ag62
ag62
ag63
ag64
ag62
ag63
ag64
ag67
ag68
ag59
ag61
ag63
ag75
ag76
ag78
ag79
ag80
ag81
ag82
ag83
ag84
ag85
ag84
ag86
ag87
ag87
ag82
ag88
ag89
ag72
ag72
ag72
ag64
ag67
ag90
ag91
ag92
ag93
ag94
ag95
ag63
ag65
ag73
ag64
ag63
ag65
ag68
ag59
ag61
ag67
ag66
ag67
ag73
ag72
ag72
ag64
ag67
ag68
ag96
ag69
ag71
ag61
ag67
ag68
ag96
ag69
ag97
ag69
ag70
ag71
ag98
ag54
ag99
ag99
ag58
ag96
ag100
ag96
ag59
ag101
ag102
ag71
ag103
ag69
ag71
ag101
ag71
ag103
ag100
ag100
ag100
ag96
ag100
ag59
ag61
ag67
ag73
ag64
ag63
ag72
ag65
ag73
ag72
ag72
ag65
ag90
ag94
ag95
ag67
ag66
ag74
ag67
ag90
ag91
ag104
ag95
ag62
ag67
ag68
ag69
ag102
ag71
ag98
ag105
ag56
ag99
ag106
ag52
ag54
ag58
ag59
ag61
ag62
ag67
ag66
ag63
ag72
ag72
ag75
ag76
ag107
ag81
ag82
ag107
ag108
ag76
ag83
ag84
ag109
ag110
ag84
ag109
ag110
ag111
ag112
ag111
ag113
ag114
ag114
ag115
ag86
ag82
ag83
ag113
asS'ui'
p119
(lp120
S'hp'
p121
aS'hs'
p122
ag121
ag121
ag45
ag122
ag45
aS'ss'
p123
ag45
ag122
ag121
ag121
ag121
ag123
ag121
ag123
ag122
ag121
ag122
ag123
ag122
ag122
ag122
ag121
ag45
ag122
ag122
ag121
ag123
ag45
ag45
ag45
ag123
ag122
ag123
ag121
ag122
ag121
ag122
ag45
ag122
ag122
ag45
ag122
ag121
ag122
ag45
ag122
ag45
ag121
ag123
ag122
ag123
ag45
ag121
ag45
ag122
ag123
ag122
ag123
ag123
ag122
ag121
ag121
ag122
ag45
ag123
ag123
ag121
ag122
ag45
ag121
ag123
ag122
ag122
ag123
ag122
ag123
ag121
ag45
ag122
ag123
ag121
ag122
ag45
ag122
ag121
ag121
ag121
ag123
ag45
ag45
ag122
ag123
ag121
ag122
ag121
ag45
ag121
ag45
ag121
ag122
ag122
ag122
ag121
ag121
ag45
ag121
ag123
ag45
ag45
ag121
ag122
ag121
ag122
ag123
ag121
ag122
ag122
ag121
ag121
ag123
ag121
ag121
ag122
ag123
ag122
ag122
ag123
ag122
ag123
ag122
ag121
ag122
ag123
ag123
ag45
ag121
ag122
ag123
ag45
ag45
ag122
ag122
ag121
ag122
ag121
ag121
ag122
ag121
ag121
ag45
ag122
ag121
ag121
ag121
ag121
ag121
ag45
ag123
ag122
ag123
ag123
ag121
ag122
ag45
ag122
ag45
ag121
ag121
ag122
ag121
ag123
ag123
ag45
ag122
ag123
ag122
ag122
ag45
ag122
ag122
ag123
ag123
ag45
ag121
ag122
ag123
ag122
ag121
ag122
ag122
ag123
ag121
ag121
ag121
ag45
ag121
ag45
ag121
ag121
asS'um_before'
p124
(lp125
g123
ag121
ag123
ag121
ag121
ag122
ag45
ag122
ag45
ag123
ag122
ag121
ag122
ag122
ag122
ag123
ag121
ag122
ag122
ag122
ag123
ag121
ag45
ag121
ag45
ag123
ag123
ag122
ag123
ag123
ag122
ag121
ag122
ag121
ag121
ag45
ag123
ag123
ag122
ag121
ag123
ag122
ag121
ag121
ag123
ag122
ag45
ag122
ag45
ag122
ag45
ag122
ag123
ag45
ag121
ag123
ag122
ag121
ag122
ag45
ag123
ag123
ag121
ag121
ag123
ag123
ag123
ag123
ag121
ag121
ag45
ag121
ag122
ag45
ag122
ag123
ag122
ag122
ag121
ag121
ag122
ag122
ag123
ag122
ag45
ag121
ag122
ag121
ag121
ag123
ag123
ag121
ag121
ag123
ag45
ag121
ag121
ag45
ag121
ag123
ag45
ag121
ag122
ag121
ag45
ag121
ag123
ag121
ag123
ag123
ag45
ag45
ag123
ag45
ag122
ag122
ag123
ag121
ag121
ag121
ag121
ag122
ag121
ag121
ag123
ag123
ag123
ag45
ag123
ag122
ag45
ag121
ag121
ag121
ag122
ag123
ag122
ag121
ag123
ag123
ag122
ag45
ag122
ag123
ag121
ag122
ag45
ag121
ag45
ag121
ag121
ag123
ag123
ag121
ag123
ag121
ag123
ag121
ag123
ag122
ag122
ag123
ag122
ag123
ag121
ag45
ag122
ag45
ag123
ag121
ag122
ag122
ag123
ag123
ag45
ag122
ag122
ag45
ag121
ag122
ag122
ag122
ag123
ag122
ag122
ag122
ag122
ag122
ag122
ag123
ag45
ag123
ag121
ag123
ag123
ag121
ag45
ag121
ag123
ag121
ag121
asS'um_after'
p126
(lp127
g123
ag121
ag123
ag121
ag121
ag122
ag45
ag122
ag45
ag123
ag122
ag121
ag122
ag122
ag122
ag123
ag121
ag122
ag122
ag122
ag123
ag121
ag45
ag121
ag45
ag123
ag123
ag122
ag123
ag123
ag122
ag121
ag122
ag121
ag121
ag45
ag123
ag123
ag122
ag121
ag123
ag122
ag121
ag121
ag123
ag122
ag45
ag122
ag45
ag122
ag45
ag122
ag123
ag45
ag121
ag123
ag122
ag121
ag122
ag45
ag123
ag123
ag121
ag121
ag123
ag123
ag123
ag123
ag121
ag121
ag45
ag121
ag122
ag45
ag122
ag123
ag122
ag122
ag121
ag121
ag122
ag122
ag123
ag122
ag45
ag121
ag122
ag121
ag121
ag123
ag123
ag121
ag121
ag123
ag45
ag121
ag121
ag45
ag121
ag123
ag45
ag121
ag122
ag121
ag45
ag121
ag123
ag121
ag123
ag123
ag45
ag45
ag123
ag45
ag122
ag122
ag123
ag121
ag121
ag121
ag121
ag122
ag121
ag121
ag123
ag123
ag123
ag45
ag123
ag122
ag45
ag121
ag121
ag121
ag122
ag123
ag122
ag121
ag123
ag123
ag122
ag45
ag122
ag123
ag121
ag122
ag45
ag121
ag45
ag121
ag121
ag123
ag123
ag121
ag123
ag121
ag123
ag121
ag123
ag122
ag122
ag123
ag122
ag123
ag121
ag45
ag122
ag45
ag123
ag121
ag122
ag122
ag123
ag123
ag45
ag122
ag122
ag45
ag121
ag122
ag122
ag122
ag123
ag122
ag122
ag122
ag122
ag122
ag122
ag123
ag45
ag123
ag121
ag123
ag123
ag121
ag45
ag121
ag123
ag121
ag121
asaa(lp128
S'index'
p129
aI25518
aatp130
Rp131
.