ccollections
OrderedDict
p0
((lp1
(lp2
S'combination_dict'
p3
ag0
((lp4
(lp5
S'r_to_g_config'
p6
aS'bl'
p7
aa(lp8
S'num_turns'
p9
aI3
aa(lp10
S'start_direction'
p11
acutils_ms
StartDirection
p12
(I0
tp13
Rp14
aa(lp15
S'assistance_type'
p16
acutils_ms
AssistanceType
p17
(I1
tp18
Rp19
aa(lp20
S'start_mode'
p21
aS't'
p22
aa(lp23
S'ui_given_a_noise'
p24
aF0.3
aa(lp25
S'um_given_ui_noise'
p26
aF0.7
aa(lp27
S'entropy_threshold'
p28
aF0.6
aatp29
Rp30
aa(lp31
S'data'
p32
accollections
defaultdict
p33
(c__builtin__
list
p34
tp35
Rp36
S'a'
p37
(lp38
S'mode_r'
p39
aS'move_n'
p40
aS'mode_l'
p41
aS'move_p'
p42
ag41
ag40
ag41
ag40
ag39
ag40
ag39
ag40
asS'assistance_match_with_ground_truth'
p43
(lp44
I01
aI01
aI01
aI01
aI01
aI01
aI01
aI00
aI01
aI01
aI01
aI01
asS'total_steps'
p45
I12
sS'sp'
p46
(lp47
(S'p0'
p48
I0
S'x'
p49
tp50
a(S'p1'
p51
I0
g49
tp52
a(g51
I0
S't'
p53
tp54
a(g51
F1.5707963267948966
g53
tp55
a(g51
F1.5707963267948966
S'y'
p56
tp57
a(S'p2'
p58
F1.5707963267948966
g56
tp59
a(g58
F1.5707963267948966
g49
tp60
a(g58
F1.5707963267948966
g53
tp61
a(g58
F1.5707963267948966
g49
tp62
a(S'p3'
p63
F1.5707963267948966
g49
tp64
a(g63
F1.5707963267948966
g56
tp65
a(S'p4'
p66
F1.5707963267948966
g56
tp67
asS's'
p68
(lp69
(g48
I0
g22
tp70
ag50
ag52
ag54
ag55
ag57
ag59
ag60
ag61
ag62
ag64
ag65
asS'ui'
p71
(lp72
S'hp'
p73
aS'ss'
p74
aS'hs'
p75
ag46
ag75
ag74
ag75
ag75
ag73
ag74
ag75
ag74
asS'um_before'
p76
(lp77
g75
ag74
ag75
ag74
ag74
ag74
ag75
ag75
ag75
ag74
ag75
ag74
asS'um_after'
p78
(lp79
g73
ag74
ag75
ag46
ag75
ag74
ag75
ag75
ag73
ag74
ag73
ag74
asaa(lp80
S'index'
p81
aI78760
aatp82
Rp83
.