ccollections
OrderedDict
p0
((lp1
(lp2
S'index'
p3
aI525
aa(lp4
S'combination_dict'
p5
ag0
((lp6
(lp7
S'r_to_g_config'
p8
aS'tr'
p9
aa(lp10
S'num_turns'
p11
aI1
aa(lp12
S'start_direction'
p13
acutils_ms
StartDirection
p14
(I3
tp15
Rp16
aa(lp17
S'assistance_type'
p18
acutils_ms
AssistanceType
p19
(I1
tp20
Rp21
aa(lp22
S'start_mode'
p23
aS'y'
p24
aa(lp25
S'ui_given_a_noise'
p26
aF0.3
aa(lp27
S'um_given_ui_noise'
p28
aF0.1
aa(lp29
S'entropy_threshold'
p30
aF0.7
aa(lp31
S'is_assistance'
p32
aI00
aatp33
Rp34
aa(lp35
S'trials'
p36
ag0
((lp37
(lp38
I0
accollections
defaultdict
p39
(c__builtin__
list
p40
tp41
Rp42
S'a'
p43
(lp44
S'mode_l'
p45
aS'move_p'
p46
ag45
ag46
aS'mode_r'
p47
ag46
ag45
ag47
ag45
ag46
asS'assistance_match_with_ground_truth'
p48
(lp49
I01
aI01
aI01
aI00
aI01
aI01
aI00
aI00
aI01
aI01
asS'total_steps'
p50
I10
sS'sp'
p51
(S'p2'
p52
F1.5707963267948966
S'y'
p53
tp54
sS's'
p55
(lp56
(S'p0'
p57
I0
g24
tp58
a(g57
I0
S'x'
p59
tp60
a(S'p1'
p61
I0
g59
tp62
a(g61
I0
S't'
p63
tp64
a(g61
I0
g53
tp65
a(g61
I0
g63
tp66
a(g61
F1.5707963267948966
g63
tp67
a(g61
F1.5707963267948966
g59
tp68
a(g61
F1.5707963267948966
g63
tp69
a(g61
F1.5707963267948966
g53
tp70
asS'ui'
p71
(lp72
S'hs'
p73
ag51
ag73
ag73
aS'hp'
p74
ag51
ag74
ag73
ag73
ag51
asS'um_before'
p75
(lp76
g73
ag51
ag73
ag73
ag74
ag51
ag74
ag73
ag73
ag51
asS'um_after'
p77
(lp78
g73
ag51
ag73
ag73
ag74
ag51
ag74
ag73
ag73
ag51
asaa(lp79
I1
ag39
(g40
tp80
Rp81
g43
(lp82
g45
ag45
ag45
ag46
ag45
ag45
ag45
ag47
ag45
ag46
ag47
ag46
ag45
ag46
ag47
ag46
ag47
ag46
asg48
(lp83
I00
aI00
aI01
aI01
aI00
aI00
aI00
aI00
aI01
aI00
aI01
aI01
aI01
aI00
aI01
aI00
aI01
aI01
asg50
I18
sg51
g54
sg55
(lp84
(g57
I0
g24
tp85
a(g57
I0
g53
tp86
a(g57
I0
g53
tp87
ag60
ag62
a(g61
I0
g59
tp88
ag88
a(g61
I0
g53
tp89
a(g61
I0
g59
tp90
ag64
ag65
ag66
ag67
ag70
a(g61
F1.5707963267948966
g59
tp91
a(g61
F1.5707963267948966
g53
tp92
ag91
ag92
asg71
(lp93
S'ss'
p94
ag73
ag73
ag51
ag94
ag94
ag74
ag73
ag94
ag51
ag74
ag51
ag73
ag73
ag74
ag73
ag74
ag51
asg75
(lp95
g94
ag51
ag73
ag51
ag94
ag94
ag74
ag73
ag73
ag73
ag74
ag51
ag73
ag73
ag74
ag73
ag74
ag51
asg77
(lp96
g94
ag51
ag73
ag51
ag94
ag94
ag74
ag73
ag73
ag73
ag74
ag51
ag73
ag73
ag74
ag73
ag74
ag51
asaa(lp97
I2
ag39
(g40
tp98
Rp99
g43
(lp100
g45
ag45
ag45
ag47
ag46
ag45
ag46
ag45
ag46
ag45
ag46
ag45
ag46
ag45
ag46
asg48
(lp101
I00
aI00
aI00
aI01
aI00
aI01
aI00
aI01
aI01
aI01
aI01
aI00
aI01
aI01
aI01
asg50
I15
sg51
g54
sg55
(lp102
(g57
I0
g24
tp103
ag86
ag86
a(g57
I0
g63
tp104
a(g57
I0
g59
tp105
a(g57
I0
g53
tp106
ag60
ag106
ag60
ag62
ag64
ag67
a(g61
I0
g63
tp107
ag67
ag70
asg71
(lp108
g94
ag94
ag74
ag74
ag51
ag73
ag51
ag73
ag51
ag73
ag51
ag94
ag51
ag73
ag51
asg75
(lp109
g94
ag94
ag74
ag74
ag74
ag73
ag74
ag73
ag51
ag73
ag51
ag94
ag51
ag73
ag51
asg77
(lp110
g94
ag94
ag74
ag74
ag74
ag73
ag74
ag73
ag51
ag73
ag51
ag94
ag51
ag73
ag51
asaa(lp111
I3
ag39
(g40
tp112
Rp113
g43
(lp114
g45
ag46
ag45
ag46
ag47
ag47
ag45
ag46
ag45
ag46
ag45
ag46
ag45
ag47
ag46
ag45
ag46
asg48
(lp115
I01
aI00
aI01
aI00
aI00
aI00
aI01
aI01
aI01
aI01
aI00
aI01
aI00
aI01
aI00
aI01
aI01
asg50
I17
sg51
g54
sg55
(lp116
(g57
I0
g24
tp117
ag60
ag106
ag60
a(g57
I0
g63
tp118
a(g57
I0
g63
tp119
a(g57
I0
g53
tp120
ag60
ag62
ag64
ag67
ag107
ag67
ag68
ag92
a(g61
F1.5707963267948966
g63
tp121
ag70
asg71
(lp122
g73
ag74
ag73
ag73
ag51
ag73
ag73
ag51
ag73
ag51
ag73
ag51
ag74
ag74
ag74
ag73
ag51
asg75
(lp123
g73
ag74
ag73
ag73
ag51
ag73
ag73
ag51
ag73
ag51
ag94
ag51
ag74
ag74
ag74
ag73
ag51
asg77
(lp124
g73
ag74
ag73
ag73
ag51
ag73
ag73
ag51
ag73
ag51
ag94
ag51
ag74
ag74
ag74
ag73
ag51
asaa(lp125
I4
ag39
(g40
tp126
Rp127
g43
(lp128
g45
ag45
ag46
ag47
ag45
ag45
ag45
ag46
ag45
ag45
ag46
ag45
ag46
ag45
ag46
ag45
ag46
ag45
ag46
asg48
(lp129
I00
aI01
aI00
aI00
aI00
aI00
aI01
aI01
aI00
aI01
aI00
aI01
aI01
aI01
aI00
aI01
aI00
aI01
aI01
asg50
I19
sg51
g54
sg55
(lp130
(g57
I0
g24
tp131
ag86
ag60
ag118
ag120
ag87
ag86
ag60
ag62
a(g61
I0
g59
tp132
ag64
a(g61
I0
g59
tp133
ag64
ag67
ag70
ag121
ag70
ag121
ag70
asg71
(lp134
g74
ag73
ag73
ag73
ag51
ag94
ag73
ag51
ag51
ag73
ag74
ag73
ag51
ag73
ag74
ag73
ag51
ag73
ag51
asg75
(lp135
g94
ag73
ag73
ag73
ag51
ag94
ag73
ag51
ag51
ag73
ag74
ag73
ag51
ag73
ag74
ag73
ag74
ag73
ag51
asg77
(lp136
g94
ag73
ag73
ag73
ag51
ag94
ag73
ag51
ag51
ag73
ag74
ag73
ag51
ag73
ag74
ag73
ag74
ag73
ag51
asaa(lp137
I5
ag39
(g40
tp138
Rp139
g43
(lp140
g45
ag45
ag46
ag45
ag45
ag46
ag45
ag46
ag45
ag45
ag46
ag45
ag46
ag45
ag46
ag45
ag47
ag45
ag46
ag47
ag47
ag47
ag47
ag46
ag47
ag47
ag46
asg48
(lp141
I00
aI01
aI00
aI00
aI01
aI01
aI01
aI00
aI00
aI01
aI01
aI01
aI00
aI01
aI00
aI00
aI00
aI01
aI01
aI00
aI00
aI00
aI01
aI00
aI00
aI01
aI01
asg50
I27
sg51
g54
sg55
(lp142
(g57
I0
g24
tp143
ag87
ag60
ag106
ag86
ag60
ag62
ag64
ag133
ag88
ag64
ag67
ag70
a(g57
F1.5707963267948966
g53
tp144
a(g57
F1.5707963267948966
g59
tp145
a(g57
F1.5707963267948966
g53
tp146
a(g57
F1.5707963267948966
g63
tp147
a(g57
F1.5707963267948966
g53
tp148
ag145
a(g61
F1.5707963267948966
g59
tp149
a(g61
F1.5707963267948966
g59
tp150
ag150
ag150
ag92
ag91
ag150
ag92
asg71
(lp151
g51
ag73
ag74
ag94
ag73
ag51
ag73
ag51
ag94
ag73
ag51
ag73
ag94
ag73
ag51
ag74
ag73
ag73
ag51
ag74
ag94
ag94
ag74
ag73
ag94
ag74
ag51
asg75
(lp152
g51
ag73
ag74
ag94
ag73
ag51
ag73
ag74
ag94
ag73
ag51
ag73
ag94
ag73
ag74
ag74
ag73
ag73
ag51
ag94
ag94
ag94
ag74
ag73
ag94
ag74
ag51
asg77
(lp153
g51
ag73
ag74
ag94
ag73
ag51
ag73
ag74
ag94
ag73
ag51
ag73
ag94
ag73
ag74
ag74
ag73
ag73
ag51
ag94
ag94
ag94
ag74
ag73
ag94
ag74
ag51
asaa(lp154
I6
ag39
(g40
tp155
Rp156
g43
(lp157
g45
ag46
ag45
ag46
ag45
ag46
asg48
(lp158
I01
aI01
aI01
aI01
aI01
aI01
asg50
I6
sg51
g54
sg55
(lp159
(g57
I0
g24
tp160
ag60
ag62
ag64
ag67
ag70
asg71
(lp161
g73
ag51
ag73
ag51
ag73
ag51
asg75
(lp162
g73
ag51
ag73
ag51
ag73
ag51
asg77
(lp163
g73
ag51
ag73
ag51
ag73
ag51
asaa(lp164
I7
ag39
(g40
tp165
Rp166
g43
(lp167
g45
ag47
ag46
ag45
ag45
ag45
ag46
ag45
ag46
ag45
ag45
ag45
ag46
ag45
ag47
ag46
ag45
ag46
asg48
(lp168
I00
aI01
aI01
aI00
aI00
aI01
aI00
aI01
aI00
aI00
aI00
aI01
aI01
aI00
aI01
aI00
aI01
aI01
asg50
I18
sg51
g54
sg55
(lp169
(g57
I0
g24
tp170
ag104
ag105
ag62
ag88
ag132
ag64
ag133
ag64
ag133
ag132
ag88
ag64
ag67
ag68
ag92
ag121
ag70
asg71
(lp171
g74
ag74
ag51
ag73
ag73
ag73
ag74
ag73
ag74
ag73
ag94
ag73
ag51
ag74
ag74
ag51
ag73
ag51
asg75
(lp172
g74
ag74
ag51
ag94
ag51
ag73
ag74
ag73
ag74
ag51
ag94
ag73
ag51
ag74
ag74
ag74
ag73
ag51
asg77
(lp173
g74
ag74
ag51
ag94
ag51
ag73
ag74
ag73
ag74
ag51
ag94
ag73
ag51
ag74
ag74
ag74
ag73
ag51
asaa(lp174
I8
ag39
(g40
tp175
Rp176
g43
(lp177
g45
ag46
ag45
ag47
asg48
(lp178
I01
aI01
aI00
aI00
asg50
I4
sg51
(g52
I0
g53
tp179
sg55
(lp180
(g57
I0
g24
tp181
ag60
ag62
ag89
asg71
(lp182
g73
ag51
ag73
ag51
asg75
(lp183
g73
ag51
ag74
ag51
asg77
(lp184
g73
ag51
ag74
ag51
asaa(lp185
I9
ag39
(g40
tp186
Rp187
g43
(lp188
g45
ag46
ag45
ag46
ag45
ag46
asg48
(lp189
I01
aI01
aI01
aI01
aI01
aI01
asg50
I6
sg51
g54
sg55
(lp190
(g57
I0
g24
tp191
ag60
ag62
ag64
ag67
ag70
asg71
(lp192
g73
ag51
ag73
ag51
ag73
ag51
asg75
(lp193
g73
ag51
ag73
ag51
ag73
ag51
asg77
(lp194
g73
ag51
ag73
ag51
ag73
ag51
asaatp195
Rp196
aatp197
Rp198
.