ccollections
OrderedDict
p0
((lp1
(lp2
S'combination_dict'
p3
ag0
((lp4
(lp5
S'r_to_g_config'
p6
aS'tl'
p7
aa(lp8
S'num_turns'
p9
aI3
aa(lp10
S'start_direction'
p11
acutils_ms
StartDirection
p12
(I1
tp13
Rp14
aa(lp15
S'assistance_type'
p16
acutils_ms
AssistanceType
p17
(I2
tp18
Rp19
aa(lp20
S'start_mode'
p21
aS'x'
p22
aa(lp23
S'ui_given_a_noise'
p24
aF0.1
aa(lp25
S'um_given_ui_noise'
p26
aF0.7
aa(lp27
S'entropy_threshold'
p28
aF0.8
aatp29
Rp30
aa(lp31
S'data'
p32
accollections
defaultdict
p33
(c__builtin__
list
p34
tp35
Rp36
S'a'
p37
(lp38
S'mode_r'
p39
aS'move_p'
p40
aS'mode_l'
p41
ag41
ag41
ag39
ag39
ag41
aS'move_n'
p42
ag41
ag41
ag40
ag41
ag41
ag41
ag41
ag40
ag41
ag41
ag41
ag42
ag39
ag42
ag39
ag39
ag42
ag39
ag41
ag41
ag41
ag40
ag41
ag41
ag42
ag39
ag42
ag39
ag39
ag41
ag41
ag42
ag39
ag41
ag40
ag40
ag39
ag41
ag41
ag42
ag39
ag39
ag39
ag39
ag39
ag42
ag41
ag40
ag41
ag40
ag41
ag40
ag41
ag40
ag41
ag39
ag42
ag41
ag41
ag41
ag42
ag39
ag39
ag39
ag39
ag41
ag40
ag41
ag41
ag42
ag41
ag41
ag42
asS'assistance_match_with_ground_truth'
p43
(lp44
I01
aI01
aI00
aI00
aI00
aI00
aI00
aI01
aI01
aI00
aI01
aI01
aI00
aI00
aI00
aI01
aI01
aI00
aI00
aI01
aI00
aI01
aI00
aI00
aI01
aI00
aI00
aI00
aI00
aI01
aI01
aI00
aI01
aI00
aI01
aI00
aI00
aI00
aI00
aI01
aI00
aI00
aI00
aI00
aI00
aI00
aI00
aI01
aI00
aI00
aI00
aI00
aI00
aI01
aI01
aI01
aI01
aI00
aI01
aI00
aI01
aI01
aI01
aI00
aI01
aI00
aI00
aI00
aI01
aI00
aI00
aI00
aI00
aI00
aI01
aI01
aI00
aI01
aI00
aI00
aI01
aI01
asS'total_steps'
p45
I82
sS'sp'
p46
(lp47
(S'p0'
p48
I0
S'y'
p49
tp50
a(S'p1'
p51
I0
g49
tp52
a(g51
I0
g49
tp53
a(g51
I0
g49
tp54
a(g51
I0
S't'
p55
tp56
a(g51
I0
g55
tp57
a(g51
I0
g49
tp58
a(g51
I0
S'x'
p59
tp60
a(S'p2'
p61
I0
g59
tp62
a(g61
I0
g59
tp63
a(g61
I0
g55
tp64
a(g61
F1.5707963267948966
g55
tp65
a(g61
F1.5707963267948966
g55
tp66
ag66
ag66
a(g61
F1.5707963267948966
g49
tp67
a(S'p3'
p68
F1.5707963267948966
g49
tp69
a(g68
F1.5707963267948966
g49
tp70
a(g68
F1.5707963267948966
g49
tp71
a(g68
F1.5707963267948966
g59
tp72
a(g68
F1.5707963267948966
g55
tp73
a(g68
F1.5707963267948966
g59
tp74
ag73
a(g68
F1.5707963267948966
g55
tp75
ag74
a(g61
F1.5707963267948966
g59
tp76
a(g61
F1.5707963267948966
g55
tp77
ag66
ag66
ag67
ag69
ag71
ag72
ag73
ag74
ag73
ag75
a(g68
F1.5707963267948966
g49
tp78
ag70
ag72
ag76
ag77
a(g61
I0
g55
tp79
a(g61
I0
g55
tp80
a(g61
I0
g49
tp81
a(g51
I0
g49
tp82
ag53
ag60
a(g51
I0
g55
tp83
a(g51
I0
g55
tp84
ag57
ag84
ag57
a(g51
I0
g59
tp85
ag62
ag64
ag65
ag79
ag65
ag79
ag65
ag67
ag69
a(g68
F1.5707963267948966
g55
tp86
ag74
a(g68
F1.5707963267948966
g49
tp87
ag70
ag70
ag72
ag76
a(g61
F1.5707963267948966
g59
tp88
a(g61
F1.5707963267948966
g59
tp89
ag88
ag77
ag67
ag69
ag70
ag72
ag87
ag71
ag72
a(S'p4'
p90
F1.5707963267948966
g59
tp91
asS's'
p92
(lp93
(g48
I0
g22
tp94
ag50
ag52
ag53
ag54
ag56
ag57
ag58
ag60
ag62
ag63
ag64
ag65
ag66
ag66
ag66
ag67
ag69
ag70
ag71
ag72
ag73
ag74
ag73
ag75
ag74
ag76
ag77
ag66
ag66
ag67
ag69
ag71
ag72
ag73
ag74
ag73
ag75
ag78
ag70
ag72
ag76
ag77
ag79
ag80
ag81
ag82
ag53
ag60
ag83
ag84
ag57
ag84
ag57
ag85
ag62
ag64
ag65
ag79
ag65
ag79
ag65
ag67
ag69
ag86
ag74
ag87
ag70
ag70
ag72
ag76
ag88
ag89
ag88
ag77
ag67
ag69
ag70
ag72
ag87
ag71
ag72
asS'ui'
p95
(lp96
S'hp'
p97
ag46
ag46
aS'hs'
p98
ag97
ag97
ag97
ag98
aS'ss'
p99
ag98
ag98
ag46
ag98
ag98
ag98
ag98
ag46
ag98
ag98
ag98
ag99
ag97
ag99
ag97
ag97
ag99
ag97
ag98
ag98
ag98
ag46
ag99
ag98
ag99
ag97
ag99
ag97
ag97
ag98
ag98
ag46
ag97
ag99
ag46
ag46
ag99
ag97
ag98
ag99
ag99
ag97
ag97
ag97
ag97
ag99
ag98
ag46
ag98
ag97
ag97
ag46
ag98
ag46
ag98
ag97
ag99
ag98
ag98
ag98
ag99
ag97
ag97
ag97
ag97
ag98
ag46
ag98
ag98
ag99
ag98
ag98
ag99
asS'um_before'
p100
(lp101
g97
ag46
ag46
ag99
ag97
ag46
ag98
ag98
ag99
ag46
ag98
ag46
ag46
ag46
ag46
ag98
ag46
ag46
ag99
ag98
ag98
ag97
ag98
ag99
ag97
ag46
ag98
ag46
ag46
ag98
ag46
ag99
ag98
ag98
ag97
ag98
ag99
ag98
ag46
ag98
ag46
ag98
ag99
ag99
ag98
ag99
ag46
ag98
ag98
ag99
ag46
ag99
ag46
ag97
ag99
ag98
ag46
ag99
ag46
ag99
ag46
ag98
ag46
ag97
ag97
ag97
ag46
ag46
ag98
ag46
ag99
ag46
ag99
ag98
ag98
ag46
ag46
ag98
ag97
ag99
ag98
ag99
asS'um_after'
p102
(lp103
g97
ag46
ag46
ag99
ag97
ag46
ag98
ag98
ag99
ag46
ag98
ag46
ag46
ag46
ag46
ag98
ag46
ag46
ag99
ag98
ag98
ag97
ag98
ag99
ag97
ag46
ag98
ag46
ag46
ag98
ag46
ag99
ag98
ag98
ag97
ag98
ag99
ag98
ag46
ag98
ag46
ag98
ag99
ag99
ag98
ag99
ag46
ag98
ag98
ag99
ag46
ag99
ag46
ag97
ag99
ag98
ag46
ag99
ag46
ag99
ag46
ag98
ag46
ag97
ag97
ag97
ag46
ag46
ag98
ag46
ag99
ag46
ag99
ag98
ag98
ag46
ag46
ag98
ag97
ag99
ag98
ag99
asaa(lp104
S'index'
p105
aI56180
aatp106
Rp107
.