ccollections
OrderedDict
p0
((lp1
(lp2
S'combination_dict'
p3
ag0
((lp4
(lp5
S'r_to_g_config'
p6
aS'tl'
p7
aa(lp8
S'num_turns'
p9
aI3
aa(lp10
S'start_direction'
p11
acutils_ms
StartDirection
p12
(I1
tp13
Rp14
aa(lp15
S'assistance_type'
p16
acutils_ms
AssistanceType
p17
(I0
tp18
Rp19
aa(lp20
S'start_mode'
p21
aS'x'
p22
aa(lp23
S'ui_given_a_noise'
p24
aF0.5
aa(lp25
S'um_given_ui_noise'
p26
aF0.7
aa(lp27
S'entropy_threshold'
p28
aF0.5
aatp29
Rp30
aa(lp31
S'data'
p32
accollections
defaultdict
p33
(c__builtin__
list
p34
tp35
Rp36
S'a'
p37
(lp38
S'mode_r'
p39
aS'mode_l'
p40
aS'move_p'
p41
ag40
aS'move_n'
p42
ag39
ag40
ag40
ag41
ag40
ag42
ag39
ag41
ag39
ag41
ag40
ag41
ag39
ag39
ag39
ag40
ag41
ag40
ag41
ag39
ag41
ag39
ag39
ag39
ag39
ag41
ag40
ag39
ag41
ag40
ag39
ag41
ag40
ag41
ag40
ag39
ag39
ag40
ag40
ag40
ag40
ag40
ag42
ag40
ag42
ag40
ag42
ag40
ag40
ag42
ag39
ag40
ag39
ag41
ag39
ag39
ag41
ag40
ag41
ag39
ag42
asS'assistance_match_with_ground_truth'
p43
(lp44
I00
aI01
aI01
aI01
aI00
aI00
aI00
aI01
aI01
aI01
aI01
aI01
aI00
aI01
aI00
aI01
aI00
aI00
aI00
aI00
aI01
aI00
aI01
aI00
aI01
aI00
aI00
aI00
aI00
aI01
aI00
aI00
aI01
aI00
aI00
aI01
aI00
aI01
aI00
aI00
aI00
aI00
aI00
aI00
aI00
aI00
aI01
aI00
aI01
aI00
aI01
aI00
aI00
aI01
aI01
aI00
aI00
aI01
aI01
aI00
aI01
aI00
aI01
aI01
aI01
aI01
asS'total_steps'
p45
I66
sS'sp'
p46
(lp47
(S'p0'
p48
I0
S't'
p49
tp50
a(g48
I0
S'y'
p51
tp52
a(S'p1'
p53
I0
g51
tp54
a(g53
I0
S'x'
p55
tp56
a(g48
I0
g55
tp57
ag50
a(g48
I0
g49
tp58
ag52
ag54
ag56
a(S'p2'
p59
I0
g55
tp60
a(g59
I0
g51
tp61
a(g59
I0
g55
tp62
ag61
a(g59
I0
g49
tp63
a(g59
I0
g51
tp64
ag62
a(g59
I0
g55
tp65
a(g59
I0
g55
tp66
a(g59
I0
g49
tp67
ag64
ag63
ag64
ag62
ag61
ag62
ag66
ag65
ag66
ag61
ag63
a(g59
I0
g55
tp68
ag61
ag63
ag68
ag61
ag63
ag64
a(g53
I0
g51
tp69
a(g53
I0
g49
tp70
a(g53
I0
g49
tp71
a(g53
I0
g51
tp72
a(g53
I0
g51
tp73
ag73
a(g53
I0
g51
tp74
ag74
ag56
a(g53
I0
g51
tp75
ag56
ag75
ag56
ag75
ag73
ag56
ag60
ag67
ag68
ag61
a(S'p3'
p76
I0
g51
tp77
a(g76
I0
g51
tp78
a(g76
I0
g49
tp79
a(g76
I0
g55
tp80
a(g76
I0
g49
tp81
a(g76
F1.5707963267948966
g49
tp82
a(g76
F1.5707963267948966
g55
tp83
a(S'p4'
p84
F1.5707963267948966
g55
tp85
asS's'
p86
(lp87
(g48
I0
g22
tp88
ag50
ag52
ag54
ag56
ag57
ag50
ag58
ag52
ag54
ag56
ag60
ag61
ag62
ag61
ag63
ag64
ag62
ag65
ag66
ag67
ag64
ag63
ag64
ag62
ag61
ag62
ag66
ag65
ag66
ag61
ag63
ag68
ag61
ag63
ag68
ag61
ag63
ag64
ag69
ag70
ag71
ag72
ag73
ag73
ag74
ag74
ag56
ag75
ag56
ag75
ag56
ag75
ag73
ag56
ag60
ag67
ag68
ag61
ag77
ag78
ag79
ag80
ag81
ag82
ag83
asS'ui'
p89
(lp90
S'hs'
p91
ag91
aS'ss'
p92
ag91
ag92
ag46
ag91
ag91
ag46
ag92
ag92
aS'hp'
p93
ag91
ag93
ag46
ag91
ag46
ag93
ag46
ag91
ag46
ag93
ag91
ag91
ag93
ag46
ag46
ag93
ag93
ag93
ag93
ag92
ag93
ag46
ag46
ag93
ag93
ag91
ag91
ag93
ag93
ag91
ag92
ag91
ag91
ag91
ag91
ag92
ag91
ag92
ag91
ag92
ag46
ag91
ag92
ag91
ag93
ag93
ag93
ag91
ag93
ag92
ag91
ag93
ag93
ag92
asS'um_before'
p94
(lp95
g91
ag91
ag46
ag91
ag46
ag91
ag46
ag91
ag46
ag91
ag92
ag93
ag91
ag93
ag93
ag91
ag91
ag92
ag46
ag91
ag91
ag93
ag91
ag91
ag93
ag91
ag46
ag92
ag46
ag93
ag93
ag93
ag93
ag93
ag93
ag93
ag93
ag91
ag92
ag93
ag92
ag91
ag46
ag46
ag92
ag92
ag91
ag93
ag91
ag93
ag91
ag93
ag46
ag91
ag92
ag91
ag93
ag93
ag46
ag46
ag93
ag93
ag91
ag46
ag93
ag92
asS'um_after'
p96
(lp97
g91
ag91
ag46
ag91
ag46
ag91
ag46
ag91
ag46
ag91
ag92
ag93
ag91
ag93
ag93
ag91
ag91
ag92
ag46
ag91
ag91
ag93
ag91
ag91
ag93
ag91
ag46
ag92
ag46
ag93
ag93
ag93
ag93
ag93
ag93
ag93
ag93
ag91
ag92
ag93
ag92
ag91
ag46
ag46
ag92
ag92
ag91
ag93
ag91
ag93
ag91
ag93
ag46
ag91
ag92
ag91
ag93
ag93
ag46
ag46
ag93
ag93
ag91
ag46
ag93
ag92
asaa(lp98
S'index'
p99
aI53357
aatp100
Rp101
.