ccollections
OrderedDict
p0
((lp1
(lp2
S'index'
p3
aI5248
aa(lp4
S'combination_dict'
p5
ag0
((lp6
(lp7
S'r_to_g_config'
p8
aS'tl'
p9
aa(lp10
S'num_turns'
p11
aI2
aa(lp12
S'start_direction'
p13
acutils_ms
StartDirection
p14
(I3
tp15
Rp16
aa(lp17
S'assistance_type'
p18
acutils_ms
AssistanceType
p19
(I0
tp20
Rp21
aa(lp22
S'start_mode'
p23
aS't'
p24
aa(lp25
S'ui_given_a_noise'
p26
aF0.7
aa(lp27
S'um_given_ui_noise'
p28
aF0.1
aa(lp29
S'entropy_threshold'
p30
aF0.9
aa(lp31
S'is_assistance'
p32
aI01
aatp33
Rp34
aa(lp35
S'trials'
p36
ag0
((lp37
(lp38
I0
accollections
defaultdict
p39
(c__builtin__
list
p40
tp41
Rp42
S'a'
p43
(lp44
S'mode_r'
p45
aS'mode_l'
p46
aS'move_n'
p47
ag47
ag46
aS'move_p'
p48
ag46
ag45
ag48
ag46
ag47
ag45
ag48
ag46
ag47
ag46
ag47
ag45
ag45
ag48
ag48
ag46
ag46
ag46
ag47
asS'assistance_match_with_ground_truth'
p49
(lp50
I00
aI01
aI00
aI01
aI01
aI01
aI00
aI01
aI01
aI01
aI00
aI01
aI00
aI01
aI00
aI01
aI01
aI00
aI01
aI00
aI01
aI00
aI00
aI01
aI01
asS'total_steps'
p51
I25
sS'sp'
p52
(S'p3'
p53
F1.5707963267948966
S'x'
p54
tp55
sS's'
p56
(lp57
(S'p0'
p58
I0
g24
tp59
a(g58
I0
S'y'
p60
tp61
a(g58
I0
g54
tp62
a(g58
I0
g54
tp63
a(S'p1'
p64
I0
g54
tp65
a(g64
I0
S't'
p66
tp67
a(g64
F1.5707963267948966
g66
tp68
a(g64
F1.5707963267948966
g54
tp69
a(g64
F1.5707963267948966
g60
tp70
a(S'p2'
p71
F1.5707963267948966
g60
tp72
a(g71
F1.5707963267948966
g54
tp73
a(g64
F1.5707963267948966
g54
tp74
ag70
a(g58
F1.5707963267948966
g60
tp75
a(g58
F1.5707963267948966
g54
tp76
a(g58
F1.5707963267948966
g60
tp77
ag76
a(g64
F1.5707963267948966
g54
tp78
a(g64
F1.5707963267948966
g54
tp79
ag70
ag70
ag72
a(g71
F1.5707963267948966
g60
tp80
ag80
ag73
asS'ui'
p81
(lp82
S'hs'
p83
ag83
ag52
ag52
ag83
ag52
aS'hp'
p84
ag84
ag52
ag83
ag52
ag84
aS'ss'
p85
ag83
ag84
ag83
ag85
ag52
ag84
ag52
ag52
ag52
ag83
ag83
ag85
asS'um_before'
p86
(lp87
g83
ag83
ag52
ag85
ag83
ag52
ag84
ag84
ag52
ag83
ag52
ag84
ag85
ag83
ag84
ag83
ag85
ag52
ag84
ag84
ag52
ag52
ag52
ag83
ag85
asS'um_after'
p88
(lp89
g83
ag83
ag52
ag85
ag83
ag52
ag84
ag84
ag52
ag83
ag52
ag84
ag85
ag83
ag84
ag83
ag85
ag52
ag84
aNag52
ag52
ag52
ag83
ag85
asaa(lp90
I1
ag39
(g40
tp91
Rp92
g43
(lp93
g45
ag45
ag45
ag46
ag46
ag47
ag46
ag47
ag46
ag48
ag46
ag45
ag45
ag48
ag45
ag48
ag46
ag47
ag46
ag47
ag45
ag45
ag48
ag45
ag48
ag46
ag47
asg49
(lp94
I00
aI00
aI00
aI00
aI01
aI00
aI01
aI01
aI01
aI01
aI00
aI00
aI01
aI00
aI01
aI00
aI01
aI00
aI01
aI01
aI00
aI01
aI00
aI01
aI01
aI01
aI01
asg51
I27
sg52
g55
sg56
(lp95
(g58
I0
g24
tp96
a(g58
I0
g66
tp97
ag97
ag61
a(g58
I0
g60
tp98
ag62
a(g58
I0
g60
tp99
ag62
ag65
ag67
ag68
ag69
a(g64
F1.5707963267948966
g54
tp100
ag70
a(g64
F1.5707963267948966
g54
tp101
ag70
ag75
ag76
ag77
ag76
ag78
ag100
ag70
ag101
ag70
ag72
ag73
asg81
(lp102
g85
ag84
ag83
ag52
ag83
ag84
ag83
ag85
ag83
ag52
ag84
ag85
ag84
ag83
ag84
ag52
ag83
ag84
ag83
ag84
ag85
ag52
ag83
ag84
ag52
ag83
ag85
asg86
(lp103
g85
ag85
ag83
ag52
ag83
ag84
ag83
ag85
ag83
ag52
ag84
ag85
ag84
ag83
ag84
ag85
ag83
ag84
ag83
ag85
ag85
ag84
ag83
ag84
ag52
ag83
ag85
asg88
(lp104
g85
ag85
ag83
ag52
ag83
ag84
ag83
ag85
ag83
ag52
ag84
ag85
ag84
ag83
ag84
ag85
ag83
ag84
ag83
ag85
ag85
ag84
ag83
ag84
ag52
ag83
ag85
asaa(lp105
I2
ag39
(g40
tp106
Rp107
g43
(lp108
g45
ag47
ag47
ag46
ag46
ag46
ag48
ag45
ag46
ag47
ag46
ag47
asg49
(lp109
I01
aI00
aI01
aI00
aI00
aI01
aI00
aI00
aI01
aI00
aI01
aI01
asg51
I12
sg52
(g53
I0
g54
tp110
sg56
(lp111
(g58
I0
g24
tp112
a(g58
I0
g54
tp113
ag63
ag65
ag65
a(g64
I0
g54
tp114
ag67
a(g64
I0
g60
tp115
a(g71
I0
g60
tp116
a(g71
I0
g54
tp117
a(g71
I0
g60
tp118
ag117
asg81
(lp119
g84
ag52
ag85
ag85
ag52
ag83
ag83
ag52
ag83
ag84
ag83
ag85
asg86
(lp120
g84
ag52
ag85
ag85
ag52
ag83
ag83
ag52
ag83
ag84
ag83
ag85
asg88
(lp121
g84
ag52
ag85
aNag52
ag83
ag83
ag52
ag83
ag84
ag83
ag85
asaa(lp122
I3
ag39
(g40
tp123
Rp124
g43
(lp125
g45
ag46
ag46
ag47
ag46
ag47
ag46
ag46
ag48
ag46
ag48
ag46
ag47
asg49
(lp126
I00
aI00
aI01
aI00
aI01
aI01
aI00
aI01
aI01
aI01
aI01
aI01
aI01
asg51
I13
sg52
g55
sg56
(lp127
(g58
I0
g24
tp128
ag61
ag98
ag62
ag99
ag62
ag65
ag114
ag67
ag68
a(g64
F1.5707963267948966
g60
tp129
ag72
ag73
asg81
(lp130
g84
ag52
ag83
ag84
ag83
ag85
ag52
ag83
ag52
ag83
ag52
ag83
ag85
asg86
(lp131
g83
ag52
ag83
ag84
ag83
ag85
ag52
ag83
ag52
ag83
ag52
ag83
ag85
asg88
(lp132
g83
ag52
ag83
ag84
ag83
ag85
ag52
ag83
ag52
ag83
ag52
ag83
ag85
asaa(lp133
I4
ag39
(g40
tp134
Rp135
g43
(lp136
g45
ag45
ag45
ag47
ag46
ag46
ag47
ag47
ag46
ag48
ag48
ag48
ag48
ag46
ag46
ag48
ag46
ag46
ag47
ag45
ag45
ag48
ag46
ag46
ag47
ag45
ag46
ag46
ag46
ag46
ag48
ag46
ag47
ag46
ag47
asg49
(lp137
I00
aI00
aI01
aI00
aI00
aI01
aI00
aI01
aI01
aI00
aI00
aI00
aI01
aI00
aI01
aI01
aI00
aI01
aI00
aI00
aI01
aI00
aI00
aI01
aI01
aI00
aI00
aI00
aI00
aI01
aI01
aI01
aI00
aI01
aI01
asg51
I35
sg52
g55
sg56
(lp138
(g58
I0
g24
tp139
ag97
a(g58
I0
g66
tp140
ag113
ag99
ag98
ag62
ag63
ag65
ag67
a(g64
I0
g66
tp141
ag141
ag141
ag68
a(g64
F1.5707963267948966
g66
tp142
ag129
ag72
ag80
ag73
ag74
ag100
ag70
ag75
a(g58
F1.5707963267948966
g60
tp143
ag76
ag78
a(g64
F1.5707963267948966
g66
tp144
ag142
ag142
ag142
ag129
ag72
ag73
a(g71
F1.5707963267948966
g60
tp145
ag73
asg81
(lp146
g85
ag52
ag85
ag84
ag52
ag83
ag52
ag85
ag83
ag85
ag85
ag85
ag52
ag52
ag83
ag52
ag52
ag83
ag52
ag85
ag84
ag85
ag52
ag83
ag85
ag83
ag52
ag52
ag52
ag83
ag52
ag83
ag84
ag83
ag85
asg86
(lp147
g85
ag52
ag84
ag84
ag52
ag83
ag52
ag85
ag83
ag85
ag85
ag84
ag52
ag52
ag83
ag52
ag52
ag83
ag52
ag85
ag84
ag85
ag52
ag83
ag85
ag83
ag52
ag52
ag52
ag83
ag52
ag83
ag84
ag83
ag85
asg88
(lp148
g85
ag52
ag84
ag84
ag52
ag83
ag52
ag85
ag83
ag85
ag85
aNag52
ag52
ag83
ag52
ag52
ag83
ag52
ag85
ag84
ag85
ag52
ag83
ag85
ag83
ag52
ag52
ag52
ag83
ag52
ag83
ag84
ag83
ag85
asaa(lp149
I5
ag39
(g40
tp150
Rp151
g43
(lp152
g45
ag45
ag45
ag47
ag45
ag47
ag47
ag47
ag46
ag46
ag46
ag46
ag48
ag46
ag48
ag45
ag45
ag48
ag46
ag47
ag45
ag47
asg49
(lp153
I00
aI00
aI01
aI00
aI01
aI00
aI00
aI01
aI00
aI00
aI00
aI01
aI01
aI01
aI00
aI00
aI01
aI01
aI01
aI00
aI01
aI01
asg51
I22
sg52
g55
sg56
(lp154
(g58
I0
g24
tp155
ag140
ag97
ag113
a(g58
I0
g66
tp156
ag113
ag63
ag63
ag65
ag114
ag114
ag114
ag67
ag68
ag129
ag101
ag79
ag70
ag72
ag73
a(g71
F1.5707963267948966
g66
tp157
a(g71
F1.5707963267948966
g54
tp158
asg81
(lp159
g83
ag85
ag84
ag83
ag84
ag52
ag52
ag85
ag52
ag52
ag52
ag83
ag52
ag83
ag83
ag52
ag84
ag52
ag83
ag83
ag84
ag85
asg86
(lp160
g52
ag85
ag84
ag83
ag84
ag52
ag52
ag85
ag52
ag52
ag52
ag83
ag52
ag83
ag83
ag52
ag84
ag52
ag83
ag83
ag84
ag85
asg88
(lp161
g52
ag85
ag84
ag83
ag84
ag52
ag52
ag85
ag52
ag52
ag52
ag83
ag52
ag83
ag83
ag52
ag84
ag52
ag83
ag83
ag84
ag85
asaa(lp162
I6
ag39
(g40
tp163
Rp164
g43
(lp165
g45
ag47
ag46
ag47
ag46
ag46
ag47
ag46
ag47
ag46
ag47
ag46
ag47
ag46
ag46
ag46
ag48
ag46
ag48
ag46
ag47
ag46
ag46
ag45
ag47
asg49
(lp166
I01
aI00
aI01
aI00
aI00
aI01
aI00
aI01
aI00
aI01
aI00
aI01
aI01
aI00
aI00
aI01
aI01
aI01
aI01
aI01
aI00
aI00
aI00
aI01
aI01
asg51
I25
sg52
g55
sg56
(lp167
(g58
I0
g24
tp168
ag113
ag99
ag62
ag99
ag98
ag62
ag99
ag62
ag99
ag62
ag99
ag62
ag65
ag114
ag114
ag67
ag68
ag129
ag72
ag73
ag145
ag145
a(g71
F1.5707963267948966
g66
tp169
ag158
asg81
(lp170
g84
ag84
ag83
ag52
ag52
ag83
ag84
ag83
ag84
ag83
ag84
ag83
ag85
ag52
ag83
ag83
ag52
ag83
ag52
ag83
ag84
ag85
ag52
ag84
ag85
asg86
(lp171
g84
ag84
ag83
ag84
ag52
ag83
ag84
ag83
ag84
ag83
ag84
ag83
ag85
ag52
ag52
ag83
ag52
ag83
ag52
ag83
ag84
ag85
ag84
ag84
ag85
asg88
(lp172
g84
ag84
ag83
ag84
ag52
ag83
ag84
ag83
ag84
ag83
ag84
ag83
ag85
ag52
ag52
ag83
ag52
ag83
ag52
ag83
ag84
aNag84
ag84
ag85
asaa(lp173
I7
ag39
(g40
tp174
Rp175
g43
(lp176
g45
ag47
ag46
ag48
ag46
ag46
ag48
ag48
ag46
ag46
ag47
ag45
ag47
asg49
(lp177
I01
aI01
aI01
aI01
aI00
aI01
aI00
aI01
aI00
aI01
aI00
aI01
aI01
asg51
I13
sg52
g55
sg56
(lp178
(g58
I0
g24
tp179
ag113
ag65
ag67
ag68
ag142
ag129
ag129
ag72
ag80
ag73
ag157
ag158
asg81
(lp180
g84
ag85
ag83
ag52
ag52
ag83
ag52
ag52
ag52
ag83
ag84
ag84
ag85
asg86
(lp181
g84
ag85
ag83
ag52
ag52
ag83
ag84
ag52
ag52
ag83
ag83
ag84
ag85
asg88
(lp182
g84
ag85
ag83
ag52
ag52
ag83
aNag52
ag52
ag83
ag83
ag84
ag85
asaa(lp183
I8
ag39
(g40
tp184
Rp185
g43
(lp186
g45
ag46
ag47
ag46
ag46
ag48
ag45
ag46
ag47
asg49
(lp187
I00
aI01
aI01
aI00
aI01
aI00
aI00
aI01
aI01
asg51
I9
sg52
g110
sg56
(lp188
(g58
I0
g24
tp189
ag61
ag62
ag65
ag114
ag67
ag115
ag116
ag117
asg81
(lp190
g83
ag83
ag85
ag52
ag83
ag83
ag52
ag83
ag85
asg86
(lp191
g83
ag83
ag85
ag52
ag83
ag83
ag52
ag83
ag85
asg88
(lp192
g83
ag83
ag85
ag52
ag83
ag83
ag52
ag83
ag85
asaa(lp193
I9
ag39
(g40
tp194
Rp195
g43
(lp196
g45
ag47
ag47
ag46
ag48
ag46
ag46
ag46
ag48
ag46
ag46
ag47
asg49
(lp197
I01
aI00
aI01
aI01
aI01
aI00
aI00
aI01
aI01
aI00
aI01
aI01
asg51
I12
sg52
g55
sg56
(lp198
(g58
I0
g24
tp199
ag113
ag63
ag65
ag67
ag68
ag142
ag142
ag129
ag72
ag72
ag73
asg81
(lp200
g84
ag52
ag85
ag83
ag52
ag52
ag52
ag83
ag52
ag85
ag83
ag85
asg86
(lp201
g84
ag52
ag85
ag83
ag52
ag52
ag52
ag83
ag52
ag85
ag83
ag85
asg88
(lp202
g84
ag52
ag85
ag83
ag52
ag52
ag52
ag83
ag52
aNag83
ag85
asaatp203
Rp204
aatp205
Rp206
.