ccollections
OrderedDict
p0
((lp1
(lp2
S'combination_dict'
p3
ag0
((lp4
(lp5
S'r_to_g_config'
p6
aS'bl'
p7
aa(lp8
S'num_turns'
p9
aI2
aa(lp10
S'start_direction'
p11
acutils_ms
StartDirection
p12
(I1
tp13
Rp14
aa(lp15
S'assistance_type'
p16
acutils_ms
AssistanceType
p17
(I1
tp18
Rp19
aa(lp20
S'start_mode'
p21
aS'x'
p22
aa(lp23
S'ui_given_a_noise'
p24
aF0.7
aa(lp25
S'um_given_ui_noise'
p26
aF0.1
aa(lp27
S'entropy_threshold'
p28
aF0.5
aatp29
Rp30
aa(lp31
S'data'
p32
accollections
defaultdict
p33
(c__builtin__
list
p34
tp35
Rp36
S'a'
p37
(lp38
S'mode_r'
p39
aS'move_n'
p40
ag39
aS'mode_l'
p41
ag39
ag39
ag40
ag39
aS'move_p'
p42
ag39
ag41
ag42
ag39
ag40
ag39
ag40
ag39
ag40
ag41
ag40
ag39
ag41
ag40
ag39
ag41
ag41
ag40
ag39
ag40
ag39
ag39
ag40
ag41
ag41
ag41
ag40
ag39
ag40
ag41
ag40
ag39
ag41
ag41
ag41
ag40
ag41
ag40
ag39
ag40
ag41
ag40
ag39
ag40
ag41
ag41
ag41
ag40
ag39
ag40
ag41
ag41
ag39
ag40
ag39
ag39
ag40
ag41
ag41
ag40
ag39
ag41
ag39
ag40
ag39
ag40
ag41
ag40
ag41
ag41
ag40
ag41
ag40
ag39
ag42
ag39
ag42
ag39
ag40
ag39
ag40
ag41
ag41
ag41
ag40
ag39
ag40
ag41
ag41
ag41
ag40
ag41
ag41
ag41
ag41
ag41
ag40
ag39
ag40
ag41
ag39
ag40
ag41
ag40
ag39
ag40
ag39
ag41
ag41
ag41
ag40
ag39
ag41
ag41
ag41
ag40
ag40
ag39
ag41
ag40
ag41
ag41
ag41
ag40
ag41
ag41
ag40
ag39
ag40
ag41
ag41
ag40
ag39
ag40
ag41
ag40
ag39
ag40
ag39
ag41
ag41
ag40
ag39
ag40
ag41
ag41
ag41
ag40
ag39
ag39
ag40
ag41
ag41
ag40
ag39
ag41
ag40
ag41
ag41
ag40
ag39
ag41
ag41
ag41
ag40
asS'assistance_match_with_ground_truth'
p43
(lp44
I01
aI01
aI00
aI00
aI00
aI01
aI00
aI01
aI00
aI00
aI01
aI01
aI01
aI01
aI01
aI00
aI01
aI00
aI01
aI01
aI00
aI01
aI00
aI00
aI00
aI01
aI00
aI01
aI00
aI00
aI01
aI00
aI00
aI00
aI01
aI00
aI01
aI01
aI01
aI00
aI00
aI00
aI00
aI01
aI01
aI01
aI00
aI01
aI01
aI01
aI01
aI01
aI00
aI00
aI00
aI01
aI00
aI01
aI01
aI00
aI00
aI01
aI00
aI00
aI01
aI01
aI00
aI01
aI01
aI00
aI00
aI01
aI00
aI01
aI00
aI01
aI00
aI00
aI01
aI00
aI01
aI00
aI00
aI00
aI01
aI01
aI01
aI01
aI01
aI00
aI00
aI00
aI01
aI01
aI01
aI00
aI00
aI00
aI01
aI00
aI00
aI00
aI00
aI00
aI01
aI00
aI01
aI00
aI00
aI01
aI00
aI01
aI00
aI01
aI00
aI00
aI00
aI00
aI01
aI00
aI00
aI00
aI00
aI01
aI00
aI00
aI00
aI01
aI00
aI00
aI00
aI01
aI01
aI00
aI01
aI01
aI01
aI00
aI00
aI01
aI00
aI01
aI01
aI01
aI00
aI01
aI00
aI00
aI00
aI01
aI00
aI01
aI01
aI00
aI00
aI01
aI01
aI00
aI01
aI00
aI00
aI01
aI00
aI00
aI01
aI01
aI00
aI01
aI01
aI00
aI00
aI00
aI01
aI01
asS'total_steps'
p45
I174
sS'sp'
p46
(lp47
(S'p0'
p48
I0
S'y'
p49
tp50
a(S'p1'
p51
I0
g49
tp52
a(g51
I0
S'x'
p53
tp54
a(S'p2'
p55
I0
g53
tp56
a(g55
I0
g53
tp57
a(g55
I0
g49
tp58
a(g51
I0
g49
tp59
a(g51
I0
S't'
p60
tp61
a(g51
I0
g49
tp62
ag54
a(g51
I0
g60
tp63
a(g51
F1.5707963267948966
g60
tp64
a(g51
F1.5707963267948966
g53
tp65
a(g55
F1.5707963267948966
g53
tp66
a(g55
F1.5707963267948966
g49
tp67
a(g55
F1.5707963267948966
g53
tp68
ag67
a(g51
F1.5707963267948966
g49
tp69
a(g51
F1.5707963267948966
g53
tp70
ag66
a(g55
F1.5707963267948966
g60
tp71
a(g55
F1.5707963267948966
g49
tp72
ag68
ag71
a(g55
F1.5707963267948966
g60
tp73
ag72
ag68
ag67
ag68
a(g55
F1.5707963267948966
g53
tp74
ag67
ag69
a(g51
F1.5707963267948966
g49
tp75
ag75
ag70
a(g48
F1.5707963267948966
g53
tp76
a(g48
F1.5707963267948966
g49
tp77
a(g51
F1.5707963267948966
g49
tp78
ag70
ag76
a(g48
F1.5707963267948966
g60
tp79
a(g48
F1.5707963267948966
g60
tp80
a(g48
F1.5707963267948966
g60
tp81
a(g48
F1.5707963267948966
g49
tp82
ag78
ag70
ag76
ag77
ag78
ag70
ag66
ag67
ag69
ag75
a(g51
F1.5707963267948966
g49
tp83
ag70
ag76
ag77
ag78
ag75
a(g51
F1.5707963267948966
g60
tp84
ag65
ag76
a(g48
F1.5707963267948966
g53
tp85
ag77
ag78
ag83
ag70
ag66
ag71
a(g55
F1.5707963267948966
g53
tp86
ag67
ag68
ag67
a(g55
F1.5707963267948966
g60
tp87
ag72
ag69
ag75
ag70
a(g51
F1.5707963267948966
g49
tp88
ag70
a(g51
F1.5707963267948966
g60
tp89
a(g51
I0
g60
tp90
ag62
ag61
ag64
ag65
ag66
ag67
ag69
ag83
ag75
ag70
ag66
ag67
ag87
a(g55
F1.5707963267948966
g60
tp91
ag91
ag72
ag69
ag75
ag75
ag83
ag83
ag70
ag89
ag65
ag88
ag84
ag65
ag88
ag70
ag76
ag77
a(g48
F1.5707963267948966
g53
tp92
ag79
ag80
ag80
ag82
ag92
ag79
ag81
ag81
ag82
a(g48
F1.5707963267948966
g49
tp93
ag92
ag79
ag82
a(g48
F1.5707963267948966
g60
tp94
ag80
ag80
ag82
ag78
ag75
ag70
ag66
ag67
ag69
ag75
ag70
ag76
ag77
ag78
ag70
ag89
ag65
ag89
a(g51
F1.5707963267948966
g49
tp95
ag75
ag70
ag76
ag77
ag78
ag75
ag75
ag70
ag66
a(g55
F1.5707963267948966
g53
tp96
ag67
ag69
ag75
ag70
ag76
ag79
ag82
ag78
ag83
ag70
ag66
ag71
ag73
ag73
ag72
a(S'p3'
p97
F1.5707963267948966
g49
tp98
asS's'
p99
(lp100
(g48
I0
g22
tp101
ag50
ag52
ag54
ag56
ag57
ag58
ag59
ag61
ag62
ag54
ag63
ag64
ag65
ag66
ag67
ag68
ag67
ag69
ag70
ag66
ag71
ag72
ag68
ag71
ag73
ag72
ag68
ag67
ag68
ag74
ag67
ag69
ag75
ag75
ag70
ag76
ag77
ag78
ag70
ag76
ag79
ag80
ag81
ag82
ag78
ag70
ag76
ag77
ag78
ag70
ag66
ag67
ag69
ag75
ag83
ag70
ag76
ag77
ag78
ag75
ag84
ag65
ag76
ag85
ag77
ag78
ag83
ag70
ag66
ag71
ag86
ag67
ag68
ag67
ag87
ag72
ag69
ag75
ag70
ag88
ag70
ag89
ag90
ag62
ag61
ag64
ag65
ag66
ag67
ag69
ag83
ag75
ag70
ag66
ag67
ag87
ag91
ag91
ag72
ag69
ag75
ag75
ag83
ag83
ag70
ag89
ag65
ag88
ag84
ag65
ag88
ag70
ag76
ag77
ag92
ag79
ag80
ag80
ag82
ag92
ag79
ag81
ag81
ag82
ag93
ag92
ag79
ag82
ag94
ag80
ag80
ag82
ag78
ag75
ag70
ag66
ag67
ag69
ag75
ag70
ag76
ag77
ag78
ag70
ag89
ag65
ag89
ag95
ag75
ag70
ag76
ag77
ag78
ag75
ag75
ag70
ag66
ag96
ag67
ag69
ag75
ag70
ag76
ag79
ag82
ag78
ag83
ag70
ag66
ag71
ag73
ag73
ag72
asS'ui'
p102
(lp103
S'hp'
p104
aS'ss'
p105
aS'hs'
p106
ag105
ag105
ag104
ag46
ag104
ag106
ag106
ag106
ag46
ag104
ag105
ag104
ag106
ag104
ag105
ag106
ag105
ag106
ag106
ag106
ag106
ag105
ag106
ag46
ag104
ag106
ag105
ag104
ag104
ag105
ag105
ag106
ag46
ag104
ag105
ag106
ag105
ag106
ag105
ag46
ag106
ag105
ag106
ag46
ag104
ag105
ag106
ag105
ag104
ag46
ag105
ag105
ag106
ag46
ag104
ag105
ag105
ag106
ag104
ag46
ag46
ag104
ag105
ag105
ag106
ag106
ag104
ag106
ag104
ag106
ag104
ag104
ag106
ag46
ag105
ag106
ag104
ag106
ag106
ag105
ag106
ag104
ag46
ag104
ag105
ag104
ag105
ag46
ag105
ag106
ag105
ag104
ag104
ag46
ag46
ag106
ag104
ag105
ag105
ag46
ag106
ag106
ag106
ag104
ag104
ag104
ag106
ag104
ag106
ag104
ag104
ag46
ag106
ag105
ag105
ag106
ag105
ag106
ag46
ag105
ag106
ag46
ag106
ag106
ag106
ag104
ag105
ag105
ag106
ag105
ag105
ag106
ag105
ag104
ag46
ag105
ag106
ag46
ag104
ag105
ag106
ag106
ag104
ag106
ag106
ag105
ag106
ag46
ag104
ag105
ag105
ag105
ag106
ag105
ag46
ag104
ag46
ag105
ag106
ag46
ag106
ag46
ag105
ag105
ag106
ag105
ag106
ag105
ag105
ag106
ag105
asS'um_before'
p107
(lp108
g104
ag105
ag106
ag105
ag105
ag104
ag46
ag104
ag106
ag106
ag106
ag46
ag104
ag105
ag104
ag106
ag104
ag46
ag106
ag105
ag106
ag106
ag106
ag106
ag105
ag106
ag106
ag104
ag106
ag105
ag104
ag46
ag105
ag105
ag106
ag46
ag104
ag105
ag106
ag46
ag106
ag105
ag46
ag106
ag105
ag106
ag46
ag104
ag105
ag106
ag105
ag104
ag46
ag105
ag46
ag106
ag46
ag104
ag105
ag105
ag104
ag104
ag46
ag46
ag104
ag105
ag46
ag106
ag105
ag106
ag104
ag104
ag106
ag104
ag104
ag106
ag46
ag105
ag106
ag104
ag106
ag106
ag105
ag106
ag104
ag46
ag104
ag105
ag104
ag46
ag46
ag105
ag106
ag105
ag104
ag104
ag46
ag46
ag106
ag46
ag105
ag105
ag46
ag46
ag106
ag106
ag104
ag104
ag104
ag104
ag104
ag106
ag46
ag104
ag106
ag106
ag105
ag105
ag106
ag106
ag106
ag46
ag46
ag106
ag46
ag106
ag106
ag106
ag104
ag105
ag105
ag106
ag105
ag105
ag106
ag105
ag104
ag46
ag105
ag106
ag46
ag104
ag105
ag106
ag106
ag104
ag106
ag106
ag105
ag106
ag46
ag104
ag105
ag105
ag105
ag106
ag105
ag46
ag104
ag46
ag105
ag106
ag46
ag106
ag106
ag105
ag46
ag106
ag105
ag106
ag105
ag105
ag106
ag105
asS'um_after'
p109
(lp110
g104
ag105
ag106
ag105
ag105
ag104
ag46
ag104
ag106
ag106
ag106
ag46
ag104
ag105
ag104
ag106
ag104
ag46
ag106
ag105
ag106
ag106
ag106
ag106
ag105
ag106
ag106
ag104
ag106
ag105
ag104
ag46
ag105
ag105
ag106
ag46
ag104
ag105
ag106
ag46
ag106
ag105
ag46
ag106
ag105
ag106
ag46
ag104
ag105
ag106
ag105
ag104
ag46
ag105
ag46
ag106
ag46
ag104
ag105
ag105
ag104
ag104
ag46
ag46
ag104
ag105
ag46
ag106
ag105
ag106
ag104
ag104
ag106
ag104
ag104
ag106
ag46
ag105
ag106
ag104
ag106
ag106
ag105
ag106
ag104
ag46
ag104
ag105
ag104
ag46
ag46
ag105
ag106
ag105
ag104
ag104
ag46
ag46
ag106
ag46
ag105
ag105
ag46
ag46
ag106
ag106
ag104
ag104
ag104
ag104
ag104
ag106
ag46
ag104
ag106
ag106
ag105
ag105
ag106
ag106
ag106
ag46
ag46
ag106
ag46
ag106
ag106
ag106
ag104
ag105
ag105
ag106
ag105
ag105
ag106
ag105
ag104
ag46
ag105
ag106
ag46
ag104
ag105
ag106
ag106
ag104
ag106
ag106
ag105
ag106
ag46
ag104
ag105
ag105
ag105
ag106
ag105
ag46
ag104
ag46
ag105
ag106
ag46
ag106
ag106
ag105
ag46
ag106
ag105
ag106
ag105
ag105
ag106
ag105
asaa(lp111
S'index'
p112
aI74200
aatp113
Rp114
.