ccollections
OrderedDict
p0
((lp1
(lp2
S'combination_dict'
p3
ag0
((lp4
(lp5
S'r_to_g_config'
p6
aS'tl'
p7
aa(lp8
S'num_turns'
p9
aI2
aa(lp10
S'start_direction'
p11
acutils_ms
StartDirection
p12
(I0
tp13
Rp14
aa(lp15
S'assistance_type'
p16
acutils_ms
AssistanceType
p17
(I1
tp18
Rp19
aa(lp20
S'start_mode'
p21
aS't'
p22
aa(lp23
S'ui_given_a_noise'
p24
aF0.3
aa(lp25
S'um_given_ui_noise'
p26
aF0.1
aa(lp27
S'entropy_threshold'
p28
aF0.6
aatp29
Rp30
aa(lp31
S'data'
p32
accollections
defaultdict
p33
(c__builtin__
list
p34
tp35
Rp36
S'a'
p37
(lp38
S'mode_r'
p39
ag39
aS'move_n'
p40
aS'mode_l'
p41
aS'move_p'
p42
ag39
ag42
ag41
ag42
ag41
ag40
asS'assistance_match_with_ground_truth'
p43
(lp44
I00
aI01
aI01
aI01
aI00
aI01
aI01
aI01
aI01
aI01
aI01
asS'total_steps'
p45
I11
sS'sp'
p46
(lp47
(S'p0'
p48
I0
S't'
p49
tp50
a(g48
I0
S'x'
p51
tp52
a(S'p1'
p53
I0
g51
tp54
a(g53
I0
g49
tp55
a(g53
I0
S'y'
p56
tp57
a(g53
I0
g49
tp58
a(g53
F1.5707963267948966
g49
tp59
a(g53
F1.5707963267948966
g56
tp60
a(S'p2'
p61
F1.5707963267948966
g56
tp62
a(g61
F1.5707963267948966
g51
tp63
a(S'p3'
p64
F1.5707963267948966
g51
tp65
asS's'
p66
(lp67
(g48
I0
g22
tp68
ag50
ag52
ag54
ag55
ag57
ag58
ag59
ag60
ag62
ag63
asS'ui'
p69
(lp70
S'hp'
p71
ag71
aS'ss'
p72
aS'hs'
p73
ag46
ag71
ag46
ag73
ag46
ag73
ag72
asS'um_before'
p74
(lp75
g46
ag71
ag71
ag73
ag73
ag71
ag46
ag73
ag46
ag73
ag72
asS'um_after'
p76
(lp77
g46
ag71
ag72
ag73
ag73
ag71
ag46
ag73
ag46
ag73
ag72
asaa(lp78
S'index'
p79
aI40212
aatp80
Rp81
.