ccollections
OrderedDict
p0
((lp1
(lp2
S'index'
p3
aI2576
aa(lp4
S'combination_dict'
p5
ag0
((lp6
(lp7
S'r_to_g_config'
p8
aS'tr'
p9
aa(lp10
S'num_turns'
p11
aI3
aa(lp12
S'start_direction'
p13
acutils_ms
StartDirection
p14
(I3
tp15
Rp16
aa(lp17
S'assistance_type'
p18
acutils_ms
AssistanceType
p19
(I0
tp20
Rp21
aa(lp22
S'start_mode'
p23
aS't'
p24
aa(lp25
S'ui_given_a_noise'
p26
aF0.1
aa(lp27
S'um_given_ui_noise'
p28
aF0.3
aa(lp29
S'entropy_threshold'
p30
aF0.8
aa(lp31
S'is_assistance'
p32
aI01
aatp33
Rp34
aa(lp35
S'trials'
p36
ag0
((lp37
(lp38
I0
accollections
defaultdict
p39
(c__builtin__
list
p40
tp41
Rp42
S'a'
p43
(lp44
S'mode_r'
p45
aS'move_p'
p46
ag46
ag46
ag45
ag46
ag46
ag46
ag46
ag46
ag45
ag46
ag45
ag46
ag46
ag45
ag46
ag46
asS'assistance_match_with_ground_truth'
p47
(lp48
I01
aI00
aI00
aI01
aI01
aI00
aI00
aI00
aI00
aI01
aI01
aI01
aI01
aI00
aI01
aI01
aI00
aI01
asS'total_steps'
p49
I18
sS'sp'
p50
(S'p4'
p51
F1.5707963267948966
S'y'
p52
tp53
sS's'
p54
(lp55
(S'p0'
p56
I0
g24
tp57
a(g56
I0
S'x'
p58
tp59
ag59
ag59
a(S'p1'
p60
I0
g58
tp61
a(g60
I0
g52
tp62
ag62
ag62
ag62
ag62
a(S'p2'
p63
I0
g52
tp64
a(g63
I0
S't'
p65
tp66
a(g63
F1.5707963267948966
g65
tp67
a(g63
F1.5707963267948966
g58
tp68
ag68
a(S'p3'
p69
F1.5707963267948966
g58
tp70
a(g69
F1.5707963267948966
g52
tp71
ag71
asS'ui'
p72
(lp73
S'hp'
p74
ag50
aS'hs'
p75
ag50
ag74
ag50
ag50
ag50
ag50
ag50
ag74
ag50
ag74
ag50
ag50
ag74
ag50
ag50
asS'um_before'
p76
(lp77
g74
ag75
ag74
ag50
ag74
ag75
ag74
ag75
ag74
ag50
ag74
ag50
ag74
ag75
ag50
ag74
ag74
ag50
asS'um_after'
p78
(lp79
g74
aNaNag50
ag74
aNaNaNaNag50
ag74
ag50
ag74
aNag50
ag74
aNag50
asaa(lp80
I1
ag39
(g40
tp81
Rp82
g43
(lp83
g45
ag46
ag46
ag45
ag46
ag46
ag46
ag46
ag45
ag46
ag46
ag45
ag46
ag46
ag45
ag46
ag46
asg47
(lp84
I01
aI00
aI01
aI01
aI00
aI00
aI00
aI01
aI01
aI00
aI01
aI01
aI00
aI01
aI01
aI00
aI01
asg49
I17
sg50
g53
sg54
(lp85
(g56
I0
g24
tp86
ag59
ag59
ag61
ag62
ag62
ag62
ag62
ag64
ag66
ag66
ag67
ag68
ag68
ag70
ag71
ag71
asg72
(lp87
g74
aS'ss'
p88
ag50
ag74
ag50
ag75
ag50
ag50
ag74
ag50
ag50
ag74
ag50
ag50
ag74
ag50
ag50
asg76
(lp89
g74
ag88
ag50
ag74
ag88
ag75
ag74
ag50
ag74
ag75
ag50
ag74
ag74
ag50
ag74
ag74
ag50
asg78
(lp90
g74
aNag50
ag74
aNaNaNag50
ag74
aNag50
ag74
aNag50
ag74
aNag50
asaa(lp91
I2
ag39
(g40
tp92
Rp93
g43
(lp94
g45
ag46
ag46
ag45
ag46
ag46
ag45
ag45
ag46
ag45
ag46
ag45
ag45
ag46
asg47
(lp95
I01
aI00
aI01
aI01
aI00
aI01
aI00
aI01
aI01
aI01
aI01
aI00
aI01
aI01
asg49
I14
sg50
g53
sg54
(lp96
(g56
I0
g24
tp97
ag59
ag59
ag61
ag62
ag62
ag64
ag64
ag66
ag67
ag68
ag70
ag70
ag71
asg72
(lp98
g74
ag88
ag50
ag74
ag50
ag50
ag74
ag74
ag50
ag74
ag50
ag74
ag74
ag50
asg76
(lp99
g74
ag88
ag50
ag74
ag74
ag50
ag50
ag74
ag50
ag74
ag50
ag88
ag74
ag50
asg78
(lp100
g74
aNag50
ag74
aNag50
aNag74
ag50
ag74
ag50
aNag74
ag50
asaa(lp101
I3
ag39
(g40
tp102
Rp103
g43
(lp104
g45
aS'mode_l'
p105
ag46
ag45
ag46
ag46
ag45
ag46
ag45
ag46
ag45
ag46
asg47
(lp106
I00
aI01
aI01
aI01
aI00
aI01
aI01
aI01
aI01
aI01
aI01
aI01
asg49
I12
sg50
g53
sg54
(lp107
(g56
I0
g24
tp108
a(g56
I0
g52
tp109
a(g56
I0
g58
tp110
ag61
ag62
ag62
ag64
ag66
ag67
ag68
ag70
ag71
asg72
(lp111
g75
ag75
ag50
ag74
ag50
ag50
ag74
ag50
ag74
ag50
ag74
ag50
asg76
(lp112
g75
ag75
ag50
ag74
ag74
ag50
ag74
ag50
ag74
ag50
ag74
ag50
asg78
(lp113
g75
ag75
ag50
ag74
aNag50
ag74
ag50
ag74
ag50
ag74
ag50
asaa(lp114
I4
ag39
(g40
tp115
Rp116
g43
(lp117
g45
ag45
ag46
ag45
ag45
ag46
ag46
ag46
ag46
ag45
ag45
ag46
ag46
ag46
ag46
ag46
ag46
ag45
ag46
ag45
ag46
ag46
ag46
ag46
ag46
ag46
asg47
(lp118
I00
aI01
aI01
aI00
aI01
aI00
aI00
aI00
aI01
aI00
aI01
aI00
aI00
aI00
aI00
aI00
aI01
aI01
aI01
aI01
aI00
aI00
aI00
aI00
aI00
aI01
asg49
I26
sg50
g53
sg54
(lp119
(g56
I0
g24
tp120
ag120
ag59
ag61
ag61
ag62
ag62
ag62
ag62
ag64
ag64
ag66
ag66
ag66
ag66
ag66
ag66
ag67
ag68
ag70
ag71
ag71
ag71
ag71
ag71
ag71
asg72
(lp121
g74
ag74
ag50
ag74
ag74
ag50
ag50
ag75
ag50
ag74
ag74
ag50
ag75
ag50
ag75
ag50
ag50
ag74
ag50
ag74
ag50
ag50
ag50
ag50
ag50
ag50
asg76
(lp122
g88
ag74
ag50
ag88
ag74
ag75
ag75
ag75
ag50
ag88
ag74
ag88
ag75
ag75
ag75
ag74
ag50
ag74
ag50
ag74
ag75
ag88
ag75
ag74
ag74
ag50
asg78
(lp123
Nag74
ag50
aNag74
aNaNaNag50
aNag74
aNaNaNaNaNag50
ag74
ag50
ag74
aNaNaNaNaNag50
asaa(lp124
I5
ag39
(g40
tp125
Rp126
g43
(lp127
g45
ag46
ag45
ag46
ag45
ag46
ag46
ag45
ag46
ag46
ag46
ag46
ag45
ag46
asg47
(lp128
I01
aI01
aI01
aI01
aI01
aI00
aI01
aI01
aI00
aI00
aI00
aI01
aI01
aI01
asg49
I14
sg50
g53
sg54
(lp129
(g56
I0
g24
tp130
ag59
ag61
ag62
ag64
ag66
ag66
ag67
ag68
ag68
ag68
ag68
ag70
ag71
asg72
(lp131
g74
ag50
ag74
ag50
ag74
ag88
ag50
ag74
ag88
ag75
ag75
ag50
ag74
ag74
asg76
(lp132
g74
ag50
ag74
ag50
ag74
ag88
ag50
ag74
ag88
ag75
ag75
ag50
ag74
ag50
asg78
(lp133
g74
ag50
ag74
ag50
ag74
aNag50
ag74
aNaNaNag50
ag74
ag50
asaa(lp134
I6
ag39
(g40
tp135
Rp136
g43
(lp137
g45
ag46
ag46
ag46
ag46
ag45
ag45
ag45
ag46
ag46
ag46
ag45
ag46
ag45
ag46
ag45
ag46
asg47
(lp138
I01
aI00
aI00
aI00
aI01
aI00
aI00
aI01
aI00
aI00
aI01
aI01
aI01
aI01
aI01
aI01
aI01
asg49
I17
sg50
g53
sg54
(lp139
(g56
I0
g24
tp140
ag59
ag59
ag59
ag59
ag61
ag61
ag61
ag62
ag62
ag62
ag64
ag66
ag67
ag68
ag70
ag71
asg72
(lp141
g74
ag50
ag75
ag50
ag50
ag74
ag88
ag74
ag75
ag88
ag50
ag74
ag50
ag74
ag50
ag74
ag50
asg76
(lp142
g74
ag88
ag75
ag74
ag50
ag88
ag88
ag74
ag75
ag88
ag50
ag74
ag50
ag74
ag50
ag74
ag50
asg78
(lp143
g74
aNaNaNag50
aNaNag74
aNaNag50
ag74
ag50
ag74
ag50
ag74
ag50
asaa(lp144
I7
ag39
(g40
tp145
Rp146
g43
(lp147
g45
ag46
ag45
ag46
ag46
ag45
ag46
ag45
ag46
ag45
ag46
asg47
(lp148
I01
aI01
aI01
aI00
aI01
aI01
aI01
aI01
aI01
aI01
aI01
asg49
I11
sg50
g53
sg54
(lp149
(g56
I0
g24
tp150
ag59
ag61
ag62
ag62
ag64
ag66
ag67
ag68
ag70
ag71
asg72
(lp151
g74
ag50
ag74
ag75
ag50
ag74
ag50
ag74
ag50
ag74
ag50
asg76
(lp152
g74
ag50
ag74
ag75
ag50
ag74
ag50
ag74
ag50
ag74
ag50
asg78
(lp153
g74
ag50
ag74
aNag50
ag74
ag50
ag74
ag50
ag74
ag50
asaa(lp154
I8
ag39
(g40
tp155
Rp156
g43
(lp157
g45
ag46
ag45
ag45
ag105
ag46
ag45
ag46
ag45
ag46
ag45
ag46
ag46
ag46
asg47
(lp158
I01
aI01
aI00
aI00
aI01
aI01
aI01
aI01
aI01
aI01
aI01
aI00
aI00
aI01
asg49
I14
sg50
g53
sg54
(lp159
(g56
I0
g24
tp160
ag59
ag61
ag61
a(g60
I0
g65
tp161
a(g60
I0
g52
tp162
ag64
ag66
ag67
ag68
ag70
ag71
ag71
ag71
asg72
(lp163
g74
ag50
ag74
ag75
ag75
ag50
ag74
ag50
ag74
ag50
ag74
ag50
ag50
ag50
asg76
(lp164
g74
ag50
ag88
ag75
ag75
ag50
ag74
ag50
ag74
ag50
ag74
ag88
ag74
ag50
asg78
(lp165
g74
ag50
aNag75
ag75
ag50
ag74
ag50
ag74
ag50
ag74
aNaNag50
asaa(lp166
I9
ag39
(g40
tp167
Rp168
g43
(lp169
g45
ag46
ag45
ag46
ag45
ag46
ag46
ag45
ag46
ag46
ag46
ag46
ag46
ag45
ag45
ag45
ag105
ag46
ag46
asg47
(lp170
I01
aI01
aI01
aI01
aI01
aI00
aI01
aI01
aI00
aI00
aI00
aI00
aI01
aI00
aI00
aI00
aI01
aI00
aI01
asg49
I19
sg50
g53
sg54
(lp171
(g56
I0
g24
tp172
ag59
ag61
ag62
ag64
ag66
ag66
ag67
ag68
ag68
ag68
ag68
ag68
ag70
ag70
ag70
a(g69
F1.5707963267948966
g65
tp173
a(g69
F1.5707963267948966
g52
tp174
ag174
asg72
(lp175
g74
ag50
ag74
ag50
ag74
ag50
ag88
ag74
ag50
ag50
ag50
ag74
ag50
ag74
ag74
ag75
ag75
ag50
ag50
asg76
(lp176
g74
ag50
ag74
ag50
ag74
ag75
ag50
ag74
ag75
ag75
ag75
ag74
ag50
ag88
ag88
ag75
ag75
ag75
ag50
asg78
(lp177
g74
ag50
ag74
ag50
ag74
aNag50
ag74
aNaNaNaNag50
aNaNag75
ag75
aNag50
asaatp178
Rp179
aatp180
Rp181
.