ccollections
OrderedDict
p0
((lp1
(lp2
S'combination_dict'
p3
ag0
((lp4
(lp5
S'r_to_g_config'
p6
aS'br'
p7
aa(lp8
S'num_turns'
p9
aI1
aa(lp10
S'start_direction'
p11
acutils_ms
StartDirection
p12
(I0
tp13
Rp14
aa(lp15
S'assistance_type'
p16
acutils_ms
AssistanceType
p17
(I2
tp18
Rp19
aa(lp20
S'start_mode'
p21
aS'y'
p22
aa(lp23
S'ui_given_a_noise'
p24
aF0.3
aa(lp25
S'um_given_ui_noise'
p26
aF0.5
aa(lp27
S'entropy_threshold'
p28
aF0.9
aatp29
Rp30
aa(lp31
S'data'
p32
accollections
defaultdict
p33
(c__builtin__
list
p34
tp35
Rp36
S'a'
p37
(lp38
S'mode_l'
p39
aS'move_p'
p40
ag40
ag40
ag39
ag40
ag39
ag39
aS'mode_r'
p41
ag40
ag40
ag39
aS'move_n'
p42
ag39
ag41
ag39
ag40
ag39
ag41
ag41
ag40
ag40
ag41
ag40
ag39
ag41
ag41
ag40
ag40
ag41
ag41
ag42
ag41
ag39
ag42
ag41
ag41
ag41
ag42
ag39
ag41
ag41
ag40
ag41
ag39
ag40
ag39
ag42
ag41
ag42
ag39
ag41
ag42
ag39
ag40
ag41
ag42
ag39
ag41
ag39
ag39
ag42
asS'assistance_match_with_ground_truth'
p43
(lp44
I01
aI00
aI00
aI00
aI01
aI01
aI00
aI00
aI01
aI00
aI01
aI01
aI00
aI00
aI00
aI01
aI00
aI00
aI00
aI01
aI00
aI00
aI01
aI00
aI00
aI00
aI01
aI00
aI01
aI00
aI01
aI00
aI00
aI01
aI00
aI00
aI00
aI01
aI00
aI00
aI00
aI01
aI01
aI00
aI00
aI01
aI01
aI00
aI01
aI00
aI00
aI01
aI00
aI01
aI01
aI01
aI00
aI00
aI00
aI00
aI01
aI01
asS'total_steps'
p45
I62
sS'sp'
p46
(lp47
(S'p0'
p48
I0
S'x'
p49
tp50
a(g48
I0
g49
tp51
ag51
a(g48
I0
S'y'
p52
tp53
ag50
a(S'p1'
p54
I0
g49
tp55
a(g54
I0
g49
tp56
a(g54
I0
g52
tp57
a(g54
I0
S't'
p58
tp59
a(g54
I0
g58
tp60
a(g54
F1.5707963267948966
g58
tp61
a(g54
F1.5707963267948966
g52
tp62
a(g48
F1.5707963267948966
g52
tp63
a(g48
F1.5707963267948966
g58
tp64
a(g48
F1.5707963267948966
g52
tp65
a(g48
F1.5707963267948966
g49
tp66
a(g48
F1.5707963267948966
g52
tp67
ag64
a(g48
F1.5707963267948966
g58
tp68
a(g48
F1.5707963267948966
g49
tp69
a(g48
F1.5707963267948966
g49
tp70
a(g48
F1.5707963267948966
g58
tp71
ag69
ag67
ag64
a(g48
F1.5707963267948966
g58
tp72
ag69
ag70
a(g54
F1.5707963267948966
g49
tp73
a(g54
F1.5707963267948966
g49
tp74
a(g54
F1.5707963267948966
g52
tp75
a(g54
F1.5707963267948966
g49
tp76
a(g54
F1.5707963267948966
g58
tp77
ag62
ag76
a(g54
F1.5707963267948966
g49
tp78
ag74
ag75
ag63
ag64
ag72
ag69
ag73
ag77
a(g54
I0
g58
tp79
ag61
ag62
ag76
ag75
a(g54
F1.5707963267948966
g58
tp80
a(g54
F1.5707963267948966
g49
tp81
ag75
ag63
ag66
ag73
ag75
ag80
ag81
ag77
a(g54
F1.5707963267948966
g58
tp82
ag62
a(S'p2'
p83
F1.5707963267948966
g52
tp84
asS's'
p85
(lp86
(g48
I0
g22
tp87
ag50
ag51
ag51
ag53
ag50
ag55
ag56
ag57
ag59
ag60
ag61
ag62
ag63
ag64
ag65
ag66
ag67
ag64
ag68
ag69
ag70
ag71
ag69
ag67
ag64
ag72
ag69
ag70
ag73
ag74
ag75
ag76
ag77
ag62
ag76
ag78
ag74
ag75
ag63
ag64
ag72
ag69
ag73
ag77
ag79
ag61
ag62
ag76
ag75
ag80
ag81
ag75
ag63
ag66
ag73
ag75
ag80
ag81
ag77
ag82
ag62
asS'ui'
p88
(lp89
S'hs'
p90
ag46
aS'ss'
p91
aS'hp'
p92
ag90
ag46
ag90
ag90
ag92
ag46
ag46
ag90
ag91
ag90
ag90
ag90
ag46
ag90
ag91
ag91
ag46
ag92
ag92
ag92
ag92
ag90
ag92
ag91
ag46
ag91
ag92
ag90
ag91
ag90
ag91
ag92
ag91
ag92
ag46
ag92
ag91
ag92
ag90
ag90
ag91
ag91
ag92
ag91
ag92
ag92
ag90
ag92
ag91
ag90
ag90
ag92
ag90
ag92
ag92
ag90
ag90
ag91
asS'um_before'
p93
(lp94
g90
ag91
ag91
ag92
ag90
ag46
ag46
ag92
ag92
ag91
ag46
ag90
ag46
ag92
ag90
ag90
ag92
ag92
ag46
ag92
ag91
ag90
ag92
ag92
ag92
ag91
ag92
ag91
ag46
ag91
ag92
ag90
ag90
ag90
ag90
ag46
ag91
ag92
ag46
ag92
ag91
ag92
ag46
ag90
ag91
ag46
ag90
ag90
ag92
ag92
ag92
ag92
ag46
ag90
ag46
ag92
ag92
ag92
ag90
ag46
ag90
ag91
asS'um_after'
p95
(lp96
g90
ag91
ag91
ag92
ag90
ag46
ag46
ag92
ag92
ag91
ag46
ag90
ag46
ag92
ag90
ag90
ag92
ag92
ag46
ag92
ag91
ag90
ag92
ag92
ag92
ag91
ag92
ag91
ag46
ag91
ag92
ag90
ag90
ag90
ag90
ag46
ag91
ag92
ag46
ag92
ag91
ag92
ag46
ag90
ag91
ag46
ag90
ag90
ag92
ag92
ag92
ag92
ag46
ag90
ag46
ag92
ag92
ag92
ag90
ag46
ag90
ag91
asaa(lp97
S'index'
p98
aI90742
aatp99
Rp100
.