ccollections
OrderedDict
p0
((lp1
(lp2
S'index'
p3
aI3333
aa(lp4
S'combination_dict'
p5
ag0
((lp6
(lp7
S'r_to_g_config'
p8
aS'tr'
p9
aa(lp10
S'num_turns'
p11
aI3
aa(lp12
S'start_direction'
p13
acutils_ms
StartDirection
p14
(I1
tp15
Rp16
aa(lp17
S'assistance_type'
p18
acutils_ms
AssistanceType
p19
(I0
tp20
Rp21
aa(lp22
S'start_mode'
p23
aS'x'
p24
aa(lp25
S'ui_given_a_noise'
p26
aF0.7
aa(lp27
S'um_given_ui_noise'
p28
aF0.3
aa(lp29
S'entropy_threshold'
p30
aF0.6
aa(lp31
S'is_assistance'
p32
aI00
aatp33
Rp34
aa(lp35
S'trials'
p36
ag0
((lp37
(lp38
I0
accollections
defaultdict
p39
(c__builtin__
list
p40
tp41
Rp42
S'a'
p43
(lp44
S'mode_r'
p45
ag45
aS'mode_l'
p46
aS'move_p'
p47
ag45
ag46
ag45
ag47
ag47
ag46
ag47
ag45
ag45
ag47
ag46
ag45
ag46
ag45
ag45
ag46
ag46
ag47
ag46
ag47
ag46
ag45
ag45
ag45
ag46
ag47
ag46
ag45
ag46
ag45
ag47
ag46
ag46
ag46
ag47
ag46
ag47
ag46
ag47
ag45
ag46
ag47
ag45
ag47
ag46
ag47
ag45
ag47
asS'assistance_match_with_ground_truth'
p48
(lp49
I00
aI00
aI01
aI00
aI00
aI00
aI01
aI00
aI01
aI01
aI00
aI00
aI01
aI00
aI00
aI00
aI00
aI00
aI00
aI00
aI01
aI00
aI01
aI00
aI00
aI00
aI00
aI00
aI01
aI01
aI00
aI00
aI00
aI01
aI00
aI00
aI00
aI01
aI01
aI01
aI01
aI01
aI00
aI00
aI01
aI00
aI01
aI01
aI01
aI00
aI01
aI01
asS'total_steps'
p50
I52
sS'sp'
p51
(S'p4'
p52
F1.5707963267948966
S'x'
p53
tp54
sS's'
p55
(lp56
(S'p0'
p57
I0
g24
tp58
a(g57
I0
g53
tp59
a(g57
I0
S't'
p60
tp61
a(g57
I0
S'y'
p62
tp63
a(g57
I0
g53
tp64
ag61
a(g57
I0
g53
tp65
a(g57
I0
g62
tp66
a(g57
I0
g62
tp67
a(S'p1'
p68
I0
g62
tp69
a(g68
I0
g53
tp70
a(g68
I0
g60
tp71
a(g68
I0
g60
tp72
a(g68
I0
g53
tp73
a(g68
I0
g62
tp74
a(g68
I0
g60
tp75
a(g68
I0
g62
tp76
ag75
ag72
ag76
a(g68
I0
g62
tp77
ag70
ag74
ag70
ag74
ag75
ag72
ag72
ag76
ag70
a(S'p2'
p78
I0
g53
tp79
a(g78
I0
g62
tp80
a(S'p3'
p81
I0
g62
tp82
a(g81
I0
g60
tp83
a(g81
I0
g53
tp84
a(g78
I0
g53
tp85
a(g78
I0
g53
tp86
ag86
a(g78
I0
g60
tp87
a(g78
F1.5707963267948966
g60
tp88
a(g78
F1.5707963267948966
g62
tp89
a(g81
F1.5707963267948966
g62
tp90
a(g81
F1.5707963267948966
g53
tp91
a(g81
F1.5707963267948966
g60
tp92
a(g81
F1.5707963267948966
g62
tp93
ag91
a(g78
F1.5707963267948966
g53
tp94
a(g78
F1.5707963267948966
g62
tp95
ag90
ag91
ag92
a(g81
F1.5707963267948966
g53
tp96
asS'ui'
p97
(lp98
g51
aS'hs'
p99
aS'ss'
p100
ag99
ag51
ag100
aS'hp'
p101
ag101
ag51
ag99
ag99
ag101
ag101
ag101
ag99
ag99
ag101
ag100
ag51
ag99
ag99
ag101
ag99
ag99
ag101
ag51
ag51
ag99
ag99
ag51
ag101
ag101
ag101
ag101
ag101
ag101
ag100
ag100
ag51
ag99
ag51
ag99
ag99
ag99
ag99
ag51
ag101
ag51
ag99
ag99
ag101
ag51
asS'um_before'
p102
(lp103
g51
ag99
ag99
ag99
ag99
ag101
ag101
ag100
ag51
ag99
ag99
ag51
ag101
ag101
ag101
ag99
ag101
ag51
ag99
ag100
ag99
ag101
ag99
ag101
ag101
ag51
ag51
ag99
ag99
ag51
ag101
ag51
ag101
ag101
ag100
ag100
ag100
ag99
ag51
ag99
ag51
ag99
ag99
ag99
ag99
ag100
ag101
ag51
ag99
ag99
ag101
ag51
asS'um_after'
p104
(lp105
g51
ag99
ag99
ag99
ag99
ag101
ag101
ag100
ag51
ag99
ag99
ag51
ag101
ag101
ag101
ag99
ag101
ag51
ag99
ag100
ag99
ag101
ag99
ag101
ag101
ag51
ag51
ag99
ag99
ag51
ag101
ag51
ag101
ag101
ag100
ag100
ag100
ag99
ag51
ag99
ag51
ag99
ag99
ag99
ag99
ag100
ag101
ag51
ag99
ag99
ag101
ag51
asaa(lp106
I1
ag39
(g40
tp107
Rp108
g43
(lp109
g45
ag45
ag46
ag46
ag45
ag47
ag47
ag46
ag45
ag45
ag45
ag47
ag46
ag46
ag47
ag45
ag45
ag45
ag47
ag46
ag46
ag47
ag45
ag45
ag46
ag47
ag46
ag47
ag46
ag45
ag47
ag45
ag47
ag45
ag45
ag47
ag46
ag45
ag47
ag46
ag46
ag47
ag46
ag46
ag45
ag45
ag45
ag45
ag45
ag46
ag47
ag45
ag45
ag45
ag47
asg48
(lp110
I00
aI00
aI00
aI00
aI01
aI00
aI00
aI00
aI00
aI00
aI01
aI01
aI00
aI01
aI00
aI00
aI00
aI01
aI00
aI00
aI01
aI00
aI00
aI00
aI01
aI00
aI01
aI01
aI00
aI01
aI00
aI01
aI00
aI00
aI01
aI01
aI00
aI01
aI01
aI00
aI01
aI01
aI00
aI00
aI00
aI00
aI00
aI00
aI00
aI01
aI00
aI00
aI00
aI01
aI01
asg50
I55
sg51
g54
sg55
(lp111
(g57
I0
g24
tp112
a(g57
I0
g53
tp113
ag61
a(g57
I0
g60
tp114
ag65
ag66
ag67
a(g57
I0
g60
tp115
ag65
ag113
ag59
ag66
ag69
ag77
ag70
a(g57
I0
g53
tp116
ag59
ag59
ag66
ag115
ag114
ag63
ag64
ag59
ag61
ag63
ag115
ag63
ag69
ag75
ag73
ag71
ag73
ag71
ag72
ag73
ag79
ag80
a(g78
I0
g60
tp117
ag88
a(g78
F1.5707963267948966
g60
tp118
ag89
ag90
a(g81
F1.5707963267948966
g62
tp119
a(g81
F1.5707963267948966
g60
tp120
a(g81
F1.5707963267948966
g60
tp121
ag121
ag121
a(g81
F1.5707963267948966
g60
tp122
ag93
ag91
ag92
ag121
ag122
ag96
asg97
(lp123
g100
ag51
ag101
ag101
ag99
ag51
ag101
ag101
ag100
ag51
ag101
ag100
ag101
ag99
ag101
ag51
ag51
ag101
ag101
ag100
ag100
ag51
ag51
ag99
ag99
ag101
ag99
ag51
ag99
ag101
ag51
ag101
ag51
ag100
ag100
ag51
ag101
ag101
ag51
ag99
ag99
ag51
ag100
ag100
ag51
ag51
ag51
ag51
ag99
ag99
ag99
ag51
ag101
ag101
ag51
asg102
(lp124
g100
ag99
ag100
ag101
ag101
ag100
ag101
ag101
ag100
ag51
ag101
ag51
ag100
ag99
ag100
ag51
ag51
ag101
ag101
ag100
ag99
ag99
ag51
ag99
ag99
ag101
ag99
ag51
ag101
ag101
ag99
ag101
ag99
ag51
ag101
ag51
ag101
ag101
ag51
ag51
ag99
ag51
ag100
ag101
ag51
ag51
ag51
ag100
ag99
ag99
ag99
ag51
ag100
ag101
ag51
asg104
(lp125
g100
ag99
ag100
ag101
ag101
ag100
ag101
ag101
ag100
ag51
ag101
ag51
ag100
ag99
ag100
ag51
ag51
ag101
ag101
ag100
ag99
ag99
ag51
ag99
ag99
ag101
ag99
ag51
ag101
ag101
ag99
ag101
ag99
ag51
ag101
ag51
ag101
ag101
ag51
ag51
ag99
ag51
ag100
ag101
ag51
ag51
ag51
ag100
ag99
ag99
ag99
ag51
ag100
ag101
ag51
asaa(lp126
I2
ag39
(g40
tp127
Rp128
g43
(lp129
g45
ag45
ag47
ag47
ag46
ag47
ag46
ag47
ag46
ag47
ag46
ag45
ag45
ag46
ag47
ag45
ag46
ag47
ag45
ag47
ag46
ag45
ag45
ag47
ag45
ag45
ag45
ag46
ag47
ag45
ag45
ag47
ag45
ag46
ag46
ag47
ag46
ag45
ag47
ag46
ag47
ag46
ag46
ag45
ag46
ag45
ag45
ag45
ag47
ag46
ag47
ag46
ag45
ag45
ag46
ag45
ag47
ag46
ag47
ag46
ag45
ag46
ag45
ag45
ag47
asg48
(lp130
I00
aI01
aI00
aI01
aI01
aI00
aI01
aI01
aI01
aI01
aI00
aI00
aI00
aI00
aI00
aI00
aI01
aI00
aI01
aI01
aI00
aI00
aI01
aI00
aI00
aI00
aI00
aI01
aI00
aI00
aI01
aI00
aI00
aI00
aI01
aI01
aI00
aI01
aI00
aI01
aI00
aI00
aI00
aI00
aI00
aI00
aI00
aI01
aI00
aI01
aI00
aI00
aI00
aI00
aI00
aI01
aI01
aI01
aI00
aI00
aI00
aI00
aI00
aI01
aI01
asg50
I65
sg51
(g52
I0
g53
tp131
sg55
(lp132
(g57
I0
g24
tp133
ag113
ag66
ag67
ag69
ag70
ag74
ag70
ag79
ag87
ag88
a(g78
F1.5707963267948966
g53
tp134
a(g78
F1.5707963267948966
g53
tp135
a(g78
F1.5707963267948966
g60
tp136
a(g78
I0
g60
tp137
a(g78
I0
g62
tp138
a(g68
I0
g62
tp139
ag70
ag116
ag66
ag69
ag75
ag72
ag73
ag116
ag113
ag113
ag61
ag63
ag64
ag59
ag66
ag64
ag61
ag114
ag63
ag69
ag75
ag73
ag74
ag70
ag74
ag77
ag75
ag76
ag75
ag72
ag72
ag73
ag74
ag70
ag74
ag75
a(g68
I0
g60
tp140
ag76
ag75
ag73
ag79
ag87
a(g78
I0
g53
tp141
ag80
ag82
ag83
a(g81
I0
g60
tp142
ag84
asg97
(lp143
g100
ag101
ag101
ag100
ag99
ag51
ag99
ag51
ag99
ag51
ag101
ag100
ag99
ag100
ag51
ag101
ag99
ag51
ag101
ag51
ag101
ag51
ag101
ag101
ag100
ag100
ag99
ag99
ag99
ag51
ag101
ag99
ag99
ag100
ag99
ag51
ag99
ag100
ag101
ag99
ag101
ag100
ag101
ag101
ag100
ag51
ag51
ag101
ag99
ag99
ag101
ag101
ag100
ag51
ag101
ag101
ag51
ag99
ag101
ag101
ag51
ag99
ag101
ag101
ag51
asg102
(lp144
g100
ag101
ag100
ag51
ag99
ag101
ag99
ag51
ag99
ag51
ag101
ag100
ag99
ag100
ag99
ag100
ag99
ag100
ag101
ag51
ag101
ag51
ag101
ag100
ag100
ag100
ag99
ag99
ag99
ag51
ag101
ag99
ag99
ag100
ag99
ag51
ag101
ag101
ag101
ag99
ag101
ag100
ag101
ag99
ag101
ag51
ag51
ag101
ag101
ag99
ag101
ag101
ag100
ag99
ag101
ag101
ag51
ag99
ag101
ag101
ag51
ag101
ag51
ag101
ag51
asg104
(lp145
g100
ag101
ag100
ag51
ag99
ag101
ag99
ag51
ag99
ag51
ag101
ag100
ag99
ag100
ag99
ag100
ag99
ag100
ag101
ag51
ag101
ag51
ag101
ag100
ag100
ag100
ag99
ag99
ag99
ag51
ag101
ag99
ag99
ag100
ag99
ag51
ag101
ag101
ag101
ag99
ag101
ag100
ag101
ag99
ag101
ag51
ag51
ag101
ag101
ag99
ag101
ag101
ag100
ag99
ag101
ag101
ag51
ag99
ag101
ag101
ag51
ag101
ag51
ag101
ag51
asaa(lp146
I3
ag39
(g40
tp147
Rp148
g43
(lp149
g45
ag45
ag46
ag45
ag47
ag46
ag45
ag47
ag46
ag46
ag47
ag46
ag45
ag46
ag47
ag45
ag45
ag47
ag46
ag47
ag46
ag45
ag45
ag45
ag46
ag47
asg48
(lp150
I00
aI00
aI00
aI01
aI01
aI00
aI01
aI01
aI00
aI01
aI00
aI00
aI00
aI01
aI00
aI00
aI01
aI00
aI01
aI00
aI00
aI00
aI00
aI00
aI01
aI01
asg50
I26
sg51
g131
sg55
(lp151
(g57
I0
g24
tp152
ag113
ag61
ag65
ag66
ag69
ag75
ag73
ag79
ag86
ag87
ag141
ag80
ag82
a(g81
I0
g53
tp153
a(g81
I0
g60
tp154
a(g81
I0
g60
tp155
ag84
a(g81
I0
g62
tp156
ag153
ag156
ag83
ag142
ag155
a(g81
I0
g62
tp157
ag153
asg97
(lp158
g100
ag99
ag101
ag101
ag51
ag101
ag101
ag51
ag99
ag99
ag101
ag101
ag51
ag99
ag99
ag99
ag101
ag101
ag99
ag101
ag101
ag51
ag100
ag99
ag99
ag51
asg102
(lp159
g100
ag99
ag101
ag101
ag51
ag101
ag101
ag51
ag100
ag99
ag101
ag101
ag51
ag99
ag99
ag100
ag101
ag101
ag99
ag101
ag101
ag51
ag100
ag99
ag99
ag51
asg104
(lp160
g100
ag99
ag101
ag101
ag51
ag101
ag101
ag51
ag100
ag99
ag101
ag101
ag51
ag99
ag99
ag100
ag101
ag101
ag99
ag101
ag101
ag51
ag100
ag99
ag99
ag51
asaa(lp161
I4
ag39
(g40
tp162
Rp163
g43
(lp164
g45
ag46
ag46
ag47
ag46
ag45
ag46
ag46
ag47
ag45
ag47
ag45
ag47
ag46
ag45
ag45
ag47
ag45
ag47
ag46
ag47
ag46
ag45
ag47
ag47
ag46
ag47
ag46
ag46
ag45
ag47
ag45
ag45
ag45
ag45
ag45
ag45
ag45
ag45
ag45
ag46
ag47
ag46
ag47
ag45
ag47
ag45
ag45
ag45
ag45
ag46
ag47
asg48
(lp165
I00
aI00
aI01
aI01
aI00
aI00
aI00
aI01
aI00
aI01
aI00
aI01
aI00
aI00
aI00
aI01
aI00
aI01
aI01
aI01
aI01
aI00
aI01
aI00
aI01
aI01
aI00
aI00
aI00
aI01
aI01
aI00
aI00
aI00
aI00
aI00
aI00
aI00
aI00
aI00
aI01
aI01
aI01
aI00
aI01
aI00
aI00
aI00
aI00
aI00
aI01
aI01
asg50
I52
sg51
g54
sg55
(lp166
(g57
I0
g24
tp167
ag61
a(g57
I0
g60
tp168
ag63
ag69
ag75
ag76
ag77
ag70
ag71
ag73
ag116
ag66
ag115
ag65
ag59
ag66
ag64
ag66
ag69
ag70
ag79
ag80
ag117
a(g78
I0
g60
tp169
ag88
ag89
a(g68
F1.5707963267948966
g62
tp170
a(g68
F1.5707963267948966
g62
tp171
a(g68
F1.5707963267948966
g60
tp172
a(g68
F1.5707963267948966
g53
tp173
a(g78
F1.5707963267948966
g53
tp174
ag135
ag135
a(g78
F1.5707963267948966
g53
tp175
ag135
ag175
ag135
ag135
ag135
ag136
ag89
ag90
ag91
ag92
ag96
ag92
ag121
ag122
ag122
ag93
ag91
asg97
(lp176
g99
ag99
ag99
ag51
ag101
ag51
ag101
ag99
ag99
ag101
ag99
ag101
ag101
ag101
ag101
ag51
ag99
ag101
ag51
ag99
ag51
ag101
ag101
ag51
ag51
ag99
ag101
ag100
ag101
ag101
ag51
ag101
ag51
ag100
ag101
ag51
ag99
ag100
ag100
ag99
ag99
ag51
ag99
ag99
ag101
ag101
ag51
ag101
ag100
ag100
ag99
ag51
asg102
(lp177
g99
ag51
ag99
ag51
ag101
ag99
ag100
ag99
ag99
ag101
ag100
ag101
ag101
ag101
ag51
ag101
ag99
ag101
ag51
ag99
ag51
ag101
ag101
ag100
ag51
ag99
ag100
ag100
ag101
ag101
ag51
ag100
ag100
ag51
ag100
ag51
ag100
ag100
ag100
ag99
ag99
ag51
ag99
ag99
ag101
ag99
ag51
ag100
ag100
ag99
ag99
ag51
asg104
(lp178
g99
ag51
ag99
ag51
ag101
ag99
ag100
ag99
ag99
ag101
ag100
ag101
ag101
ag101
ag51
ag101
ag99
ag101
ag51
ag99
ag51
ag101
ag101
ag100
ag51
ag99
ag100
ag100
ag101
ag101
ag51
ag100
ag100
ag51
ag100
ag51
ag100
ag100
ag100
ag99
ag99
ag51
ag99
ag99
ag101
ag99
ag51
ag100
ag100
ag99
ag99
ag51
asaa(lp179
I5
ag39
(g40
tp180
Rp181
g43
(lp182
g45
ag45
ag46
ag45
ag47
ag45
ag45
ag47
ag46
ag46
ag45
ag46
ag46
ag45
ag45
ag45
ag46
ag47
ag47
ag46
ag47
ag45
ag45
ag46
ag45
ag47
ag45
ag45
ag45
ag46
ag46
ag47
ag46
ag45
ag46
ag45
ag45
ag45
ag45
ag45
ag47
ag46
ag46
ag47
ag46
ag46
ag46
ag47
ag46
ag47
ag46
ag47
ag47
ag45
ag46
ag47
asg48
(lp183
I00
aI00
aI00
aI01
aI00
aI00
aI01
aI00
aI00
aI00
aI00
aI00
aI00
aI00
aI00
aI00
aI01
aI00
aI01
aI01
aI00
aI00
aI00
aI00
aI01
aI00
aI00
aI00
aI00
aI00
aI01
aI01
aI00
aI00
aI00
aI00
aI00
aI00
aI00
aI01
aI01
aI00
aI01
aI00
aI00
aI00
aI01
aI00
aI01
aI00
aI01
aI00
aI00
aI00
aI01
aI01
asg50
I56
sg51
g131
sg55
(lp184
(g57
I0
g24
tp185
ag113
ag61
ag65
ag66
ag64
ag59
ag66
ag115
ag114
ag65
ag61
ag114
ag65
ag113
ag59
ag61
ag63
ag67
ag69
ag70
ag71
ag72
ag76
ag75
ag73
ag71
ag140
ag140
ag76
ag77
ag70
ag79
ag80
ag139
ag75
ag140
ag72
ag72
ag140
ag73
ag79
ag86
ag87
ag141
ag86
ag86
ag87
ag141
ag87
ag141
ag87
ag169
ag138
ag82
ag153
asg97
(lp186
g99
ag99
ag101
ag101
ag51
ag51
ag101
ag101
ag101
ag101
ag51
ag99
ag101
ag99
ag51
ag99
ag99
ag99
ag51
ag99
ag99
ag51
ag51
ag99
ag51
ag99
ag100
ag100
ag99
ag99
ag99
ag51
ag101
ag101
ag101
ag101
ag51
ag51
ag99
ag101
ag51
ag100
ag99
ag101
ag101
ag100
ag99
ag101
ag99
ag101
ag99
ag51
ag99
ag51
ag99
ag51
asg102
(lp187
g100
ag99
ag101
ag101
ag99
ag51
ag101
ag101
ag100
ag101
ag99
ag100
ag101
ag100
ag51
ag99
ag99
ag100
ag51
ag99
ag99
ag51
ag99
ag101
ag101
ag99
ag100
ag100
ag99
ag100
ag99
ag51
ag101
ag100
ag101
ag100
ag51
ag51
ag100
ag101
ag51
ag100
ag99
ag101
ag100
ag100
ag99
ag101
ag99
ag101
ag99
ag100
ag99
ag51
ag99
ag51
asg104
(lp188
g100
ag99
ag101
ag101
ag99
ag51
ag101
ag101
ag100
ag101
ag99
ag100
ag101
ag100
ag51
ag99
ag99
ag100
ag51
ag99
ag99
ag51
ag99
ag101
ag101
ag99
ag100
ag100
ag99
ag100
ag99
ag51
ag101
ag100
ag101
ag100
ag51
ag51
ag100
ag101
ag51
ag100
ag99
ag101
ag100
ag100
ag99
ag101
ag99
ag101
ag99
ag100
ag99
ag51
ag99
ag51
asaa(lp189
I6
ag39
(g40
tp190
Rp191
g43
(lp192
g45
ag45
ag45
ag46
ag46
ag47
ag45
ag45
ag47
ag46
ag47
ag46
ag45
ag45
ag45
ag45
ag47
ag45
ag47
ag46
ag47
ag46
ag47
ag45
ag46
ag45
ag45
ag46
ag47
ag46
ag46
ag45
ag46
ag45
ag45
ag47
asg48
(lp193
I00
aI00
aI00
aI00
aI01
aI00
aI00
aI01
aI00
aI01
aI01
aI00
aI00
aI00
aI00
aI01
aI00
aI01
aI01
aI01
aI00
aI01
aI00
aI00
aI00
aI00
aI00
aI01
aI00
aI00
aI00
aI00
aI00
aI00
aI01
aI01
asg50
I36
sg51
g131
sg55
(lp194
(g57
I0
g24
tp195
ag113
ag59
ag61
ag114
ag63
ag64
ag113
ag66
ag115
ag63
ag69
ag75
ag72
ag140
ag140
ag73
ag71
ag73
ag79
ag87
ag141
ag87
ag138
ag82
ag83
ag142
ag157
ag153
ag156
a(g81
I0
g62
tp196
ag83
ag157
ag83
ag142
ag84
asg97
(lp197
g100
ag51
ag99
ag101
ag100
ag51
ag100
ag101
ag101
ag99
ag51
ag100
ag51
ag99
ag100
ag100
ag99
ag101
ag51
ag99
ag101
ag99
ag99
ag51
ag101
ag101
ag100
ag99
ag101
ag99
ag100
ag99
ag101
ag51
ag101
ag51
asg102
(lp198
g100
ag51
ag99
ag100
ag99
ag99
ag100
ag101
ag101
ag99
ag51
ag101
ag51
ag100
ag100
ag101
ag99
ag101
ag51
ag99
ag101
ag99
ag99
ag51
ag101
ag51
ag99
ag99
ag101
ag100
ag101
ag99
ag101
ag51
ag101
ag51
asg104
(lp199
g100
ag51
ag99
ag100
ag99
ag99
ag100
ag101
ag101
ag99
ag51
ag101
ag51
ag100
ag100
ag101
ag99
ag101
ag51
ag99
ag101
ag99
ag99
ag51
ag101
ag51
ag99
ag99
ag101
ag100
ag101
ag99
ag101
ag51
ag101
ag51
asaa(lp200
I7
ag39
(g40
tp201
Rp202
g43
(lp203
g45
ag45
ag45
ag45
ag47
ag45
ag45
ag47
ag46
ag46
ag45
ag45
ag47
ag45
ag45
ag47
ag46
ag45
ag45
ag47
ag46
ag46
ag45
ag45
ag45
ag46
ag46
ag47
ag46
ag45
ag47
ag46
ag46
ag46
ag47
ag47
ag46
ag47
ag46
ag47
ag46
ag47
ag46
ag46
ag45
ag46
ag45
ag47
ag46
ag45
ag45
ag46
ag47
ag46
ag47
ag46
ag47
ag45
ag45
ag46
ag47
asg48
(lp204
I00
aI00
aI00
aI01
aI00
aI00
aI01
aI01
aI00
aI00
aI00
aI01
aI00
aI00
aI01
aI00
aI00
aI00
aI01
aI00
aI00
aI00
aI00
aI00
aI00
aI00
aI01
aI00
aI00
aI01
aI01
aI00
aI00
aI01
aI00
aI01
aI00
aI01
aI01
aI01
aI01
aI00
aI00
aI00
aI00
aI00
aI01
aI00
aI00
aI00
aI00
aI01
aI00
aI01
aI00
aI01
aI00
aI00
aI00
aI01
aI01
asg50
I61
sg51
g54
sg55
(lp205
(g57
I0
g24
tp206
ag113
ag59
ag113
ag66
ag64
ag113
ag66
ag69
ag77
ag75
ag72
ag73
ag71
ag140
ag73
ag74
ag75
ag140
ag73
ag74
ag77
ag75
ag72
ag140
ag76
a(g68
I0
g62
tp207
ag70
ag74
ag75
ag73
ag79
ag86
ag86
ag87
ag169
ag88
ag137
ag88
ag89
ag90
ag91
a(g81
F1.5707963267948966
g62
tp208
ag119
ag120
ag93
ag120
ag96
ag208
ag120
ag121
ag93
ag91
ag208
ag91
ag208
ag91
ag92
ag122
ag93
ag91
asg97
(lp209
g100
ag101
ag101
ag101
ag99
ag101
ag101
ag51
ag99
ag101
ag51
ag99
ag99
ag101
ag101
ag101
ag99
ag100
ag101
ag101
ag99
ag101
ag101
ag51
ag99
ag100
ag99
ag101
ag99
ag99
ag51
ag100
ag101
ag99
ag51
ag51
ag100
ag51
ag99
ag51
ag99
ag101
ag100
ag99
ag51
ag101
ag101
ag99
ag101
ag100
ag99
ag99
ag101
ag99
ag51
ag99
ag99
ag100
ag51
ag99
ag101
asg102
(lp210
g100
ag51
ag100
ag101
ag99
ag100
ag101
ag51
ag100
ag101
ag51
ag101
ag99
ag100
ag101
ag101
ag101
ag100
ag101
ag101
ag100
ag101
ag51
ag100
ag99
ag51
ag99
ag101
ag101
ag101
ag51
ag100
ag100
ag99
ag100
ag51
ag100
ag51
ag99
ag51
ag99
ag101
ag100
ag101
ag99
ag101
ag101
ag101
ag101
ag51
ag99
ag99
ag101
ag99
ag101
ag99
ag99
ag100
ag99
ag99
ag51
asg104
(lp211
g100
ag51
ag100
ag101
ag99
ag100
ag101
ag51
ag100
ag101
ag51
ag101
ag99
ag100
ag101
ag101
ag101
ag100
ag101
ag101
ag100
ag101
ag51
ag100
ag99
ag51
ag99
ag101
ag101
ag101
ag51
ag100
ag100
ag99
ag100
ag51
ag100
ag51
ag99
ag51
ag99
ag101
ag100
ag101
ag99
ag101
ag101
ag101
ag101
ag51
ag99
ag99
ag101
ag99
ag101
ag99
ag99
ag100
ag99
ag99
ag51
asaa(lp212
I8
ag39
(g40
tp213
Rp214
g43
(lp215
g45
ag46
ag47
ag46
ag47
ag46
ag46
ag46
ag47
ag46
ag47
ag46
ag47
ag46
ag47
ag46
ag47
ag46
ag47
asg48
(lp216
I00
aI01
aI01
aI01
aI00
aI00
aI00
aI01
aI01
aI01
aI00
aI01
aI01
aI00
aI01
aI01
aI01
aI01
aI01
asg50
I19
sg51
g54
sg55
(lp217
(g57
I0
g24
tp218
ag61
ag63
ag69
ag70
ag74
ag77
ag207
ag70
ag79
ag87
ag141
ag87
ag88
ag137
ag88
ag89
ag90
ag91
asg97
(lp219
g99
ag99
ag51
ag99
ag101
ag99
ag101
ag99
ag51
ag100
ag51
ag99
ag51
ag101
ag51
ag99
ag99
ag99
ag51
asg102
(lp220
g99
ag99
ag51
ag99
ag101
ag100
ag51
ag99
ag51
ag99
ag101
ag99
ag51
ag100
ag51
ag99
ag51
ag99
ag51
asg104
(lp221
g99
ag99
ag51
ag99
ag101
ag100
ag51
ag99
ag51
ag99
ag101
ag99
ag51
ag100
ag51
ag99
ag51
ag99
ag51
asaa(lp222
I9
ag39
(g40
tp223
Rp224
g43
(lp225
g45
ag45
ag47
ag46
ag45
ag45
ag47
ag46
ag47
ag46
ag46
ag45
ag47
ag46
ag47
ag45
ag46
ag46
ag47
ag46
ag47
ag45
ag45
ag47
ag45
ag47
ag46
ag47
ag46
ag47
ag45
ag47
ag45
ag46
ag47
ag46
ag47
ag45
ag46
ag47
ag46
ag47
ag46
ag45
ag47
asg48
(lp226
I00
aI01
aI00
aI00
aI00
aI01
aI01
aI01
aI01
aI00
aI00
aI01
aI01
aI00
aI00
aI00
aI00
aI01
aI01
aI01
aI00
aI00
aI01
aI00
aI01
aI00
aI01
aI01
aI01
aI00
aI01
aI00
aI00
aI00
aI01
aI01
aI00
aI00
aI01
aI00
aI01
aI01
aI00
aI01
aI01
asg50
I45
sg51
g54
sg55
(lp227
(g57
I0
g24
tp228
ag59
ag66
ag115
ag65
ag59
ag66
ag69
ag70
ag79
ag86
ag80
ag117
ag88
ag137
ag138
a(g78
I0
g53
tp229
a(g78
I0
g53
tp230
ag87
ag88
ag89
a(g78
F1.5707963267948966
g53
tp231
ag175
ag95
ag231
ag95
a(g78
F1.5707963267948966
g60
tp232
ag89
ag90
ag91
ag92
ag96
ag94
ag136
ag137
ag88
ag89
ag231
ag136
ag89
ag232
ag89
ag90
ag120
ag96
asg97
(lp233
g100
ag101
ag101
ag101
ag51
ag51
ag51
ag99
ag51
ag99
ag101
ag101
ag51
ag100
ag51
ag99
ag101
ag99
ag51
ag99
ag99
ag51
ag101
ag99
ag99
ag101
ag99
ag51
ag99
ag99
ag101
ag101
ag51
ag100
ag51
ag99
ag99
ag99
ag99
ag51
ag99
ag51
ag101
ag101
ag51
asg102
(lp234
g51
ag101
ag101
ag101
ag51
ag101
ag51
ag99
ag51
ag100
ag101
ag101
ag51
ag100
ag99
ag99
ag51
ag99
ag51
ag99
ag99
ag51
ag101
ag99
ag101
ag101
ag99
ag51
ag99
ag99
ag101
ag100
ag99
ag100
ag51
ag99
ag99
ag99
ag99
ag101
ag99
ag51
ag101
ag101
ag51
asg104
(lp235
g51
ag101
ag101
ag101
ag51
ag101
ag51
ag99
ag51
ag100
ag101
ag101
ag51
ag100
ag99
ag99
ag51
ag99
ag51
ag99
ag99
ag51
ag101
ag99
ag101
ag101
ag99
ag51
ag99
ag99
ag101
ag100
ag99
ag100
ag51
ag99
ag99
ag99
ag99
ag101
ag99
ag51
ag101
ag101
ag51
asaatp236
Rp237
aatp238
Rp239
.