ccollections
OrderedDict
p0
((lp1
(lp2
S'combination_dict'
p3
ag0
((lp4
(lp5
S'r_to_g_config'
p6
aS'bl'
p7
aa(lp8
S'num_turns'
p9
aI1
aa(lp10
S'start_direction'
p11
acutils_ms
StartDirection
p12
(I0
tp13
Rp14
aa(lp15
S'assistance_type'
p16
acutils_ms
AssistanceType
p17
(I0
tp18
Rp19
aa(lp20
S'start_mode'
p21
aS'y'
p22
aa(lp23
S'ui_given_a_noise'
p24
aF0.3
aa(lp25
S'um_given_ui_noise'
p26
aF0.5
aa(lp27
S'entropy_threshold'
p28
aF0.5
aatp29
Rp30
aa(lp31
S'data'
p32
accollections
defaultdict
p33
(c__builtin__
list
p34
tp35
Rp36
S'a'
p37
(lp38
S'mode_l'
p39
aS'move_n'
p40
ag39
ag39
aS'move_p'
p41
ag39
aS'mode_r'
p42
ag39
ag41
ag41
ag39
ag42
ag40
asS'assistance_match_with_ground_truth'
p43
(lp44
I01
aI01
aI00
aI01
aI01
aI00
aI00
aI00
aI00
aI01
aI00
aI01
aI01
asS'total_steps'
p45
I13
sS'sp'
p46
(lp47
(S'p0'
p48
I0
S'x'
p49
tp50
a(S'p1'
p51
I0
g49
tp52
a(g51
I0
g49
tp53
a(g51
I0
S't'
p54
tp55
a(g51
F1.5707963267948966
g54
tp56
a(g51
F1.5707963267948966
g49
tp57
a(g51
F1.5707963267948966
g54
tp58
a(g51
I0
g54
tp59
a(g51
I0
g54
tp60
ag56
ag57
a(g51
F1.5707963267948966
S'y'
p61
tp62
a(S'p2'
p63
F1.5707963267948966
g61
tp64
asS's'
p65
(lp66
(g48
I0
g22
tp67
ag50
ag52
ag53
ag55
ag56
ag57
ag58
ag59
ag60
ag56
ag57
ag62
asS'ui'
p68
(lp69
S'hs'
p70
aS'ss'
p71
ag70
ag70
ag46
aS'hp'
p72
ag70
ag70
ag71
ag46
ag46
ag72
ag71
asS'um_before'
p73
(lp74
g70
ag71
ag46
ag70
ag46
ag72
ag70
ag71
ag71
ag46
ag72
ag72
ag71
asS'um_after'
p75
(lp76
g70
ag71
ag46
ag70
ag46
ag72
ag70
ag71
ag71
ag46
ag72
ag72
ag71
asaa(lp77
S'index'
p78
aI58703
aatp79
Rp80
.