ccollections
OrderedDict
p0
((lp1
(lp2
S'index'
p3
aI11196
aa(lp4
S'combination_dict'
p5
ag0
((lp6
(lp7
S'r_to_g_config'
p8
aS'bl'
p9
aa(lp10
S'num_turns'
p11
aI3
aa(lp12
S'start_direction'
p13
acutils_ms
StartDirection
p14
(I1
tp15
Rp16
aa(lp17
S'assistance_type'
p18
acutils_ms
AssistanceType
p19
(I0
tp20
Rp21
aa(lp22
S'start_mode'
p23
aS't'
p24
aa(lp25
S'ui_given_a_noise'
p26
aF0.7
aa(lp27
S'um_given_ui_noise'
p28
aF0.7
aa(lp29
S'entropy_threshold'
p30
aF0.8
aa(lp31
S'is_assistance'
p32
aI01
aatp33
Rp34
aa(lp35
S'trials'
p36
ag0
((lp37
(lp38
I0
accollections
defaultdict
p39
(c__builtin__
list
p40
tp41
Rp42
S'a'
p43
(lp44
S'mode_l'
p45
ag45
aS'move_n'
p46
ag45
aS'mode_r'
p47
ag47
ag47
ag47
ag47
ag47
ag47
ag47
ag46
ag46
ag45
ag45
ag47
ag47
ag47
ag47
ag46
ag47
aS'move_p'
p48
ag48
ag45
ag48
ag47
ag48
ag47
ag47
ag47
ag48
ag47
ag47
ag48
ag45
ag47
ag46
ag47
ag47
ag47
ag48
ag48
ag47
ag46
ag47
ag47
ag48
ag48
ag47
ag47
ag47
ag48
ag48
ag45
ag47
ag47
ag46
ag47
ag47
ag47
ag47
ag47
ag47
ag47
ag47
ag47
ag47
ag47
ag48
ag45
ag47
ag47
ag47
ag47
ag46
ag45
ag45
ag46
ag47
ag48
ag48
ag45
ag48
ag47
ag48
ag45
ag47
ag47
ag47
ag47
ag48
ag48
ag48
ag47
ag46
ag47
ag48
ag45
ag47
ag47
ag47
ag46
ag45
ag47
ag47
ag47
ag47
ag46
ag45
ag46
ag47
ag46
ag47
ag48
ag45
ag47
ag47
ag48
ag48
ag48
ag47
ag47
ag48
ag47
ag47
ag47
ag47
ag46
ag47
ag46
ag47
ag46
ag45
ag46
ag47
ag46
asS'assistance_match_with_ground_truth'
p49
(lp50
I00
aI01
aI00
aI00
aI00
aI00
aI00
aI00
aI00
aI00
aI00
aI01
aI00
aI00
aI00
aI00
aI00
aI00
aI00
aI01
aI01
aI01
aI00
aI00
aI01
aI00
aI01
aI00
aI00
aI00
aI01
aI00
aI00
aI01
aI00
aI00
aI01
aI00
aI00
aI00
aI01
aI00
aI01
aI01
aI00
aI00
aI00
aI00
aI00
aI00
aI00
aI01
aI00
aI00
aI00
aI00
aI01
aI01
aI00
aI00
aI00
aI00
aI00
aI00
aI00
aI00
aI00
aI00
aI01
aI00
aI00
aI00
aI00
aI00
aI01
aI00
aI00
aI01
aI00
aI01
aI00
aI00
aI01
aI01
aI00
aI00
aI00
aI00
aI00
aI00
aI01
aI00
aI00
aI01
aI01
aI00
aI00
aI00
aI00
aI00
aI00
aI01
aI00
aI00
aI00
aI00
aI00
aI01
aI00
aI01
aI00
aI01
aI00
aI01
aI00
aI00
aI00
aI01
aI00
aI00
aI01
aI00
aI00
aI01
aI00
aI00
aI00
aI01
aI00
aI01
aI01
aI01
aI01
aI01
aI00
aI01
aI01
asS'total_steps'
p51
I137
sS'sp'
p52
(S'p4'
p53
F1.5707963267948966
S'x'
p54
tp55
sS's'
p56
(lp57
(S'p0'
p58
I0
g24
tp59
a(g58
I0
S't'
p60
tp61
a(g58
I0
S'y'
p62
tp63
a(g58
I0
g60
tp64
a(g58
I0
g54
tp65
a(g58
I0
g54
tp66
ag66
ag66
ag66
ag66
ag66
ag66
a(g58
I0
g62
tp67
a(g58
I0
g62
tp68
ag64
ag61
ag65
ag66
ag66
ag66
ag67
a(S'p1'
p69
I0
g62
tp70
a(g69
I0
g60
tp71
a(g69
I0
g60
tp72
a(g69
I0
g54
tp73
a(g69
I0
g60
tp74
a(g69
I0
g62
tp75
ag71
ag75
ag75
ag75
ag71
ag75
a(g69
I0
g62
tp76
ag71
ag73
a(S'p2'
p77
I0
g54
tp78
a(g77
I0
g62
tp79
a(g69
I0
g62
tp80
ag76
ag76
ag71
ag72
a(g69
F1.5707963267948966
g60
tp81
a(g69
F1.5707963267948966
g54
tp82
a(g69
F1.5707963267948966
g60
tp83
ag83
a(g69
I0
g60
tp84
ag72
ag75
ag75
ag75
ag71
ag72
ag73
a(g58
I0
g54
tp85
ag85
ag67
ag70
ag70
ag76
ag76
ag76
ag76
ag76
ag76
ag76
ag76
ag76
ag71
ag73
ag78
a(g77
I0
g54
tp86
ag86
ag86
ag79
a(g77
I0
g60
tp87
a(g77
I0
g60
tp88
a(g77
I0
g62
tp89
ag80
ag71
ag72
ag73
ag74
ag81
ag84
ag73
a(g69
I0
g62
tp90
ag90
ag90
ag90
ag71
ag72
ag72
ag81
ag82
ag83
ag84
ag73
ag78
ag78
ag78
ag79
ag87
a(g77
I0
g54
tp91
ag86
ag86
ag86
ag79
ag87
ag89
a(g77
I0
g54
tp92
ag79
ag80
ag71
ag73
ag90
ag76
ag71
ag72
ag72
ag81
ag81
ag84
ag81
ag81
ag81
ag81
ag82
ag83
ag82
a(g77
F1.5707963267948966
g54
tp93
a(g77
F1.5707963267948966
g62
tp94
a(S'p3'
p95
F1.5707963267948966
g62
tp96
a(g95
F1.5707963267948966
g54
tp97
a(g95
F1.5707963267948966
g60
tp98
a(g95
F1.5707963267948966
g54
tp99
asS'ui'
p100
(lp101
S'hp'
p102
aS'hs'
p103
ag52
ag102
aS'ss'
p104
ag102
ag103
ag102
ag102
ag103
ag104
ag102
ag52
ag104
ag104
ag103
ag104
ag102
ag104
ag103
ag104
ag103
ag52
ag102
ag103
ag102
ag102
ag102
ag102
ag102
ag102
ag52
ag102
ag102
ag52
ag104
ag102
ag52
ag104
ag103
ag102
ag104
ag52
ag104
ag104
ag102
ag104
ag102
ag104
ag104
ag103
ag102
ag104
ag52
ag103
ag103
ag102
ag104
ag102
ag102
ag102
ag102
ag102
ag103
ag104
ag103
ag102
ag102
ag103
ag103
ag52
ag102
ag102
ag104
ag103
ag52
ag104
ag103
ag104
ag102
ag52
ag104
ag103
ag102
ag104
ag52
ag102
ag102
ag103
ag102
ag102
ag52
ag102
ag102
ag102
ag102
ag102
ag103
ag104
ag102
ag104
ag104
ag102
ag103
ag102
ag103
ag104
ag102
ag104
ag104
ag102
ag102
ag104
ag104
ag52
ag104
ag102
ag104
ag104
ag104
ag103
ag102
ag102
ag52
ag102
ag102
ag102
ag103
ag104
ag102
ag104
ag102
ag104
ag103
ag104
ag102
ag104
asS'um_before'
p105
(lp106
g104
ag103
ag102
ag102
ag104
ag103
ag103
ag103
ag103
ag103
ag104
ag102
ag52
ag102
ag104
ag102
ag104
ag52
ag104
ag102
ag104
ag102
ag104
ag102
ag103
ag103
ag102
ag103
ag52
ag52
ag102
ag103
ag104
ag102
ag102
ag104
ag102
ag52
ag104
ag103
ag102
ag104
ag52
ag102
ag103
ag103
ag104
ag104
ag103
ag103
ag103
ag102
ag104
ag102
ag52
ag103
ag102
ag104
ag52
ag104
ag52
ag103
ag52
ag103
ag104
ag103
ag104
ag103
ag102
ag102
ag104
ag104
ag52
ag103
ag102
ag102
ag104
ag103
ag52
ag102
ag104
ag102
ag103
ag52
ag104
ag102
ag102
ag103
ag103
ag52
ag102
ag104
ag104
ag52
ag102
ag103
ag104
ag102
ag104
ag52
ag52
ag102
ag102
ag102
ag104
ag103
ag103
ag102
ag102
ag103
ag103
ag102
ag52
ag102
ag102
ag102
ag104
ag102
ag104
ag104
ag52
ag103
ag104
ag52
ag103
ag103
ag103
ag102
ag103
ag102
ag104
ag102
ag104
ag103
ag103
ag102
ag104
asS'um_after'
p107
(lp108
g104
ag103
ag102
ag102
ag104
aNaNaNaNaNag104
ag102
ag52
ag102
ag104
ag102
ag104
aNag104
ag102
ag104
ag102
ag104
ag102
ag103
ag103
ag102
ag103
aNaNag102
ag103
ag104
ag102
ag102
ag104
ag102
ag52
ag104
aNag102
ag104
ag52
ag102
ag103
aNag104
ag104
ag103
aNaNag102
ag104
ag102
ag52
aNag102
ag104
aNag104
aNaNaNaNag104
aNag104
aNag102
ag102
ag104
ag104
aNaNag102
ag102
ag104
ag103
ag52
ag102
ag104
ag102
ag103
ag52
ag104
ag102
ag102
aNaNaNag102
ag104
ag104
ag52
ag102
ag103
ag104
ag102
ag104
aNaNag102
ag102
ag102
ag104
aNaNag102
ag102
ag103
ag103
ag102
ag52
ag102
ag102
ag102
ag104
ag102
ag104
ag104
ag52
aNag104
ag52
aNaNaNag102
ag103
ag102
ag104
ag102
ag104
ag103
ag103
ag102
ag104
asaa(lp109
I1
ag39
(g40
tp110
Rp111
g43
(lp112
g45
ag45
ag47
ag46
ag45
ag45
ag46
ag46
ag47
ag47
ag47
ag47
ag48
ag47
ag47
ag48
ag47
ag47
ag47
ag48
ag47
ag47
ag47
ag47
ag47
ag48
ag45
ag48
ag48
ag47
ag46
ag47
ag47
ag47
ag46
ag47
ag47
ag47
ag47
ag47
ag47
ag47
ag46
ag45
ag45
ag46
ag45
ag47
ag47
ag47
ag47
ag47
ag47
ag46
ag47
ag47
ag46
ag45
ag47
ag47
ag47
ag47
ag47
ag47
ag46
asg49
(lp113
I00
aI00
aI01
aI00
aI00
aI01
aI00
aI01
aI00
aI00
aI00
aI01
aI00
aI00
aI01
aI01
aI00
aI00
aI00
aI00
aI00
aI00
aI00
aI00
aI01
aI00
aI01
aI00
aI01
aI01
aI01
aI00
aI00
aI01
aI00
aI00
aI00
aI00
aI00
aI00
aI00
aI01
aI00
aI00
aI01
aI01
aI00
aI00
aI00
aI00
aI00
aI00
aI01
aI00
aI00
aI01
aI01
aI00
aI00
aI00
aI00
aI00
aI00
aI01
aI01
asg51
I65
sg52
g55
sg56
(lp114
(g58
I0
g24
tp115
ag61
ag65
ag67
ag64
ag61
ag63
ag68
ag70
ag70
ag70
ag70
ag71
ag75
ag75
ag71
ag81
ag81
ag81
ag84
ag75
ag75
ag75
ag75
ag76
ag71
ag73
ag74
ag72
ag81
ag82
ag93
ag93
ag93
ag94
a(g77
F1.5707963267948966
g54
tp116
a(g77
F1.5707963267948966
g54
tp117
ag117
ag117
ag117
ag117
ag117
ag94
a(g77
F1.5707963267948966
g60
tp118
a(g77
F1.5707963267948966
g60
tp119
a(g77
F1.5707963267948966
g62
tp120
ag96
a(g95
F1.5707963267948966
g60
tp121
a(g95
F1.5707963267948966
g60
tp122
ag122
ag122
ag122
ag122
ag99
a(g77
F1.5707963267948966
g54
tp123
ag117
ag94
ag96
ag121
ag121
ag122
ag122
ag122
ag122
ag99
asg100
(lp124
g104
ag103
ag102
ag102
ag104
ag103
ag102
ag104
ag102
ag104
ag102
ag102
ag102
ag102
ag104
ag102
ag102
ag102
ag104
ag52
ag102
ag102
ag52
ag104
ag102
ag52
ag103
ag103
ag102
ag103
ag104
ag103
ag102
ag102
ag103
ag102
ag103
ag102
ag102
ag102
ag102
ag104
ag104
ag52
ag103
ag102
ag103
ag104
ag102
ag104
ag104
ag102
ag104
ag52
ag104
ag102
ag102
ag103
ag103
ag102
ag102
ag102
ag102
ag104
ag52
asg105
(lp125
g104
ag102
ag102
ag102
ag104
ag103
ag52
ag104
ag103
ag52
ag103
ag102
ag103
ag52
ag102
ag52
ag103
ag52
ag104
ag103
ag103
ag103
ag52
ag104
ag102
ag102
ag103
ag104
ag52
ag102
ag104
ag103
ag103
ag102
ag103
ag104
ag103
ag103
ag52
ag52
ag52
ag102
ag102
ag104
ag103
ag104
ag102
ag104
ag52
ag52
ag104
ag103
ag102
ag52
ag104
ag102
ag104
ag102
ag103
ag104
ag52
ag103
ag103
ag102
ag104
asg107
(lp126
g104
ag102
ag102
ag102
ag104
ag103
ag52
ag104
aNaNaNag102
ag103
aNag102
ag52
aNaNag104
ag103
aNaNaNag104
ag102
ag102
ag103
ag104
ag52
ag102
ag104
aNaNag102
ag103
ag104
aNaNaNaNaNag102
ag102
ag104
ag103
ag104
ag102
ag104
aNaNag104
aNag102
ag52
ag104
ag102
ag104
ag102
aNag104
aNaNaNag102
ag104
asaa(lp127
I2
ag39
(g40
tp128
Rp129
g43
(lp130
g45
ag47
ag47
ag47
ag47
ag47
ag47
ag47
ag47
ag46
ag47
ag47
ag47
ag47
ag47
ag46
ag45
ag45
ag45
ag46
ag47
ag48
ag47
ag48
ag45
ag47
ag47
ag46
ag45
ag46
asg49
(lp131
I00
aI00
aI00
aI00
aI00
aI00
aI00
aI00
aI01
aI00
aI00
aI00
aI00
aI00
aI01
aI00
aI00
aI00
aI01
aI01
aI01
aI01
aI00
aI00
aI00
aI00
aI01
aI01
aI01
aI01
asg51
I30
sg52
(g53
I0
g54
tp132
sg56
(lp133
(g58
I0
g24
tp134
ag65
ag66
ag66
ag66
ag66
ag66
ag66
ag66
ag67
a(g58
I0
g54
tp135
ag66
ag66
ag66
ag66
ag67
ag64
ag61
ag61
ag63
ag70
ag71
ag81
ag84
ag73
ag78
ag78
ag79
a(g95
I0
g62
tp136
a(g95
I0
g54
tp137
asg100
(lp138
g103
ag104
ag102
ag102
ag102
ag103
ag102
ag102
ag103
ag104
ag104
ag104
ag102
ag102
ag103
ag52
ag104
ag104
ag103
ag104
ag102
ag102
ag104
ag52
ag103
ag52
ag102
ag104
ag103
ag104
asg105
(lp139
g102
ag104
ag103
ag103
ag52
ag103
ag104
ag52
ag102
ag103
ag104
ag104
ag103
ag52
ag102
ag102
ag104
ag104
ag103
ag104
ag102
ag52
ag104
ag102
ag104
ag52
ag102
ag104
ag103
ag104
asg107
(lp140
g102
ag104
aNaNaNaNag104
aNag102
ag103
ag104
ag104
aNaNag102
ag102
ag104
ag104
ag103
ag104
ag102
ag52
ag104
ag102
ag104
aNag102
ag104
ag103
ag104
asaa(lp141
I3
ag39
(g40
tp142
Rp143
g43
(lp144
g45
ag46
ag47
ag47
ag47
ag48
ag48
ag47
ag46
ag47
ag47
ag46
ag47
ag46
ag47
ag48
ag47
ag48
ag48
ag45
ag47
ag46
ag47
ag48
ag45
ag47
ag47
ag47
ag48
ag47
ag48
ag47
ag48
ag47
ag47
ag48
ag48
ag48
ag47
ag46
ag45
ag47
ag47
ag46
ag47
ag46
ag45
ag46
ag47
ag47
ag47
ag47
ag47
ag47
ag47
ag47
ag46
ag45
ag45
ag45
ag45
ag45
ag45
ag45
ag45
ag46
ag47
ag47
ag47
ag47
ag46
ag46
ag45
ag46
ag47
ag47
ag47
ag47
ag47
ag47
ag47
ag46
ag45
ag46
ag47
ag47
ag47
ag46
ag45
ag45
ag45
ag46
ag45
ag46
ag47
ag47
ag47
ag47
ag46
ag45
ag45
ag45
ag47
ag47
ag47
ag47
ag47
ag47
ag47
ag47
ag47
ag47
ag47
ag47
ag46
ag47
ag46
ag45
ag45
ag45
ag45
ag46
asg49
(lp145
I01
aI01
aI00
aI00
aI01
aI00
aI01
aI01
aI00
aI00
aI01
aI00
aI01
aI00
aI00
aI00
aI01
aI00
aI00
aI00
aI01
aI00
aI01
aI00
aI00
aI00
aI00
aI01
aI01
aI00
aI00
aI01
aI01
aI00
aI00
aI00
aI00
aI01
aI01
aI00
aI00
aI00
aI01
aI01
aI01
aI00
aI01
aI00
aI00
aI00
aI00
aI00
aI00
aI00
aI00
aI01
aI00
aI00
aI00
aI00
aI00
aI00
aI00
aI00
aI01
aI00
aI00
aI00
aI00
aI01
aI00
aI01
aI01
aI01
aI00
aI00
aI00
aI00
aI00
aI00
aI01
aI01
aI01
aI00
aI00
aI00
aI01
aI00
aI00
aI00
aI01
aI01
aI01
aI00
aI00
aI00
aI00
aI01
aI00
aI00
aI00
aI00
aI00
aI00
aI00
aI00
aI00
aI00
aI00
aI00
aI00
aI00
aI00
aI01
aI00
aI01
aI01
aI00
aI00
aI00
aI01
aI01
asg51
I122
sg52
g55
sg56
(lp146
(g58
I0
g24
tp147
ag63
ag70
ag70
ag70
ag71
ag72
ag81
ag82
ag83
ag83
ag82
ag83
ag82
ag83
ag84
ag75
ag71
ag72
ag73
ag78
ag79
ag80
ag71
ag73
ag90
ag76
ag76
ag71
ag81
ag84
ag75
ag71
ag81
ag81
ag84
ag72
ag72
ag81
ag82
a(g69
F1.5707963267948966
g62
tp148
a(g69
F1.5707963267948966
g60
tp149
ag149
ag82
ag93
ag94
ag118
ag120
ag116
ag117
ag117
ag117
ag117
ag117
ag117
ag117
ag94
a(g69
F1.5707963267948966
g62
tp150
a(g69
F1.5707963267948966
g62
tp151
ag151
a(g69
F1.5707963267948966
g62
tp152
ag151
ag151
ag152
ag151
a(g69
F1.5707963267948966
g54
tp153
a(g58
F1.5707963267948966
g54
tp154
a(g58
F1.5707963267948966
g54
tp155
ag155
ag155
a(g58
F1.5707963267948966
g62
tp156
a(g58
F1.5707963267948966
g62
tp157
a(g69
F1.5707963267948966
g62
tp158
ag153
ag93
ag93
ag93
ag93
ag117
ag117
ag117
ag94
ag96
ag97
ag123
ag117
ag117
ag94
ag118
ag119
ag119
ag120
ag96
ag97
ag98
ag122
ag122
ag122
ag99
a(g95
F1.5707963267948966
g62
tp159
a(g95
F1.5707963267948966
g62
tp160
a(g95
F1.5707963267948966
g62
tp161
ag121
ag122
ag122
ag122
ag122
ag122
ag122
ag122
ag122
ag122
ag122
ag122
ag99
ag123
ag94
ag96
ag160
ag160
ag160
ag97
asg100
(lp162
g103
ag52
ag102
ag103
ag103
ag104
ag52
ag102
ag103
ag102
ag52
ag103
ag102
ag103
ag102
ag102
ag103
ag52
ag52
ag102
ag104
ag104
ag103
ag52
ag103
ag104
ag102
ag102
ag52
ag102
ag103
ag103
ag104
ag103
ag103
ag104
ag102
ag102
ag102
ag103
ag103
ag103
ag102
ag104
ag102
ag102
ag103
ag104
ag102
ag104
ag104
ag103
ag102
ag104
ag104
ag104
ag103
ag104
ag104
ag102
ag104
ag102
ag52
ag104
ag102
ag52
ag102
ag104
ag104
ag103
ag52
ag104
ag103
ag52
ag103
ag103
ag102
ag52
ag102
ag104
ag102
ag104
ag104
ag52
ag102
ag103
ag102
ag102
ag103
ag104
ag103
ag104
ag103
ag103
ag104
ag103
ag102
ag102
ag104
ag104
ag102
ag104
ag104
ag103
ag102
ag103
ag102
ag103
ag102
ag102
ag102
ag102
ag102
ag102
ag52
ag102
ag104
ag104
ag104
ag103
ag103
ag104
asg105
(lp163
g103
ag104
ag103
ag103
ag102
ag104
ag52
ag102
ag103
ag52
ag102
ag103
ag102
ag103
ag104
ag103
ag102
ag104
ag102
ag104
ag102
ag52
ag102
ag102
ag102
ag104
ag103
ag102
ag52
ag104
ag103
ag102
ag52
ag103
ag104
ag104
ag104
ag52
ag102
ag102
ag102
ag103
ag102
ag104
ag102
ag102
ag103
ag103
ag104
ag52
ag104
ag103
ag52
ag52
ag104
ag102
ag52
ag104
ag104
ag52
ag104
ag104
ag52
ag104
ag103
ag52
ag104
ag104
ag104
ag102
ag52
ag104
ag103
ag104
ag103
ag103
ag103
ag104
ag103
ag104
ag102
ag104
ag103
ag52
ag104
ag103
ag102
ag102
ag104
ag104
ag103
ag104
ag103
ag103
ag104
ag103
ag103
ag102
ag102
ag104
ag52
ag102
ag104
ag103
ag52
ag103
ag52
ag103
ag104
ag103
ag103
ag103
ag103
ag102
ag52
ag102
ag104
ag104
ag104
ag104
ag103
ag104
asg107
(lp164
g103
ag104
aNaNag102
ag104
ag52
ag102
ag103
aNag102
ag103
ag102
ag103
ag104
ag103
ag102
ag104
ag102
ag104
ag102
ag52
ag102
ag102
ag102
ag104
aNag102
ag52
ag104
ag103
ag102
ag52
aNag104
ag104
ag104
ag52
ag102
ag102
ag102
aNag102
ag104
ag102
ag102
ag103
ag103
ag104
aNag104
aNaNaNag104
ag102
ag52
ag104
ag104
ag52
ag104
ag104
ag52
ag104
ag103
ag52
ag104
ag104
ag104
ag102
ag52
ag104
ag103
ag104
aNaNaNag104
aNag104
ag102
ag104
ag103
ag52
ag104
aNag102
ag102
ag104
ag104
ag103
ag104
ag103
ag103
ag104
aNaNag102
ag102
ag104
ag52
ag102
ag104
aNaNaNaNaNag104
aNaNaNaNag102
ag52
ag102
ag104
ag104
ag104
ag104
ag103
ag104
asaa(lp165
I4
ag39
(g40
tp166
Rp167
g43
(lp168
g45
ag46
ag45
ag47
ag47
ag47
ag47
ag47
ag47
ag47
ag47
ag47
ag47
ag46
ag45
ag46
ag45
ag46
ag47
ag47
ag47
ag47
ag48
ag45
ag48
ag47
ag48
ag45
ag48
ag45
ag47
ag48
ag47
ag47
ag48
ag45
ag48
ag47
ag47
ag47
ag48
ag47
ag46
ag47
ag47
ag47
ag46
ag45
ag46
ag46
ag45
ag45
ag46
ag45
ag45
ag46
ag47
ag47
ag46
ag45
ag45
ag47
ag48
ag45
ag47
ag46
ag45
ag45
ag46
ag47
ag48
ag45
ag47
ag47
ag47
ag46
ag47
ag48
ag45
ag48
ag48
ag48
ag48
ag47
ag47
ag48
ag48
ag48
ag48
ag45
ag47
ag47
ag47
ag48
ag48
ag47
ag48
ag47
ag46
ag45
ag46
ag45
ag45
ag47
ag47
ag48
ag48
ag48
ag47
ag47
ag48
ag48
ag45
ag47
ag48
ag47
ag47
ag46
ag47
ag47
ag47
ag47
ag48
ag47
ag48
ag45
ag47
ag47
ag47
ag47
ag48
ag47
ag48
ag47
ag47
ag48
ag45
ag47
ag48
ag45
ag47
ag47
ag47
ag47
ag48
ag45
ag47
ag47
ag47
ag47
ag47
ag47
ag47
ag47
ag48
ag47
ag47
ag48
ag47
ag46
ag47
ag47
ag47
ag46
ag45
ag46
ag45
ag46
ag47
ag47
ag47
ag47
ag47
ag46
ag47
ag47
ag47
ag46
ag46
ag46
ag45
ag46
ag45
ag45
ag45
ag46
ag45
ag45
ag46
ag47
ag46
ag45
ag47
ag47
ag46
ag45
ag47
ag46
asg49
(lp169
I01
aI00
aI00
aI00
aI00
aI00
aI00
aI00
aI00
aI00
aI00
aI00
aI01
aI00
aI01
aI00
aI01
aI01
aI00
aI00
aI00
aI01
aI00
aI01
aI01
aI00
aI00
aI01
aI00
aI00
aI01
aI00
aI00
aI01
aI00
aI01
aI01
aI00
aI00
aI00
aI01
aI01
aI00
aI00
aI00
aI01
aI00
aI01
aI00
aI00
aI00
aI01
aI01
aI00
aI01
aI01
aI00
aI01
aI00
aI00
aI00
aI00
aI00
aI00
aI01
aI00
aI00
aI01
aI01
aI01
aI00
aI00
aI00
aI00
aI01
aI00
aI01
aI00
aI01
aI00
aI00
aI00
aI01
aI00
aI00
aI00
aI00
aI00
aI00
aI00
aI00
aI00
aI01
aI00
aI01
aI00
aI01
aI01
aI00
aI01
aI00
aI00
aI00
aI00
aI00
aI00
aI00
aI00
aI00
aI01
aI00
aI00
aI00
aI01
aI01
aI00
aI01
aI00
aI00
aI00
aI00
aI00
aI01
aI00
aI00
aI00
aI00
aI00
aI00
aI01
aI01
aI00
aI00
aI00
aI01
aI00
aI00
aI01
aI00
aI00
aI00
aI00
aI00
aI01
aI00
aI00
aI00
aI00
aI00
aI00
aI00
aI00
aI00
aI01
aI01
aI00
aI00
aI01
aI01
aI00
aI00
aI00
aI01
aI00
aI01
aI01
aI01
aI00
aI00
aI00
aI00
aI00
aI01
aI00
aI00
aI00
aI01
aI00
aI00
aI00
aI01
aI01
aI00
aI00
aI01
aI00
aI00
aI01
aI01
aI01
aI01
aI00
aI00
aI01
aI00
aI00
aI01
aI01
asg51
I198
sg52
g55
sg56
(lp170
(g58
I0
g24
tp171
ag63
ag64
ag65
ag65
ag66
ag66
ag66
ag66
ag66
ag66
ag66
ag66
ag67
ag64
ag63
ag64
ag63
ag70
ag70
ag70
ag70
ag71
ag73
ag74
ag81
ag84
ag73
ag74
ag73
ag90
ag71
ag75
ag75
ag71
ag73
ag74
ag81
ag81
ag81
ag84
ag81
ag82
ag154
ag155
ag155
ag156
a(g58
F1.5707963267948966
g60
tp172
a(g58
F1.5707963267948966
g62
tp173
ag157
ag172
a(g58
F1.5707963267948966
g60
tp174
ag173
ag158
ag151
ag153
ag93
ag117
ag94
ag150
ag151
ag149
ag84
ag73
ag85
ag67
ag64
ag61
ag63
ag70
ag71
ag73
ag78
ag86
ag86
ag79
ag80
ag71
ag73
ag74
ag72
ag72
ag72
ag81
ag81
ag84
ag72
ag72
ag72
ag73
ag90
ag90
ag76
ag71
ag72
ag81
ag84
ag81
ag82
ag148
ag153
ag148
ag152
ag149
ag149
ag84
ag72
ag72
ag75
ag75
ag71
ag72
ag73
ag90
ag71
ag81
ag81
ag82
ag83
ag83
ag83
ag83
ag84
ag81
ag84
ag73
ag90
ag90
ag90
ag90
ag71
ag81
ag84
ag75
ag75
ag71
ag73
ag90
ag71
ag73
ag90
ag76
ag76
ag76
ag71
ag73
ag90
ag76
ag76
ag76
ag76
ag76
ag76
ag76
ag71
ag81
ag81
ag84
ag81
ag82
ag154
ag154
ag155
ag156
ag172
ag173
ag158
ag153
ag154
ag154
ag154
ag154
ag154
ag156
a(g58
F1.5707963267948966
g54
tp175
ag155
ag155
ag156
ag157
ag157
ag172
ag173
ag158
ag151
ag151
ag153
ag148
ag151
ag153
ag93
ag94
ag96
ag121
ag122
ag99
ag159
ag121
ag99
asg100
(lp176
g103
ag102
ag104
ag102
ag104
ag103
ag104
ag104
ag103
ag102
ag102
ag102
ag103
ag104
ag103
ag52
ag103
ag104
ag102
ag103
ag102
ag102
ag103
ag103
ag52
ag104
ag52
ag102
ag102
ag102
ag102
ag103
ag103
ag102
ag52
ag102
ag52
ag102
ag102
ag52
ag52
ag102
ag104
ag104
ag102
ag102
ag104
ag103
ag104
ag102
ag104
ag103
ag104
ag104
ag103
ag104
ag102
ag102
ag52
ag104
ag103
ag104
ag52
ag102
ag102
ag52
ag104
ag103
ag104
ag103
ag52
ag104
ag104
ag102
ag104
ag102
ag102
ag104
ag103
ag52
ag104
ag103
ag52
ag103
ag104
ag52
ag102
ag102
ag52
ag52
ag102
ag102
ag102
ag104
ag52
ag104
ag52
ag103
ag104
ag103
ag102
ag52
ag103
ag102
ag102
ag52
ag104
ag52
ag103
ag102
ag104
ag104
ag103
ag102
ag102
ag102
ag104
ag52
ag103
ag102
ag102
ag104
ag52
ag52
ag103
ag103
ag102
ag102
ag102
ag102
ag52
ag102
ag103
ag102
ag104
ag104
ag102
ag102
ag52
ag103
ag104
ag102
ag102
ag102
ag52
ag103
ag102
ag104
ag102
ag104
ag104
ag104
ag102
ag102
ag52
ag102
ag102
ag104
ag102
ag102
ag103
ag102
ag102
ag52
ag103
ag102
ag102
ag52
ag102
ag102
ag102
ag102
ag102
ag103
ag104
ag104
ag102
ag104
ag104
ag102
ag103
ag104
ag102
ag102
ag103
ag104
ag104
ag103
ag104
ag102
ag104
ag103
ag104
ag102
ag104
ag102
ag102
ag104
asg105
(lp177
g103
ag102
ag102
ag52
ag104
ag103
ag104
ag52
ag103
ag52
ag103
ag103
ag102
ag102
ag103
ag102
ag103
ag104
ag52
ag103
ag103
ag102
ag102
ag103
ag52
ag104
ag102
ag103
ag102
ag102
ag102
ag103
ag103
ag102
ag102
ag103
ag52
ag103
ag103
ag104
ag52
ag102
ag52
ag104
ag103
ag102
ag102
ag103
ag52
ag102
ag52
ag103
ag104
ag104
ag103
ag104
ag104
ag102
ag52
ag104
ag102
ag104
ag102
ag52
ag102
ag102
ag104
ag103
ag104
ag102
ag102
ag104
ag104
ag52
ag102
ag52
ag102
ag102
ag103
ag104
ag104
ag104
ag52
ag52
ag104
ag104
ag104
ag104
ag102
ag102
ag52
ag104
ag102
ag104
ag52
ag104
ag52
ag102
ag102
ag103
ag102
ag52
ag102
ag103
ag104
ag104
ag104
ag103
ag103
ag102
ag104
ag102
ag102
ag102
ag52
ag103
ag102
ag103
ag103
ag103
ag103
ag104
ag52
ag104
ag102
ag102
ag52
ag52
ag103
ag102
ag52
ag104
ag103
ag103
ag102
ag102
ag102
ag102
ag102
ag102
ag104
ag103
ag104
ag102
ag102
ag102
ag104
ag104
ag52
ag52
ag104
ag52
ag104
ag102
ag52
ag103
ag104
ag52
ag102
ag52
ag103
ag104
ag102
ag102
ag103
ag104
ag103
ag52
ag103
ag52
ag103
ag52
ag102
ag103
ag104
ag104
ag102
ag52
ag52
ag102
ag103
ag104
ag104
ag104
ag103
ag102
ag104
ag103
ag104
ag102
ag104
ag102
ag104
ag102
ag102
ag102
ag102
ag104
asg107
(lp178
g103
ag102
ag102
aNag104
aNag104
aNaNaNaNaNag102
ag102
ag103
ag102
ag103
ag104
aNaNaNag102
ag102
ag103
ag52
ag104
ag102
ag103
ag102
ag102
ag102
ag103
aNag102
ag102
ag103
ag52
aNaNag104
ag52
ag102
ag52
ag104
aNag102
ag102
ag103
ag52
ag102
ag52
ag103
ag104
ag104
ag103
ag104
ag104
ag102
ag52
ag104
ag102
ag104
ag102
ag52
ag102
ag102
ag104
ag103
ag104
ag102
ag102
ag104
ag104
aNag102
ag52
ag102
ag102
ag103
ag104
ag104
ag104
ag52
aNag104
ag104
ag104
ag104
ag102
ag102
aNag104
ag102
ag104
ag52
ag104
ag52
ag102
ag102
ag103
ag102
ag52
ag102
aNag104
ag104
ag104
ag103
aNag102
ag104
ag102
ag102
ag102
ag52
aNag102
ag103
aNaNaNag104
ag52
ag104
ag102
ag102
aNaNaNag102
ag52
ag104
ag103
aNag102
ag102
ag102
ag102
ag102
ag102
ag104
aNag104
ag102
ag102
ag102
ag104
ag104
aNaNag104
aNag104
ag102
ag52
aNag104
ag52
ag102
ag52
aNag104
ag102
ag102
ag103
ag104
ag103
ag52
aNaNaNaNag102
ag103
ag104
ag104
ag102
ag52
ag52
ag102
ag103
ag104
ag104
ag104
ag103
ag102
ag104
ag103
ag104
ag102
ag104
ag102
ag104
ag102
ag102
ag102
ag102
ag104
asaa(lp179
I5
ag39
(g40
tp180
Rp181
g43
(lp182
g45
ag46
ag47
ag47
ag47
ag48
ag47
ag47
ag47
ag47
ag48
ag48
ag47
ag46
ag47
ag46
ag47
ag47
ag46
ag47
ag47
ag46
ag45
ag45
ag46
ag45
ag45
ag47
ag46
ag45
ag45
ag45
ag45
ag45
ag46
ag47
ag46
ag45
ag45
ag45
ag45
ag45
ag45
ag45
ag46
ag47
ag47
ag47
ag47
ag47
ag47
ag46
ag45
ag46
ag47
ag46
ag47
ag47
ag47
ag47
ag47
ag47
ag47
ag47
ag47
ag47
ag46
ag47
ag47
ag47
ag47
ag47
ag46
ag47
ag46
ag45
ag45
ag45
ag46
ag47
ag46
ag45
ag45
ag45
ag45
ag45
ag47
ag47
ag47
ag47
ag47
ag47
ag46
ag47
ag47
ag47
ag46
ag45
ag45
ag47
ag47
ag46
ag47
ag47
ag46
ag45
ag45
ag46
ag47
ag47
ag47
ag47
ag47
ag46
ag47
ag47
ag47
ag47
ag47
ag47
ag46
asg49
(lp183
I01
aI01
aI00
aI00
aI01
aI00
aI00
aI00
aI00
aI01
aI00
aI01
aI01
aI00
aI01
aI00
aI00
aI01
aI00
aI00
aI01
aI01
aI00
aI01
aI00
aI00
aI00
aI01
aI00
aI00
aI00
aI00
aI00
aI01
aI01
aI01
aI01
aI00
aI00
aI00
aI00
aI00
aI00
aI01
aI00
aI00
aI00
aI00
aI00
aI00
aI01
aI00
aI01
aI00
aI01
aI01
aI00
aI00
aI00
aI00
aI00
aI00
aI00
aI00
aI00
aI01
aI00
aI00
aI00
aI00
aI00
aI01
aI00
aI01
aI01
aI00
aI00
aI01
aI00
aI01
aI01
aI00
aI00
aI00
aI00
aI00
aI00
aI00
aI00
aI00
aI00
aI01
aI00
aI00
aI00
aI01
aI01
aI00
aI00
aI00
aI01
aI00
aI00
aI01
aI01
aI00
aI01
aI00
aI00
aI00
aI00
aI00
aI01
aI00
aI00
aI00
aI00
aI00
aI00
aI01
aI01
asg51
I121
sg52
g55
sg56
(lp184
(g58
I0
g24
tp185
ag63
ag70
ag70
ag76
ag71
ag75
ag76
ag76
ag76
ag71
ag72
ag81
ag82
ag154
ag156
ag175
ag155
ag156
ag175
ag155
ag156
ag158
ag152
ag153
ag148
ag151
ag149
ag82
ag148
ag151
ag151
ag151
ag151
ag153
ag93
ag94
ag96
ag160
ag160
ag160
ag160
ag160
ag160
ag97
ag123
ag123
ag123
ag117
ag117
ag117
ag94
ag150
ag153
ag83
ag82
ag93
ag93
ag117
ag117
ag117
ag117
ag117
ag117
ag117
ag117
ag94
ag116
ag116
ag116
ag116
ag116
ag94
ag116
ag94
ag96
ag160
ag161
ag97
ag123
ag94
ag96
ag160
ag161
ag161
ag160
ag121
ag122
ag122
ag122
ag122
ag122
ag99
ag123
ag123
ag117
ag94
ag96
ag160
ag121
ag121
ag99
ag123
ag123
ag94
ag96
ag161
ag97
ag98
ag98
ag98
ag122
ag122
ag99
ag98
ag98
ag98
ag98
ag122
ag122
ag99
asg100
(lp186
g103
ag104
ag102
ag104
ag103
ag52
ag102
ag102
ag102
ag104
ag102
ag102
ag102
ag52
ag102
ag102
ag102
ag102
ag102
ag104
ag102
ag104
ag103
ag103
ag104
ag104
ag52
ag102
ag52
ag104
ag52
ag103
ag104
ag103
ag104
ag102
ag104
ag104
ag104
ag102
ag104
ag102
ag104
ag103
ag102
ag102
ag102
ag52
ag102
ag103
ag102
ag52
ag103
ag102
ag104
ag104
ag102
ag102
ag52
ag102
ag104
ag104
ag102
ag103
ag102
ag104
ag102
ag102
ag102
ag103
ag103
ag103
ag102
ag104
ag102
ag103
ag104
ag103
ag102
ag104
ag52
ag104
ag102
ag102
ag104
ag103
ag104
ag102
ag102
ag102
ag102
ag102
ag52
ag102
ag104
ag102
ag104
ag104
ag104
ag104
ag102
ag52
ag103
ag102
ag104
ag104
ag103
ag103
ag102
ag102
ag104
ag104
ag102
ag104
ag104
ag102
ag102
ag104
ag52
ag102
ag104
asg105
(lp187
g103
ag104
ag52
ag104
ag102
ag103
ag104
ag104
ag52
ag102
ag104
ag52
ag102
ag52
ag102
ag103
ag104
ag102
ag103
ag104
ag102
ag104
ag52
ag103
ag102
ag104
ag102
ag102
ag102
ag104
ag104
ag104
ag104
ag103
ag104
ag102
ag104
ag104
ag104
ag104
ag104
ag104
ag104
ag103
ag52
ag52
ag103
ag104
ag52
ag103
ag102
ag52
ag103
ag103
ag102
ag104
ag103
ag104
ag52
ag52
ag104
ag104
ag104
ag104
ag52
ag102
ag103
ag52
ag103
ag52
ag103
ag102
ag103
ag102
ag104
ag104
ag52
ag103
ag52
ag102
ag104
ag104
ag52
ag52
ag104
ag102
ag104
ag104
ag52
ag104
ag103
ag102
ag52
ag52
ag104
ag102
ag104
ag104
ag102
ag103
ag102
ag52
ag52
ag102
ag104
ag52
ag103
ag103
ag103
ag52
ag104
ag52
ag102
ag103
ag103
ag52
ag103
ag104
ag104
ag102
ag104
asg107
(lp188
g103
ag104
aNag104
ag102
ag103
ag104
ag104
aNag102
ag104
ag52
ag102
ag52
ag102
ag103
ag104
ag102
ag103
ag104
ag102
ag104
ag52
ag103
ag102
ag104
ag102
ag102
ag102
ag104
ag104
ag104
ag104
ag103
ag104
ag102
ag104
ag104
ag104
ag104
ag104
ag104
ag104
ag103
ag52
aNaNag104
aNaNag102
ag52
ag103
ag103
ag102
ag104
aNag104
aNaNag104
ag104
ag104
ag104
aNag102
ag103
aNaNaNaNag102
ag103
ag102
ag104
ag104
ag52
ag103
ag52
ag102
ag104
ag104
ag52
ag52
ag104
ag102
ag104
ag104
aNag104
aNag102
ag52
aNag104
ag102
ag104
ag104
ag102
aNag102
ag52
aNag102
ag104
ag52
ag103
ag103
aNaNag104
aNag102
ag103
aNaNaNag104
ag104
ag102
ag104
asaa(lp189
I6
ag39
(g40
tp190
Rp191
g43
(lp192
g45
ag45
ag47
ag46
ag45
ag45
ag46
ag45
ag45
ag47
ag47
ag46
ag47
ag48
ag47
ag48
ag47
ag46
ag47
ag47
ag47
ag47
ag46
ag45
ag46
asg49
(lp193
I00
aI00
aI01
aI00
aI00
aI01
aI00
aI00
aI00
aI00
aI01
aI01
aI01
aI00
aI01
aI01
aI01
aI01
aI00
aI00
aI00
aI01
aI01
aI01
aI01
asg51
I25
sg52
g55
sg56
(lp194
(g58
I0
g24
tp195
ag61
ag65
ag67
ag64
ag61
ag63
ag64
ag61
ag65
ag66
ag67
ag70
ag71
ag75
ag71
ag81
ag82
ag93
ag93
ag93
ag117
ag94
ag96
ag97
asg100
(lp196
g104
ag103
ag104
ag102
ag103
ag103
ag103
ag104
ag103
ag104
ag103
ag104
ag104
ag103
ag52
ag52
ag104
ag104
ag103
ag102
ag102
ag52
ag104
ag102
ag52
asg105
(lp197
g104
ag102
ag102
ag102
ag104
ag103
ag102
ag104
ag102
ag104
ag102
ag104
ag102
ag103
ag102
ag52
ag102
ag104
ag103
ag103
ag104
ag102
ag104
ag103
ag104
asg107
(lp198
g104
ag102
ag102
ag102
ag104
ag103
ag102
ag104
ag102
ag104
ag102
ag104
ag102
ag103
ag102
ag52
ag102
ag104
aNaNag104
ag102
ag104
ag103
ag104
asaa(lp199
I7
ag39
(g40
tp200
Rp201
g43
(lp202
g45
ag45
ag46
ag45
ag45
ag47
ag47
ag47
ag47
ag46
ag47
ag47
ag48
ag47
ag47
ag47
ag47
ag47
ag47
ag48
ag48
ag45
ag47
ag48
ag47
ag48
ag48
ag47
ag46
ag45
ag45
ag46
ag45
ag46
ag45
ag46
ag47
ag47
ag47
ag46
ag45
ag47
ag46
ag47
ag46
ag45
ag47
ag46
asg49
(lp203
I00
aI01
aI00
aI00
aI00
aI00
aI00
aI00
aI01
aI01
aI00
aI01
aI00
aI00
aI00
aI00
aI00
aI00
aI01
aI00
aI00
aI00
aI01
aI01
aI00
aI00
aI01
aI01
aI00
aI00
aI01
aI00
aI01
aI00
aI01
aI01
aI00
aI00
aI01
aI00
aI00
aI01
aI01
aI01
aI01
aI00
aI01
aI01
asg51
I48
sg52
g55
sg56
(lp204
(g58
I0
g24
tp205
a(g58
I0
g60
tp206
ag63
ag64
ag206
ag65
ag65
ag66
ag66
ag67
ag70
ag70
ag71
ag75
ag76
ag76
ag76
ag76
ag76
ag71
ag72
ag73
ag90
ag71
ag81
ag84
ag72
ag81
ag82
ag148
ag152
ag153
ag148
ag153
ag148
ag153
ag93
ag117
ag117
ag94
ag150
ag149
ag82
ag93
ag94
ag96
ag121
ag99
asg100
(lp207
g102
ag103
ag104
ag102
ag103
ag103
ag104
ag102
ag102
ag104
ag102
ag102
ag102
ag102
ag104
ag102
ag103
ag102
ag102
ag52
ag102
ag103
ag102
ag52
ag103
ag104
ag52
ag52
ag102
ag104
ag103
ag102
ag102
ag102
ag104
ag104
ag104
ag103
ag102
ag102
ag104
ag102
ag104
ag102
ag104
ag103
ag102
ag104
asg105
(lp208
g52
ag103
ag102
ag52
ag102
ag103
ag104
ag104
ag102
ag104
ag103
ag102
ag103
ag104
ag52
ag104
ag103
ag103
ag102
ag104
ag102
ag102
ag102
ag52
ag104
ag104
ag52
ag102
ag102
ag52
ag103
ag102
ag103
ag102
ag103
ag104
ag104
ag52
ag102
ag52
ag102
ag102
ag104
ag102
ag104
ag102
ag102
ag104
asg107
(lp209
g52
ag103
ag102
ag52
ag102
aNag104
ag104
ag102
ag104
aNag102
ag103
ag104
aNag104
aNaNag102
ag104
ag102
ag102
ag102
ag52
ag104
ag104
ag52
ag102
ag102
ag52
ag103
ag102
ag103
ag102
ag103
ag104
ag104
aNag102
ag52
ag102
ag102
ag104
ag102
ag104
ag102
ag102
ag104
asaa(lp210
I8
ag39
(g40
tp211
Rp212
g43
(lp213
g45
ag46
ag47
ag47
ag47
ag48
ag48
ag47
ag47
ag48
ag47
ag48
ag47
ag48
ag45
ag47
ag48
ag48
ag47
ag47
ag47
ag46
ag47
ag46
ag45
ag45
ag47
ag47
ag47
ag47
ag47
ag47
ag47
ag47
ag47
ag47
ag47
ag46
ag47
ag47
ag46
ag45
ag47
ag47
ag47
ag46
ag45
ag45
ag45
ag47
ag47
ag47
ag47
ag47
ag47
ag46
ag45
ag45
ag47
ag46
asg49
(lp214
I01
aI01
aI00
aI00
aI01
aI00
aI01
aI00
aI00
aI01
aI00
aI00
aI01
aI00
aI00
aI01
aI00
aI01
aI00
aI00
aI01
aI01
aI01
aI01
aI00
aI00
aI00
aI00
aI00
aI00
aI00
aI00
aI00
aI00
aI00
aI00
aI01
aI00
aI00
aI01
aI00
aI00
aI00
aI00
aI01
aI01
aI00
aI00
aI00
aI00
aI00
aI00
aI00
aI00
aI01
aI00
aI00
aI00
aI01
aI01
asg51
I60
sg52
g55
sg56
(lp215
(g58
I0
g24
tp216
ag63
ag70
ag76
ag76
ag71
ag72
ag81
ag81
ag84
ag81
ag84
ag75
ag71
ag73
ag90
ag71
ag72
ag81
ag81
ag81
ag82
ag93
ag94
ag96
ag160
ag121
ag121
ag122
ag122
ag122
ag122
ag122
ag122
ag122
ag122
ag122
ag99
ag123
ag117
ag94
ag118
a(g77
F1.5707963267948966
g54
tp217
ag217
ag117
ag94
ag96
ag160
ag160
ag121
ag121
ag121
ag121
ag122
ag122
ag99
ag159
ag161
ag121
ag99
asg100
(lp218
g103
ag104
ag102
ag102
ag102
ag104
ag52
ag104
ag104
ag52
ag104
ag102
ag104
ag52
ag103
ag102
ag104
ag52
ag102
ag102
ag102
ag104
ag102
ag104
ag103
ag52
ag102
ag104
ag102
ag104
ag104
ag104
ag102
ag102
ag102
ag102
ag103
ag52
ag102
ag102
ag104
ag102
ag102
ag104
ag103
ag104
ag104
ag103
ag104
ag103
ag102
ag102
ag102
ag103
ag103
ag103
ag104
ag102
ag104
ag104
asg105
(lp219
g103
ag104
ag104
ag103
ag102
ag104
ag52
ag103
ag104
ag52
ag104
ag103
ag102
ag102
ag102
ag102
ag104
ag52
ag103
ag103
ag102
ag104
ag102
ag104
ag104
ag102
ag52
ag104
ag52
ag104
ag103
ag103
ag104
ag103
ag103
ag104
ag102
ag52
ag104
ag102
ag102
ag102
ag103
ag104
ag102
ag104
ag104
ag104
ag102
ag103
ag52
ag52
ag104
ag103
ag102
ag102
ag52
ag102
ag102
ag104
asg107
(lp220
g103
ag104
ag104
aNag102
ag104
ag52
aNag104
ag52
ag104
ag103
ag102
ag102
ag102
ag102
ag104
ag52
aNaNag102
ag104
ag102
ag104
ag104
ag102
aNag104
aNag104
aNaNag104
aNaNag104
ag102
ag52
ag104
ag102
ag102
ag102
aNag104
ag102
ag104
ag104
ag104
ag102
aNaNaNag104
aNag102
ag102
ag52
ag102
ag102
ag104
asaa(lp221
I9
ag39
(g40
tp222
Rp223
g43
(lp224
g45
ag46
ag47
ag46
ag47
ag47
ag48
ag48
ag48
ag45
ag48
ag48
ag48
ag48
ag45
ag47
ag48
ag47
ag48
ag47
ag47
ag47
ag47
ag48
ag47
ag47
ag47
ag47
ag48
ag47
ag46
ag47
ag47
ag46
ag45
ag46
ag47
ag46
ag45
ag46
ag47
ag47
ag46
ag45
ag46
ag45
ag47
ag46
ag45
ag46
ag47
ag47
ag47
ag46
ag46
ag45
ag46
ag47
ag47
ag47
ag47
ag47
ag47
ag47
ag47
ag46
ag45
ag45
ag45
ag46
ag45
ag45
ag45
ag47
ag47
ag46
ag47
ag46
ag47
ag47
ag47
ag47
ag47
ag47
ag46
ag46
ag46
ag45
ag46
ag47
ag47
ag46
ag46
ag45
ag46
ag45
ag47
ag47
ag46
ag45
ag45
ag45
ag47
ag48
ag47
ag47
ag48
ag47
ag48
ag45
ag47
ag47
ag47
ag48
ag45
ag48
ag45
ag47
ag47
ag46
ag47
ag47
ag47
ag47
ag47
ag47
ag47
ag47
ag46
ag45
ag46
ag47
ag48
ag45
ag48
ag47
ag46
ag45
ag45
ag45
ag46
ag47
ag47
ag47
ag47
ag46
ag45
ag45
ag46
ag47
ag47
ag46
ag45
ag45
ag45
ag46
ag45
ag46
ag47
ag46
ag45
ag46
ag47
ag47
ag47
ag47
ag47
ag46
ag45
ag47
ag47
ag47
ag46
asg49
(lp225
I01
aI00
aI01
aI01
aI00
aI01
aI00
aI00
aI00
aI01
aI00
aI00
aI00
aI00
aI00
aI01
aI00
aI01
aI00
aI00
aI00
aI00
aI01
aI00
aI00
aI00
aI00
aI01
aI01
aI01
aI01
aI00
aI01
aI01
aI01
aI00
aI01
aI00
aI01
aI00
aI00
aI01
aI00
aI01
aI00
aI00
aI01
aI00
aI01
aI00
aI00
aI00
aI01
aI00
aI01
aI01
aI00
aI00
aI00
aI00
aI00
aI00
aI00
aI00
aI01
aI01
aI00
aI00
aI01
aI00
aI00
aI00
aI00
aI00
aI01
aI00
aI01
aI00
aI00
aI00
aI00
aI00
aI00
aI01
aI00
aI00
aI01
aI01
aI00
aI00
aI01
aI00
aI00
aI01
aI00
aI00
aI00
aI01
aI01
aI00
aI00
aI00
aI00
aI01
aI00
aI00
aI01
aI00
aI00
aI00
aI00
aI00
aI01
aI00
aI01
aI00
aI00
aI00
aI01
aI00
aI00
aI00
aI00
aI00
aI00
aI00
aI00
aI01
aI00
aI01
aI00
aI01
aI00
aI01
aI01
aI01
aI00
aI00
aI00
aI01
aI01
aI00
aI00
aI00
aI01
aI01
aI00
aI01
aI00
aI00
aI01
aI00
aI00
aI00
aI01
aI00
aI01
aI01
aI01
aI01
aI01
aI00
aI00
aI00
aI00
aI00
aI01
aI01
aI00
aI00
aI00
aI01
aI01
asg51
I173
sg52
g55
sg56
(lp226
(g58
I0
g24
tp227
ag63
ag135
ag67
ag70
ag70
ag71
ag72
ag72
ag73
ag74
ag72
ag72
ag72
ag73
ag90
ag71
ag75
ag71
ag75
ag76
ag76
ag76
ag71
ag75
ag75
ag75
ag75
ag71
ag81
ag82
ag93
ag117
ag94
ag96
ag97
ag98
ag99
ag159
ag97
ag123
ag123
ag94
ag150
ag153
ag148
ag149
ag82
ag148
ag153
ag154
ag154
ag154
ag156
ag157
ag158
ag153
ag154
ag155
ag155
ag155
ag155
ag155
ag155
ag155
ag156
ag158
ag151
ag152
ag153
ag148
ag151
ag152
ag149
ag149
ag82
ag83
ag82
ag154
ag154
ag155
ag155
ag155
ag155
ag156
ag157
ag157
ag158
ag153
ag154
ag154
ag156
ag157
ag172
ag173
ag172
a(g58
F1.5707963267948966
g54
tp228
ag155
ag156
ag158
ag151
ag151
ag149
ag84
ag81
ag81
ag84
ag81
ag84
ag73
ag90
ag90
ag90
ag71
ag73
ag74
ag73
ag78
ag78
ag79
ag92
ag92
ag92
ag92
ag92
ag92
ag86
ag86
ag79
ag87
ag89
ag80
ag71
ag73
ag74
ag81
ag82
ag148
ag152
ag151
ag153
ag93
ag93
ag117
ag117
ag94
ag96
ag160
ag97
ag123
ag117
ag94
ag118
a(g77
F1.5707963267948966
g60
tp229
ag229
ag120
ag150
ag153
ag93
ag94
ag96
ag97
ag123
ag123
ag117
ag117
ag117
ag94
ag96
ag121
ag122
ag122
ag99
asg100
(lp230
g102
ag102
ag102
ag52
ag103
ag102
ag104
ag104
ag102
ag103
ag52
ag52
ag102
ag104
ag102
ag102
ag102
ag103
ag103
ag102
ag102
ag103
ag102
ag103
ag103
ag102
ag102
ag102
ag102
ag102
ag104
ag104
ag103
ag104
ag52
ag104
ag102
ag104
ag104
ag103
ag102
ag102
ag52
ag103
ag102
ag103
ag102
ag102
ag102
ag52
ag102
ag102
ag102
ag52
ag104
ag103
ag104
ag104
ag102
ag102
ag104
ag104
ag102
ag102
ag103
ag104
ag104
ag103
ag104
ag104
ag103
ag104
ag102
ag102
ag103
ag103
ag102
ag52
ag104
ag102
ag52
ag102
ag102
ag102
ag52
ag102
ag104
ag103
ag104
ag102
ag102
ag52
ag52
ag103
ag104
ag103
ag104
ag102
ag104
ag103
ag102
ag103
ag104
ag102
ag104
ag102
ag103
ag102
ag52
ag104
ag103
ag52
ag104
ag52
ag103
ag102
ag104
ag52
ag102
ag103
ag103
ag103
ag102
ag103
ag102
ag104
ag103
ag102
ag52
ag102
ag103
ag102
ag102
ag103
ag52
ag102
ag104
ag52
ag104
ag103
ag104
ag102
ag104
ag104
ag102
ag102
ag104
ag103
ag103
ag102
ag102
ag104
ag103
ag103
ag103
ag104
ag103
ag104
ag102
ag104
ag103
ag102
ag104
ag102
ag102
ag102
ag102
ag104
ag104
ag104
ag102
ag102
ag104
asg105
(lp231
g103
ag103
ag102
ag104
ag103
ag102
ag104
ag104
ag102
ag103
ag104
ag104
ag104
ag102
ag102
ag102
ag103
ag102
ag103
ag104
ag104
ag103
ag102
ag103
ag103
ag52
ag103
ag102
ag52
ag102
ag104
ag104
ag102
ag104
ag103
ag103
ag102
ag102
ag103
ag52
ag103
ag102
ag52
ag103
ag102
ag102
ag102
ag102
ag103
ag52
ag103
ag52
ag102
ag52
ag104
ag103
ag52
ag104
ag103
ag103
ag104
ag104
ag104
ag103
ag102
ag104
ag104
ag52
ag103
ag102
ag104
ag52
ag102
ag52
ag102
ag103
ag102
ag52
ag52
ag104
ag52
ag52
ag104
ag102
ag52
ag52
ag104
ag103
ag52
ag103
ag102
ag52
ag102
ag103
ag102
ag102
ag104
ag102
ag104
ag104
ag104
ag102
ag104
ag52
ag52
ag104
ag52
ag104
ag102
ag102
ag52
ag52
ag102
ag102
ag103
ag102
ag104
ag52
ag102
ag103
ag103
ag103
ag52
ag103
ag103
ag104
ag103
ag102
ag102
ag103
ag52
ag102
ag102
ag103
ag52
ag102
ag102
ag52
ag104
ag103
ag104
ag103
ag104
ag52
ag102
ag104
ag104
ag103
ag52
ag104
ag102
ag102
ag52
ag52
ag103
ag52
ag103
ag104
ag102
ag104
ag103
ag52
ag52
ag104
ag103
ag104
ag102
ag104
ag102
ag104
ag104
ag102
ag104
asg107
(lp232
g103
ag103
ag102
ag104
aNag102
ag104
ag104
ag102
ag103
ag104
ag104
ag104
ag102
ag102
ag102
ag103
ag102
ag103
ag104
ag104
aNag102
ag103
aNaNaNag102
ag52
ag102
ag104
ag104
ag102
ag104
ag103
ag103
ag102
ag102
ag103
ag52
aNag102
ag52
ag103
ag102
ag102
ag102
ag102
ag103
ag52
aNaNag102
ag52
ag104
ag103
ag52
ag104
aNaNag104
ag104
ag104
aNag102
ag104
ag104
ag52
ag103
ag102
ag104
ag52
ag102
aNag102
ag103
ag102
ag52
aNag104
aNaNag104
ag102
ag52
ag52
ag104
ag103
ag52
aNag102
ag52
ag102
ag103
ag102
ag102
ag104
ag102
ag104
ag104
ag104
ag102
ag104
ag52
aNag104
ag52
ag104
ag102
ag102
aNaNag102
ag102
ag103
ag102
ag104
aNag102
ag103
aNaNaNaNaNag104
aNag102
ag102
ag103
ag52
ag102
ag102
ag103
ag52
ag102
ag102
ag52
ag104
ag103
ag104
aNag104
aNag102
ag104
ag104
ag103
ag52
ag104
ag102
ag102
ag52
ag52
ag103
ag52
ag103
ag104
ag102
ag104
ag103
ag52
aNag104
aNag104
ag102
ag104
ag102
ag104
ag104
ag102
ag104
asaatp233
Rp234
aatp235
Rp236
.