ccollections
OrderedDict
p0
((lp1
(lp2
S'combination_dict'
p3
ag0
((lp4
(lp5
S'r_to_g_config'
p6
aS'tl'
p7
aa(lp8
S'num_turns'
p9
aI1
aa(lp10
S'start_direction'
p11
acutils_ms
StartDirection
p12
(I0
tp13
Rp14
aa(lp15
S'assistance_type'
p16
acutils_ms
AssistanceType
p17
(I1
tp18
Rp19
aa(lp20
S'start_mode'
p21
aS'y'
p22
aa(lp23
S'ui_given_a_noise'
p24
aF0.7
aa(lp25
S'um_given_ui_noise'
p26
aF0.7
aa(lp27
S'entropy_threshold'
p28
aF0.5
aatp29
Rp30
aa(lp31
S'data'
p32
accollections
defaultdict
p33
(c__builtin__
list
p34
tp35
Rp36
S'a'
p37
(lp38
S'mode_l'
p39
aS'move_n'
p40
aS'mode_r'
p41
ag39
ag40
ag40
ag40
ag39
aS'move_p'
p42
ag39
ag41
ag41
ag42
ag39
ag39
ag39
ag41
ag41
ag40
ag41
ag41
ag39
ag42
ag39
ag42
ag41
ag41
ag41
ag41
ag42
ag41
ag39
ag42
ag39
ag39
ag39
ag39
ag42
ag42
ag41
ag39
ag41
ag41
ag40
ag41
ag41
ag40
ag40
ag41
ag41
ag41
ag40
ag39
ag42
ag41
ag42
ag41
ag42
ag39
ag39
ag39
ag42
ag39
ag41
ag39
ag41
ag40
ag39
ag41
ag42
ag39
ag41
ag39
ag39
ag40
ag41
ag41
ag41
ag41
ag41
ag41
ag41
ag40
ag41
ag40
ag39
ag40
ag39
ag39
ag40
ag39
ag41
ag40
ag40
ag40
ag40
ag41
ag40
ag39
ag39
ag42
ag41
ag42
ag39
ag41
ag39
ag39
ag41
ag41
ag39
ag39
ag39
ag39
ag40
ag40
ag39
ag39
ag42
ag42
ag39
ag41
ag39
ag39
ag42
ag42
ag39
ag41
ag41
ag41
ag39
ag41
ag41
ag42
ag39
ag39
ag41
ag39
ag39
ag41
ag39
ag39
ag39
ag41
ag39
ag39
ag41
ag39
ag41
ag41
ag41
ag40
ag41
ag41
ag41
ag41
ag40
ag39
ag40
ag40
ag41
ag41
ag42
ag39
ag39
ag40
ag41
ag41
ag41
ag41
ag41
ag41
ag42
ag39
ag42
asS'assistance_match_with_ground_truth'
p43
(lp44
I01
aI00
aI00
aI01
aI00
aI00
aI01
aI01
aI01
aI00
aI00
aI01
aI00
aI00
aI00
aI00
aI00
aI01
aI01
aI00
aI00
aI00
aI01
aI01
aI00
aI00
aI00
aI00
aI01
aI00
aI00
aI00
aI00
aI00
aI00
aI00
aI01
aI00
aI00
aI00
aI00
aI00
aI01
aI00
aI00
aI01
aI00
aI00
aI00
aI00
aI01
aI01
aI01
aI00
aI01
aI00
aI01
aI00
aI00
aI00
aI01
aI00
aI00
aI00
aI00
aI01
aI01
aI00
aI01
aI00
aI00
aI00
aI00
aI01
aI00
aI00
aI00
aI00
aI00
aI00
aI00
aI01
aI00
aI01
aI00
aI01
aI00
aI00
aI01
aI00
aI00
aI01
aI00
aI00
aI00
aI00
aI01
aI01
aI00
aI01
aI00
aI01
aI00
aI00
aI00
aI00
aI00
aI00
aI00
aI00
aI00
aI00
aI01
aI00
aI01
aI00
aI01
aI00
aI00
aI00
aI00
aI00
aI01
aI00
aI01
aI00
aI00
aI00
aI00
aI00
aI00
aI01
aI00
aI00
aI00
aI00
aI00
aI00
aI00
aI00
aI00
aI00
aI00
aI00
aI00
aI00
aI00
aI00
aI00
aI01
aI00
aI00
aI00
aI00
aI01
aI00
aI01
aI00
aI01
aI00
aI01
aI00
aI00
aI01
aI01
aI00
aI00
aI00
aI00
aI00
aI01
aI00
aI01
aI01
asS'total_steps'
p45
I174
sS'sp'
p46
(lp47
(S'p0'
p48
I0
S'x'
p49
tp50
a(g48
I0
S't'
p51
tp52
a(g48
I0
S'y'
p53
tp54
ag50
a(g48
I0
g49
tp55
ag55
a(S'p1'
p56
I0
g49
tp57
a(g56
I0
g51
tp58
a(g56
F1.5707963267948966
g51
tp59
a(g56
F1.5707963267948966
g49
tp60
a(g56
F1.5707963267948966
g49
tp61
a(g56
F1.5707963267948966
g53
tp62
a(g48
F1.5707963267948966
g53
tp63
a(g48
F1.5707963267948966
g53
tp64
ag64
a(g48
F1.5707963267948966
g51
tp65
a(g48
F1.5707963267948966
g51
tp66
a(g48
F1.5707963267948966
g49
tp67
a(g56
F1.5707963267948966
g49
tp68
a(g56
F1.5707963267948966
g49
tp69
a(g56
F1.5707963267948966
g51
tp70
a(g56
I0
g51
tp71
ag59
a(g56
F1.5707963267948966
g53
tp72
a(g56
F1.5707963267948966
g49
tp73
ag69
ag61
ag61
ag62
ag73
ag70
ag71
a(g56
I0
g49
tp74
a(g56
I0
g49
tp75
ag75
ag75
ag58
a(g56
I0
g51
tp76
a(g56
I0
g53
tp77
a(g48
I0
g53
tp78
a(g48
I0
g51
tp79
a(g48
I0
g51
tp80
a(g48
I0
g49
tp81
ag52
a(g48
I0
g51
tp82
ag81
ag55
ag52
ag80
ag80
ag81
ag57
ag58
ag77
a(g56
I0
g51
tp83
ag77
ag83
ag74
ag75
ag75
ag58
ag74
a(g56
I0
g53
tp84
ag78
ag79
ag81
ag57
ag84
ag83
ag74
ag84
ag78
a(g48
I0
g53
tp85
ag50
ag52
ag82
ag82
ag80
ag82
ag80
ag82
ag81
ag52
ag81
a(g48
I0
g53
tp86
ag50
ag86
a(g48
I0
g53
tp87
ag50
ag86
ag79
ag81
ag55
ag55
ag55
ag52
ag81
ag57
ag75
ag58
ag77
ag83
ag74
ag84
ag78
ag87
ag79
ag80
ag54
ag85
ag87
ag87
ag50
ag55
ag57
ag75
ag58
ag76
ag74
ag84
a(g56
I0
g49
tp88
ag75
ag58
ag76
ag59
ag60
ag69
ag69
ag70
ag60
ag69
ag62
ag63
ag64
ag65
a(g48
F1.5707963267948966
g53
tp89
a(g48
F1.5707963267948966
g53
tp90
ag65
ag89
ag64
ag64
ag65
ag89
ag64
ag65
ag89
ag65
ag66
a(g48
F1.5707963267948966
g51
tp91
ag67
a(g48
F1.5707963267948966
g51
tp92
ag66
ag66
ag91
ag67
a(g48
F1.5707963267948966
g53
tp93
a(g48
F1.5707963267948966
g49
tp94
a(g48
F1.5707963267948966
g49
tp95
ag68
ag61
ag62
ag63
ag90
ag94
ag68
ag69
ag69
ag69
ag69
ag61
ag62
a(g56
F1.5707963267948966
g51
tp96
ag72
a(S'p2'
p97
F1.5707963267948966
g53
tp98
asS's'
p99
(lp100
(g48
I0
g22
tp101
ag50
ag52
ag54
ag50
ag55
ag55
ag57
ag58
ag59
ag60
ag61
ag62
ag63
ag64
ag64
ag65
ag66
ag67
ag68
ag69
ag70
ag71
ag59
ag72
ag73
ag69
ag61
ag61
ag62
ag73
ag70
ag71
ag74
ag75
ag75
ag75
ag58
ag76
ag77
ag78
ag79
ag80
ag81
ag52
ag82
ag81
ag55
ag52
ag80
ag80
ag81
ag57
ag58
ag77
ag83
ag77
ag83
ag74
ag75
ag75
ag58
ag74
ag84
ag78
ag79
ag81
ag57
ag84
ag83
ag74
ag84
ag78
ag85
ag50
ag52
ag82
ag82
ag80
ag82
ag80
ag82
ag81
ag52
ag81
ag86
ag50
ag86
ag87
ag50
ag86
ag79
ag81
ag55
ag55
ag55
ag52
ag81
ag57
ag75
ag58
ag77
ag83
ag74
ag84
ag78
ag87
ag79
ag80
ag54
ag85
ag87
ag87
ag50
ag55
ag57
ag75
ag58
ag76
ag74
ag84
ag88
ag75
ag58
ag76
ag59
ag60
ag69
ag69
ag70
ag60
ag69
ag62
ag63
ag64
ag65
ag89
ag90
ag65
ag89
ag64
ag64
ag65
ag89
ag64
ag65
ag89
ag65
ag66
ag91
ag67
ag92
ag66
ag66
ag91
ag67
ag93
ag94
ag95
ag68
ag61
ag62
ag63
ag90
ag94
ag68
ag69
ag69
ag69
ag69
ag61
ag62
ag96
ag72
asS'ui'
p102
(lp103
S'hs'
p104
aS'ss'
p105
aS'hp'
p106
ag104
ag106
ag105
ag106
ag105
ag46
ag105
ag46
ag46
ag46
ag105
ag105
ag104
ag105
ag106
ag104
ag106
ag104
ag104
ag46
ag104
ag105
ag106
ag106
ag46
ag105
ag46
ag105
ag105
ag46
ag104
ag105
ag106
ag105
ag46
ag104
ag106
ag104
ag106
ag46
ag105
ag105
ag106
ag105
ag46
ag106
ag46
ag105
ag46
ag104
ag105
ag106
ag104
ag46
ag46
ag105
ag106
ag104
ag46
ag104
ag105
ag104
ag105
ag106
ag105
ag106
ag104
ag106
ag46
ag106
ag104
ag104
ag46
ag106
ag106
ag105
ag46
ag46
ag106
ag104
ag104
ag106
ag105
ag46
ag105
ag105
ag105
ag105
ag106
ag106
ag105
ag105
ag105
ag104
ag105
ag104
ag104
ag46
ag106
ag46
ag105
ag105
ag105
ag106
ag106
ag104
ag106
ag104
ag104
ag104
ag106
ag46
ag106
ag105
ag105
ag104
ag104
ag46
ag105
ag104
ag105
ag105
ag104
ag105
ag105
ag106
ag104
ag106
ag46
ag46
ag105
ag106
ag46
ag106
ag104
ag104
ag105
ag105
ag46
ag105
ag105
ag106
ag46
ag104
ag105
ag105
ag46
ag104
ag105
ag106
ag46
ag46
ag106
ag104
ag105
ag105
ag46
ag106
ag46
ag46
ag104
ag105
ag106
ag105
ag105
ag46
ag106
ag106
ag46
ag104
ag106
asS'um_before'
p107
(lp108
g104
ag104
ag104
ag104
ag46
ag46
ag105
ag104
ag46
ag106
ag46
ag106
ag105
ag105
ag105
ag106
ag105
ag106
ag105
ag105
ag104
ag105
ag46
ag104
ag104
ag105
ag46
ag46
ag106
ag104
ag104
ag105
ag106
ag105
ag105
ag105
ag104
ag105
ag104
ag105
ag106
ag46
ag106
ag104
ag105
ag106
ag46
ag104
ag46
ag46
ag106
ag105
ag104
ag104
ag106
ag104
ag106
ag106
ag105
ag105
ag104
ag106
ag106
ag105
ag106
ag106
ag105
ag106
ag106
ag106
ag106
ag105
ag46
ag104
ag104
ag105
ag105
ag46
ag105
ag46
ag105
ag106
ag104
ag106
ag106
ag104
ag106
ag105
ag104
ag106
ag106
ag106
ag46
ag46
ag46
ag104
ag106
ag105
ag105
ag104
ag104
ag106
ag106
ag106
ag105
ag105
ag106
ag46
ag104
ag46
ag105
ag105
ag104
ag46
ag105
ag105
ag104
ag105
ag106
ag106
ag104
ag105
ag104
ag105
ag46
ag106
ag105
ag105
ag104
ag106
ag105
ag106
ag105
ag105
ag106
ag104
ag46
ag106
ag104
ag105
ag105
ag106
ag104
ag105
ag106
ag104
ag106
ag105
ag46
ag106
ag104
ag105
ag105
ag46
ag106
ag106
ag104
ag46
ag105
ag46
ag106
ag105
ag46
ag104
ag105
ag105
ag105
ag105
ag105
ag46
ag106
ag106
ag104
ag46
asS'um_after'
p109
(lp110
g104
ag104
ag104
ag104
ag46
ag46
ag105
ag104
ag46
ag106
ag46
ag106
ag105
ag105
ag105
ag106
ag105
ag106
ag105
ag105
ag104
ag105
ag46
ag104
ag104
ag105
ag46
ag46
ag106
ag104
ag104
ag105
ag106
ag105
ag105
ag105
ag104
ag105
ag104
ag105
ag106
ag46
ag106
ag104
ag105
ag106
ag46
ag104
ag46
ag46
ag106
ag105
ag104
ag104
ag106
ag104
ag106
ag106
ag105
ag105
ag104
ag106
ag106
ag105
ag106
ag106
ag105
ag106
ag106
ag106
ag106
ag105
ag46
ag104
ag104
ag105
ag105
ag46
ag105
ag46
ag105
ag106
ag104
ag106
ag106
ag104
ag106
ag105
ag104
ag106
ag106
ag106
ag46
ag46
ag46
ag104
ag106
ag105
ag105
ag104
ag104
ag106
ag106
ag106
ag105
ag105
ag106
ag46
ag104
ag46
ag105
ag105
ag104
ag46
ag105
ag105
ag104
ag105
ag106
ag106
ag104
ag105
ag104
ag105
ag46
ag106
ag105
ag105
ag104
ag106
ag105
ag106
ag105
ag105
ag106
ag104
ag46
ag106
ag104
ag105
ag105
ag106
ag104
ag105
ag106
ag104
ag106
ag105
ag46
ag106
ag104
ag105
ag105
ag46
ag106
ag106
ag104
ag46
ag105
ag46
ag106
ag105
ag46
ag104
ag105
ag105
ag105
ag105
ag105
ag46
ag106
ag106
ag104
ag46
asaa(lp111
S'index'
p112
aI31958
aatp113
Rp114
.