ccollections
OrderedDict
p0
((lp1
(lp2
S'combination_dict'
p3
ag0
((lp4
(lp5
S'r_to_g_config'
p6
aS'bl'
p7
aa(lp8
S'num_turns'
p9
aI3
aa(lp10
S'start_direction'
p11
acutils_ms
StartDirection
p12
(I0
tp13
Rp14
aa(lp15
S'assistance_type'
p16
acutils_ms
AssistanceType
p17
(I1
tp18
Rp19
aa(lp20
S'start_mode'
p21
aS'y'
p22
aa(lp23
S'ui_given_a_noise'
p24
aF0.7
aa(lp25
S'um_given_ui_noise'
p26
aF0.5
aa(lp27
S'entropy_threshold'
p28
aF0.7
aatp29
Rp30
aa(lp31
S'data'
p32
accollections
defaultdict
p33
(c__builtin__
list
p34
tp35
Rp36
S'a'
p37
(lp38
S'mode_l'
p39
ag39
ag39
aS'move_n'
p40
ag40
ag39
ag39
ag39
ag39
ag40
aS'mode_r'
p41
ag41
ag39
ag39
ag39
ag40
ag39
ag39
ag41
ag39
ag40
ag41
ag39
ag40
ag39
ag39
ag40
ag40
ag40
ag40
ag39
ag41
ag41
ag41
ag40
ag41
ag40
ag39
ag40
ag39
ag41
ag39
ag40
ag41
ag41
ag41
ag40
ag41
ag40
ag41
ag41
ag40
ag39
ag39
ag39
ag39
ag40
ag41
ag41
ag39
ag40
ag39
ag41
ag39
ag39
ag41
ag41
ag41
ag40
ag41
ag41
ag40
ag39
ag40
ag39
ag41
ag39
ag39
ag41
ag41
ag40
ag41
ag41
ag41
ag40
ag41
ag41
ag41
ag41
ag41
ag39
ag39
ag41
ag41
ag39
ag40
ag39
ag39
ag41
ag41
ag41
ag41
ag40
ag41
ag41
ag41
ag41
ag41
ag41
ag40
ag39
ag39
ag41
ag41
ag40
ag39
ag39
ag40
ag41
ag39
ag41
ag41
ag41
ag41
ag41
ag40
ag39
ag40
ag41
ag41
ag40
ag39
ag41
ag41
ag41
ag39
ag40
ag39
ag40
ag39
ag39
ag40
ag41
ag40
ag39
ag40
ag39
ag41
asS'assistance_match_with_ground_truth'
p42
(lp43
I00
aI00
aI01
aI00
aI00
aI00
aI00
aI00
aI01
aI01
aI00
aI00
aI00
aI00
aI01
aI01
aI00
aI00
aI00
aI01
aI00
aI00
aI01
aI00
aI00
aI01
aI00
aI00
aI00
aI00
aI00
aI00
aI00
aI01
aI01
aI01
aI01
aI01
aI01
aI00
aI00
aI01
aI00
aI00
aI00
aI01
aI00
aI01
aI00
aI00
aI01
aI01
aI00
aI00
aI00
aI01
aI00
aI00
aI00
aI01
aI01
aI00
aI00
aI00
aI00
aI00
aI00
aI01
aI00
aI00
aI01
aI00
aI01
aI00
aI00
aI00
aI00
aI00
aI00
aI01
aI00
aI00
aI00
aI01
aI01
aI00
aI00
aI00
aI00
aI00
aI00
aI00
aI00
aI00
aI01
aI00
aI00
aI00
aI00
aI00
aI00
aI01
aI00
aI00
aI00
aI00
aI00
aI00
aI01
aI01
aI00
aI00
aI00
aI01
aI00
aI00
aI01
aI00
aI00
aI00
aI00
aI00
aI00
aI00
aI01
aI00
aI01
aI01
aI00
aI01
aI00
aI00
aI00
aI00
aI00
aI01
aI00
aI01
aI00
aI00
aI01
aI01
aI01
aI01
aI01
aI01
aI00
aI00
asS'total_steps'
p44
I148
sS'sp'
p45
(lp46
(S'p0'
p47
I0
S'y'
p48
tp49
a(g47
I0
g48
tp50
a(g47
I0
S'x'
p51
tp52
a(g47
I0
g51
tp53
a(g47
I0
g48
tp54
ag49
ag50
ag49
ag52
a(S'p1'
p55
I0
g51
tp56
a(g55
I0
g51
tp57
a(g55
I0
S't'
p58
tp59
a(g55
I0
g58
tp60
ag60
a(g55
I0
g48
tp61
a(S'p2'
p62
I0
g48
tp63
a(g62
I0
g48
tp64
a(g62
I0
g58
tp65
a(g62
I0
g48
tp66
a(g62
I0
g51
tp67
a(g55
I0
g51
tp68
ag59
ag61
a(g47
I0
g48
tp69
ag49
ag52
ag53
ag53
ag53
ag54
a(g47
I0
g58
tp70
a(g47
I0
g58
tp71
ag71
a(g47
I0
g51
tp72
ag56
a(g55
I0
g48
tp73
ag63
ag67
a(S'p3'
p74
I0
g51
tp75
a(g74
I0
g48
tp76
a(g62
I0
g48
tp77
ag67
a(g62
I0
g58
tp78
a(g62
I0
g58
tp79
a(g62
I0
g58
tp80
a(g62
I0
g51
tp81
ag68
ag73
a(g55
I0
g51
tp82
ag57
ag73
ag63
a(g62
I0
g48
tp83
ag64
ag83
ag67
ag78
ag79
ag66
ag67
ag75
ag76
ag77
ag83
ag65
ag80
ag79
ag81
ag68
ag57
ag73
ag69
ag52
ag54
ag70
a(g47
I0
g48
tp84
ag49
ag70
ag71
ag72
a(g47
I0
g58
tp85
a(g47
I0
g58
tp86
ag86
ag72
ag56
ag57
ag57
a(g55
I0
g51
tp87
ag57
ag59
ag60
a(g55
I0
g51
tp88
ag87
ag59
ag61
a(g55
I0
g58
tp89
ag60
ag88
ag57
ag57
ag57
ag73
ag82
ag87
ag57
ag87
ag87
ag87
ag73
ag63
ag64
ag65
ag80
ag81
a(g62
I0
g48
tp90
ag64
ag67
ag68
ag59
ag88
ag87
ag57
ag57
ag57
ag73
ag69
ag52
ag56
ag87
ag73
ag89
ag88
ag87
ag57
ag59
ag61
ag69
ag52
ag54
ag50
ag52
ag56
ag73
ag63
ag67
ag75
ag76
a(S'p4'
p91
I0
g48
tp92
asS's'
p93
(lp94
(g47
I0
g22
tp95
ag49
ag50
ag52
ag53
ag54
ag49
ag50
ag49
ag52
ag56
ag57
ag59
ag60
ag60
ag61
ag63
ag64
ag65
ag66
ag67
ag68
ag59
ag61
ag69
ag49
ag52
ag53
ag53
ag53
ag54
ag70
ag71
ag71
ag72
ag56
ag73
ag63
ag67
ag75
ag76
ag77
ag67
ag78
ag79
ag80
ag81
ag68
ag73
ag82
ag57
ag73
ag63
ag83
ag64
ag83
ag67
ag78
ag79
ag66
ag67
ag75
ag76
ag77
ag83
ag65
ag80
ag79
ag81
ag68
ag57
ag73
ag69
ag52
ag54
ag70
ag84
ag49
ag70
ag71
ag72
ag85
ag86
ag86
ag72
ag56
ag57
ag57
ag87
ag57
ag59
ag60
ag88
ag87
ag59
ag61
ag89
ag60
ag88
ag57
ag57
ag57
ag73
ag82
ag87
ag57
ag87
ag87
ag87
ag73
ag63
ag64
ag65
ag80
ag81
ag90
ag64
ag67
ag68
ag59
ag88
ag87
ag57
ag57
ag57
ag73
ag69
ag52
ag56
ag87
ag73
ag89
ag88
ag87
ag57
ag59
ag61
ag69
ag52
ag54
ag50
ag52
ag56
ag73
ag63
ag67
ag75
ag76
asS'ui'
p96
(lp97
g45
aS'hp'
p98
aS'hs'
p99
aS'ss'
p100
ag100
ag45
ag99
ag45
ag99
ag100
ag100
ag99
ag45
ag45
ag99
ag100
ag99
ag98
ag98
ag99
ag45
ag98
ag99
ag100
ag45
ag98
ag45
ag45
ag45
ag98
ag98
ag100
ag100
ag98
ag100
ag98
ag100
ag99
ag100
ag99
ag100
ag98
ag99
ag45
ag98
ag98
ag45
ag98
ag99
ag98
ag98
ag100
ag99
ag45
ag98
ag99
ag45
ag45
ag100
ag99
ag100
ag99
ag98
ag99
ag98
ag100
ag45
ag98
ag100
ag45
ag98
ag45
ag99
ag100
ag99
ag45
ag45
ag98
ag100
ag98
ag100
ag100
ag100
ag98
ag100
ag100
ag98
ag45
ag98
ag98
ag45
ag45
ag98
ag99
ag98
ag99
ag45
ag99
ag100
ag100
ag98
ag98
ag100
ag100
ag98
ag45
ag45
ag100
ag98
ag100
ag45
ag99
ag98
ag98
ag100
ag45
ag99
ag100
ag98
ag99
ag45
ag100
ag100
ag100
ag98
ag100
ag99
ag100
ag45
ag98
ag99
ag98
ag45
ag99
ag45
ag98
ag45
ag99
ag100
ag45
ag99
ag100
ag98
ag100
ag99
ag100
ag98
ag98
asS'um_before'
p101
(lp102
g45
ag100
ag99
ag45
ag98
ag45
ag100
ag45
ag99
ag100
ag100
ag99
ag45
ag45
ag99
ag100
ag45
ag98
ag99
ag99
ag45
ag99
ag99
ag45
ag45
ag99
ag45
ag45
ag45
ag98
ag98
ag100
ag100
ag98
ag100
ag98
ag100
ag99
ag100
ag98
ag45
ag99
ag99
ag45
ag100
ag98
ag45
ag98
ag99
ag100
ag98
ag100
ag100
ag45
ag100
ag99
ag99
ag45
ag99
ag99
ag100
ag98
ag45
ag100
ag98
ag100
ag45
ag98
ag45
ag100
ag98
ag45
ag99
ag98
ag98
ag99
ag45
ag98
ag100
ag98
ag99
ag45
ag45
ag98
ag100
ag100
ag100
ag45
ag100
ag99
ag45
ag98
ag45
ag99
ag99
ag98
ag45
ag98
ag100
ag100
ag100
ag98
ag99
ag45
ag100
ag45
ag45
ag45
ag98
ag100
ag45
ag98
ag100
ag98
ag98
ag45
ag99
ag45
ag99
ag98
ag45
ag100
ag100
ag100
ag98
ag45
ag99
ag100
ag45
ag98
ag98
ag98
ag45
ag100
ag99
ag99
ag45
ag99
ag98
ag100
ag99
ag100
ag98
ag100
ag99
ag100
ag98
ag100
asS'um_after'
p103
(lp104
g45
ag100
ag99
ag45
ag98
ag45
ag100
ag45
ag99
ag100
ag100
ag99
ag45
ag45
ag99
ag100
ag45
ag98
ag99
ag99
ag45
ag99
ag99
ag45
ag45
ag99
ag45
ag45
ag45
ag98
ag98
ag100
ag100
ag98
ag100
ag98
ag100
ag99
ag100
ag98
ag45
ag99
ag99
ag45
ag100
ag98
ag45
ag98
ag99
ag100
ag98
ag100
ag100
ag45
ag100
ag99
ag99
ag45
ag99
ag99
ag100
ag98
ag45
ag100
ag98
ag100
ag45
ag98
ag45
ag100
ag98
ag45
ag99
ag98
ag98
ag99
ag45
ag98
ag100
ag98
ag99
ag45
ag45
ag98
ag100
ag100
ag100
ag45
ag100
ag99
ag45
ag98
ag45
ag99
ag99
ag98
ag45
ag98
ag100
ag100
ag100
ag98
ag99
ag45
ag100
ag45
ag45
ag45
ag98
ag100
ag45
ag98
ag100
ag98
ag98
ag45
ag99
ag45
ag99
ag98
ag45
ag100
ag100
ag100
ag98
ag45
ag99
ag100
ag45
ag98
ag98
ag98
ag45
ag100
ag99
ag99
ag45
ag99
ag98
ag100
ag99
ag100
ag98
ag100
ag99
ag100
ag98
ag100
asaa(lp105
S'index'
p106
aI79921
aatp107
Rp108
.