ccollections
OrderedDict
p0
((lp1
(lp2
S'index'
p3
aI14191
aa(lp4
S'combination_dict'
p5
ag0
((lp6
(lp7
S'r_to_g_config'
p8
aS'br'
p9
aa(lp10
S'num_turns'
p11
aI3
aa(lp12
S'start_direction'
p13
acutils_ms
StartDirection
p14
(I3
tp15
Rp16
aa(lp17
S'assistance_type'
p18
acutils_ms
AssistanceType
p19
(I0
tp20
Rp21
aa(lp22
S'start_mode'
p23
aS't'
p24
aa(lp25
S'ui_given_a_noise'
p26
aF0.5
aa(lp27
S'um_given_ui_noise'
p28
aF0.7
aa(lp29
S'entropy_threshold'
p30
aF0.5
aa(lp31
S'is_assistance'
p32
aI00
aatp33
Rp34
aa(lp35
S'trials'
p36
ag0
((lp37
(lp38
I0
accollections
defaultdict
p39
(c__builtin__
list
p40
tp41
Rp42
S'a'
p43
(lp44
S'mode_r'
p45
aS'move_p'
p46
ag46
ag45
ag45
aS'mode_l'
p47
ag47
ag45
aS'move_n'
p48
ag45
ag45
ag48
ag45
ag45
ag47
ag48
ag45
ag45
ag46
ag46
ag47
ag46
ag45
ag47
ag46
ag45
ag45
ag45
ag47
ag47
ag45
ag48
asS'assistance_match_with_ground_truth'
p49
(lp50
I01
aI00
aI01
aI00
aI00
aI00
aI00
aI01
aI00
aI00
aI01
aI00
aI00
aI00
aI01
aI01
aI00
aI01
aI00
aI00
aI01
aI01
aI00
aI01
aI01
aI00
aI00
aI00
aI00
aI00
aI01
aI01
asS'total_steps'
p51
I32
sS'sp'
p52
(S'p4'
p53
F1.5707963267948966
S'y'
p54
tp55
sS's'
p56
(lp57
(S'p0'
p58
I0
g24
tp59
a(g58
I0
S'x'
p60
tp61
a(g58
I0
g60
tp62
a(S'p1'
p63
I0
g60
tp64
a(g63
I0
g60
tp65
a(g63
I0
S't'
p66
tp67
a(g63
I0
g66
tp68
a(g63
I0
g60
tp69
a(g63
I0
g54
tp70
a(g63
I0
g60
tp71
a(g63
I0
g60
tp72
ag70
ag71
ag72
ag67
a(g63
I0
g54
tp73
a(S'p2'
p74
I0
g54
tp75
a(g74
I0
g54
tp76
a(g74
I0
g66
tp77
a(g74
I0
g66
tp78
a(g74
I0
g60
tp79
a(g74
I0
g66
tp80
a(g74
F1.5707963267948966
g66
tp81
a(g74
F1.5707963267948966
g54
tp82
a(g74
F1.5707963267948966
g60
tp83
a(S'p3'
p84
F1.5707963267948966
g60
tp85
a(g84
F1.5707963267948966
g60
tp86
a(g84
F1.5707963267948966
g60
tp87
a(g84
F1.5707963267948966
g66
tp88
a(g84
F1.5707963267948966
g66
tp89
a(g84
F1.5707963267948966
g60
tp90
a(g84
F1.5707963267948966
g54
tp91
asS'ui'
p92
(lp93
S'hp'
p94
ag52
ag52
aS'hs'
p95
aS'ss'
p96
ag95
ag94
ag94
ag96
ag94
ag52
ag95
ag94
ag96
ag95
ag96
ag52
ag94
ag94
ag52
ag96
ag52
ag52
ag95
ag52
ag94
ag94
ag95
ag95
ag95
ag95
ag52
asS'um_before'
p97
(lp98
g94
ag96
ag52
ag96
ag95
ag96
ag94
ag94
ag95
ag52
ag94
ag95
ag52
ag95
ag95
ag96
ag96
ag94
ag96
ag94
ag95
ag52
ag95
ag95
ag52
ag52
ag96
ag95
ag52
ag94
ag94
ag96
asS'um_after'
p99
(lp100
g94
ag96
ag52
ag96
ag95
ag96
ag94
ag94
ag95
ag52
ag94
ag95
ag52
ag95
ag95
ag96
ag96
ag94
ag96
ag94
ag95
ag52
ag95
ag95
ag52
ag52
ag96
ag95
ag52
ag94
ag94
ag96
asaa(lp101
I1
ag39
(g40
tp102
Rp103
g43
(lp104
g45
ag47
ag45
ag45
ag46
ag45
ag48
ag47
ag47
ag47
ag45
ag45
ag48
ag45
ag46
ag45
ag46
ag47
ag46
ag47
ag46
ag45
ag47
ag47
ag45
ag45
ag47
ag48
ag47
ag45
ag46
ag45
ag45
ag47
ag48
ag47
ag45
ag45
ag47
ag48
ag47
ag47
ag47
ag45
ag47
ag48
ag47
ag48
ag45
ag47
ag45
ag47
ag47
ag45
ag45
ag45
ag48
ag45
ag45
ag47
ag48
ag45
ag45
ag47
ag47
ag47
ag48
ag47
ag46
ag47
ag47
ag46
ag45
ag48
ag45
ag45
ag47
ag45
ag45
ag47
ag45
ag48
ag47
ag45
ag47
ag45
ag45
ag48
asg49
(lp105
I00
aI00
aI00
aI01
aI01
aI01
aI00
aI00
aI00
aI00
aI00
aI01
aI01
aI01
aI01
aI01
aI00
aI01
aI00
aI01
aI00
aI00
aI00
aI00
aI00
aI00
aI01
aI01
aI00
aI01
aI00
aI00
aI00
aI01
aI00
aI00
aI00
aI00
aI01
aI00
aI00
aI00
aI00
aI00
aI01
aI00
aI01
aI00
aI00
aI00
aI00
aI00
aI00
aI00
aI00
aI01
aI00
aI00
aI00
aI01
aI00
aI00
aI00
aI00
aI00
aI01
aI01
aI01
aI00
aI00
aI01
aI01
aI01
aI00
aI00
aI00
aI00
aI00
aI00
aI00
aI01
aI00
aI00
aI00
aI00
aI00
aI01
aI01
asg51
I88
sg52
g55
sg56
(lp106
(g58
I0
g24
tp107
a(g58
I0
g54
tp108
a(g58
I0
g66
tp109
a(g58
I0
g66
tp110
ag61
ag64
ag70
a(g63
I0
g66
tp111
ag68
ag68
ag69
ag65
ag70
ag75
ag77
ag81
a(g74
F1.5707963267948966
g60
tp112
a(g74
F1.5707963267948966
g54
tp113
ag83
ag113
ag83
a(g63
F1.5707963267948966
g60
tp114
a(g63
F1.5707963267948966
g66
tp115
a(g63
F1.5707963267948966
g66
tp116
a(g63
F1.5707963267948966
g60
tp117
a(g63
F1.5707963267948966
g60
tp118
ag115
a(g63
F1.5707963267948966
g54
tp119
a(g74
F1.5707963267948966
g54
tp120
a(g74
F1.5707963267948966
g66
tp121
ag112
ag114
ag118
ag115
ag119
a(g63
F1.5707963267948966
g66
tp122
ag117
ag118
ag115
ag119
ag122
ag116
ag116
ag117
ag115
ag119
ag122
ag119
a(g63
F1.5707963267948966
g60
tp123
ag115
ag117
ag115
ag116
ag117
ag118
a(g63
F1.5707963267948966
g60
tp124
a(g63
F1.5707963267948966
g54
tp125
ag123
ag124
ag115
ag119
ag123
ag118
ag115
ag116
a(g63
F1.5707963267948966
g66
tp126
ag119
ag120
ag83
ag113
a(g74
F1.5707963267948966
g54
tp127
ag83
ag85
ag91
a(g84
F1.5707963267948966
g60
tp128
ag86
ag88
ag90
ag87
ag88
ag90
ag91
a(g84
F1.5707963267948966
g66
tp129
ag90
ag88
ag90
ag87
ag91
asg92
(lp130
g96
ag95
ag52
ag94
ag52
ag96
ag96
ag95
ag95
ag95
ag96
ag94
ag96
ag94
ag52
ag94
ag94
ag96
ag96
ag94
ag52
ag94
ag95
ag94
ag94
ag95
ag95
ag95
ag94
ag96
ag96
ag52
ag95
ag94
ag95
ag94
ag52
ag95
ag95
ag96
ag95
ag94
ag95
ag95
ag95
ag95
ag95
ag95
ag94
ag95
ag94
ag94
ag94
ag52
ag52
ag96
ag95
ag94
ag95
ag95
ag95
ag52
ag94
ag95
ag94
ag96
ag96
ag95
ag52
ag96
ag95
ag52
ag96
ag96
ag94
ag95
ag95
ag94
ag96
ag95
ag94
ag96
ag95
ag95
ag94
ag96
ag95
ag96
asg97
(lp131
g95
ag94
ag96
ag94
ag52
ag94
ag94
ag96
ag96
ag94
ag96
ag94
ag96
ag94
ag52
ag94
ag94
ag95
ag94
ag95
ag96
ag95
ag96
ag94
ag52
ag95
ag95
ag96
ag94
ag94
ag96
ag52
ag95
ag95
ag94
ag94
ag52
ag95
ag95
ag94
ag96
ag96
ag94
ag95
ag95
ag94
ag95
ag95
ag95
ag94
ag95
ag96
ag94
ag52
ag96
ag94
ag95
ag96
ag95
ag95
ag95
ag52
ag95
ag96
ag52
ag95
ag96
ag95
ag94
ag96
ag95
ag52
ag94
ag95
ag52
ag95
ag94
ag96
ag95
ag94
ag94
ag94
ag94
ag95
ag94
ag96
ag94
ag96
asg99
(lp132
g95
ag94
ag96
ag94
ag52
ag94
ag94
ag96
ag96
ag94
ag96
ag94
ag96
ag94
ag52
ag94
ag94
ag95
ag94
ag95
ag96
ag95
ag96
ag94
ag52
ag95
ag95
ag96
ag94
ag94
ag96
ag52
ag95
ag95
ag94
ag94
ag52
ag95
ag95
ag94
ag96
ag96
ag94
ag95
ag95
ag94
ag95
ag95
ag95
ag94
ag95
ag96
ag94
ag52
ag96
ag94
ag95
ag96
ag95
ag95
ag95
ag52
ag95
ag96
ag52
ag95
ag96
ag95
ag94
ag96
ag95
ag52
ag94
ag95
ag52
ag95
ag94
ag96
ag95
ag94
ag94
ag94
ag94
ag95
ag94
ag96
ag94
ag96
asaa(lp133
I2
ag39
(g40
tp134
Rp135
g43
(lp136
g45
ag45
ag46
ag45
ag47
ag48
ag45
ag45
ag46
ag45
ag45
ag45
ag45
ag46
ag46
ag47
ag45
ag45
ag48
ag45
ag45
ag47
ag48
ag45
ag48
ag45
ag45
ag47
ag45
ag48
asg49
(lp137
I00
aI01
aI01
aI00
aI01
aI01
aI00
aI01
aI00
aI00
aI00
aI00
aI01
aI00
aI00
aI00
aI00
aI01
aI00
aI00
aI00
aI01
aI00
aI01
aI00
aI00
aI00
aI00
aI01
aI01
asg51
I30
sg52
(g53
I0
g54
tp138
sg56
(lp139
(g58
I0
g24
tp140
a(g58
I0
g66
tp141
ag61
ag64
ag67
ag73
ag75
ag76
ag77
a(g74
I0
g54
tp142
ag76
ag76
ag76
ag77
ag78
ag79
a(g84
I0
g60
tp143
a(g84
I0
g60
tp144
a(g84
I0
g54
tp145
a(g84
I0
g60
tp146
a(g84
I0
g60
tp147
a(g84
I0
g66
tp148
a(g84
I0
g54
tp149
ag146
ag145
ag146
ag147
ag148
a(g84
I0
g60
tp150
ag145
asg92
(lp151
g52
ag94
ag52
ag95
ag96
ag96
ag94
ag94
ag94
ag96
ag52
ag52
ag94
ag52
ag52
ag52
ag52
ag94
ag96
ag96
ag95
ag95
ag95
ag52
ag95
ag96
ag96
ag96
ag94
ag95
asg97
(lp152
g52
ag94
ag52
ag95
ag95
ag96
ag96
ag94
ag95
ag96
ag96
ag96
ag94
ag96
ag94
ag52
ag52
ag94
ag95
ag96
ag95
ag95
ag95
ag94
ag95
ag96
ag95
ag94
ag94
ag96
asg99
(lp153
g52
ag94
ag52
ag95
ag95
ag96
ag96
ag94
ag95
ag96
ag96
ag96
ag94
ag96
ag94
ag52
ag52
ag94
ag95
ag96
ag95
ag95
ag95
ag94
ag95
ag96
ag95
ag94
ag94
ag96
asaa(lp154
I3
ag39
(g40
tp155
Rp156
g43
(lp157
g45
ag47
ag46
ag46
ag45
ag45
ag48
ag45
ag46
ag45
ag45
ag47
ag45
ag46
ag45
ag45
ag48
ag47
ag47
ag47
ag46
ag45
ag45
ag45
ag48
asg49
(lp158
I00
aI01
aI00
aI01
aI00
aI01
aI01
aI01
aI01
aI00
aI00
aI00
aI01
aI00
aI00
aI01
aI01
aI00
aI00
aI01
aI01
aI00
aI00
aI01
aI01
asg51
I25
sg52
g55
sg56
(lp159
(g58
I0
g24
tp160
ag108
a(g58
I0
g60
tp161
ag62
ag64
ag72
ag70
ag75
ag77
ag81
a(g74
F1.5707963267948966
g66
tp162
ag82
ag121
ag112
ag114
ag124
ag125
ag120
ag127
a(g74
F1.5707963267948966
g54
tp163
ag83
ag85
ag87
ag87
ag91
asg92
(lp164
g96
ag95
ag96
ag52
ag52
ag94
ag96
ag94
ag52
ag94
ag94
ag52
ag95
ag52
ag96
ag96
ag52
ag96
ag94
ag95
ag52
ag95
ag94
ag94
ag96
asg97
(lp165
g95
ag95
ag96
ag52
ag52
ag94
ag96
ag94
ag52
ag52
ag95
ag94
ag94
ag96
ag96
ag94
ag96
ag96
ag52
ag95
ag52
ag96
ag96
ag94
ag96
asg99
(lp166
g95
ag95
ag96
ag52
ag52
ag94
ag96
ag94
ag52
ag52
ag95
ag94
ag94
ag96
ag96
ag94
ag96
ag96
ag52
ag95
ag52
ag96
ag96
ag94
ag96
asaa(lp167
I4
ag39
(g40
tp168
Rp169
g43
(lp170
g45
ag47
ag45
ag47
ag45
ag47
ag46
ag46
ag47
ag47
ag46
ag46
ag45
ag45
ag45
ag45
ag45
ag48
ag45
ag48
ag47
ag48
ag47
ag46
ag46
ag45
ag45
ag47
ag45
ag47
ag47
ag47
ag45
ag46
ag45
ag45
ag45
ag45
ag45
ag48
ag47
ag45
ag45
ag48
ag45
ag46
ag46
ag47
ag46
ag47
ag46
ag46
ag47
ag45
ag47
ag48
ag45
ag46
ag45
ag46
ag45
ag48
ag47
ag45
ag46
ag45
ag46
ag47
ag45
ag46
ag47
ag46
ag45
ag46
ag45
ag45
ag46
ag46
ag46
ag45
ag46
ag45
ag48
ag45
ag48
ag45
ag45
ag45
ag47
ag48
ag47
ag47
ag48
ag47
ag47
ag47
ag46
ag45
ag45
ag45
ag45
ag45
ag45
ag48
ag47
ag45
ag46
ag47
ag45
ag46
ag45
ag47
ag47
ag48
ag45
ag48
asg49
(lp171
I00
aI00
aI00
aI00
aI00
aI01
aI00
aI00
aI00
aI01
aI00
aI01
aI00
aI00
aI00
aI00
aI01
aI00
aI01
aI00
aI01
aI00
aI01
aI00
aI00
aI00
aI00
aI00
aI00
aI00
aI00
aI00
aI01
aI01
aI00
aI00
aI00
aI00
aI01
aI00
aI00
aI00
aI01
aI01
aI01
aI00
aI00
aI01
aI00
aI01
aI00
aI00
aI00
aI00
aI01
aI01
aI01
aI01
aI01
aI00
aI01
aI01
aI00
aI00
aI01
aI01
aI00
aI00
aI00
aI00
aI01
aI01
aI00
aI01
aI00
aI00
aI00
aI00
aI01
aI01
aI00
aI01
aI00
aI01
aI00
aI00
aI00
aI00
aI01
aI00
aI00
aI01
aI01
aI00
aI00
aI01
aI01
aI00
aI00
aI00
aI00
aI00
aI01
aI00
aI00
aI01
aI00
aI00
aI01
aI01
aI00
aI00
aI01
aI00
aI01
aI01
asg51
I116
sg52
g55
sg56
(lp172
(g58
I0
g24
tp173
ag108
ag109
ag108
ag109
ag108
ag161
ag62
a(g58
I0
g54
tp174
a(g58
I0
g54
tp175
ag161
ag62
ag64
ag65
ag72
ag72
ag72
ag70
ag71
ag70
ag111
ag73
a(g58
I0
g54
tp176
ag161
ag62
a(g58
I0
g66
tp177
ag141
ag108
ag109
ag108
ag175
ag175
ag109
ag61
ag64
ag65
ag65
ag65
ag72
ag70
ag111
ag69
ag65
ag70
ag75
ag77
ag78
ag79
ag80
ag79
ag80
ag78
ag79
a(g63
I0
g60
tp178
ag67
ag73
ag75
ag77
ag81
ag112
ag114
ag125
ag120
ag121
a(g74
I0
g66
tp179
ag81
ag112
ag113
ag121
ag179
ag79
ag80
ag81
ag179
ag81
ag162
ag179
ag78
ag78
ag81
ag112
ag114
ag125
ag123
ag125
ag123
ag124
ag124
ag115
ag119
ag122
ag116
ag119
ag120
ag127
ag163
ag83
ag85
ag87
ag87
ag87
ag87
ag86
ag91
a(g74
F1.5707963267948966
g54
tp180
ag121
ag112
ag113
ag121
ag112
ag85
ag88
a(g84
F1.5707963267948966
g66
tp181
a(g84
F1.5707963267948966
g54
tp182
ag128
ag91
asg92
(lp183
g95
ag95
ag95
ag96
ag96
ag95
ag52
ag94
ag94
ag95
ag52
ag52
ag94
ag52
ag94
ag94
ag94
ag96
ag96
ag95
ag95
ag52
ag95
ag52
ag95
ag94
ag95
ag94
ag96
ag96
ag95
ag95
ag95
ag94
ag95
ag94
ag94
ag52
ag52
ag52
ag95
ag95
ag96
ag52
ag52
ag52
ag94
ag95
ag52
ag95
ag52
ag94
ag95
ag96
ag95
ag96
ag52
ag52
ag94
ag52
ag94
ag96
ag94
ag52
ag52
ag94
ag96
ag94
ag52
ag52
ag95
ag52
ag52
ag52
ag52
ag96
ag52
ag52
ag52
ag52
ag52
ag94
ag95
ag94
ag95
ag95
ag95
ag94
ag94
ag95
ag94
ag94
ag96
ag95
ag94
ag95
ag52
ag52
ag94
ag94
ag95
ag52
ag96
ag52
ag96
ag96
ag52
ag94
ag96
ag52
ag96
ag94
ag95
ag96
ag95
ag96
asg97
(lp184
g95
ag94
ag95
ag94
ag95
ag95
ag96
ag94
ag96
ag95
ag96
ag52
ag96
ag52
ag52
ag52
ag94
ag95
ag94
ag94
ag95
ag52
ag95
ag96
ag95
ag52
ag95
ag94
ag95
ag96
ag96
ag94
ag94
ag52
ag96
ag96
ag96
ag52
ag94
ag94
ag94
ag96
ag94
ag96
ag94
ag96
ag94
ag95
ag94
ag95
ag96
ag94
ag96
ag95
ag95
ag96
ag94
ag52
ag94
ag96
ag94
ag96
ag94
ag96
ag52
ag94
ag94
ag94
ag96
ag94
ag95
ag52
ag96
ag52
ag52
ag96
ag96
ag96
ag52
ag94
ag96
ag94
ag95
ag94
ag95
ag96
ag96
ag95
ag95
ag94
ag96
ag95
ag96
ag96
ag52
ag95
ag52
ag96
ag96
ag96
ag96
ag52
ag94
ag52
ag94
ag94
ag94
ag94
ag94
ag52
ag95
ag96
ag95
ag95
ag94
ag96
asg99
(lp185
g95
ag94
ag95
ag94
ag95
ag95
ag96
ag94
ag96
ag95
ag96
ag52
ag96
ag52
ag52
ag52
ag94
ag95
ag94
ag94
ag95
ag52
ag95
ag96
ag95
ag52
ag95
ag94
ag95
ag96
ag96
ag94
ag94
ag52
ag96
ag96
ag96
ag52
ag94
ag94
ag94
ag96
ag94
ag96
ag94
ag96
ag94
ag95
ag94
ag95
ag96
ag94
ag96
ag95
ag95
ag96
ag94
ag52
ag94
ag96
ag94
ag96
ag94
ag96
ag52
ag94
ag94
ag94
ag96
ag94
ag95
ag52
ag96
ag52
ag52
ag96
ag96
ag96
ag52
ag94
ag96
ag94
ag95
ag94
ag95
ag96
ag96
ag95
ag95
ag94
ag96
ag95
ag96
ag96
ag52
ag95
ag52
ag96
ag96
ag96
ag96
ag52
ag94
ag52
ag94
ag94
ag94
ag94
ag94
ag52
ag95
ag96
ag95
ag95
ag94
ag96
asaa(lp186
I5
ag39
(g40
tp187
Rp188
g43
(lp189
g45
ag46
ag46
ag45
ag48
ag45
ag47
ag45
ag46
ag46
ag45
ag47
ag47
ag46
ag47
ag47
ag47
ag45
ag46
ag45
ag48
ag47
ag47
ag45
ag45
ag47
ag47
ag47
ag47
ag47
ag46
ag45
ag47
ag45
ag48
ag45
ag47
ag48
ag45
ag45
ag45
ag48
ag47
ag47
ag45
ag47
ag46
ag45
ag45
ag45
ag47
ag45
ag48
ag47
ag47
ag46
ag47
ag46
ag45
ag48
ag47
ag45
ag47
ag48
ag47
ag47
ag48
ag45
ag48
ag47
ag47
ag46
ag45
ag48
asg49
(lp190
I01
aI00
aI01
aI01
aI01
aI00
aI00
aI01
aI00
aI01
aI00
aI00
aI01
aI00
aI00
aI00
aI00
aI01
aI00
aI01
aI01
aI00
aI00
aI00
aI00
aI00
aI00
aI00
aI00
aI01
aI00
aI00
aI00
aI01
aI00
aI00
aI01
aI00
aI00
aI00
aI01
aI01
aI00
aI00
aI00
aI01
aI01
aI00
aI00
aI00
aI00
aI01
aI00
aI00
aI01
aI00
aI01
aI00
aI01
aI00
aI00
aI00
aI01
aI00
aI00
aI01
aI00
aI01
aI01
aI00
aI01
aI01
aI01
aI01
asg51
I74
sg52
g55
sg56
(lp191
(g58
I0
g24
tp192
ag61
ag62
ag64
ag70
ag75
a(g74
I0
g60
tp193
a(g74
I0
g54
tp194
ag77
ag78
ag81
ag82
ag127
ag83
ag113
ag127
ag127
ag121
ag112
ag114
ag125
ag120
ag127
ag121
ag162
ag82
ag127
ag127
ag127
ag127
ag83
ag114
ag115
ag117
ag125
ag123
ag115
ag119
ag123
ag118
ag118
ag125
ag120
ag127
ag121
ag82
ag83
ag85
ag87
ag87
ag88
ag90
ag91
ag180
ag127
ag83
ag113
ag83
ag114
ag125
ag122
ag117
ag115
ag119
ag122
ag116
ag119
ag123
ag125
ag120
ag127
ag83
ag85
ag91
asg92
(lp195
g94
ag52
ag52
ag95
ag95
ag95
ag95
ag52
ag52
ag52
ag95
ag95
ag95
ag52
ag95
ag94
ag95
ag94
ag96
ag94
ag96
ag96
ag94
ag94
ag95
ag94
ag95
ag95
ag96
ag95
ag96
ag96
ag95
ag96
ag96
ag95
ag95
ag95
ag52
ag52
ag94
ag96
ag94
ag95
ag94
ag95
ag52
ag96
ag52
ag94
ag95
ag95
ag52
ag95
ag95
ag52
ag95
ag52
ag95
ag95
ag95
ag95
ag95
ag52
ag95
ag95
ag95
ag95
ag52
ag95
ag95
ag52
ag52
ag95
asg97
(lp196
g94
ag96
ag52
ag94
ag96
ag95
ag94
ag94
ag96
ag52
ag95
ag96
ag95
ag94
ag96
ag96
ag94
ag94
ag96
ag94
ag96
ag96
ag94
ag52
ag95
ag96
ag96
ag96
ag96
ag95
ag96
ag95
ag94
ag94
ag95
ag95
ag95
ag95
ag52
ag52
ag94
ag96
ag96
ag94
ag95
ag95
ag52
ag96
ag96
ag95
ag94
ag94
ag52
ag96
ag95
ag94
ag95
ag96
ag94
ag94
ag94
ag95
ag95
ag94
ag96
ag95
ag95
ag94
ag96
ag96
ag95
ag52
ag94
ag96
asg99
(lp197
g94
ag96
ag52
ag94
ag96
ag95
ag94
ag94
ag96
ag52
ag95
ag96
ag95
ag94
ag96
ag96
ag94
ag94
ag96
ag94
ag96
ag96
ag94
ag52
ag95
ag96
ag96
ag96
ag96
ag95
ag96
ag95
ag94
ag94
ag95
ag95
ag95
ag95
ag52
ag52
ag94
ag96
ag96
ag94
ag95
ag95
ag52
ag96
ag96
ag95
ag94
ag94
ag52
ag96
ag95
ag94
ag95
ag96
ag94
ag94
ag94
ag95
ag95
ag94
ag96
ag95
ag95
ag94
ag96
ag96
ag95
ag52
ag94
ag96
asaa(lp198
I6
ag39
(g40
tp199
Rp200
g43
(lp201
g45
ag46
ag46
ag45
ag45
ag45
ag47
ag47
ag45
ag48
ag45
ag46
ag47
ag45
ag45
ag46
ag45
ag46
ag45
ag45
ag45
ag47
ag45
ag47
ag47
ag48
asg49
(lp202
I01
aI00
aI01
aI00
aI00
aI00
aI00
aI00
aI01
aI01
aI01
aI00
aI00
aI00
aI01
aI01
aI01
aI01
aI00
aI00
aI00
aI00
aI00
aI00
aI01
aI01
asg51
I26
sg52
g55
sg56
(lp203
(g58
I0
g24
tp204
ag61
ag62
ag64
ag65
ag65
ag67
ag68
ag69
ag70
ag75
ag77
ag79
ag194
ag76
ag77
ag81
ag112
ag85
ag86
ag87
ag88
ag90
ag88
ag89
ag182
asg92
(lp205
g52
ag94
ag52
ag96
ag96
ag96
ag94
ag95
ag94
ag96
ag94
ag52
ag95
ag96
ag94
ag52
ag94
ag94
ag94
ag94
ag94
ag96
ag95
ag94
ag94
ag95
asg97
(lp206
g94
ag96
ag52
ag96
ag96
ag95
ag96
ag94
ag94
ag96
ag94
ag94
ag94
ag96
ag94
ag52
ag94
ag52
ag52
ag96
ag95
ag94
ag95
ag52
ag95
ag96
asg99
(lp207
g94
ag96
ag52
ag96
ag96
ag95
ag96
ag94
ag94
ag96
ag94
ag94
ag94
ag96
ag94
ag52
ag94
ag52
ag52
ag96
ag95
ag94
ag95
ag52
ag95
ag96
asaa(lp208
I7
ag39
(g40
tp209
Rp210
g43
(lp211
g45
ag46
ag46
ag47
ag47
ag45
ag46
ag47
ag46
ag45
ag45
ag45
ag45
ag47
ag47
ag45
ag45
ag48
ag45
ag45
ag45
ag45
ag45
ag45
ag45
ag45
ag46
ag45
ag46
ag46
ag45
ag45
ag45
ag46
ag47
ag46
ag47
ag45
ag45
ag48
ag45
ag48
ag47
ag47
ag48
ag45
ag45
ag47
ag45
ag45
ag45
ag48
ag45
ag46
ag47
ag45
ag47
ag45
ag48
ag47
ag46
ag46
ag46
ag47
ag45
ag46
ag45
ag48
ag47
ag48
ag45
ag48
ag45
ag45
ag47
ag45
ag45
ag45
ag48
ag47
ag48
ag45
ag46
ag46
ag45
ag46
ag45
ag45
ag48
ag47
ag46
ag47
ag45
ag46
ag47
ag45
ag46
ag46
ag47
ag45
ag47
ag45
ag48
ag45
ag48
ag45
ag45
ag45
ag46
ag46
ag45
ag46
ag46
ag45
ag45
ag46
ag47
ag46
ag45
ag45
ag47
ag45
ag48
ag47
ag45
ag47
ag47
ag47
ag47
ag45
ag48
ag47
ag47
ag45
ag45
ag45
ag45
ag45
ag46
ag47
ag46
ag45
ag48
ag45
ag48
ag47
ag46
ag45
ag47
ag45
ag47
ag48
ag45
ag47
ag48
ag47
ag45
ag47
ag48
ag45
ag47
ag45
ag47
ag45
ag47
ag45
ag48
ag45
ag46
ag45
ag46
ag45
ag47
ag45
ag46
ag45
ag45
ag46
ag45
ag48
asg49
(lp212
I01
aI00
aI00
aI00
aI00
aI01
aI00
aI01
aI01
aI00
aI00
aI00
aI00
aI00
aI00
aI00
aI01
aI01
aI00
aI00
aI00
aI00
aI00
aI00
aI00
aI01
aI00
aI01
aI00
aI01
aI00
aI00
aI00
aI00
aI01
aI00
aI00
aI00
aI01
aI00
aI01
aI00
aI00
aI01
aI01
aI00
aI00
aI00
aI00
aI00
aI01
aI01
aI01
aI00
aI00
aI00
aI00
aI01
aI00
aI01
aI00
aI00
aI00
aI00
aI01
aI01
aI01
aI00
aI01
aI00
aI01
aI01
aI00
aI00
aI00
aI00
aI00
aI01
aI00
aI01
aI01
aI01
aI00
aI01
aI01
aI00
aI00
aI01
aI01
aI01
aI00
aI00
aI01
aI00
aI00
aI00
aI00
aI00
aI00
aI00
aI00
aI01
aI00
aI01
aI01
aI00
aI00
aI01
aI00
aI01
aI00
aI00
aI00
aI00
aI01
aI00
aI01
aI00
aI00
aI00
aI00
aI01
aI00
aI00
aI00
aI00
aI00
aI00
aI00
aI01
aI00
aI00
aI00
aI00
aI00
aI00
aI00
aI01
aI00
aI01
aI01
aI01
aI00
aI01
aI00
aI01
aI01
aI00
aI00
aI00
aI01
aI00
aI00
aI01
aI00
aI00
aI00
aI01
aI00
aI00
aI00
aI00
aI00
aI00
aI00
aI01
aI01
aI01
aI01
aI00
aI01
aI00
aI00
aI00
aI01
aI00
aI01
aI01
aI01
aI01
asg51
I180
sg52
g55
sg56
(lp213
(g58
I0
g24
tp214
ag61
ag62
ag174
ag175
ag109
ag61
ag174
ag161
ag64
ag65
ag72
ag65
ag67
ag68
ag69
ag65
ag70
ag75
ag76
ag76
ag76
ag76
ag76
a(g74
I0
g54
tp215
ag76
ag77
ag142
ag77
ag78
ag81
ag162
ag162
ag179
ag79
ag80
ag79
ag178
ag65
ag70
ag71
ag70
ag111
ag68
ag73
ag75
ag76
ag193
ag178
ag72
ag72
ag70
ag75
ag77
ag79
ag178
ag67
ag69
ag70
ag176
ag161
ag62
ag62
ag174
ag109
ag61
ag64
ag70
ag111
ag73
ag71
ag70
ag75
ag76
ag193
ag178
ag65
ag72
ag70
ag111
ag73
ag75
ag77
ag78
ag81
ag112
ag114
ag124
ag125
ag120
ag83
ag113
ag121
ag112
ag113
ag121
ag179
ag78
ag79
ag194
ag193
ag178
ag70
ag71
ag70
ag75
ag76
ag76
ag77
ag78
ag81
ag179
ag78
ag142
ag76
ag77
ag79
ag80
ag142
ag76
ag193
ag178
ag70
ag111
ag69
ag67
ag68
ag68
ag68
ag69
ag70
ag176
ag175
ag109
ag110
ag141
ag141
ag110
ag61
ag174
ag161
ag64
ag70
ag71
ag70
ag176
ag161
ag64
ag67
ag69
ag67
ag73
ag71
ag67
ag73
ag111
ag69
ag67
ag73
ag71
ag67
ag69
ag67
ag69
ag67
ag69
ag70
ag75
ag77
ag81
ag179
ag81
ag82
ag121
ag179
ag81
ag162
ag112
ag85
ag91
asg92
(lp216
g96
ag52
ag52
ag95
ag95
ag95
ag94
ag95
ag52
ag95
ag94
ag94
ag95
ag94
ag95
ag96
ag94
ag96
ag94
ag94
ag96
ag94
ag94
ag94
ag95
ag52
ag96
ag96
ag52
ag52
ag94
ag94
ag94
ag52
ag96
ag52
ag96
ag94
ag94
ag96
ag94
ag96
ag95
ag95
ag96
ag96
ag95
ag95
ag52
ag94
ag95
ag96
ag52
ag52
ag94
ag96
ag95
ag94
ag52
ag95
ag94
ag52
ag52
ag95
ag94
ag52
ag94
ag96
ag95
ag96
ag95
ag95
ag95
ag96
ag95
ag94
ag94
ag94
ag96
ag95
ag96
ag94
ag52
ag52
ag95
ag94
ag94
ag96
ag96
ag95
ag94
ag95
ag94
ag94
ag94
ag94
ag96
ag52
ag95
ag96
ag96
ag95
ag95
ag94
ag96
ag95
ag94
ag94
ag94
ag52
ag95
ag95
ag52
ag95
ag95
ag94
ag95
ag95
ag96
ag94
ag95
ag94
ag96
ag95
ag95
ag95
ag94
ag95
ag94
ag94
ag52
ag95
ag95
ag96
ag94
ag52
ag96
ag52
ag52
ag96
ag52
ag52
ag96
ag94
ag52
ag95
ag52
ag95
ag95
ag94
ag95
ag96
ag95
ag95
ag52
ag95
ag95
ag95
ag95
ag96
ag95
ag95
ag95
ag96
ag94
ag95
ag96
ag52
ag52
ag94
ag52
ag95
ag95
ag52
ag52
ag94
ag94
ag52
ag95
ag96
asg97
(lp217
g94
ag96
ag94
ag96
ag94
ag94
ag94
ag95
ag52
ag96
ag52
ag96
ag95
ag96
ag94
ag96
ag94
ag96
ag96
ag96
ag96
ag96
ag96
ag52
ag96
ag94
ag95
ag94
ag96
ag52
ag52
ag52
ag96
ag94
ag95
ag94
ag96
ag96
ag94
ag95
ag94
ag94
ag96
ag95
ag96
ag96
ag95
ag96
ag52
ag52
ag94
ag96
ag94
ag94
ag96
ag95
ag94
ag94
ag52
ag95
ag96
ag96
ag94
ag94
ag94
ag52
ag94
ag94
ag95
ag95
ag94
ag96
ag96
ag95
ag96
ag96
ag52
ag94
ag94
ag95
ag96
ag94
ag96
ag52
ag94
ag96
ag96
ag94
ag96
ag95
ag94
ag94
ag94
ag94
ag94
ag96
ag96
ag94
ag94
ag95
ag96
ag94
ag95
ag94
ag96
ag96
ag96
ag94
ag96
ag52
ag96
ag96
ag95
ag96
ag94
ag94
ag95
ag95
ag96
ag95
ag96
ag94
ag94
ag94
ag95
ag96
ag96
ag96
ag94
ag94
ag52
ag96
ag94
ag96
ag52
ag52
ag96
ag94
ag94
ag95
ag52
ag94
ag95
ag94
ag52
ag95
ag52
ag95
ag94
ag95
ag95
ag95
ag95
ag95
ag94
ag94
ag95
ag95
ag95
ag95
ag94
ag95
ag94
ag95
ag94
ag94
ag96
ag94
ag52
ag96
ag52
ag95
ag94
ag96
ag52
ag52
ag94
ag52
ag94
ag96
asg99
(lp218
g94
ag96
ag94
ag96
ag94
ag94
ag94
ag95
ag52
ag96
ag52
ag96
ag95
ag96
ag94
ag96
ag94
ag96
ag96
ag96
ag96
ag96
ag96
ag52
ag96
ag94
ag95
ag94
ag96
ag52
ag52
ag52
ag96
ag94
ag95
ag94
ag96
ag96
ag94
ag95
ag94
ag94
ag96
ag95
ag96
ag96
ag95
ag96
ag52
ag52
ag94
ag96
ag94
ag94
ag96
ag95
ag94
ag94
ag52
ag95
ag96
ag96
ag94
ag94
ag94
ag52
ag94
ag94
ag95
ag95
ag94
ag96
ag96
ag95
ag96
ag96
ag52
ag94
ag94
ag95
ag96
ag94
ag96
ag52
ag94
ag96
ag96
ag94
ag96
ag95
ag94
ag94
ag94
ag94
ag94
ag96
ag96
ag94
ag94
ag95
ag96
ag94
ag95
ag94
ag96
ag96
ag96
ag94
ag96
ag52
ag96
ag96
ag95
ag96
ag94
ag94
ag95
ag95
ag96
ag95
ag96
ag94
ag94
ag94
ag95
ag96
ag96
ag96
ag94
ag94
ag52
ag96
ag94
ag96
ag52
ag52
ag96
ag94
ag94
ag95
ag52
ag94
ag95
ag94
ag52
ag95
ag52
ag95
ag94
ag95
ag95
ag95
ag95
ag95
ag94
ag94
ag95
ag95
ag95
ag95
ag94
ag95
ag94
ag95
ag94
ag94
ag96
ag94
ag52
ag96
ag52
ag95
ag94
ag96
ag52
ag52
ag94
ag52
ag94
ag96
asaa(lp219
I8
ag39
(g40
tp220
Rp221
g43
(lp222
g45
ag45
ag45
ag46
ag46
ag46
ag45
ag48
ag45
ag45
ag45
ag47
ag46
ag47
ag46
ag46
ag46
ag45
ag47
ag46
ag47
ag46
ag45
ag45
ag48
ag45
ag45
ag45
ag48
ag47
ag47
ag47
ag46
ag47
ag45
ag45
ag46
ag47
ag45
ag46
ag47
ag46
ag45
ag48
ag47
ag47
ag45
ag45
ag47
ag48
ag45
ag45
ag45
ag45
ag48
asg49
(lp223
I00
aI00
aI01
aI00
aI00
aI01
aI01
aI01
aI00
aI00
aI00
aI01
aI00
aI01
aI00
aI00
aI01
aI00
aI01
aI00
aI01
aI00
aI00
aI01
aI00
aI00
aI00
aI01
aI01
aI00
aI00
aI01
aI00
aI00
aI00
aI01
aI00
aI00
aI01
aI00
aI01
aI01
aI01
aI00
aI00
aI00
aI00
aI00
aI01
aI00
aI00
aI00
aI00
aI01
aI01
asg51
I55
sg52
g55
sg56
(lp224
(g58
I0
g24
tp225
ag110
ag141
ag61
ag62
ag62
ag64
ag70
ag75
ag76
ag76
ag193
ag80
ag79
ag80
ag78
ag78
ag81
ag82
ag83
ag113
ag83
ag114
ag118
ag125
ag123
ag118
ag124
ag125
ag120
ag127
ag163
ag83
ag113
ag121
ag162
ag112
ag113
ag121
ag112
ag113
ag83
ag85
ag91
ag129
ag181
ag90
ag87
ag88
ag182
ag128
ag87
ag87
ag87
ag91
asg92
(lp226
g96
ag96
ag95
ag94
ag52
ag52
ag96
ag96
ag52
ag95
ag96
ag95
ag52
ag95
ag52
ag52
ag52
ag95
ag94
ag94
ag96
ag52
ag52
ag96
ag96
ag94
ag95
ag94
ag95
ag95
ag94
ag95
ag96
ag94
ag52
ag94
ag94
ag94
ag94
ag52
ag95
ag52
ag94
ag96
ag95
ag94
ag94
ag96
ag95
ag96
ag94
ag95
ag94
ag94
ag96
asg97
(lp227
g96
ag52
ag94
ag96
ag96
ag52
ag94
ag96
ag96
ag96
ag95
ag95
ag94
ag95
ag96
ag96
ag52
ag95
ag95
ag94
ag95
ag96
ag52
ag94
ag95
ag52
ag96
ag94
ag96
ag96
ag52
ag95
ag94
ag94
ag52
ag94
ag94
ag94
ag94
ag94
ag95
ag52
ag94
ag94
ag96
ag94
ag96
ag95
ag95
ag95
ag96
ag96
ag96
ag94
ag96
asg99
(lp228
g96
ag52
ag94
ag96
ag96
ag52
ag94
ag96
ag96
ag96
ag95
ag95
ag94
ag95
ag96
ag96
ag52
ag95
ag95
ag94
ag95
ag96
ag52
ag94
ag95
ag52
ag96
ag94
ag96
ag96
ag52
ag95
ag94
ag94
ag52
ag94
ag94
ag94
ag94
ag94
ag95
ag52
ag94
ag94
ag96
ag94
ag96
ag95
ag95
ag95
ag96
ag96
ag96
ag94
ag96
asaa(lp229
I9
ag39
(g40
tp230
Rp231
g43
(lp232
g45
ag45
ag47
ag47
ag45
ag46
ag45
ag45
ag46
ag46
ag45
ag45
ag46
ag46
ag47
ag46
ag46
ag45
ag46
ag46
ag45
ag45
ag48
ag45
ag46
ag47
ag45
ag45
ag46
ag45
ag46
ag45
ag46
ag45
ag47
ag47
ag46
ag45
ag45
ag48
ag47
ag46
ag47
ag47
ag47
ag47
ag47
ag46
ag45
ag46
ag47
ag45
ag47
ag48
ag47
ag45
ag48
ag45
ag47
ag45
ag45
ag45
ag45
ag48
ag47
ag48
ag47
ag45
ag45
ag45
ag47
ag47
ag45
ag47
ag47
ag45
ag45
ag48
ag45
ag47
ag47
ag45
ag48
ag47
ag47
ag48
ag45
ag45
ag45
ag45
ag46
ag46
ag45
ag45
ag46
ag47
ag46
ag45
ag46
ag45
ag46
ag47
ag46
ag46
ag46
ag47
ag46
ag45
ag46
ag47
ag46
ag46
ag47
ag45
ag45
ag45
ag47
ag45
ag45
ag46
ag45
ag47
ag47
ag47
ag46
ag47
ag46
ag45
ag47
ag48
ag47
ag46
ag47
ag45
ag46
ag47
ag46
ag47
ag47
ag46
ag47
ag46
ag45
ag48
ag45
ag45
ag45
ag48
ag47
ag48
ag47
ag45
ag46
ag45
ag45
ag48
ag47
ag45
ag45
ag45
ag45
ag48
ag47
ag45
ag46
ag45
ag45
ag48
ag47
ag45
ag48
ag47
ag45
ag46
ag45
ag47
ag47
ag48
ag47
ag45
ag46
ag45
ag47
ag48
ag47
ag47
ag45
ag46
ag47
ag47
ag45
ag46
ag47
ag46
ag47
ag46
ag45
ag45
ag45
ag46
ag47
asg49
(lp233
I00
aI00
aI00
aI00
aI01
aI00
aI00
aI01
aI00
aI00
aI00
aI01
aI00
aI00
aI01
aI00
aI00
aI01
aI00
aI01
aI00
aI01
aI01
aI01
aI00
aI00
aI00
aI01
aI01
aI00
aI01
aI01
aI00
aI00
aI00
aI01
aI00
aI00
aI01
aI01
aI01
aI00
aI00
aI00
aI00
aI00
aI01
aI00
aI00
aI00
aI00
aI00
aI01
aI00
aI00
aI01
aI01
aI00
aI00
aI00
aI00
aI00
aI01
aI00
aI01
aI00
aI00
aI00
aI00
aI00
aI00
aI00
aI00
aI00
aI00
aI00
aI01
aI00
aI00
aI00
aI00
aI01
aI00
aI00
aI01
aI01
aI00
aI00
aI00
aI01
aI00
aI00
aI00
aI01
aI00
aI01
aI01
aI00
aI01
aI00
aI00
aI01
aI00
aI00
aI00
aI01
aI00
aI01
aI00
aI01
aI00
aI00
aI00
aI00
aI00
aI00
aI00
aI00
aI01
aI01
aI00
aI00
aI00
aI01
aI00
aI01
aI00
aI00
aI01
aI01
aI01
aI00
aI00
aI01
aI00
aI01
aI00
aI00
aI01
aI00
aI01
aI00
aI01
aI00
aI00
aI00
aI01
aI00
aI01
aI01
aI00
aI01
aI00
aI00
aI01
aI00
aI00
aI00
aI00
aI00
aI01
aI01
aI00
aI01
aI01
aI00
aI01
aI00
aI00
aI01
aI00
aI00
aI01
aI00
aI00
aI00
aI01
aI01
aI00
aI01
aI00
aI00
aI01
aI01
aI00
aI00
aI01
aI00
aI00
aI00
aI00
aI00
aI01
aI00
aI01
aI01
aI00
aI00
aI01
aI00
aI00
asg51
I201
sg52
g127
sg56
(lp234
(g58
I0
g24
tp235
ag110
ag108
ag175
ag109
ag61
ag177
ag141
ag61
ag62
ag177
ag141
ag61
ag62
ag174
ag161
ag62
ag177
ag61
ag62
ag64
ag72
ag70
ag75
ag77
ag79
ag194
ag76
ag77
ag81
ag179
ag81
ag112
a(g74
F1.5707963267948966
g66
tp236
ag82
ag127
ag83
ag114
ag124
ag125
ag120
ag83
ag113
ag163
ag127
ag127
ag127
ag83
ag236
ag179
ag79
ag178
ag67
ag73
ag111
ag69
ag70
ag75
ag193
ag178
ag72
ag72
ag65
ag70
ag111
ag73
ag111
ag69
ag65
ag72
ag67
ag68
ag69
ag67
ag68
ag69
ag72
ag70
ag71
ag67
ag68
ag69
ag70
ag111
ag68
ag73
ag75
ag76
ag76
ag76
ag77
ag78
ag142
ag215
ag77
ag79
ag80
ag81
ag179
ag81
ag179
ag79
ag80
ag78
ag78
ag79
ag80
ag142
ag77
ag79
ag80
ag78
ag79
ag194
ag76
ag215
ag193
ag194
ag215
ag77
ag81
ag82
ag127
ag127
ag83
ag113
ag83
ag114
ag115
ag119
ag120
ag83
ag113
ag121
ag112
ag113
ag83
ag113
ag127
ag83
ag113
ag83
ag114
ag125
ag123
ag124
ag124
ag125
ag122
ag119
ag120
ag121
ag112
ag114
ag124
ag125
ag122
ag117
ag124
ag124
ag124
ag125
ag120
ag121
ag112
ag85
ag86
ag91
ag129
ag90
ag91
ag180
ag121
ag112
ag114
ag115
ag116
ag119
ag120
ag121
ag112
ag114
ag115
ag119
ag120
ag127
ag121
ag112
ag113
ag127
ag121
ag179
ag79
ag80
ag79
ag80
ag81
ag162
ag162
ag112
ag113
asg92
(lp237
g95
ag95
ag94
ag94
ag94
ag96
ag94
ag94
ag52
ag96
ag52
ag96
ag94
ag52
ag94
ag52
ag95
ag96
ag94
ag52
ag52
ag96
ag52
ag94
ag52
ag95
ag52
ag94
ag52
ag94
ag52
ag94
ag95
ag94
ag95
ag95
ag94
ag94
ag94
ag96
ag95
ag52
ag94
ag95
ag94
ag96
ag94
ag96
ag96
ag52
ag94
ag95
ag95
ag96
ag94
ag94
ag52
ag96
ag95
ag94
ag52
ag94
ag94
ag52
ag95
ag96
ag95
ag95
ag52
ag95
ag96
ag94
ag96
ag95
ag95
ag94
ag94
ag95
ag52
ag95
ag95
ag94
ag95
ag94
ag95
ag96
ag52
ag96
ag94
ag94
ag94
ag52
ag94
ag94
ag96
ag95
ag52
ag95
ag52
ag94
ag52
ag95
ag52
ag52
ag52
ag95
ag96
ag94
ag52
ag96
ag96
ag94
ag95
ag96
ag94
ag95
ag95
ag52
ag94
ag52
ag95
ag94
ag95
ag95
ag52
ag95
ag94
ag96
ag95
ag52
ag95
ag94
ag94
ag96
ag94
ag95
ag96
ag94
ag95
ag94
ag95
ag52
ag94
ag96
ag96
ag94
ag96
ag96
ag96
ag96
ag95
ag52
ag52
ag95
ag94
ag95
ag94
ag95
ag96
ag94
ag52
ag96
ag95
ag94
ag52
ag94
ag94
ag95
ag95
ag95
ag52
ag96
ag96
ag52
ag95
ag95
ag95
ag96
ag95
ag95
ag94
ag94
ag95
ag96
ag95
ag95
ag95
ag52
ag95
ag95
ag94
ag52
ag95
ag52
ag95
ag52
ag94
ag52
ag94
ag52
ag95
asg97
(lp238
g96
ag95
ag96
ag94
ag94
ag95
ag52
ag94
ag96
ag95
ag52
ag94
ag96
ag94
ag95
ag96
ag95
ag94
ag96
ag52
ag52
ag94
ag96
ag94
ag94
ag94
ag96
ag94
ag52
ag96
ag52
ag94
ag95
ag95
ag96
ag95
ag96
ag96
ag94
ag96
ag95
ag94
ag52
ag96
ag96
ag96
ag95
ag95
ag96
ag94
ag96
ag95
ag95
ag94
ag94
ag94
ag96
ag95
ag96
ag52
ag52
ag96
ag94
ag94
ag95
ag94
ag94
ag96
ag52
ag95
ag96
ag94
ag95
ag96
ag94
ag52
ag94
ag95
ag95
ag96
ag94
ag94
ag94
ag96
ag95
ag96
ag96
ag96
ag96
ag94
ag96
ag95
ag52
ag94
ag94
ag95
ag52
ag96
ag52
ag96
ag94
ag95
ag96
ag96
ag94
ag95
ag95
ag94
ag94
ag95
ag96
ag94
ag94
ag96
ag52
ag95
ag94
ag52
ag94
ag52
ag95
ag96
ag96
ag95
ag94
ag95
ag96
ag95
ag95
ag96
ag95
ag94
ag94
ag94
ag94
ag95
ag94
ag96
ag95
ag94
ag95
ag96
ag94
ag95
ag96
ag96
ag94
ag94
ag95
ag96
ag94
ag94
ag96
ag96
ag94
ag94
ag94
ag96
ag96
ag96
ag94
ag96
ag94
ag94
ag52
ag52
ag94
ag94
ag94
ag94
ag52
ag94
ag94
ag96
ag95
ag96
ag95
ag96
ag94
ag94
ag96
ag95
ag95
ag96
ag96
ag94
ag94
ag94
ag96
ag94
ag96
ag94
ag95
ag94
ag95
ag52
ag52
ag52
ag94
ag94
ag96
asg99
(lp239
g96
ag95
ag96
ag94
ag94
ag95
ag52
ag94
ag96
ag95
ag52
ag94
ag96
ag94
ag95
ag96
ag95
ag94
ag96
ag52
ag52
ag94
ag96
ag94
ag94
ag94
ag96
ag94
ag52
ag96
ag52
ag94
ag95
ag95
ag96
ag95
ag96
ag96
ag94
ag96
ag95
ag94
ag52
ag96
ag96
ag96
ag95
ag95
ag96
ag94
ag96
ag95
ag95
ag94
ag94
ag94
ag96
ag95
ag96
ag52
ag52
ag96
ag94
ag94
ag95
ag94
ag94
ag96
ag52
ag95
ag96
ag94
ag95
ag96
ag94
ag52
ag94
ag95
ag95
ag96
ag94
ag94
ag94
ag96
ag95
ag96
ag96
ag96
ag96
ag94
ag96
ag95
ag52
ag94
ag94
ag95
ag52
ag96
ag52
ag96
ag94
ag95
ag96
ag96
ag94
ag95
ag95
ag94
ag94
ag95
ag96
ag94
ag94
ag96
ag52
ag95
ag94
ag52
ag94
ag52
ag95
ag96
ag96
ag95
ag94
ag95
ag96
ag95
ag95
ag96
ag95
ag94
ag94
ag94
ag94
ag95
ag94
ag96
ag95
ag94
ag95
ag96
ag94
ag95
ag96
ag96
ag94
ag94
ag95
ag96
ag94
ag94
ag96
ag96
ag94
ag94
ag94
ag96
ag96
ag96
ag94
ag96
ag94
ag94
ag52
ag52
ag94
ag94
ag94
ag94
ag52
ag94
ag94
ag96
ag95
ag96
ag95
ag96
ag94
ag94
ag96
ag95
ag95
ag96
ag96
ag94
ag94
ag94
ag96
ag94
ag96
ag94
ag95
ag94
ag95
ag52
ag52
ag52
ag94
ag94
ag96
asaatp240
Rp241
aatp242
Rp243
.