ccollections
OrderedDict
p0
((lp1
(lp2
S'combination_dict'
p3
ag0
((lp4
(lp5
S'r_to_g_config'
p6
aS'br'
p7
aa(lp8
S'num_turns'
p9
aI3
aa(lp10
S'start_direction'
p11
acutils_ms
StartDirection
p12
(I1
tp13
Rp14
aa(lp15
S'assistance_type'
p16
acutils_ms
AssistanceType
p17
(I0
tp18
Rp19
aa(lp20
S'start_mode'
p21
aS't'
p22
aa(lp23
S'ui_given_a_noise'
p24
aF0.7
aa(lp25
S'um_given_ui_noise'
p26
aF0.7
aa(lp27
S'entropy_threshold'
p28
aF0.5
aatp29
Rp30
aa(lp31
S'data'
p32
accollections
defaultdict
p33
(c__builtin__
list
p34
tp35
Rp36
S'a'
p37
(lp38
S'mode_l'
p39
aS'move_n'
p40
ag40
aS'mode_r'
p41
ag40
ag41
ag40
ag40
ag39
ag39
ag41
ag41
ag41
ag41
aS'move_p'
p42
ag41
ag42
ag41
ag41
ag41
ag40
ag41
ag40
ag39
ag40
ag39
ag39
ag39
ag39
ag39
ag39
ag42
ag41
ag40
ag41
ag41
ag42
ag41
ag41
ag41
ag42
asS'assistance_match_with_ground_truth'
p43
(lp44
I01
aI00
aI00
aI01
aI00
aI01
aI00
aI01
aI00
aI00
aI00
aI00
aI00
aI01
aI00
aI01
aI01
aI00
aI00
aI01
aI00
aI01
aI00
aI01
aI00
aI00
aI00
aI00
aI00
aI00
aI01
aI01
aI01
aI01
aI00
aI01
aI01
aI00
aI00
aI01
aI01
asS'total_steps'
p45
I41
sS'sp'
p46
(lp47
(S'p0'
p48
I0
S'y'
p49
tp50
a(g48
I0
g49
tp51
a(g48
I0
S'x'
p52
tp53
a(g48
I0
g49
tp54
ag53
ag54
ag51
a(S'p1'
p55
I0
g49
tp56
a(g55
I0
g49
tp57
a(g55
I0
S't'
p58
tp59
a(g55
I0
g58
tp60
ag60
ag60
a(g55
I0
g52
tp61
a(g55
I0
g58
tp62
ag61
a(S'p2'
p63
I0
g52
tp64
ag64
a(g63
I0
g52
tp65
a(g63
I0
g49
tp66
a(g63
I0
g52
tp67
ag66
a(g63
I0
g58
tp68
a(g63
I0
g49
tp69
a(g55
I0
g49
tp70
ag57
ag57
ag57
ag57
ag57
a(g55
I0
g52
tp71
ag64
ag66
a(S'p3'
p72
I0
g49
tp73
a(g72
I0
g49
tp74
a(g72
I0
g58
tp75
a(g72
F1.5707963267948966
g58
tp76
a(g72
F1.5707963267948966
g58
tp77
ag77
a(g72
F1.5707963267948966
g52
tp78
a(S'p4'
p79
F1.5707963267948966
g52
tp80
asS's'
p81
(lp82
(g48
I0
g22
tp83
ag50
ag51
ag53
ag54
ag53
ag54
ag51
ag56
ag57
ag59
ag60
ag60
ag60
ag61
ag62
ag61
ag64
ag64
ag65
ag66
ag67
ag66
ag68
ag69
ag70
ag57
ag57
ag57
ag57
ag57
ag71
ag64
ag66
ag73
ag74
ag75
ag76
ag77
ag77
ag78
asS'ui'
p84
(lp85
g46
ag46
aS'ss'
p86
aS'hp'
p87
aS'hs'
p88
ag87
ag86
ag86
ag46
ag46
ag46
ag86
ag88
ag87
ag88
ag87
ag46
ag86
ag87
ag87
ag46
ag87
ag87
ag88
ag86
ag46
ag87
ag46
ag88
ag86
ag88
ag86
ag87
ag86
ag87
ag87
ag88
ag87
ag87
ag87
ag46
asS'um_before'
p89
(lp90
g88
ag46
ag88
ag87
ag88
ag87
ag46
ag86
ag46
ag87
ag46
ag86
ag86
ag87
ag88
ag87
ag46
ag86
ag46
ag87
ag88
ag87
ag87
ag88
ag46
ag46
ag86
ag46
ag46
ag86
ag88
ag46
ag87
ag86
ag46
ag87
ag46
ag46
ag46
ag87
ag46
asS'um_after'
p91
(lp92
g88
ag46
ag88
ag87
ag88
ag87
ag46
ag86
ag46
ag87
ag46
aNaNag87
ag88
ag87
ag46
aNag46
ag87
ag88
ag87
ag87
ag88
ag46
ag46
aNag46
ag46
aNag88
ag46
ag87
ag86
ag46
ag87
ag46
ag46
ag46
ag87
ag46
asaa(lp93
S'index'
p94
aI111957
aatp95
Rp96
.