ccollections
OrderedDict
p0
((lp1
(lp2
S'index'
p3
aI4506
aa(lp4
S'combination_dict'
p5
ag0
((lp6
(lp7
S'r_to_g_config'
p8
aS'tl'
p9
aa(lp10
S'num_turns'
p11
aI1
aa(lp12
S'start_direction'
p13
acutils_ms
StartDirection
p14
(I1
tp15
Rp16
aa(lp17
S'assistance_type'
p18
acutils_ms
AssistanceType
p19
(I0
tp20
Rp21
aa(lp22
S'start_mode'
p23
aS'x'
p24
aa(lp25
S'ui_given_a_noise'
p26
aF0.1
aa(lp27
S'um_given_ui_noise'
p28
aF0.5
aa(lp29
S'entropy_threshold'
p30
aF0.8
aa(lp31
S'is_assistance'
p32
aI01
aatp33
Rp34
aa(lp35
S'trials'
p36
ag0
((lp37
(lp38
I0
accollections
defaultdict
p39
(c__builtin__
list
p40
tp41
Rp42
S'a'
p43
(lp44
S'mode_r'
p45
ag45
aS'move_p'
p46
ag46
ag45
ag45
ag45
ag46
ag46
ag46
ag45
ag45
ag45
ag45
aS'move_n'
p47
asS'assistance_match_with_ground_truth'
p48
(lp49
I00
aI01
aI00
aI01
aI00
aI00
aI01
aI00
aI00
aI01
aI00
aI00
aI00
aI01
aI01
asS'total_steps'
p50
I15
sS'sp'
p51
(S'p2'
p52
F1.5707963267948966
S'x'
p53
tp54
sS's'
p55
(lp56
(S'p0'
p57
I0
g24
tp58
ag58
a(g57
I0
S'y'
p59
tp60
ag60
a(S'p1'
p61
I0
g59
tp62
ag62
ag62
a(g61
I0
S't'
p63
tp64
ag64
ag64
a(g61
F1.5707963267948966
g63
tp65
ag65
ag65
ag65
a(g61
F1.5707963267948966
g53
tp66
asS'ui'
p67
(lp68
S'hp'
p69
ag69
ag51
ag51
ag69
ag69
ag69
aS'ss'
p70
aS'hs'
p71
ag51
ag69
ag69
ag51
ag69
ag70
asS'um_before'
p72
(lp73
g71
ag69
ag71
ag51
ag51
ag71
ag69
ag71
ag71
ag51
ag51
ag71
ag51
ag69
ag70
asS'um_after'
p74
(lp75
Nag69
aNag51
aNaNag69
aNaNag51
aNaNaNag69
ag70
asaa(lp76
I1
ag39
(g40
tp77
Rp78
g43
(lp79
g45
ag46
ag45
ag45
ag45
ag46
ag46
ag45
ag45
ag47
ag47
asg48
(lp80
I01
aI01
aI00
aI00
aI01
aI00
aI01
aI00
aI01
aI00
aI01
asg50
I11
sg51
g54
sg55
(lp81
(g57
I0
g24
tp82
ag60
ag62
a(g61
I0
g59
tp83
ag83
ag64
ag64
ag65
ag65
ag66
ag66
asg67
(lp84
g69
ag51
ag71
ag69
ag69
ag51
ag51
ag51
ag69
ag70
ag70
asg72
(lp85
g69
ag51
ag70
ag51
ag69
ag71
ag51
ag51
ag69
ag71
ag70
asg74
(lp86
g69
ag51
ag70
aNag69
aNag51
aNag69
aNag70
asaa(lp87
I2
ag39
(g40
tp88
Rp89
g43
(lp90
g45
ag46
ag46
ag46
ag45
ag45
ag45
ag45
ag45
ag45
ag45
ag45
ag46
ag45
ag45
ag45
ag45
ag47
ag47
ag47
ag47
asg48
(lp91
I01
aI00
aI00
aI01
aI00
aI00
aI00
aI00
aI00
aI00
aI00
aI01
aI01
aI00
aI00
aI00
aI01
aI00
aI00
aI00
aI01
asg50
I21
sg51
g54
sg55
(lp92
(g57
I0
g24
tp93
ag60
ag60
ag60
ag62
ag83
ag83
ag83
ag83
ag83
ag83
ag83
ag64
ag65
ag65
ag65
ag65
ag66
ag66
ag66
ag66
asg67
(lp94
g69
ag71
ag51
ag51
ag69
ag71
ag69
ag69
ag69
ag69
ag71
ag69
ag51
ag69
ag69
ag69
ag69
ag70
ag70
ag70
ag70
asg72
(lp95
g69
ag71
ag70
ag51
ag70
ag71
ag71
ag51
ag70
ag71
ag70
ag69
ag51
ag71
ag71
ag71
ag69
ag69
ag71
ag71
ag70
asg74
(lp96
g69
aNaNag51
ag70
aNaNaNag70
aNag70
ag69
ag51
aNaNaNag69
aNaNaNag70
asaa(lp97
I3
ag39
(g40
tp98
Rp99
g43
(lp100
g45
ag46
ag45
ag46
ag46
ag46
ag46
ag45
ag47
ag47
asg48
(lp101
I01
aI01
aI01
aI00
aI00
aI00
aI01
aI01
aI00
aI01
asg50
I10
sg51
g54
sg55
(lp102
(g57
I0
g24
tp103
ag60
ag62
ag64
ag64
ag64
ag64
ag65
ag66
ag66
asg67
(lp104
g69
ag51
ag69
ag51
ag51
ag51
ag51
ag69
ag70
ag70
asg72
(lp105
g69
ag51
ag69
ag71
ag71
ag71
ag51
ag69
ag71
ag70
asg74
(lp106
g69
ag51
ag69
aNaNaNag51
ag69
aNag70
asaa(lp107
I4
ag39
(g40
tp108
Rp109
g43
(lp110
g45
ag46
ag46
ag46
ag45
ag46
ag46
ag46
ag45
ag47
asg48
(lp111
I01
aI00
aI00
aI01
aI01
aI00
aI00
aI01
aI01
aI01
asg50
I10
sg51
g54
sg55
(lp112
(g57
I0
g24
tp113
ag60
ag60
ag60
ag62
ag64
ag64
ag64
ag65
ag66
asg67
(lp114
g69
ag51
ag51
ag51
ag69
ag51
ag51
ag51
ag69
ag51
asg72
(lp115
g69
ag70
ag70
ag51
ag69
ag70
ag70
ag51
ag69
ag70
asg74
(lp116
g69
aNaNag51
ag69
aNaNag51
ag69
ag70
asaa(lp117
I5
ag39
(g40
tp118
Rp119
g43
(lp120
g45
ag46
ag45
ag45
ag46
ag46
ag46
ag46
ag45
ag46
ag46
ag46
ag45
ag46
ag45
ag45
ag45
ag45
ag45
ag47
asg48
(lp121
I01
aI01
aI00
aI01
aI00
aI00
aI00
aI01
aI00
aI00
aI00
aI01
aI00
aI01
aI00
aI00
aI00
aI00
aI01
aI01
asg50
I20
sg51
g54
sg55
(lp122
(g57
I0
g24
tp123
ag60
ag62
ag62
ag64
ag64
ag64
ag64
ag65
a(g61
I0
g63
tp124
ag124
ag124
ag65
ag124
ag65
ag65
ag65
ag65
ag65
ag66
asg67
(lp125
g69
ag69
ag69
ag69
ag51
ag51
ag51
ag51
ag69
ag51
ag51
ag51
ag70
ag51
ag69
ag69
ag69
ag69
ag69
ag70
asg72
(lp126
g69
ag51
ag71
ag69
ag70
ag70
ag71
ag51
ag70
ag70
ag70
ag51
ag70
ag51
ag71
ag51
ag51
ag51
ag69
ag70
asg74
(lp127
g69
ag51
aNag69
aNaNaNag51
ag70
aNaNag51
ag70
ag51
aNaNaNaNag69
ag70
asaa(lp128
I6
ag39
(g40
tp129
Rp130
g43
(lp131
g45
ag46
ag45
ag46
ag46
ag45
ag47
asg48
(lp132
I01
aI01
aI01
aI00
aI01
aI01
aI01
asg50
I7
sg51
g54
sg55
(lp133
(g57
I0
g24
tp134
ag60
ag62
ag64
ag64
ag65
ag66
asg67
(lp135
g69
ag51
ag69
ag51
ag51
ag69
ag70
asg72
(lp136
g69
ag51
ag69
ag71
ag51
ag69
ag70
asg74
(lp137
g69
ag51
ag69
aNag51
ag69
ag70
asaa(lp138
I7
ag39
(g40
tp139
Rp140
g43
(lp141
g45
ag46
ag46
ag45
ag45
ag46
ag45
ag47
asg48
(lp142
I01
aI00
aI01
aI00
aI01
aI01
aI01
aI01
asg50
I8
sg51
g54
sg55
(lp143
(g57
I0
g24
tp144
ag60
ag60
ag62
ag62
ag64
ag65
ag66
asg67
(lp145
g69
ag51
ag70
ag69
ag69
ag51
ag69
ag70
asg72
(lp146
g69
ag70
ag51
ag71
ag69
ag51
ag69
ag70
asg74
(lp147
g69
aNag51
aNag69
ag51
ag69
ag70
asaa(lp148
I8
ag39
(g40
tp149
Rp150
g43
(lp151
g45
ag46
ag46
ag45
ag46
ag45
ag46
ag45
ag45
ag47
asg48
(lp152
I01
aI00
aI01
aI01
aI01
aI00
aI01
aI00
aI01
aI01
asg50
I10
sg51
g54
sg55
(lp153
(g57
I0
g24
tp154
ag60
ag60
ag62
ag64
ag65
ag124
ag65
ag65
ag66
asg67
(lp155
g69
ag51
ag51
ag69
ag51
ag70
ag51
ag69
ag69
ag70
asg72
(lp156
g69
ag70
ag51
ag69
ag51
ag70
ag51
ag51
ag69
ag70
asg74
(lp157
g69
aNag51
ag69
ag51
ag70
ag51
aNag69
ag70
asaa(lp158
I9
ag39
(g40
tp159
Rp160
g43
(lp161
g45
ag46
ag46
ag46
ag46
ag46
ag46
ag45
ag45
ag46
ag46
ag45
ag46
ag46
ag45
ag45
ag47
ag47
asg48
(lp162
I01
aI00
aI00
aI00
aI00
aI00
aI01
aI00
aI01
aI00
aI01
aI00
aI00
aI01
aI00
aI01
aI00
aI01
asg50
I18
sg51
g54
sg55
(lp163
(g57
I0
g24
tp164
ag60
ag60
ag60
ag60
ag60
ag60
ag62
ag62
ag64
ag64
ag65
ag124
ag124
ag65
ag65
ag66
ag66
asg67
(lp165
g69
ag51
ag51
ag51
ag69
ag69
ag51
ag69
ag69
ag51
ag51
ag69
ag51
ag51
ag69
ag69
ag70
ag70
asg72
(lp166
g69
ag69
ag71
ag70
ag69
ag69
ag51
ag71
ag69
ag69
ag51
ag70
ag71
ag51
ag71
ag69
ag69
ag70
asg74
(lp167
g69
aNaNaNaNaNag51
aNag69
aNag51
ag70
aNag51
aNag69
aNag70
asaatp168
Rp169
aatp170
Rp171
.