ccollections
OrderedDict
p0
((lp1
(lp2
S'index'
p3
aI9289
aa(lp4
S'combination_dict'
p5
ag0
((lp6
(lp7
S'r_to_g_config'
p8
aS'bl'
p9
aa(lp10
S'num_turns'
p11
aI2
aa(lp12
S'start_direction'
p13
acutils_ms
StartDirection
p14
(I3
tp15
Rp16
aa(lp17
S'assistance_type'
p18
acutils_ms
AssistanceType
p19
(I1
tp20
Rp21
aa(lp22
S'start_mode'
p23
aS't'
p24
aa(lp25
S'ui_given_a_noise'
p26
aF0.1
aa(lp27
S'um_given_ui_noise'
p28
aF0.1
aa(lp29
S'entropy_threshold'
p30
aF0.9
aa(lp31
S'is_assistance'
p32
aI00
aatp33
Rp34
aa(lp35
S'trials'
p36
ag0
((lp37
(lp38
I0
accollections
defaultdict
p39
(c__builtin__
list
p40
tp41
Rp42
S'a'
p43
(lp44
S'mode_r'
p45
ag45
aS'move_n'
p46
aS'mode_l'
p47
ag46
ag47
aS'move_p'
p48
ag47
ag46
ag47
ag46
ag45
ag47
ag48
ag47
ag46
ag47
ag46
asS'assistance_match_with_ground_truth'
p49
(lp50
I00
aI01
aI00
aI01
aI01
aI01
aI01
aI01
aI00
aI01
aI01
aI00
aI00
aI01
aI01
aI01
aI01
aI01
asS'total_steps'
p51
I18
sS'sp'
p52
(S'p3'
p53
F1.5707963267948966
S'x'
p54
tp55
sS's'
p56
(lp57
(S'p0'
p58
I0
g24
tp59
a(g58
I0
S't'
p60
tp61
a(g58
I0
g54
tp62
a(g58
I0
S'y'
p63
tp64
a(g58
I0
g54
tp65
a(S'p1'
p66
I0
g54
tp67
a(g66
I0
g60
tp68
a(g66
F1.5707963267948966
g60
tp69
a(g66
F1.5707963267948966
g63
tp70
a(g58
F1.5707963267948966
g63
tp71
a(g58
F1.5707963267948966
g54
tp72
a(g66
F1.5707963267948966
g54
tp73
a(g66
F1.5707963267948966
g60
tp74
a(g66
I0
g60
tp75
ag69
ag70
a(S'p2'
p76
F1.5707963267948966
g63
tp77
a(g76
F1.5707963267948966
g54
tp78
asS'ui'
p79
(lp80
g52
aS'hp'
p81
ag81
aS'hs'
p82
aS'ss'
p83
ag82
ag52
ag82
ag83
ag82
ag83
ag82
ag82
ag52
ag82
ag83
ag82
ag83
asS'um_before'
p84
(lp85
g52
ag81
ag81
ag82
ag83
ag82
ag52
ag82
ag52
ag82
ag83
ag82
ag83
ag52
ag82
ag83
ag82
ag83
asS'um_after'
p86
(lp87
g52
ag81
ag81
ag82
ag83
ag82
ag52
ag82
ag52
ag82
ag83
ag82
ag83
ag52
ag82
ag83
ag82
ag83
asaa(lp88
I1
ag39
(g40
tp89
Rp90
g43
(lp91
g45
ag46
ag47
ag48
ag47
ag45
ag46
ag47
ag46
asg49
(lp92
I01
aI01
aI01
aI01
aI00
aI01
aI01
aI01
aI01
asg51
I9
sg52
g55
sg56
(lp93
(g58
I0
g24
tp94
ag62
ag67
ag68
ag69
a(g66
F1.5707963267948966
g54
tp95
a(g66
F1.5707963267948966
g63
tp96
ag77
ag78
asg79
(lp97
g81
ag83
ag82
ag52
ag82
ag81
ag83
ag82
ag83
asg84
(lp98
g81
ag83
ag82
ag52
ag81
ag81
ag83
ag82
ag83
asg86
(lp99
g81
ag83
ag82
ag52
ag81
ag81
ag83
ag82
ag83
asaa(lp100
I2
ag39
(g40
tp101
Rp102
g43
(lp103
g45
ag47
ag46
ag47
ag47
ag48
ag47
ag46
ag47
ag45
ag46
asg49
(lp104
I00
aI01
aI01
aI00
aI01
aI01
aI01
aI01
aI00
aI01
aI01
asg51
I11
sg52
g55
sg56
(lp105
(g58
I0
g24
tp106
a(g58
I0
g63
tp107
ag65
ag67
a(g66
I0
g54
tp108
ag68
ag69
ag70
ag77
a(g76
F1.5707963267948966
g60
tp109
a(g76
F1.5707963267948966
g54
tp110
asg79
(lp111
g82
ag82
ag83
ag52
ag82
ag52
ag82
ag83
ag81
ag81
ag83
asg84
(lp112
g82
ag82
ag83
ag52
ag82
ag52
ag82
ag83
ag81
ag81
ag83
asg86
(lp113
g82
ag82
ag83
ag52
ag82
ag52
ag82
ag83
ag81
ag81
ag83
asaa(lp114
I3
ag39
(g40
tp115
Rp116
g43
(lp117
g45
ag46
ag47
ag48
ag47
ag46
ag47
ag46
ag47
ag46
asg49
(lp118
I01
aI01
aI01
aI01
aI01
aI01
aI01
aI00
aI01
aI01
asg51
I10
sg52
g55
sg56
(lp119
(g58
I0
g24
tp120
ag62
ag67
ag68
ag69
ag70
ag77
ag78
a(g76
F1.5707963267948966
g63
tp121
ag78
asg79
(lp122
g81
ag83
ag82
ag52
ag82
ag83
ag82
ag81
ag82
ag83
asg84
(lp123
g81
ag83
ag82
ag52
ag82
ag83
ag82
ag81
ag82
ag83
asg86
(lp124
g81
ag83
ag82
ag52
ag82
ag83
ag82
ag81
ag82
ag83
asaa(lp125
I4
ag39
(g40
tp126
Rp127
g43
(lp128
g45
ag46
ag47
ag48
ag47
ag45
ag45
ag45
ag46
ag47
ag46
asg49
(lp129
I01
aI01
aI01
aI01
aI00
aI00
aI00
aI01
aI01
aI01
aI01
asg51
I11
sg52
g55
sg56
(lp130
(g58
I0
g24
tp131
ag62
ag67
ag68
ag69
ag95
a(g66
F1.5707963267948966
g54
tp132
ag132
ag96
ag77
ag78
asg79
(lp133
g81
ag83
ag82
ag52
ag82
ag81
ag81
ag81
ag83
ag82
ag83
asg84
(lp134
g81
ag83
ag82
ag52
ag81
ag83
ag83
ag81
ag83
ag82
ag83
asg86
(lp135
g81
ag83
ag82
ag52
ag81
ag83
ag83
ag81
ag83
ag82
ag83
asaa(lp136
I5
ag39
(g40
tp137
Rp138
g43
(lp139
g45
ag46
ag47
ag48
ag45
ag48
ag47
ag45
ag48
ag47
ag48
ag45
ag47
ag46
ag47
ag48
ag47
ag46
ag47
ag46
asg49
(lp140
I01
aI01
aI01
aI00
aI01
aI00
aI00
aI01
aI00
aI01
aI00
aI00
aI01
aI01
aI01
aI01
aI01
aI01
aI01
aI01
asg51
I20
sg52
g55
sg56
(lp141
(g58
I0
g24
tp142
ag62
ag67
ag68
a(g66
I0
g63
tp143
a(g66
I0
g60
tp144
a(g66
I0
g54
tp145
a(g66
I0
g63
tp146
ag144
ag145
ag68
ag143
a(g58
I0
g63
tp147
ag65
ag67
ag68
ag69
ag70
ag77
ag78
asg79
(lp148
g81
ag83
ag82
ag52
ag81
ag81
ag82
ag81
ag81
ag82
ag82
ag52
ag82
ag83
ag82
ag52
ag82
ag83
ag82
ag83
asg84
(lp149
g81
ag83
ag82
ag82
ag81
ag81
ag81
ag81
ag81
ag82
ag82
ag52
ag82
ag83
ag82
ag52
ag82
ag83
ag82
ag83
asg86
(lp150
g81
ag83
ag82
ag82
ag81
ag81
ag81
ag81
ag81
ag82
ag82
ag52
ag82
ag83
ag82
ag52
ag82
ag83
ag82
ag83
asaa(lp151
I6
ag39
(g40
tp152
Rp153
g43
(lp154
g45
ag46
ag47
ag48
ag47
ag45
ag48
ag47
ag45
ag48
ag47
ag46
ag47
ag46
asg49
(lp155
I01
aI01
aI01
aI00
aI00
aI01
aI00
aI00
aI01
aI01
aI01
aI01
aI01
aI01
asg51
I14
sg52
g55
sg56
(lp156
(g58
I0
g24
tp157
ag62
ag67
ag68
ag145
ag146
ag144
ag145
ag146
ag144
ag69
ag70
ag77
ag78
asg79
(lp158
g81
ag83
ag82
ag81
ag52
ag81
ag81
ag82
ag81
ag52
ag82
ag83
ag82
ag83
asg84
(lp159
g81
ag83
ag82
ag81
ag81
ag81
ag81
ag81
ag81
ag52
ag82
ag83
ag82
ag83
asg86
(lp160
g81
ag83
ag82
ag81
ag81
ag81
ag81
ag81
ag81
ag52
ag82
ag83
ag82
ag83
asaa(lp161
I7
ag39
(g40
tp162
Rp163
g43
(lp164
g45
ag47
ag46
ag47
ag47
ag48
ag47
ag45
ag46
ag47
ag46
asg49
(lp165
I00
aI01
aI01
aI00
aI01
aI01
aI00
aI01
aI01
aI01
aI01
asg51
I11
sg52
g55
sg56
(lp166
(g58
I0
g24
tp167
ag107
ag65
ag67
ag108
ag68
ag69
ag95
ag96
ag77
ag78
asg79
(lp168
g82
ag82
ag83
ag82
ag82
ag52
ag83
ag81
ag83
ag82
ag83
asg84
(lp169
g82
ag82
ag83
ag52
ag82
ag52
ag81
ag81
ag83
ag82
ag83
asg86
(lp170
g82
ag82
ag83
ag52
ag82
ag52
ag81
ag81
ag83
ag82
ag83
asaa(lp171
I8
ag39
(g40
tp172
Rp173
g43
(lp174
g45
ag46
ag47
ag48
ag47
ag46
ag47
ag46
ag45
ag46
ag45
ag46
ag47
ag47
ag47
ag46
ag47
ag46
asg49
(lp175
I01
aI01
aI01
aI01
aI01
aI01
aI01
aI00
aI01
aI00
aI01
aI01
aI00
aI00
aI01
aI00
aI01
aI01
asg51
I18
sg52
g55
sg56
(lp176
(g58
I0
g24
tp177
ag62
ag67
ag68
ag69
ag70
ag77
ag78
a(g76
F1.5707963267948966
g60
tp178
ag110
a(g66
F1.5707963267948966
g54
tp179
ag96
ag77
a(g76
F1.5707963267948966
g63
tp180
a(g76
F1.5707963267948966
g63
tp181
ag78
ag121
ag78
asg79
(lp182
g81
ag83
ag82
ag52
ag82
ag83
ag82
ag82
ag81
ag83
ag81
ag83
ag52
ag52
ag82
ag81
ag82
ag83
asg84
(lp183
g81
ag83
ag82
ag52
ag82
ag83
ag82
ag82
ag81
ag52
ag81
ag83
ag83
ag52
ag82
ag81
ag82
ag83
asg86
(lp184
g81
ag83
ag82
ag52
ag82
ag83
ag82
ag82
ag81
ag52
ag81
ag83
ag83
ag52
ag82
ag81
ag82
ag83
asaa(lp185
I9
ag39
(g40
tp186
Rp187
g43
(lp188
g45
ag45
ag46
ag47
ag46
ag45
ag46
ag46
ag45
ag46
ag47
ag48
ag47
ag48
ag48
ag47
ag46
ag47
ag46
asg49
(lp189
I00
aI01
aI00
aI01
aI00
aI01
aI00
aI00
aI01
aI01
aI01
aI01
aI00
aI00
aI01
aI01
aI01
aI01
aI01
asg51
I19
sg52
g55
sg56
(lp190
(g58
I0
g24
tp191
ag61
ag62
ag64
ag65
a(g58
I0
g60
tp192
ag62
a(g58
I0
g54
tp193
ag192
ag62
ag67
ag68
ag69
ag75
a(g66
I0
g60
tp194
ag69
ag70
ag77
ag78
asg79
(lp195
g81
ag81
ag81
ag82
ag82
ag81
ag83
ag83
ag81
ag83
ag82
ag52
ag83
ag83
ag52
ag82
ag83
ag82
ag83
asg84
(lp196
g52
ag81
ag81
ag82
ag82
ag81
ag52
ag82
ag81
ag83
ag82
ag52
ag83
ag83
ag52
ag82
ag83
ag82
ag83
asg86
(lp197
g52
ag81
ag81
ag82
ag82
ag81
ag52
ag82
ag81
ag83
ag82
ag52
ag83
ag83
ag52
ag82
ag83
ag82
ag83
asaatp198
Rp199
aatp200
Rp201
.