ccollections
OrderedDict
p0
((lp1
(lp2
S'combination_dict'
p3
ag0
((lp4
(lp5
S'r_to_g_config'
p6
aS'tr'
p7
aa(lp8
S'num_turns'
p9
aI3
aa(lp10
S'start_direction'
p11
acutils_ms
StartDirection
p12
(I0
tp13
Rp14
aa(lp15
S'assistance_type'
p16
acutils_ms
AssistanceType
p17
(I2
tp18
Rp19
aa(lp20
S'start_mode'
p21
aS't'
p22
aa(lp23
S'ui_given_a_noise'
p24
aF0.7
aa(lp25
S'um_given_ui_noise'
p26
aF0.7
aa(lp27
S'entropy_threshold'
p28
aF0.9
aatp29
Rp30
aa(lp31
S'data'
p32
accollections
defaultdict
p33
(c__builtin__
list
p34
tp35
Rp36
S'a'
p37
(lp38
S'mode_r'
p39
aS'move_p'
p40
aS'mode_l'
p41
ag40
ag39
ag40
ag39
ag41
ag39
ag41
ag40
ag39
ag41
ag41
ag40
ag41
ag41
ag40
ag39
ag39
ag39
ag40
ag39
ag39
ag41
ag41
ag40
ag41
ag40
ag41
ag39
ag39
ag41
ag40
ag39
ag41
ag41
ag40
ag39
ag40
asS'assistance_match_with_ground_truth'
p42
(lp43
I01
aI00
aI01
aI01
aI01
aI01
aI00
aI00
aI00
aI01
aI01
aI00
aI00
aI01
aI00
aI00
aI01
aI01
aI00
aI00
aI01
aI00
aI00
aI00
aI00
aI01
aI00
aI01
aI00
aI00
aI00
aI00
aI01
aI00
aI00
aI00
aI01
aI00
aI01
aI01
asS'total_steps'
p44
I40
sS'sp'
p45
(lp46
(S'p0'
p47
I0
S'x'
p48
tp49
a(g47
I0
S'y'
p50
tp51
a(g47
I0
g48
tp52
a(S'p1'
p53
I0
g48
tp54
a(g53
I0
g50
tp55
a(S'p2'
p56
I0
g50
tp57
a(g56
I0
g48
tp58
a(g56
I0
g50
tp59
ag58
a(g56
I0
S't'
p60
tp61
a(g56
F1.5707963267948966
g60
tp62
a(g56
F1.5707963267948966
g50
tp63
a(g56
F1.5707963267948966
g50
tp64
a(g56
F1.5707963267948966
g48
tp65
a(g56
F1.5707963267948966
g50
tp66
a(g56
F1.5707963267948966
g50
tp67
ag65
a(S'p3'
p68
F1.5707963267948966
g48
tp69
a(g68
F1.5707963267948966
g48
tp70
ag70
a(g68
F1.5707963267948966
g50
tp71
a(g68
F1.5707963267948966
g48
tp72
ag70
a(g68
F1.5707963267948966
g60
tp73
a(g68
F1.5707963267948966
g60
tp74
a(g68
F1.5707963267948966
g50
tp75
a(g68
F1.5707963267948966
g60
tp76
ag75
ag76
a(g68
F1.5707963267948966
g48
tp77
a(g68
F1.5707963267948966
g48
tp78
ag73
ag75
ag72
ag73
a(g68
F1.5707963267948966
g60
tp79
ag75
ag72
ag71
a(S'p4'
p80
F1.5707963267948966
g50
tp81
asS's'
p82
(lp83
(g47
I0
g22
tp84
ag49
ag51
ag52
ag54
ag55
ag57
ag58
ag59
ag58
ag61
ag62
ag63
ag64
ag65
ag66
ag67
ag65
ag69
ag70
ag70
ag71
ag72
ag70
ag73
ag74
ag75
ag76
ag75
ag76
ag77
ag78
ag73
ag75
ag72
ag73
ag79
ag75
ag72
ag71
asS'ui'
p85
(lp86
S'hp'
p87
ag45
aS'ss'
p88
ag45
ag87
ag45
aS'hs'
p89
ag88
ag89
ag87
ag45
ag88
ag87
ag89
ag87
ag87
ag87
ag45
ag88
ag45
ag87
ag87
ag45
ag88
ag89
ag89
ag87
ag89
ag89
ag89
ag87
ag87
ag89
ag89
ag89
ag87
ag89
ag45
ag87
ag45
asS'um_before'
p90
(lp91
g87
ag87
ag89
ag45
ag87
ag45
ag89
ag87
ag89
ag89
ag45
ag89
ag88
ag89
ag87
ag45
ag89
ag45
ag45
ag45
ag87
ag89
ag45
ag89
ag45
ag89
ag87
ag89
ag87
ag87
ag88
ag89
ag89
ag89
ag89
ag88
ag89
ag89
ag87
ag45
asS'um_after'
p92
(lp93
g87
ag87
ag89
ag45
ag87
ag45
ag89
ag87
ag89
ag89
ag45
ag89
ag88
ag89
ag87
ag45
ag89
ag45
ag45
ag45
ag87
ag89
ag45
ag89
ag45
ag89
ag87
ag89
ag87
ag87
ag88
ag89
ag89
ag89
ag89
ag88
ag89
ag89
ag87
ag45
asaa(lp94
S'index'
p95
aI23190
aatp96
Rp97
.