ccollections
OrderedDict
p0
((lp1
(lp2
S'index'
p3
aI3833
aa(lp4
S'combination_dict'
p5
ag0
((lp6
(lp7
S'r_to_g_config'
p8
aS'tr'
p9
aa(lp10
S'num_turns'
p11
aI3
aa(lp12
S'start_direction'
p13
acutils_ms
StartDirection
p14
(I1
tp15
Rp16
aa(lp17
S'assistance_type'
p18
acutils_ms
AssistanceType
p19
(I1
tp20
Rp21
aa(lp22
S'start_mode'
p23
aS't'
p24
aa(lp25
S'ui_given_a_noise'
p26
aF0.7
aa(lp27
S'um_given_ui_noise'
p28
aF0.7
aa(lp29
S'entropy_threshold'
p30
aF0.6
aa(lp31
S'is_assistance'
p32
aI00
aatp33
Rp34
aa(lp35
S'trials'
p36
ag0
((lp37
(lp38
I0
accollections
defaultdict
p39
(c__builtin__
list
p40
tp41
Rp42
S'a'
p43
(lp44
S'mode_l'
p45
aS'move_p'
p46
ag45
aS'mode_r'
p47
ag46
ag47
ag45
ag46
ag45
ag46
ag47
ag46
ag45
ag47
ag45
ag46
ag45
ag45
ag45
ag45
ag46
ag45
ag46
ag47
ag46
ag45
ag47
ag45
ag45
ag47
ag46
ag47
ag47
ag47
ag46
ag45
ag47
ag45
ag46
ag47
ag46
ag45
ag46
ag47
ag46
ag45
asS'assistance_match_with_ground_truth'
p48
(lp49
I01
aI01
aI00
aI01
aI01
aI00
aI01
aI00
aI01
aI01
aI01
aI00
aI00
aI00
aI01
aI00
aI00
aI00
aI00
aI01
aI00
aI01
aI00
aI01
aI00
aI00
aI00
aI00
aI00
aI01
aI00
aI00
aI00
aI01
aI00
aI00
aI00
aI01
aI01
aI01
aI00
aI01
aI01
aI01
aI00
aI00
asS'total_steps'
p50
I46
sS'sp'
p51
(S'p4'
p52
I0
S'x'
p53
tp54
sS's'
p55
(lp56
(S'p0'
p57
I0
g24
tp58
a(g57
I0
S'y'
p59
tp60
a(S'p1'
p61
I0
g59
tp62
a(g61
I0
S't'
p63
tp64
a(g61
I0
g53
tp65
a(S'p2'
p66
I0
g53
tp67
a(g66
I0
g63
tp68
a(g66
I0
g59
tp69
a(g61
I0
g59
tp70
a(g61
I0
g53
tp71
ag67
a(g66
I0
g59
tp72
a(g66
I0
g63
tp73
a(g66
I0
g53
tp74
ag68
ag69
ag73
a(g66
I0
g63
tp75
ag75
ag75
ag69
ag70
ag71
a(g61
I0
g63
tp76
ag65
a(g61
I0
g59
tp77
ag64
a(g61
I0
g59
tp78
a(g61
I0
g59
tp79
ag64
ag65
ag76
a(g61
I0
g63
tp80
ag80
ag65
ag77
ag64
ag78
ag71
ag67
ag72
ag73
ag69
a(S'p3'
p81
I0
g59
tp82
a(g81
I0
g63
tp83
a(g81
I0
g53
tp84
asS'ui'
p85
(lp86
S'ss'
p87
aS'hs'
p88
ag51
aS'hp'
p89
ag51
ag87
ag88
ag51
ag88
ag88
ag89
ag51
ag89
ag87
ag88
ag89
ag87
ag88
ag88
ag88
ag89
ag88
ag88
ag51
ag89
ag89
ag51
ag87
ag89
ag89
ag51
ag89
ag89
ag89
ag89
ag88
ag88
ag88
ag51
ag89
ag89
ag88
ag88
ag89
ag51
ag87
asS'um_before'
p90
(lp91
g88
ag51
ag89
ag89
ag51
ag88
ag88
ag87
ag88
ag51
ag89
ag89
ag89
ag88
ag88
ag89
ag51
ag51
ag51
ag88
ag87
ag88
ag88
ag89
ag89
ag89
ag88
ag87
ag89
ag89
ag88
ag87
ag87
ag89
ag89
ag89
ag88
ag88
ag51
ag89
ag89
ag88
ag51
ag89
ag89
ag51
asS'um_after'
p92
(lp93
g88
ag51
ag89
ag89
ag51
ag88
ag88
ag87
ag88
ag51
ag89
ag89
ag89
ag88
ag88
ag89
ag51
ag51
ag51
ag88
ag87
ag88
ag88
ag89
ag89
ag89
ag88
ag87
ag89
ag89
ag88
ag87
ag87
ag89
ag89
ag89
ag88
ag88
ag51
ag89
ag89
ag88
ag51
ag89
ag89
ag51
asaa(lp94
I1
ag39
(g40
tp95
Rp96
g43
(lp97
g45
ag45
ag47
ag47
ag47
ag46
ag45
ag45
ag45
ag46
ag47
ag45
ag46
ag45
ag45
ag45
ag47
ag47
ag45
ag45
ag45
ag45
ag47
ag45
ag46
ag45
ag46
ag47
ag46
ag46
ag45
ag45
ag45
ag47
ag47
ag45
ag45
ag45
ag47
ag46
ag45
ag47
ag45
ag45
ag45
ag46
ag47
ag46
ag45
ag45
ag47
ag45
ag47
ag47
ag46
ag47
ag45
ag47
ag46
ag47
ag47
ag46
ag45
ag46
ag47
ag47
ag46
ag47
ag46
ag45
ag47
ag45
ag47
ag47
ag45
ag46
ag45
ag46
ag47
ag47
ag47
ag47
ag45
ag45
ag46
ag47
ag47
ag47
ag47
ag47
ag45
ag46
ag47
ag47
ag46
ag47
ag46
ag46
ag46
ag45
ag47
ag47
ag47
ag47
ag47
ag47
ag47
ag47
ag47
ag45
ag46
ag47
ag45
ag46
ag45
ag45
ag45
ag47
ag47
ag46
ag46
ag45
ag45
ag45
ag45
ag45
ag45
ag45
ag47
ag47
ag45
ag46
ag45
ag45
ag47
ag46
ag47
ag47
ag47
ag46
ag45
ag45
ag45
ag46
ag45
ag46
ag45
ag46
ag47
ag45
ag47
ag46
ag45
ag46
ag45
ag46
ag47
ag47
ag47
ag46
ag45
ag45
ag45
ag47
ag45
ag47
ag47
ag45
ag46
ag47
ag46
ag47
ag45
ag45
ag45
ag45
ag45
ag46
ag45
ag45
ag46
ag47
ag47
ag46
ag47
ag45
ag46
ag47
ag47
ag46
ag46
ag47
ag45
ag45
ag46
ag47
ag46
ag45
ag47
ag47
ag47
asg48
(lp98
I00
aI00
aI00
aI00
aI01
aI01
aI00
aI00
aI01
aI00
aI00
aI01
aI00
aI00
aI00
aI00
aI00
aI00
aI00
aI00
aI00
aI00
aI00
aI01
aI00
aI01
aI00
aI01
aI00
aI00
aI00
aI00
aI00
aI00
aI00
aI00
aI00
aI00
aI01
aI00
aI00
aI00
aI00
aI00
aI01
aI00
aI01
aI01
aI00
aI00
aI00
aI00
aI00
aI01
aI00
aI00
aI00
aI01
aI01
aI00
aI01
aI00
aI01
aI00
aI00
aI01
aI00
aI01
aI00
aI00
aI00
aI00
aI00
aI00
aI01
aI01
aI01
aI00
aI00
aI00
aI00
aI00
aI00
aI01
aI00
aI00
aI00
aI00
aI00
aI00
aI01
aI00
aI00
aI01
aI00
aI01
aI00
aI00
aI00
aI00
aI00
aI00
aI00
aI00
aI00
aI00
aI00
aI00
aI00
aI01
aI00
aI00
aI01
aI00
aI00
aI00
aI00
aI00
aI01
aI00
aI01
aI00
aI00
aI00
aI00
aI00
aI00
aI00
aI00
aI00
aI01
aI00
aI00
aI00
aI01
aI00
aI00
aI00
aI01
aI01
aI00
aI00
aI01
aI00
aI01
aI00
aI01
aI00
aI00
aI00
aI01
aI00
aI01
aI00
aI01
aI00
aI00
aI00
aI01
aI01
aI00
aI00
aI00
aI00
aI00
aI00
aI00
aI01
aI00
aI01
aI01
aI00
aI00
aI00
aI00
aI00
aI01
aI00
aI00
aI01
aI00
aI00
aI01
aI01
aI00
aI01
aI01
aI00
aI01
aI00
aI01
aI00
aI00
aI01
aI00
aI01
aI00
aI00
aI00
aI00
aI00
asg50
I201
sg51
(g66
F1.5707963267948966
g53
tp99
sg55
(lp100
(g57
I0
g24
tp101
a(g57
I0
g63
tp102
a(g57
I0
g53
tp103
a(g57
I0
g53
tp104
a(g57
I0
g53
tp105
a(g57
I0
g59
tp106
ag62
a(g61
I0
g59
tp107
ag79
ag71
ag76
ag78
ag71
ag77
ag107
ag79
ag64
ag80
ag78
ag79
ag107
ag79
ag64
ag78
ag71
ag77
ag71
a(g57
I0
g53
tp108
ag106
a(g57
I0
g59
tp109
a(g57
I0
g63
tp110
ag102
a(g57
I0
g63
tp111
ag103
ag104
a(g57
I0
g63
tp112
ag102
ag102
ag103
ag106
ag110
ag103
ag112
ag102
ag102
ag60
a(g57
I0
g53
tp113
ag106
ag62
ag107
ag64
ag78
ag64
a(g61
I0
g63
tp114
ag65
ag76
ag78
ag64
ag65
ag67
a(g66
I0
g53
tp115
ag72
ag70
ag71
ag108
ag104
ag106
ag113
ag106
ag110
ag103
ag112
ag103
ag105
ag112
ag60
ag62
ag71
ag76
ag80
ag80
ag80
ag78
ag107
ag71
ag76
ag80
ag114
ag80
ag80
ag78
ag71
ag108
ag105
ag106
ag113
ag106
ag109
ag109
ag110
ag103
ag105
ag105
ag105
ag105
ag105
ag104
ag104
ag104
ag112
ag60
ag113
ag112
ag60
ag110
ag111
ag102
ag103
ag104
ag106
ag109
ag62
ag79
ag107
ag107
ag107
ag107
ag107
ag64
ag80
ag78
ag71
ag77
ag79
ag64
ag65
ag108
ag104
ag105
ag106
ag62
ag79
ag107
ag71
ag77
ag71
ag77
ag71
ag108
ag112
ag103
ag106
ag110
ag60
ag110
ag60
ag113
ag104
ag104
ag106
ag62
ag79
ag107
ag64
ag78
ag64
ag80
ag78
ag71
ag76
ag65
ag67
ag68
a(g66
I0
g63
tp116
ag75
ag75
ag75
ag69
ag70
ag107
ag71
ag76
ag114
ag65
ag67
ag68
ag69
ag82
a(g81
I0
g59
tp117
ag83
a(g81
I0
g63
tp118
a(g81
F1.5707963267948966
g63
tp119
a(g81
F1.5707963267948966
g59
tp120
a(g81
F1.5707963267948966
g59
tp121
a(g81
F1.5707963267948966
g53
tp122
a(g66
F1.5707963267948966
g53
tp123
a(g66
F1.5707963267948966
g59
tp124
a(g66
F1.5707963267948966
g63
tp125
a(g66
F1.5707963267948966
g53
tp126
a(g66
F1.5707963267948966
g53
tp127
ag127
asg85
(lp128
g88
ag89
ag51
ag89
ag88
ag87
ag88
ag89
ag87
ag87
ag88
ag88
ag89
ag88
ag87
ag87
ag51
ag87
ag87
ag88
ag87
ag89
ag89
ag88
ag51
ag88
ag89
ag89
ag51
ag89
ag51
ag87
ag89
ag88
ag88
ag88
ag87
ag88
ag51
ag51
ag88
ag88
ag88
ag87
ag87
ag88
ag51
ag88
ag89
ag88
ag88
ag89
ag88
ag89
ag88
ag51
ag51
ag89
ag51
ag87
ag89
ag51
ag88
ag51
ag88
ag87
ag88
ag89
ag51
ag89
ag87
ag89
ag87
ag87
ag88
ag51
ag88
ag87
ag89
ag87
ag87
ag88
ag88
ag88
ag88
ag89
ag89
ag89
ag87
ag87
ag88
ag87
ag51
ag89
ag88
ag89
ag89
ag88
ag88
ag51
ag89
ag89
ag87
ag87
ag87
ag88
ag88
ag51
ag88
ag88
ag87
ag87
ag88
ag51
ag89
ag88
ag89
ag51
ag88
ag51
ag51
ag89
ag89
ag88
ag88
ag88
ag88
ag88
ag51
ag88
ag88
ag51
ag51
ag88
ag89
ag89
ag51
ag89
ag51
ag51
ag89
ag88
ag88
ag51
ag88
ag51
ag88
ag87
ag88
ag89
ag89
ag89
ag88
ag51
ag88
ag87
ag88
ag51
ag89
ag51
ag87
ag88
ag89
ag87
ag89
ag89
ag88
ag87
ag87
ag89
ag87
ag88
ag87
ag88
ag87
ag88
ag87
ag87
ag88
ag88
ag88
ag51
ag88
ag51
ag51
ag88
ag51
ag89
ag89
ag51
ag51
ag88
ag89
ag88
ag87
ag89
ag89
ag89
ag88
ag88
ag89
asg90
(lp129
g51
ag89
ag51
ag87
ag89
ag51
ag51
ag87
ag88
ag88
ag88
ag88
ag89
ag51
ag87
ag89
ag87
ag88
ag87
ag51
ag87
ag89
ag88
ag88
ag89
ag88
ag87
ag89
ag87
ag89
ag51
ag87
ag89
ag51
ag88
ag51
ag51
ag89
ag89
ag89
ag89
ag88
ag51
ag51
ag88
ag88
ag89
ag51
ag51
ag89
ag88
ag89
ag51
ag89
ag88
ag88
ag89
ag89
ag51
ag87
ag89
ag87
ag88
ag87
ag51
ag89
ag88
ag89
ag89
ag89
ag88
ag89
ag87
ag88
ag88
ag51
ag88
ag88
ag87
ag87
ag87
ag88
ag51
ag88
ag88
ag87
ag51
ag87
ag87
ag88
ag88
ag87
ag87
ag89
ag88
ag89
ag87
ag87
ag89
ag89
ag87
ag87
ag87
ag87
ag87
ag51
ag51
ag51
ag88
ag88
ag88
ag88
ag88
ag89
ag87
ag51
ag89
ag51
ag89
ag87
ag51
ag87
ag51
ag51
ag51
ag51
ag51
ag89
ag87
ag88
ag88
ag89
ag87
ag89
ag89
ag87
ag51
ag87
ag89
ag51
ag87
ag51
ag88
ag89
ag88
ag89
ag88
ag87
ag88
ag89
ag89
ag89
ag88
ag89
ag88
ag88
ag51
ag51
ag89
ag51
ag87
ag51
ag89
ag88
ag89
ag87
ag88
ag88
ag88
ag89
ag51
ag88
ag87
ag51
ag51
ag51
ag88
ag87
ag51
ag88
ag88
ag51
ag89
ag51
ag88
ag88
ag51
ag51
ag89
ag87
ag51
ag88
ag87
ag88
ag87
ag89
ag89
ag89
ag51
ag51
ag87
asg92
(lp130
g51
ag89
ag51
ag87
ag89
ag51
ag51
ag87
ag88
ag88
ag88
ag88
ag89
ag51
ag87
ag89
ag87
ag88
ag87
ag51
ag87
ag89
ag88
ag88
ag89
ag88
ag87
ag89
ag87
ag89
ag51
ag87
ag89
ag51
ag88
ag51
ag51
ag89
ag89
ag89
ag89
ag88
ag51
ag51
ag88
ag88
ag89
ag51
ag51
ag89
ag88
ag89
ag51
ag89
ag88
ag88
ag89
ag89
ag51
ag87
ag89
ag87
ag88
ag87
ag51
ag89
ag88
ag89
ag89
ag89
ag88
ag89
ag87
ag88
ag88
ag51
ag88
ag88
ag87
ag87
ag87
ag88
ag51
ag88
ag88
ag87
ag51
ag87
ag87
ag88
ag88
ag87
ag87
ag89
ag88
ag89
ag87
ag87
ag89
ag89
ag87
ag87
ag87
ag87
ag87
ag51
ag51
ag51
ag88
ag88
ag88
ag88
ag88
ag89
ag87
ag51
ag89
ag51
ag89
ag87
ag51
ag87
ag51
ag51
ag51
ag51
ag51
ag89
ag87
ag88
ag88
ag89
ag87
ag89
ag89
ag87
ag51
ag87
ag89
ag51
ag87
ag51
ag88
ag89
ag88
ag89
ag88
ag87
ag88
ag89
ag89
ag89
ag88
ag89
ag88
ag88
ag51
ag51
ag89
ag51
ag87
ag51
ag89
ag88
ag89
ag87
ag88
ag88
ag88
ag89
ag51
ag88
ag87
ag51
ag51
ag51
ag88
ag87
ag51
ag88
ag88
ag51
ag89
ag51
ag88
ag88
ag51
ag51
ag89
ag87
ag51
ag88
ag87
ag88
ag87
ag89
ag89
ag89
ag51
ag51
ag87
asaa(lp131
I2
ag39
(g40
tp132
Rp133
g43
(lp134
g45
ag46
ag47
ag47
ag46
ag45
ag45
ag45
ag45
ag45
ag45
ag47
ag45
ag46
ag45
ag45
ag46
ag47
ag47
ag47
ag47
ag45
ag45
ag45
ag46
ag46
ag45
ag46
ag45
ag45
ag45
ag46
ag47
ag45
ag45
ag45
ag45
ag47
ag46
ag47
ag45
ag46
ag47
ag47
ag47
ag46
ag47
ag47
ag46
ag47
ag47
ag45
ag47
ag47
ag47
ag46
ag45
ag45
ag45
ag46
ag45
ag45
ag46
ag47
ag47
ag47
ag47
ag47
ag45
ag46
ag45
ag46
ag46
ag45
ag46
ag47
ag45
ag45
ag45
ag46
ag47
ag47
ag47
ag47
ag45
ag47
ag45
ag47
ag45
ag45
ag45
ag46
ag46
ag45
ag46
ag47
ag47
ag46
ag45
ag47
ag47
ag46
ag45
ag46
ag45
ag46
ag47
ag45
ag45
ag46
ag45
ag47
ag47
ag46
ag45
ag47
ag47
ag45
ag45
ag45
ag46
ag47
ag47
ag46
ag45
ag45
ag45
ag45
ag45
ag45
ag45
ag46
ag47
ag45
ag47
ag46
ag45
ag46
ag47
ag45
ag45
ag45
ag46
asg48
(lp135
I01
aI00
aI00
aI01
aI00
aI00
aI00
aI00
aI00
aI00
aI00
aI00
aI01
aI00
aI00
aI01
aI00
aI00
aI00
aI00
aI00
aI00
aI00
aI01
aI00
aI00
aI01
aI01
aI00
aI00
aI01
aI01
aI00
aI00
aI00
aI00
aI00
aI01
aI01
aI00
aI01
aI00
aI00
aI00
aI01
aI00
aI00
aI01
aI00
aI00
aI00
aI00
aI00
aI00
aI01
aI00
aI00
aI00
aI01
aI00
aI00
aI01
aI00
aI00
aI00
aI00
aI00
aI00
aI01
aI00
aI01
aI00
aI01
aI01
aI00
aI00
aI00
aI00
aI01
aI00
aI00
aI00
aI00
aI00
aI00
aI00
aI00
aI00
aI00
aI00
aI01
aI00
aI01
aI01
aI01
aI00
aI01
aI00
aI00
aI00
aI01
aI00
aI01
aI00
aI01
aI00
aI00
aI00
aI01
aI00
aI00
aI00
aI01
aI01
aI00
aI00
aI00
aI00
aI00
aI01
aI01
aI00
aI01
aI00
aI00
aI00
aI00
aI00
aI00
aI00
aI01
aI01
aI00
aI00
aI01
aI00
aI01
aI01
aI00
aI00
aI00
aI01
aI01
asg50
I143
sg51
(g52
F1.5707963267948966
g53
tp136
sg55
(lp137
(g57
I0
g24
tp138
ag60
ag113
ag105
ag106
ag110
ag102
ag102
ag102
ag102
ag102
ag103
ag112
ag60
ag110
ag111
ag60
ag113
ag104
ag105
ag105
ag112
ag111
ag102
ag60
ag109
ag110
ag60
ag62
ag107
ag107
ag71
ag67
ag68
ag75
ag116
ag116
ag74
ag72
ag82
a(g81
I0
g53
tp139
a(g81
I0
g63
tp140
a(g81
I0
g59
tp141
a(g81
I0
g59
tp142
ag117
ag83
ag141
ag142
ag83
ag141
ag117
ag139
a(g66
I0
g53
tp143
ag115
a(g66
I0
g53
tp144
ag72
ag70
ag107
ag107
ag71
ag77
ag79
ag71
ag108
ag105
ag105
ag104
ag105
ag112
ag60
ag110
ag60
ag109
ag62
ag71
ag108
ag112
ag102
ag111
ag60
ag113
ag105
ag104
ag105
ag112
ag103
ag112
ag103
ag112
ag102
ag111
ag60
ag109
ag62
ag71
ag67
ag115
ag72
ag70
ag64
ag80
ag65
ag77
ag71
ag77
ag71
ag108
ag112
ag111
ag60
ag110
ag103
ag105
ag106
ag62
ag64
ag80
ag78
ag79
ag107
ag71
ag67
ag144
ag72
ag73
ag116
ag75
ag75
ag75
ag75
ag75
ag69
ag82
ag139
a(g81
I0
g59
tp145
ag83
ag84
ag140
ag119
ag120
a(g81
F1.5707963267948966
g59
tp146
ag146
ag122
asg85
(lp147
g87
ag87
ag87
ag89
ag51
ag88
ag89
ag88
ag88
ag51
ag89
ag88
ag88
ag51
ag87
ag88
ag89
ag89
ag87
ag87
ag87
ag87
ag88
ag88
ag89
ag89
ag51
ag87
ag88
ag88
ag88
ag51
ag88
ag88
ag87
ag88
ag51
ag89
ag51
ag87
ag88
ag87
ag89
ag51
ag89
ag88
ag87
ag51
ag88
ag89
ag88
ag88
ag89
ag89
ag51
ag88
ag51
ag88
ag51
ag89
ag89
ag88
ag87
ag87
ag89
ag88
ag87
ag88
ag88
ag51
ag87
ag87
ag88
ag88
ag89
ag88
ag89
ag87
ag88
ag88
ag87
ag89
ag89
ag87
ag89
ag88
ag88
ag88
ag87
ag87
ag88
ag88
ag51
ag87
ag88
ag87
ag89
ag87
ag88
ag89
ag89
ag51
ag88
ag51
ag88
ag51
ag88
ag87
ag87
ag51
ag88
ag87
ag88
ag51
ag51
ag89
ag88
ag88
ag88
ag88
ag51
ag89
ag89
ag89
ag87
ag51
ag88
ag88
ag88
ag51
ag88
ag88
ag87
ag51
ag51
ag51
ag87
ag88
ag89
ag88
ag89
ag88
ag51
asg90
(lp148
g88
ag88
ag87
ag89
ag89
ag51
ag51
ag51
ag51
ag51
ag89
ag88
ag88
ag89
ag87
ag88
ag88
ag51
ag87
ag87
ag88
ag87
ag51
ag88
ag87
ag89
ag88
ag51
ag51
ag51
ag88
ag51
ag88
ag51
ag87
ag87
ag89
ag89
ag51
ag88
ag88
ag88
ag87
ag51
ag89
ag88
ag87
ag89
ag88
ag51
ag88
ag87
ag87
ag51
ag89
ag87
ag51
ag51
ag88
ag89
ag87
ag88
ag87
ag87
ag87
ag51
ag87
ag88
ag88
ag89
ag88
ag87
ag51
ag88
ag87
ag88
ag51
ag87
ag88
ag88
ag87
ag51
ag87
ag88
ag89
ag88
ag89
ag88
ag51
ag87
ag88
ag87
ag51
ag88
ag51
ag87
ag89
ag87
ag89
ag87
ag89
ag89
ag88
ag89
ag88
ag87
ag88
ag87
ag88
ag89
ag89
ag87
ag89
ag51
ag89
ag87
ag88
ag87
ag51
ag88
ag51
ag51
ag89
ag89
ag87
ag51
ag51
ag51
ag51
ag51
ag88
ag51
ag88
ag89
ag89
ag89
ag88
ag51
ag88
ag51
ag51
ag88
ag51
asg92
(lp149
g88
ag88
ag87
ag89
ag89
ag51
ag51
ag51
ag51
ag51
ag89
ag88
ag88
ag89
ag87
ag88
ag88
ag51
ag87
ag87
ag88
ag87
ag51
ag88
ag87
ag89
ag88
ag51
ag51
ag51
ag88
ag51
ag88
ag51
ag87
ag87
ag89
ag89
ag51
ag88
ag88
ag88
ag87
ag51
ag89
ag88
ag87
ag89
ag88
ag51
ag88
ag87
ag87
ag51
ag89
ag87
ag51
ag51
ag88
ag89
ag87
ag88
ag87
ag87
ag87
ag51
ag87
ag88
ag88
ag89
ag88
ag87
ag51
ag88
ag87
ag88
ag51
ag87
ag88
ag88
ag87
ag51
ag87
ag88
ag89
ag88
ag89
ag88
ag51
ag87
ag88
ag87
ag51
ag88
ag51
ag87
ag89
ag87
ag89
ag87
ag89
ag89
ag88
ag89
ag88
ag87
ag88
ag87
ag88
ag89
ag89
ag87
ag89
ag51
ag89
ag87
ag88
ag87
ag51
ag88
ag51
ag51
ag89
ag89
ag87
ag51
ag51
ag51
ag51
ag51
ag88
ag51
ag88
ag89
ag89
ag89
ag88
ag51
ag88
ag51
ag51
ag88
ag51
asaa(lp150
I3
ag39
(g40
tp151
Rp152
g43
(lp153
g45
ag45
ag47
ag47
ag47
ag46
ag46
ag47
ag46
ag45
ag45
ag47
ag47
ag47
ag47
ag47
ag46
ag45
ag45
ag45
ag46
ag46
ag46
ag47
ag46
ag45
ag46
ag47
ag47
ag45
ag45
ag47
ag47
ag47
ag46
ag45
ag45
ag46
ag47
ag46
ag47
ag47
ag47
ag46
ag47
ag45
ag45
ag45
ag47
ag46
ag47
ag47
ag46
ag47
ag47
ag47
ag46
ag45
ag45
ag46
ag45
ag46
ag45
ag45
ag46
ag45
ag46
ag45
ag46
ag47
ag47
ag45
ag47
ag46
ag46
ag46
ag47
ag46
ag47
ag45
ag47
ag47
ag47
ag45
ag45
ag46
ag46
ag45
ag45
ag45
ag46
ag46
ag47
ag47
ag47
ag47
ag46
ag47
ag45
ag46
ag45
ag45
ag45
ag46
ag47
ag45
ag45
ag45
ag46
ag45
ag46
ag45
ag46
ag46
ag46
ag45
ag46
ag47
ag45
ag46
ag45
ag46
ag45
ag45
ag45
ag46
ag45
ag45
ag45
ag47
ag47
ag46
ag47
ag46
ag47
ag47
ag46
ag47
ag45
ag47
ag47
ag47
ag45
ag46
ag47
ag45
ag46
ag45
ag45
ag46
ag47
ag47
ag46
ag45
ag45
ag45
ag47
ag47
ag46
ag45
ag46
ag47
ag47
ag47
ag47
ag45
ag45
ag46
ag47
ag46
ag47
ag45
ag47
ag47
ag47
ag47
ag46
ag45
ag46
ag45
ag46
ag45
ag46
ag47
ag47
ag47
ag47
ag47
ag47
ag47
ag47
ag47
ag47
ag46
ag45
ag47
ag46
ag45
ag45
ag46
ag47
asg48
(lp154
I00
aI00
aI00
aI00
aI01
aI00
aI00
aI01
aI00
aI00
aI00
aI00
aI00
aI00
aI00
aI01
aI00
aI00
aI00
aI01
aI00
aI00
aI00
aI01
aI01
aI01
aI00
aI00
aI00
aI00
aI00
aI00
aI00
aI01
aI01
aI00
aI01
aI00
aI01
aI00
aI00
aI00
aI01
aI00
aI00
aI00
aI00
aI00
aI01
aI00
aI00
aI01
aI00
aI00
aI00
aI01
aI00
aI00
aI01
aI00
aI01
aI01
aI00
aI01
aI00
aI01
aI00
aI01
aI00
aI00
aI00
aI00
aI01
aI00
aI00
aI00
aI01
aI00
aI00
aI00
aI00
aI00
aI00
aI00
aI01
aI00
aI00
aI00
aI00
aI01
aI00
aI00
aI00
aI00
aI00
aI01
aI00
aI00
aI01
aI00
aI00
aI00
aI01
aI00
aI00
aI00
aI00
aI01
aI00
aI01
aI00
aI01
aI00
aI00
aI00
aI01
aI00
aI00
aI01
aI00
aI01
aI01
aI00
aI00
aI01
aI00
aI00
aI00
aI00
aI00
aI01
aI01
aI01
aI01
aI00
aI01
aI00
aI00
aI00
aI00
aI00
aI00
aI01
aI00
aI00
aI01
aI00
aI00
aI01
aI00
aI00
aI01
aI00
aI00
aI00
aI00
aI00
aI01
aI01
aI01
aI00
aI00
aI00
aI00
aI00
aI00
aI01
aI01
aI01
aI01
aI00
aI00
aI00
aI00
aI00
aI01
aI00
aI01
aI00
aI01
aI00
aI01
aI00
aI00
aI00
aI00
aI00
aI00
aI00
aI00
aI00
aI00
aI01
aI01
aI00
aI01
aI00
aI00
aI01
aI00
aI01
asg50
I201
sg51
g65
sg55
(lp155
(g57
I0
g24
tp156
ag102
ag103
ag104
ag105
ag106
ag109
ag113
ag106
ag110
ag111
ag103
ag104
ag105
ag105
ag104
ag106
ag110
ag102
ag111
ag60
ag109
ag109
ag113
ag106
ag62
ag71
ag108
ag104
ag112
ag102
ag103
ag104
ag105
ag106
ag62
ag107
ag71
ag76
ag65
ag76
ag114
ag114
ag65
ag76
ag78
ag107
ag107
ag64
ag65
ag108
ag105
ag106
ag113
ag104
ag105
ag106
ag110
ag111
ag60
ag110
ag60
ag62
ag107
ag71
ag77
ag71
ag77
ag71
ag108
ag104
ag112
ag103
ag106
ag109
ag109
ag113
ag106
ag113
ag112
ag103
ag104
ag105
ag112
ag102
ag60
ag109
ag110
ag111
ag102
ag60
ag109
ag113
ag105
ag105
ag104
ag106
ag113
ag112
ag60
ag110
ag111
ag102
ag60
ag113
ag112
ag102
ag102
ag60
ag110
ag60
ag110
ag60
ag109
ag109
ag110
ag60
ag113
ag112
ag60
ag110
ag60
ag62
ag79
ag107
ag71
ag77
ag107
ag107
ag64
ag80
ag65
ag67
ag72
ag82
ag117
ag83
ag141
ag139
ag143
ag115
ag144
ag68
ag69
a(g66
I0
g53
tp157
ag68
ag69
ag70
ag79
ag71
ag108
ag105
ag106
ag110
ag102
ag111
ag103
ag105
ag106
ag62
ag71
ag76
ag114
ag114
ag80
ag78
ag79
ag71
ag67
ag72
ag82
ag139
ag143
ag115
ag115
ag115
ag72
ag70
ag71
ag77
ag71
ag77
ag71
ag108
ag105
ag105
ag105
ag104
ag104
ag105
ag104
ag105
ag104
ag106
ag62
ag64
ag65
ag77
ag107
ag71
ag76
asg85
(lp158
g88
ag88
ag51
ag87
ag89
ag89
ag87
ag89
ag89
ag87
ag89
ag89
ag89
ag87
ag89
ag89
ag89
ag88
ag87
ag88
ag87
ag51
ag51
ag89
ag51
ag87
ag87
ag88
ag87
ag88
ag87
ag89
ag87
ag89
ag88
ag88
ag88
ag89
ag89
ag87
ag89
ag88
ag89
ag88
ag88
ag88
ag88
ag88
ag89
ag51
ag89
ag89
ag88
ag89
ag89
ag89
ag87
ag88
ag88
ag89
ag88
ag89
ag88
ag88
ag89
ag88
ag51
ag88
ag87
ag88
ag88
ag88
ag89
ag51
ag89
ag51
ag89
ag87
ag88
ag89
ag89
ag89
ag88
ag88
ag88
ag51
ag51
ag89
ag88
ag87
ag87
ag87
ag87
ag87
ag51
ag89
ag89
ag87
ag88
ag89
ag88
ag88
ag88
ag87
ag88
ag88
ag88
ag87
ag51
ag88
ag89
ag88
ag51
ag87
ag88
ag88
ag51
ag89
ag88
ag51
ag88
ag51
ag87
ag88
ag88
ag51
ag89
ag88
ag88
ag87
ag89
ag88
ag89
ag51
ag89
ag51
ag88
ag88
ag87
ag87
ag51
ag87
ag88
ag87
ag88
ag87
ag87
ag87
ag88
ag87
ag89
ag89
ag51
ag88
ag87
ag51
ag89
ag51
ag51
ag88
ag88
ag88
ag88
ag89
ag88
ag89
ag88
ag87
ag88
ag88
ag88
ag89
ag89
ag89
ag87
ag89
ag51
ag88
ag51
ag88
ag89
ag51
ag89
ag89
ag89
ag89
ag51
ag89
ag87
ag89
ag51
ag89
ag51
ag51
ag89
ag89
ag51
ag88
ag87
ag51
ag89
asg90
(lp159
g51
ag89
ag51
ag87
ag89
ag87
ag88
ag89
ag89
ag87
ag89
ag51
ag87
ag87
ag51
ag89
ag89
ag51
ag87
ag88
ag87
ag87
ag88
ag89
ag51
ag88
ag87
ag51
ag88
ag51
ag89
ag51
ag87
ag89
ag51
ag51
ag88
ag88
ag89
ag88
ag51
ag51
ag89
ag88
ag88
ag51
ag51
ag89
ag89
ag87
ag87
ag89
ag88
ag51
ag87
ag89
ag89
ag87
ag88
ag89
ag88
ag51
ag51
ag88
ag89
ag88
ag89
ag88
ag87
ag51
ag88
ag89
ag89
ag87
ag87
ag88
ag89
ag88
ag88
ag89
ag51
ag87
ag88
ag51
ag88
ag87
ag89
ag87
ag51
ag88
ag87
ag88
ag87
ag87
ag51
ag89
ag88
ag88
ag88
ag89
ag87
ag51
ag88
ag88
ag88
ag51
ag51
ag88
ag89
ag88
ag89
ag88
ag87
ag87
ag89
ag88
ag88
ag88
ag88
ag89
ag88
ag51
ag87
ag51
ag88
ag89
ag51
ag51
ag89
ag87
ag89
ag51
ag89
ag51
ag51
ag89
ag88
ag88
ag87
ag87
ag51
ag88
ag88
ag88
ag88
ag88
ag87
ag87
ag88
ag87
ag87
ag89
ag89
ag51
ag87
ag89
ag87
ag89
ag51
ag88
ag88
ag51
ag51
ag87
ag88
ag87
ag88
ag51
ag89
ag51
ag88
ag87
ag87
ag87
ag87
ag89
ag87
ag88
ag89
ag88
ag89
ag88
ag87
ag87
ag87
ag87
ag51
ag51
ag87
ag51
ag87
ag51
ag89
ag51
ag89
ag89
ag89
ag51
ag88
ag88
ag89
asg92
(lp160
g51
ag89
ag51
ag87
ag89
ag87
ag88
ag89
ag89
ag87
ag89
ag51
ag87
ag87
ag51
ag89
ag89
ag51
ag87
ag88
ag87
ag87
ag88
ag89
ag51
ag88
ag87
ag51
ag88
ag51
ag89
ag51
ag87
ag89
ag51
ag51
ag88
ag88
ag89
ag88
ag51
ag51
ag89
ag88
ag88
ag51
ag51
ag89
ag89
ag87
ag87
ag89
ag88
ag51
ag87
ag89
ag89
ag87
ag88
ag89
ag88
ag51
ag51
ag88
ag89
ag88
ag89
ag88
ag87
ag51
ag88
ag89
ag89
ag87
ag87
ag88
ag89
ag88
ag88
ag89
ag51
ag87
ag88
ag51
ag88
ag87
ag89
ag87
ag51
ag88
ag87
ag88
ag87
ag87
ag51
ag89
ag88
ag88
ag88
ag89
ag87
ag51
ag88
ag88
ag88
ag51
ag51
ag88
ag89
ag88
ag89
ag88
ag87
ag87
ag89
ag88
ag88
ag88
ag88
ag89
ag88
ag51
ag87
ag51
ag88
ag89
ag51
ag51
ag89
ag87
ag89
ag51
ag89
ag51
ag51
ag89
ag88
ag88
ag87
ag87
ag51
ag88
ag88
ag88
ag88
ag88
ag87
ag87
ag88
ag87
ag87
ag89
ag89
ag51
ag87
ag89
ag87
ag89
ag51
ag88
ag88
ag51
ag51
ag87
ag88
ag87
ag88
ag51
ag89
ag51
ag88
ag87
ag87
ag87
ag87
ag89
ag87
ag88
ag89
ag88
ag89
ag88
ag87
ag87
ag87
ag87
ag51
ag51
ag87
ag51
ag87
ag51
ag89
ag51
ag89
ag89
ag89
ag51
ag88
ag88
ag89
asaa(lp161
I4
ag39
(g40
tp162
Rp163
g43
(lp164
g45
ag46
ag45
ag45
ag46
ag45
ag45
ag46
ag47
ag47
ag45
ag46
ag47
ag47
ag47
ag45
ag46
ag47
ag45
ag45
ag46
ag47
ag46
ag47
ag47
ag45
ag46
ag46
ag47
ag46
asg48
(lp165
I01
aI00
aI00
aI01
aI01
aI00
aI01
aI00
aI00
aI00
aI01
aI00
aI00
aI00
aI00
aI01
aI01
aI00
aI00
aI01
aI00
aI01
aI01
aI00
aI00
aI01
aI00
aI01
aI01
aI01
asg50
I30
sg51
g136
sg55
(lp166
(g57
I0
g24
tp167
ag60
ag110
ag102
ag60
ag62
ag107
ag71
ag76
ag114
ag78
ag71
ag76
ag114
ag80
ag78
ag71
ag67
ag68
ag116
ag69
ag157
ag72
ag82
ag142
ag139
ag140
ag118
ag119
a(g81
F1.5707963267948966
g53
tp168
asg85
(lp169
g88
ag51
ag88
ag88
ag51
ag89
ag88
ag88
ag88
ag88
ag87
ag88
ag51
ag51
ag88
ag88
ag51
ag87
ag89
ag88
ag88
ag89
ag87
ag89
ag87
ag87
ag87
ag51
ag89
ag88
asg90
(lp170
g88
ag89
ag51
ag88
ag51
ag51
ag88
ag88
ag51
ag88
ag88
ag88
ag51
ag87
ag88
ag88
ag51
ag88
ag87
ag88
ag88
ag89
ag51
ag87
ag88
ag88
ag87
ag51
ag89
ag51
asg92
(lp171
g88
ag89
ag51
ag88
ag51
ag51
ag88
ag88
ag51
ag88
ag88
ag88
ag51
ag87
ag88
ag88
ag51
ag88
ag87
ag88
ag88
ag89
ag51
ag87
ag88
ag88
ag87
ag51
ag89
ag51
asaa(lp172
I5
ag39
(g40
tp173
Rp174
g43
(lp175
g45
ag45
ag46
ag45
ag46
ag47
ag45
ag46
ag47
ag47
ag46
ag45
asg48
(lp176
I00
aI01
aI01
aI01
aI01
aI00
aI01
aI01
aI00
aI01
aI00
aI00
asg50
I12
sg51
g54
sg55
(lp177
(g57
I0
g24
tp178
ag111
ag60
ag62
ag71
ag67
ag68
ag69
ag82
ag142
ag83
ag84
asg85
(lp179
g87
ag88
ag89
ag88
ag89
ag87
ag88
ag51
ag89
ag88
ag89
ag88
asg90
(lp180
g87
ag88
ag51
ag88
ag51
ag88
ag88
ag51
ag87
ag89
ag89
ag51
asg92
(lp181
g87
ag88
ag51
ag88
ag51
ag88
ag88
ag51
ag87
ag89
ag89
ag51
asaa(lp182
I6
ag39
(g40
tp183
Rp184
g43
(lp185
g45
ag46
ag45
ag45
ag45
ag47
ag47
ag47
ag45
ag45
ag46
ag45
ag45
ag47
ag47
ag45
ag45
ag46
ag45
ag47
ag46
ag47
ag47
ag47
ag45
ag45
ag45
ag47
ag47
ag45
ag46
ag45
ag45
ag45
ag45
ag46
ag47
ag47
ag46
ag45
ag46
ag47
ag46
ag47
ag45
ag46
ag47
ag45
ag45
ag45
ag46
ag47
ag46
ag47
ag47
ag47
ag45
ag46
asg48
(lp186
I01
aI00
aI00
aI00
aI00
aI00
aI00
aI00
aI00
aI01
aI01
aI00
aI00
aI00
aI00
aI00
aI01
aI00
aI00
aI01
aI00
aI00
aI00
aI00
aI00
aI00
aI00
aI00
aI00
aI01
aI01
aI00
aI00
aI00
aI01
aI01
aI00
aI01
aI00
aI01
aI01
aI01
aI00
aI00
aI01
aI01
aI00
aI00
aI00
aI01
aI00
aI01
aI00
aI00
aI00
aI00
aI01
aI01
asg50
I58
sg51
g136
sg55
(lp187
(g57
I0
g24
tp188
ag60
ag110
ag111
ag111
ag103
ag105
ag104
ag112
ag111
ag60
ag62
ag107
ag64
ag114
ag78
ag107
ag71
ag77
ag64
ag65
ag108
ag104
ag104
ag112
ag102
ag111
ag103
ag105
ag112
ag60
ag62
ag107
ag107
ag107
ag71
ag67
ag144
ag72
ag73
ag69
ag82
ag83
ag141
ag139
ag140
ag119
ag120
ag121
ag121
ag122
a(g81
F1.5707963267948966
g63
tp189
ag168
ag189
a(g81
F1.5707963267948966
g63
tp190
ag190
ag120
ag122
asg85
(lp191
g88
ag51
ag87
ag88
ag89
ag89
ag89
ag88
ag87
ag88
ag89
ag88
ag88
ag89
ag88
ag88
ag88
ag89
ag87
ag89
ag88
ag88
ag51
ag87
ag87
ag87
ag88
ag87
ag88
ag88
ag51
ag89
ag88
ag51
ag88
ag88
ag51
ag89
ag51
ag88
ag89
ag89
ag51
ag87
ag88
ag51
ag88
ag87
ag89
ag88
ag88
ag89
ag87
ag89
ag89
ag88
ag88
ag51
asg90
(lp192
g88
ag89
ag87
ag87
ag89
ag87
ag51
ag88
ag87
ag88
ag51
ag51
ag89
ag51
ag88
ag51
ag88
ag89
ag89
ag89
ag87
ag51
ag51
ag88
ag51
ag87
ag89
ag87
ag88
ag88
ag51
ag51
ag51
ag51
ag88
ag51
ag51
ag89
ag89
ag88
ag51
ag89
ag88
ag88
ag88
ag51
ag88
ag87
ag87
ag88
ag88
ag89
ag88
ag51
ag51
ag88
ag88
ag51
asg92
(lp193
g88
ag89
ag87
ag87
ag89
ag87
ag51
ag88
ag87
ag88
ag51
ag51
ag89
ag51
ag88
ag51
ag88
ag89
ag89
ag89
ag87
ag51
ag51
ag88
ag51
ag87
ag89
ag87
ag88
ag88
ag51
ag51
ag51
ag51
ag88
ag51
ag51
ag89
ag89
ag88
ag51
ag89
ag88
ag88
ag88
ag51
ag88
ag87
ag87
ag88
ag88
ag89
ag88
ag51
ag51
ag88
ag88
ag51
asaa(lp194
I7
ag39
(g40
tp195
Rp196
g43
(lp197
g45
ag45
ag45
ag47
ag46
ag47
ag45
ag46
ag45
ag46
ag47
ag47
ag47
ag45
ag45
ag46
ag47
ag46
ag46
ag45
ag47
ag45
ag45
ag45
ag46
ag45
ag46
ag47
ag46
ag47
ag46
ag46
ag46
ag47
ag47
ag46
ag47
ag46
ag47
ag47
ag46
ag45
ag45
ag46
ag47
ag47
ag46
ag45
ag46
ag47
ag45
ag45
ag45
ag45
ag45
ag45
ag46
ag45
ag45
ag46
ag45
ag45
ag46
ag47
ag45
ag47
ag45
ag47
ag47
ag46
ag46
ag46
ag47
ag45
ag46
asg48
(lp198
I00
aI00
aI00
aI01
aI00
aI00
aI01
aI01
aI01
aI01
aI00
aI00
aI00
aI00
aI01
aI01
aI01
aI00
aI00
aI00
aI00
aI00
aI00
aI01
aI00
aI01
aI01
aI01
aI01
aI00
aI00
aI00
aI00
aI00
aI01
aI01
aI01
aI00
aI00
aI01
aI01
aI00
aI01
aI00
aI00
aI01
aI00
aI01
aI01
aI00
aI00
aI00
aI00
aI00
aI00
aI01
aI01
aI00
aI01
aI00
aI00
aI01
aI00
aI00
aI00
aI00
aI00
aI00
aI00
aI00
aI00
aI01
aI00
aI01
aI01
asg50
I75
sg51
g136
sg55
(lp199
(g57
I0
g24
tp200
ag102
ag102
ag103
ag106
ag113
ag112
ag60
ag62
ag71
ag67
ag144
ag144
ag68
ag116
ag69
ag82
ag83
ag118
ag84
ag143
ag68
ag116
ag116
ag69
ag73
ag69
ag82
ag83
ag119
a(g81
I0
g63
tp201
ag118
ag118
ag141
ag142
ag83
ag119
ag168
ag123
ag99
ag124
a(g81
F1.5707963267948966
g59
tp202
ag146
ag122
ag123
ag99
ag124
a(g61
F1.5707963267948966
g59
tp203
a(g61
F1.5707963267948966
g53
tp204
a(g66
F1.5707963267948966
g53
tp205
a(g66
F1.5707963267948966
g63
tp206
a(g66
F1.5707963267948966
g63
tp207
a(g66
F1.5707963267948966
g63
tp208
ag207
ag207
ag207
a(g66
F1.5707963267948966
g59
tp209
ag202
ag146
ag122
a(g81
F1.5707963267948966
g59
tp210
ag146
ag122
ag189
ag120
a(g81
F1.5707963267948966
g63
tp211
ag120
ag211
ag190
ag201
ag118
ag118
ag119
ag120
ag122
asg85
(lp212
g88
ag88
ag88
ag88
ag87
ag88
ag87
ag51
ag88
ag51
ag51
ag51
ag88
ag87
ag88
ag51
ag89
ag51
ag51
ag87
ag88
ag87
ag87
ag88
ag89
ag88
ag89
ag89
ag51
ag89
ag51
ag51
ag87
ag89
ag89
ag51
ag89
ag87
ag89
ag89
ag51
ag88
ag88
ag51
ag88
ag89
ag87
ag88
ag87
ag88
ag88
ag87
ag88
ag88
ag88
ag87
ag51
ag88
ag88
ag88
ag88
ag88
ag88
ag87
ag88
ag87
ag87
ag89
ag87
ag51
ag87
ag51
ag87
ag87
ag88
asg90
(lp213
g51
ag51
ag89
ag89
ag88
ag88
ag88
ag51
ag88
ag51
ag51
ag51
ag88
ag87
ag88
ag51
ag89
ag87
ag89
ag87
ag88
ag87
ag87
ag88
ag89
ag88
ag51
ag89
ag51
ag87
ag87
ag87
ag88
ag87
ag89
ag51
ag89
ag87
ag87
ag89
ag51
ag51
ag88
ag87
ag87
ag89
ag87
ag88
ag51
ag88
ag51
ag87
ag51
ag51
ag51
ag88
ag51
ag51
ag88
ag89
ag51
ag88
ag88
ag88
ag89
ag88
ag89
ag51
ag87
ag87
ag87
ag51
ag88
ag88
ag51
asg92
(lp214
g51
ag51
ag89
ag89
ag88
ag88
ag88
ag51
ag88
ag51
ag51
ag51
ag88
ag87
ag88
ag51
ag89
ag87
ag89
ag87
ag88
ag87
ag87
ag88
ag89
ag88
ag51
ag89
ag51
ag87
ag87
ag87
ag88
ag87
ag89
ag51
ag89
ag87
ag87
ag89
ag51
ag51
ag88
ag87
ag87
ag89
ag87
ag88
ag51
ag88
ag51
ag87
ag51
ag51
ag51
ag88
ag51
ag51
ag88
ag89
ag51
ag88
ag88
ag88
ag89
ag88
ag89
ag51
ag87
ag87
ag87
ag51
ag88
ag88
ag51
asaa(lp215
I8
ag39
(g40
tp216
Rp217
g43
(lp218
g45
ag46
ag46
ag45
ag46
ag46
ag46
ag45
ag47
ag47
ag46
ag45
ag46
ag46
ag45
ag46
ag46
ag46
ag45
ag45
ag46
ag47
ag45
ag45
ag46
ag46
ag46
ag46
ag45
ag47
ag46
ag45
ag46
ag45
ag46
ag45
ag47
ag46
ag45
ag45
ag46
ag45
ag45
ag46
ag47
ag46
ag45
ag45
ag46
ag45
ag45
ag46
ag45
ag45
ag46
ag47
ag46
ag47
ag46
ag45
ag45
ag46
ag47
ag47
ag46
ag45
ag46
ag45
ag46
ag45
ag46
ag47
ag45
ag45
ag46
ag47
ag46
ag46
ag46
ag47
ag46
ag47
ag46
ag47
ag46
ag45
ag45
ag46
asg48
(lp219
I01
aI00
aI00
aI01
aI00
aI00
aI00
aI00
aI00
aI01
aI00
aI01
aI00
aI00
aI01
aI00
aI00
aI01
aI00
aI01
aI00
aI00
aI00
aI01
aI00
aI00
aI00
aI00
aI00
aI01
aI00
aI01
aI01
aI01
aI00
aI00
aI01
aI00
aI00
aI01
aI00
aI00
aI01
aI01
aI01
aI00
aI00
aI01
aI00
aI00
aI01
aI00
aI00
aI01
aI00
aI01
aI00
aI01
aI00
aI00
aI01
aI00
aI00
aI01
aI01
aI01
aI00
aI01
aI00
aI01
aI01
aI00
aI00
aI01
aI01
aI01
aI00
aI00
aI00
aI01
aI01
aI01
aI00
aI01
aI01
aI00
aI01
aI01
asg50
I88
sg51
g136
sg55
(lp220
(g57
I0
g24
tp221
ag60
ag109
ag110
ag60
ag109
ag109
ag110
ag103
ag105
ag106
ag110
ag60
ag109
ag110
ag60
ag109
ag109
ag62
ag79
ag71
ag108
ag112
ag111
ag60
ag109
ag109
ag109
ag110
ag103
ag106
ag110
ag60
ag62
ag71
ag77
ag64
ag65
ag77
ag107
ag71
ag77
ag107
ag71
ag67
ag72
ag70
ag107
ag71
ag77
ag79
ag71
ag77
ag107
ag71
ag76
ag65
ag76
ag65
ag77
ag79
ag71
ag108
ag105
ag106
ag62
ag71
ag77
ag71
ag77
ag71
ag67
ag68
ag75
ag69
ag82
ag83
ag118
ag118
ag141
ag83
ag119
ag168
ag123
ag124
ag202
ag146
ag122
asg85
(lp222
g87
ag51
ag88
ag88
ag87
ag87
ag51
ag51
ag89
ag89
ag89
ag88
ag87
ag51
ag88
ag87
ag51
ag51
ag87
ag88
ag89
ag88
ag87
ag88
ag87
ag87
ag51
ag89
ag89
ag89
ag51
ag88
ag51
ag88
ag51
ag89
ag89
ag51
ag87
ag88
ag51
ag88
ag87
ag89
ag89
ag87
ag88
ag87
ag87
ag89
ag88
ag51
ag88
ag87
ag88
ag89
ag87
ag87
ag51
ag88
ag88
ag51
ag51
ag51
ag51
ag88
ag51
ag87
ag51
ag88
ag51
ag88
ag88
ag88
ag88
ag89
ag51
ag87
ag88
ag89
ag51
ag89
ag87
ag88
ag51
ag88
ag88
ag87
asg90
(lp223
g88
ag87
ag89
ag88
ag87
ag87
ag89
ag89
ag87
ag89
ag89
ag88
ag87
ag89
ag88
ag87
ag87
ag51
ag87
ag88
ag87
ag88
ag87
ag88
ag87
ag87
ag87
ag89
ag89
ag89
ag89
ag88
ag51
ag88
ag89
ag89
ag89
ag89
ag51
ag88
ag89
ag51
ag88
ag51
ag89
ag87
ag51
ag88
ag89
ag87
ag88
ag89
ag51
ag88
ag88
ag89
ag88
ag89
ag89
ag87
ag88
ag87
ag87
ag89
ag51
ag88
ag89
ag88
ag89
ag88
ag51
ag88
ag51
ag88
ag51
ag89
ag87
ag87
ag88
ag89
ag51
ag89
ag87
ag89
ag51
ag51
ag88
ag51
asg92
(lp224
g88
ag87
ag89
ag88
ag87
ag87
ag89
ag89
ag87
ag89
ag89
ag88
ag87
ag89
ag88
ag87
ag87
ag51
ag87
ag88
ag87
ag88
ag87
ag88
ag87
ag87
ag87
ag89
ag89
ag89
ag89
ag88
ag51
ag88
ag89
ag89
ag89
ag89
ag51
ag88
ag89
ag51
ag88
ag51
ag89
ag87
ag51
ag88
ag89
ag87
ag88
ag89
ag51
ag88
ag88
ag89
ag88
ag89
ag89
ag87
ag88
ag87
ag87
ag89
ag51
ag88
ag89
ag88
ag89
ag88
ag51
ag88
ag51
ag88
ag51
ag89
ag87
ag87
ag88
ag89
ag51
ag89
ag87
ag89
ag51
ag51
ag88
ag51
asaa(lp225
I9
ag39
(g40
tp226
Rp227
g43
(lp228
g45
ag45
ag45
ag46
ag47
ag46
ag45
ag46
ag46
ag45
ag46
ag46
ag47
ag47
ag46
ag47
ag47
ag46
ag46
ag45
ag46
ag45
ag45
ag46
ag47
ag45
ag46
ag45
ag46
ag47
ag45
ag45
ag46
ag47
ag47
ag47
ag47
ag47
ag46
ag45
ag46
ag47
ag45
ag45
ag46
ag45
ag45
ag45
ag46
ag47
ag45
ag45
ag45
ag45
ag46
ag45
ag46
ag47
ag47
ag46
ag45
ag45
ag45
ag45
ag45
ag45
ag46
ag47
ag47
ag45
ag47
ag47
ag46
ag45
ag46
ag47
ag46
ag45
ag47
ag46
ag45
ag46
ag47
ag45
ag45
ag47
ag47
ag47
ag47
ag47
ag47
ag45
ag47
ag46
ag45
ag47
ag47
ag46
ag47
ag45
ag47
ag45
ag47
ag47
ag47
ag46
ag47
ag46
ag47
ag45
ag47
ag46
ag47
ag47
ag45
ag45
ag46
ag45
ag45
ag46
ag47
ag46
ag47
ag46
ag47
ag45
ag46
ag45
ag45
ag45
ag45
ag46
ag46
ag45
ag46
ag45
ag46
ag45
ag45
ag46
ag45
ag45
ag45
ag45
ag45
ag45
ag45
ag47
ag45
ag46
ag47
ag47
ag46
ag47
ag45
ag46
ag47
ag46
ag45
ag46
ag45
ag45
ag46
ag47
ag47
ag46
ag47
ag46
ag47
ag47
ag46
ag47
ag46
ag45
ag46
ag47
ag47
ag47
ag46
ag45
ag45
ag46
ag47
ag45
ag47
ag47
ag47
ag46
ag45
ag45
ag45
ag45
ag46
ag45
ag46
ag47
ag45
ag47
ag47
ag46
ag46
asg48
(lp229
I00
aI00
aI01
aI00
aI01
aI00
aI01
aI00
aI00
aI01
aI00
aI00
aI00
aI01
aI00
aI00
aI01
aI00
aI01
aI01
aI00
aI00
aI01
aI01
aI00
aI01
aI00
aI01
aI01
aI00
aI00
aI01
aI00
aI00
aI00
aI00
aI00
aI01
aI00
aI01
aI00
aI00
aI00
aI01
aI00
aI00
aI00
aI01
aI01
aI00
aI00
aI00
aI00
aI01
aI00
aI01
aI01
aI00
aI01
aI00
aI00
aI00
aI00
aI00
aI00
aI01
aI00
aI00
aI00
aI00
aI00
aI01
aI00
aI01
aI00
aI01
aI00
aI00
aI01
aI00
aI01
aI00
aI00
aI00
aI00
aI00
aI00
aI00
aI00
aI00
aI00
aI00
aI01
aI01
aI00
aI00
aI01
aI01
aI00
aI00
aI00
aI00
aI00
aI00
aI01
aI01
aI01
aI00
aI00
aI00
aI01
aI00
aI00
aI00
aI00
aI01
aI00
aI00
aI01
aI00
aI01
aI00
aI01
aI00
aI00
aI01
aI00
aI00
aI00
aI00
aI01
aI00
aI00
aI01
aI00
aI01
aI01
aI00
aI01
aI00
aI00
aI00
aI00
aI00
aI00
aI00
aI00
aI00
aI01
aI00
aI00
aI01
aI00
aI00
aI01
aI01
aI01
aI00
aI01
aI00
aI00
aI01
aI00
aI00
aI01
aI00
aI01
aI00
aI00
aI01
aI01
aI01
aI00
aI01
aI00
aI00
aI00
aI01
aI00
aI00
aI01
aI00
aI00
aI00
aI00
aI00
aI01
aI00
aI00
aI00
aI00
aI01
aI01
aI01
aI00
aI00
aI00
aI00
aI01
aI00
aI00
asg50
I201
sg51
g110
sg55
(lp230
(g57
I0
g24
tp231
ag102
ag102
ag60
ag113
ag106
ag110
ag60
ag109
ag110
ag60
ag109
ag113
ag104
ag106
ag113
ag104
ag106
ag109
ag62
ag71
ag77
ag107
ag71
ag67
ag68
ag69
ag70
ag71
ag67
ag68
ag75
ag69
ag157
ag115
ag144
ag144
ag144
ag72
ag73
ag69
ag157
ag68
ag116
ag69
ag70
ag107
ag107
ag71
ag67
ag68
ag116
ag75
ag116
ag69
ag70
ag71
ag67
ag115
ag72
ag73
ag75
ag116
ag116
ag75
ag75
ag69
ag157
ag144
ag68
ag74
ag115
ag72
ag70
ag71
ag108
ag106
ag110
ag103
ag106
ag110
ag60
ag113
ag112
ag102
ag103
ag105
ag105
ag105
ag105
ag105
ag112
ag103
ag106
ag62
ag64
ag114
ag65
ag67
ag68
ag74
ag68
ag74
ag115
ag115
ag72
ag82
ag83
ag141
ag139
ag143
ag72
ag157
ag115
ag68
ag116
ag69
ag70
ag107
ag71
ag76
ag65
ag108
ag106
ag113
ag112
ag60
ag110
ag111
ag102
ag102
ag60
ag109
ag110
ag60
ag110
ag60
ag62
ag107
ag71
ag77
ag107
ag107
ag79
ag107
ag79
ag79
ag64
ag78
ag71
ag76
ag80
ag65
ag76
ag78
ag71
ag67
ag72
ag73
ag69
ag70
ag107
ag71
ag76
ag80
ag65
ag76
ag65
ag76
ag80
ag65
ag67
ag72
ag70
ag71
ag108
ag105
ag104
ag106
ag110
ag102
ag60
ag113
ag112
ag103
ag105
ag105
ag106
ag110
ag111
ag111
ag102
ag60
ag62
ag71
ag108
ag112
ag103
ag104
ag106
ag109
asg85
(lp232
g88
ag89
ag88
ag87
ag89
ag51
ag88
ag87
ag89
ag87
ag87
ag87
ag89
ag89
ag87
ag88
ag89
ag51
ag51
ag88
ag51
ag88
ag87
ag87
ag87
ag87
ag51
ag87
ag51
ag89
ag51
ag87
ag88
ag89
ag88
ag89
ag51
ag89
ag89
ag88
ag88
ag88
ag88
ag87
ag87
ag51
ag89
ag87
ag51
ag87
ag89
ag88
ag87
ag88
ag87
ag88
ag51
ag51
ag89
ag51
ag88
ag87
ag87
ag51
ag88
ag88
ag51
ag87
ag87
ag89
ag89
ag89
ag51
ag88
ag51
ag89
ag51
ag88
ag51
ag51
ag87
ag88
ag88
ag88
ag88
ag89
ag89
ag89
ag87
ag89
ag88
ag89
ag89
ag89
ag89
ag51
ag89
ag51
ag87
ag88
ag88
ag51
ag89
ag87
ag89
ag89
ag51
ag87
ag88
ag51
ag89
ag88
ag89
ag88
ag87
ag88
ag51
ag88
ag88
ag87
ag89
ag88
ag89
ag87
ag87
ag88
ag88
ag89
ag88
ag89
ag87
ag51
ag51
ag87
ag88
ag87
ag51
ag88
ag88
ag89
ag88
ag88
ag87
ag51
ag89
ag87
ag89
ag88
ag88
ag89
ag89
ag89
ag88
ag88
ag88
ag88
ag89
ag51
ag87
ag51
ag89
ag88
ag87
ag89
ag89
ag87
ag89
ag87
ag89
ag89
ag51
ag89
ag87
ag88
ag87
ag89
ag51
ag89
ag51
ag88
ag88
ag87
ag88
ag88
ag87
ag87
ag89
ag89
ag87
ag87
ag88
ag88
ag51
ag88
ag87
ag88
ag88
ag89
ag51
ag51
ag89
asg90
(lp233
g51
ag51
ag88
ag88
ag89
ag89
ag88
ag87
ag89
ag88
ag87
ag88
ag51
ag89
ag88
ag51
ag89
ag87
ag51
ag88
ag89
ag51
ag88
ag51
ag88
ag88
ag87
ag88
ag51
ag88
ag51
ag88
ag88
ag87
ag51
ag51
ag51
ag89
ag89
ag88
ag88
ag88
ag87
ag88
ag87
ag51
ag51
ag88
ag51
ag88
ag87
ag51
ag87
ag88
ag87
ag88
ag51
ag87
ag89
ag89
ag51
ag87
ag87
ag51
ag51
ag88
ag88
ag51
ag88
ag89
ag87
ag89
ag87
ag88
ag87
ag89
ag89
ag89
ag89
ag89
ag88
ag88
ag88
ag51
ag89
ag87
ag87
ag87
ag87
ag87
ag88
ag89
ag89
ag51
ag89
ag51
ag89
ag51
ag88
ag89
ag88
ag89
ag87
ag87
ag89
ag51
ag89
ag88
ag88
ag87
ag89
ag88
ag87
ag88
ag87
ag88
ag87
ag51
ag88
ag88
ag89
ag87
ag89
ag88
ag88
ag88
ag89
ag87
ag51
ag51
ag88
ag87
ag89
ag88
ag89
ag88
ag51
ag51
ag88
ag89
ag51
ag51
ag87
ag51
ag87
ag87
ag89
ag88
ag88
ag88
ag87
ag89
ag88
ag88
ag88
ag51
ag89
ag89
ag88
ag87
ag51
ag88
ag88
ag87
ag89
ag88
ag89
ag88
ag87
ag89
ag51
ag89
ag87
ag88
ag87
ag87
ag51
ag89
ag89
ag51
ag88
ag88
ag88
ag89
ag87
ag87
ag89
ag89
ag87
ag87
ag51
ag88
ag51
ag88
ag87
ag88
ag89
ag51
ag89
ag87
ag89
asg92
(lp234
g51
ag51
ag88
ag88
ag89
ag89
ag88
ag87
ag89
ag88
ag87
ag88
ag51
ag89
ag88
ag51
ag89
ag87
ag51
ag88
ag89
ag51
ag88
ag51
ag88
ag88
ag87
ag88
ag51
ag88
ag51
ag88
ag88
ag87
ag51
ag51
ag51
ag89
ag89
ag88
ag88
ag88
ag87
ag88
ag87
ag51
ag51
ag88
ag51
ag88
ag87
ag51
ag87
ag88
ag87
ag88
ag51
ag87
ag89
ag89
ag51
ag87
ag87
ag51
ag51
ag88
ag88
ag51
ag88
ag89
ag87
ag89
ag87
ag88
ag87
ag89
ag89
ag89
ag89
ag89
ag88
ag88
ag88
ag51
ag89
ag87
ag87
ag87
ag87
ag87
ag88
ag89
ag89
ag51
ag89
ag51
ag89
ag51
ag88
ag89
ag88
ag89
ag87
ag87
ag89
ag51
ag89
ag88
ag88
ag87
ag89
ag88
ag87
ag88
ag87
ag88
ag87
ag51
ag88
ag88
ag89
ag87
ag89
ag88
ag88
ag88
ag89
ag87
ag51
ag51
ag88
ag87
ag89
ag88
ag89
ag88
ag51
ag51
ag88
ag89
ag51
ag51
ag87
ag51
ag87
ag87
ag89
ag88
ag88
ag88
ag87
ag89
ag88
ag88
ag88
ag51
ag89
ag89
ag88
ag87
ag51
ag88
ag88
ag87
ag89
ag88
ag89
ag88
ag87
ag89
ag51
ag89
ag87
ag88
ag87
ag87
ag51
ag89
ag89
ag51
ag88
ag88
ag88
ag89
ag87
ag87
ag89
ag89
ag87
ag87
ag51
ag88
ag51
ag88
ag87
ag88
ag89
ag51
ag89
ag87
ag89
asaatp235
Rp236
aatp237
Rp238
.