ccollections
OrderedDict
p0
((lp1
(lp2
S'combination_dict'
p3
ag0
((lp4
(lp5
S'r_to_g_config'
p6
aS'tl'
p7
aa(lp8
S'num_turns'
p9
aI3
aa(lp10
S'start_direction'
p11
acutils_ms
StartDirection
p12
(I1
tp13
Rp14
aa(lp15
S'assistance_type'
p16
acutils_ms
AssistanceType
p17
(I2
tp18
Rp19
aa(lp20
S'start_mode'
p21
aS't'
p22
aa(lp23
S'ui_given_a_noise'
p24
aF0.1
aa(lp25
S'um_given_ui_noise'
p26
aF0.5
aa(lp27
S'entropy_threshold'
p28
aF0.8
aatp29
Rp30
aa(lp31
S'data'
p32
accollections
defaultdict
p33
(c__builtin__
list
p34
tp35
Rp36
S'a'
p37
(lp38
S'mode_l'
p39
aS'move_p'
p40
ag39
ag39
ag39
ag39
aS'move_n'
p41
ag39
ag40
ag39
ag40
ag39
ag41
aS'mode_r'
p42
ag39
ag39
ag41
ag39
ag41
ag42
ag40
ag40
ag40
ag39
ag39
ag39
ag40
ag39
ag39
ag40
ag39
ag42
ag41
ag42
ag42
ag42
ag41
ag42
ag39
ag40
ag39
ag42
ag40
ag42
ag42
ag39
ag40
ag39
ag39
ag41
ag39
ag39
ag39
ag41
ag39
ag41
ag42
ag42
ag39
ag40
ag39
ag39
ag42
ag41
ag42
ag40
ag39
ag42
ag42
ag39
ag41
asS'assistance_match_with_ground_truth'
p43
(lp44
I01
aI01
aI00
aI00
aI00
aI01
aI01
aI01
aI01
aI01
aI00
aI01
aI00
aI00
aI00
aI01
aI00
aI01
aI00
aI01
aI00
aI00
aI00
aI00
aI00
aI01
aI00
aI00
aI01
aI01
aI00
aI01
aI00
aI00
aI00
aI01
aI01
aI00
aI00
aI01
aI00
aI01
aI00
aI00
aI00
aI01
aI01
aI00
aI01
aI00
aI00
aI00
aI01
aI00
aI01
aI00
aI00
aI00
aI01
aI00
aI00
aI00
aI01
aI01
aI01
aI01
aI00
aI00
aI00
aI01
aI01
asS'total_steps'
p45
I71
sS'sp'
p46
(lp47
(S'p0'
p48
I0
S'y'
p49
tp50
a(S'p1'
p51
I0
g49
tp52
a(g51
I0
g49
tp53
ag53
ag53
a(g51
I0
S'x'
p54
tp55
a(S'p2'
p56
I0
g54
tp57
a(g56
I0
S't'
p58
tp59
a(g56
F1.5707963267948966
g58
tp60
a(g56
F1.5707963267948966
g49
tp61
a(g51
F1.5707963267948966
g49
tp62
a(g51
F1.5707963267948966
g54
tp63
a(g51
F1.5707963267948966
g58
tp64
a(g51
F1.5707963267948966
g49
tp65
a(g51
F1.5707963267948966
g49
tp66
ag63
a(g51
F1.5707963267948966
g49
tp67
ag63
a(g48
F1.5707963267948966
g54
tp68
a(g48
F1.5707963267948966
g49
tp69
a(g48
F1.5707963267948966
g49
tp70
ag70
a(g48
F1.5707963267948966
g58
tp71
a(g48
F1.5707963267948966
g58
tp72
ag72
a(g48
F1.5707963267948966
g49
tp73
ag71
ag72
ag73
a(g51
F1.5707963267948966
g49
tp74
a(g51
F1.5707963267948966
g58
tp75
a(g51
F1.5707963267948966
g54
tp76
ag64
a(g51
F1.5707963267948966
g58
tp77
a(g51
F1.5707963267948966
g58
tp78
ag76
a(g56
F1.5707963267948966
g54
tp79
a(g56
F1.5707963267948966
g58
tp80
a(g56
I0
g58
tp81
ag60
a(g56
F1.5707963267948966
g54
tp82
a(g56
F1.5707963267948966
g49
tp83
a(g56
F1.5707963267948966
g54
tp84
a(g56
F1.5707963267948966
g54
tp85
ag80
ag61
a(S'p3'
p86
F1.5707963267948966
g49
tp87
a(g86
F1.5707963267948966
g49
tp88
a(g86
F1.5707963267948966
g54
tp89
a(g86
F1.5707963267948966
g49
tp90
ag88
ag88
ag89
ag90
ag89
a(g56
F1.5707963267948966
g54
tp91
ag85
ag80
ag61
ag62
ag66
ag75
ag76
ag79
ag83
ag87
a(g86
F1.5707963267948966
g58
tp92
a(g86
F1.5707963267948966
g58
tp93
a(g86
F1.5707963267948966
g49
tp94
ag89
a(S'p4'
p95
F1.5707963267948966
g54
tp96
asS's'
p97
(lp98
(g48
I0
g22
tp99
ag50
ag52
ag53
ag53
ag53
ag55
ag57
ag59
ag60
ag61
ag62
ag63
ag64
ag65
ag66
ag63
ag67
ag63
ag68
ag69
ag70
ag70
ag71
ag72
ag72
ag73
ag71
ag72
ag73
ag74
ag75
ag76
ag64
ag77
ag78
ag76
ag79
ag80
ag81
ag60
ag82
ag83
ag84
ag85
ag80
ag61
ag87
ag88
ag89
ag90
ag88
ag88
ag89
ag90
ag89
ag91
ag85
ag80
ag61
ag62
ag66
ag75
ag76
ag79
ag83
ag87
ag92
ag93
ag94
ag89
asS'ui'
p100
(lp101
S'hs'
p102
ag46
ag46
ag46
ag102
ag102
aS'ss'
p103
ag46
ag46
ag102
ag46
ag102
ag103
aS'hp'
p104
ag102
ag102
ag103
ag102
ag103
ag104
ag46
ag46
ag46
ag102
ag102
ag102
ag46
ag102
ag102
ag46
ag102
ag104
ag103
ag104
ag104
ag104
ag103
ag104
ag102
ag46
ag102
ag104
ag102
ag104
ag104
ag102
ag46
ag102
ag102
ag104
ag103
ag102
ag102
ag103
ag102
ag103
ag104
ag104
ag102
ag46
ag102
ag102
ag104
ag103
ag104
ag103
ag102
ag104
ag104
ag102
ag103
asS'um_before'
p105
(lp106
g102
ag46
ag46
ag46
ag46
ag102
ag103
ag102
ag46
ag102
ag103
ag102
ag102
ag102
ag46
ag102
ag104
ag102
ag46
ag104
ag103
ag103
ag104
ag46
ag46
ag102
ag104
ag46
ag102
ag46
ag104
ag104
ag102
ag46
ag103
ag104
ag103
ag102
ag103
ag46
ag104
ag104
ag102
ag46
ag102
ag102
ag46
ag103
ag102
ag104
ag103
ag103
ag102
ag104
ag102
ag46
ag46
ag102
ag102
ag103
ag46
ag104
ag104
ag103
ag104
ag46
ag104
ag46
ag102
ag102
ag103
asS'um_after'
p107
(lp108
g102
ag46
ag46
ag46
ag46
ag102
ag103
ag102
ag46
ag102
ag103
ag102
ag102
ag102
ag46
ag102
ag104
ag102
ag46
ag104
ag103
ag103
ag104
ag46
ag46
ag102
ag104
ag46
ag102
ag46
ag104
ag104
ag102
ag46
ag103
ag104
ag103
ag102
ag103
ag46
ag104
ag104
ag102
ag46
ag102
ag102
ag46
ag103
ag102
ag104
ag103
ag103
ag102
ag104
ag102
ag46
ag46
ag102
ag102
ag103
ag46
ag104
ag104
ag103
ag104
ag46
ag104
ag46
ag102
ag102
ag103
asaa(lp109
S'index'
p110
aI56933
aatp111
Rp112
.