ccollections
OrderedDict
p0
((lp1
(lp2
S'combination_dict'
p3
ag0
((lp4
(lp5
S'r_to_g_config'
p6
aS'bl'
p7
aa(lp8
S'num_turns'
p9
aI3
aa(lp10
S'start_direction'
p11
acutils_ms
StartDirection
p12
(I1
tp13
Rp14
aa(lp15
S'assistance_type'
p16
acutils_ms
AssistanceType
p17
(I2
tp18
Rp19
aa(lp20
S'start_mode'
p21
aS'x'
p22
aa(lp23
S'ui_given_a_noise'
p24
aF0.7
aa(lp25
S'um_given_ui_noise'
p26
aF0.7
aa(lp27
S'entropy_threshold'
p28
aF0.6
aatp29
Rp30
aa(lp31
S'data'
p32
accollections
defaultdict
p33
(c__builtin__
list
p34
tp35
Rp36
S'a'
p37
(lp38
S'mode_r'
p39
aS'mode_l'
p40
ag40
ag39
ag40
aS'move_n'
p41
ag40
ag41
ag41
ag39
ag41
ag41
ag40
ag41
ag40
ag41
ag40
ag40
ag40
aS'move_p'
p42
ag42
ag42
ag42
ag39
ag40
ag40
ag41
ag40
ag39
ag39
ag40
ag40
ag41
ag40
ag40
ag42
ag42
ag42
ag40
ag40
ag42
ag40
ag42
ag40
ag41
ag40
ag42
ag39
ag40
ag40
ag42
ag40
ag39
ag40
ag41
ag40
ag40
ag40
ag41
ag39
ag40
ag41
asS'assistance_match_with_ground_truth'
p43
(lp44
I00
aI00
aI00
aI00
aI01
aI00
aI01
aI00
aI00
aI01
aI00
aI01
aI01
aI00
aI01
aI01
aI00
aI00
aI01
aI00
aI00
aI00
aI00
aI00
aI00
aI01
aI00
aI00
aI00
aI00
aI00
aI01
aI01
aI00
aI01
aI00
aI00
aI01
aI00
aI00
aI01
aI00
aI01
aI01
aI00
aI00
aI00
aI00
aI00
aI01
aI00
aI00
aI00
aI01
aI00
aI00
aI00
aI01
aI00
aI00
aI01
aI01
asS'total_steps'
p45
I62
sS'sp'
p46
(lp47
(S'p0'
p48
I0
S't'
p49
tp50
a(g48
I0
g49
tp51
a(g48
I0
S'x'
p52
tp53
ag50
a(g48
I0
S'y'
p54
tp55
a(g48
I0
g49
tp56
ag55
a(g48
I0
g54
tp57
a(g48
I0
g52
tp58
a(g48
I0
g54
tp59
ag57
a(S'p1'
p60
I0
g54
tp61
a(g60
I0
g52
tp62
a(g60
I0
g54
tp63
ag62
a(S'p2'
p64
I0
g52
tp65
a(g64
I0
g52
tp66
ag66
a(g64
I0
g49
tp67
a(g64
I0
g49
tp68
ag68
ag68
a(g64
I0
g54
tp69
a(g60
I0
g54
tp70
a(g60
I0
g54
tp71
ag62
ag63
a(g60
I0
g49
tp72
a(g60
I0
g49
tp73
a(g60
I0
g54
tp74
ag71
ag62
ag65
a(g64
I0
g52
tp75
ag67
ag68
ag68
a(g64
F1.5707963267948966
g49
tp76
a(g64
F1.5707963267948966
g49
tp77
a(g64
I0
g49
tp78
ag76
ag78
ag76
a(g64
F1.5707963267948966
g54
tp79
a(g64
F1.5707963267948966
g49
tp80
ag78
ag69
a(g64
I0
g52
tp81
ag75
ag67
a(g64
I0
g52
tp82
a(g64
I0
g54
tp83
a(S'p3'
p84
I0
g54
tp85
a(g84
I0
g52
tp86
a(g84
I0
g54
tp87
a(g84
I0
g54
tp88
ag88
ag86
a(g84
I0
g49
tp89
a(g84
I0
g54
tp90
ag86
a(S'p4'
p91
I0
g52
tp92
asS's'
p93
(lp94
(g48
I0
g22
tp95
ag50
ag51
ag53
ag50
ag55
ag56
ag55
ag57
ag58
ag59
ag57
ag61
ag62
ag63
ag62
ag65
ag66
ag66
ag67
ag68
ag68
ag68
ag69
ag70
ag71
ag62
ag63
ag72
ag73
ag74
ag71
ag62
ag65
ag75
ag67
ag68
ag68
ag76
ag77
ag78
ag76
ag78
ag76
ag79
ag80
ag78
ag69
ag81
ag75
ag67
ag82
ag83
ag85
ag86
ag87
ag88
ag88
ag86
ag89
ag90
ag86
asS'ui'
p96
(lp97
g46
aS'hs'
p98
ag98
ag46
ag98
aS'ss'
p99
ag98
ag99
ag99
ag98
aS'hp'
p100
ag99
ag99
ag100
ag98
ag99
ag99
ag98
ag98
ag99
ag99
ag99
ag46
ag100
ag99
ag98
ag100
ag98
ag98
ag98
ag99
ag98
ag99
ag98
ag98
ag99
ag100
ag46
ag100
ag99
ag100
ag98
ag46
ag98
ag99
ag99
ag46
ag46
ag98
ag98
ag99
ag98
ag100
ag99
ag98
ag99
ag99
ag99
ag99
ag46
ag99
ag98
asS'um_before'
p101
(lp102
g98
ag99
ag100
ag98
ag98
ag100
ag98
ag46
ag98
ag100
ag46
ag99
ag98
ag100
ag98
ag99
ag46
ag46
ag98
ag99
ag99
ag99
ag98
ag46
ag99
ag98
ag100
ag100
ag46
ag98
ag99
ag98
ag99
ag99
ag98
ag99
ag99
ag46
ag46
ag99
ag46
ag99
ag46
ag98
ag100
ag99
ag98
ag98
ag99
ag98
ag100
ag100
ag99
ag98
ag100
ag99
ag99
ag98
ag98
ag98
ag98
ag99
asS'um_after'
p103
(lp104
g98
ag99
ag100
ag98
ag98
ag100
ag98
ag46
ag98
ag100
ag46
ag99
ag98
ag100
ag98
ag99
ag46
ag46
ag98
ag99
ag99
ag99
ag98
ag46
ag99
ag98
ag100
ag100
ag46
ag98
ag99
ag98
ag99
ag99
ag98
ag99
ag99
ag46
ag46
ag99
ag46
ag99
ag46
ag98
ag100
ag99
ag98
ag98
ag99
ag98
ag100
ag100
ag99
ag98
ag100
ag99
ag99
ag98
ag98
ag98
ag98
ag99
asaa(lp105
S'index'
p106
aI85560
aatp107
Rp108
.