ccollections
OrderedDict
p0
((lp1
(lp2
S'combination_dict'
p3
ag0
((lp4
(lp5
S'r_to_g_config'
p6
aS'br'
p7
aa(lp8
S'num_turns'
p9
aI3
aa(lp10
S'start_direction'
p11
acutils_ms
StartDirection
p12
(I1
tp13
Rp14
aa(lp15
S'assistance_type'
p16
acutils_ms
AssistanceType
p17
(I0
tp18
Rp19
aa(lp20
S'start_mode'
p21
aS't'
p22
aa(lp23
S'ui_given_a_noise'
p24
aF0.5
aa(lp25
S'um_given_ui_noise'
p26
aF0.7
aa(lp27
S'entropy_threshold'
p28
aF0.8
aatp29
Rp30
aa(lp31
S'data'
p32
accollections
defaultdict
p33
(c__builtin__
list
p34
tp35
Rp36
S'a'
p37
(lp38
S'mode_l'
p39
ag39
aS'move_n'
p40
ag39
ag39
aS'mode_r'
p41
ag41
aS'move_p'
p42
ag39
ag39
ag42
ag41
ag41
ag41
ag39
ag41
ag40
ag40
ag41
ag39
ag41
ag40
ag40
ag40
ag41
ag39
ag42
ag39
ag41
ag39
ag41
ag39
ag39
ag40
ag39
ag39
ag41
ag42
ag41
ag40
ag40
ag40
ag39
ag42
ag39
ag41
ag41
ag41
ag41
ag39
ag39
ag41
ag42
ag41
ag40
ag40
ag39
ag41
ag42
ag41
ag40
ag40
ag40
ag40
ag39
ag39
ag41
ag41
ag41
ag39
ag42
ag41
ag40
ag39
ag39
ag39
ag39
ag42
ag41
ag41
ag40
ag39
ag41
ag41
ag42
ag39
ag42
ag39
ag39
ag41
ag41
ag41
ag42
ag39
ag41
ag42
ag39
ag41
ag39
ag42
ag41
ag40
ag40
ag40
ag40
ag39
ag42
ag41
ag41
ag42
ag39
ag42
ag41
ag41
ag41
ag42
ag41
ag41
ag42
ag41
ag39
ag40
ag41
ag42
ag39
ag42
ag41
ag42
ag41
ag39
ag41
ag41
ag41
ag39
ag41
ag39
ag39
ag40
ag41
ag39
ag39
ag39
ag41
ag42
ag39
ag42
ag39
ag42
ag41
ag42
asS'assistance_match_with_ground_truth'
p43
(lp44
I00
aI01
aI01
aI00
aI00
aI00
aI01
aI00
aI00
aI01
aI01
aI00
aI00
aI00
aI00
aI01
aI00
aI01
aI00
aI00
aI01
aI00
aI00
aI01
aI00
aI01
aI00
aI00
aI00
aI00
aI00
aI00
aI01
aI00
aI00
aI00
aI01
aI01
aI01
aI00
aI00
aI00
aI01
aI00
aI00
aI00
aI00
aI00
aI00
aI00
aI00
aI01
aI01
aI01
aI00
aI00
aI00
aI01
aI00
aI01
aI00
aI00
aI00
aI01
aI00
aI00
aI00
aI00
aI00
aI01
aI01
aI01
aI00
aI00
aI00
aI00
aI01
aI01
aI00
aI01
aI00
aI00
aI00
aI01
aI00
aI01
aI00
aI00
aI00
aI00
aI00
aI01
aI00
aI00
aI01
aI00
aI00
aI00
aI01
aI00
aI01
aI00
aI00
aI00
aI01
aI01
aI00
aI00
aI01
aI00
aI01
aI00
aI00
aI00
aI01
aI00
aI00
aI01
aI01
aI00
aI01
aI01
aI01
aI00
aI01
aI00
aI01
aI00
aI00
aI00
aI00
aI00
aI00
aI00
aI00
aI00
aI01
aI01
aI00
aI00
aI00
aI00
aI01
aI00
aI01
aI00
aI01
aI01
aI01
aI01
asS'total_steps'
p45
I150
sS'sp'
p46
(lp47
(S'p0'
p48
I0
g22
tp49
a(g48
I0
S'y'
p50
tp51
a(S'p1'
p52
I0
g50
tp53
a(g52
I0
g50
tp54
a(g52
I0
S't'
p55
tp56
ag56
a(g52
I0
S'x'
p57
tp58
a(g52
I0
g50
tp59
ag59
a(g52
I0
g57
tp60
a(S'p2'
p61
I0
g57
tp62
a(g61
I0
g57
tp63
ag63
a(g61
I0
g55
tp64
a(g61
I0
g57
tp65
a(g61
I0
g50
tp66
ag66
a(S'p3'
p67
I0
g50
tp68
a(g67
I0
g57
tp69
a(g61
I0
g57
tp70
ag66
ag66
ag66
ag68
ag69
a(g67
I0
g55
tp71
a(g67
I0
g57
tp72
a(g67
I0
g50
tp73
ag69
ag70
ag64
a(g61
I0
g55
tp74
a(g61
I0
g50
tp75
a(g52
I0
g50
tp76
ag54
ag56
ag58
ag62
ag66
ag66
ag66
ag76
ag60
ag59
ag56
ag56
ag56
ag56
a(g52
I0
g50
tp77
ag54
ag56
ag58
ag62
ag66
ag66
ag76
ag56
ag58
a(g48
I0
g57
tp78
a(g48
I0
g50
tp79
a(g48
I0
g50
tp80
ag80
ag80
ag53
ag53
ag56
ag56
ag56
ag77
ag60
ag62
ag66
ag76
ag54
ag54
ag54
ag60
ag62
ag63
ag66
ag76
ag56
ag56
ag58
ag59
ag60
ag59
ag59
ag56
ag56
ag56
ag58
ag59
ag56
ag58
ag59
ag56
ag77
ag60
ag78
ag79
ag79
ag79
ag80
ag53
ag60
a(g52
I0
g55
tp81
ag81
ag58
ag59
ag60
ag81
ag81
a(g52
I0
g55
tp82
ag58
ag81
ag81
ag58
ag62
ag64
ag75
ag68
a(g67
I0
g55
tp83
ag72
ag71
a(g67
I0
g50
tp84
ag83
ag84
ag69
ag73
a(g67
I0
g50
tp85
ag85
ag69
ag70
ag64
ag74
ag75
ag68
ag69
ag69
ag69
ag73
ag83
ag72
ag71
ag72
ag71
a(g67
F1.5707963267948966
g55
tp86
a(g67
F1.5707963267948966
g57
tp87
a(S'p4'
p88
F1.5707963267948966
g57
tp89
asS's'
p90
(lp91
g49
ag49
ag51
ag53
ag54
ag56
ag56
ag58
ag59
ag59
ag60
ag62
ag63
ag63
ag64
ag65
ag66
ag66
ag68
ag69
ag70
ag66
ag66
ag66
ag68
ag69
ag71
ag72
ag73
ag69
ag70
ag64
ag74
ag75
ag76
ag54
ag56
ag58
ag62
ag66
ag66
ag66
ag76
ag60
ag59
ag56
ag56
ag56
ag56
ag77
ag54
ag56
ag58
ag62
ag66
ag66
ag76
ag56
ag58
ag78
ag79
ag80
ag80
ag80
ag53
ag53
ag56
ag56
ag56
ag77
ag60
ag62
ag66
ag76
ag54
ag54
ag54
ag60
ag62
ag63
ag66
ag76
ag56
ag56
ag58
ag59
ag60
ag59
ag59
ag56
ag56
ag56
ag58
ag59
ag56
ag58
ag59
ag56
ag77
ag60
ag78
ag79
ag79
ag79
ag80
ag53
ag60
ag81
ag81
ag58
ag59
ag60
ag81
ag81
ag82
ag58
ag81
ag81
ag58
ag62
ag64
ag75
ag68
ag83
ag72
ag71
ag84
ag83
ag84
ag69
ag73
ag85
ag85
ag69
ag70
ag64
ag74
ag75
ag68
ag69
ag69
ag69
ag73
ag83
ag72
ag71
ag72
ag71
ag86
ag87
asS'ui'
p92
(lp93
S'ss'
p94
aS'hs'
p95
ag46
ag46
aS'hp'
p96
ag96
ag96
ag96
ag94
ag95
ag46
ag95
ag96
ag96
ag96
ag46
ag94
ag96
ag94
ag95
ag96
ag46
ag94
ag94
ag94
ag95
ag46
ag96
ag96
ag96
ag94
ag94
ag95
ag94
ag96
ag95
ag96
ag94
ag95
ag96
ag94
ag46
ag95
ag46
ag96
ag95
ag96
ag96
ag96
ag95
ag46
ag95
ag46
ag96
ag94
ag46
ag96
ag96
ag46
ag96
ag46
ag46
ag94
ag94
ag46
ag95
ag46
ag96
ag96
ag95
ag46
ag96
ag94
ag94
ag94
ag95
ag46
ag46
ag95
ag96
ag46
ag46
ag96
ag95
ag46
ag95
ag46
ag95
ag94
ag96
ag96
ag96
ag96
ag46
ag96
ag46
ag96
ag95
ag94
ag94
ag96
ag46
ag96
ag94
ag94
ag95
ag94
ag96
ag95
ag46
ag95
ag46
ag96
ag46
ag96
ag94
ag96
ag95
ag46
ag96
ag95
ag94
ag96
ag96
ag94
ag46
ag96
ag94
ag96
ag96
ag95
ag95
ag95
ag95
ag94
ag95
ag95
ag94
ag95
ag46
ag95
ag95
ag96
ag96
ag95
ag96
ag95
ag46
ag96
ag46
asS'um_before'
p97
(lp98
g46
ag95
ag94
ag94
ag96
ag94
ag96
ag96
ag46
ag95
ag46
ag46
ag94
ag95
ag96
ag96
ag96
ag94
ag95
ag94
ag96
ag95
ag96
ag94
ag95
ag95
ag96
ag96
ag95
ag94
ag95
ag94
ag95
ag46
ag94
ag96
ag96
ag46
ag96
ag96
ag96
ag46
ag95
ag96
ag96
ag94
ag94
ag94
ag95
ag94
ag96
ag96
ag46
ag96
ag95
ag46
ag96
ag96
ag94
ag96
ag46
ag46
ag96
ag94
ag46
ag96
ag94
ag94
ag95
ag95
ag46
ag96
ag46
ag94
ag94
ag46
ag95
ag46
ag46
ag96
ag46
ag96
ag94
ag96
ag96
ag95
ag96
ag46
ag96
ag94
ag94
ag96
ag96
ag96
ag96
ag96
ag96
ag95
ag95
ag94
ag96
ag96
ag96
ag46
ag94
ag95
ag95
ag94
ag96
ag96
ag95
ag95
ag94
ag46
ag96
ag95
ag94
ag96
ag46
ag95
ag95
ag94
ag96
ag96
ag95
ag95
ag96
ag95
ag95
ag96
ag46
ag46
ag95
ag94
ag95
ag94
ag95
ag94
ag95
ag46
ag46
ag96
ag96
ag96
ag95
ag96
ag95
ag46
ag96
ag46
asS'um_after'
p99
(lp100
Nag95
ag94
ag94
ag96
aNag96
ag96
aNag95
ag46
ag46
aNag95
ag96
ag96
aNag94
ag95
ag94
ag96
aNaNag94
ag95
ag95
ag96
ag96
ag95
ag94
ag95
ag94
ag95
ag46
ag94
ag96
ag96
ag46
ag96
aNaNag46
ag95
ag96
ag96
aNaNaNag95
ag94
ag96
ag96
ag46
ag96
aNag46
ag96
ag96
ag94
ag96
ag46
ag46
aNag94
aNag96
aNaNag95
ag95
ag46
ag96
ag46
ag94
ag94
aNag95
ag46
ag46
ag96
ag46
ag96
aNag96
ag96
ag95
ag96
aNag96
aNaNag96
ag96
ag96
ag96
ag96
ag96
ag95
ag95
ag94
ag96
aNaNag46
ag94
ag95
ag95
aNag96
ag96
ag95
ag95
aNag46
ag96
ag95
aNag96
ag46
ag95
ag95
ag94
ag96
ag96
ag95
ag95
ag96
ag95
ag95
ag96
ag46
ag46
ag95
ag94
ag95
ag94
ag95
ag94
ag95
aNaNag96
ag96
ag96
ag95
ag96
ag95
ag46
ag96
ag46
asaa(lp101
S'index'
p102
aI111788
aatp103
Rp104
.