ccollections
OrderedDict
p0
((lp1
(lp2
S'index'
p3
aI3896
aa(lp4
S'combination_dict'
p5
ag0
((lp6
(lp7
S'r_to_g_config'
p8
aS'tl'
p9
aa(lp10
S'num_turns'
p11
aI1
aa(lp12
S'start_direction'
p13
acutils_ms
StartDirection
p14
(I3
tp15
Rp16
aa(lp17
S'assistance_type'
p18
acutils_ms
AssistanceType
p19
(I0
tp20
Rp21
aa(lp22
S'start_mode'
p23
aS't'
p24
aa(lp25
S'ui_given_a_noise'
p26
aF0.3
aa(lp27
S'um_given_ui_noise'
p28
aF0.3
aa(lp29
S'entropy_threshold'
p30
aF0.8
aa(lp31
S'is_assistance'
p32
aI01
aatp33
Rp34
aa(lp35
S'trials'
p36
ag0
((lp37
(lp38
I0
accollections
defaultdict
p39
(c__builtin__
list
p40
tp41
Rp42
S'a'
p43
(lp44
S'mode_r'
p45
aS'move_n'
p46
aS'mode_l'
p47
ag47
aS'move_p'
p48
ag45
ag48
ag47
ag47
ag47
ag47
ag47
ag47
ag48
ag48
asS'assistance_match_with_ground_truth'
p49
(lp50
I01
aI01
aI00
aI01
aI00
aI01
aI01
aI00
aI00
aI00
aI00
aI00
aI01
aI00
aI01
asS'total_steps'
p51
I15
sS'sp'
p52
(S'p2'
p53
F1.5707963267948966
S'y'
p54
tp55
sS's'
p56
(lp57
(S'p0'
p58
I0
g24
tp59
a(g58
I0
S'x'
p60
tp61
a(S'p1'
p62
I0
g60
tp63
ag63
a(g62
I0
S't'
p64
tp65
a(g62
I0
g54
tp66
a(g62
I0
g64
tp67
a(g62
F1.5707963267948966
g64
tp68
ag68
ag68
ag68
ag68
ag68
a(g62
F1.5707963267948966
g54
tp69
ag69
asS'ui'
p70
(lp71
S'hp'
p72
aS'ss'
p73
aS'hs'
p74
ag74
ag74
ag72
ag52
ag74
ag74
ag74
ag74
ag73
ag74
ag72
ag52
asS'um_before'
p75
(lp76
g72
ag73
ag52
ag74
ag74
ag72
ag52
ag52
ag72
ag72
ag52
ag73
ag74
ag73
ag52
asS'um_after'
p77
(lp78
g72
ag73
aNag74
ag74
ag72
ag52
aNaNaNaNaNag74
aNag52
asaa(lp79
I1
ag39
(g40
tp80
Rp81
g43
(lp82
g45
ag45
ag46
ag47
ag47
ag46
ag47
ag48
ag47
ag48
ag48
ag47
ag47
ag47
ag47
ag48
ag48
ag47
ag48
ag48
ag48
ag47
ag48
ag47
ag48
ag47
ag48
ag47
ag47
ag48
ag45
ag45
ag45
ag45
ag48
ag45
ag45
ag48
asg49
(lp83
I00
aI01
aI00
aI00
aI01
aI01
aI01
aI00
aI01
aI00
aI00
aI00
aI00
aI00
aI01
aI00
aI01
aI01
aI00
aI00
aI00
aI01
aI00
aI01
aI00
aI01
aI00
aI00
aI01
aI00
aI00
aI00
aI00
aI01
aI00
aI00
aI01
aI01
asg51
I38
sg52
g55
sg56
(lp84
(g58
I0
g24
tp85
ag85
ag61
a(g58
I0
g54
tp86
ag86
a(g58
I0
g60
tp87
ag63
ag65
a(g62
I0
g60
tp88
ag65
ag65
ag88
ag88
ag88
ag88
ag65
ag65
ag68
ag69
ag69
ag69
a(g62
F1.5707963267948966
g64
tp89
ag69
ag89
ag69
ag89
ag69
ag89
ag89
ag69
a(g62
F1.5707963267948966
g60
tp90
ag90
a(g62
F1.5707963267948966
g60
tp91
ag91
a(g62
F1.5707963267948966
g54
tp92
ag90
ag90
ag92
asg70
(lp93
g72
ag72
ag72
ag74
ag74
ag73
ag74
ag52
ag74
ag52
ag72
ag74
ag74
ag72
ag74
ag52
ag52
ag74
ag52
ag52
ag72
ag74
ag72
ag74
ag52
ag74
ag72
ag74
ag74
ag74
ag72
ag72
ag72
ag72
ag52
ag72
ag72
ag52
asg75
(lp94
g52
ag72
ag72
ag72
ag74
ag73
ag74
ag72
ag74
ag73
ag72
ag72
ag73
ag52
ag74
ag73
ag52
ag74
ag73
ag73
ag72
ag74
ag72
ag74
ag72
ag74
ag72
ag72
ag74
ag74
ag52
ag73
ag73
ag72
ag74
ag52
ag72
ag52
asg77
(lp95
Nag72
ag72
aNag74
ag73
ag74
ag72
ag74
aNag72
aNaNaNag74
aNag52
ag74
aNaNag72
ag74
ag72
ag74
ag72
ag74
ag72
aNag74
ag74
aNag73
ag73
ag72
ag74
aNag72
ag52
asaa(lp96
I2
ag39
(g40
tp97
Rp98
g43
(lp99
g45
ag46
ag47
ag47
ag48
ag47
ag48
ag47
ag48
asg49
(lp100
I01
aI01
aI00
aI01
aI01
aI01
aI00
aI01
aI01
asg51
I9
sg52
g55
sg56
(lp101
(g58
I0
g24
tp102
ag61
ag63
ag63
ag65
ag68
ag69
ag89
ag69
asg70
(lp103
g72
ag73
ag74
ag74
ag52
ag74
ag72
ag74
ag52
asg75
(lp104
g72
ag73
ag52
ag74
ag52
ag74
ag72
ag74
ag52
asg77
(lp105
g72
ag73
aNag74
ag52
ag74
ag72
ag74
ag52
asaa(lp106
I3
ag39
(g40
tp107
Rp108
g43
(lp109
g45
ag46
ag46
ag47
ag47
ag48
ag47
ag48
ag47
ag48
asg49
(lp110
I01
aI00
aI01
aI00
aI01
aI01
aI01
aI00
aI01
aI01
asg51
I10
sg52
g55
sg56
(lp111
(g58
I0
g24
tp112
ag61
a(g58
I0
g60
tp113
ag63
ag63
ag65
ag68
ag69
ag89
ag69
asg70
(lp114
g72
ag52
ag73
ag72
ag74
ag52
ag74
ag72
ag74
ag52
asg75
(lp115
g72
ag52
ag73
ag72
ag74
ag52
ag74
ag72
ag74
ag52
asg77
(lp116
g72
ag52
ag73
aNag74
ag52
ag74
ag72
ag74
ag52
asaa(lp117
I4
ag39
(g40
tp118
Rp119
g43
(lp120
g45
ag46
ag47
ag47
ag47
ag48
ag47
ag47
ag48
ag47
ag48
ag48
asg49
(lp121
I01
aI01
aI00
aI00
aI01
aI01
aI00
aI01
aI00
aI01
aI00
aI01
asg51
I12
sg52
g55
sg56
(lp122
(g58
I0
g24
tp123
ag61
ag63
ag63
ag63
ag65
ag68
ag68
ag69
ag89
ag69
ag69
asg70
(lp124
g72
ag73
ag74
ag74
ag74
ag52
ag74
ag74
ag72
ag74
ag52
ag52
asg75
(lp125
g72
ag73
ag52
ag72
ag74
ag52
ag72
ag74
ag72
ag74
ag73
ag52
asg77
(lp126
g72
ag73
aNaNag74
ag52
aNag74
ag72
ag74
aNag52
asaa(lp127
I5
ag39
(g40
tp128
Rp129
g43
(lp130
g45
ag46
ag47
ag47
ag48
ag47
ag48
asg49
(lp131
I01
aI01
aI00
aI01
aI01
aI01
aI01
asg51
I7
sg52
g55
sg56
(lp132
(g58
I0
g24
tp133
ag61
ag63
ag63
ag65
ag68
ag69
asg70
(lp134
g72
ag73
ag72
ag74
ag52
ag74
ag52
asg75
(lp135
g72
ag73
ag72
ag74
ag52
ag74
ag52
asg77
(lp136
g72
ag73
aNag74
ag52
ag74
ag52
asaa(lp137
I6
ag39
(g40
tp138
Rp139
g43
(lp140
g45
ag46
ag47
ag47
ag47
ag48
ag47
ag47
ag48
ag47
ag48
ag47
ag48
ag48
ag48
ag48
ag47
ag47
ag48
asg49
(lp141
I01
aI01
aI00
aI00
aI01
aI00
aI00
aI01
aI00
aI01
aI01
aI01
aI00
aI00
aI00
aI00
aI00
aI01
aI01
asg51
I19
sg52
g55
sg56
(lp142
(g58
I0
g24
tp143
ag61
ag63
ag63
ag63
ag65
ag88
ag88
ag65
ag88
ag65
ag68
ag69
ag69
ag69
ag69
ag89
ag89
ag69
asg70
(lp144
g72
ag73
ag72
ag74
ag74
ag72
ag52
ag74
ag52
ag74
ag52
ag74
ag52
ag72
ag73
ag52
ag74
ag74
ag52
asg75
(lp145
g72
ag73
ag72
ag52
ag74
ag72
ag52
ag74
ag72
ag74
ag52
ag74
ag73
ag73
ag73
ag72
ag52
ag74
ag52
asg77
(lp146
g72
ag73
aNaNag74
ag72
aNag74
ag72
ag74
ag52
ag74
aNaNaNag72
aNag74
ag52
asaa(lp147
I7
ag39
(g40
tp148
Rp149
g43
(lp150
g45
ag46
ag45
ag45
ag46
ag47
ag46
ag47
ag48
ag45
ag47
ag46
ag47
ag47
ag47
ag48
ag47
ag48
asg49
(lp151
I01
aI00
aI00
aI01
aI00
aI01
aI01
aI01
aI00
aI00
aI01
aI01
aI00
aI00
aI01
aI01
aI01
aI01
asg51
I18
sg52
g55
sg56
(lp152
(g58
I0
g24
tp153
ag61
a(g58
I0
g64
tp154
ag154
ag61
ag86
ag87
ag63
ag65
ag66
a(g58
I0
g54
tp155
ag87
ag63
ag63
ag63
ag65
ag68
ag69
asg70
(lp156
g72
ag73
ag72
ag72
ag73
ag74
ag73
ag74
ag52
ag73
ag74
ag73
ag52
ag74
ag74
ag52
ag74
ag52
asg75
(lp157
g72
ag74
ag52
ag72
ag72
ag74
ag73
ag74
ag74
ag73
ag74
ag73
ag52
ag72
ag74
ag52
ag74
ag52
asg77
(lp158
g72
ag74
aNag72
ag72
ag74
ag73
ag74
ag74
ag73
ag74
ag73
aNaNag74
ag52
ag74
ag52
asaa(lp159
I8
ag39
(g40
tp160
Rp161
g43
(lp162
g45
ag45
ag45
ag45
ag46
ag46
ag47
ag48
ag45
ag48
ag45
ag48
ag47
ag48
ag47
ag47
ag47
ag48
asg49
(lp163
I00
aI00
aI00
aI01
aI00
aI01
aI01
aI00
aI01
aI00
aI01
aI01
aI01
aI00
aI00
aI00
aI01
aI01
asg51
I18
sg52
g55
sg56
(lp164
(g58
I0
g24
tp165
ag165
a(g58
I0
g64
tp166
ag166
ag61
ag113
ag63
ag65
ag66
ag67
ag66
ag67
ag68
ag69
ag89
ag89
ag89
ag69
asg70
(lp167
g52
ag73
ag72
ag72
ag72
ag73
ag74
ag74
ag72
ag74
ag72
ag52
ag74
ag74
ag74
ag72
ag74
ag52
asg75
(lp168
g52
ag73
ag73
ag72
ag52
ag73
ag74
ag74
ag72
ag74
ag72
ag52
ag74
ag72
ag72
ag72
ag74
ag52
asg77
(lp169
Nag73
ag73
ag72
ag52
ag73
ag74
ag74
ag72
ag74
ag72
ag52
ag74
ag72
aNaNag74
ag52
asaa(lp170
I9
ag39
(g40
tp171
Rp172
g43
(lp173
g45
ag46
ag47
ag48
ag45
ag47
ag47
ag47
ag47
ag46
ag47
ag46
ag47
ag47
ag47
ag47
ag47
ag48
ag47
ag48
asg49
(lp174
I01
aI01
aI01
aI00
aI00
aI00
aI00
aI00
aI01
aI00
aI01
aI01
aI00
aI00
aI00
aI00
aI01
aI01
aI01
aI01
asg51
I20
sg52
g55
sg56
(lp175
(g58
I0
g24
tp176
ag61
ag63
ag65
ag66
ag155
ag155
ag155
ag155
ag87
ag86
ag87
ag63
ag63
ag63
ag63
ag63
ag65
ag68
ag69
asg70
(lp177
g72
ag73
ag74
ag74
ag73
ag74
ag74
ag73
ag74
ag74
ag74
ag73
ag73
ag74
ag74
ag74
ag74
ag52
ag74
ag52
asg75
(lp178
g72
ag73
ag74
ag74
ag73
ag52
ag52
ag73
ag74
ag72
ag74
ag73
ag73
ag52
ag72
ag52
ag74
ag52
ag74
ag52
asg77
(lp179
g72
ag73
ag74
ag74
ag73
aNaNaNag74
ag72
ag74
ag73
aNaNaNaNag74
ag52
ag74
ag52
asaatp180
Rp181
aatp182
Rp183
.