ccollections
OrderedDict
p0
((lp1
(lp2
S'index'
p3
aI11560
aa(lp4
S'combination_dict'
p5
ag0
((lp6
(lp7
S'r_to_g_config'
p8
aS'br'
p9
aa(lp10
S'num_turns'
p11
aI1
aa(lp12
S'start_direction'
p13
acutils_ms
StartDirection
p14
(I3
tp15
Rp16
aa(lp17
S'assistance_type'
p18
acutils_ms
AssistanceType
p19
(I0
tp20
Rp21
aa(lp22
S'start_mode'
p23
aS't'
p24
aa(lp25
S'ui_given_a_noise'
p26
aF0.3
aa(lp27
S'um_given_ui_noise'
p28
aF0.1
aa(lp29
S'entropy_threshold'
p30
aF0.5
aa(lp31
S'is_assistance'
p32
aI01
aatp33
Rp34
aa(lp35
S'trials'
p36
ag0
((lp37
(lp38
I0
accollections
defaultdict
p39
(c__builtin__
list
p40
tp41
Rp42
S'a'
p43
(lp44
S'mode_r'
p45
aS'move_p'
p46
aS'mode_l'
p47
ag46
ag47
aS'move_n'
p48
asS'assistance_match_with_ground_truth'
p49
(lp50
I01
aI01
aI01
aI01
aI01
aI01
asS'total_steps'
p51
I6
sS'sp'
p52
(S'p2'
p53
F1.5707963267948966
S'y'
p54
tp55
sS's'
p56
(lp57
(S'p0'
p58
I0
g24
tp59
a(g58
I0
S'x'
p60
tp61
a(S'p1'
p62
I0
g60
tp63
a(g62
I0
S't'
p64
tp65
a(g62
F1.5707963267948966
g64
tp66
a(g62
F1.5707963267948966
g54
tp67
asS'ui'
p68
(lp69
S'hp'
p70
ag52
aS'hs'
p71
ag52
ag71
aS'ss'
p72
asS'um_before'
p73
(lp74
g70
ag52
ag71
ag52
ag71
ag72
asS'um_after'
p75
(lp76
g70
ag52
ag71
ag52
ag71
ag72
asaa(lp77
I1
ag39
(g40
tp78
Rp79
g43
(lp80
g45
ag46
ag47
ag47
ag46
ag47
ag47
ag48
ag47
ag48
ag47
ag48
asg49
(lp81
I01
aI01
aI00
aI01
aI01
aI00
aI01
aI00
aI01
aI00
aI01
aI01
asg51
I12
sg52
g55
sg56
(lp82
(g58
I0
g24
tp83
ag61
ag63
ag63
ag65
ag66
ag66
ag67
a(g62
F1.5707963267948966
g64
tp84
ag67
ag84
ag67
asg68
(lp85
g70
ag52
ag71
ag71
ag52
ag71
ag71
ag72
ag71
ag70
ag71
ag72
asg73
(lp86
g70
ag52
ag52
ag71
ag52
ag52
ag71
ag70
ag71
ag70
ag71
ag72
asg75
(lp87
g70
ag52
aNag71
ag52
aNag71
ag70
ag71
ag70
ag71
ag72
asaa(lp88
I2
ag39
(g40
tp89
Rp90
g43
(lp91
g45
ag46
ag47
ag47
ag46
ag47
ag48
ag47
ag46
ag45
ag47
ag48
asg49
(lp92
I01
aI01
aI00
aI01
aI01
aI01
aI00
aI01
aI01
aI00
aI01
aI01
asg51
I12
sg52
g55
sg56
(lp93
(g58
I0
g24
tp94
ag61
ag63
a(g62
I0
g60
tp95
ag65
ag66
ag67
a(g58
F1.5707963267948966
g54
tp96
a(g58
F1.5707963267948966
g60
tp97
a(g62
F1.5707963267948966
g60
tp98
a(g62
F1.5707963267948966
g64
tp99
ag67
asg68
(lp100
g70
ag52
ag72
ag71
ag52
ag71
ag52
ag71
ag52
ag71
ag71
ag72
asg73
(lp101
g70
ag52
ag72
ag71
ag52
ag71
ag52
ag71
ag52
ag71
ag71
ag72
asg75
(lp102
g70
ag52
ag72
ag71
ag52
ag71
ag52
ag71
ag52
ag71
ag71
ag72
asaa(lp103
I3
ag39
(g40
tp104
Rp105
g43
(lp106
g45
ag45
ag45
ag46
ag47
ag46
ag47
ag46
ag47
ag46
ag47
ag48
ag45
ag47
ag48
asg49
(lp107
I00
aI00
aI01
aI00
aI01
aI01
aI01
aI00
aI01
aI01
aI01
aI00
aI00
aI01
aI01
asg51
I15
sg52
g55
sg56
(lp108
(g58
I0
g24
tp109
a(g58
I0
g64
tp110
ag110
ag61
a(g58
I0
g54
tp111
a(g58
I0
g60
tp112
ag63
ag65
a(g62
I0
g60
tp113
ag65
ag66
ag67
a(g62
F1.5707963267948966
g60
tp114
ag99
ag67
asg68
(lp115
g52
ag70
ag52
ag70
ag71
ag52
ag71
ag71
ag71
ag52
ag71
ag72
ag52
ag71
ag72
asg73
(lp116
g52
ag52
ag70
ag70
ag71
ag52
ag71
ag70
ag71
ag52
ag71
ag71
ag71
ag71
ag72
asg75
(lp117
g52
ag52
ag70
ag70
ag71
ag52
ag71
ag70
ag71
ag52
ag71
ag71
ag71
ag71
ag72
asaa(lp118
I4
ag39
(g40
tp119
Rp120
g43
(lp121
g45
ag46
ag47
ag46
ag47
ag48
asg49
(lp122
I01
aI01
aI01
aI01
aI01
aI01
asg51
I6
sg52
g55
sg56
(lp123
(g58
I0
g24
tp124
ag61
ag63
ag65
ag66
ag67
asg68
(lp125
g70
ag52
ag71
ag52
ag71
ag72
asg73
(lp126
g70
ag52
ag71
ag52
ag71
ag72
asg75
(lp127
g70
ag52
ag71
ag52
ag71
ag72
asaa(lp128
I5
ag39
(g40
tp129
Rp130
g43
(lp131
g45
ag45
ag45
ag46
ag47
ag46
ag46
ag47
ag48
ag47
ag45
ag48
ag47
ag45
ag46
ag45
ag45
ag48
asg49
(lp132
I00
aI00
aI01
aI01
aI01
aI00
aI01
aI01
aI00
aI00
aI01
aI00
aI00
aI01
aI01
aI00
aI01
aI01
asg51
I18
sg52
g55
sg56
(lp133
(g58
I0
g24
tp134
ag110
ag110
ag61
ag63
ag65
a(g62
I0
g64
tp135
ag66
ag67
ag84
a(g62
F1.5707963267948966
g60
tp136
a(g62
F1.5707963267948966
g54
tp137
ag96
a(g58
F1.5707963267948966
g64
tp138
a(g58
F1.5707963267948966
g60
tp139
ag98
a(g62
F1.5707963267948966
g60
tp140
ag137
asg68
(lp141
g52
ag52
ag70
ag52
ag71
ag72
ag52
ag71
ag70
ag71
ag70
ag52
ag70
ag70
ag52
ag70
ag70
ag72
asg73
(lp142
g52
ag52
ag70
ag52
ag71
ag72
ag52
ag71
ag70
ag70
ag70
ag52
ag70
ag70
ag52
ag72
ag70
ag72
asg75
(lp143
g52
ag52
ag70
ag52
ag71
ag72
ag52
ag71
ag70
ag70
ag70
ag52
ag70
ag70
ag52
ag72
ag70
ag72
asaa(lp144
I6
ag39
(g40
tp145
Rp146
g43
(lp147
g45
ag46
ag47
ag46
ag47
ag45
ag46
ag45
ag47
ag46
ag47
ag45
ag48
asg49
(lp148
I01
aI00
aI01
aI01
aI00
aI01
aI00
aI00
aI01
aI01
aI00
aI01
aI01
asg51
I13
sg52
g55
sg56
(lp149
(g58
I0
g24
tp150
ag61
ag111
ag112
ag63
a(g62
I0
g54
tp151
a(g62
I0
g64
tp152
a(g62
I0
g54
tp153
a(g62
I0
g60
tp154
ag65
ag66
ag136
ag137
asg68
(lp155
g70
ag52
ag71
ag52
ag70
ag70
ag70
ag71
ag71
ag52
ag71
ag70
ag72
asg73
(lp156
g70
ag70
ag71
ag52
ag70
ag70
ag71
ag71
ag71
ag52
ag70
ag70
ag72
asg75
(lp157
g70
ag70
ag71
ag52
ag70
ag70
ag71
ag71
ag71
ag52
ag70
ag70
ag72
asaa(lp158
I7
ag39
(g40
tp159
Rp160
g43
(lp161
g45
ag46
ag47
ag46
ag46
ag47
ag48
ag47
ag46
ag45
ag45
ag45
ag45
ag48
asg49
(lp162
I01
aI01
aI01
aI00
aI01
aI01
aI00
aI01
aI01
aI00
aI00
aI00
aI01
aI01
asg51
I14
sg52
g55
sg56
(lp163
(g58
I0
g24
tp164
ag61
ag63
ag65
ag135
ag66
ag67
ag96
ag97
ag98
ag140
a(g62
F1.5707963267948966
g60
tp165
ag165
ag137
asg68
(lp166
g70
ag52
ag71
ag52
ag52
ag71
ag52
ag71
ag52
ag70
ag52
ag52
ag70
ag72
asg73
(lp167
g70
ag52
ag71
ag72
ag52
ag71
ag52
ag71
ag52
ag72
ag52
ag52
ag70
ag72
asg75
(lp168
g70
ag52
ag71
ag72
ag52
ag71
ag52
ag71
ag52
ag72
ag52
ag52
ag70
ag72
asaa(lp169
I8
ag39
(g40
tp170
Rp171
g43
(lp172
g45
ag46
ag47
ag46
ag47
ag46
ag45
ag46
ag47
ag48
ag47
ag46
ag45
ag48
asg49
(lp173
I01
aI01
aI01
aI01
aI00
aI00
aI01
aI01
aI01
aI00
aI01
aI01
aI01
aI01
asg51
I14
sg52
g55
sg56
(lp174
(g58
I0
g24
tp175
ag61
ag63
ag65
ag66
a(g62
I0
g64
tp176
ag153
ag152
ag66
ag67
ag96
ag97
ag98
ag137
asg68
(lp177
g70
ag52
ag71
ag52
ag71
ag52
ag70
ag52
ag71
ag72
ag71
ag52
ag70
ag72
asg73
(lp178
g70
ag52
ag71
ag52
ag72
ag71
ag70
ag52
ag71
ag52
ag71
ag52
ag70
ag72
asg75
(lp179
g70
ag52
ag71
ag52
ag72
ag71
ag70
ag52
ag71
ag52
ag71
ag52
ag70
ag72
asaa(lp180
I9
ag39
(g40
tp181
Rp182
g43
(lp183
g45
ag46
ag46
ag47
ag45
ag46
ag47
ag48
asg49
(lp184
I01
aI00
aI01
aI00
aI01
aI01
aI01
aI01
asg51
I8
sg52
g55
sg56
(lp185
(g58
I0
g24
tp186
ag61
a(g58
I0
g60
tp187
ag63
ag151
ag152
ag66
ag67
asg68
(lp188
g70
ag72
ag52
ag70
ag70
ag52
ag71
ag72
asg73
(lp189
g70
ag72
ag52
ag70
ag70
ag52
ag71
ag72
asg75
(lp190
g70
ag72
ag52
ag70
ag70
ag52
ag71
ag72
asaatp191
Rp192
aatp193
Rp194
.