ccollections
OrderedDict
p0
((lp1
(lp2
S'combination_dict'
p3
ag0
((lp4
(lp5
S'r_to_g_config'
p6
aS'br'
p7
aa(lp8
S'num_turns'
p9
aI3
aa(lp10
S'start_direction'
p11
acutils_ms
StartDirection
p12
(I0
tp13
Rp14
aa(lp15
S'assistance_type'
p16
acutils_ms
AssistanceType
p17
(I2
tp18
Rp19
aa(lp20
S'start_mode'
p21
aS't'
p22
aa(lp23
S'ui_given_a_noise'
p24
aF0.7
aa(lp25
S'um_given_ui_noise'
p26
aF0.1
aa(lp27
S'entropy_threshold'
p28
aF0.6
aatp29
Rp30
aa(lp31
S'data'
p32
accollections
defaultdict
p33
(c__builtin__
list
p34
tp35
Rp36
S'a'
p37
(lp38
S'mode_r'
p39
aS'move_p'
p40
ag39
aS'move_n'
p41
aS'mode_l'
p42
ag40
ag39
ag41
ag39
ag40
ag42
ag39
ag39
ag41
ag39
ag40
ag39
ag40
ag40
ag39
ag40
ag39
ag41
ag42
ag42
ag39
ag40
ag42
ag40
ag42
ag40
ag39
ag41
ag42
ag40
ag42
ag40
ag39
ag41
ag42
ag39
ag42
ag42
ag42
ag42
ag42
ag40
ag39
ag39
ag39
ag40
ag39
ag39
ag40
ag39
ag42
ag42
ag42
ag39
ag42
ag41
ag42
ag40
ag42
ag42
ag42
ag40
ag42
ag40
ag39
ag40
ag40
ag42
ag42
ag40
ag42
ag40
ag39
ag41
ag42
ag41
ag42
ag39
ag42
ag41
ag42
ag42
ag39
ag40
ag42
ag42
ag42
ag39
ag40
ag39
ag41
ag42
ag42
ag42
ag42
ag41
ag42
ag40
ag39
ag41
asS'assistance_match_with_ground_truth'
p43
(lp44
I01
aI01
aI01
aI00
aI01
aI01
aI01
aI01
aI01
aI00
aI00
aI00
aI01
aI00
aI01
aI01
aI00
aI00
aI01
aI01
aI01
aI01
aI00
aI00
aI00
aI01
aI00
aI01
aI00
aI01
aI01
aI01
aI00
aI01
aI00
aI01
aI00
aI01
aI00
aI00
aI00
aI00
aI00
aI00
aI00
aI01
aI00
aI00
aI00
aI01
aI00
aI00
aI01
aI01
aI00
aI00
aI00
aI00
aI00
aI01
aI00
aI01
aI00
aI00
aI00
aI01
aI00
aI01
aI00
aI01
aI00
aI00
aI00
aI01
aI00
aI01
aI01
aI01
aI00
aI01
aI00
aI00
aI00
aI01
aI01
aI00
aI00
aI01
aI00
aI00
aI00
aI00
aI01
aI00
aI01
aI00
aI00
aI00
aI00
aI01
aI01
aI01
aI01
aI01
aI01
asS'total_steps'
p45
I105
sS'sp'
p46
(lp47
(S'p0'
p48
I0
S'x'
p49
tp50
a(S'p1'
p51
I0
g49
tp52
a(g51
I0
S'y'
p53
tp54
a(g48
I0
g53
tp55
a(g48
I0
g49
tp56
ag52
ag54
a(S'p2'
p57
I0
g53
tp58
a(g57
I0
S't'
p59
tp60
a(g57
I0
g49
tp61
a(S'p3'
p62
I0
g49
tp63
a(g62
I0
g49
tp64
a(g62
I0
g53
tp65
a(g57
I0
g53
tp66
ag60
a(g57
F1.5707963267948966
g59
tp67
a(g57
I0
g59
tp68
a(g57
I0
g59
tp69
ag67
a(g57
F1.5707963267948966
g49
tp70
a(g62
F1.5707963267948966
g49
tp71
a(g62
F1.5707963267948966
g53
tp72
a(g57
F1.5707963267948966
g53
tp73
a(g57
F1.5707963267948966
g53
tp74
a(g57
F1.5707963267948966
g59
tp75
ag70
a(g57
F1.5707963267948966
g53
tp76
a(g57
F1.5707963267948966
g49
tp77
ag76
ag77
ag71
ag72
ag73
ag77
ag76
ag77
a(g51
F1.5707963267948966
g49
tp78
a(g51
F1.5707963267948966
g53
tp79
a(g48
F1.5707963267948966
g53
tp80
a(g48
F1.5707963267948966
g59
tp81
a(g48
F1.5707963267948966
g53
tp82
a(g48
F1.5707963267948966
g53
tp83
ag83
ag83
ag83
a(g48
F1.5707963267948966
g49
tp84
a(g48
F1.5707963267948966
g59
tp85
a(g48
F1.5707963267948966
g59
tp86
a(g48
F1.5707963267948966
g59
tp87
a(g48
F1.5707963267948966
g49
tp88
ag85
ag87
ag88
a(g51
F1.5707963267948966
g49
tp89
a(g51
F1.5707963267948966
g59
tp90
a(g51
F1.5707963267948966
g59
tp91
a(g51
F1.5707963267948966
g59
tp92
a(g51
F1.5707963267948966
g49
tp93
ag90
a(g51
F1.5707963267948966
g53
tp94
ag80
ag84
a(g48
F1.5707963267948966
g53
tp95
a(g48
F1.5707963267948966
g53
tp96
ag83
ag84
ag95
ag84
ag85
ag88
a(g48
F1.5707963267948966
g49
tp97
ag95
ag96
ag84
ag95
ag84
ag89
ag79
a(g51
F1.5707963267948966
g59
tp98
ag94
ag98
ag93
ag90
ag94
a(g57
F1.5707963267948966
g53
tp99
a(g57
F1.5707963267948966
g53
tp100
ag75
ag70
ag76
ag100
ag100
ag75
ag70
ag78
ag79
ag98
ag91
ag92
ag91
ag94
ag99
ag77
ag71
ag72
a(S'p4'
p101
F1.5707963267948966
g53
tp102
asS's'
p103
(lp104
(g48
I0
g22
tp105
ag50
ag52
ag54
ag55
ag56
ag52
ag54
ag58
ag60
ag61
ag63
ag64
ag65
ag66
ag60
ag67
ag68
ag69
ag67
ag70
ag71
ag72
ag73
ag74
ag75
ag70
ag76
ag77
ag76
ag77
ag71
ag72
ag73
ag77
ag76
ag77
ag78
ag79
ag80
ag81
ag82
ag83
ag83
ag83
ag83
ag84
ag85
ag86
ag87
ag88
ag85
ag87
ag88
ag89
ag90
ag91
ag92
ag93
ag90
ag94
ag80
ag84
ag95
ag96
ag83
ag84
ag95
ag84
ag85
ag88
ag97
ag95
ag96
ag84
ag95
ag84
ag89
ag79
ag98
ag94
ag98
ag93
ag90
ag94
ag99
ag100
ag75
ag70
ag76
ag100
ag100
ag75
ag70
ag78
ag79
ag98
ag91
ag92
ag91
ag94
ag99
ag77
ag71
ag72
asS'ui'
p106
(lp107
S'hp'
p108
ag46
ag108
ag46
aS'hs'
p109
ag46
ag108
aS'ss'
p110
ag108
ag108
ag46
ag46
ag108
ag110
ag108
ag46
ag110
ag110
ag46
ag108
ag46
ag108
ag46
ag110
ag108
ag108
ag110
ag110
ag108
ag109
ag46
ag110
ag110
ag109
ag108
ag109
ag46
ag108
ag109
ag108
ag109
ag108
ag110
ag110
ag110
ag109
ag109
ag46
ag110
ag108
ag109
ag110
ag108
ag46
ag109
ag110
ag108
ag108
ag109
ag109
ag46
ag109
ag46
ag46
ag110
ag109
ag108
ag109
ag109
ag108
ag109
ag108
ag46
ag109
ag108
ag109
ag46
ag108
ag108
ag109
ag109
ag108
ag109
ag109
ag110
ag46
ag108
ag108
ag46
ag46
ag46
ag108
ag108
ag108
ag108
ag108
ag46
ag110
ag46
ag109
ag110
ag109
ag46
ag108
ag110
asS'um_before'
p111
(lp112
g108
ag46
ag108
ag46
ag109
ag46
ag108
ag110
ag108
ag108
ag46
ag46
ag108
ag46
ag108
ag46
ag110
ag110
ag46
ag108
ag46
ag108
ag46
ag110
ag108
ag108
ag108
ag109
ag108
ag109
ag46
ag108
ag46
ag109
ag108
ag109
ag110
ag108
ag46
ag108
ag109
ag110
ag110
ag110
ag110
ag109
ag109
ag46
ag110
ag108
ag109
ag110
ag108
ag46
ag109
ag46
ag110
ag108
ag109
ag109
ag46
ag109
ag108
ag46
ag110
ag109
ag108
ag109
ag109
ag108
ag110
ag108
ag46
ag109
ag108
ag109
ag46
ag108
ag108
ag109
ag108
ag108
ag109
ag109
ag110
ag46
ag108
ag108
ag108
ag46
ag46
ag108
ag108
ag110
ag108
ag108
ag46
ag110
ag46
ag109
ag110
ag109
ag46
ag108
ag110
asS'um_after'
p113
(lp114
g108
ag46
ag108
ag46
ag109
ag46
ag108
ag110
ag108
ag108
ag46
ag46
ag108
ag46
ag108
ag46
ag110
ag110
ag46
ag108
ag46
ag108
ag46
ag110
ag108
ag108
ag108
ag109
ag108
ag109
ag46
ag108
ag46
ag109
ag108
ag109
ag110
ag108
ag46
ag108
ag109
ag110
ag110
ag110
ag110
ag109
ag109
ag46
ag110
ag108
ag109
ag110
ag108
ag46
ag109
ag46
ag110
ag108
ag109
ag109
ag46
ag109
ag108
ag46
ag110
ag109
ag108
ag109
ag109
ag108
ag110
ag108
ag46
ag109
ag108
ag109
ag46
ag108
ag108
ag109
ag108
ag108
ag109
ag109
ag110
ag46
ag108
ag108
ag108
ag46
ag46
ag108
ag108
ag110
ag108
ag108
ag46
ag110
ag46
ag109
ag110
ag109
ag46
ag108
ag110
asaa(lp115
S'index'
p116
aI109418
aatp117
Rp118
.