ccollections
OrderedDict
p0
((lp1
(lp2
S'index'
p3
aI10978
aa(lp4
S'combination_dict'
p5
ag0
((lp6
(lp7
S'r_to_g_config'
p8
aS'bl'
p9
aa(lp10
S'num_turns'
p11
aI3
aa(lp12
S'start_direction'
p13
acutils_ms
StartDirection
p14
(I1
tp15
Rp16
aa(lp17
S'assistance_type'
p18
acutils_ms
AssistanceType
p19
(I0
tp20
Rp21
aa(lp22
S'start_mode'
p23
aS'x'
p24
aa(lp25
S'ui_given_a_noise'
p26
aF0.5
aa(lp27
S'um_given_ui_noise'
p28
aF0.3
aa(lp29
S'entropy_threshold'
p30
aF0.9
aa(lp31
S'is_assistance'
p32
aI01
aatp33
Rp34
aa(lp35
S'trials'
p36
ag0
((lp37
(lp38
I0
accollections
defaultdict
p39
(c__builtin__
list
p40
tp41
Rp42
S'a'
p43
(lp44
S'mode_r'
p45
aS'move_n'
p46
aS'mode_l'
p47
ag45
ag45
ag45
ag46
ag47
ag45
ag46
ag46
ag45
ag46
ag45
ag46
ag47
aS'move_p'
p48
ag47
ag48
ag47
ag45
ag46
ag47
ag46
asS'assistance_match_with_ground_truth'
p49
(lp50
I01
aI00
aI00
aI00
aI00
aI01
aI01
aI00
aI01
aI00
aI00
aI01
aI00
aI01
aI01
aI01
aI01
aI00
aI01
aI00
aI01
aI01
aI01
aI01
asS'total_steps'
p51
I24
sS'sp'
p52
(S'p4'
p53
F1.5707963267948966
S'x'
p54
tp55
sS's'
p56
(lp57
(S'p0'
p58
I0
g24
tp59
a(g58
I0
S'y'
p60
tp61
a(g58
I0
S't'
p62
tp63
a(g58
I0
g54
tp64
a(g58
I0
g54
tp65
ag65
ag61
a(S'p1'
p66
I0
g60
tp67
a(g66
I0
g62
tp68
a(g66
I0
g54
tp69
ag69
a(g66
I0
g62
tp70
ag69
ag70
ag69
a(S'p2'
p71
I0
g54
tp72
a(g71
I0
g62
tp73
a(g71
F1.5707963267948966
g62
tp74
a(g71
I0
g62
tp75
ag74
a(g71
F1.5707963267948966
g54
tp76
a(g71
F1.5707963267948966
g60
tp77
a(S'p3'
p78
F1.5707963267948966
g60
tp79
a(g78
F1.5707963267948966
g54
tp80
asS'ui'
p81
(lp82
S'hp'
p83
ag83
aS'hs'
p84
aS'ss'
p85
ag52
ag83
ag85
ag52
ag85
ag83
ag52
ag83
ag84
ag83
ag85
ag84
ag52
ag52
ag52
ag84
ag83
ag85
ag84
ag85
asS'um_before'
p86
(lp87
g83
ag83
ag83
ag52
ag52
ag83
ag85
ag83
ag83
ag52
ag84
ag83
ag84
ag83
ag85
ag84
ag52
ag85
ag52
ag83
ag83
ag85
ag84
ag85
asS'um_after'
p88
(lp89
g83
ag83
ag83
ag52
ag52
ag83
ag85
ag83
ag83
aNag84
ag83
ag84
ag83
ag85
ag84
ag52
ag85
ag52
ag83
ag83
ag85
ag84
ag85
asaa(lp90
I1
ag39
(g40
tp91
Rp92
g43
(lp93
g45
ag45
ag45
ag45
ag45
ag45
ag45
ag45
ag45
ag45
ag46
ag45
ag45
ag46
ag47
ag45
ag45
ag46
ag47
ag46
ag47
ag45
ag48
ag47
ag45
ag47
ag46
asg49
(lp94
I00
aI00
aI00
aI00
aI00
aI00
aI00
aI00
aI00
aI01
aI00
aI00
aI01
aI01
aI00
aI00
aI01
aI00
aI01
aI01
aI00
aI01
aI00
aI00
aI00
aI01
aI01
asg51
I27
sg52
(g53
I0
g54
tp95
sg56
(lp96
(g58
I0
g24
tp97
a(g58
I0
g54
tp98
ag98
ag98
ag98
ag98
ag98
ag65
ag98
ag98
ag61
a(g58
I0
g54
tp99
ag65
ag61
ag67
ag68
ag68
ag69
a(g66
I0
g60
tp100
a(g66
I0
g54
tp101
ag72
a(g71
I0
g60
tp102
a(g71
I0
g62
tp103
a(g71
I0
g54
tp104
ag102
a(g78
I0
g60
tp105
a(g78
I0
g54
tp106
asg81
(lp107
g85
ag83
ag85
ag52
ag52
ag84
ag85
ag85
ag83
ag83
ag52
ag52
ag83
ag85
ag84
ag85
ag83
ag83
ag83
ag85
ag83
ag83
ag83
ag83
ag85
ag83
ag85
asg86
(lp108
g85
ag84
ag85
ag85
ag84
ag84
ag52
ag85
ag84
ag83
ag84
ag52
ag83
ag85
ag83
ag84
ag83
ag83
ag84
ag85
ag83
ag83
ag83
ag83
ag85
ag84
ag85
asg88
(lp109
g85
aNag85
ag85
aNaNag52
ag85
aNag83
ag84
ag52
ag83
ag85
ag83
aNag83
ag83
ag84
ag85
ag83
ag83
ag83
ag83
ag85
ag84
ag85
asaa(lp110
I2
ag39
(g40
tp111
Rp112
g43
(lp113
g45
ag45
ag46
ag45
ag46
ag46
ag46
ag47
ag45
ag45
ag45
ag45
ag45
ag46
ag47
ag47
ag46
ag47
ag47
ag48
ag47
ag46
ag47
ag47
ag46
ag47
ag47
ag46
asg49
(lp114
I00
aI01
aI00
aI01
aI00
aI00
aI00
aI00
aI00
aI00
aI00
aI00
aI01
aI01
aI00
aI01
aI01
aI00
aI01
aI01
aI01
aI01
aI00
aI01
aI00
aI00
aI01
aI01
asg51
I28
sg52
g55
sg56
(lp115
(g58
I0
g24
tp116
ag65
ag61
ag99
ag61
ag61
ag61
ag63
ag64
ag98
ag65
ag98
ag98
ag61
ag67
a(g66
I0
g60
tp117
ag101
ag72
a(g71
I0
g54
tp118
ag73
ag74
a(g71
F1.5707963267948966
g60
tp119
ag79
a(g78
F1.5707963267948966
g60
tp120
ag80
a(g78
F1.5707963267948966
g60
tp121
a(g78
F1.5707963267948966
g60
tp122
ag80
asg81
(lp123
g85
ag83
ag84
ag83
ag52
ag52
ag83
ag83
ag85
ag52
ag85
ag52
ag83
ag85
ag84
ag84
ag85
ag84
ag84
ag52
ag84
ag85
ag84
ag84
ag83
ag52
ag84
ag85
asg86
(lp124
g52
ag83
ag84
ag83
ag52
ag52
ag83
ag83
ag85
ag52
ag85
ag85
ag83
ag85
ag85
ag84
ag85
ag85
ag84
ag52
ag84
ag85
ag85
ag84
ag83
ag52
ag84
ag85
asg88
(lp125
g52
ag83
ag84
ag83
aNaNag83
ag83
ag85
ag52
ag85
ag85
ag83
ag85
ag85
ag84
ag85
ag85
ag84
ag52
ag84
ag85
ag85
ag84
ag83
ag52
ag84
ag85
asaa(lp126
I3
ag39
(g40
tp127
Rp128
g43
(lp129
g45
ag46
ag47
ag46
ag47
ag47
ag46
ag46
ag47
ag48
ag47
ag47
ag46
ag45
ag45
ag46
ag46
ag45
ag45
ag46
ag47
ag48
ag45
ag48
ag45
ag47
ag45
ag46
ag47
ag47
ag47
ag46
ag47
ag47
ag47
ag46
ag45
ag45
ag46
ag45
ag45
ag46
asg49
(lp130
I01
aI01
aI01
aI00
aI00
aI01
aI00
aI01
aI01
aI01
aI00
aI01
aI00
aI00
aI01
aI00
aI00
aI00
aI01
aI00
aI00
aI00
aI01
aI00
aI00
aI00
aI01
aI00
aI00
aI00
aI01
aI00
aI00
aI00
aI01
aI00
aI00
aI01
aI00
aI00
aI01
aI01
asg51
I42
sg52
g95
sg56
(lp131
(g58
I0
g24
tp132
ag61
ag67
ag101
ag100
ag117
ag101
ag101
ag72
ag73
ag74
a(g71
F1.5707963267948966
g62
tp133
ag119
a(g71
F1.5707963267948966
g54
tp134
a(g71
F1.5707963267948966
g54
tp135
ag77
ag77
ag134
ag135
ag77
a(g71
F1.5707963267948966
g62
tp136
ag75
a(g71
I0
g60
tp137
ag103
ag137
ag105
a(g78
I0
g62
tp138
a(g78
I0
g54
tp139
a(g78
I0
g60
tp140
a(g78
I0
g60
tp141
ag141
ag106
ag140
a(g78
I0
g60
tp142
ag142
ag106
a(g78
I0
g62
tp143
a(g78
I0
g62
tp144
ag139
ag143
ag144
ag139
asg81
(lp145
g83
ag85
ag84
ag83
ag85
ag84
ag85
ag85
ag84
ag52
ag52
ag84
ag84
ag85
ag83
ag85
ag84
ag85
ag83
ag84
ag85
ag84
ag83
ag84
ag85
ag84
ag83
ag85
ag85
ag52
ag84
ag83
ag85
ag52
ag52
ag84
ag83
ag83
ag84
ag85
ag84
ag85
asg86
(lp146
g83
ag85
ag84
ag83
ag85
ag84
ag52
ag85
ag84
ag52
ag52
ag84
ag84
ag85
ag83
ag52
ag84
ag85
ag83
ag83
ag85
ag84
ag83
ag84
ag85
ag83
ag83
ag83
ag52
ag52
ag84
ag83
ag85
ag85
ag84
ag84
ag52
ag83
ag84
ag52
ag83
ag85
asg88
(lp147
g83
ag85
ag84
ag83
ag85
ag84
aNag85
ag84
ag52
ag52
ag84
ag84
ag85
ag83
aNag84
ag85
ag83
ag83
ag85
ag84
ag83
ag84
ag85
ag83
ag83
ag83
ag52
ag52
ag84
ag83
ag85
ag85
ag84
ag84
ag52
ag83
ag84
ag52
ag83
ag85
asaa(lp148
I4
ag39
(g40
tp149
Rp150
g43
(lp151
g45
ag46
ag47
ag47
ag47
ag47
ag47
ag47
ag45
ag45
ag45
ag46
ag47
ag46
ag47
ag47
ag45
ag45
ag45
ag46
ag47
ag46
ag47
ag45
ag47
ag46
ag47
ag48
ag47
ag45
ag45
ag46
ag45
ag45
ag45
ag45
ag45
ag46
ag45
ag45
ag45
ag46
ag46
ag47
ag46
ag45
ag46
asg49
(lp152
I01
aI00
aI00
aI00
aI00
aI00
aI00
aI00
aI00
aI00
aI01
aI00
aI01
aI00
aI00
aI00
aI00
aI00
aI01
aI01
aI01
aI01
aI00
aI00
aI01
aI01
aI01
aI01
aI00
aI00
aI01
aI00
aI00
aI00
aI00
aI00
aI01
aI00
aI00
aI00
aI01
aI00
aI01
aI01
aI00
aI01
aI01
asg51
I47
sg52
g55
sg56
(lp153
(g58
I0
g24
tp154
ag61
ag63
a(g58
I0
g62
tp155
a(g58
I0
g62
tp156
ag155
ag155
ag156
ag64
ag64
ag64
ag61
ag63
a(g58
I0
g60
tp157
ag63
ag156
ag64
ag65
ag65
ag61
ag67
ag101
ag72
ag102
a(g66
I0
g60
tp158
ag101
ag72
ag73
ag74
ag76
ag76
ag77
ag134
ag135
ag135
ag135
ag135
ag77
ag134
a(g71
F1.5707963267948966
g54
tp159
ag135
ag77
ag77
ag79
ag80
a(g78
F1.5707963267948966
g62
tp160
a(g78
F1.5707963267948966
g54
tp161
asg81
(lp162
g83
ag83
ag52
ag84
ag83
ag85
ag84
ag83
ag84
ag84
ag83
ag83
ag84
ag85
ag52
ag84
ag52
ag83
ag83
ag85
ag52
ag85
ag83
ag83
ag84
ag85
ag84
ag52
ag83
ag52
ag83
ag84
ag85
ag85
ag85
ag84
ag83
ag84
ag83
ag52
ag83
ag83
ag85
ag84
ag84
ag83
ag85
asg86
(lp163
g83
ag83
ag52
ag85
ag52
ag52
ag85
ag83
ag84
ag84
ag83
ag83
ag84
ag83
ag85
ag83
ag52
ag84
ag83
ag85
ag84
ag85
ag83
ag52
ag84
ag85
ag84
ag52
ag83
ag84
ag83
ag84
ag85
ag85
ag85
ag84
ag83
ag84
ag52
ag85
ag83
ag52
ag85
ag84
ag84
ag83
ag85
asg88
(lp164
g83
ag83
ag52
ag85
ag52
ag52
ag85
ag83
aNaNag83
ag83
ag84
ag83
ag85
ag83
ag52
aNag83
ag85
ag84
ag85
ag83
ag52
ag84
ag85
ag84
ag52
ag83
aNag83
ag84
ag85
ag85
ag85
aNag83
ag84
ag52
ag85
ag83
aNag85
ag84
ag84
ag83
ag85
asaa(lp165
I5
ag39
(g40
tp166
Rp167
g43
(lp168
g45
ag45
ag45
ag45
ag45
ag45
ag46
ag47
ag47
ag47
ag47
ag46
ag47
ag47
ag47
ag47
ag45
ag45
ag45
ag46
ag47
ag48
ag47
ag47
ag45
ag45
ag46
ag45
ag46
ag47
ag47
ag46
ag47
ag46
asg49
(lp169
I00
aI00
aI00
aI00
aI00
aI01
aI00
aI00
aI00
aI00
aI01
aI01
aI00
aI00
aI00
aI00
aI00
aI00
aI01
aI01
aI01
aI01
aI00
aI00
aI00
aI01
aI00
aI01
aI01
aI00
aI01
aI00
aI01
aI01
asg51
I34
sg52
g55
sg56
(lp170
(g58
I0
g24
tp171
ag171
ag171
ag65
ag65
ag65
ag61
ag63
ag156
ag156
ag156
ag157
ag67
ag117
a(g66
I0
g60
tp172
ag117
ag68
a(g66
I0
g62
tp173
ag173
ag69
ag72
ag73
ag74
ag133
ag76
ag135
ag77
ag134
ag77
ag79
ag122
ag80
ag121
ag80
asg81
(lp174
g83
ag84
ag52
ag83
ag52
ag83
ag83
ag85
ag85
ag85
ag84
ag85
ag52
ag83
ag85
ag84
ag83
ag83
ag83
ag85
ag84
ag52
ag85
ag83
ag85
ag83
ag84
ag83
ag85
ag85
ag84
ag83
ag84
ag85
asg86
(lp175
g84
ag84
ag52
ag52
ag52
ag83
ag83
ag85
ag85
ag85
ag84
ag85
ag85
ag52
ag85
ag83
ag52
ag52
ag83
ag85
ag84
ag52
ag52
ag83
ag85
ag83
ag84
ag83
ag85
ag52
ag84
ag83
ag84
ag85
asg88
(lp176
NaNag52
ag52
ag52
ag83
ag83
ag85
ag85
ag85
ag84
ag85
ag85
ag52
ag85
ag83
ag52
ag52
ag83
ag85
ag84
ag52
ag52
ag83
ag85
ag83
ag84
ag83
ag85
ag52
ag84
ag83
ag84
ag85
asaa(lp177
I6
ag39
(g40
tp178
Rp179
g43
(lp180
g45
ag45
ag46
ag47
ag46
ag46
ag47
ag48
ag47
ag47
ag45
ag45
ag45
ag46
ag47
ag46
asg49
(lp181
I00
aI01
aI01
aI01
aI00
aI01
aI01
aI01
aI00
aI00
aI00
aI00
aI01
aI01
aI01
aI01
asg51
I16
sg52
g55
sg56
(lp182
(g58
I0
g24
tp183
ag65
ag61
ag67
ag101
ag101
ag72
ag73
ag74
ag133
ag76
ag159
ag159
ag77
ag79
ag80
asg81
(lp184
g83
ag83
ag85
ag84
ag52
ag84
ag84
ag52
ag52
ag84
ag83
ag83
ag83
ag85
ag84
ag85
asg86
(lp185
g52
ag83
ag85
ag84
ag52
ag85
ag84
ag52
ag52
ag83
ag52
ag84
ag83
ag85
ag84
ag85
asg88
(lp186
g52
ag83
ag85
ag84
aNag85
ag84
ag52
ag52
ag83
ag52
aNag83
ag85
ag84
ag85
asaa(lp187
I7
ag39
(g40
tp188
Rp189
g43
(lp190
g45
ag46
ag47
ag46
ag46
ag47
ag45
ag45
ag46
ag47
ag47
ag47
ag48
ag47
ag47
ag47
ag45
ag45
ag45
ag45
ag46
ag46
ag46
ag47
ag47
ag46
ag47
ag46
asg49
(lp191
I01
aI00
aI01
aI00
aI01
aI00
aI00
aI01
aI01
aI00
aI00
aI01
aI01
aI00
aI00
aI00
aI00
aI00
aI00
aI01
aI00
aI00
aI01
aI00
aI01
aI00
aI01
aI01
asg51
I28
sg52
g55
sg56
(lp192
(g58
I0
g24
tp193
ag61
ag63
ag157
ag157
ag67
ag68
ag173
ag69
ag72
ag118
a(g71
I0
g54
tp194
ag73
ag74
ag133
ag133
ag76
ag135
ag159
ag135
ag77
ag77
ag77
ag79
ag120
ag80
ag121
ag80
asg81
(lp195
g83
ag85
ag84
ag83
ag85
ag83
ag83
ag83
ag85
ag85
ag83
ag84
ag52
ag52
ag85
ag84
ag52
ag52
ag85
ag83
ag85
ag85
ag85
ag85
ag84
ag85
ag84
ag85
asg86
(lp196
g83
ag83
ag84
ag52
ag85
ag83
ag52
ag83
ag85
ag85
ag52
ag84
ag52
ag52
ag52
ag83
ag85
ag52
ag85
ag83
ag52
ag52
ag85
ag85
ag84
ag83
ag84
ag85
asg88
(lp197
g83
ag83
ag84
aNag85
ag83
ag52
ag83
ag85
ag85
ag52
ag84
ag52
ag52
ag52
ag83
ag85
ag52
ag85
ag83
aNaNag85
ag85
ag84
ag83
ag84
ag85
asaa(lp198
I8
ag39
(g40
tp199
Rp200
g43
(lp201
g45
ag45
ag45
ag45
ag46
ag47
ag47
ag46
ag47
ag45
ag47
ag45
ag46
ag47
ag47
ag47
ag47
ag48
ag47
ag48
ag48
ag45
ag47
ag45
ag45
ag45
ag45
ag46
ag45
ag46
ag47
ag48
ag47
ag46
ag47
ag47
ag46
ag45
ag45
ag45
ag45
ag45
ag46
asg49
(lp202
I00
aI00
aI00
aI01
aI01
aI00
aI01
aI01
aI00
aI00
aI00
aI01
aI01
aI00
aI00
aI00
aI01
aI01
aI00
aI00
aI00
aI00
aI00
aI00
aI00
aI00
aI01
aI00
aI01
aI01
aI01
aI01
aI01
aI01
aI00
aI01
aI00
aI00
aI00
aI00
aI00
aI01
aI01
asg51
I43
sg52
g55
sg56
(lp203
(g58
I0
g24
tp204
ag204
ag98
ag65
ag61
ag67
ag117
ag101
ag72
ag102
ag158
ag68
ag69
ag72
ag194
ag118
ag118
ag73
ag74
ag75
a(g71
I0
g62
tp205
ag137
ag158
ag68
ag173
ag173
ag173
ag69
ag70
ag69
ag72
ag73
ag74
ag119
ag79
ag120
ag80
ag160
a(g78
F1.5707963267948966
g62
tp206
ag206
ag206
a(g78
F1.5707963267948966
g62
tp207
ag161
asg81
(lp208
g83
ag52
ag83
ag84
ag85
ag85
ag84
ag85
ag84
ag52
ag84
ag83
ag85
ag83
ag84
ag85
ag84
ag52
ag85
ag85
ag84
ag83
ag84
ag52
ag83
ag52
ag83
ag84
ag83
ag85
ag84
ag52
ag84
ag85
ag85
ag84
ag84
ag52
ag85
ag52
ag52
ag83
ag85
asg86
(lp209
g84
ag85
ag52
ag83
ag85
ag85
ag84
ag85
ag83
ag52
ag83
ag83
ag85
ag52
ag85
ag85
ag84
ag52
ag85
ag85
ag84
ag52
ag83
ag52
ag52
ag52
ag83
ag84
ag83
ag85
ag84
ag52
ag84
ag85
ag85
ag84
ag84
ag85
ag85
ag84
ag52
ag83
ag85
asg88
(lp210
Nag85
ag52
ag83
ag85
ag85
ag84
ag85
ag83
ag52
ag83
ag83
ag85
ag52
ag85
ag85
ag84
ag52
ag85
ag85
ag84
ag52
ag83
ag52
ag52
ag52
ag83
ag84
ag83
ag85
ag84
ag52
ag84
ag85
ag85
ag84
ag84
ag85
ag85
aNag52
ag83
ag85
asaa(lp211
I9
ag39
(g40
tp212
Rp213
g43
(lp214
g45
ag46
ag47
ag47
ag47
ag46
ag47
ag46
ag47
ag48
ag48
ag45
ag48
ag47
ag46
ag47
ag47
ag46
asg49
(lp215
I01
aI00
aI00
aI00
aI01
aI01
aI01
aI01
aI01
aI00
aI00
aI01
aI01
aI01
aI01
aI00
aI01
aI01
asg51
I18
sg52
g55
sg56
(lp216
(g58
I0
g24
tp217
ag61
ag63
ag155
ag155
ag157
ag67
ag101
ag72
ag73
ag205
ag137
ag103
ag74
ag119
ag79
ag120
ag80
asg81
(lp218
g83
ag83
ag85
ag85
ag84
ag85
ag84
ag83
ag84
ag52
ag84
ag83
ag52
ag84
ag85
ag52
ag84
ag52
asg86
(lp219
g83
ag83
ag52
ag52
ag84
ag85
ag84
ag85
ag84
ag85
ag84
ag83
ag52
ag84
ag85
ag85
ag84
ag85
asg88
(lp220
g83
ag83
ag52
ag52
ag84
ag85
ag84
ag85
ag84
ag85
ag84
ag83
ag52
ag84
ag85
ag85
ag84
ag85
asaatp221
Rp222
aatp223
Rp224
.