ccollections
OrderedDict
p0
((lp1
(lp2
S'index'
p3
aI14894
aa(lp4
S'combination_dict'
p5
ag0
((lp6
(lp7
S'r_to_g_config'
p8
aS'br'
p9
aa(lp10
S'num_turns'
p11
aI3
aa(lp12
S'start_direction'
p13
acutils_ms
StartDirection
p14
(I1
tp15
Rp16
aa(lp17
S'assistance_type'
p18
acutils_ms
AssistanceType
p19
(I0
tp20
Rp21
aa(lp22
S'start_mode'
p23
aS't'
p24
aa(lp25
S'ui_given_a_noise'
p26
aF0.1
aa(lp27
S'um_given_ui_noise'
p28
aF0.3
aa(lp29
S'entropy_threshold'
p30
aF0.7
aa(lp31
S'is_assistance'
p32
aI01
aatp33
Rp34
aa(lp35
S'trials'
p36
ag0
((lp37
(lp38
I0
accollections
defaultdict
p39
(c__builtin__
list
p40
tp41
Rp42
S'a'
p43
(lp44
S'mode_l'
p45
aS'move_n'
p46
ag45
ag45
ag45
ag45
aS'move_p'
p47
ag45
ag47
ag45
ag45
ag45
ag46
ag45
ag47
asS'assistance_match_with_ground_truth'
p48
(lp49
I01
aI01
aI00
aI00
aI00
aI01
aI01
aI01
aI01
aI00
aI00
aI01
aI01
aI01
aI01
asS'total_steps'
p50
I15
sS'sp'
p51
(S'p4'
p52
F1.5707963267948966
S'x'
p53
tp54
sS's'
p55
(lp56
(S'p0'
p57
I0
g24
tp58
a(g57
I0
S'y'
p59
tp60
a(S'p1'
p61
I0
g59
tp62
ag62
ag62
ag62
a(g61
I0
g53
tp63
a(S'p2'
p64
I0
g53
tp65
a(g64
I0
S't'
p66
tp67
a(g64
F1.5707963267948966
g66
tp68
ag68
ag68
a(g64
F1.5707963267948966
g59
tp69
a(S'p3'
p70
F1.5707963267948966
g59
tp71
a(g70
F1.5707963267948966
g53
tp72
asS'ui'
p73
(lp74
S'hs'
p75
aS'ss'
p76
aS'hp'
p77
ag75
ag75
ag75
ag51
ag75
ag51
ag75
ag75
ag75
ag76
ag75
ag51
asS'um_before'
p78
(lp79
g75
ag76
ag77
ag77
ag77
ag75
ag51
ag75
ag51
ag77
ag77
ag75
ag76
ag75
ag51
asS'um_after'
p80
(lp81
g75
ag76
aNaNaNag75
ag51
ag75
ag51
aNaNag75
ag76
ag75
ag51
asaa(lp82
I1
ag39
(g40
tp83
Rp84
g43
(lp85
g45
ag46
ag45
ag47
ag45
ag47
ag45
ag46
aS'mode_r'
p86
ag46
ag86
ag46
ag86
ag86
ag46
ag45
ag47
ag45
ag47
asg48
(lp87
I01
aI01
aI01
aI01
aI01
aI01
aI01
aI00
aI01
aI00
aI01
aI00
aI00
aI01
aI01
aI01
aI00
aI01
aI01
asg50
I19
sg51
g54
sg55
(lp88
(g57
I0
g24
tp89
ag60
ag62
ag63
ag65
ag67
ag68
ag69
a(g64
F1.5707963267948966
g53
tp90
a(g64
F1.5707963267948966
g59
tp91
ag90
ag91
ag90
ag90
ag91
ag71
ag72
a(g70
F1.5707963267948966
g59
tp92
ag72
asg73
(lp93
g75
ag76
ag75
ag51
ag75
ag51
ag75
ag76
ag77
ag75
ag77
ag76
ag77
ag77
ag76
ag75
ag75
ag75
ag51
asg78
(lp94
g75
ag76
ag75
ag51
ag75
ag51
ag75
ag75
ag77
ag75
ag77
ag75
ag51
ag77
ag76
ag75
ag77
ag75
ag51
asg80
(lp95
g75
ag76
ag75
ag51
ag75
ag51
ag75
ag75
ag77
ag75
ag77
ag75
aNag77
ag76
ag75
ag77
ag75
ag51
asaa(lp96
I2
ag39
(g40
tp97
Rp98
g43
(lp99
g45
ag45
ag45
ag46
ag45
ag45
ag45
ag45
ag47
ag45
ag45
ag47
ag45
ag46
ag45
ag47
ag47
asg48
(lp100
I00
aI00
aI01
aI01
aI00
aI00
aI00
aI01
aI01
aI00
aI01
aI01
aI01
aI01
aI01
aI00
aI01
asg50
I17
sg51
g54
sg55
(lp101
(g57
I0
g24
tp102
ag102
ag102
ag60
ag62
ag62
ag62
a(g61
I0
g59
tp103
ag63
ag65
ag65
ag67
ag68
ag69
ag71
ag72
ag72
asg73
(lp104
g75
ag76
ag75
ag76
ag75
ag75
ag75
ag75
ag51
ag75
ag75
ag51
ag75
ag76
ag75
ag75
ag51
asg78
(lp105
g77
ag76
ag75
ag76
ag76
ag77
ag51
ag75
ag51
ag77
ag75
ag51
ag75
ag76
ag75
ag75
ag51
asg80
(lp106
NaNag75
ag76
aNaNag51
ag75
ag51
aNag75
ag51
ag75
ag76
ag75
aNag51
asaa(lp107
I3
ag39
(g40
tp108
Rp109
g43
(lp110
g45
ag46
ag86
ag46
ag46
ag86
ag46
ag86
ag46
ag45
ag47
ag45
ag47
ag45
ag45
ag46
ag45
ag45
ag47
ag47
ag47
asg48
(lp111
I01
aI00
aI01
aI00
aI00
aI01
aI00
aI01
aI01
aI01
aI01
aI01
aI01
aI00
aI01
aI01
aI00
aI01
aI00
aI00
aI01
asg50
I21
sg51
g54
sg55
(lp112
(g57
I0
g24
tp113
ag60
a(g57
I0
g53
tp114
a(g57
I0
g59
tp115
ag115
ag114
ag115
ag114
ag115
ag62
ag63
ag65
ag67
ag68
ag68
ag69
ag71
a(g70
F1.5707963267948966
g59
tp116
ag72
ag72
ag72
asg73
(lp117
g75
ag75
ag77
ag51
ag77
ag77
ag76
ag77
ag76
ag75
ag51
ag75
ag51
ag75
ag75
ag76
ag75
ag75
ag51
ag51
ag51
asg78
(lp118
g75
ag75
ag77
ag51
ag75
ag77
ag75
ag77
ag76
ag75
ag51
ag75
ag51
ag76
ag75
ag76
ag51
ag75
ag75
ag75
ag51
asg80
(lp119
g75
ag75
ag77
aNag75
ag77
ag75
ag77
ag76
ag75
ag51
ag75
ag51
aNag75
ag76
ag51
ag75
aNaNag51
asaa(lp120
I4
ag39
(g40
tp121
Rp122
g43
(lp123
g45
ag46
ag45
ag45
ag47
ag47
ag86
ag86
ag86
ag86
ag46
ag45
ag47
ag45
ag47
ag47
ag45
ag46
ag45
ag45
ag47
ag47
asg48
(lp124
I01
aI01
aI00
aI01
aI00
aI00
aI00
aI00
aI00
aI01
aI01
aI01
aI01
aI01
aI00
aI01
aI01
aI01
aI00
aI01
aI00
aI01
asg50
I22
sg51
g54
sg55
(lp125
(g57
I0
g24
tp126
ag60
ag62
ag62
ag63
ag63
a(g57
I0
g53
tp127
ag127
ag127
a(g57
I0
g53
tp128
ag115
ag62
ag63
ag65
ag67
ag67
ag68
ag69
ag71
ag71
ag72
ag72
asg73
(lp129
g75
ag76
ag75
ag75
ag75
ag76
ag77
ag77
ag76
ag77
ag76
ag75
ag51
ag75
ag51
ag51
ag75
ag76
ag75
ag75
ag51
ag51
asg78
(lp130
g75
ag76
ag77
ag75
ag75
ag76
ag51
ag51
ag76
ag77
ag76
ag75
ag51
ag75
ag75
ag51
ag75
ag76
ag77
ag75
ag75
ag51
asg80
(lp131
g75
ag76
aNag75
aNag76
aNaNag76
ag77
ag76
ag75
ag51
ag75
aNag51
ag75
ag76
aNag75
aNag51
asaa(lp132
I5
ag39
(g40
tp133
Rp134
g43
(lp135
g45
ag45
ag45
ag45
ag46
ag45
ag47
ag47
ag45
ag47
ag47
ag45
ag45
ag46
ag45
ag45
ag47
ag47
asg48
(lp136
I00
aI00
aI00
aI01
aI01
aI01
aI00
aI01
aI01
aI00
aI01
aI00
aI01
aI01
aI00
aI01
aI00
aI01
asg50
I18
sg51
g54
sg55
(lp137
(g57
I0
g24
tp138
ag138
ag138
ag138
ag60
ag62
ag63
ag63
ag65
ag67
ag67
ag68
ag68
ag69
ag71
ag71
ag72
ag72
asg73
(lp139
g75
ag75
ag75
ag75
ag76
ag75
ag51
ag51
ag75
ag51
ag51
ag75
ag75
ag76
ag75
ag75
ag75
ag51
asg78
(lp140
g77
ag76
ag76
ag75
ag76
ag75
ag75
ag51
ag75
ag75
ag51
ag77
ag75
ag76
ag76
ag75
ag75
ag51
asg80
(lp141
NaNaNag75
ag76
ag75
aNag51
ag75
aNag51
aNag75
ag76
aNag75
aNag51
asaa(lp142
I6
ag39
(g40
tp143
Rp144
g43
(lp145
g45
ag46
ag45
ag45
ag47
ag86
ag46
ag45
ag47
ag47
ag47
ag47
ag45
ag45
ag47
ag45
ag45
ag46
ag45
ag47
asg48
(lp146
I01
aI01
aI00
aI01
aI00
aI01
aI01
aI01
aI00
aI00
aI00
aI01
aI00
aI01
aI01
aI00
aI01
aI01
aI01
aI01
asg50
I20
sg51
g54
sg55
(lp147
(g57
I0
g24
tp148
ag60
ag62
ag62
ag63
ag127
ag115
ag62
ag63
ag63
ag63
ag63
ag65
ag65
ag67
ag68
ag68
ag69
ag71
ag72
asg73
(lp149
g75
ag76
ag75
ag75
ag76
ag77
ag76
ag75
ag76
ag51
ag76
ag51
ag75
ag75
ag51
ag75
ag75
ag76
ag75
ag51
asg78
(lp150
g75
ag76
ag77
ag75
ag76
ag77
ag76
ag75
ag75
ag75
ag75
ag51
ag76
ag75
ag51
ag77
ag75
ag76
ag75
ag51
asg80
(lp151
g75
ag76
aNag75
ag76
ag77
ag76
ag75
aNaNaNag51
aNag75
ag51
aNag75
ag76
ag75
ag51
asaa(lp152
I7
ag39
(g40
tp153
Rp154
g43
(lp155
g45
ag46
ag45
ag47
ag47
ag45
ag47
ag47
ag47
ag45
ag45
ag45
ag45
ag46
ag46
ag46
ag86
ag46
ag45
ag46
ag45
ag47
ag47
asg48
(lp156
I01
aI01
aI01
aI00
aI01
aI01
aI00
aI00
aI01
aI00
aI00
aI00
aI01
aI00
aI00
aI00
aI01
aI00
aI01
aI01
aI01
aI00
aI01
asg50
I23
sg51
g54
sg55
(lp157
(g57
I0
g24
tp158
ag60
ag62
ag63
ag63
ag65
ag67
a(g64
I0
g66
tp159
ag159
ag68
ag68
ag68
a(g64
F1.5707963267948966
g66
tp160
ag69
ag69
ag69
ag90
ag91
a(g64
F1.5707963267948966
g66
tp161
ag69
ag71
ag72
ag72
asg73
(lp162
g75
ag76
ag75
ag51
ag51
ag75
ag76
ag75
ag51
ag75
ag75
ag51
ag75
ag51
ag76
ag77
ag77
ag77
ag75
ag76
ag75
ag51
ag51
asg78
(lp163
g75
ag76
ag75
ag75
ag51
ag75
ag76
ag75
ag51
ag76
ag77
ag51
ag75
ag51
ag51
ag75
ag77
ag77
ag75
ag76
ag75
ag75
ag51
asg80
(lp164
g75
ag76
ag75
aNag51
ag75
ag76
aNag51
aNaNag51
ag75
aNaNag75
ag77
ag77
ag75
ag76
ag75
aNag51
asaa(lp165
I8
ag39
(g40
tp166
Rp167
g43
(lp168
g45
ag46
ag45
ag47
ag45
ag45
ag45
ag45
ag45
ag47
ag45
ag45
ag46
ag46
ag45
ag46
ag45
ag45
ag45
ag46
ag45
ag47
asg48
(lp169
I01
aI01
aI01
aI01
aI00
aI00
aI00
aI00
aI01
aI01
aI00
aI01
aI00
aI00
aI01
aI00
aI00
aI00
aI01
aI01
aI01
aI01
asg50
I22
sg51
g54
sg55
(lp170
(g57
I0
g24
tp171
ag60
ag62
ag63
ag65
ag65
a(g64
I0
g53
tp172
ag172
ag172
ag67
ag68
ag68
ag69
ag69
ag161
ag69
ag161
ag161
ag161
ag69
ag71
ag72
asg73
(lp173
g75
ag76
ag75
ag51
ag75
ag51
ag75
ag75
ag75
ag51
ag75
ag75
ag76
ag77
ag75
ag76
ag75
ag75
ag75
ag76
ag75
ag51
asg78
(lp174
g75
ag76
ag75
ag51
ag76
ag51
ag76
ag51
ag75
ag51
ag76
ag75
ag51
ag77
ag75
ag77
ag76
ag77
ag75
ag76
ag75
ag51
asg80
(lp175
g75
ag76
ag75
ag51
aNag51
aNag51
ag75
ag51
aNag75
aNag77
ag75
ag77
aNaNag75
ag76
ag75
ag51
asaa(lp176
I9
ag39
(g40
tp177
Rp178
g43
(lp179
g45
ag45
ag46
ag45
ag45
ag45
ag47
ag86
ag46
ag45
ag47
ag47
ag45
ag45
ag47
ag45
ag46
ag86
ag86
ag46
ag45
ag47
ag47
ag47
asg48
(lp180
I00
aI01
aI01
aI00
aI00
aI01
aI00
aI01
aI01
aI01
aI00
aI01
aI00
aI01
aI01
aI01
aI00
aI00
aI01
aI01
aI01
aI00
aI00
aI01
asg50
I24
sg51
g54
sg55
(lp181
(g57
I0
g24
tp182
ag182
ag60
ag62
ag103
ag103
ag63
ag127
ag115
ag62
ag63
ag63
ag65
ag65
ag67
ag68
ag69
ag90
ag90
ag91
ag71
ag72
ag72
ag72
asg73
(lp183
g75
ag75
ag76
ag75
ag75
ag75
ag76
ag77
ag76
ag75
ag75
ag51
ag75
ag75
ag51
ag75
ag76
ag76
ag77
ag76
ag75
ag51
ag51
ag51
asg78
(lp184
g77
ag75
ag76
ag51
ag77
ag75
ag76
ag77
ag76
ag75
ag75
ag51
ag77
ag75
ag51
ag75
ag75
ag51
ag77
ag76
ag75
ag75
ag75
ag51
asg80
(lp185
Nag75
ag76
ag51
aNag75
ag76
ag77
ag76
ag75
aNag51
aNag75
ag51
ag75
ag75
aNag77
ag76
ag75
aNaNag51
asaatp186
Rp187
aatp188
Rp189
.