ccollections
OrderedDict
p0
((lp1
(lp2
S'combination_dict'
p3
ag0
((lp4
(lp5
S'r_to_g_config'
p6
aS'bl'
p7
aa(lp8
S'num_turns'
p9
aI2
aa(lp10
S'start_direction'
p11
acutils_ms
StartDirection
p12
(I1
tp13
Rp14
aa(lp15
S'assistance_type'
p16
acutils_ms
AssistanceType
p17
(I0
tp18
Rp19
aa(lp20
S'start_mode'
p21
aS't'
p22
aa(lp23
S'ui_given_a_noise'
p24
aF0.7
aa(lp25
S'um_given_ui_noise'
p26
aF0.7
aa(lp27
S'entropy_threshold'
p28
aF0.5
aatp29
Rp30
aa(lp31
S'data'
p32
accollections
defaultdict
p33
(c__builtin__
list
p34
tp35
Rp36
S'a'
p37
(lp38
S'mode_l'
p39
aS'move_n'
p40
ag40
aS'mode_r'
p41
ag39
ag40
ag41
ag41
ag41
ag39
ag40
ag41
ag41
ag41
ag40
ag39
ag40
ag39
ag39
ag40
ag40
ag39
ag40
ag39
ag39
ag39
ag39
aS'move_p'
p42
ag42
ag39
ag40
ag39
ag39
ag39
ag39
ag39
ag40
ag39
ag39
ag40
ag41
ag39
ag39
ag39
ag39
ag39
ag39
ag39
ag40
ag41
ag39
ag40
ag39
ag40
ag39
ag39
ag39
ag40
ag41
ag41
ag41
ag40
ag39
ag40
ag41
ag39
ag40
ag41
ag39
ag40
ag41
ag41
ag39
ag39
ag40
ag39
ag39
ag39
ag40
ag41
ag39
ag39
ag39
ag40
ag39
ag39
ag39
ag40
ag41
ag40
ag39
ag40
ag41
ag41
ag41
ag39
ag40
asS'assistance_match_with_ground_truth'
p43
(lp44
I01
aI00
aI00
aI00
aI01
aI00
aI00
aI00
aI00
aI01
aI00
aI00
aI00
aI01
aI00
aI01
aI00
aI00
aI01
aI00
aI01
aI01
aI01
aI00
aI00
aI00
aI01
aI00
aI01
aI01
aI00
aI00
aI00
aI00
aI00
aI01
aI00
aI00
aI01
aI00
aI00
aI00
aI00
aI00
aI00
aI00
aI00
aI01
aI00
aI00
aI01
aI00
aI01
aI01
aI00
aI00
aI01
aI00
aI00
aI00
aI01
aI00
aI01
aI00
aI00
aI01
aI00
aI00
aI01
aI00
aI00
aI00
aI00
aI01
aI01
aI00
aI00
aI01
aI00
aI00
aI00
aI00
aI01
aI01
aI00
aI00
aI01
aI01
aI01
aI00
aI01
aI01
aI00
aI00
aI00
aI01
aI01
asS'total_steps'
p45
I97
sS'sp'
p46
(lp47
(S'p0'
p48
I0
S'y'
p49
tp50
a(g48
I0
g49
tp51
a(g48
I0
S'x'
p52
tp53
a(g48
I0
S't'
p54
tp55
ag50
ag53
a(g48
I0
g52
tp56
ag56
ag55
ag50
ag53
ag56
a(g48
I0
g52
tp57
a(g48
I0
g49
tp58
a(g48
I0
g54
tp59
ag50
ag59
a(g48
I0
g54
tp60
ag50
ag51
a(S'p1'
p61
I0
g49
tp62
a(g61
I0
g52
tp63
a(S'p2'
p64
I0
g52
tp65
a(g64
I0
g52
tp66
a(g64
I0
g52
tp67
ag67
a(g64
I0
g54
tp68
a(g64
I0
g54
tp69
a(g64
F1.5707963267948966
g54
tp70
a(g64
F1.5707963267948966
g49
tp71
a(g61
F1.5707963267948966
g49
tp72
a(g61
F1.5707963267948966
g49
tp73
a(g61
F1.5707963267948966
g49
tp74
ag73
ag73
a(g61
F1.5707963267948966
g52
tp75
a(g61
F1.5707963267948966
g49
tp76
ag74
ag75
a(g61
F1.5707963267948966
g54
tp77
a(g61
F1.5707963267948966
g49
tp78
ag73
ag73
ag74
ag73
ag74
ag73
ag75
a(g48
F1.5707963267948966
g52
tp79
a(g48
F1.5707963267948966
g54
tp80
a(g48
F1.5707963267948966
g49
tp81
a(g48
F1.5707963267948966
g54
tp82
ag81
a(g61
F1.5707963267948966
g49
tp83
ag73
ag73
ag75
ag77
a(g61
F1.5707963267948966
g54
tp84
ag84
a(g61
F1.5707963267948966
g52
tp85
ag76
ag75
ag77
ag78
ag75
ag77
ag78
ag75
ag79
a(g48
F1.5707963267948966
g52
tp86
ag80
a(g48
F1.5707963267948966
g54
tp87
ag81
ag83
ag74
ag74
ag75
ag79
ag80
ag87
ag87
ag81
ag83
ag73
ag73
ag75
a(g64
F1.5707963267948966
g52
tp88
a(g64
F1.5707963267948966
g49
tp89
ag72
ag75
ag88
a(g64
F1.5707963267948966
g52
tp90
a(g64
F1.5707963267948966
g52
tp91
a(g64
F1.5707963267948966
g54
tp92
ag71
a(S'p3'
p93
F1.5707963267948966
g49
tp94
asS's'
p95
(lp96
(g48
I0
g22
tp97
ag50
ag51
ag53
ag55
ag50
ag53
ag56
ag56
ag55
ag50
ag53
ag56
ag57
ag58
ag59
ag50
ag59
ag60
ag50
ag51
ag62
ag63
ag65
ag66
ag67
ag67
ag68
ag69
ag70
ag71
ag72
ag73
ag74
ag73
ag73
ag75
ag76
ag74
ag75
ag77
ag78
ag73
ag73
ag74
ag73
ag74
ag73
ag75
ag79
ag80
ag81
ag82
ag81
ag83
ag73
ag73
ag75
ag77
ag84
ag84
ag85
ag76
ag75
ag77
ag78
ag75
ag77
ag78
ag75
ag79
ag86
ag80
ag87
ag81
ag83
ag74
ag74
ag75
ag79
ag80
ag87
ag87
ag81
ag83
ag73
ag73
ag75
ag88
ag89
ag72
ag75
ag88
ag90
ag91
ag92
ag71
asS'ui'
p98
(lp99
S'hs'
p100
aS'hp'
p101
ag100
ag100
ag46
aS'ss'
p102
ag100
ag102
ag100
ag100
ag100
ag101
ag101
ag101
ag102
ag100
ag102
ag46
ag100
ag102
ag102
ag100
ag102
ag102
ag102
ag46
ag100
ag46
ag101
ag100
ag101
ag100
ag100
ag46
ag102
ag100
ag102
ag102
ag100
ag102
ag100
ag100
ag100
ag102
ag46
ag102
ag46
ag100
ag102
ag102
ag100
ag101
ag100
ag102
ag102
ag101
ag100
ag100
ag101
ag100
ag101
ag101
ag100
ag101
ag100
ag100
ag102
ag100
ag100
ag101
ag101
ag100
ag102
ag100
ag102
ag102
ag102
ag100
ag102
ag100
ag46
ag100
ag100
ag101
ag46
ag46
ag46
ag100
ag101
ag101
ag102
ag102
ag101
ag101
ag101
ag100
ag102
asS'um_before'
p103
(lp104
g100
ag46
ag100
ag100
ag100
ag100
ag102
ag102
ag100
ag100
ag100
ag102
ag46
ag101
ag101
ag100
ag101
ag46
ag100
ag46
ag102
ag100
ag102
ag102
ag46
ag46
ag100
ag102
ag46
ag100
ag46
ag46
ag102
ag46
ag46
ag100
ag101
ag102
ag100
ag100
ag100
ag46
ag46
ag102
ag46
ag102
ag46
ag100
ag46
ag100
ag100
ag101
ag100
ag102
ag46
ag46
ag100
ag100
ag46
ag46
ag101
ag101
ag100
ag100
ag100
ag100
ag100
ag100
ag100
ag46
ag102
ag100
ag46
ag100
ag102
ag102
ag102
ag100
ag46
ag100
ag46
ag46
ag100
ag102
ag46
ag46
ag100
ag102
ag101
ag46
ag100
ag102
ag46
ag102
ag100
ag100
ag102
asS'um_after'
p105
(lp106
g100
ag46
ag100
ag100
ag100
ag100
ag102
ag102
ag100
ag100
ag100
ag102
ag46
ag101
ag101
ag100
ag101
ag46
ag100
ag46
ag102
ag100
ag102
ag102
ag46
ag46
ag100
ag102
ag46
ag100
ag46
ag46
ag102
ag46
ag46
ag100
ag101
ag102
ag100
ag100
ag100
ag46
ag46
ag102
ag46
ag102
ag46
ag100
ag46
ag100
ag100
ag101
ag100
ag102
ag46
ag46
ag100
ag100
ag46
ag46
ag101
ag101
ag100
ag100
ag100
ag100
ag100
ag100
ag100
ag46
ag102
ag100
ag46
ag100
ag102
ag102
ag102
ag100
ag46
ag100
ag46
ag46
ag100
ag102
ag46
ag46
ag100
ag102
ag101
ag46
ag100
ag102
ag46
ag102
ag100
ag100
ag102
asaa(lp107
S'index'
p108
aI73556
aatp109
Rp110
.