ccollections
OrderedDict
p0
((lp1
(lp2
S'combination_dict'
p3
ag0
((lp4
(lp5
S'r_to_g_config'
p6
aS'bl'
p7
aa(lp8
S'num_turns'
p9
aI3
aa(lp10
S'start_direction'
p11
acutils_ms
StartDirection
p12
(I1
tp13
Rp14
aa(lp15
S'assistance_type'
p16
acutils_ms
AssistanceType
p17
(I2
tp18
Rp19
aa(lp20
S'start_mode'
p21
aS'x'
p22
aa(lp23
S'ui_given_a_noise'
p24
aF0.1
aa(lp25
S'um_given_ui_noise'
p26
aF0.7
aa(lp27
S'entropy_threshold'
p28
aF0.9
aatp29
Rp30
aa(lp31
S'data'
p32
accollections
defaultdict
p33
(c__builtin__
list
p34
tp35
Rp36
S'a'
p37
(lp38
S'mode_r'
p39
ag39
aS'move_n'
p40
ag39
aS'move_p'
p41
ag41
ag39
ag40
ag39
ag40
aS'mode_l'
p42
ag40
ag39
ag40
ag42
ag40
ag39
ag40
ag39
ag40
ag42
ag40
ag39
ag42
ag40
ag42
ag40
ag39
ag40
ag42
ag42
ag42
ag40
ag39
ag40
ag39
ag40
ag42
ag42
ag42
ag42
ag42
ag42
ag42
ag42
ag40
ag42
ag42
ag40
ag39
ag40
ag42
ag42
ag39
ag40
ag39
ag39
ag39
ag39
ag39
ag39
ag40
ag39
ag42
ag42
ag40
ag42
ag40
asS'assistance_match_with_ground_truth'
p43
(lp44
I00
aI01
aI01
aI01
aI00
aI01
aI01
aI01
aI01
aI00
aI01
aI01
aI01
aI00
aI01
aI01
aI01
aI00
aI01
aI00
aI01
aI01
aI00
aI01
aI01
aI01
aI00
aI01
aI00
aI00
aI00
aI01
aI00
aI01
aI01
aI01
aI00
aI00
aI00
aI00
aI00
aI00
aI00
aI00
aI01
aI00
aI00
aI01
aI00
aI01
aI01
aI00
aI00
aI01
aI01
aI00
aI00
aI00
aI00
aI00
aI01
aI00
aI00
aI00
aI01
aI01
aI01
aI01
asS'total_steps'
p45
I68
sS'sp'
p46
(lp47
(S'p0'
p48
I0
S'x'
p49
tp50
a(g48
I0
S'y'
p51
tp52
a(S'p1'
p53
I0
g51
tp54
a(g53
I0
S't'
p55
tp56
a(g53
I0
g55
tp57
a(g53
F1.5707963267948966
g55
tp58
a(g53
F1.5707963267948966
g49
tp59
a(S'p2'
p60
F1.5707963267948966
g49
tp61
a(g60
F1.5707963267948966
g51
tp62
a(g53
F1.5707963267948966
g51
tp63
a(g53
F1.5707963267948966
g49
tp64
ag61
ag62
ag63
ag64
ag61
ag62
a(g60
F1.5707963267948966
g49
tp65
ag62
ag63
ag64
ag61
a(g60
F1.5707963267948966
g55
tp66
a(g60
F1.5707963267948966
g51
tp67
a(S'p3'
p68
F1.5707963267948966
g51
tp69
a(g68
F1.5707963267948966
g49
tp70
a(g60
F1.5707963267948966
g49
tp71
ag62
ag63
a(g53
F1.5707963267948966
g51
tp72
ag72
ag64
a(g53
F1.5707963267948966
g55
tp73
ag59
ag61
ag62
ag63
a(g53
F1.5707963267948966
g51
tp74
ag72
ag74
ag74
ag74
ag74
ag72
ag64
a(g53
F1.5707963267948966
g51
tp75
ag72
ag64
a(g48
F1.5707963267948966
g49
tp76
a(g48
F1.5707963267948966
g51
tp77
a(g53
F1.5707963267948966
g51
tp78
ag72
a(g53
F1.5707963267948966
g55
tp79
ag59
ag61
a(g60
F1.5707963267948966
g49
tp80
a(g60
F1.5707963267948966
g49
tp81
ag80
ag80
ag81
ag62
ag65
ag66
a(g60
F1.5707963267948966
g55
tp82
ag67
ag69
ag70
a(S'p4'
p83
F1.5707963267948966
g49
tp84
asS's'
p85
(lp86
(g48
I0
g22
tp87
ag50
ag52
ag54
ag56
ag57
ag58
ag59
ag61
ag62
ag63
ag64
ag61
ag62
ag63
ag64
ag61
ag62
ag65
ag62
ag63
ag64
ag61
ag66
ag67
ag69
ag70
ag71
ag62
ag63
ag72
ag72
ag64
ag73
ag59
ag61
ag62
ag63
ag74
ag72
ag74
ag74
ag74
ag74
ag72
ag64
ag75
ag72
ag64
ag76
ag77
ag78
ag72
ag79
ag59
ag61
ag80
ag81
ag80
ag80
ag81
ag62
ag65
ag66
ag82
ag67
ag69
ag70
asS'ui'
p88
(lp89
S'hp'
p90
ag90
aS'ss'
p91
ag90
ag46
ag46
ag90
ag91
ag90
ag91
aS'hs'
p92
ag91
ag90
ag91
ag92
ag91
ag90
ag91
ag90
ag46
ag92
ag91
ag46
ag92
ag91
ag92
ag91
ag90
ag91
ag92
ag92
ag92
ag91
ag90
ag90
ag90
ag91
ag92
ag92
ag92
ag92
ag92
ag92
ag92
ag92
ag91
ag92
ag92
ag91
ag90
ag46
ag92
ag92
ag90
ag91
ag90
ag90
ag90
ag90
ag90
ag90
ag91
ag90
ag92
ag91
ag91
ag92
ag91
asS'um_before'
p93
(lp94
g91
ag90
ag91
ag90
ag91
ag46
ag90
ag91
ag90
ag46
ag92
ag91
ag90
ag46
ag92
ag91
ag90
ag92
ag90
ag46
ag92
ag91
ag92
ag92
ag91
ag92
ag46
ag90
ag46
ag91
ag91
ag92
ag92
ag90
ag91
ag90
ag46
ag46
ag91
ag46
ag46
ag46
ag46
ag91
ag92
ag90
ag91
ag92
ag46
ag90
ag91
ag91
ag90
ag90
ag91
ag91
ag46
ag91
ag91
ag46
ag90
ag92
ag92
ag46
ag92
ag91
ag92
ag91
asS'um_after'
p95
(lp96
g91
ag90
ag91
ag90
ag91
ag46
ag90
ag91
ag90
ag46
ag92
ag91
ag90
ag46
ag92
ag91
ag90
ag92
ag90
ag46
ag92
ag91
ag92
ag92
ag91
ag92
ag46
ag90
ag46
ag91
ag91
ag92
ag92
ag90
ag91
ag90
ag46
ag46
ag91
ag46
ag46
ag46
ag46
ag91
ag92
ag90
ag91
ag92
ag46
ag90
ag91
ag91
ag90
ag90
ag91
ag91
ag46
ag91
ag91
ag46
ag90
ag92
ag92
ag46
ag92
ag91
ag92
ag91
asaa(lp97
S'index'
p98
aI84998
aatp99
Rp100
.