ccollections
OrderedDict
p0
((lp1
(lp2
S'combination_dict'
p3
ag0
((lp4
(lp5
S'r_to_g_config'
p6
aS'tl'
p7
aa(lp8
S'num_turns'
p9
aI3
aa(lp10
S'start_direction'
p11
acutils_ms
StartDirection
p12
(I1
tp13
Rp14
aa(lp15
S'assistance_type'
p16
acutils_ms
AssistanceType
p17
(I1
tp18
Rp19
aa(lp20
S'start_mode'
p21
aS'x'
p22
aa(lp23
S'ui_given_a_noise'
p24
aF0.7
aa(lp25
S'um_given_ui_noise'
p26
aF0.1
aa(lp27
S'entropy_threshold'
p28
aF0.9
aatp29
Rp30
aa(lp31
S'data'
p32
accollections
defaultdict
p33
(c__builtin__
list
p34
tp35
Rp36
S'a'
p37
(lp38
S'mode_r'
p39
ag39
aS'move_p'
p40
ag39
ag40
ag40
ag39
aS'mode_l'
p41
ag40
ag39
aS'move_n'
p42
ag39
ag42
ag39
ag42
ag39
ag41
ag40
ag41
ag42
ag39
ag39
ag39
ag40
ag41
ag42
ag39
ag40
ag41
ag42
ag39
ag41
ag40
ag41
ag42
ag39
ag41
ag39
ag40
ag41
ag42
ag41
ag42
ag39
ag40
ag39
ag40
ag39
ag40
ag41
ag42
ag39
ag39
ag40
ag41
ag40
ag41
ag42
ag39
ag39
ag42
ag41
ag42
asS'assistance_match_with_ground_truth'
p43
(lp44
I00
aI01
aI01
aI01
aI00
aI00
aI00
aI01
aI01
aI01
aI00
aI01
aI00
aI01
aI01
aI00
aI01
aI00
aI01
aI01
aI00
aI00
aI01
aI00
aI01
aI01
aI01
aI00
aI01
aI01
aI00
aI01
aI00
aI01
aI01
aI00
aI00
aI01
aI00
aI01
aI00
aI01
aI00
aI01
aI00
aI01
aI00
aI01
aI01
aI01
aI01
aI00
aI01
aI00
aI01
aI01
aI01
aI00
aI00
aI01
aI00
aI01
aI01
asS'total_steps'
p45
I63
sS'sp'
p46
(lp47
(S'p0'
p48
I0
S'x'
p49
tp50
a(g48
I0
S'y'
p51
tp52
a(S'p1'
p53
I0
g51
tp54
a(g53
I0
S't'
p55
tp56
a(g53
I0
g55
tp57
a(g53
I0
g51
tp58
a(g53
I0
g49
tp59
a(g53
I0
g55
tp60
a(g53
F1.5707963267948966
g55
tp61
a(g53
F1.5707963267948966
g49
tp62
a(g53
F1.5707963267948966
g55
tp63
ag62
ag63
ag62
a(S'p2'
p64
F1.5707963267948966
g49
tp65
a(g64
F1.5707963267948966
g55
tp66
a(g64
F1.5707963267948966
g51
tp67
a(g53
F1.5707963267948966
g51
tp68
a(g53
F1.5707963267948966
g49
tp69
ag65
a(g64
F1.5707963267948966
g49
tp70
ag70
a(g64
F1.5707963267948966
g51
tp71
ag68
ag69
ag65
ag71
ag68
ag69
ag65
ag66
ag67
ag68
ag69
ag65
ag66
a(g64
F1.5707963267948966
g49
tp72
ag71
ag68
ag69
a(g53
F1.5707963267948966
g51
tp73
ag69
a(g48
F1.5707963267948966
g49
tp74
a(g48
F1.5707963267948966
g51
tp75
a(g48
F1.5707963267948966
g49
tp76
ag75
ag76
ag75
a(g53
F1.5707963267948966
g51
tp77
ag69
ag65
ag70
ag71
a(g64
F1.5707963267948966
g55
tp78
ag67
a(S'p3'
p79
F1.5707963267948966
g51
tp80
a(g79
F1.5707963267948966
g49
tp81
a(g79
F1.5707963267948966
g55
tp82
a(g79
F1.5707963267948966
g55
tp83
a(g79
F1.5707963267948966
g49
tp84
a(g79
F1.5707963267948966
g51
tp85
ag81
a(S'p4'
p86
F1.5707963267948966
g49
tp87
asS's'
p88
(lp89
(g48
I0
g22
tp90
ag50
ag52
ag54
ag56
ag57
ag58
ag59
ag60
ag61
ag62
ag63
ag62
ag63
ag62
ag65
ag66
ag67
ag68
ag69
ag65
ag70
ag70
ag71
ag68
ag69
ag65
ag71
ag68
ag69
ag65
ag66
ag67
ag68
ag69
ag65
ag66
ag72
ag71
ag68
ag69
ag73
ag69
ag74
ag75
ag76
ag75
ag76
ag75
ag77
ag69
ag65
ag70
ag71
ag78
ag67
ag80
ag81
ag82
ag83
ag84
ag85
ag81
asS'ui'
p91
(lp92
S'hs'
p93
aS'hp'
p94
ag46
ag94
aS'ss'
p95
ag93
ag93
ag93
ag46
ag94
ag93
ag94
ag93
ag94
ag95
ag93
ag93
ag95
ag93
ag95
ag95
ag95
ag94
ag95
ag93
ag95
ag94
ag95
ag93
ag95
ag93
ag93
ag95
ag93
ag95
ag93
ag93
ag94
ag95
ag93
ag46
ag93
ag46
ag94
ag93
ag94
ag46
ag94
ag46
ag93
ag95
ag95
ag94
ag94
ag93
ag46
ag93
ag93
ag95
ag94
ag95
ag93
ag95
asS'um_before'
p96
(lp97
g95
ag94
ag46
ag94
ag95
ag93
ag93
ag93
ag46
ag94
ag93
ag94
ag93
ag94
ag95
ag93
ag46
ag95
ag46
ag95
ag95
ag95
ag94
ag95
ag93
ag95
ag94
ag95
ag93
ag95
ag93
ag93
ag95
ag93
ag95
ag93
ag94
ag94
ag95
ag93
ag94
ag93
ag46
ag94
ag93
ag94
ag93
ag94
ag46
ag93
ag95
ag95
ag94
ag94
ag93
ag46
ag93
ag93
ag95
ag94
ag94
ag93
ag95
asS'um_after'
p98
(lp99
g95
ag94
ag46
ag94
ag95
ag93
ag93
ag93
ag46
ag94
ag93
ag94
ag93
ag94
ag95
ag93
ag93
ag95
ag93
ag95
ag95
ag95
ag94
ag95
ag93
ag95
ag94
ag95
ag93
ag95
ag93
ag93
ag95
ag93
ag95
ag93
ag94
ag94
ag95
ag93
ag94
ag93
ag46
ag94
ag93
ag94
ag93
ag94
ag46
ag93
ag95
ag95
ag94
ag94
ag93
ag46
ag93
ag93
ag95
ag94
ag94
ag93
ag95
asaa(lp100
S'index'
p101
aI55040
aatp102
Rp103
.