ccollections
OrderedDict
p0
((lp1
(lp2
S'combination_dict'
p3
ag0
((lp4
(lp5
S'r_to_g_config'
p6
aS'tl'
p7
aa(lp8
S'num_turns'
p9
aI3
aa(lp10
S'start_direction'
p11
acutils_ms
StartDirection
p12
(I0
tp13
Rp14
aa(lp15
S'assistance_type'
p16
acutils_ms
AssistanceType
p17
(I0
tp18
Rp19
aa(lp20
S'start_mode'
p21
aS't'
p22
aa(lp23
S'ui_given_a_noise'
p24
aF0.5
aa(lp25
S'um_given_ui_noise'
p26
aF0.7
aa(lp27
S'entropy_threshold'
p28
aF0.7
aatp29
Rp30
aa(lp31
S'data'
p32
accollections
defaultdict
p33
(c__builtin__
list
p34
tp35
Rp36
S'a'
p37
(lp38
S'mode_r'
p39
ag39
ag39
ag39
ag39
ag39
ag39
ag39
ag39
aS'move_n'
p40
ag39
ag39
ag40
ag40
ag40
ag39
ag39
ag39
ag39
ag40
ag40
aS'mode_l'
p41
ag39
ag39
ag39
ag40
ag41
aS'move_p'
p42
ag39
ag42
ag41
ag42
ag41
ag42
ag41
ag41
ag41
ag39
ag40
ag39
ag40
ag39
ag42
ag42
ag42
ag39
ag39
ag39
ag39
ag39
ag39
ag42
ag39
ag39
ag39
ag39
ag42
ag42
ag41
ag39
ag39
ag39
ag39
ag39
ag39
ag39
ag39
ag40
ag39
ag39
ag39
ag39
ag40
ag41
ag41
ag41
ag40
ag41
ag39
ag39
ag40
ag39
ag40
ag39
ag39
ag39
ag42
ag41
ag41
ag41
ag41
ag41
ag40
ag39
ag42
asS'assistance_match_with_ground_truth'
p43
(lp44
I00
aI00
aI00
aI00
aI00
aI00
aI00
aI00
aI01
aI00
aI00
aI01
aI00
aI00
aI00
aI00
aI00
aI00
aI01
aI00
aI00
aI00
aI00
aI00
aI01
aI01
aI01
aI00
aI01
aI01
aI00
aI01
aI01
aI01
aI00
aI00
aI00
aI01
aI00
aI01
aI00
aI01
aI00
aI00
aI00
aI00
aI00
aI00
aI00
aI00
aI01
aI00
aI00
aI00
aI00
aI01
aI00
aI00
aI00
aI00
aI00
aI00
aI00
aI00
aI00
aI00
aI01
aI00
aI00
aI00
aI00
aI01
aI00
aI00
aI00
aI01
aI00
aI00
aI00
aI01
aI00
aI01
aI01
aI00
aI00
aI01
aI01
aI00
aI00
aI00
aI00
aI01
aI01
aI01
aI01
asS'total_steps'
p45
I95
sS'sp'
p46
(lp47
(S'p0'
p48
I0
g22
tp49
ag49
ag49
ag49
a(g48
I0
S't'
p50
tp51
ag51
ag51
ag51
a(g48
I0
S'x'
p52
tp53
a(g48
I0
g50
tp54
ag51
ag53
a(g48
I0
g52
tp55
ag55
ag54
a(g48
I0
g50
tp56
ag56
ag56
ag53
ag55
a(g48
I0
S'y'
p57
tp58
a(g48
I0
g50
tp59
ag51
ag51
ag53
a(S'p1'
p60
I0
g52
tp61
a(g60
I0
g50
tp62
a(g60
I0
g57
tp63
a(g60
I0
g50
tp64
a(g60
F1.5707963267948966
g50
tp65
a(g60
I0
g50
tp66
ag65
a(g60
F1.5707963267948966
g57
tp67
a(S'p2'
p68
F1.5707963267948966
g57
tp69
ag69
ag69
a(g68
F1.5707963267948966
g50
tp70
a(g68
F1.5707963267948966
g52
tp71
a(g68
F1.5707963267948966
g50
tp72
ag71
a(g60
F1.5707963267948966
g52
tp73
a(g60
F1.5707963267948966
g57
tp74
ag74
ag74
a(g60
F1.5707963267948966
g52
tp75
ag75
a(g60
F1.5707963267948966
g52
tp76
ag76
ag76
ag76
ag74
ag75
ag75
ag75
ag75
ag74
ag74
a(g48
F1.5707963267948966
g57
tp77
a(g48
F1.5707963267948966
g50
tp78
a(g48
F1.5707963267948966
g50
tp79
a(g48
F1.5707963267948966
g50
tp80
ag80
ag80
ag80
ag80
ag79
a(g48
F1.5707963267948966
g52
tp81
a(g48
F1.5707963267948966
g50
tp82
ag79
ag79
ag79
ag81
a(g48
F1.5707963267948966
g57
tp83
ag83
ag83
a(g48
F1.5707963267948966
g52
tp84
ag83
ag78
ag78
ag81
ag82
ag81
a(g60
F1.5707963267948966
g52
tp85
ag85
ag85
ag74
ag69
ag69
a(g68
F1.5707963267948966
g57
tp86
ag86
ag86
a(g68
F1.5707963267948966
g52
tp87
a(S'p3'
p88
F1.5707963267948966
g52
tp89
a(g88
F1.5707963267948966
g57
tp90
a(S'p4'
p91
F1.5707963267948966
g57
tp92
asS's'
p93
(lp94
g49
ag49
ag49
ag49
ag49
ag51
ag51
ag51
ag51
ag53
ag54
ag51
ag53
ag55
ag55
ag54
ag56
ag56
ag56
ag53
ag55
ag58
ag59
ag51
ag51
ag53
ag61
ag62
ag63
ag64
ag65
ag66
ag65
ag67
ag69
ag69
ag69
ag70
ag71
ag72
ag71
ag73
ag74
ag74
ag74
ag75
ag75
ag76
ag76
ag76
ag76
ag74
ag75
ag75
ag75
ag75
ag74
ag74
ag77
ag78
ag79
ag80
ag80
ag80
ag80
ag80
ag79
ag81
ag82
ag79
ag79
ag79
ag81
ag83
ag83
ag83
ag84
ag83
ag78
ag78
ag81
ag82
ag81
ag85
ag85
ag85
ag74
ag69
ag69
ag86
ag86
ag86
ag87
ag89
ag90
asS'ui'
p95
(lp96
S'hp'
p97
ag97
aS'hs'
p98
ag97
ag98
ag97
ag98
ag97
ag97
ag97
ag98
ag97
ag98
ag46
ag98
ag98
ag98
ag97
ag97
aS'ss'
p99
ag99
ag97
ag98
ag98
ag97
ag97
ag98
ag98
ag97
ag98
ag46
ag46
ag98
ag98
ag99
ag97
ag97
ag97
ag97
ag97
ag99
ag97
ag46
ag99
ag46
ag98
ag98
ag46
ag98
ag98
ag97
ag46
ag98
ag97
ag97
ag97
ag46
ag46
ag97
ag98
ag46
ag98
ag97
ag98
ag97
ag98
ag97
ag99
ag98
ag97
ag98
ag97
ag97
ag98
ag98
ag98
ag99
ag97
ag98
ag97
ag97
ag97
ag99
ag97
ag97
ag97
ag46
ag98
ag46
ag98
ag46
ag99
ag99
ag97
ag98
asS'um_before'
p100
(lp101
g98
ag98
ag98
ag98
ag46
ag46
ag46
ag98
ag97
ag98
ag46
ag97
ag46
ag46
ag98
ag99
ag98
ag98
ag97
ag46
ag97
ag97
ag46
ag98
ag97
ag99
ag98
ag98
ag97
ag46
ag99
ag46
ag98
ag46
ag46
ag46
ag97
ag97
ag98
ag97
ag46
ag97
ag97
ag97
ag98
ag98
ag46
ag46
ag98
ag46
ag97
ag98
ag98
ag98
ag98
ag97
ag97
ag99
ag97
ag46
ag99
ag98
ag98
ag98
ag98
ag46
ag97
ag98
ag46
ag98
ag46
ag97
ag97
ag46
ag46
ag98
ag97
ag97
ag98
ag97
ag98
ag97
ag99
ag98
ag98
ag97
ag46
ag46
ag99
ag46
ag46
ag98
ag99
ag97
ag46
asS'um_after'
p102
(lp103
NaNaNaNag46
ag46
ag46
aNag97
ag98
ag46
ag97
ag46
ag46
ag98
ag99
aNaNag97
ag46
ag97
ag97
ag46
aNag97
ag99
ag98
ag98
ag97
ag46
ag99
ag46
ag98
ag46
aNaNag97
ag97
ag98
ag97
ag46
ag97
aNaNag98
aNag46
ag46
aNag46
ag97
ag98
aNaNaNag97
aNag99
ag97
ag46
ag99
aNaNaNaNag46
ag97
ag98
ag46
aNag46
ag97
ag97
aNaNag98
ag97
ag97
aNag97
ag98
ag97
ag99
aNaNag97
ag46
aNag99
aNaNag98
ag99
ag97
ag46
asaa(lp104
S'index'
p105
aI48570
aatp106
Rp107
.