ccollections
OrderedDict
p0
((lp1
(lp2
S'index'
p3
aI4345
aa(lp4
S'combination_dict'
p5
ag0
((lp6
(lp7
S'r_to_g_config'
p8
aS'tl'
p9
aa(lp10
S'num_turns'
p11
aI1
aa(lp12
S'start_direction'
p13
acutils_ms
StartDirection
p14
(I3
tp15
Rp16
aa(lp17
S'assistance_type'
p18
acutils_ms
AssistanceType
p19
(I1
tp20
Rp21
aa(lp22
S'start_mode'
p23
aS'y'
p24
aa(lp25
S'ui_given_a_noise'
p26
aF0.1
aa(lp27
S'um_given_ui_noise'
p28
aF0.5
aa(lp29
S'entropy_threshold'
p30
aF0.7
aa(lp31
S'is_assistance'
p32
aI00
aatp33
Rp34
aa(lp35
S'trials'
p36
ag0
((lp37
(lp38
I0
accollections
defaultdict
p39
(c__builtin__
list
p40
tp41
Rp42
S'a'
p43
(lp44
S'mode_l'
p45
aS'mode_r'
p46
ag46
aS'move_n'
p47
ag47
ag45
ag47
ag45
aS'move_p'
p48
ag45
ag45
ag48
asS'assistance_match_with_ground_truth'
p49
(lp50
I00
aI00
aI01
aI00
aI00
aI01
aI01
aI01
aI01
aI00
aI01
aI01
asS'total_steps'
p51
I12
sS'sp'
p52
(S'p2'
p53
F1.5707963267948966
S'y'
p54
tp55
sS's'
p56
(lp57
(S'p0'
p58
I0
g24
tp59
a(g58
I0
S't'
p60
tp61
a(g58
I0
g60
tp62
a(g58
I0
S'x'
p63
tp64
a(g58
I0
g63
tp65
a(g58
I0
g54
tp66
a(g58
I0
g63
tp67
a(S'p1'
p68
I0
g63
tp69
a(g68
I0
g60
tp70
a(g68
F1.5707963267948966
g60
tp71
a(g68
F1.5707963267948966
g60
tp72
a(g68
F1.5707963267948966
g54
tp73
asS'ui'
p74
(lp75
S'hs'
p76
aS'hp'
p77
ag77
ag77
ag77
ag76
aS'ss'
p78
ag76
ag76
ag76
ag76
ag52
asS'um_before'
p79
(lp80
g77
ag78
ag77
ag52
ag77
ag76
ag78
ag76
ag52
ag52
ag76
ag52
asS'um_after'
p81
(lp82
g77
ag78
ag77
ag52
ag77
ag76
ag78
ag76
ag52
ag52
ag76
ag52
asaa(lp83
I1
ag39
(g40
tp84
Rp85
g43
(lp86
g45
ag47
ag45
ag45
ag48
ag45
ag48
ag45
ag45
ag47
ag46
ag48
ag45
ag48
asg49
(lp87
I01
aI01
aI00
aI01
aI01
aI01
aI00
aI00
aI01
aI01
aI01
aI00
aI01
aI01
asg51
I14
sg52
g55
sg56
(lp88
(g58
I0
g24
tp89
ag67
ag69
a(g68
I0
g63
tp90
ag70
ag71
ag73
a(g58
F1.5707963267948966
g54
tp91
a(g58
F1.5707963267948966
g54
tp92
a(g58
F1.5707963267948966
g63
tp93
a(g68
F1.5707963267948966
g63
tp94
a(g68
F1.5707963267948966
g54
tp95
a(g68
F1.5707963267948966
g60
tp96
ag73
asg74
(lp97
g78
ag78
ag76
ag76
ag52
ag52
ag76
ag76
ag76
ag78
ag77
ag52
ag76
ag52
asg79
(lp98
g76
ag78
ag78
ag76
ag52
ag76
ag78
ag52
ag76
ag78
ag77
ag77
ag76
ag52
asg81
(lp99
g76
ag78
ag78
ag76
ag52
ag76
ag78
ag52
ag76
ag78
ag77
ag77
ag76
ag52
asaa(lp100
I2
ag39
(g40
tp101
Rp102
g43
(lp103
g45
ag45
ag47
ag45
ag48
ag45
ag48
ag46
ag45
ag47
ag47
ag47
ag45
ag45
ag48
ag48
ag45
ag46
ag45
ag48
asg49
(lp104
I00
aI01
aI01
aI01
aI01
aI00
aI00
aI00
aI01
aI00
aI00
aI01
aI00
aI01
aI00
aI01
aI00
aI00
aI01
aI01
asg51
I20
sg52
g55
sg56
(lp105
(g58
I0
g24
tp106
a(g58
I0
g54
tp107
ag67
ag69
ag70
ag71
a(g68
I0
g60
tp108
a(g68
I0
g54
tp109
a(g58
I0
g54
tp110
ag67
ag65
ag65
ag69
ag90
ag70
a(g68
I0
g60
tp111
ag71
a(g68
F1.5707963267948966
g63
tp112
a(g68
F1.5707963267948966
g60
tp113
ag73
asg74
(lp114
g76
ag76
ag78
ag76
ag52
ag76
ag52
ag77
ag76
ag78
ag78
ag78
ag76
ag76
ag78
ag52
ag78
ag77
ag77
ag52
asg79
(lp115
g52
ag76
ag78
ag76
ag52
ag78
ag76
ag78
ag76
ag52
ag52
ag78
ag78
ag76
ag78
ag52
ag77
ag76
ag76
ag52
asg81
(lp116
g52
ag76
ag78
ag76
ag52
ag78
ag76
ag78
ag76
ag52
ag52
ag78
ag78
ag76
ag78
ag52
ag77
ag76
ag76
ag52
asaa(lp117
I3
ag39
(g40
tp118
Rp119
g43
(lp120
g45
ag47
ag46
ag46
ag47
ag45
ag45
ag47
ag45
ag46
ag48
ag46
ag45
ag48
ag45
ag46
ag48
asg49
(lp121
I01
aI00
aI00
aI01
aI00
aI00
aI01
aI01
aI00
aI01
aI00
aI00
aI01
aI01
aI00
aI01
aI01
asg51
I17
sg52
g55
sg56
(lp122
(g58
I0
g24
tp123
ag67
a(g58
I0
g60
tp124
ag62
ag64
ag66
a(g58
I0
g54
tp125
ag67
ag69
a(g68
I0
g54
tp126
a(g68
I0
g60
tp127
ag109
a(g68
I0
g63
tp128
ag70
ag71
ag112
ag95
asg74
(lp129
g76
ag78
ag77
ag77
ag77
ag76
ag76
ag78
ag76
ag77
ag52
ag77
ag76
ag52
ag52
ag77
ag52
asg79
(lp130
g76
ag76
ag78
ag77
ag77
ag78
ag76
ag78
ag77
ag77
ag76
ag76
ag76
ag52
ag77
ag77
ag52
asg81
(lp131
g76
ag76
ag78
ag77
ag77
ag78
ag76
ag78
ag77
ag77
ag76
ag76
ag76
ag52
ag77
ag77
ag52
asaa(lp132
I4
ag39
(g40
tp133
Rp134
g43
(lp135
g45
ag47
ag45
ag46
ag48
ag45
ag46
ag48
asg49
(lp136
I01
aI01
aI00
aI01
aI01
aI00
aI01
aI01
asg51
I8
sg52
g55
sg56
(lp137
(g58
I0
g24
tp138
ag67
ag69
ag126
ag127
ag71
ag112
ag95
asg74
(lp139
g76
ag78
ag76
ag77
ag52
ag76
ag77
ag52
asg79
(lp140
g76
ag78
ag77
ag77
ag52
ag77
ag77
ag52
asg81
(lp141
g76
ag78
ag77
ag77
ag52
ag77
ag77
ag52
asaa(lp142
I5
ag39
(g40
tp143
Rp144
g43
(lp145
g45
ag47
ag47
ag45
ag47
ag45
ag48
ag45
ag48
asg49
(lp146
I01
aI00
aI00
aI01
aI01
aI01
aI01
aI01
aI01
asg51
I9
sg52
g55
sg56
(lp147
(g58
I0
g24
tp148
ag67
ag65
ag66
ag67
ag69
ag70
ag71
ag73
asg74
(lp149
g76
ag78
ag77
ag76
ag78
ag76
ag52
ag76
ag52
asg79
(lp150
g76
ag52
ag77
ag76
ag78
ag76
ag52
ag76
ag52
asg81
(lp151
g76
ag52
ag77
ag76
ag78
ag76
ag52
ag76
ag52
asaa(lp152
I6
ag39
(g40
tp153
Rp154
g43
(lp155
g45
ag47
ag45
ag45
ag48
ag46
asg49
(lp156
I01
aI01
aI00
aI01
aI00
aI00
asg51
I6
sg52
(g53
I0
g54
tp157
sg56
(lp158
(g58
I0
g24
tp159
ag67
ag69
a(g68
I0
g63
tp160
ag70
ag109
asg74
(lp161
g76
ag78
ag76
ag76
ag76
ag77
asg79
(lp162
g76
ag78
ag52
ag76
ag76
ag52
asg81
(lp163
g76
ag78
ag52
ag76
ag76
ag52
asaa(lp164
I7
ag39
(g40
tp165
Rp166
g43
(lp167
g45
ag47
ag46
ag46
ag47
ag46
ag45
ag47
ag45
ag45
ag48
ag45
ag48
ag46
ag45
ag48
ag45
ag45
ag48
asg49
(lp168
I01
aI00
aI00
aI01
aI00
aI00
aI01
aI01
aI00
aI01
aI01
aI00
aI00
aI00
aI01
aI01
aI00
aI01
aI01
asg51
I19
sg52
g55
sg56
(lp169
(g58
I0
g24
tp170
ag67
ag124
ag62
ag64
ag124
a(g58
I0
g54
tp171
ag67
ag69
ag160
ag70
ag71
ag108
ag109
ag128
ag70
ag71
ag72
ag73
asg74
(lp172
g76
ag76
ag77
ag77
ag78
ag78
ag76
ag78
ag76
ag76
ag76
ag52
ag52
ag77
ag76
ag76
ag76
ag76
ag52
asg79
(lp173
g76
ag76
ag78
ag77
ag76
ag76
ag76
ag78
ag52
ag76
ag52
ag78
ag76
ag76
ag76
ag52
ag52
ag76
ag52
asg81
(lp174
g76
ag76
ag78
ag77
ag76
ag76
ag76
ag78
ag52
ag76
ag52
ag78
ag76
ag76
ag76
ag52
ag52
ag76
ag52
asaa(lp175
I8
ag39
(g40
tp176
Rp177
g43
(lp178
g45
ag47
ag45
ag48
ag45
ag48
ag45
ag48
ag45
ag48
ag45
ag48
ag45
ag46
ag46
ag46
ag48
ag46
ag45
ag45
ag46
ag46
ag48
ag45
ag47
ag46
ag46
ag47
ag46
ag45
ag48
ag46
ag48
asg49
(lp179
I01
aI01
aI01
aI00
aI01
aI01
aI01
aI00
aI01
aI00
aI01
aI00
aI00
aI00
aI00
aI01
aI00
aI00
aI00
aI00
aI00
aI01
aI00
aI01
aI00
aI00
aI01
aI01
aI00
aI01
aI00
aI01
aI01
asg51
I33
sg52
g55
sg56
(lp180
(g58
I0
g24
tp181
ag67
ag69
ag70
a(g68
I0
g63
tp182
ag70
ag71
ag73
ag96
ag73
ag96
ag73
ag96
ag112
a(g68
F1.5707963267948966
g63
tp183
a(g68
F1.5707963267948966
g63
tp184
ag95
a(g68
F1.5707963267948966
g63
tp185
ag113
ag72
ag112
ag184
ag95
ag91
ag93
a(g58
F1.5707963267948966
g60
tp186
a(g58
F1.5707963267948966
g60
tp187
a(g58
F1.5707963267948966
g63
tp188
ag94
ag113
ag73
ag185
ag95
asg74
(lp189
g76
ag78
ag76
ag52
ag76
ag52
ag76
ag52
ag76
ag52
ag76
ag77
ag52
ag77
ag77
ag77
ag52
ag77
ag52
ag76
ag78
ag77
ag78
ag76
ag78
ag77
ag77
ag78
ag77
ag76
ag52
ag77
ag78
asg79
(lp190
g76
ag78
ag76
ag77
ag76
ag52
ag76
ag77
ag76
ag77
ag76
ag77
ag77
ag78
ag52
ag77
ag76
ag76
ag52
ag77
ag52
ag77
ag78
ag76
ag76
ag78
ag77
ag78
ag76
ag76
ag76
ag77
ag52
asg81
(lp191
g76
ag78
ag76
ag77
ag76
ag52
ag76
ag77
ag76
ag77
ag76
ag77
ag77
ag78
ag52
ag77
ag76
ag76
ag52
ag77
ag52
ag77
ag78
ag76
ag76
ag78
ag77
ag78
ag76
ag76
ag76
ag77
ag52
asaa(lp192
I9
ag39
(g40
tp193
Rp194
g43
(lp195
g45
ag45
ag45
ag47
ag46
ag46
ag46
ag47
ag46
ag47
ag45
ag48
ag46
ag48
ag45
ag48
ag46
ag46
ag48
ag45
ag48
asg49
(lp196
I00
aI00
aI01
aI00
aI00
aI00
aI01
aI00
aI01
aI01
aI01
aI00
aI01
aI01
aI01
aI00
aI00
aI01
aI00
aI01
aI01
asg51
I21
sg52
g55
sg56
(lp197
(g58
I0
g24
tp198
ag107
ag125
ag67
ag124
ag62
a(g58
I0
g60
tp199
ag64
ag124
ag64
ag69
ag70
ag109
ag127
ag71
ag73
ag185
ag184
ag95
ag96
ag73
asg74
(lp200
g76
ag76
ag76
ag78
ag77
ag77
ag77
ag78
ag77
ag78
ag76
ag52
ag77
ag52
ag76
ag78
ag77
ag77
ag52
ag76
ag52
asg79
(lp201
g52
ag78
ag76
ag76
ag78
ag52
ag77
ag76
ag77
ag78
ag76
ag76
ag77
ag52
ag76
ag76
ag52
ag77
ag77
ag76
ag52
asg81
(lp202
g52
ag78
ag76
ag76
ag78
ag52
ag77
ag76
ag77
ag78
ag76
ag76
ag77
ag52
ag76
ag76
ag52
ag77
ag77
ag76
ag52
asaatp203
Rp204
aatp205
Rp206
.