ccollections
OrderedDict
p0
((lp1
(lp2
S'index'
p3
aI137
aa(lp4
S'combination_dict'
p5
ag0
((lp6
(lp7
S'r_to_g_config'
p8
aS'tr'
p9
aa(lp10
S'num_turns'
p11
aI1
aa(lp12
S'start_direction'
p13
acutils_ms
StartDirection
p14
(I3
tp15
Rp16
aa(lp17
S'assistance_type'
p18
acutils_ms
AssistanceType
p19
(I0
tp20
Rp21
aa(lp22
S'start_mode'
p23
aS't'
p24
aa(lp25
S'ui_given_a_noise'
p26
aF0.7
aa(lp27
S'um_given_ui_noise'
p28
aF0.3
aa(lp29
S'entropy_threshold'
p30
aF0.8
aa(lp31
S'is_assistance'
p32
aI00
aatp33
Rp34
aa(lp35
S'trials'
p36
ag0
((lp37
(lp38
I0
accollections
defaultdict
p39
(c__builtin__
list
p40
tp41
Rp42
S'a'
p43
(lp44
S'mode_r'
p45
aS'mode_l'
p46
ag46
ag45
ag45
ag45
ag46
ag45
ag45
ag46
ag46
aS'move_p'
p47
ag46
ag47
ag45
ag47
ag46
ag47
ag45
asS'assistance_match_with_ground_truth'
p48
(lp49
I00
aI00
aI00
aI00
aI00
aI00
aI00
aI00
aI00
aI00
aI01
aI01
aI01
aI00
aI01
aI01
aI00
aI00
aI00
asS'total_steps'
p50
I19
sS'sp'
p51
(S'p2'
p52
I0
S'y'
p53
tp54
sS's'
p55
(lp56
(S'p0'
p57
I0
g24
tp58
a(g57
I0
g53
tp59
a(g57
I0
g53
tp60
a(g57
I0
S't'
p61
tp62
a(g57
I0
g61
tp63
a(g57
I0
g61
tp64
ag59
ag62
ag63
ag59
a(g57
I0
g53
tp65
a(g57
I0
S'x'
p66
tp67
a(S'p1'
p68
I0
g66
tp69
a(g68
I0
g61
tp70
a(g68
I0
g53
tp71
a(g68
I0
g61
tp72
a(g68
F1.5707963267948966
g61
tp73
a(g68
I0
g61
tp74
ag71
asS'ui'
p75
(lp76
S'hs'
p77
ag77
aS'hp'
p78
ag51
aS'ss'
p79
ag77
ag78
ag51
ag77
ag77
ag77
ag51
ag77
ag51
ag78
ag77
ag79
ag51
ag77
asS'um_before'
p80
(lp81
g77
ag51
ag78
ag51
ag79
ag77
ag78
ag51
ag77
ag79
ag77
ag51
ag77
ag77
ag78
ag51
ag79
ag77
ag51
asS'um_after'
p82
(lp83
g77
ag51
ag78
ag51
ag79
ag77
ag78
ag51
ag77
ag79
ag77
ag51
ag77
ag77
ag78
ag51
ag79
ag77
ag51
asaa(lp84
I1
ag39
(g40
tp85
Rp86
g43
(lp87
g45
ag45
ag46
ag45
ag45
ag47
ag47
ag46
ag47
ag47
ag46
ag47
ag46
ag46
ag45
ag46
ag47
ag46
ag46
ag46
ag46
ag47
ag46
ag47
ag46
ag47
ag46
ag46
ag47
ag46
ag45
ag45
ag47
ag46
ag47
ag46
ag45
ag46
ag45
ag45
ag45
ag45
ag45
ag47
asg48
(lp88
I00
aI00
aI00
aI00
aI01
aI00
aI01
aI01
aI00
aI00
aI01
aI01
aI00
aI00
aI00
aI01
aI00
aI00
aI00
aI00
aI01
aI00
aI01
aI00
aI00
aI00
aI00
aI01
aI01
aI00
aI00
aI01
aI00
aI01
aI00
aI00
aI00
aI00
aI00
aI00
aI00
aI00
aI01
aI01
asg50
I44
sg51
(g52
F1.5707963267948966
g53
tp89
sg55
(lp90
(g57
I0
g24
tp91
ag63
ag59
ag62
ag64
a(g57
I0
g66
tp92
a(g57
I0
g66
tp93
ag69
ag70
a(g68
I0
g61
tp94
a(g68
I0
g66
tp95
ag70
ag73
a(g68
F1.5707963267948966
g61
tp96
a(g68
F1.5707963267948966
g66
tp97
a(g68
F1.5707963267948966
g61
tp98
a(g68
F1.5707963267948966
g53
tp99
a(g68
F1.5707963267948966
g61
tp100
ag96
ag96
ag96
ag99
ag100
ag99
ag100
ag74
ag95
a(g68
I0
g66
tp101
ag70
ag73
ag97
a(g68
F1.5707963267948966
g66
tp102
a(g68
F1.5707963267948966
g53
tp103
ag100
ag99
ag100
ag97
ag98
ag97
a(g68
F1.5707963267948966
g66
tp104
ag102
ag104
ag102
ag103
asg75
(lp105
g77
ag77
ag79
ag77
ag78
ag79
ag51
ag77
ag78
ag78
ag77
ag51
ag77
ag78
ag77
ag77
ag77
ag51
ag51
ag77
ag77
ag79
ag77
ag79
ag79
ag78
ag79
ag77
ag77
ag51
ag78
ag78
ag77
ag77
ag78
ag77
ag78
ag78
ag79
ag51
ag51
ag51
ag78
ag78
asg80
(lp106
g51
ag77
ag78
ag79
ag78
ag79
ag51
ag77
ag79
ag78
ag77
ag51
ag51
ag78
ag77
ag77
ag78
ag51
ag51
ag51
ag77
ag78
ag77
ag78
ag79
ag78
ag51
ag77
ag51
ag78
ag51
ag78
ag78
ag77
ag78
ag78
ag77
ag78
ag79
ag51
ag79
ag51
ag78
ag51
asg82
(lp107
g51
ag77
ag78
ag79
ag78
ag79
ag51
ag77
ag79
ag78
ag77
ag51
ag51
ag78
ag77
ag77
ag78
ag51
ag51
ag51
ag77
ag78
ag77
ag78
ag79
ag78
ag51
ag77
ag51
ag78
ag51
ag78
ag78
ag77
ag78
ag78
ag77
ag78
ag79
ag51
ag79
ag51
ag78
ag51
asaa(lp108
I2
ag39
(g40
tp109
Rp110
g43
(lp111
g45
ag47
ag45
ag47
ag46
ag46
ag45
ag46
ag46
ag45
ag45
ag47
ag45
ag45
ag46
ag46
ag47
ag45
ag45
ag45
ag46
ag47
ag46
ag47
ag46
ag47
ag45
asg48
(lp112
I01
aI00
aI01
aI00
aI00
aI00
aI00
aI00
aI00
aI00
aI01
aI00
aI00
aI00
aI00
aI01
aI00
aI00
aI00
aI00
aI01
aI01
aI01
aI00
aI01
aI00
aI00
asg50
I27
sg51
g54
sg55
(lp113
(g57
I0
g24
tp114
ag92
a(g57
I0
g61
tp115
ag92
a(g57
I0
g53
tp116
ag60
ag62
ag59
ag60
ag62
ag63
ag92
ag115
ag63
ag59
ag65
ag67
ag115
ag64
ag63
ag59
ag67
ag69
ag70
ag95
ag70
ag71
asg75
(lp117
g78
ag77
ag78
ag78
ag51
ag78
ag78
ag51
ag79
ag77
ag78
ag77
ag51
ag77
ag79
ag77
ag51
ag78
ag51
ag77
ag77
ag51
ag51
ag78
ag77
ag77
ag51
asg80
(lp118
g78
ag77
ag78
ag78
ag51
ag78
ag77
ag51
ag78
ag51
ag78
ag77
ag51
ag77
ag79
ag77
ag77
ag79
ag51
ag77
ag77
ag51
ag77
ag78
ag77
ag77
ag51
asg82
(lp119
g78
ag77
ag78
ag78
ag51
ag78
ag77
ag51
ag78
ag51
ag78
ag77
ag51
ag77
ag79
ag77
ag77
ag79
ag51
ag77
ag77
ag51
ag77
ag78
ag77
ag77
ag51
asaa(lp120
I3
ag39
(g40
tp121
Rp122
g43
(lp123
g45
ag46
ag45
ag46
ag46
ag47
ag46
ag46
ag47
ag46
ag46
ag47
ag45
ag47
ag46
ag47
asg48
(lp124
I00
aI00
aI00
aI00
aI01
aI01
aI00
aI01
aI00
aI00
aI01
aI00
aI01
aI01
aI01
aI01
asg50
I16
sg51
g89
sg55
(lp125
(g57
I0
g24
tp126
ag59
ag62
ag59
ag60
ag67
ag69
ag101
ag70
ag95
a(g68
I0
g66
tp127
ag70
ag71
ag72
ag73
ag99
asg75
(lp128
g77
ag78
ag51
ag79
ag77
ag51
ag78
ag77
ag51
ag79
ag77
ag78
ag78
ag51
ag77
ag51
asg80
(lp129
g77
ag78
ag77
ag51
ag77
ag51
ag51
ag77
ag78
ag79
ag77
ag77
ag78
ag51
ag77
ag51
asg82
(lp130
g77
ag78
ag77
ag51
ag77
ag51
ag51
ag77
ag78
ag79
ag77
ag77
ag78
ag51
ag77
ag51
asaa(lp131
I4
ag39
(g40
tp132
Rp133
g43
(lp134
g45
ag47
ag46
ag46
ag45
ag47
ag46
ag46
ag47
ag46
ag46
ag45
ag47
ag45
ag47
ag46
ag47
ag46
ag47
ag46
ag45
ag47
ag46
ag47
ag45
ag46
ag46
ag45
ag45
ag45
ag46
ag47
ag46
ag47
ag45
ag47
asg48
(lp135
I01
aI01
aI00
aI00
aI01
aI00
aI00
aI01
aI01
aI00
aI00
aI01
aI00
aI01
aI00
aI00
aI00
aI01
aI01
aI00
aI01
aI00
aI01
aI00
aI00
aI00
aI00
aI00
aI00
aI00
aI01
aI00
aI01
aI00
aI01
aI01
asg50
I36
sg51
g89
sg55
(lp136
(g57
I0
g24
tp137
ag92
ag69
ag127
a(g68
I0
g53
tp138
ag72
ag95
ag101
ag70
ag73
ag96
ag97
ag103
a(g68
F1.5707963267948966
g66
tp139
ag103
ag100
ag74
ag95
ag70
ag73
ag97
ag103
ag100
ag99
ag139
ag98
ag96
ag97
ag104
ag102
ag98
ag99
ag100
ag99
ag139
ag103
asg75
(lp140
g78
ag51
ag51
ag78
ag78
ag78
ag51
ag77
ag51
ag77
ag78
ag78
ag77
ag77
ag78
ag77
ag78
ag79
ag51
ag79
ag79
ag78
ag77
ag77
ag78
ag51
ag77
ag79
ag78
ag77
ag77
ag78
ag77
ag77
ag78
ag51
asg80
(lp141
g78
ag51
ag79
ag78
ag78
ag78
ag51
ag77
ag51
ag51
ag78
ag78
ag77
ag78
ag78
ag79
ag78
ag77
ag51
ag78
ag78
ag78
ag77
ag77
ag77
ag51
ag78
ag79
ag51
ag77
ag77
ag78
ag77
ag77
ag78
ag51
asg82
(lp142
g78
ag51
ag79
ag78
ag78
ag78
ag51
ag77
ag51
ag51
ag78
ag78
ag77
ag78
ag78
ag79
ag78
ag77
ag51
ag78
ag78
ag78
ag77
ag77
ag77
ag51
ag78
ag79
ag51
ag77
ag77
ag78
ag77
ag77
ag78
ag51
asaa(lp143
I5
ag39
(g40
tp144
Rp145
g43
(lp146
g45
ag46
ag45
ag45
ag47
ag47
ag45
ag46
ag47
ag45
ag47
ag46
ag47
ag45
asg48
(lp147
I00
aI00
aI00
aI01
aI00
aI00
aI00
aI01
aI00
aI01
aI01
aI01
aI00
aI00
asg50
I14
sg51
g54
sg55
(lp148
(g57
I0
g24
tp149
ag59
ag62
ag64
ag92
ag93
ag115
ag59
ag67
ag115
ag92
ag69
ag70
ag71
asg75
(lp150
g77
ag79
ag79
ag78
ag78
ag79
ag77
ag77
ag77
ag78
ag51
ag77
ag77
ag51
asg80
(lp151
g77
ag78
ag79
ag78
ag79
ag77
ag77
ag77
ag77
ag78
ag51
ag77
ag77
ag51
asg82
(lp152
g77
ag78
ag79
ag78
ag79
ag77
ag77
ag77
ag77
ag78
ag51
ag77
ag77
ag51
asaa(lp153
I6
ag39
(g40
tp154
Rp155
g43
(lp156
g45
ag45
ag46
ag46
ag46
ag46
ag46
ag47
ag46
ag47
ag45
ag46
ag47
ag46
ag47
asg48
(lp157
I00
aI00
aI00
aI00
aI00
aI00
aI01
aI01
aI01
aI00
aI00
aI01
aI01
aI01
aI01
asg50
I15
sg51
g89
sg55
(lp158
(g57
I0
g24
tp159
ag64
ag59
ag65
ag60
ag60
ag60
ag67
ag69
ag70
ag71
a(g68
I0
g66
tp160
ag70
ag73
ag99
asg75
(lp161
g78
ag77
ag51
ag51
ag51
ag51
ag77
ag77
ag77
ag77
ag77
ag51
ag51
ag77
ag51
asg80
(lp162
g79
ag77
ag79
ag51
ag51
ag51
ag77
ag51
ag77
ag77
ag77
ag77
ag51
ag77
ag51
asg82
(lp163
g79
ag77
ag79
ag51
ag51
ag51
ag77
ag51
ag77
ag77
ag77
ag77
ag51
ag77
ag51
asaa(lp164
I7
ag39
(g40
tp165
Rp166
g43
(lp167
g45
ag46
ag47
ag46
ag46
ag46
ag46
ag46
ag47
ag46
ag46
ag45
ag47
asg48
(lp168
I00
aI01
aI01
aI00
aI00
aI00
aI00
aI01
aI01
aI00
aI00
aI01
aI01
asg50
I13
sg51
g89
sg55
(lp169
(g57
I0
g24
tp170
ag59
ag67
ag69
ag101
ag101
ag101
ag101
ag70
ag73
ag96
ag97
ag103
asg75
(lp171
g77
ag78
ag51
ag51
ag78
ag77
ag51
ag77
ag51
ag77
ag78
ag78
ag51
asg80
(lp172
g77
ag77
ag51
ag51
ag51
ag51
ag51
ag77
ag51
ag51
ag78
ag78
ag51
asg82
(lp173
g77
ag77
ag51
ag51
ag51
ag51
ag51
ag77
ag51
ag51
ag78
ag78
ag51
asaa(lp174
I8
ag39
(g40
tp175
Rp176
g43
(lp177
g45
ag45
ag45
ag45
ag45
ag47
ag45
ag45
ag46
ag46
ag47
ag45
ag46
ag47
ag45
ag47
ag46
ag47
ag46
ag47
ag45
ag46
ag47
ag47
ag47
ag46
ag47
ag45
asg48
(lp178
I00
aI00
aI00
aI00
aI01
aI00
aI00
aI00
aI00
aI01
aI00
aI00
aI01
aI00
aI01
aI01
aI01
aI01
aI01
aI00
aI00
aI00
aI00
aI00
aI01
aI00
aI00
aI00
asg50
I28
sg51
g54
sg55
(lp179
(g57
I0
g24
tp180
ag63
ag63
ag64
ag64
ag92
ag115
ag63
ag59
ag65
ag67
ag115
ag59
ag67
ag115
ag92
ag69
ag70
ag73
ag99
ag139
ag98
ag74
ag94
ag94
ag73
ag74
ag71
asg75
(lp181
g77
ag78
ag51
ag79
ag78
ag77
ag51
ag78
ag51
ag51
ag77
ag78
ag77
ag78
ag78
ag51
ag77
ag51
ag77
ag77
ag77
ag78
ag79
ag51
ag51
ag78
ag77
ag51
asg80
(lp182
g51
ag51
ag79
ag79
ag78
ag77
ag51
ag77
ag79
ag77
ag77
ag77
ag77
ag77
ag78
ag51
ag77
ag51
ag77
ag77
ag77
ag79
ag79
ag79
ag51
ag79
ag77
ag51
asg82
(lp183
g51
ag51
ag79
ag79
ag78
ag77
ag51
ag77
ag79
ag77
ag77
ag77
ag77
ag77
ag78
ag51
ag77
ag51
ag77
ag77
ag77
ag79
ag79
ag79
ag51
ag79
ag77
ag51
asaa(lp184
I9
ag39
(g40
tp185
Rp186
g43
(lp187
g45
ag45
ag45
ag45
ag47
ag46
ag47
ag46
ag47
ag46
ag47
ag46
ag47
ag46
ag45
asg48
(lp188
I00
aI00
aI00
aI01
aI00
aI01
aI00
aI01
aI00
aI01
aI01
aI01
aI00
aI00
aI00
asg50
I15
sg51
g54
sg55
(lp189
(g57
I0
g24
tp190
ag63
ag63
ag63
ag92
ag116
ag67
ag116
ag67
ag116
ag67
ag69
ag70
ag95
ag138
asg75
(lp191
g51
ag51
ag51
ag78
ag51
ag77
ag51
ag77
ag78
ag77
ag51
ag51
ag78
ag51
ag51
asg80
(lp192
g51
ag51
ag51
ag78
ag78
ag77
ag78
ag77
ag78
ag77
ag51
ag77
ag78
ag78
ag51
asg82
(lp193
g51
ag51
ag51
ag78
ag78
ag77
ag78
ag77
ag78
ag77
ag51
ag77
ag78
ag78
ag51
asaatp194
Rp195
aatp196
Rp197
.