ccollections
OrderedDict
p0
((lp1
(lp2
S'index'
p3
aI980
aa(lp4
S'combination_dict'
p5
ag0
((lp6
(lp7
S'r_to_g_config'
p8
aS'tr'
p9
aa(lp10
S'num_turns'
p11
aI1
aa(lp12
S'start_direction'
p13
acutils_ms
StartDirection
p14
(I1
tp15
Rp16
aa(lp17
S'assistance_type'
p18
acutils_ms
AssistanceType
p19
(I1
tp20
Rp21
aa(lp22
S'start_mode'
p23
aS'x'
p24
aa(lp25
S'ui_given_a_noise'
p26
aF0.1
aa(lp27
S'um_given_ui_noise'
p28
aF0.5
aa(lp29
S'entropy_threshold'
p30
aF0.5
aa(lp31
S'is_assistance'
p32
aI01
aatp33
Rp34
aa(lp35
S'trials'
p36
ag0
((lp37
(lp38
I0
accollections
defaultdict
p39
(c__builtin__
list
p40
tp41
Rp42
S'a'
p43
(lp44
S'mode_r'
p45
aS'move_p'
p46
ag45
ag45
aS'mode_l'
p47
ag46
ag45
ag47
ag46
asS'assistance_match_with_ground_truth'
p48
(lp49
I01
aI01
aI00
aI00
aI01
aI01
aI00
aI01
aI01
asS'total_steps'
p50
I9
sS'sp'
p51
(S'p2'
p52
F1.5707963267948966
S'x'
p53
tp54
sS's'
p55
(lp56
(S'p0'
p57
I0
g24
tp58
a(g57
I0
S'y'
p59
tp60
a(S'p1'
p61
I0
g59
tp62
a(g61
I0
g59
tp63
a(g61
I0
g53
tp64
a(g61
I0
S't'
p65
tp66
a(g61
F1.5707963267948966
g65
tp67
a(g61
F1.5707963267948966
g59
tp68
a(g61
F1.5707963267948966
g53
tp69
asS'ui'
p70
(lp71
S'hp'
p72
ag51
aS'hs'
p73
ag73
ag73
ag51
ag73
ag73
ag51
asS'um_before'
p74
(lp75
g72
ag51
aS'ss'
p76
ag73
ag73
ag51
ag73
ag73
ag51
asS'um_after'
p77
(lp78
g72
ag51
ag76
ag73
ag73
ag51
ag73
ag73
ag51
asaa(lp79
I1
ag39
(g40
tp80
Rp81
g43
(lp82
g45
ag46
ag45
ag46
ag45
ag47
ag47
ag46
asg48
(lp83
I01
aI01
aI01
aI01
aI00
aI00
aI01
aI01
asg50
I8
sg51
g54
sg55
(lp84
(g57
I0
g24
tp85
ag60
ag62
a(g61
I0
g65
tp86
ag67
ag68
a(g61
F1.5707963267948966
g59
tp87
ag69
asg70
(lp88
g72
ag51
ag72
ag51
ag73
ag73
ag72
ag73
asg74
(lp89
g72
ag73
ag72
ag73
ag73
ag76
ag51
ag73
asg77
(lp90
g72
ag51
ag72
ag51
ag73
ag76
ag73
ag51
asaa(lp91
I2
ag39
(g40
tp92
Rp93
g43
(lp94
g45
ag46
ag45
ag46
ag47
ag45
ag46
ag45
ag46
ag45
ag46
ag45
ag46
ag47
ag46
asg48
(lp95
I01
aI01
aI01
aI00
aI00
aI01
aI01
aI01
aI01
aI01
aI00
aI01
aI01
aI01
aI01
asg50
I15
sg51
g54
sg55
(lp96
(g57
I0
g24
tp97
ag60
ag62
ag86
a(g61
I0
g53
tp98
a(g57
I0
g53
tp99
ag60
ag62
ag86
ag67
a(g61
F1.5707963267948966
g53
tp100
a(g57
F1.5707963267948966
g53
tp101
a(g57
F1.5707963267948966
g59
tp102
a(g61
F1.5707963267948966
g59
tp103
ag69
asg70
(lp104
g72
ag51
ag72
ag72
ag73
ag72
ag51
ag72
ag51
ag72
ag51
ag72
ag51
ag73
ag51
asg74
(lp105
g72
ag73
ag72
ag72
ag76
ag72
ag51
ag72
ag51
ag72
ag76
ag72
ag51
ag51
ag51
asg77
(lp106
g72
ag51
ag72
ag72
ag76
ag72
ag51
ag72
ag51
ag72
ag76
ag72
ag51
ag73
ag51
asaa(lp107
I3
ag39
(g40
tp108
Rp109
g43
(lp110
g45
ag46
ag45
ag46
ag45
ag46
asg48
(lp111
I01
aI01
aI01
aI01
aI01
aI01
asg50
I6
sg51
g54
sg55
(lp112
(g57
I0
g24
tp113
ag60
ag62
ag86
ag67
ag100
asg70
(lp114
g72
ag51
ag72
ag51
ag72
ag51
asg74
(lp115
g72
ag51
ag72
ag51
ag72
ag51
asg77
(lp116
g72
ag51
ag72
ag51
ag72
ag51
asaa(lp117
I4
ag39
(g40
tp118
Rp119
g43
(lp120
g45
ag46
ag45
ag46
ag45
ag46
asg48
(lp121
I01
aI01
aI01
aI01
aI01
aI01
asg50
I6
sg51
g54
sg55
(lp122
(g57
I0
g24
tp123
ag60
ag62
ag86
ag67
ag100
asg70
(lp124
g72
ag51
ag72
ag51
ag72
ag51
asg74
(lp125
g51
ag51
ag72
ag51
ag51
ag73
asg77
(lp126
g72
ag51
ag72
ag51
ag72
ag51
asaa(lp127
I5
ag39
(g40
tp128
Rp129
g43
(lp130
g45
ag46
ag45
ag46
ag47
ag46
ag45
ag46
asg48
(lp131
I01
aI01
aI01
aI00
aI01
aI01
aI01
aI01
asg50
I8
sg51
g54
sg55
(lp132
(g57
I0
g24
tp133
ag60
ag62
ag86
ag98
ag66
ag67
ag100
asg70
(lp134
g72
ag51
ag72
ag72
ag73
ag51
ag72
ag51
asg74
(lp135
g72
ag51
ag72
ag72
ag73
ag51
ag72
ag51
asg77
(lp136
g72
ag51
ag72
ag72
ag73
ag51
ag72
ag51
asaa(lp137
I6
ag39
(g40
tp138
Rp139
g43
(lp140
g45
ag45
ag46
ag45
ag46
ag45
ag46
ag45
ag46
asg48
(lp141
I00
aI01
aI01
aI01
aI01
aI00
aI01
aI01
aI01
asg50
I9
sg51
g54
sg55
(lp142
(g57
I0
g24
tp143
a(g57
I0
g53
tp144
ag60
ag62
ag86
ag67
a(g61
I0
g65
tp145
ag67
ag100
asg70
(lp146
g72
ag72
ag51
ag72
ag51
ag72
ag51
ag72
ag51
asg74
(lp147
g76
ag72
ag51
ag72
ag51
ag76
ag51
ag51
ag51
asg77
(lp148
g76
ag72
ag51
ag72
ag51
ag76
ag51
ag72
ag51
asaa(lp149
I7
ag39
(g40
tp150
Rp151
g43
(lp152
g45
ag46
ag45
ag46
ag45
ag46
asg48
(lp153
I01
aI01
aI01
aI01
aI01
aI01
asg50
I6
sg51
g54
sg55
(lp154
(g57
I0
g24
tp155
ag60
ag62
ag86
ag67
ag100
asg70
(lp156
g72
ag51
ag72
ag51
ag72
ag76
asg74
(lp157
g72
ag51
ag72
ag51
ag51
ag73
asg77
(lp158
g72
ag51
ag72
ag51
ag72
ag51
asaa(lp159
I8
ag39
(g40
tp160
Rp161
g43
(lp162
g45
ag46
ag45
ag46
ag45
ag46
ag45
ag46
ag46
ag47
ag46
ag47
ag46
asg48
(lp163
I01
aI01
aI01
aI01
aI01
aI00
aI01
aI00
aI01
aI01
aI00
aI01
aI01
asg50
I13
sg51
g54
sg55
(lp164
(g57
I0
g24
tp165
ag60
ag62
ag86
ag67
ag100
ag101
ag102
a(g57
F1.5707963267948966
g59
tp166
ag103
ag69
a(g61
F1.5707963267948966
g59
tp167
ag69
asg70
(lp168
g72
ag51
ag72
ag51
ag72
ag51
ag72
ag76
ag51
ag73
ag72
ag73
ag51
asg74
(lp169
g72
ag51
ag72
ag51
ag51
ag76
ag51
ag76
ag51
ag73
ag72
ag51
ag51
asg77
(lp170
g72
ag51
ag72
ag51
ag72
ag76
ag72
ag76
ag51
ag73
ag72
ag73
ag51
asaa(lp171
I9
ag39
(g40
tp172
Rp173
g43
(lp174
g45
ag46
ag45
ag45
ag46
ag45
ag46
ag45
ag46
ag47
ag47
ag46
asg48
(lp175
I01
aI01
aI00
aI01
aI01
aI01
aI00
aI01
aI01
aI00
aI01
aI01
asg50
I12
sg51
g54
sg55
(lp176
(g57
I0
g24
tp177
ag60
ag62
ag63
ag86
ag67
ag100
ag101
ag102
ag103
ag87
ag69
asg70
(lp178
g72
ag51
ag76
ag72
ag51
ag72
ag72
ag72
ag51
ag73
ag73
ag51
asg74
(lp179
g72
ag51
ag76
ag72
ag51
ag72
ag76
ag72
ag51
ag76
ag51
ag73
asg77
(lp180
g72
ag51
ag76
ag72
ag51
ag72
ag76
ag72
ag51
ag76
ag73
ag51
asaatp181
Rp182
aatp183
Rp184
.