ccollections
OrderedDict
p0
((lp1
(lp2
S'index'
p3
aI2783
aa(lp4
S'combination_dict'
p5
ag0
((lp6
(lp7
S'r_to_g_config'
p8
aS'tr'
p9
aa(lp10
S'num_turns'
p11
aI3
aa(lp12
S'start_direction'
p13
acutils_ms
StartDirection
p14
(I3
tp15
Rp16
aa(lp17
S'assistance_type'
p18
acutils_ms
AssistanceType
p19
(I0
tp20
Rp21
aa(lp22
S'start_mode'
p23
aS'y'
p24
aa(lp25
S'ui_given_a_noise'
p26
aF0.3
aa(lp27
S'um_given_ui_noise'
p28
aF0.5
aa(lp29
S'entropy_threshold'
p30
aF0.6
aa(lp31
S'is_assistance'
p32
aI00
aatp33
Rp34
aa(lp35
S'trials'
p36
ag0
((lp37
(lp38
I0
accollections
defaultdict
p39
(c__builtin__
list
p40
tp41
Rp42
S'a'
p43
(lp44
S'mode_l'
p45
aS'move_p'
p46
ag45
ag46
ag46
aS'mode_r'
p47
ag45
ag47
ag46
ag47
ag47
ag47
ag46
ag47
ag47
ag45
ag46
ag47
ag47
ag46
ag47
ag45
ag45
ag47
ag46
ag45
ag46
ag47
ag46
ag45
ag47
ag46
ag47
ag46
ag47
ag47
ag46
ag45
ag46
ag47
ag46
ag47
ag46
ag45
ag46
ag45
ag46
ag47
ag46
ag45
ag46
ag45
ag47
ag46
ag47
ag46
ag47
ag47
ag45
ag46
ag45
ag47
ag47
ag46
ag47
ag47
ag46
ag47
ag46
ag46
ag46
ag47
ag47
ag45
ag46
ag47
ag47
ag45
ag47
ag46
ag45
ag46
ag47
ag47
ag46
ag45
ag46
ag45
ag46
ag47
ag47
ag46
ag45
ag46
ag47
ag47
ag45
ag46
ag45
ag45
ag45
ag46
ag47
ag47
ag45
ag47
ag46
ag45
ag45
ag46
ag47
ag47
ag46
asS'assistance_match_with_ground_truth'
p48
(lp49
I01
aI00
aI01
aI00
aI00
aI00
aI00
aI01
aI00
aI00
aI00
aI01
aI01
aI00
aI00
aI01
aI01
aI00
aI01
aI01
aI00
aI00
aI00
aI00
aI00
aI01
aI01
aI01
aI00
aI00
aI01
aI00
aI01
aI00
aI00
aI01
aI01
aI01
aI00
aI01
aI00
aI01
aI00
aI01
aI00
aI01
aI01
aI01
aI00
aI01
aI01
aI00
aI00
aI00
aI01
aI00
aI00
aI00
aI01
aI00
aI00
aI00
aI01
aI00
aI00
aI01
aI01
aI00
aI00
aI00
aI01
aI00
aI00
aI01
aI00
aI00
aI00
aI00
aI01
aI01
aI01
aI00
aI00
aI01
aI01
aI01
aI00
aI01
aI00
aI00
aI01
aI01
aI01
aI01
aI00
aI00
aI01
aI00
aI00
aI00
aI01
aI00
aI00
aI00
aI00
aI01
aI00
aI00
aI01
aI01
aI00
aI01
aI01
asS'total_steps'
p50
I113
sS'sp'
p51
(S'p4'
p52
F1.5707963267948966
S'y'
p53
tp54
sS's'
p55
(lp56
(S'p0'
p57
I0
g24
tp58
a(g57
I0
S'x'
p59
tp60
a(g57
I0
g53
tp61
ag60
a(g57
I0
g59
tp62
a(g57
I0
S't'
p63
tp64
a(g57
I0
g53
tp65
a(g57
I0
g63
tp66
a(g57
I0
g59
tp67
ag64
a(g57
I0
g63
tp68
ag68
ag67
a(S'p1'
p69
I0
g59
tp70
a(g69
I0
g59
tp71
a(g69
I0
g63
tp72
a(g69
I0
g53
tp73
a(S'p2'
p74
I0
g53
tp75
a(g74
I0
g53
tp76
a(g74
I0
g63
tp77
a(g74
F1.5707963267948966
g63
tp78
a(g74
F1.5707963267948966
g53
tp79
a(g74
F1.5707963267948966
g53
tp80
a(g74
F1.5707963267948966
g63
tp81
a(g74
I0
g63
tp82
a(g74
I0
g59
tp83
a(g74
I0
g63
tp84
ag78
a(g74
F1.5707963267948966
g59
tp85
a(g74
F1.5707963267948966
g53
tp86
ag81
ag85
a(g74
F1.5707963267948966
g63
tp87
ag85
a(g69
F1.5707963267948966
g59
tp88
a(g69
F1.5707963267948966
g59
tp89
a(g69
F1.5707963267948966
g53
tp90
a(g74
F1.5707963267948966
g53
tp91
a(g74
F1.5707963267948966
g59
tp92
ag88
ag90
a(g69
F1.5707963267948966
g59
tp93
ag90
a(g69
F1.5707963267948966
g63
tp94
a(g69
F1.5707963267948966
g53
tp95
a(g57
F1.5707963267948966
g53
tp96
a(g57
F1.5707963267948966
g59
tp97
a(g69
F1.5707963267948966
g59
tp98
ag90
ag94
ag95
ag91
ag81
ag82
a(g74
I0
g53
tp99
ag77
ag99
ag76
a(g74
I0
g59
tp100
ag84
ag83
a(g74
I0
g53
tp101
ag76
ag77
ag99
a(g74
I0
g53
tp102
ag77
ag78
ag82
a(g74
I0
g63
tp103
ag103
ag78
a(g74
F1.5707963267948966
g63
tp104
ag79
ag92
ag88
a(g69
F1.5707963267948966
g59
tp105
a(g69
F1.5707963267948966
g63
tp106
a(g69
F1.5707963267948966
g59
tp107
ag90
ag91
ag92
ag88
ag105
ag90
ag91
ag92
ag86
ag92
ag88
ag89
ag90
ag91
ag92
a(S'p3'
p108
F1.5707963267948966
g59
tp109
a(g108
F1.5707963267948966
g59
tp110
a(g108
F1.5707963267948966
g63
tp111
a(g108
F1.5707963267948966
g53
tp112
a(g108
F1.5707963267948966
g63
tp113
a(g108
F1.5707963267948966
g63
tp114
ag114
ag112
a(g108
F1.5707963267948966
g59
tp115
a(g108
F1.5707963267948966
g59
tp116
ag111
a(g108
F1.5707963267948966
g59
tp117
a(g108
F1.5707963267948966
g53
tp118
a(g74
F1.5707963267948966
g53
tp119
ag80
ag92
ag109
ag116
ag118
asS'ui'
p120
(lp121
S'hs'
p122
aS'hp'
p123
ag122
ag51
ag51
ag122
ag122
ag123
ag51
ag51
ag123
ag123
ag51
aS'ss'
p124
ag123
ag122
ag51
ag123
ag123
ag51
ag123
ag122
ag122
ag123
ag51
ag122
ag51
ag123
ag122
ag122
ag123
ag51
ag123
ag51
ag123
ag123
ag51
ag122
ag124
ag123
ag124
ag122
ag123
ag122
ag51
ag122
ag51
ag123
ag124
ag122
ag51
ag122
ag124
ag123
ag122
ag51
ag123
ag122
ag122
ag124
ag122
ag123
ag123
ag123
ag123
ag123
ag51
ag123
ag124
ag124
ag51
ag51
ag123
ag122
ag51
ag122
ag123
ag123
ag123
ag51
ag122
ag51
ag123
ag123
ag51
ag122
ag123
ag122
ag51
ag51
ag123
ag51
ag122
ag51
ag124
ag123
ag51
ag123
ag122
ag122
ag122
ag123
ag123
ag123
ag122
ag123
ag124
ag51
ag51
ag51
ag124
ag123
ag51
asS'um_before'
p125
(lp126
g122
ag123
ag122
ag124
ag122
ag122
ag123
ag123
ag122
ag124
ag124
ag123
ag51
ag124
ag122
ag122
ag51
ag51
ag123
ag51
ag122
ag124
ag123
ag124
ag123
ag122
ag51
ag123
ag123
ag123
ag123
ag122
ag123
ag124
ag51
ag123
ag51
ag122
ag124
ag123
ag122
ag123
ag123
ag122
ag124
ag122
ag51
ag123
ag123
ag122
ag51
ag123
ag124
ag122
ag123
ag122
ag51
ag122
ag122
ag123
ag123
ag51
ag123
ag122
ag124
ag123
ag51
ag124
ag124
ag124
ag51
ag51
ag122
ag122
ag124
ag124
ag122
ag123
ag123
ag51
ag122
ag124
ag124
ag123
ag51
ag122
ag123
ag122
ag124
ag51
ag123
ag51
ag122
ag51
ag124
ag122
ag122
ag123
ag124
ag124
ag122
ag122
ag51
ag122
ag123
ag123
ag124
ag124
ag122
ag51
ag51
ag123
ag51
asS'um_after'
p127
(lp128
g122
ag123
ag122
ag124
ag122
ag122
ag123
ag123
ag122
ag124
ag124
ag123
ag51
ag124
ag122
ag122
ag51
ag51
ag123
ag51
ag122
ag124
ag123
ag124
ag123
ag122
ag51
ag123
ag123
ag123
ag123
ag122
ag123
ag124
ag51
ag123
ag51
ag122
ag124
ag123
ag122
ag123
ag123
ag122
ag124
ag122
ag51
ag123
ag123
ag122
ag51
ag123
ag124
ag122
ag123
ag122
ag51
ag122
ag122
ag123
ag123
ag51
ag123
ag122
ag124
ag123
ag51
ag124
ag124
ag124
ag51
ag51
ag122
ag122
ag124
ag124
ag122
ag123
ag123
ag51
ag122
ag124
ag124
ag123
ag51
ag122
ag123
ag122
ag124
ag51
ag123
ag51
ag122
ag51
ag124
ag122
ag122
ag123
ag124
ag124
ag122
ag122
ag51
ag122
ag123
ag123
ag124
ag124
ag122
ag51
ag51
ag123
ag51
asaa(lp129
I1
ag39
(g40
tp130
Rp131
g43
(lp132
g45
ag47
ag45
ag47
ag46
ag46
ag47
ag47
ag46
ag47
ag45
ag47
ag45
ag45
ag46
ag47
ag46
ag45
ag45
ag47
ag47
ag46
ag45
ag45
ag45
ag45
ag46
ag47
ag45
ag46
ag45
ag47
ag46
ag45
ag46
ag45
ag46
ag46
ag47
ag45
ag46
ag47
ag45
ag45
ag47
ag45
ag46
ag47
ag46
ag47
ag45
ag47
ag46
ag45
ag46
ag45
ag45
ag45
ag47
ag46
ag45
ag47
ag46
ag47
ag45
ag46
ag47
ag47
ag45
ag45
ag46
ag45
ag46
asg48
(lp133
I00
aI00
aI00
aI01
aI00
aI01
aI00
aI01
aI01
aI00
aI00
aI00
aI00
aI01
aI00
aI01
aI00
aI00
aI00
aI00
aI01
aI00
aI00
aI00
aI00
aI01
aI00
aI00
aI01
aI00
aI00
aI01
aI00
aI01
aI00
aI01
aI00
aI01
aI00
aI01
aI00
aI00
aI00
aI00
aI00
aI01
aI01
aI01
aI01
aI00
aI00
aI01
aI00
aI01
aI00
aI00
aI00
aI00
aI00
aI00
aI00
aI01
aI00
aI00
aI01
aI00
aI00
aI00
aI00
aI01
aI00
aI01
aI01
asg50
I73
sg51
(g52
I0
g53
tp134
sg55
(lp135
(g57
I0
g24
tp136
ag66
ag65
ag66
ag67
ag62
ag70
ag71
a(g69
I0
g53
tp137
ag75
ag100
a(g69
I0
g59
tp138
ag72
a(g69
I0
g63
tp139
ag73
a(g69
I0
g59
tp140
ag137
a(g69
I0
g63
tp141
ag139
a(g69
I0
g59
tp142
a(g69
I0
g59
tp143
ag137
a(g57
I0
g53
tp144
a(g57
I0
g53
tp145
a(g57
I0
g53
tp146
ag145
ag60
ag64
ag65
ag60
ag61
ag66
ag67
ag61
ag60
ag61
ag60
ag62
ag70
ag72
ag73
ag140
ag72
ag139
ag142
ag72
ag73
ag75
ag77
ag78
ag79
ag81
ag85
ag86
ag92
ag86
ag80
ag80
ag81
ag82
ag83
a(g108
I0
g59
tp147
a(g108
I0
g53
tp148
a(g108
I0
g59
tp149
a(g108
I0
g63
tp150
a(g108
I0
g53
tp151
ag149
a(g108
I0
g59
tp152
ag150
a(g108
I0
g63
tp153
ag151
a(g108
I0
g63
tp154
ag151
asg120
(lp155
g122
ag123
ag122
ag123
ag123
ag123
ag122
ag123
ag51
ag122
ag122
ag123
ag122
ag122
ag123
ag123
ag123
ag122
ag122
ag124
ag123
ag51
ag124
ag122
ag122
ag122
ag123
ag123
ag122
ag123
ag122
ag123
ag123
ag122
ag123
ag122
ag124
ag51
ag122
ag122
ag123
ag123
ag122
ag122
ag123
ag122
ag51
ag123
ag51
ag123
ag123
ag123
ag123
ag122
ag123
ag122
ag122
ag122
ag123
ag123
ag51
ag123
ag51
ag123
ag122
ag124
ag124
ag123
ag122
ag122
ag123
ag122
ag51
asg125
(lp156
g123
ag122
ag123
ag123
ag124
ag51
ag124
ag123
ag51
ag122
ag124
ag122
ag124
ag122
ag122
ag123
ag123
ag124
ag123
ag51
ag123
ag124
ag124
ag51
ag124
ag122
ag122
ag122
ag122
ag123
ag123
ag123
ag123
ag122
ag123
ag122
ag124
ag51
ag122
ag122
ag122
ag122
ag124
ag123
ag122
ag122
ag51
ag123
ag51
ag122
ag123
ag123
ag123
ag122
ag123
ag124
ag124
ag123
ag124
ag123
ag51
ag123
ag122
ag122
ag122
ag122
ag124
ag122
ag124
ag122
ag123
ag122
ag51
asg127
(lp157
g123
ag122
ag123
ag123
ag124
ag51
ag124
ag123
ag51
ag122
ag124
ag122
ag124
ag122
ag122
ag123
ag123
ag124
ag123
ag51
ag123
ag124
ag124
ag51
ag124
ag122
ag122
ag122
ag122
ag123
ag123
ag123
ag123
ag122
ag123
ag122
ag124
ag51
ag122
ag122
ag122
ag122
ag124
ag123
ag122
ag122
ag51
ag123
ag51
ag122
ag123
ag123
ag123
ag122
ag123
ag124
ag124
ag123
ag124
ag123
ag51
ag123
ag122
ag122
ag122
ag122
ag124
ag122
ag124
ag122
ag123
ag122
ag51
asaa(lp158
I2
ag39
(g40
tp159
Rp160
g43
(lp161
g45
ag46
ag45
ag45
ag45
ag47
ag45
ag45
ag46
ag47
ag45
ag46
ag45
ag47
ag45
ag46
ag46
ag47
ag47
ag46
ag45
ag45
ag45
ag46
ag47
ag47
ag45
ag46
ag47
ag46
ag47
ag46
ag47
ag47
ag47
ag46
ag47
ag46
ag46
ag47
ag46
ag47
ag46
ag47
ag46
ag45
ag47
ag47
ag47
ag45
ag47
ag45
ag46
asg48
(lp162
I01
aI00
aI00
aI00
aI00
aI00
aI00
aI01
aI01
aI00
aI01
aI00
aI00
aI00
aI01
aI00
aI01
aI00
aI01
aI00
aI00
aI00
aI01
aI01
aI00
aI00
aI01
aI01
aI01
aI00
aI01
aI00
aI00
aI00
aI01
aI01
aI00
aI00
aI01
aI01
aI00
aI00
aI00
aI01
aI00
aI00
aI00
aI00
aI00
aI00
aI00
aI01
aI01
asg50
I53
sg51
g134
sg55
(lp163
(g57
I0
g24
tp164
ag60
ag61
ag145
ag145
ag66
ag65
ag146
ag60
ag70
ag72
ag73
ag144
ag66
ag65
ag60
ag62
ag70
ag71
ag137
ag144
ag146
ag145
ag60
ag70
ag143
ag72
ag73
ag75
ag77
ag99
ag77
ag99
ag102
ag76
ag77
ag78
ag82
ag103
ag78
ag85
ag87
ag82
ag99
ag77
ag83
ag101
ag76
ag102
ag100
ag147
ag150
ag151
asg120
(lp165
g122
ag123
ag122
ag122
ag122
ag122
ag51
ag122
ag51
ag122
ag123
ag51
ag122
ag123
ag122
ag124
ag51
ag123
ag123
ag51
ag51
ag122
ag122
ag51
ag123
ag123
ag122
ag51
ag123
ag123
ag122
ag124
ag123
ag124
ag123
ag51
ag124
ag124
ag51
ag123
ag123
ag124
ag123
ag124
ag123
ag122
ag123
ag123
ag123
ag51
ag123
ag122
ag51
asg125
(lp166
g122
ag123
ag124
ag124
ag123
ag122
ag51
ag122
ag51
ag122
ag122
ag124
ag123
ag122
ag122
ag124
ag51
ag124
ag123
ag124
ag51
ag124
ag122
ag51
ag51
ag122
ag122
ag51
ag123
ag122
ag123
ag122
ag124
ag51
ag123
ag51
ag124
ag124
ag51
ag123
ag122
ag124
ag122
ag123
ag123
ag123
ag51
ag124
ag122
ag51
ag122
ag122
ag51
asg127
(lp167
g122
ag123
ag124
ag124
ag123
ag122
ag51
ag122
ag51
ag122
ag122
ag124
ag123
ag122
ag122
ag124
ag51
ag124
ag123
ag124
ag51
ag124
ag122
ag51
ag51
ag122
ag122
ag51
ag123
ag122
ag123
ag122
ag124
ag51
ag123
ag51
ag124
ag124
ag51
ag123
ag122
ag124
ag122
ag123
ag123
ag123
ag51
ag124
ag122
ag51
ag122
ag122
ag51
asaa(lp168
I3
ag39
(g40
tp169
Rp170
g43
(lp171
g45
ag45
ag46
ag47
ag46
ag47
ag45
ag47
ag46
ag45
ag45
ag46
ag45
ag46
ag47
ag45
ag45
ag45
ag46
ag47
ag45
ag47
ag47
ag47
ag45
ag46
ag47
ag46
ag47
ag45
ag46
ag45
ag46
ag47
ag46
ag45
ag47
ag45
ag46
ag47
ag47
ag47
ag45
ag45
ag46
ag47
ag46
ag47
ag46
ag45
ag46
asg48
(lp172
I00
aI01
aI00
aI01
aI01
aI00
aI00
aI01
aI00
aI00
aI01
aI00
aI01
aI00
aI00
aI00
aI00
aI01
aI01
aI00
aI00
aI00
aI00
aI00
aI01
aI01
aI01
aI01
aI00
aI01
aI00
aI01
aI00
aI01
aI00
aI00
aI00
aI01
aI01
aI00
aI00
aI00
aI00
aI01
aI00
aI01
aI00
aI01
aI00
aI01
aI01
asg50
I51
sg51
g54
sg55
(lp173
(g57
I0
g24
tp174
ag146
ag60
ag64
ag67
ag70
ag72
ag142
ag137
ag141
ag139
ag73
ag141
ag73
ag140
ag72
a(g69
I0
g63
tp175
ag139
ag73
ag75
ag100
ag138
ag143
ag143
ag72
ag73
ag75
ag77
ag78
ag79
ag92
ag86
ag92
ag87
ag85
ag86
ag81
ag79
ag92
ag109
ag110
ag116
ag111
ag114
ag112
ag115
ag118
ag115
ag118
ag113
ag112
asg120
(lp176
g51
ag122
ag123
ag123
ag51
ag123
ag122
ag123
ag123
ag51
ag122
ag51
ag122
ag123
ag122
ag51
ag122
ag122
ag51
ag124
ag122
ag124
ag124
ag122
ag122
ag51
ag122
ag51
ag123
ag122
ag51
ag122
ag51
ag123
ag124
ag122
ag123
ag122
ag51
ag123
ag123
ag123
ag51
ag122
ag51
ag123
ag124
ag123
ag51
ag122
ag51
asg125
(lp177
g51
ag122
ag122
ag123
ag51
ag122
ag123
ag123
ag123
ag124
ag122
ag123
ag122
ag122
ag122
ag51
ag124
ag122
ag51
ag122
ag124
ag51
ag51
ag122
ag122
ag51
ag123
ag51
ag122
ag122
ag123
ag122
ag122
ag123
ag123
ag123
ag122
ag122
ag51
ag124
ag51
ag122
ag124
ag122
ag122
ag123
ag122
ag123
ag123
ag122
ag51
asg127
(lp178
g51
ag122
ag122
ag123
ag51
ag122
ag123
ag123
ag123
ag124
ag122
ag123
ag122
ag122
ag122
ag51
ag124
ag122
ag51
ag122
ag124
ag51
ag51
ag122
ag122
ag51
ag123
ag51
ag122
ag122
ag123
ag122
ag122
ag123
ag123
ag123
ag122
ag122
ag51
ag124
ag51
ag122
ag124
ag122
ag122
ag123
ag122
ag123
ag123
ag122
ag51
asaa(lp179
I4
ag39
(g40
tp180
Rp181
g43
(lp182
g45
ag46
ag47
ag45
ag47
ag46
ag47
ag46
ag47
ag46
ag45
ag46
ag45
ag47
ag47
ag46
ag47
ag46
ag47
ag46
ag47
ag47
ag47
ag46
ag47
ag45
ag45
ag45
ag47
ag46
ag45
ag47
ag47
ag46
ag45
ag47
ag45
ag46
ag47
ag46
asg48
(lp183
I01
aI00
aI00
aI00
aI01
aI01
aI01
aI01
aI01
aI00
aI01
aI00
aI00
aI00
aI01
aI01
aI01
aI01
aI00
aI01
aI00
aI00
aI01
aI01
aI00
aI00
aI00
aI00
aI01
aI00
aI00
aI00
aI01
aI00
aI00
aI00
aI01
aI00
aI01
aI01
asg50
I40
sg51
g54
sg55
(lp184
(g57
I0
g24
tp185
ag60
ag64
ag65
ag66
ag67
ag70
ag137
ag75
ag77
ag83
ag84
ag83
ag138
ag143
ag137
ag75
ag77
ag78
ag82
ag78
ag104
ag104
ag85
ag109
ag111
ag114
a(g108
F1.5707963267948966
g63
tp186
ag117
ag118
ag113
ag117
ag110
ag118
ag113
ag117
ag111
ag112
ag115
ag118
asg120
(lp187
g122
ag51
ag124
ag122
ag123
ag51
ag123
ag51
ag122
ag123
ag122
ag51
ag122
ag123
ag123
ag124
ag123
ag51
ag123
ag51
ag123
ag123
ag123
ag51
ag123
ag122
ag51
ag122
ag123
ag51
ag122
ag122
ag123
ag123
ag122
ag123
ag122
ag124
ag123
ag51
asg125
(lp188
g122
ag122
ag122
ag123
ag123
ag51
ag123
ag51
ag123
ag123
ag122
ag123
ag124
ag51
ag123
ag51
ag123
ag51
ag124
ag51
ag51
ag51
ag123
ag51
ag122
ag124
ag51
ag123
ag123
ag123
ag123
ag124
ag123
ag123
ag123
ag122
ag122
ag122
ag123
ag51
asg127
(lp189
g122
ag122
ag122
ag123
ag123
ag51
ag123
ag51
ag123
ag123
ag122
ag123
ag124
ag51
ag123
ag51
ag123
ag51
ag124
ag51
ag51
ag51
ag123
ag51
ag122
ag124
ag51
ag123
ag123
ag123
ag123
ag124
ag123
ag123
ag123
ag122
ag122
ag122
ag123
ag51
asaa(lp190
I5
ag39
(g40
tp191
Rp192
g43
(lp193
g45
ag46
ag47
ag46
ag47
ag45
ag46
ag47
ag45
ag47
ag45
ag45
ag47
ag46
ag47
ag46
ag47
ag46
ag45
ag45
ag46
ag45
ag45
ag47
ag45
ag47
ag45
ag45
ag45
ag46
ag47
ag47
ag46
ag45
ag46
ag45
ag45
ag47
ag46
ag47
ag46
ag47
ag47
ag45
ag47
ag46
asg48
(lp194
I01
aI01
aI01
aI01
aI00
aI01
aI01
aI00
aI00
aI00
aI00
aI00
aI01
aI00
aI01
aI00
aI01
aI00
aI00
aI01
aI01
aI00
aI00
aI00
aI00
aI00
aI00
aI00
aI01
aI01
aI00
aI01
aI00
aI01
aI00
aI00
aI00
aI01
aI01
aI01
aI00
aI00
aI00
aI00
aI01
aI01
asg50
I46
sg51
g54
sg55
(lp195
(g57
I0
g24
tp196
ag60
ag70
ag137
ag75
ag100
ag84
ag78
ag79
ag81
ag79
ag80
ag81
ag85
ag88
ag90
ag93
ag90
ag94
a(g69
F1.5707963267948966
g63
tp197
ag95
ag91
a(g74
F1.5707963267948966
g53
tp198
ag81
ag79
ag81
ag79
ag80
ag80
ag92
ag109
ag116
ag118
ag113
ag112
ag119
ag80
ag81
ag85
ag109
ag118
ag115
ag116
ag111
ag117
ag118
asg120
(lp199
g122
ag51
ag123
ag51
ag123
ag122
ag124
ag123
ag123
ag123
ag122
ag122
ag123
ag122
ag123
ag123
ag123
ag123
ag122
ag122
ag51
ag51
ag51
ag123
ag122
ag122
ag122
ag122
ag122
ag51
ag123
ag123
ag122
ag122
ag51
ag122
ag122
ag123
ag51
ag123
ag51
ag123
ag123
ag122
ag123
ag51
asg125
(lp200
g122
ag51
ag123
ag51
ag122
ag122
ag51
ag122
ag123
ag122
ag124
ag123
ag123
ag124
ag123
ag122
ag123
ag123
ag124
ag122
ag51
ag51
ag123
ag122
ag123
ag122
ag124
ag124
ag122
ag51
ag51
ag123
ag123
ag122
ag124
ag124
ag123
ag123
ag51
ag123
ag122
ag51
ag122
ag123
ag123
ag51
asg127
(lp201
g122
ag51
ag123
ag51
ag122
ag122
ag51
ag122
ag123
ag122
ag124
ag123
ag123
ag124
ag123
ag122
ag123
ag123
ag124
ag122
ag51
ag51
ag123
ag122
ag123
ag122
ag124
ag124
ag122
ag51
ag51
ag123
ag123
ag122
ag124
ag124
ag123
ag123
ag51
ag123
ag122
ag51
ag122
ag123
ag123
ag51
asaa(lp202
I6
ag39
(g40
tp203
Rp204
g43
(lp205
g45
ag47
ag47
ag46
ag47
ag46
ag47
ag46
ag47
ag45
ag47
ag46
ag47
ag45
ag46
ag47
ag46
ag45
ag47
ag45
ag45
ag47
ag46
ag47
ag47
ag47
ag46
ag47
ag46
ag45
ag47
ag46
asg48
(lp206
I00
aI00
aI01
aI01
aI01
aI01
aI01
aI01
aI00
aI00
aI01
aI01
aI00
aI01
aI00
aI01
aI00
aI00
aI00
aI00
aI00
aI01
aI00
aI00
aI00
aI00
aI00
aI01
aI00
aI00
aI01
aI01
asg50
I32
sg51
g134
sg55
(lp207
(g57
I0
g24
tp208
ag66
ag68
ag67
ag70
ag137
ag75
ag77
ag78
ag79
ag81
ag85
ag109
ag111
ag112
ag115
ag118
ag119
ag81
ag79
ag80
ag81
ag85
ag87
ag104
ag104
ag82
ag99
ag77
ag83
ag147
ag148
asg120
(lp209
g122
ag124
ag123
ag51
ag123
ag51
ag123
ag124
ag51
ag123
ag123
ag51
ag123
ag122
ag123
ag123
ag51
ag122
ag122
ag122
ag123
ag123
ag51
ag123
ag123
ag124
ag51
ag123
ag123
ag51
ag123
ag51
asg125
(lp210
g123
ag124
ag123
ag51
ag123
ag51
ag123
ag51
ag122
ag123
ag123
ag51
ag122
ag122
ag122
ag123
ag124
ag123
ag122
ag124
ag123
ag123
ag122
ag51
ag51
ag124
ag122
ag123
ag123
ag51
ag123
ag51
asg127
(lp211
g123
ag124
ag123
ag51
ag123
ag51
ag123
ag51
ag122
ag123
ag123
ag51
ag122
ag122
ag122
ag123
ag124
ag123
ag122
ag124
ag123
ag123
ag122
ag51
ag51
ag124
ag122
ag123
ag123
ag51
ag123
ag51
asaa(lp212
I7
ag39
(g40
tp213
Rp214
g43
(lp215
g45
ag46
ag47
ag47
ag45
ag45
ag46
ag47
ag47
ag45
ag46
ag46
ag46
ag45
ag47
ag47
ag47
ag47
ag46
ag45
ag45
ag46
ag47
ag45
ag46
ag47
ag46
ag45
ag47
ag46
ag47
ag46
ag47
ag46
ag47
ag46
asg48
(lp216
I01
aI01
aI00
aI00
aI00
aI01
aI01
aI00
aI00
aI01
aI00
aI00
aI00
aI00
aI00
aI00
aI00
aI01
aI00
aI00
aI01
aI01
aI00
aI01
aI01
aI00
aI00
aI00
aI01
aI01
aI01
aI01
aI01
aI00
aI01
aI01
asg50
I36
sg51
g54
sg55
(lp217
(g57
I0
g24
tp218
ag60
ag70
ag143
ag72
ag175
ag73
ag75
ag76
ag100
ag84
ag103
ag103
ag83
ag138
ag71
ag71
ag71
ag137
ag141
ag175
ag73
ag75
ag100
ag84
ag78
ag82
ag83
ag101
ag77
ag78
ag85
ag109
ag118
ag115
ag118
asg120
(lp219
g122
ag51
ag123
ag124
ag122
ag122
ag51
ag123
ag123
ag122
ag51
ag124
ag123
ag122
ag123
ag123
ag123
ag123
ag51
ag51
ag122
ag51
ag123
ag122
ag51
ag123
ag123
ag122
ag123
ag51
ag123
ag123
ag123
ag51
ag123
ag51
asg125
(lp220
g122
ag51
ag51
ag122
ag51
ag122
ag51
ag51
ag122
ag122
ag124
ag124
ag123
ag124
ag124
ag124
ag124
ag123
ag123
ag51
ag122
ag51
ag122
ag122
ag51
ag124
ag123
ag123
ag123
ag51
ag123
ag51
ag123
ag122
ag123
ag51
asg127
(lp221
g122
ag51
ag51
ag122
ag51
ag122
ag51
ag51
ag122
ag122
ag124
ag124
ag123
ag124
ag124
ag124
ag124
ag123
ag123
ag51
ag122
ag51
ag122
ag122
ag51
ag124
ag123
ag123
ag123
ag51
ag123
ag51
ag123
ag122
ag123
ag51
asaa(lp222
I8
ag39
(g40
tp223
Rp224
g43
(lp225
g45
ag47
ag47
ag45
ag45
ag45
ag46
ag45
ag46
ag47
ag46
ag47
ag47
ag46
ag47
ag45
ag47
ag45
ag45
ag46
ag47
ag47
ag46
ag45
ag46
asg48
(lp226
I00
aI00
aI00
aI00
aI00
aI01
aI00
aI01
aI01
aI01
aI01
aI00
aI01
aI01
aI00
aI00
aI00
aI00
aI01
aI01
aI00
aI01
aI00
aI01
aI01
asg50
I25
sg51
g54
sg55
(lp227
(g57
I0
g24
tp228
ag66
a(g57
I0
g63
tp229
ag65
ag145
ag145
ag60
ag61
ag60
ag70
ag137
ag75
ag102
ag77
ag78
ag79
ag81
ag79
ag198
ag92
ag109
ag116
ag118
ag113
ag112
asg120
(lp230
g51
ag123
ag123
ag51
ag51
ag122
ag123
ag122
ag51
ag123
ag51
ag123
ag123
ag51
ag122
ag122
ag123
ag51
ag122
ag51
ag123
ag123
ag123
ag122
ag51
asg125
(lp231
g123
ag51
ag122
ag124
ag124
ag122
ag123
ag122
ag51
ag123
ag51
ag124
ag123
ag51
ag122
ag123
ag122
ag51
ag122
ag51
ag51
ag123
ag123
ag122
ag51
asg127
(lp232
g123
ag51
ag122
ag124
ag124
ag122
ag123
ag122
ag51
ag123
ag51
ag124
ag123
ag51
ag122
ag123
ag122
ag51
ag122
ag51
ag51
ag123
ag123
ag122
ag51
asaa(lp233
I9
ag39
(g40
tp234
Rp235
g43
(lp236
g45
ag45
ag47
ag46
ag47
ag47
ag45
ag46
ag47
ag47
ag45
ag47
ag46
ag47
ag46
ag47
ag47
ag45
ag45
ag47
ag45
ag46
asg48
(lp237
I00
aI00
aI01
aI01
aI00
aI00
aI01
aI01
aI00
aI00
aI00
aI01
aI01
aI01
aI01
aI00
aI00
aI00
aI00
aI00
aI01
aI01
asg50
I22
sg51
g54
sg55
(lp238
(g57
I0
g24
tp239
ag146
ag66
ag67
ag70
ag71
ag72
ag73
ag75
ag102
ag100
ag101
ag77
ag78
ag85
ag109
ag116
ag111
ag114
ag117
ag111
ag112
asg120
(lp240
g123
ag122
ag123
ag51
ag124
ag122
ag122
ag123
ag124
ag123
ag122
ag124
ag51
ag122
ag51
ag51
ag123
ag122
ag122
ag124
ag122
ag51
asg125
(lp241
g51
ag123
ag123
ag51
ag124
ag122
ag122
ag51
ag124
ag122
ag123
ag123
ag51
ag123
ag51
ag51
ag122
ag124
ag123
ag122
ag122
ag51
asg127
(lp242
g51
ag123
ag123
ag51
ag124
ag122
ag122
ag51
ag124
ag122
ag123
ag123
ag51
ag123
ag51
ag51
ag122
ag124
ag123
ag122
ag122
ag51
asaatp243
Rp244
aatp245
Rp246
.