ccollections
OrderedDict
p0
((lp1
(lp2
S'index'
p3
aI3222
aa(lp4
S'combination_dict'
p5
ag0
((lp6
(lp7
S'r_to_g_config'
p8
aS'tr'
p9
aa(lp10
S'num_turns'
p11
aI3
aa(lp12
S'start_direction'
p13
acutils_ms
StartDirection
p14
(I1
tp15
Rp16
aa(lp17
S'assistance_type'
p18
acutils_ms
AssistanceType
p19
(I0
tp20
Rp21
aa(lp22
S'start_mode'
p23
aS'x'
p24
aa(lp25
S'ui_given_a_noise'
p26
aF0.1
aa(lp27
S'um_given_ui_noise'
p28
aF0.5
aa(lp29
S'entropy_threshold'
p30
aF0.6
aa(lp31
S'is_assistance'
p32
aI01
aatp33
Rp34
aa(lp35
S'trials'
p36
ag0
((lp37
(lp38
I0
accollections
defaultdict
p39
(c__builtin__
list
p40
tp41
Rp42
S'a'
p43
(lp44
S'mode_r'
p45
aS'move_p'
p46
aS'mode_l'
p47
ag46
ag46
ag47
ag46
ag46
ag47
ag47
ag46
ag46
ag47
ag46
asS'assistance_match_with_ground_truth'
p48
(lp49
I01
aI01
aI01
aI00
aI01
aI01
aI00
aI01
aI00
aI01
aI00
aI01
aI01
aI01
asS'total_steps'
p50
I14
sS'sp'
p51
(S'p4'
p52
F1.5707963267948966
S'x'
p53
tp54
sS's'
p55
(lp56
(S'p0'
p57
I0
g24
tp58
a(g57
I0
S'y'
p59
tp60
a(S'p1'
p61
I0
g59
tp62
a(g61
I0
g53
tp63
ag63
a(S'p2'
p64
I0
g53
tp65
a(g64
I0
S't'
p66
tp67
ag67
a(g64
F1.5707963267948966
g66
tp68
ag68
a(g64
F1.5707963267948966
g59
tp69
ag69
a(S'p3'
p70
F1.5707963267948966
g59
tp71
a(g70
F1.5707963267948966
g53
tp72
asS'ui'
p73
(lp74
S'hp'
p75
ag51
aS'hs'
p76
ag51
ag51
ag76
ag51
ag51
ag76
ag76
ag51
ag51
ag76
ag51
asS'um_before'
p77
(lp78
g75
ag51
ag76
aS'ss'
p79
ag51
ag76
ag76
ag51
ag79
ag76
ag75
ag51
ag76
ag51
asS'um_after'
p80
(lp81
g75
ag51
ag76
aNag51
ag76
aNag51
aNag76
aNag51
ag76
ag51
asaa(lp82
I1
ag39
(g40
tp83
Rp84
g43
(lp85
g45
ag46
ag47
ag46
ag46
ag47
ag46
ag47
ag46
ag47
ag46
asg48
(lp86
I01
aI01
aI01
aI00
aI01
aI01
aI01
aI01
aI01
aI01
aI01
asg50
I11
sg51
g54
sg55
(lp87
(g57
I0
g24
tp88
ag60
ag62
ag63
ag63
ag65
ag67
ag68
ag69
ag71
ag72
asg73
(lp89
g75
ag51
ag76
ag51
ag51
ag76
ag51
ag76
ag51
ag76
ag51
asg77
(lp90
g75
ag51
ag76
ag75
ag51
ag76
ag51
ag76
ag51
ag76
ag51
asg80
(lp91
g75
ag51
ag76
aNag51
ag76
ag51
ag76
ag51
ag76
ag51
asaa(lp92
I2
ag39
(g40
tp93
Rp94
g43
(lp95
g45
ag46
ag47
ag47
ag46
ag46
ag47
ag46
ag46
ag47
ag47
ag47
ag47
ag47
ag46
ag46
ag46
ag46
ag47
ag47
ag46
asg48
(lp96
I01
aI01
aI00
aI01
aI00
aI01
aI01
aI00
aI01
aI00
aI00
aI00
aI00
aI01
aI00
aI00
aI00
aI01
aI00
aI01
aI01
asg50
I21
sg51
g54
sg55
(lp97
(g57
I0
g24
tp98
ag60
ag62
ag62
ag63
ag63
ag65
ag67
ag67
ag68
ag68
ag68
ag68
ag68
ag69
ag69
ag69
ag69
ag71
ag71
ag72
asg73
(lp99
g75
ag51
ag75
ag76
ag51
ag51
ag76
ag51
ag51
ag76
ag75
ag76
ag76
ag76
ag76
ag51
ag51
ag51
ag76
ag76
ag51
asg77
(lp100
g75
ag51
ag75
ag76
ag79
ag51
ag76
ag79
ag51
ag79
ag75
ag79
ag79
ag76
ag76
ag76
ag76
ag51
ag79
ag76
ag51
asg80
(lp101
g75
ag51
aNag76
aNag51
ag76
aNag51
aNaNaNaNag76
aNaNaNag51
aNag76
ag51
asaa(lp102
I3
ag39
(g40
tp103
Rp104
g43
(lp105
g45
ag47
ag47
ag46
ag46
ag47
ag47
ag46
ag47
ag47
ag46
ag46
ag47
ag46
ag46
ag47
ag47
ag47
ag46
ag46
asg48
(lp106
I00
aI00
aI01
aI00
aI01
aI00
aI01
aI01
aI00
aI01
aI00
aI01
aI01
aI00
aI01
aI00
aI00
aI01
aI00
aI01
asg50
I20
sg51
g54
sg55
(lp107
(g57
I0
g24
tp108
a(g57
I0
g66
tp109
ag109
a(g57
I0
g59
tp110
ag110
ag62
ag62
ag63
ag65
ag65
ag67
ag67
ag68
ag69
ag69
ag71
ag71
ag71
ag72
ag72
asg73
(lp111
g75
ag76
ag76
ag51
ag51
ag76
ag76
ag51
ag76
ag76
ag51
ag51
ag76
ag51
ag51
ag76
ag76
ag76
ag51
ag51
asg77
(lp112
g76
ag75
ag76
ag76
ag51
ag79
ag76
ag51
ag79
ag76
ag76
ag51
ag76
ag79
ag51
ag75
ag79
ag76
ag76
ag51
asg80
(lp113
g76
aNag76
aNag51
aNag76
ag51
aNag76
aNag51
ag76
aNag51
aNaNag76
aNag51
asaa(lp114
I4
ag39
(g40
tp115
Rp116
g43
(lp117
g45
ag47
ag47
ag47
ag46
ag47
ag46
ag47
ag47
ag46
ag47
ag47
ag47
ag47
ag47
ag47
ag47
ag46
ag47
ag46
asg48
(lp118
I00
aI00
aI00
aI01
aI01
aI01
aI01
aI00
aI01
aI01
aI00
aI00
aI00
aI00
aI00
aI00
aI01
aI01
aI01
aI01
asg50
I20
sg51
g54
sg55
(lp119
(g57
I0
g24
tp120
ag109
ag109
ag109
ag110
ag62
ag63
ag65
ag65
ag67
ag68
ag68
ag68
ag68
ag68
ag68
ag68
ag69
ag71
ag72
asg73
(lp121
g76
ag75
ag79
ag76
ag51
ag76
ag51
ag76
ag76
ag51
ag76
ag76
ag76
ag75
ag76
ag79
ag79
ag51
ag76
ag51
asg77
(lp122
g76
ag75
ag79
ag76
ag51
ag76
ag51
ag79
ag76
ag51
ag79
ag79
ag79
ag75
ag75
ag79
ag76
ag51
ag76
ag51
asg80
(lp123
g76
aNaNag76
ag51
ag76
ag51
aNag76
ag51
aNaNaNaNaNaNag76
ag51
ag76
ag51
asaa(lp124
I5
ag39
(g40
tp125
Rp126
g43
(lp127
g45
ag45
ag46
ag47
ag46
ag47
ag46
ag47
ag46
ag47
ag47
ag46
asg48
(lp128
I00
aI01
aI01
aI01
aI01
aI01
aI01
aI01
aI01
aI00
aI01
aI01
asg50
I12
sg51
g54
sg55
(lp129
(g57
I0
g24
tp130
a(g57
I0
g53
tp131
ag60
ag62
ag63
ag65
ag67
ag68
ag69
ag71
ag71
ag72
asg73
(lp132
g75
ag75
ag51
ag76
ag51
ag76
ag51
ag76
ag51
ag51
ag76
ag51
asg77
(lp133
g79
ag75
ag51
ag76
ag51
ag76
ag51
ag76
ag51
ag79
ag76
ag51
asg80
(lp134
g79
ag75
ag51
ag76
ag51
ag76
ag51
ag76
ag51
aNag76
ag51
asaa(lp135
I6
ag39
(g40
tp136
Rp137
g43
(lp138
g45
ag46
ag47
ag47
ag47
ag46
ag46
ag47
ag46
ag47
ag47
ag46
ag47
ag47
ag47
ag46
asg48
(lp139
I01
aI01
aI00
aI00
aI01
aI00
aI01
aI01
aI01
aI00
aI01
aI01
aI00
aI00
aI01
aI01
asg50
I16
sg51
g54
sg55
(lp140
(g57
I0
g24
tp141
ag60
ag62
ag62
ag62
ag63
ag63
ag65
ag67
ag68
ag68
ag69
ag71
ag71
ag71
ag72
asg73
(lp142
g75
ag51
ag76
ag75
ag79
ag51
ag51
ag76
ag51
ag76
ag76
ag51
ag76
ag76
ag76
ag51
asg77
(lp143
g75
ag51
ag79
ag75
ag76
ag79
ag51
ag76
ag51
ag79
ag76
ag51
ag79
ag79
ag76
ag51
asg80
(lp144
g75
ag51
aNaNag76
aNag51
ag76
ag51
aNag76
ag51
aNaNag76
ag51
asaa(lp145
I7
ag39
(g40
tp146
Rp147
g43
(lp148
g45
ag47
ag47
ag46
ag46
ag47
ag46
ag47
ag47
ag46
ag47
ag46
ag46
ag47
ag47
ag47
ag46
asg48
(lp149
I00
aI00
aI01
aI00
aI01
aI01
aI01
aI00
aI01
aI01
aI01
aI00
aI01
aI00
aI00
aI01
aI01
asg50
I17
sg51
g54
sg55
(lp150
(g57
I0
g24
tp151
ag109
ag109
ag110
ag110
ag62
ag63
ag65
ag65
ag67
ag68
ag69
ag69
ag71
ag71
ag71
ag72
asg73
(lp152
g76
ag76
ag76
ag51
ag51
ag76
ag51
ag76
ag76
ag51
ag76
ag51
ag51
ag76
ag75
ag76
ag51
asg77
(lp153
g76
ag79
ag76
ag75
ag51
ag76
ag51
ag75
ag76
ag51
ag76
ag75
ag51
ag75
ag75
ag76
ag51
asg80
(lp154
g76
aNag76
aNag51
ag76
ag51
aNag76
ag51
ag76
aNag51
aNaNag76
ag51
asaa(lp155
I8
ag39
(g40
tp156
Rp157
g43
(lp158
g45
ag45
ag46
ag46
ag47
ag46
ag47
ag46
ag46
ag47
ag46
ag47
ag47
ag47
ag47
ag46
asg48
(lp159
I00
aI01
aI00
aI01
aI01
aI01
aI01
aI00
aI01
aI01
aI01
aI00
aI00
aI00
aI01
aI01
asg50
I16
sg51
g54
sg55
(lp160
(g57
I0
g24
tp161
ag131
ag60
ag60
ag62
ag63
ag65
ag67
ag67
ag68
ag69
ag71
ag71
ag71
ag71
ag72
asg73
(lp162
g76
ag75
ag51
ag51
ag76
ag51
ag76
ag51
ag51
ag76
ag51
ag76
ag76
ag79
ag76
ag51
asg77
(lp163
g79
ag75
ag79
ag51
ag76
ag51
ag76
ag79
ag51
ag76
ag51
ag79
ag79
ag79
ag76
ag51
asg80
(lp164
g79
ag75
aNag51
ag76
ag51
ag76
aNag51
ag76
ag51
aNaNaNag76
ag51
asaa(lp165
I9
ag39
(g40
tp166
Rp167
g43
(lp168
g45
ag46
ag46
ag47
ag47
ag46
ag47
ag46
ag47
ag46
ag47
ag47
ag47
ag46
asg48
(lp169
I01
aI00
aI01
aI00
aI01
aI01
aI01
aI01
aI01
aI01
aI00
aI00
aI01
aI01
asg50
I14
sg51
g54
sg55
(lp170
(g57
I0
g24
tp171
ag60
ag60
ag62
ag62
ag63
ag65
ag67
ag68
ag69
ag71
ag71
ag71
ag72
asg73
(lp172
g75
ag51
ag51
ag75
ag76
ag51
ag76
ag51
ag76
ag51
ag76
ag76
ag76
ag51
asg77
(lp173
g75
ag79
ag51
ag75
ag76
ag51
ag76
ag51
ag76
ag51
ag79
ag79
ag76
ag51
asg80
(lp174
g75
aNag51
aNag76
ag51
ag76
ag51
ag76
ag51
aNaNag76
ag51
asaatp175
Rp176
aatp177
Rp178
.