ccollections
OrderedDict
p0
((lp1
(lp2
S'combination_dict'
p3
ag0
((lp4
(lp5
S'r_to_g_config'
p6
aS'tl'
p7
aa(lp8
S'num_turns'
p9
aI3
aa(lp10
S'start_direction'
p11
acutils_ms
StartDirection
p12
(I0
tp13
Rp14
aa(lp15
S'assistance_type'
p16
acutils_ms
AssistanceType
p17
(I2
tp18
Rp19
aa(lp20
S'start_mode'
p21
aS't'
p22
aa(lp23
S'ui_given_a_noise'
p24
aF0.5
aa(lp25
S'um_given_ui_noise'
p26
aF0.3
aa(lp27
S'entropy_threshold'
p28
aF0.9
aatp29
Rp30
aa(lp31
S'data'
p32
accollections
defaultdict
p33
(c__builtin__
list
p34
tp35
Rp36
S'a'
p37
(lp38
S'mode_r'
p39
aS'move_n'
p40
ag40
ag39
aS'mode_l'
p41
ag39
ag39
ag40
ag41
ag40
ag41
ag41
ag39
ag39
ag39
ag39
ag40
ag39
ag39
ag39
aS'move_p'
p42
ag39
ag39
ag39
ag42
ag39
ag39
ag42
ag39
ag42
ag39
ag42
ag39
ag39
ag41
ag39
ag39
ag39
ag42
ag39
ag42
ag41
ag42
ag39
ag39
ag40
ag39
ag42
ag42
ag39
ag40
ag39
ag39
ag42
ag41
ag39
ag40
ag40
ag39
ag39
ag39
ag41
ag41
ag39
ag41
ag39
ag40
ag40
ag39
ag39
ag39
ag41
ag39
ag42
ag39
ag41
ag42
ag41
ag41
ag40
ag41
ag40
ag39
ag42
asS'assistance_match_with_ground_truth'
p43
(lp44
I01
aI00
aI00
aI00
aI00
aI00
aI01
aI00
aI01
aI00
aI00
aI00
aI00
aI00
aI00
aI01
aI01
aI00
aI00
aI01
aI00
aI00
aI00
aI01
aI00
aI00
aI01
aI00
aI01
aI01
aI01
aI00
aI00
aI00
aI00
aI00
aI00
aI01
aI01
aI00
aI00
aI01
aI01
aI00
aI01
aI00
aI00
aI00
aI01
aI01
aI00
aI00
aI01
aI00
aI00
aI01
aI00
aI00
aI00
aI00
aI00
aI00
aI00
aI00
aI00
aI01
aI00
aI01
aI00
aI00
aI00
aI00
aI01
aI00
aI00
aI01
aI01
aI00
aI01
aI00
aI01
aI01
aI01
aI01
asS'total_steps'
p45
I84
sS'sp'
p46
(lp47
(S'p0'
p48
I0
S'x'
p49
tp50
a(g48
I0
g49
tp51
a(g48
I0
S't'
p52
tp53
a(g48
I0
S'y'
p54
tp55
a(g48
I0
g52
tp56
a(g48
I0
g52
tp57
ag50
a(g48
I0
g54
tp58
a(g48
I0
g49
tp59
ag58
a(g48
I0
g54
tp60
ag56
ag57
a(g48
I0
g52
tp61
ag61
ag50
a(S'p1'
p62
I0
g49
tp63
a(g62
I0
g49
tp64
a(g62
I0
g49
tp65
a(g62
I0
g54
tp66
a(g62
I0
g49
tp67
ag64
ag65
ag66
ag67
ag64
ag66
ag67
ag66
a(S'p2'
p68
I0
g54
tp69
a(g68
I0
g52
tp70
a(g68
I0
g54
tp71
a(g68
I0
g54
tp72
a(g68
I0
g49
tp73
a(g68
I0
g54
tp74
a(g68
I0
g54
tp75
ag75
ag70
a(g68
F1.5707963267948966
g52
tp76
a(g68
I0
g52
tp77
a(g68
I0
g49
tp78
a(g68
I0
g52
tp79
ag76
a(g68
F1.5707963267948966
g52
tp80
a(g68
F1.5707963267948966
g49
tp81
a(g68
F1.5707963267948966
g52
tp82
ag77
a(g68
I0
g52
tp83
ag76
ag81
a(g62
F1.5707963267948966
g49
tp84
a(g62
F1.5707963267948966
g49
tp85
a(g62
F1.5707963267948966
g54
tp86
a(g48
F1.5707963267948966
g54
tp87
a(g48
F1.5707963267948966
g52
tp88
a(g48
F1.5707963267948966
g49
tp89
a(g48
F1.5707963267948966
g49
tp90
a(g48
F1.5707963267948966
g52
tp91
a(g48
F1.5707963267948966
g52
tp92
a(g48
F1.5707963267948966
g52
tp93
a(g48
F1.5707963267948966
g54
tp94
a(g48
F1.5707963267948966
g54
tp95
ag88
ag94
ag88
ag89
ag90
a(g62
F1.5707963267948966
g49
tp96
ag85
ag85
a(g62
F1.5707963267948966
g52
tp97
a(g62
F1.5707963267948966
g49
tp98
ag86
a(g62
F1.5707963267948966
g49
tp99
ag97
a(g62
F1.5707963267948966
g54
tp100
a(g68
F1.5707963267948966
g54
tp101
a(g68
F1.5707963267948966
g54
tp102
a(g68
F1.5707963267948966
g49
tp103
a(g68
F1.5707963267948966
g54
tp104
ag103
a(S'p3'
p105
F1.5707963267948966
g49
tp106
a(g105
F1.5707963267948966
g54
tp107
a(S'p4'
p108
F1.5707963267948966
g54
tp109
asS's'
p110
(lp111
(g48
I0
g22
tp112
ag50
ag51
ag53
ag55
ag56
ag57
ag50
ag58
ag59
ag58
ag60
ag56
ag57
ag61
ag61
ag50
ag63
ag64
ag65
ag66
ag67
ag64
ag65
ag66
ag67
ag64
ag66
ag67
ag66
ag69
ag70
ag71
ag72
ag73
ag74
ag75
ag75
ag70
ag76
ag77
ag78
ag79
ag76
ag80
ag81
ag82
ag77
ag83
ag76
ag81
ag84
ag85
ag86
ag87
ag88
ag89
ag90
ag91
ag92
ag93
ag94
ag95
ag88
ag94
ag88
ag89
ag90
ag96
ag85
ag85
ag97
ag98
ag86
ag99
ag97
ag100
ag101
ag102
ag103
ag104
ag103
ag106
ag107
asS'ui'
p113
(lp114
S'hs'
p115
ag46
ag115
aS'hp'
p116
ag115
aS'ss'
p117
ag116
ag117
ag115
ag117
ag46
ag115
ag117
ag46
ag116
ag116
ag117
ag117
ag46
ag116
ag115
ag117
ag117
ag116
ag117
ag117
ag116
ag115
ag116
ag46
ag116
ag115
ag116
ag116
ag116
ag117
ag117
ag116
ag117
ag116
ag115
ag115
ag116
ag117
ag116
ag115
ag117
ag117
ag117
ag116
ag46
ag116
ag115
ag46
ag116
ag116
ag46
ag115
ag117
ag46
ag117
ag117
ag115
ag46
ag116
ag116
ag46
ag46
ag117
ag116
ag117
ag115
ag116
ag115
ag117
ag115
ag46
ag46
ag115
ag116
ag115
ag117
ag115
ag46
asS'um_before'
p118
(lp119
g116
ag46
ag115
ag115
ag116
ag117
ag116
ag116
ag115
ag116
ag46
ag116
ag117
ag46
ag46
ag116
ag117
ag117
ag46
ag116
ag115
ag117
ag46
ag116
ag115
ag117
ag116
ag115
ag116
ag46
ag116
ag115
ag46
ag115
ag116
ag117
ag117
ag116
ag46
ag117
ag116
ag115
ag46
ag46
ag116
ag115
ag117
ag117
ag46
ag116
ag46
ag117
ag116
ag117
ag116
ag116
ag46
ag115
ag117
ag46
ag115
ag117
ag116
ag115
ag116
ag116
ag46
ag117
ag117
ag117
ag115
ag116
ag116
ag115
ag115
ag115
ag46
ag46
ag115
ag116
ag115
ag117
ag116
ag46
asS'um_after'
p120
(lp121
g116
ag46
ag115
ag115
ag116
ag117
ag116
ag116
ag115
ag116
ag46
ag116
ag117
ag46
ag46
ag116
ag117
ag117
ag46
ag116
ag115
ag117
ag46
ag116
ag115
ag117
ag116
ag115
ag116
ag46
ag116
ag115
ag46
ag115
ag116
ag117
ag117
ag116
ag46
ag117
ag116
ag115
ag46
ag46
ag116
ag115
ag117
ag117
ag46
ag116
ag46
ag117
ag116
ag117
ag116
ag116
ag46
ag115
ag117
ag46
ag115
ag117
ag116
ag115
ag116
ag116
ag46
ag117
ag117
ag117
ag115
ag116
ag116
ag115
ag115
ag115
ag46
ag46
ag115
ag116
ag115
ag117
ag116
ag46
asaa(lp122
S'index'
p123
aI51690
aatp124
Rp125
.