ccollections
OrderedDict
p0
((lp1
(lp2
S'combination_dict'
p3
ag0
((lp4
(lp5
S'r_to_g_config'
p6
aS'tr'
p7
aa(lp8
S'num_turns'
p9
aI2
aa(lp10
S'start_direction'
p11
acutils_ms
StartDirection
p12
(I1
tp13
Rp14
aa(lp15
S'assistance_type'
p16
acutils_ms
AssistanceType
p17
(I1
tp18
Rp19
aa(lp20
S'start_mode'
p21
aS't'
p22
aa(lp23
S'ui_given_a_noise'
p24
aF0.7
aa(lp25
S'um_given_ui_noise'
p26
aF0.1
aa(lp27
S'entropy_threshold'
p28
aF0.8
aatp29
Rp30
aa(lp31
S'data'
p32
accollections
defaultdict
p33
(c__builtin__
list
p34
tp35
Rp36
S'a'
p37
(lp38
S'mode_l'
p39
aS'move_p'
p40
ag39
ag40
aS'mode_r'
p41
ag40
ag40
ag39
ag39
ag40
ag39
ag40
ag39
ag40
ag39
ag40
ag41
ag39
ag40
ag39
ag39
ag39
ag40
ag39
ag40
ag39
ag39
ag40
ag41
ag40
ag40
ag39
ag40
ag39
ag40
ag40
ag40
ag39
ag40
ag39
ag39
ag39
ag39
ag40
ag39
ag39
ag40
ag41
ag40
ag41
ag39
ag40
ag41
ag41
ag41
ag39
ag39
ag40
ag41
ag41
ag40
ag39
ag40
ag41
ag41
ag40
ag41
ag40
ag39
ag40
ag41
ag40
ag41
ag41
ag40
ag39
ag39
ag40
asS'assistance_match_with_ground_truth'
p42
(lp43
I01
aI01
aI01
aI00
aI01
aI00
aI01
aI00
aI01
aI01
aI01
aI00
aI01
aI00
aI01
aI00
aI00
aI01
aI01
aI00
aI00
aI01
aI01
aI01
aI00
aI00
aI01
aI00
aI01
aI00
aI00
aI01
aI00
aI01
aI00
aI00
aI00
aI01
aI01
aI00
aI00
aI00
aI01
aI00
aI00
aI01
aI00
aI01
aI00
aI00
aI01
aI00
aI00
aI00
aI00
aI00
aI01
aI00
aI00
aI01
aI01
aI01
aI00
aI00
aI01
aI00
aI01
aI01
aI01
aI01
aI01
aI00
aI00
aI01
aI00
aI00
aI01
aI01
asS'total_steps'
p44
I78
sS'sp'
p45
(lp46
(S'p0'
p47
I0
S'y'
p48
tp49
a(S'p1'
p50
I0
g48
tp51
a(g50
I0
S'x'
p52
tp53
a(g47
I0
g52
tp54
a(g47
I0
g48
tp55
a(g47
I0
g48
tp56
ag51
a(g50
I0
g48
tp57
ag53
a(S'p2'
p58
I0
g52
tp59
a(g58
I0
S't'
p60
tp61
a(g58
I0
g52
tp62
ag61
ag62
ag61
a(g58
I0
g48
tp63
a(g50
I0
g48
tp64
ag53
ag59
a(g58
I0
g52
tp65
a(g58
I0
g52
tp66
ag61
a(g58
F1.5707963267948966
g60
tp67
a(g58
F1.5707963267948966
g48
tp68
a(g50
F1.5707963267948966
g48
tp69
a(g50
F1.5707963267948966
g48
tp70
a(g50
F1.5707963267948966
g52
tp71
a(g47
F1.5707963267948966
g52
tp72
a(g47
F1.5707963267948966
g48
tp73
a(g47
F1.5707963267948966
g48
tp74
a(g47
F1.5707963267948966
g60
tp75
a(g47
F1.5707963267948966
g48
tp76
ag75
ag76
ag74
ag74
ag75
ag76
a(g50
F1.5707963267948966
g48
tp77
ag70
ag70
ag70
ag71
a(g50
F1.5707963267948966
g48
tp78
a(g50
F1.5707963267948966
g48
tp79
ag71
a(g50
F1.5707963267948966
g60
tp80
a(g50
F1.5707963267948966
g52
tp81
ag72
a(g47
F1.5707963267948966
g60
tp82
ag76
a(g47
F1.5707963267948966
g52
tp83
a(g47
F1.5707963267948966
g52
tp84
a(g47
F1.5707963267948966
g52
tp85
ag82
a(g47
F1.5707963267948966
g60
tp86
ag76
ag83
ag85
ag73
ag77
ag71
ag72
ag85
ag73
ag83
ag73
ag77
ag71
a(g58
F1.5707963267948966
g52
tp87
a(g58
F1.5707963267948966
g48
tp88
a(g58
F1.5707963267948966
g52
tp89
a(g58
F1.5707963267948966
g52
tp90
ag88
a(g58
F1.5707963267948966
g60
tp91
a(g58
F1.5707963267948966
g60
tp92
ag68
a(S'p3'
p93
F1.5707963267948966
g48
tp94
asS's'
p95
(lp96
(g47
I0
g22
tp97
ag49
ag51
ag53
ag54
ag55
ag56
ag51
ag57
ag53
ag59
ag61
ag62
ag61
ag62
ag61
ag63
ag64
ag53
ag59
ag65
ag66
ag61
ag67
ag68
ag69
ag70
ag71
ag72
ag73
ag74
ag75
ag76
ag75
ag76
ag74
ag74
ag75
ag76
ag77
ag70
ag70
ag70
ag71
ag78
ag79
ag71
ag80
ag81
ag72
ag82
ag76
ag83
ag84
ag85
ag82
ag86
ag76
ag83
ag85
ag73
ag77
ag71
ag72
ag85
ag73
ag83
ag73
ag77
ag71
ag87
ag88
ag89
ag90
ag88
ag91
ag92
ag68
asS'ui'
p98
(lp99
S'hs'
p100
ag45
aS'ss'
p101
ag45
aS'hp'
p102
ag101
ag45
ag101
ag100
ag45
ag100
ag102
ag100
ag102
ag102
ag100
ag101
ag100
ag45
ag101
ag100
ag100
ag45
ag100
ag101
ag101
ag100
ag101
ag102
ag101
ag102
ag100
ag102
ag100
ag101
ag101
ag102
ag100
ag45
ag100
ag101
ag101
ag100
ag102
ag45
ag100
ag100
ag102
ag101
ag100
ag100
ag100
ag45
ag101
ag100
ag101
ag100
ag100
ag101
ag102
ag45
ag100
ag101
ag101
ag102
ag100
ag102
ag101
ag100
ag45
ag100
ag100
ag102
ag102
ag102
ag45
ag100
ag45
asS'um_before'
p103
(lp104
g100
ag45
ag102
ag101
ag102
ag101
ag45
ag101
ag100
ag45
ag100
ag102
ag100
ag102
ag102
ag100
ag101
ag100
ag45
ag101
ag45
ag100
ag45
ag100
ag101
ag101
ag100
ag101
ag102
ag101
ag102
ag100
ag102
ag100
ag101
ag101
ag102
ag102
ag45
ag101
ag101
ag101
ag100
ag102
ag45
ag100
ag100
ag102
ag101
ag100
ag100
ag100
ag45
ag101
ag100
ag101
ag100
ag100
ag101
ag102
ag45
ag100
ag101
ag101
ag102
ag100
ag102
ag45
ag100
ag45
ag102
ag100
ag101
ag102
ag102
ag45
ag100
ag45
asS'um_after'
p105
(lp106
g100
ag45
ag100
ag101
ag102
ag101
ag45
ag101
ag100
ag45
ag100
ag102
ag100
ag102
ag100
ag100
ag101
ag100
ag45
ag101
ag45
ag100
ag45
ag100
ag101
ag101
ag100
ag101
ag102
ag101
ag102
ag100
ag102
ag100
ag101
ag101
ag102
ag100
ag45
ag101
ag101
ag101
ag100
ag102
ag45
ag100
ag100
ag102
ag101
ag100
ag100
ag100
ag45
ag101
ag100
ag101
ag100
ag100
ag101
ag102
ag45
ag100
ag101
ag101
ag102
ag100
ag102
ag45
ag100
ag45
ag102
ag100
ag101
ag102
ag102
ag45
ag100
ag45
asaa(lp107
S'index'
p108
aI17431
aatp109
Rp110
.