ccollections
OrderedDict
p0
((lp1
(lp2
S'index'
p3
aI8572
aa(lp4
S'combination_dict'
p5
ag0
((lp6
(lp7
S'r_to_g_config'
p8
aS'bl'
p9
aa(lp10
S'num_turns'
p11
aI1
aa(lp12
S'start_direction'
p13
acutils_ms
StartDirection
p14
(I1
tp15
Rp16
aa(lp17
S'assistance_type'
p18
acutils_ms
AssistanceType
p19
(I0
tp20
Rp21
aa(lp22
S'start_mode'
p23
aS't'
p24
aa(lp25
S'ui_given_a_noise'
p26
aF0.5
aa(lp27
S'um_given_ui_noise'
p28
aF0.3
aa(lp29
S'entropy_threshold'
p30
aF0.6
aa(lp31
S'is_assistance'
p32
aI01
aatp33
Rp34
aa(lp35
S'trials'
p36
ag0
((lp37
(lp38
I0
accollections
defaultdict
p39
(c__builtin__
list
p40
tp41
Rp42
S'a'
p43
(lp44
S'mode_l'
p45
aS'move_n'
p46
ag45
ag46
ag45
ag46
ag46
aS'mode_r'
p47
ag46
ag47
aS'move_p'
p48
ag47
ag47
ag46
asS'assistance_match_with_ground_truth'
p49
(lp50
I01
aI00
aI01
aI00
aI01
aI00
aI00
aI01
aI01
aI01
aI01
aI00
aI01
aI01
asS'total_steps'
p51
I14
sS'sp'
p52
(S'p2'
p53
F1.5707963267948966
S'x'
p54
tp55
sS's'
p56
(lp57
(S'p0'
p58
I0
g24
tp59
a(g58
I0
S'y'
p60
tp61
a(g58
I0
S't'
p62
tp63
ag61
ag63
ag61
a(g58
I0
g60
tp64
a(g58
I0
g54
tp65
a(g58
I0
g60
tp66
a(S'p1'
p67
I0
g60
tp68
a(g67
I0
g62
tp69
a(g67
F1.5707963267948966
g62
tp70
a(g67
F1.5707963267948966
g62
tp71
a(g67
F1.5707963267948966
g54
tp72
asS'ui'
p73
(lp74
S'hs'
p75
aS'ss'
p76
ag75
ag76
ag75
ag76
ag52
ag76
ag76
aS'hp'
p77
ag52
ag77
ag76
ag76
asS'um_before'
p78
(lp79
g75
ag77
ag75
ag77
ag75
ag52
ag75
ag77
ag76
ag77
ag52
ag52
ag77
ag76
asS'um_after'
p80
(lp81
g75
ag77
ag75
ag77
ag75
ag52
ag75
ag77
ag76
ag77
ag52
ag52
ag77
ag76
asaa(lp82
I1
ag39
(g40
tp83
Rp84
g43
(lp85
g45
ag46
ag47
ag48
ag45
asg49
(lp86
I01
aI01
aI01
aI00
aI00
asg51
I5
sg52
(g53
I0
g54
tp87
sg56
(lp88
(g58
I0
g24
tp89
ag61
ag68
ag69
a(g67
I0
g54
tp90
asg73
(lp91
g75
ag76
ag77
ag76
ag52
asg78
(lp92
g75
ag76
ag77
ag77
ag76
asg80
(lp93
g75
ag76
ag77
ag77
ag76
asaa(lp94
I2
ag39
(g40
tp95
Rp96
g43
(lp97
g45
ag47
ag47
ag47
ag47
ag47
ag47
ag47
ag46
ag47
ag47
ag47
ag48
ag48
ag45
ag47
ag47
ag48
ag47
ag45
ag47
ag47
ag46
ag47
ag45
asg49
(lp98
I00
aI00
aI00
aI00
aI00
aI00
aI00
aI01
aI01
aI00
aI00
aI01
aI00
aI00
aI00
aI00
aI01
aI00
aI00
aI00
aI00
aI01
aI01
aI00
aI00
asg51
I25
sg52
g87
sg56
(lp99
(g58
I0
g24
tp100
a(g58
I0
g54
tp101
a(g58
I0
g54
tp102
ag102
a(g58
I0
g54
tp103
ag103
ag103
ag102
ag66
ag68
a(g67
I0
g60
tp104
a(g67
I0
g60
tp105
ag69
a(g67
I0
g62
tp106
ag90
a(g67
I0
g60
tp107
ag104
ag69
a(g67
I0
g60
tp108
a(g67
I0
g54
tp109
a(g58
I0
g54
tp110
ag102
ag66
ag68
ag109
asg73
(lp111
g75
ag76
ag77
ag52
ag52
ag52
ag76
ag77
ag76
ag77
ag76
ag77
ag52
ag75
ag77
ag77
ag77
ag75
ag77
ag52
ag77
ag77
ag76
ag52
ag76
asg78
(lp112
g77
ag76
ag76
ag52
ag52
ag52
ag76
ag77
ag76
ag52
ag76
ag77
ag76
ag77
ag77
ag52
ag77
ag75
ag75
ag52
ag76
ag77
ag76
ag75
ag76
asg80
(lp113
g77
ag76
ag76
ag52
ag52
ag52
ag76
ag77
ag76
ag52
ag76
ag77
ag76
ag77
ag77
ag52
ag77
ag75
ag75
ag52
ag76
ag77
ag76
ag75
ag76
asaa(lp114
I3
ag39
(g40
tp115
Rp116
g43
(lp117
g45
ag46
ag46
ag47
ag47
ag45
ag47
ag47
ag45
ag45
ag45
ag45
ag46
ag47
ag48
ag47
ag48
ag47
ag47
ag47
ag47
ag47
ag47
ag47
ag48
ag48
ag45
ag47
ag47
ag46
ag47
ag47
ag47
ag48
ag48
ag47
ag47
ag47
ag47
ag47
ag47
ag47
ag48
ag47
ag45
asg49
(lp118
I01
aI00
aI01
aI00
aI00
aI00
aI00
aI00
aI00
aI00
aI00
aI01
aI01
aI01
aI00
aI01
aI00
aI00
aI00
aI00
aI00
aI00
aI00
aI01
aI00
aI00
aI00
aI00
aI01
aI01
aI00
aI00
aI01
aI00
aI00
aI00
aI00
aI00
aI00
aI00
aI00
aI01
aI00
aI00
aI00
asg51
I45
sg52
g87
sg56
(lp119
(g58
I0
g24
tp120
ag61
ag64
ag68
ag104
ag109
ag110
ag102
a(g58
I0
g62
tp121
a(g58
I0
g62
tp122
a(g58
I0
g62
tp123
ag123
ag61
ag68
ag69
ag108
ag69
ag108
ag104
ag104
ag105
ag104
ag104
ag104
ag69
ag106
ag90
ag110
ag103
ag66
ag68
ag104
ag104
ag69
ag106
ag108
ag105
ag105
ag105
ag104
ag104
ag105
ag69
ag108
ag109
asg73
(lp124
g75
ag52
ag76
ag77
ag76
ag52
ag52
ag52
ag75
ag52
ag75
ag75
ag76
ag77
ag77
ag77
ag75
ag76
ag52
ag77
ag52
ag52
ag77
ag77
ag52
ag77
ag52
ag52
ag77
ag76
ag52
ag77
ag77
ag52
ag52
ag52
ag76
ag76
ag77
ag52
ag76
ag77
ag75
ag77
ag52
asg78
(lp125
g75
ag52
ag76
ag52
ag75
ag52
ag76
ag75
ag76
ag52
ag52
ag75
ag76
ag77
ag75
ag77
ag75
ag52
ag52
ag76
ag52
ag52
ag52
ag77
ag76
ag77
ag52
ag52
ag77
ag76
ag52
ag52
ag77
ag76
ag75
ag76
ag76
ag76
ag52
ag52
ag76
ag77
ag75
ag75
ag76
asg80
(lp126
g75
ag52
ag76
ag52
ag75
ag52
ag76
ag75
ag76
ag52
ag52
ag75
ag76
ag77
ag75
ag77
ag75
ag52
ag52
ag76
ag52
ag52
ag52
ag77
ag76
ag77
ag52
ag52
ag77
ag76
ag52
ag52
ag77
ag76
ag75
ag76
ag76
ag76
ag52
ag52
ag76
ag77
ag75
ag75
ag76
asaa(lp127
I4
ag39
(g40
tp128
Rp129
g43
(lp130
g45
ag46
ag46
ag47
ag48
ag48
ag47
ag47
ag45
ag46
ag45
ag45
ag45
ag46
ag45
ag45
ag45
ag45
ag45
ag45
ag45
ag45
ag45
ag45
ag45
ag46
asg49
(lp131
I01
aI00
aI01
aI01
aI00
aI01
aI00
aI00
aI01
aI00
aI00
aI00
aI01
aI00
aI00
aI00
aI00
aI00
aI00
aI00
aI00
aI00
aI00
aI00
aI01
aI01
asg51
I26
sg52
g55
sg56
(lp132
(g58
I0
g24
tp133
ag61
ag64
ag68
ag69
ag106
ag70
ag71
a(g67
F1.5707963267948966
g60
tp134
a(g67
F1.5707963267948966
g54
tp135
a(g67
F1.5707963267948966
g60
tp136
a(g67
F1.5707963267948966
g60
tp137
ag137
ag135
ag136
a(g67
F1.5707963267948966
g60
tp138
ag138
ag137
ag137
ag138
ag137
ag138
ag138
ag137
ag138
ag135
asg73
(lp139
g75
ag76
ag76
ag77
ag52
ag52
ag77
ag75
ag75
ag76
ag75
ag76
ag75
ag77
ag77
ag52
ag52
ag75
ag52
ag75
ag75
ag52
ag52
ag52
ag75
ag76
asg78
(lp140
g75
ag52
ag76
ag77
ag76
ag52
ag52
ag75
ag75
ag77
ag76
ag76
ag75
ag77
ag52
ag52
ag76
ag76
ag52
ag76
ag52
ag52
ag76
ag52
ag75
ag76
asg80
(lp141
g75
ag52
ag76
ag77
ag76
ag52
ag52
ag75
ag75
ag77
ag76
ag76
ag75
ag77
ag52
ag52
ag76
ag76
ag52
ag76
ag52
ag52
ag76
ag52
ag75
ag76
asaa(lp142
I5
ag39
(g40
tp143
Rp144
g43
(lp145
g45
ag47
ag46
ag47
ag47
ag48
ag48
ag47
ag46
asg49
(lp146
I00
aI01
aI01
aI00
aI01
aI00
aI01
aI01
aI01
asg51
I9
sg52
g55
sg56
(lp147
(g58
I0
g24
tp148
ag101
ag66
ag68
ag104
ag69
ag106
ag70
ag72
asg73
(lp149
g77
ag52
ag76
ag52
ag77
ag52
ag52
ag77
ag76
asg78
(lp150
g77
ag77
ag76
ag52
ag77
ag76
ag52
ag77
ag76
asg80
(lp151
g77
ag77
ag76
ag52
ag77
ag76
ag52
ag77
ag76
asaa(lp152
I6
ag39
(g40
tp153
Rp154
g43
(lp155
g45
ag46
ag46
ag47
ag47
ag48
ag47
ag47
ag48
ag47
ag48
ag45
asg49
(lp156
I01
aI00
aI01
aI00
aI01
aI00
aI00
aI01
aI01
aI00
aI00
aI00
asg51
I12
sg52
g87
sg56
(lp157
(g58
I0
g24
tp158
ag61
ag64
ag68
ag105
ag69
ag108
ag105
ag69
ag70
a(g67
I0
g62
tp159
ag90
asg73
(lp160
g75
ag76
ag76
ag77
ag77
ag75
ag76
ag77
ag52
ag76
ag77
ag75
asg78
(lp161
g75
ag52
ag76
ag76
ag77
ag75
ag76
ag77
ag52
ag76
ag77
ag76
asg80
(lp162
g75
ag52
ag76
ag76
ag77
ag75
ag76
ag77
ag52
ag76
ag77
ag76
asaa(lp163
I7
ag39
(g40
tp164
Rp165
g43
(lp166
g45
ag46
ag47
ag45
ag47
ag46
ag47
ag48
ag47
ag46
ag47
ag46
ag46
ag46
ag45
ag46
asg49
(lp167
I01
aI01
aI00
aI00
aI01
aI01
aI01
aI01
aI01
aI00
aI01
aI00
aI00
aI01
aI01
aI01
asg51
I16
sg52
g55
sg56
(lp168
(g58
I0
g24
tp169
ag61
ag68
ag109
ag110
ag66
ag68
ag69
ag70
ag72
a(g58
F1.5707963267948966
g54
tp170
a(g58
F1.5707963267948966
g60
tp171
a(g58
F1.5707963267948966
g60
tp172
ag172
a(g67
F1.5707963267948966
g60
tp173
ag135
asg73
(lp174
g75
ag76
ag77
ag52
ag77
ag76
ag76
ag52
ag77
ag52
ag77
ag52
ag76
ag76
ag75
ag76
asg78
(lp175
g75
ag76
ag75
ag52
ag77
ag76
ag77
ag52
ag77
ag52
ag77
ag52
ag52
ag76
ag75
ag76
asg80
(lp176
g75
ag76
ag75
ag52
ag77
ag76
ag77
ag52
ag77
ag52
ag77
ag52
ag52
ag76
ag75
ag76
asaa(lp177
I8
ag39
(g40
tp178
Rp179
g43
(lp180
g45
ag46
ag47
ag47
ag47
ag48
ag45
ag48
ag47
ag46
ag47
ag47
ag46
ag46
ag45
ag47
ag46
asg49
(lp181
I01
aI01
aI00
aI00
aI01
aI00
aI01
aI01
aI01
aI00
aI00
aI01
aI00
aI01
aI00
aI01
aI01
asg51
I17
sg52
g55
sg56
(lp182
(g58
I0
g24
tp183
ag61
ag68
ag105
ag105
ag69
ag90
a(g67
I0
g62
tp184
ag70
ag72
ag170
a(g58
F1.5707963267948966
g54
tp185
ag171
ag172
ag173
a(g67
F1.5707963267948966
g62
tp186
ag72
asg73
(lp187
g75
ag76
ag76
ag77
ag77
ag77
ag75
ag52
ag77
ag52
ag76
ag77
ag52
ag76
ag77
ag76
ag76
asg78
(lp188
g75
ag76
ag76
ag76
ag77
ag77
ag75
ag52
ag77
ag52
ag76
ag77
ag52
ag76
ag77
ag77
ag76
asg80
(lp189
g75
ag76
ag76
ag76
ag77
ag77
ag75
ag52
ag77
ag52
ag76
ag77
ag52
ag76
ag77
ag77
ag76
asaa(lp190
I9
ag39
(g40
tp191
Rp192
g43
(lp193
g45
ag45
ag45
ag47
ag46
ag47
ag47
ag45
ag47
ag47
ag46
ag46
ag47
ag47
ag45
ag47
ag46
ag47
ag47
ag47
ag47
ag47
ag47
ag48
ag47
ag46
asg49
(lp194
I00
aI00
aI00
aI01
aI01
aI00
aI00
aI00
aI00
aI01
aI00
aI01
aI00
aI00
aI00
aI01
aI01
aI00
aI00
aI00
aI00
aI00
aI01
aI01
aI01
aI01
asg51
I26
sg52
g55
sg56
(lp195
(g58
I0
g24
tp196
ag123
ag123
ag101
ag66
ag68
ag104
ag109
ag110
ag102
ag66
ag64
ag68
ag104
ag109
ag110
ag66
ag68
ag104
ag105
ag105
ag104
ag104
ag69
ag70
ag72
asg73
(lp197
g52
ag76
ag75
ag77
ag76
ag76
ag77
ag75
ag52
ag77
ag52
ag76
ag76
ag75
ag52
ag77
ag76
ag52
ag76
ag76
ag77
ag52
ag77
ag52
ag77
ag76
asg78
(lp198
g52
ag52
ag77
ag77
ag76
ag52
ag75
ag52
ag76
ag77
ag52
ag76
ag52
ag75
ag52
ag77
ag76
ag52
ag76
ag76
ag52
ag52
ag77
ag52
ag77
ag76
asg80
(lp199
g52
ag52
ag77
ag77
ag76
ag52
ag75
ag52
ag76
ag77
ag52
ag76
ag52
ag75
ag52
ag77
ag76
ag52
ag76
ag76
ag52
ag52
ag77
ag52
ag77
ag76
asaatp200
Rp201
aatp202
Rp203
.