ccollections
OrderedDict
p0
((lp1
(lp2
S'index'
p3
aI2723
aa(lp4
S'combination_dict'
p5
ag0
((lp6
(lp7
S'r_to_g_config'
p8
aS'tr'
p9
aa(lp10
S'num_turns'
p11
aI3
aa(lp12
S'start_direction'
p13
acutils_ms
StartDirection
p14
(I3
tp15
Rp16
aa(lp17
S'assistance_type'
p18
acutils_ms
AssistanceType
p19
(I0
tp20
Rp21
aa(lp22
S'start_mode'
p23
aS'y'
p24
aa(lp25
S'ui_given_a_noise'
p26
aF0.1
aa(lp27
S'um_given_ui_noise'
p28
aF0.1
aa(lp29
S'entropy_threshold'
p30
aF0.6
aa(lp31
S'is_assistance'
p32
aI00
aatp33
Rp34
aa(lp35
S'trials'
p36
ag0
((lp37
(lp38
I0
accollections
defaultdict
p39
(c__builtin__
list
p40
tp41
Rp42
S'a'
p43
(lp44
S'mode_l'
p45
aS'mode_r'
p46
aS'move_p'
p47
ag47
ag46
ag47
ag46
ag46
ag47
ag46
ag47
ag46
ag47
ag46
ag47
ag46
ag47
asS'assistance_match_with_ground_truth'
p48
(lp49
I00
aI01
aI00
aI01
aI01
aI01
aI00
aI01
aI00
aI01
aI01
aI01
aI01
aI01
aI00
aI01
aI01
asS'total_steps'
p50
I17
sS'sp'
p51
(S'p4'
p52
F1.5707963267948966
S'y'
p53
tp54
sS's'
p55
(lp56
(S'p0'
p57
I0
g24
tp58
a(g57
I0
S't'
p59
tp60
a(g57
I0
S'x'
p61
tp62
a(g57
I0
g61
tp63
a(S'p1'
p64
I0
g61
tp65
a(g64
I0
g53
tp66
a(S'p2'
p67
I0
g53
tp68
a(g67
I0
g53
tp69
a(g67
I0
g59
tp70
a(g67
I0
g53
tp71
ag70
a(g67
F1.5707963267948966
g59
tp72
a(g67
F1.5707963267948966
g61
tp73
a(S'p3'
p74
F1.5707963267948966
g61
tp75
a(g74
F1.5707963267948966
g53
tp76
a(g74
F1.5707963267948966
g61
tp77
ag76
asS'ui'
p78
(lp79
S'hs'
p80
ag51
ag80
ag51
aS'hp'
p81
ag51
ag81
ag81
ag80
ag81
ag51
ag81
ag51
ag81
ag51
ag81
ag51
asS'um_before'
p82
(lp83
g81
ag81
aS'ss'
p84
ag51
ag81
ag51
ag51
ag81
ag80
ag81
ag51
ag81
ag51
ag81
ag80
ag81
ag51
asS'um_after'
p85
(lp86
g81
ag81
ag84
ag51
ag81
ag51
ag51
ag81
ag80
ag81
ag51
ag81
ag51
ag81
ag80
ag81
ag51
asaa(lp87
I1
ag39
(g40
tp88
Rp89
g43
(lp90
g45
ag47
ag46
ag47
ag46
ag47
ag45
ag47
ag46
ag47
ag46
ag46
ag47
asg48
(lp91
I01
aI01
aI01
aI01
aI01
aI00
aI01
aI01
aI01
aI01
aI00
aI01
aI01
asg50
I13
sg51
g54
sg55
(lp92
(g57
I0
g24
tp93
a(g57
I0
g61
tp94
ag65
ag66
ag68
ag70
a(g67
I0
g61
tp95
a(g67
I0
g59
tp96
ag72
ag73
ag75
a(g74
F1.5707963267948966
g61
tp97
ag76
asg78
(lp98
g80
ag51
ag81
ag51
ag81
ag80
ag80
ag51
ag81
ag51
ag51
ag81
ag51
asg82
(lp99
g80
ag51
ag81
ag51
ag81
ag81
ag80
ag51
ag81
ag51
ag51
ag81
ag51
asg85
(lp100
g80
ag51
ag81
ag51
ag81
ag81
ag80
ag51
ag81
ag51
ag51
ag81
ag51
asaa(lp101
I2
ag39
(g40
tp102
Rp103
g43
(lp104
g45
ag47
ag46
ag47
ag46
ag45
ag47
ag46
ag47
ag46
ag47
ag46
ag47
asg48
(lp105
I01
aI01
aI01
aI01
aI00
aI01
aI01
aI00
aI01
aI01
aI01
aI01
aI01
asg50
I13
sg51
g54
sg55
(lp106
(g57
I0
g24
tp107
ag94
ag65
ag66
ag68
a(g67
I0
g61
tp108
ag96
ag72
a(g67
I0
g59
tp109
ag72
ag73
ag75
ag76
asg78
(lp110
g80
ag51
ag81
ag51
ag51
ag80
ag51
ag81
ag51
ag81
ag51
ag81
ag51
asg82
(lp111
g80
ag51
ag81
ag51
ag80
ag80
ag51
ag84
ag51
ag81
ag51
ag81
ag51
asg85
(lp112
g80
ag51
ag81
ag51
ag80
ag80
ag51
ag84
ag51
ag81
ag51
ag81
ag51
asaa(lp113
I3
ag39
(g40
tp114
Rp115
g43
(lp116
g45
ag45
ag47
ag46
ag45
ag47
ag46
ag46
ag46
ag47
ag46
ag47
ag46
ag47
ag45
ag45
ag47
ag46
ag46
ag47
ag45
ag45
ag47
ag45
ag47
ag46
ag47
asg48
(lp117
I00
aI01
aI01
aI00
aI01
aI01
aI00
aI00
aI01
aI00
aI01
aI01
aI01
aI00
aI00
aI01
aI01
aI00
aI01
aI00
aI00
aI01
aI00
aI01
aI00
aI01
aI01
asg50
I27
sg51
g54
sg55
(lp118
(g57
I0
g24
tp119
a(g57
I0
g53
tp120
ag94
ag65
a(g64
I0
g59
tp121
a(g64
I0
g53
tp122
ag68
ag69
ag69
ag70
ag71
ag70
ag72
ag73
a(g67
F1.5707963267948966
g53
tp123
a(g67
F1.5707963267948966
g53
tp124
a(g67
F1.5707963267948966
g61
tp125
ag75
ag97
ag76
a(g74
F1.5707963267948966
g59
tp126
a(g74
F1.5707963267948966
g59
tp127
a(g74
F1.5707963267948966
g53
tp128
ag126
ag128
ag77
ag76
asg78
(lp129
g84
ag80
ag51
ag80
ag80
ag51
ag51
ag51
ag81
ag51
ag81
ag51
ag81
ag51
ag51
ag80
ag51
ag51
ag81
ag81
ag51
ag80
ag51
ag80
ag80
ag81
ag51
asg82
(lp130
g84
ag80
ag51
ag80
ag80
ag51
ag51
ag51
ag81
ag80
ag81
ag51
ag81
ag81
ag51
ag80
ag51
ag51
ag81
ag81
ag51
ag80
ag81
ag80
ag80
ag81
ag51
asg85
(lp131
g84
ag80
ag51
ag80
ag80
ag51
ag51
ag51
ag81
ag80
ag81
ag51
ag81
ag81
ag51
ag80
ag51
ag51
ag81
ag81
ag51
ag80
ag81
ag80
ag80
ag81
ag51
asaa(lp132
I4
ag39
(g40
tp133
Rp134
g43
(lp135
g45
ag47
ag45
ag47
ag46
ag46
ag45
ag45
ag47
ag45
ag47
ag46
ag47
ag46
ag47
ag46
ag47
ag46
ag47
ag46
ag46
ag47
asg48
(lp136
I01
aI00
aI01
aI01
aI00
aI00
aI00
aI01
aI00
aI01
aI00
aI01
aI01
aI01
aI01
aI01
aI01
aI01
aI01
aI00
aI01
aI01
asg50
I22
sg51
g54
sg55
(lp137
(g57
I0
g24
tp138
ag94
a(g57
I0
g53
tp139
ag94
ag65
a(g64
I0
g61
tp140
ag121
a(g64
I0
g59
tp141
ag122
a(g57
I0
g53
tp142
ag94
a(g57
I0
g59
tp143
ag62
ag65
ag66
ag68
ag70
ag72
ag73
ag75
ag97
ag76
asg78
(lp144
g80
ag80
ag80
ag51
ag81
ag81
ag80
ag80
ag51
ag80
ag51
ag81
ag51
ag81
ag51
ag81
ag51
ag81
ag51
ag81
ag81
ag51
asg82
(lp145
g80
ag81
ag80
ag51
ag51
ag80
ag51
ag80
ag84
ag80
ag80
ag81
ag51
ag81
ag51
ag81
ag51
ag81
ag51
ag51
ag81
ag51
asg85
(lp146
g80
ag81
ag80
ag51
ag51
ag80
ag51
ag80
ag84
ag80
ag80
ag81
ag51
ag81
ag51
ag81
ag51
ag81
ag51
ag51
ag81
ag51
asaa(lp147
I5
ag39
(g40
tp148
Rp149
g43
(lp150
g45
ag47
ag46
ag47
ag46
ag47
ag46
ag46
ag47
ag46
ag47
ag46
ag46
ag46
ag47
ag46
ag46
ag47
ag46
ag47
asg48
(lp151
I01
aI00
aI01
aI01
aI01
aI01
aI00
aI01
aI00
aI01
aI01
aI00
aI00
aI01
aI00
aI00
aI01
aI01
aI01
aI01
asg50
I20
sg51
g54
sg55
(lp152
(g57
I0
g24
tp153
ag94
ag143
ag62
ag65
ag66
ag68
ag69
ag70
ag71
ag70
ag72
a(g67
F1.5707963267948966
g59
tp154
ag154
ag73
a(g67
F1.5707963267948966
g59
tp155
ag154
ag73
ag75
ag76
asg78
(lp156
g80
ag51
ag81
ag51
ag81
ag51
ag81
ag81
ag80
ag81
ag51
ag81
ag51
ag81
ag51
ag81
ag81
ag51
ag81
ag51
asg82
(lp157
g80
ag80
ag81
ag51
ag81
ag51
ag51
ag81
ag80
ag81
ag51
ag51
ag51
ag81
ag80
ag51
ag81
ag51
ag81
ag51
asg85
(lp158
g80
ag80
ag81
ag51
ag81
ag51
ag51
ag81
ag80
ag81
ag51
ag51
ag51
ag81
ag80
ag51
ag81
ag51
ag81
ag51
asaa(lp159
I6
ag39
(g40
tp160
Rp161
g43
(lp162
g45
ag47
ag46
ag47
ag46
ag47
ag46
ag47
ag46
ag47
asg48
(lp163
I01
aI01
aI01
aI01
aI01
aI01
aI01
aI01
aI01
aI01
asg50
I10
sg51
g54
sg55
(lp164
(g57
I0
g24
tp165
ag94
ag65
ag66
ag68
ag70
ag72
ag73
ag75
ag76
asg78
(lp166
g80
ag51
ag81
ag51
ag81
ag51
ag81
ag51
ag81
ag51
asg82
(lp167
g80
ag51
ag81
ag51
ag81
ag51
ag81
ag51
ag81
ag51
asg85
(lp168
g80
ag51
ag81
ag51
ag81
ag51
ag81
ag51
ag81
ag51
asaa(lp169
I7
ag39
(g40
tp170
Rp171
g43
(lp172
g45
ag47
ag46
ag46
ag46
ag47
ag46
ag47
ag46
ag47
ag46
ag47
asg48
(lp173
I01
aI01
aI00
aI00
aI01
aI01
aI01
aI01
aI01
aI01
aI01
aI01
asg50
I12
sg51
g54
sg55
(lp174
(g57
I0
g24
tp175
ag94
ag65
ag140
ag140
ag66
ag68
ag70
ag72
ag73
ag75
ag76
asg78
(lp176
g80
ag51
ag51
ag81
ag81
ag51
ag81
ag51
ag81
ag51
ag81
ag51
asg82
(lp177
g80
ag51
ag51
ag51
ag81
ag51
ag81
ag51
ag81
ag51
ag81
ag51
asg85
(lp178
g80
ag51
ag51
ag51
ag81
ag51
ag81
ag51
ag81
ag51
ag81
ag51
asaa(lp179
I8
ag39
(g40
tp180
Rp181
g43
(lp182
g45
ag45
ag47
ag46
ag47
ag46
ag47
ag46
ag47
ag46
ag46
ag47
ag46
ag46
ag47
asg48
(lp183
I00
aI01
aI01
aI01
aI01
aI01
aI01
aI01
aI00
aI00
aI01
aI01
aI00
aI01
aI01
asg50
I15
sg51
g54
sg55
(lp184
(g57
I0
g24
tp185
a(g57
I0
g53
tp186
ag94
ag65
ag66
ag68
ag70
ag72
ag73
ag155
ag154
ag73
ag75
ag97
ag76
asg78
(lp187
g51
ag80
ag51
ag81
ag51
ag81
ag51
ag81
ag51
ag81
ag81
ag51
ag81
ag81
ag51
asg82
(lp188
g51
ag80
ag51
ag81
ag51
ag81
ag51
ag81
ag80
ag51
ag81
ag51
ag51
ag81
ag51
asg85
(lp189
g51
ag80
ag51
ag81
ag51
ag81
ag51
ag81
ag80
ag51
ag81
ag51
ag51
ag81
ag51
asaa(lp190
I9
ag39
(g40
tp191
Rp192
g43
(lp193
g45
ag47
ag47
ag46
ag47
ag46
ag47
ag45
ag47
ag46
ag47
ag46
ag47
ag46
ag47
ag46
ag47
ag46
ag47
asg48
(lp194
I01
aI00
aI00
aI01
aI01
aI01
aI00
aI01
aI01
aI01
aI00
aI01
aI01
aI01
aI01
aI01
aI01
aI01
aI01
asg50
I19
sg51
g54
sg55
(lp195
(g57
I0
g24
tp196
ag94
ag63
ag143
ag62
ag65
ag66
ag142
ag94
ag65
ag66
a(g64
I0
g61
tp197
ag66
ag68
ag70
ag72
ag73
ag75
ag76
asg78
(lp198
g80
ag51
ag51
ag81
ag51
ag81
ag84
ag80
ag51
ag81
ag80
ag81
ag51
ag81
ag51
ag81
ag51
ag81
ag51
asg82
(lp199
g80
ag84
ag80
ag81
ag51
ag81
ag84
ag80
ag51
ag81
ag80
ag81
ag51
ag81
ag51
ag81
ag51
ag81
ag51
asg85
(lp200
g80
ag84
ag80
ag81
ag51
ag81
ag84
ag80
ag51
ag81
ag80
ag81
ag51
ag81
ag51
ag81
ag51
ag81
ag51
asaatp201
Rp202
aatp203
Rp204
.