ccollections
OrderedDict
p0
((lp1
(lp2
S'combination_dict'
p3
ag0
((lp4
(lp5
S'r_to_g_config'
p6
aS'tr'
p7
aa(lp8
S'num_turns'
p9
aI3
aa(lp10
S'start_direction'
p11
acutils_ms
StartDirection
p12
(I0
tp13
Rp14
aa(lp15
S'assistance_type'
p16
acutils_ms
AssistanceType
p17
(I0
tp18
Rp19
aa(lp20
S'start_mode'
p21
aS'y'
p22
aa(lp23
S'ui_given_a_noise'
p24
aF0.7
aa(lp25
S'um_given_ui_noise'
p26
aF0.3
aa(lp27
S'entropy_threshold'
p28
aF0.8
aatp29
Rp30
aa(lp31
S'data'
p32
accollections
defaultdict
p33
(c__builtin__
list
p34
tp35
Rp36
S'a'
p37
(lp38
S'mode_l'
p39
aS'move_p'
p40
ag39
aS'mode_r'
p41
ag41
ag41
ag41
ag41
ag39
ag39
ag39
ag40
ag39
ag39
ag39
ag40
ag41
ag40
ag39
ag41
ag41
ag40
ag40
ag39
ag39
ag40
ag41
ag41
ag41
ag40
ag41
ag40
ag40
ag41
ag41
ag40
ag39
ag39
ag40
ag41
ag40
ag39
ag40
ag41
ag40
ag40
ag41
ag40
ag41
ag41
ag40
ag39
ag40
ag41
ag40
ag41
ag41
ag41
ag40
ag39
ag39
ag40
ag40
ag41
ag41
ag40
ag41
ag40
ag39
ag41
ag40
ag40
ag39
ag40
ag41
ag40
ag39
ag39
ag39
ag39
ag40
ag41
ag41
ag40
ag41
ag40
ag39
ag40
ag39
ag39
ag41
ag40
ag41
ag39
ag40
ag39
ag41
ag40
ag39
ag39
ag40
ag41
ag39
ag40
ag41
ag41
ag40
ag39
ag39
ag40
ag41
ag41
ag40
ag41
ag40
ag41
ag40
ag41
ag41
ag41
ag40
ag39
ag40
ag41
ag40
ag40
ag40
ag41
ag41
ag40
ag41
ag40
ag39
ag39
ag39
ag39
ag40
ag41
ag40
ag41
ag40
ag39
ag40
ag39
ag41
ag39
ag39
ag40
ag41
ag40
ag39
ag41
ag41
ag41
ag40
ag41
ag39
ag41
ag41
ag41
ag40
ag41
ag39
ag40
ag41
ag39
ag40
ag39
ag41
ag41
ag40
asS'assistance_match_with_ground_truth'
p42
(lp43
I01
aI00
aI00
aI00
aI00
aI00
aI00
aI00
aI00
aI00
aI01
aI00
aI00
aI00
aI01
aI00
aI01
aI00
aI00
aI00
aI01
aI00
aI00
aI00
aI01
aI00
aI00
aI00
aI01
aI00
aI01
aI00
aI00
aI00
aI01
aI00
aI00
aI01
aI01
aI01
aI00
aI01
aI00
aI01
aI00
aI00
aI01
aI00
aI00
aI01
aI00
aI01
aI00
aI01
aI00
aI00
aI00
aI01
aI00
aI00
aI01
aI00
aI00
aI00
aI01
aI00
aI01
aI00
aI00
aI01
aI00
aI00
aI01
aI01
aI01
aI00
aI00
aI00
aI00
aI01
aI00
aI00
aI01
aI00
aI01
aI00
aI01
aI00
aI00
aI00
aI01
aI00
aI00
aI01
aI00
aI00
aI01
aI00
aI00
aI01
aI00
aI00
aI01
aI00
aI00
aI01
aI00
aI00
aI01
aI00
aI00
aI01
aI01
aI01
aI01
aI01
aI01
aI00
aI00
aI01
aI00
aI01
aI00
aI00
aI00
aI00
aI01
aI00
aI01
aI00
aI01
aI00
aI00
aI00
aI00
aI01
aI01
aI01
aI00
aI01
aI00
aI01
aI00
aI00
aI00
aI00
aI01
aI00
aI01
aI00
aI00
aI00
aI00
aI01
aI00
aI00
aI00
aI00
aI00
aI01
aI00
aI00
aI01
aI00
aI00
aI01
aI00
aI00
aI00
aI01
aI01
asS'total_steps'
p44
I171
sS'sp'
p45
(lp46
(S'p0'
p47
I0
S'x'
p48
tp49
a(g47
I0
S'y'
p50
tp51
a(g47
I0
S't'
p52
tp53
a(g47
I0
g52
tp54
a(g47
I0
g52
tp55
ag55
ag54
a(g47
I0
g50
tp56
a(g47
I0
g50
tp57
ag57
ag49
ag51
a(g47
I0
g50
tp58
ag58
ag49
a(g47
I0
g52
tp59
a(g47
I0
g48
tp60
ag51
ag53
ag54
ag60
a(g47
I0
g48
tp61
ag51
ag57
ag49
ag59
ag55
ag54
ag60
ag59
ag60
ag61
ag59
ag55
ag60
ag51
ag57
ag49
a(S'p1'
p62
I0
g48
tp63
a(g62
I0
g50
tp64
a(g47
I0
g50
tp65
ag49
ag59
ag60
ag61
ag59
ag60
ag59
ag54
ag60
ag51
ag49
ag59
ag60
ag59
ag54
ag54
ag60
ag51
ag57
ag49
ag61
ag59
ag55
ag60
ag59
ag60
ag51
ag53
ag60
ag61
ag51
ag49
ag63
ag64
a(g62
I0
g52
tp66
a(g62
I0
g52
tp67
ag67
a(g62
I0
g52
tp68
a(g62
I0
g50
tp69
a(g62
I0
g48
tp70
a(g62
I0
g48
tp71
ag64
ag70
ag64
ag66
ag69
ag66
ag67
a(g62
I0
g48
tp72
ag64
ag70
a(g62
I0
g52
tp73
ag69
ag65
ag53
ag60
ag51
ag58
ag49
ag59
ag56
ag49
ag59
ag55
ag60
ag51
ag58
ag49
ag59
ag54
ag60
ag63
ag64
a(S'p2'
p74
I0
g50
tp75
a(g74
I0
g52
tp76
a(g74
F1.5707963267948966
g52
tp77
a(g74
F1.5707963267948966
g52
tp78
ag78
a(g74
F1.5707963267948966
g48
tp79
a(g74
F1.5707963267948966
g50
tp80
a(g74
F1.5707963267948966
g48
tp81
a(g74
F1.5707963267948966
g52
tp82
a(g74
I0
g52
tp83
a(g74
I0
g52
tp84
ag84
ag77
ag78
ag79
ag82
ag79
ag80
a(g74
F1.5707963267948966
g50
tp85
ag85
ag85
ag81
a(S'p3'
p86
F1.5707963267948966
g48
tp87
a(g86
F1.5707963267948966
g50
tp88
a(g86
F1.5707963267948966
g48
tp89
ag88
a(g86
F1.5707963267948966
g52
tp90
a(g86
F1.5707963267948966
g50
tp91
ag90
a(g86
F1.5707963267948966
g48
tp92
a(g86
F1.5707963267948966
g52
tp93
a(g86
F1.5707963267948966
g52
tp94
ag91
ag89
ag88
ag90
ag92
a(g86
F1.5707963267948966
g48
tp95
a(g86
F1.5707963267948966
g48
tp96
ag88
ag89
ag93
ag92
ag96
ag96
ag88
ag89
ag93
ag91
ag89
ag93
ag91
ag90
ag92
ag96
ag88
a(S'p4'
p97
F1.5707963267948966
g50
tp98
asS's'
p99
(lp100
(g47
I0
g22
tp101
ag49
ag51
ag53
ag54
ag55
ag55
ag54
ag56
ag57
ag57
ag49
ag51
ag58
ag58
ag49
ag59
ag60
ag51
ag53
ag54
ag60
ag61
ag51
ag57
ag49
ag59
ag55
ag54
ag60
ag59
ag60
ag61
ag59
ag55
ag60
ag51
ag57
ag49
ag63
ag64
ag65
ag49
ag59
ag60
ag61
ag59
ag60
ag59
ag54
ag60
ag51
ag49
ag59
ag60
ag59
ag54
ag54
ag60
ag51
ag57
ag49
ag61
ag59
ag55
ag60
ag59
ag60
ag51
ag53
ag60
ag61
ag51
ag49
ag63
ag64
ag66
ag67
ag67
ag68
ag69
ag70
ag71
ag64
ag70
ag64
ag66
ag69
ag66
ag67
ag72
ag64
ag70
ag73
ag69
ag65
ag53
ag60
ag51
ag58
ag49
ag59
ag56
ag49
ag59
ag55
ag60
ag51
ag58
ag49
ag59
ag54
ag60
ag63
ag64
ag75
ag76
ag77
ag78
ag78
ag79
ag80
ag81
ag82
ag83
ag84
ag84
ag77
ag78
ag79
ag82
ag79
ag80
ag85
ag85
ag85
ag81
ag87
ag88
ag89
ag88
ag90
ag91
ag90
ag92
ag93
ag94
ag91
ag89
ag88
ag90
ag92
ag95
ag96
ag88
ag89
ag93
ag92
ag96
ag96
ag88
ag89
ag93
ag91
ag89
ag93
ag91
ag90
ag92
ag96
ag88
asS'ui'
p102
(lp103
g45
aS'hp'
p104
ag45
ag104
ag45
aS'ss'
p105
ag104
ag45
ag45
ag45
ag105
ag45
ag45
ag105
aS'hs'
p106
ag106
ag104
ag45
ag106
ag104
ag104
ag105
ag104
ag45
ag106
ag106
ag104
ag104
ag104
ag106
ag104
ag45
ag45
ag45
ag104
ag106
ag45
ag106
ag45
ag104
ag45
ag106
ag106
ag45
ag45
ag106
ag104
ag45
ag104
ag104
ag45
ag106
ag106
ag104
ag45
ag104
ag104
ag104
ag45
ag45
ag106
ag45
ag106
ag104
ag104
ag106
ag104
ag104
ag104
ag104
ag45
ag45
ag106
ag45
ag104
ag104
ag104
ag105
ag45
ag106
ag106
ag105
ag104
ag45
ag104
ag104
ag105
ag104
ag45
ag104
ag104
ag45
ag106
ag106
ag45
ag104
ag104
ag104
ag105
ag106
ag106
ag106
ag106
ag45
ag45
ag104
ag45
ag105
ag45
ag45
ag105
ag104
ag45
ag104
ag45
ag104
ag45
ag105
ag45
ag104
ag45
ag106
ag106
ag104
ag45
ag104
ag45
ag104
ag104
ag106
ag45
ag45
ag105
ag106
ag104
ag106
ag45
ag104
ag106
ag104
ag104
ag106
ag104
ag106
ag106
ag106
ag45
ag106
ag104
ag45
ag104
ag104
ag45
ag104
ag106
ag106
ag45
ag45
ag104
ag104
ag106
ag106
ag106
ag45
ag106
ag45
ag104
ag104
ag45
ag104
ag45
asS'um_before'
p107
(lp108
g106
ag104
ag104
ag105
ag45
ag45
ag105
ag106
ag45
ag45
ag106
ag104
ag105
ag105
ag106
ag106
ag104
ag104
ag104
ag105
ag104
ag105
ag104
ag45
ag106
ag106
ag45
ag105
ag104
ag106
ag104
ag105
ag106
ag45
ag104
ag104
ag45
ag106
ag45
ag104
ag105
ag106
ag106
ag104
ag105
ag106
ag104
ag106
ag105
ag104
ag104
ag106
ag106
ag104
ag106
ag105
ag105
ag104
ag104
ag45
ag106
ag105
ag106
ag45
ag104
ag106
ag104
ag104
ag104
ag104
ag105
ag104
ag106
ag45
ag104
ag104
ag45
ag45
ag105
ag106
ag106
ag105
ag104
ag106
ag104
ag104
ag106
ag104
ag45
ag104
ag104
ag106
ag106
ag106
ag105
ag104
ag104
ag104
ag105
ag106
ag106
ag106
ag106
ag106
ag45
ag104
ag104
ag105
ag106
ag106
ag105
ag104
ag45
ag104
ag45
ag104
ag45
ag45
ag45
ag104
ag104
ag106
ag106
ag105
ag105
ag105
ag45
ag45
ag104
ag106
ag104
ag104
ag105
ag105
ag105
ag106
ag45
ag104
ag106
ag104
ag104
ag106
ag104
ag104
ag106
ag105
ag106
ag106
ag104
ag104
ag104
ag105
ag45
ag104
ag106
ag106
ag104
ag45
ag45
ag104
ag106
ag106
ag106
ag106
ag106
ag106
ag104
ag104
ag45
ag104
ag45
asS'um_after'
p109
(lp110
g106
ag104
ag104
ag105
ag45
ag45
ag105
ag106
ag45
ag45
ag106
ag104
ag105
ag105
ag106
ag106
ag104
ag104
ag104
ag105
ag104
ag105
ag104
ag45
ag106
ag106
ag45
ag105
ag104
ag106
ag104
ag105
ag106
ag45
ag104
ag104
ag45
ag106
ag45
ag104
ag105
ag106
ag106
ag104
ag105
ag106
ag104
ag106
ag105
ag104
ag104
ag106
ag106
ag104
ag106
ag105
ag105
ag104
ag104
ag45
ag106
ag105
ag106
ag45
ag104
ag106
ag104
ag104
ag104
ag104
ag105
ag104
ag106
ag45
ag104
ag104
ag45
ag45
ag105
ag106
ag106
ag105
ag104
ag106
ag104
ag104
ag106
ag104
ag45
ag104
ag104
ag106
ag106
ag106
ag105
ag104
ag104
ag104
ag105
ag106
ag106
ag106
ag106
ag106
ag45
ag104
ag104
ag105
ag106
ag106
ag105
ag104
ag45
ag104
ag45
ag104
ag45
ag45
ag45
ag104
ag104
ag106
ag106
ag105
ag105
ag105
ag45
ag45
ag104
ag106
ag104
ag104
ag105
ag105
ag105
ag106
ag45
ag104
ag106
ag104
ag104
ag106
ag104
ag104
ag106
ag105
ag106
ag106
ag104
ag104
ag104
ag105
ag45
ag104
ag106
ag106
ag104
ag45
ag45
ag104
ag106
ag106
ag106
ag106
ag106
ag106
ag104
ag104
ag45
ag104
ag45
asaa(lp111
S'index'
p112
aI20684
aatp113
Rp114
.