ccollections
OrderedDict
p0
((lp1
(lp2
S'combination_dict'
p3
ag0
((lp4
(lp5
S'r_to_g_config'
p6
aS'br'
p7
aa(lp8
S'num_turns'
p9
aI3
aa(lp10
S'start_direction'
p11
acutils_ms
StartDirection
p12
(I0
tp13
Rp14
aa(lp15
S'assistance_type'
p16
acutils_ms
AssistanceType
p17
(I1
tp18
Rp19
aa(lp20
S'start_mode'
p21
aS'y'
p22
aa(lp23
S'ui_given_a_noise'
p24
aF0.5
aa(lp25
S'um_given_ui_noise'
p26
aF0.3
aa(lp27
S'entropy_threshold'
p28
aF0.9
aatp29
Rp30
aa(lp31
S'data'
p32
accollections
defaultdict
p33
(c__builtin__
list
p34
tp35
Rp36
S'a'
p37
(lp38
S'mode_l'
p39
aS'mode_r'
p40
aS'move_p'
p41
ag39
ag40
ag39
ag39
ag39
ag41
ag39
ag39
ag40
ag41
ag39
ag40
ag40
ag40
ag40
ag40
ag40
ag40
aS'move_n'
p42
ag39
ag39
ag39
ag40
ag41
ag40
ag42
ag39
ag42
asS'assistance_match_with_ground_truth'
p43
(lp44
I00
aI01
aI01
aI00
aI00
aI00
aI00
aI01
aI01
aI00
aI00
aI01
aI01
aI00
aI00
aI00
aI00
aI00
aI00
aI00
aI01
aI01
aI00
aI00
aI00
aI01
aI01
aI01
aI00
aI01
aI01
asS'total_steps'
p45
I31
sS'sp'
p46
(lp47
(S'p0'
p48
I0
S't'
p49
tp50
a(g48
I0
S'x'
p51
tp52
a(S'p1'
p53
I0
g51
tp54
a(g53
I0
S'y'
p55
tp56
a(g48
I0
g55
tp57
a(g48
I0
g55
tp58
ag58
a(g48
I0
g51
tp59
ag54
a(g53
I0
g51
tp60
ag56
a(g53
I0
g49
tp61
a(g53
F1.5707963267948966
g49
tp62
a(g53
F1.5707963267948966
g51
tp63
a(g53
F1.5707963267948966
g51
tp64
a(g53
F1.5707963267948966
g51
tp65
ag65
ag64
ag64
ag65
a(g53
F1.5707963267948966
g55
tp66
a(S'p2'
p67
F1.5707963267948966
g55
tp68
a(g67
F1.5707963267948966
g55
tp69
a(g67
F1.5707963267948966
g55
tp70
a(g67
F1.5707963267948966
g49
tp71
a(g67
F1.5707963267948966
g51
tp72
a(S'p3'
p73
F1.5707963267948966
g51
tp74
a(g73
F1.5707963267948966
g55
tp75
a(g73
F1.5707963267948966
g49
tp76
a(g73
F1.5707963267948966
g55
tp77
a(S'p4'
p78
F1.5707963267948966
g55
tp79
asS's'
p80
(lp81
(g48
I0
g22
tp82
ag50
ag52
ag54
ag56
ag57
ag58
ag58
ag59
ag54
ag60
ag56
ag61
ag62
ag63
ag64
ag65
ag65
ag64
ag64
ag65
ag66
ag68
ag69
ag70
ag71
ag72
ag74
ag75
ag76
ag77
asS'ui'
p83
(lp84
S'hp'
p85
ag85
ag46
aS'hs'
p86
ag46
ag46
ag86
ag86
ag46
ag86
ag85
ag85
ag46
ag85
aS'ss'
p87
ag85
ag85
ag85
ag87
ag46
ag85
ag87
ag46
ag86
ag85
ag85
ag46
ag85
ag85
ag86
ag87
asS'um_before'
p88
(lp89
g85
ag85
ag46
ag85
ag46
ag46
ag46
ag86
ag46
ag87
ag85
ag85
ag46
ag85
ag87
ag46
ag46
ag87
ag87
ag46
ag85
ag87
ag46
ag87
ag85
ag85
ag46
ag85
ag85
ag86
ag87
asS'um_after'
p90
(lp91
g85
ag85
ag46
ag85
ag46
ag46
ag46
ag86
ag46
ag87
ag85
ag85
ag46
ag85
ag87
ag46
ag46
ag87
ag87
ag46
ag85
ag87
ag46
ag87
ag85
ag85
ag46
ag85
ag85
ag86
ag87
asaa(lp92
S'index'
p93
aI108497
aatp94
Rp95
.