ccollections
OrderedDict
p0
((lp1
(lp2
S'index'
p3
aI5743
aa(lp4
S'combination_dict'
p5
ag0
((lp6
(lp7
S'r_to_g_config'
p8
aS'tl'
p9
aa(lp10
S'num_turns'
p11
aI2
aa(lp12
S'start_direction'
p13
acutils_ms
StartDirection
p14
(I3
tp15
Rp16
aa(lp17
S'assistance_type'
p18
acutils_ms
AssistanceType
p19
(I1
tp20
Rp21
aa(lp22
S'start_mode'
p23
aS'y'
p24
aa(lp25
S'ui_given_a_noise'
p26
aF0.7
aa(lp27
S'um_given_ui_noise'
p28
aF0.5
aa(lp29
S'entropy_threshold'
p30
aF0.6
aa(lp31
S'is_assistance'
p32
aI00
aatp33
Rp34
aa(lp35
S'trials'
p36
ag0
((lp37
(lp38
I0
accollections
defaultdict
p39
(c__builtin__
list
p40
tp41
Rp42
S'a'
p43
(lp44
S'mode_l'
p45
ag45
ag45
ag45
aS'move_n'
p46
aS'mode_r'
p47
ag46
ag47
ag47
ag46
ag46
ag46
ag47
ag47
ag47
ag45
ag45
ag45
ag45
ag46
ag46
ag45
ag46
ag46
ag45
aS'move_p'
p48
ag47
ag48
ag45
ag48
ag47
ag45
ag46
ag45
ag45
ag46
asS'assistance_match_with_ground_truth'
p49
(lp50
I00
aI00
aI00
aI01
aI00
aI01
aI00
aI00
aI01
aI00
aI00
aI00
aI00
aI00
aI00
aI00
aI00
aI00
aI01
aI00
aI00
aI01
aI00
aI01
aI01
aI00
aI01
aI01
aI00
aI00
aI00
aI01
aI00
aI00
aI01
aI01
asS'total_steps'
p51
I36
sS'sp'
p52
(S'p3'
p53
I0
S'x'
p54
tp55
sS's'
p56
(lp57
(S'p0'
p58
I0
g24
tp59
a(g58
I0
S'y'
p60
tp61
ag61
a(g58
I0
g60
tp62
a(g58
I0
g54
tp63
a(g58
I0
S't'
p64
tp65
a(g58
I0
g54
tp66
ag65
a(g58
I0
g64
tp67
ag66
a(g58
I0
g54
tp68
ag68
ag65
a(g58
I0
g64
tp69
ag67
a(g58
I0
g60
tp70
ag61
ag62
ag62
ag63
ag68
a(g58
I0
g60
tp71
ag63
ag68
a(S'p1'
p72
I0
g54
tp73
a(g72
I0
g64
tp74
a(g72
I0
g60
tp75
a(g72
I0
g64
tp76
a(g72
F1.5707963267948966
g64
tp77
a(g72
I0
g64
tp78
ag75
a(S'p2'
p79
I0
g60
tp80
a(g79
I0
g54
tp81
a(g79
I0
g60
tp82
a(g79
I0
g60
tp83
ag81
asS'ui'
p84
(lp85
g52
aS'hp'
p86
ag52
aS'hs'
p87
ag86
ag86
aS'ss'
p88
ag52
ag87
ag52
ag52
ag86
ag52
ag88
ag52
ag87
ag52
ag52
ag87
ag88
ag88
ag87
ag52
ag88
ag52
ag87
ag86
ag52
ag52
ag88
ag52
ag87
ag86
ag86
ag52
ag88
asS'um_before'
p89
(lp90
g88
ag88
ag52
ag87
ag87
ag86
ag87
ag52
ag86
ag52
ag52
ag87
ag88
ag52
ag87
ag88
ag52
ag52
ag87
ag52
ag86
ag87
ag52
ag88
ag87
ag87
ag86
ag52
ag88
ag87
ag52
ag87
ag86
ag88
ag87
ag88
asS'um_after'
p91
(lp92
g88
ag88
ag52
ag87
ag87
ag86
ag87
ag52
ag86
ag52
ag52
ag87
ag88
ag52
ag87
ag88
ag52
ag52
ag87
ag52
ag86
ag87
ag52
ag88
ag87
ag87
ag86
ag52
ag88
ag87
ag52
ag87
ag86
ag88
ag87
ag88
asaa(lp93
I1
ag39
(g40
tp94
Rp95
g43
(lp96
g45
ag45
ag45
ag46
ag47
ag47
ag47
ag46
ag46
ag45
ag48
ag45
ag47
ag48
ag45
ag47
ag45
ag45
ag45
ag47
ag45
ag48
ag47
ag45
ag45
ag47
ag45
ag47
ag45
ag46
ag45
ag47
ag45
ag45
ag45
ag46
ag45
ag48
ag45
ag48
ag47
ag45
ag45
ag46
ag46
ag47
ag46
ag47
ag47
ag45
ag45
ag45
ag46
ag45
ag46
ag46
ag47
ag47
ag46
ag47
ag45
ag46
ag47
ag45
ag46
ag47
ag46
ag47
ag45
ag45
ag45
ag45
ag47
ag46
ag45
ag47
ag46
ag45
ag48
ag45
ag48
ag47
ag47
ag47
ag47
ag47
ag47
ag48
ag45
ag45
ag45
ag45
ag45
ag46
ag47
ag45
ag47
ag47
ag48
ag45
ag48
ag45
ag45
ag46
ag46
ag47
ag45
ag48
ag47
ag48
ag47
ag48
ag45
ag45
ag45
ag46
ag45
ag46
asg49
(lp97
I00
aI00
aI01
aI00
aI00
aI00
aI01
aI00
aI01
aI01
aI00
aI00
aI01
aI01
aI00
aI00
aI00
aI00
aI00
aI00
aI00
aI00
aI00
aI00
aI00
aI00
aI00
aI00
aI01
aI01
aI00
aI00
aI00
aI00
aI01
aI00
aI01
aI00
aI01
aI00
aI00
aI00
aI01
aI00
aI00
aI01
aI00
aI00
aI00
aI00
aI00
aI01
aI00
aI01
aI00
aI00
aI00
aI01
aI00
aI00
aI01
aI00
aI00
aI01
aI00
aI01
aI00
aI00
aI00
aI00
aI00
aI00
aI01
aI00
aI00
aI01
aI01
aI01
aI01
aI01
aI00
aI00
aI00
aI00
aI00
aI00
aI01
aI00
aI00
aI00
aI00
aI00
aI01
aI01
aI00
aI00
aI00
aI01
aI00
aI01
aI00
aI00
aI01
aI00
aI01
aI00
aI01
aI00
aI01
aI00
aI01
aI01
aI00
aI00
aI01
aI00
aI01
aI01
asg51
I118
sg52
(g53
F1.5707963267948966
g54
tp98
sg56
(lp99
(g58
I0
g24
tp100
ag61
ag61
ag63
ag65
ag69
ag69
ag66
ag68
ag73
ag74
a(g72
I0
g54
tp101
a(g72
I0
g60
tp102
ag76
ag77
a(g72
F1.5707963267948966
g54
tp103
a(g72
F1.5707963267948966
g64
tp104
a(g72
F1.5707963267948966
g64
tp105
ag105
ag103
ag104
ag78
ag75
a(g58
I0
g60
tp106
ag61
a(g58
I0
g64
tp107
ag70
ag107
ag70
ag63
ag73
ag102
ag80
ag83
ag83
ag81
a(g72
I0
g54
tp108
ag74
ag101
ag74
ag75
ag106
ag61
ag63
ag68
ag65
ag66
ag65
ag69
ag70
ag62
ag61
ag63
ag71
ag63
ag68
ag65
ag69
ag66
ag65
ag70
ag63
ag65
ag70
ag63
ag65
ag66
ag65
ag70
ag62
ag62
ag62
ag107
ag66
ag71
ag107
ag66
ag73
ag74
ag77
a(g72
F1.5707963267948966
g60
tp109
a(g72
F1.5707963267948966
g54
tp110
a(g72
F1.5707963267948966
g54
tp111
a(g72
F1.5707963267948966
g54
tp112
ag111
ag112
ag112
a(g72
F1.5707963267948966
g60
tp113
a(g58
F1.5707963267948966
g60
tp114
a(g58
F1.5707963267948966
g60
tp115
ag115
ag115
a(g58
F1.5707963267948966
g60
tp116
a(g58
F1.5707963267948966
g54
tp117
a(g72
F1.5707963267948966
g54
tp118
ag104
ag103
ag112
ag113
a(g72
F1.5707963267948966
g64
tp119
ag109
ag114
ag115
ag117
a(g58
F1.5707963267948966
g54
tp120
ag118
ag104
ag109
ag110
ag113
ag110
ag113
a(g79
F1.5707963267948966
g60
tp121
a(g79
F1.5707963267948966
g60
tp122
a(g79
F1.5707963267948966
g60
tp123
a(g79
F1.5707963267948966
g54
tp124
a(g79
F1.5707963267948966
g60
tp125
ag124
asg84
(lp126
g88
ag52
ag87
ag87
ag88
ag88
ag86
ag52
ag88
ag87
ag87
ag87
ag86
ag52
ag87
ag52
ag52
ag52
ag87
ag86
ag52
ag88
ag52
ag52
ag87
ag87
ag87
ag87
ag87
ag88
ag87
ag52
ag87
ag87
ag87
ag52
ag87
ag87
ag87
ag87
ag86
ag87
ag87
ag52
ag87
ag86
ag87
ag86
ag52
ag52
ag87
ag87
ag86
ag52
ag52
ag52
ag86
ag86
ag88
ag52
ag87
ag87
ag87
ag87
ag52
ag88
ag87
ag86
ag52
ag52
ag52
ag87
ag86
ag88
ag86
ag86
ag88
ag52
ag52
ag87
ag87
ag87
ag52
ag86
ag52
ag52
ag86
ag52
ag52
ag52
ag52
ag87
ag87
ag86
ag87
ag87
ag52
ag52
ag87
ag87
ag86
ag52
ag87
ag52
ag52
ag52
ag87
ag87
ag88
ag52
ag86
ag52
ag87
ag52
ag87
ag86
ag52
ag88
asg89
(lp127
g88
ag88
ag87
ag87
ag88
ag88
ag86
ag52
ag88
ag87
ag86
ag86
ag86
ag52
ag86
ag87
ag52
ag52
ag86
ag87
ag88
ag87
ag88
ag88
ag86
ag87
ag86
ag87
ag87
ag88
ag86
ag52
ag88
ag88
ag87
ag52
ag87
ag86
ag87
ag87
ag88
ag88
ag87
ag52
ag87
ag86
ag87
ag88
ag87
ag52
ag88
ag87
ag86
ag87
ag52
ag87
ag88
ag86
ag87
ag87
ag87
ag87
ag87
ag87
ag87
ag86
ag87
ag87
ag52
ag52
ag52
ag86
ag86
ag86
ag86
ag86
ag88
ag87
ag52
ag87
ag87
ag88
ag52
ag88
ag52
ag52
ag86
ag88
ag52
ag52
ag52
ag88
ag87
ag88
ag87
ag86
ag52
ag86
ag86
ag87
ag88
ag52
ag87
ag52
ag88
ag87
ag87
ag87
ag86
ag87
ag86
ag52
ag88
ag52
ag87
ag86
ag87
ag88
asg91
(lp128
g88
ag88
ag87
ag87
ag88
ag88
ag86
ag52
ag88
ag87
ag86
ag86
ag86
ag52
ag86
ag87
ag52
ag52
ag86
ag87
ag88
ag87
ag88
ag88
ag86
ag87
ag86
ag87
ag87
ag88
ag86
ag52
ag88
ag88
ag87
ag52
ag87
ag86
ag87
ag87
ag88
ag88
ag87
ag52
ag87
ag86
ag87
ag88
ag87
ag52
ag88
ag87
ag86
ag87
ag52
ag87
ag88
ag86
ag87
ag87
ag87
ag87
ag87
ag87
ag87
ag86
ag87
ag87
ag52
ag52
ag52
ag86
ag86
ag86
ag86
ag86
ag88
ag87
ag52
ag87
ag87
ag88
ag52
ag88
ag52
ag52
ag86
ag88
ag52
ag52
ag52
ag88
ag87
ag88
ag87
ag86
ag52
ag86
ag86
ag87
ag88
ag52
ag87
ag52
ag88
ag87
ag87
ag87
ag86
ag87
ag86
ag52
ag88
ag52
ag87
ag86
ag87
ag88
asaa(lp129
I2
ag39
(g40
tp130
Rp131
g43
(lp132
g45
ag45
ag45
ag46
ag45
ag45
ag47
ag45
ag45
ag46
ag45
ag48
ag47
ag48
ag45
ag47
ag47
ag47
ag47
ag47
ag48
ag47
ag47
ag47
ag48
ag47
ag47
ag45
ag48
ag45
ag45
ag45
ag46
ag47
ag47
ag47
ag47
ag47
ag47
ag45
ag45
ag45
ag45
ag46
ag45
ag45
ag45
ag45
ag46
ag45
ag45
ag45
ag46
asg49
(lp133
I00
aI00
aI01
aI00
aI00
aI00
aI00
aI00
aI01
aI01
aI01
aI00
aI01
aI01
aI00
aI00
aI00
aI00
aI00
aI01
aI00
aI00
aI00
aI01
aI00
aI00
aI00
aI01
aI01
aI00
aI00
aI01
aI00
aI00
aI00
aI00
aI00
aI00
aI00
aI00
aI00
aI00
aI01
aI00
aI00
aI00
aI00
aI01
aI00
aI00
aI00
aI01
aI01
asg51
I53
sg52
g98
sg56
(lp134
(g58
I0
g24
tp135
ag62
ag61
ag63
ag71
ag62
ag107
ag70
ag61
ag63
ag73
ag74
ag75
ag76
ag77
ag103
ag112
ag112
ag112
ag112
ag113
ag110
ag111
ag111
ag113
ag110
ag112
ag104
ag109
ag121
ag123
ag122
ag124
a(g79
F1.5707963267948966
g64
tp136
a(g79
F1.5707963267948966
g64
tp137
a(g79
F1.5707963267948966
g64
tp138
ag137
ag137
ag137
a(g79
F1.5707963267948966
g60
tp139
ag123
ag122
ag122
ag124
ag125
ag123
ag122
ag123
ag124
ag125
ag122
ag123
ag124
asg84
(lp140
g52
ag87
ag87
ag86
ag52
ag87
ag87
ag87
ag87
ag88
ag52
ag52
ag86
ag52
ag87
ag86
ag52
ag52
ag52
ag86
ag87
ag86
ag88
ag86
ag87
ag52
ag52
ag52
ag52
ag52
ag87
ag87
ag87
ag52
ag87
ag86
ag87
ag86
ag86
ag87
ag52
ag87
ag87
ag87
ag52
ag52
ag52
ag52
ag86
ag52
ag52
ag87
ag88
asg89
(lp141
g52
ag88
ag87
ag86
ag52
ag86
ag87
ag88
ag87
ag88
ag87
ag87
ag86
ag52
ag86
ag52
ag52
ag52
ag52
ag86
ag87
ag88
ag88
ag86
ag87
ag52
ag87
ag87
ag52
ag52
ag88
ag87
ag87
ag88
ag52
ag88
ag88
ag88
ag87
ag52
ag88
ag88
ag87
ag86
ag52
ag88
ag52
ag87
ag86
ag88
ag52
ag87
ag88
asg91
(lp142
g52
ag88
ag87
ag86
ag52
ag86
ag87
ag88
ag87
ag88
ag87
ag87
ag86
ag52
ag86
ag52
ag52
ag52
ag52
ag86
ag87
ag88
ag88
ag86
ag87
ag52
ag87
ag87
ag52
ag52
ag88
ag87
ag87
ag88
ag52
ag88
ag88
ag88
ag87
ag52
ag88
ag88
ag87
ag86
ag52
ag88
ag52
ag87
ag86
ag88
ag52
ag87
ag88
asaa(lp143
I3
ag39
(g40
tp144
Rp145
g43
(lp146
g45
ag46
ag45
ag45
ag48
ag45
ag48
ag45
ag45
ag47
ag46
ag45
ag45
ag47
ag46
ag47
ag48
ag45
ag45
ag46
ag47
ag46
ag47
ag47
ag45
ag46
ag45
ag47
ag45
ag45
ag45
ag46
ag45
ag45
ag46
ag47
ag47
ag47
ag48
ag45
ag47
ag47
ag46
asg49
(lp147
I01
aI01
aI00
aI01
aI01
aI01
aI00
aI00
aI00
aI01
aI00
aI00
aI00
aI01
aI01
aI01
aI00
aI00
aI01
aI00
aI01
aI00
aI00
aI00
aI01
aI00
aI00
aI00
aI00
aI00
aI01
aI00
aI00
aI01
aI01
aI00
aI00
aI01
aI01
aI00
aI00
aI01
aI01
asg51
I43
sg52
g98
sg56
(lp148
(g58
I0
g24
tp149
ag63
ag73
a(g72
I0
g54
tp150
ag74
ag77
ag109
ag114
ag116
a(g58
F1.5707963267948966
g64
tp151
a(g58
F1.5707963267948966
g54
tp152
a(g58
F1.5707963267948966
g60
tp153
ag116
ag151
ag152
ag118
ag113
ag114
ag115
ag117
a(g58
F1.5707963267948966
g64
tp154
ag152
ag154
a(g58
F1.5707963267948966
g64
tp155
a(g58
F1.5707963267948966
g60
tp156
ag117
ag153
ag151
ag156
ag115
ag115
ag117
ag153
ag115
ag117
ag118
ag111
ag112
ag113
ag121
a(g79
F1.5707963267948966
g64
tp157
ag138
a(g79
F1.5707963267948966
g54
tp158
asg84
(lp159
g87
ag88
ag88
ag87
ag52
ag87
ag88
ag87
ag87
ag86
ag88
ag52
ag87
ag87
ag87
ag86
ag87
ag87
ag87
ag52
ag86
ag86
ag87
ag52
ag87
ag88
ag86
ag87
ag87
ag87
ag87
ag86
ag52
ag87
ag52
ag52
ag52
ag86
ag87
ag87
ag88
ag87
ag88
asg89
(lp160
g87
ag88
ag88
ag87
ag52
ag87
ag88
ag88
ag86
ag86
ag86
ag88
ag86
ag86
ag88
ag86
ag88
ag52
ag87
ag87
ag86
ag87
ag52
ag87
ag87
ag86
ag86
ag87
ag52
ag52
ag87
ag86
ag52
ag87
ag88
ag88
ag52
ag86
ag52
ag86
ag52
ag86
ag88
asg91
(lp161
g87
ag88
ag88
ag87
ag52
ag87
ag88
ag88
ag86
ag86
ag86
ag88
ag86
ag86
ag88
ag86
ag88
ag52
ag87
ag87
ag86
ag87
ag52
ag87
ag87
ag86
ag86
ag87
ag52
ag52
ag87
ag86
ag52
ag87
ag88
ag88
ag52
ag86
ag52
ag86
ag52
ag86
ag88
asaa(lp162
I4
ag39
(g40
tp163
Rp164
g43
(lp165
g45
ag45
ag45
ag46
ag45
ag45
ag46
ag47
ag45
ag46
ag45
ag46
ag45
ag45
ag46
ag45
ag46
ag45
ag45
ag45
ag45
ag48
ag47
ag48
ag47
ag45
ag46
ag45
ag47
ag45
ag45
ag47
ag46
ag47
ag47
ag46
asg49
(lp166
I00
aI00
aI01
aI00
aI00
aI01
aI00
aI00
aI01
aI00
aI01
aI00
aI00
aI01
aI00
aI01
aI01
aI00
aI00
aI00
aI01
aI00
aI01
aI00
aI00
aI01
aI00
aI00
aI00
aI00
aI00
aI01
aI00
aI00
aI01
aI01
asg51
I36
sg52
g55
sg56
(lp167
(g58
I0
g24
tp168
ag61
ag62
ag63
ag71
ag61
ag63
ag65
ag70
ag63
ag71
ag63
ag71
ag61
ag63
ag71
ag63
ag73
ag150
a(g72
I0
g54
tp169
ag169
ag74
ag75
ag76
ag75
ag80
ag81
ag82
a(g79
I0
g64
tp170
a(g79
I0
g60
tp171
a(g79
I0
g60
tp172
ag170
a(g79
I0
g54
tp173
a(g79
I0
g64
tp174
a(g79
I0
g64
tp175
ag173
asg84
(lp176
g88
ag52
ag87
ag86
ag52
ag87
ag86
ag86
ag87
ag88
ag52
ag88
ag52
ag87
ag86
ag87
ag86
ag52
ag52
ag87
ag86
ag87
ag86
ag87
ag52
ag87
ag86
ag86
ag52
ag88
ag87
ag86
ag52
ag87
ag86
ag87
asg89
(lp177
g88
ag52
ag87
ag86
ag88
ag87
ag87
ag87
ag87
ag86
ag87
ag86
ag88
ag87
ag86
ag87
ag88
ag88
ag52
ag52
ag87
ag87
ag86
ag87
ag52
ag87
ag86
ag86
ag87
ag52
ag86
ag86
ag87
ag88
ag86
ag88
asg91
(lp178
g88
ag52
ag87
ag86
ag88
ag87
ag87
ag87
ag87
ag86
ag87
ag86
ag88
ag87
ag86
ag87
ag88
ag88
ag52
ag52
ag87
ag87
ag86
ag87
ag52
ag87
ag86
ag86
ag87
ag52
ag86
ag86
ag87
ag88
ag86
ag88
asaa(lp179
I5
ag39
(g40
tp180
Rp181
g43
(lp182
g45
ag46
ag45
ag45
ag45
ag45
ag46
ag45
ag45
ag46
ag46
ag45
ag48
ag48
ag48
ag45
ag45
ag47
ag45
ag47
ag45
ag45
ag46
ag46
ag45
ag48
ag48
ag45
ag47
ag45
ag45
ag45
ag46
ag45
ag45
ag47
ag47
ag45
ag46
ag46
ag47
ag45
ag47
ag46
ag46
ag45
ag48
ag45
ag45
ag45
ag47
ag45
ag46
ag46
ag46
ag45
ag45
ag48
ag47
ag45
ag46
ag45
ag45
ag47
ag46
ag45
ag45
ag47
ag47
ag47
ag47
ag45
ag47
ag45
ag45
ag45
ag46
ag47
ag46
ag46
ag47
ag45
ag45
ag47
ag46
ag45
ag46
ag47
ag46
ag45
ag48
ag45
ag48
ag47
ag45
ag46
ag45
ag45
ag48
ag48
ag48
ag47
ag48
ag47
ag48
ag45
ag48
ag45
ag45
ag45
ag46
ag46
ag47
ag47
ag47
ag47
ag45
ag45
ag45
ag46
ag47
ag47
ag45
ag48
ag47
ag45
ag48
ag47
ag45
ag46
ag45
ag45
ag45
ag47
ag45
ag45
ag47
ag47
ag45
ag45
ag46
ag46
ag46
ag45
ag48
ag45
ag45
ag45
ag48
ag45
ag47
ag47
ag48
ag45
ag46
ag47
ag45
ag48
ag47
ag47
ag48
ag45
ag45
ag46
ag45
ag45
ag45
ag47
ag47
ag47
ag47
ag46
ag47
ag45
ag45
ag48
ag45
ag46
asg49
(lp183
I01
aI00
aI00
aI00
aI00
aI01
aI00
aI00
aI01
aI00
aI01
aI01
aI00
aI00
aI00
aI00
aI00
aI00
aI00
aI00
aI00
aI01
aI00
aI01
aI01
aI00
aI00
aI00
aI00
aI00
aI00
aI01
aI00
aI00
aI00
aI00
aI00
aI01
aI00
aI00
aI00
aI00
aI01
aI00
aI01
aI01
aI00
aI00
aI00
aI00
aI00
aI01
aI00
aI00
aI01
aI00
aI01
aI00
aI00
aI01
aI00
aI00
aI00
aI01
aI00
aI00
aI00
aI00
aI00
aI00
aI00
aI00
aI00
aI00
aI00
aI01
aI00
aI01
aI00
aI00
aI00
aI00
aI00
aI01
aI00
aI01
aI00
aI01
aI01
aI01
aI00
aI01
aI00
aI00
aI01
aI00
aI00
aI01
aI00
aI00
aI00
aI01
aI00
aI01
aI01
aI01
aI00
aI00
aI00
aI01
aI00
aI00
aI00
aI00
aI00
aI00
aI00
aI00
aI01
aI01
aI00
aI00
aI00
aI00
aI00
aI01
aI00
aI00
aI01
aI01
aI00
aI00
aI00
aI00
aI00
aI00
aI00
aI00
aI00
aI01
aI00
aI00
aI01
aI01
aI01
aI00
aI00
aI00
aI01
aI00
aI00
aI01
aI01
aI01
aI00
aI00
aI01
aI00
aI00
aI01
aI00
aI00
aI01
aI00
aI00
aI00
aI00
aI00
aI00
aI00
aI01
aI01
aI00
aI00
aI01
aI01
aI01
aI01
asg51
I178
sg52
g98
sg56
(lp184
(g58
I0
g24
tp185
ag63
ag71
ag62
ag61
ag61
ag63
ag71
ag62
ag63
ag68
ag73
ag74
a(g72
I0
g64
tp186
ag186
ag101
ag150
ag102
ag106
ag107
ag70
ag61
ag63
ag68
ag73
ag74
ag186
ag101
ag102
ag106
ag62
ag62
ag63
ag71
ag61
ag107
ag67
ag70
ag63
ag68
ag65
ag70
ag107
ag66
ag68
ag73
ag74
ag101
ag150
ag150
ag102
ag106
ag63
ag68
ag68
ag73
ag169
ag74
ag75
ag106
ag63
ag71
ag62
ag107
ag66
ag71
ag62
ag107
ag67
ag69
ag69
ag70
ag107
ag70
ag61
ag61
ag63
ag65
ag66
ag68
ag65
ag70
ag61
ag107
ag66
ag71
ag63
ag65
ag66
ag73
ag74
ag101
ag74
ag75
ag80
ag81
ag108
ag150
ag74
ag186
ag186
ag75
ag76
ag75
ag76
ag77
ag109
ag114
ag116
ag116
ag117
ag120
ag154
a(g58
F1.5707963267948966
g64
tp187
ag155
ag155
ag156
ag115
ag115
ag117
ag118
ag112
ag104
ag78
ag75
a(g72
I0
g54
tp188
ag74
ag75
ag106
ag63
ag73
ag169
ag150
ag102
ag106
ag61
ag107
ag69
ag70
ag62
ag63
ag68
ag68
ag73
ag74
ag77
ag105
ag105
ag78
ag77
ag103
ag111
ag113
ag121
ag124
a(g72
F1.5707963267948966
g54
tp189
ag104
ag109
ag110
ag112
ag113
ag114
ag115
ag117
ag153
ag116
ag116
ag151
ag155
ag187
ag187
ag152
ag118
ag104
ag105
ag109
ag121
ag124
asg84
(lp190
g52
ag88
ag52
ag88
ag87
ag87
ag87
ag87
ag87
ag52
ag52
ag87
ag52
ag87
ag88
ag88
ag52
ag87
ag87
ag86
ag87
ag87
ag52
ag88
ag52
ag52
ag86
ag86
ag87
ag88
ag52
ag52
ag86
ag52
ag87
ag52
ag87
ag87
ag88
ag87
ag86
ag86
ag86
ag52
ag88
ag87
ag86
ag88
ag86
ag86
ag87
ag87
ag88
ag88
ag88
ag52
ag87
ag87
ag86
ag87
ag86
ag86
ag87
ag86
ag86
ag52
ag86
ag52
ag87
ag87
ag87
ag87
ag87
ag52
ag87
ag87
ag87
ag87
ag88
ag52
ag86
ag52
ag87
ag86
ag86
ag87
ag52
ag87
ag88
ag87
ag86
ag87
ag87
ag52
ag52
ag52
ag87
ag87
ag88
ag88
ag87
ag86
ag52
ag88
ag52
ag87
ag52
ag52
ag88
ag52
ag52
ag87
ag86
ag52
ag52
ag52
ag52
ag52
ag52
ag88
ag52
ag87
ag87
ag52
ag87
ag87
ag52
ag86
ag87
ag88
ag52
ag52
ag87
ag52
ag87
ag87
ag87
ag87
ag52
ag87
ag52
ag52
ag52
ag87
ag52
ag52
ag52
ag52
ag52
ag52
ag52
ag86
ag52
ag52
ag52
ag87
ag87
ag86
ag52
ag86
ag87
ag52
ag87
ag88
ag88
ag87
ag87
ag86
ag86
ag52
ag87
ag88
ag52
ag52
ag52
ag52
ag52
ag52
asg89
(lp191
g87
ag86
ag52
ag88
ag88
ag87
ag86
ag52
ag87
ag52
ag88
ag87
ag88
ag88
ag86
ag88
ag86
ag88
ag86
ag87
ag88
ag87
ag52
ag88
ag87
ag88
ag86
ag86
ag88
ag52
ag52
ag87
ag86
ag88
ag86
ag52
ag87
ag87
ag52
ag87
ag87
ag86
ag86
ag52
ag88
ag87
ag86
ag88
ag88
ag86
ag88
ag87
ag52
ag52
ag88
ag52
ag87
ag87
ag88
ag87
ag86
ag52
ag86
ag86
ag86
ag52
ag86
ag52
ag88
ag88
ag87
ag86
ag87
ag88
ag88
ag87
ag87
ag86
ag52
ag87
ag87
ag88
ag86
ag86
ag86
ag87
ag87
ag86
ag88
ag87
ag86
ag87
ag87
ag52
ag87
ag52
ag88
ag87
ag88
ag88
ag87
ag86
ag87
ag86
ag52
ag87
ag88
ag88
ag88
ag87
ag52
ag87
ag88
ag52
ag52
ag87
ag52
ag52
ag87
ag88
ag52
ag87
ag88
ag87
ag87
ag87
ag87
ag88
ag87
ag88
ag52
ag88
ag86
ag88
ag88
ag86
ag88
ag87
ag52
ag87
ag52
ag52
ag88
ag87
ag52
ag52
ag52
ag88
ag52
ag86
ag88
ag86
ag52
ag87
ag52
ag87
ag87
ag87
ag52
ag86
ag88
ag52
ag87
ag86
ag88
ag88
ag86
ag52
ag88
ag88
ag86
ag88
ag87
ag52
ag87
ag52
ag87
ag88
asg91
(lp192
g87
ag86
ag52
ag88
ag88
ag87
ag86
ag52
ag87
ag52
ag88
ag87
ag88
ag88
ag86
ag88
ag86
ag88
ag86
ag87
ag88
ag87
ag52
ag88
ag87
ag88
ag86
ag86
ag88
ag52
ag52
ag87
ag86
ag88
ag86
ag52
ag87
ag87
ag52
ag87
ag87
ag86
ag86
ag52
ag88
ag87
ag86
ag88
ag88
ag86
ag88
ag87
ag52
ag52
ag88
ag52
ag87
ag87
ag88
ag87
ag86
ag52
ag86
ag86
ag86
ag52
ag86
ag52
ag88
ag88
ag87
ag86
ag87
ag88
ag88
ag87
ag87
ag86
ag52
ag87
ag87
ag88
ag86
ag86
ag86
ag87
ag87
ag86
ag88
ag87
ag86
ag87
ag87
ag52
ag87
ag52
ag88
ag87
ag88
ag88
ag87
ag86
ag87
ag86
ag52
ag87
ag88
ag88
ag88
ag87
ag52
ag87
ag88
ag52
ag52
ag87
ag52
ag52
ag87
ag88
ag52
ag87
ag88
ag87
ag87
ag87
ag87
ag88
ag87
ag88
ag52
ag88
ag86
ag88
ag88
ag86
ag88
ag87
ag52
ag87
ag52
ag52
ag88
ag87
ag52
ag52
ag52
ag88
ag52
ag86
ag88
ag86
ag52
ag87
ag52
ag87
ag87
ag87
ag52
ag86
ag88
ag52
ag87
ag86
ag88
ag88
ag86
ag52
ag88
ag88
ag86
ag88
ag87
ag52
ag87
ag52
ag87
ag88
asaa(lp193
I6
ag39
(g40
tp194
Rp195
g43
(lp196
g45
ag45
ag46
ag46
ag45
ag45
ag48
ag45
ag47
ag45
ag45
ag48
ag45
ag45
ag47
ag45
ag46
ag45
ag48
ag45
ag45
ag48
ag47
ag45
ag48
ag47
ag48
ag45
ag45
ag48
ag45
ag48
ag45
ag48
ag47
ag47
ag45
ag45
ag48
ag47
ag47
ag48
ag45
ag45
ag45
ag45
ag45
ag45
ag47
ag47
ag47
ag45
ag46
ag47
ag46
ag46
ag45
ag45
ag46
ag47
ag47
ag45
ag48
ag47
ag45
ag47
ag45
ag46
ag45
ag48
ag47
ag45
ag46
asg49
(lp197
I00
aI01
aI00
aI01
aI00
aI01
aI00
aI00
aI00
aI00
aI01
aI00
aI00
aI00
aI00
aI01
aI01
aI01
aI00
aI00
aI01
aI00
aI00
aI01
aI00
aI01
aI00
aI00
aI01
aI00
aI01
aI01
aI01
aI00
aI00
aI00
aI00
aI01
aI00
aI00
aI01
aI00
aI00
aI00
aI00
aI00
aI00
aI00
aI00
aI00
aI00
aI01
aI00
aI01
aI00
aI00
aI00
aI01
aI01
aI00
aI00
aI00
aI00
aI00
aI00
aI00
aI01
aI00
aI01
aI00
aI00
aI01
aI01
asg51
I73
sg52
g55
sg56
(lp198
(g58
I0
g24
tp199
ag62
ag63
ag68
ag73
ag169
ag74
ag101
ag102
ag188
ag150
ag74
ag101
ag150
ag102
ag106
ag63
ag73
ag74
ag101
ag169
ag74
ag75
ag188
ag74
ag75
ag76
ag101
ag169
ag74
ag101
ag74
ag77
ag109
ag110
ag111
ag104
ag105
ag109
ag110
ag112
ag113
ag114
ag115
ag115
ag116
ag116
ag115
ag151
ag187
ag187
ag156
ag117
ag154
ag152
ag120
ag153
ag115
ag117
ag118
ag112
ag104
ag78
ag75
ag80
ag170
ag171
ag81
ag108
ag74
ag75
ag80
ag81
asg84
(lp200
g52
ag87
ag88
ag88
ag52
ag87
ag87
ag87
ag52
ag88
ag87
ag86
ag86
ag86
ag86
ag87
ag87
ag87
ag52
ag52
ag87
ag52
ag52
ag87
ag52
ag87
ag86
ag52
ag87
ag88
ag87
ag52
ag87
ag52
ag86
ag86
ag52
ag87
ag52
ag52
ag52
ag52
ag87
ag52
ag86
ag52
ag52
ag87
ag52
ag87
ag87
ag87
ag87
ag52
ag52
ag86
ag52
ag87
ag87
ag52
ag52
ag87
ag88
ag52
ag86
ag87
ag87
ag87
ag87
ag87
ag52
ag87
ag52
asg89
(lp201
g52
ag87
ag52
ag88
ag52
ag87
ag86
ag86
ag87
ag88
ag87
ag86
ag88
ag86
ag88
ag87
ag88
ag87
ag86
ag52
ag87
ag87
ag87
ag87
ag87
ag86
ag86
ag52
ag87
ag86
ag87
ag52
ag87
ag87
ag88
ag87
ag52
ag87
ag87
ag52
ag86
ag88
ag52
ag52
ag88
ag88
ag52
ag86
ag88
ag88
ag87
ag87
ag87
ag86
ag52
ag86
ag52
ag87
ag88
ag52
ag87
ag88
ag87
ag52
ag86
ag87
ag87
ag52
ag87
ag87
ag52
ag87
ag88
asg91
(lp202
g52
ag87
ag52
ag88
ag52
ag87
ag86
ag86
ag87
ag88
ag87
ag86
ag88
ag86
ag88
ag87
ag88
ag87
ag86
ag52
ag87
ag87
ag87
ag87
ag87
ag86
ag86
ag52
ag87
ag86
ag87
ag52
ag87
ag87
ag88
ag87
ag52
ag87
ag87
ag52
ag86
ag88
ag52
ag52
ag88
ag88
ag52
ag86
ag88
ag88
ag87
ag87
ag87
ag86
ag52
ag86
ag52
ag87
ag88
ag52
ag87
ag88
ag87
ag52
ag86
ag87
ag87
ag52
ag87
ag87
ag52
ag87
ag88
asaa(lp203
I7
ag39
(g40
tp204
Rp205
g43
(lp206
g45
ag46
ag45
ag47
ag48
ag47
ag45
ag48
ag45
ag48
ag47
ag48
ag47
ag45
ag46
ag45
ag48
ag48
ag47
ag45
ag47
ag47
ag47
ag45
ag46
ag45
ag46
ag47
ag46
ag45
ag48
ag45
ag48
ag45
ag47
ag45
ag47
ag46
ag47
ag47
ag45
ag46
ag46
ag47
ag47
ag46
ag45
ag45
ag47
ag47
ag47
ag47
ag45
ag46
ag47
ag47
ag47
ag47
ag48
ag47
ag47
ag45
ag48
ag45
ag48
ag47
ag45
ag47
ag45
ag47
ag47
ag47
ag45
ag46
ag46
ag47
ag47
ag47
ag46
ag47
ag45
ag47
ag47
ag45
ag47
ag47
ag47
ag47
ag47
ag47
ag45
ag45
ag46
ag45
ag46
ag45
ag45
ag45
ag47
ag46
ag45
ag47
ag47
ag47
ag45
ag45
ag47
ag47
ag46
ag46
ag46
ag46
ag45
ag45
ag48
ag48
ag47
ag45
ag45
ag45
ag48
ag47
ag48
ag45
ag45
ag48
ag48
ag47
ag45
ag46
ag45
ag46
ag47
ag46
asg49
(lp207
I01
aI01
aI00
aI01
aI00
aI00
aI01
aI01
aI00
aI00
aI01
aI00
aI00
aI01
aI01
aI01
aI00
aI00
aI00
aI00
aI00
aI00
aI00
aI01
aI00
aI01
aI00
aI01
aI01
aI01
aI01
aI01
aI00
aI00
aI00
aI00
aI01
aI00
aI00
aI00
aI01
aI00
aI00
aI00
aI01
aI00
aI00
aI00
aI00
aI00
aI00
aI00
aI01
aI01
aI00
aI00
aI00
aI01
aI00
aI00
aI00
aI00
aI00
aI01
aI00
aI00
aI00
aI00
aI00
aI00
aI00
aI00
aI01
aI00
aI00
aI00
aI00
aI01
aI00
aI00
aI00
aI00
aI00
aI00
aI00
aI00
aI00
aI00
aI00
aI00
aI00
aI01
aI00
aI01
aI00
aI00
aI00
aI00
aI01
aI00
aI00
aI00
aI00
aI00
aI00
aI00
aI00
aI01
aI00
aI00
aI00
aI01
aI00
aI01
aI00
aI00
aI00
aI00
aI00
aI01
aI00
aI01
aI00
aI00
aI01
aI00
aI00
aI00
aI01
aI00
aI01
aI00
aI01
aI01
asg51
I134
sg52
g55
sg56
(lp208
(g58
I0
g24
tp209
ag63
ag73
ag102
ag76
ag75
ag188
ag74
ag77
ag78
ag75
ag76
ag75
ag106
ag63
ag73
ag74
ag186
ag75
ag106
ag107
ag69
ag69
ag70
ag63
ag71
ag63
ag65
ag66
ag73
ag74
ag77
ag109
ag114
ag151
ag156
ag151
ag152
ag154
ag187
ag156
ag117
ag120
ag154
ag187
ag152
ag153
ag115
ag151
ag187
ag187
ag187
ag156
ag117
ag118
ag111
ag111
ag112
ag113
ag110
ag111
ag104
ag78
ag101
ag74
ag75
ag188
ag102
ag106
ag107
ag69
ag67
ag70
ag63
ag68
ag65
ag69
ag67
ag66
ag65
ag70
ag107
ag67
ag70
ag107
ag69
ag69
ag69
ag67
ag69
ag70
ag61
ag63
ag71
ag63
ag71
ag61
ag61
ag107
ag66
ag71
ag107
ag69
ag69
ag70
ag62
ag107
ag67
ag66
ag68
ag68
ag68
ag73
ag150
ag74
ag186
ag75
ag188
ag169
ag169
ag74
ag75
ag76
ag101
ag150
ag74
ag186
ag75
ag80
ag81
ag82
ag81
ag174
ag173
asg84
(lp210
g87
ag87
ag87
ag86
ag52
ag87
ag87
ag52
ag87
ag87
ag86
ag52
ag52
ag87
ag88
ag87
ag52
ag87
ag87
ag87
ag52
ag86
ag52
ag87
ag88
ag87
ag86
ag86
ag88
ag87
ag52
ag87
ag88
ag87
ag86
ag52
ag86
ag87
ag52
ag86
ag52
ag88
ag52
ag86
ag87
ag86
ag87
ag87
ag86
ag52
ag86
ag52
ag87
ag88
ag52
ag86
ag52
ag86
ag87
ag86
ag87
ag87
ag86
ag87
ag52
ag52
ag86
ag52
ag86
ag86
ag52
ag86
ag87
ag52
ag87
ag87
ag52
ag86
ag52
ag87
ag87
ag52
ag86
ag87
ag86
ag52
ag52
ag52
ag86
ag87
ag87
ag87
ag88
ag87
ag86
ag52
ag52
ag87
ag86
ag86
ag52
ag88
ag86
ag86
ag88
ag87
ag86
ag86
ag88
ag88
ag88
ag86
ag52
ag87
ag86
ag88
ag86
ag52
ag52
ag87
ag86
ag86
ag87
ag52
ag52
ag52
ag87
ag52
ag87
ag87
ag87
ag87
ag86
ag52
asg89
(lp211
g87
ag88
ag86
ag86
ag87
ag87
ag87
ag52
ag88
ag87
ag86
ag87
ag88
ag87
ag88
ag87
ag88
ag87
ag88
ag86
ag88
ag88
ag87
ag87
ag86
ag87
ag87
ag86
ag88
ag87
ag52
ag87
ag88
ag86
ag87
ag86
ag86
ag87
ag88
ag87
ag87
ag52
ag87
ag88
ag86
ag86
ag52
ag86
ag88
ag88
ag88
ag87
ag87
ag88
ag88
ag88
ag52
ag86
ag87
ag88
ag87
ag88
ag86
ag87
ag87
ag87
ag86
ag88
ag86
ag88
ag52
ag87
ag87
ag52
ag87
ag88
ag52
ag86
ag87
ag87
ag86
ag52
ag87
ag86
ag88
ag88
ag88
ag52
ag88
ag87
ag88
ag87
ag86
ag87
ag86
ag88
ag88
ag86
ag86
ag86
ag86
ag88
ag88
ag87
ag52
ag86
ag52
ag86
ag52
ag52
ag52
ag88
ag88
ag87
ag88
ag87
ag87
ag52
ag52
ag87
ag87
ag86
ag86
ag88
ag87
ag88
ag87
ag52
ag87
ag86
ag87
ag87
ag86
ag88
asg91
(lp212
g87
ag88
ag86
ag86
ag87
ag87
ag87
ag52
ag88
ag87
ag86
ag87
ag88
ag87
ag88
ag87
ag88
ag87
ag88
ag86
ag88
ag88
ag87
ag87
ag86
ag87
ag87
ag86
ag88
ag87
ag52
ag87
ag88
ag86
ag87
ag86
ag86
ag87
ag88
ag87
ag87
ag52
ag87
ag88
ag86
ag86
ag52
ag86
ag88
ag88
ag88
ag87
ag87
ag88
ag88
ag88
ag52
ag86
ag87
ag88
ag87
ag88
ag86
ag87
ag87
ag87
ag86
ag88
ag86
ag88
ag52
ag87
ag87
ag52
ag87
ag88
ag52
ag86
ag87
ag87
ag86
ag52
ag87
ag86
ag88
ag88
ag88
ag52
ag88
ag87
ag88
ag87
ag86
ag87
ag86
ag88
ag88
ag86
ag86
ag86
ag86
ag88
ag88
ag87
ag52
ag86
ag52
ag86
ag52
ag52
ag52
ag88
ag88
ag87
ag88
ag87
ag87
ag52
ag52
ag87
ag87
ag86
ag86
ag88
ag87
ag88
ag87
ag52
ag87
ag86
ag87
ag87
ag86
ag88
asaa(lp213
I8
ag39
(g40
tp214
Rp215
g43
(lp216
g45
ag46
ag45
ag48
ag48
ag48
ag45
ag48
ag45
ag46
ag47
ag46
asg49
(lp217
I01
aI01
aI01
aI00
aI00
aI01
aI01
aI01
aI01
aI00
aI01
aI01
asg51
I12
sg52
g98
sg56
(lp218
(g58
I0
g24
tp219
ag63
ag73
ag74
ag186
ag186
ag77
ag109
ag121
ag124
ag136
ag158
asg84
(lp220
g52
ag88
ag52
ag88
ag86
ag52
ag87
ag52
ag87
ag87
ag86
ag52
asg89
(lp221
g87
ag88
ag87
ag88
ag88
ag52
ag87
ag52
ag87
ag87
ag86
ag88
asg91
(lp222
g87
ag88
ag87
ag88
ag88
ag52
ag87
ag52
ag87
ag87
ag86
ag88
asaa(lp223
I9
ag39
(g40
tp224
Rp225
g43
(lp226
g45
ag45
ag46
ag47
ag46
ag45
ag46
ag45
ag48
ag45
ag48
ag47
ag45
ag45
ag48
ag47
ag45
ag46
ag45
ag45
ag48
ag45
ag48
ag45
ag46
ag47
ag48
ag45
ag47
ag46
ag45
ag45
ag45
ag45
ag46
ag47
ag45
ag45
ag46
ag47
ag48
ag45
ag45
ag46
ag47
ag46
ag47
ag45
ag48
ag45
ag45
ag48
ag45
ag45
ag45
ag45
ag48
ag48
ag45
ag48
ag45
ag47
ag45
ag46
asg49
(lp227
I00
aI01
aI00
aI01
aI00
aI01
aI01
aI01
aI00
aI01
aI00
aI00
aI00
aI01
aI00
aI00
aI01
aI01
aI00
aI01
aI01
aI01
aI00
aI01
aI01
aI01
aI00
aI00
aI01
aI00
aI00
aI00
aI00
aI01
aI00
aI00
aI00
aI01
aI01
aI01
aI00
aI00
aI01
aI00
aI01
aI01
aI00
aI00
aI00
aI00
aI01
aI00
aI00
aI00
aI00
aI01
aI00
aI01
aI01
aI01
aI00
aI00
aI01
aI01
asg51
I64
sg52
g98
sg56
(lp228
(g58
I0
g24
tp229
ag61
ag63
ag65
ag66
ag71
ag63
ag73
ag74
ag101
ag74
ag75
ag188
ag150
ag74
ag75
ag106
ag63
ag73
ag150
ag74
ag77
ag109
ag114
ag117
ag118
ag113
ag114
ag151
ag152
ag153
ag116
ag115
ag115
ag117
ag154
ag156
ag116
ag117
ag118
ag113
ag114
ag116
ag117
ag154
ag152
ag118
ag104
ag78
ag101
ag150
ag74
ag101
ag150
ag150
ag150
ag74
ag186
ag77
ag109
ag121
ag157
ag139
ag124
asg84
(lp230
g52
ag87
ag87
ag86
ag86
ag52
ag87
ag87
ag86
ag87
ag87
ag52
ag87
ag87
ag52
ag52
ag87
ag88
ag88
ag87
ag52
ag86
ag86
ag87
ag88
ag86
ag52
ag87
ag86
ag86
ag88
ag52
ag52
ag87
ag52
ag52
ag86
ag87
ag86
ag86
ag88
ag88
ag87
ag88
ag52
ag88
ag87
ag87
ag87
ag87
ag87
ag87
ag88
ag87
ag87
ag87
ag52
ag52
ag87
ag88
ag87
ag86
ag86
ag88
asg89
(lp231
g88
ag87
ag87
ag86
ag86
ag87
ag88
ag87
ag86
ag87
ag87
ag87
ag88
ag87
ag87
ag88
ag87
ag88
ag88
ag87
ag52
ag87
ag88
ag87
ag88
ag86
ag88
ag86
ag86
ag86
ag88
ag52
ag52
ag87
ag87
ag87
ag88
ag87
ag88
ag86
ag88
ag88
ag87
ag87
ag86
ag88
ag87
ag88
ag86
ag88
ag87
ag86
ag88
ag88
ag88
ag87
ag88
ag52
ag87
ag52
ag86
ag87
ag87
ag88
asg91
(lp232
g88
ag87
ag87
ag86
ag86
ag87
ag88
ag87
ag86
ag87
ag87
ag87
ag88
ag87
ag87
ag88
ag87
ag88
ag88
ag87
ag52
ag87
ag88
ag87
ag88
ag86
ag88
ag86
ag86
ag86
ag88
ag52
ag52
ag87
ag87
ag87
ag88
ag87
ag88
ag86
ag88
ag88
ag87
ag87
ag86
ag88
ag87
ag88
ag86
ag88
ag87
ag86
ag88
ag88
ag88
ag87
ag88
ag52
ag87
ag52
ag86
ag87
ag87
ag88
asaatp233
Rp234
aatp235
Rp236
.