ccollections
OrderedDict
p0
((lp1
(lp2
S'index'
p3
aI11216
aa(lp4
S'combination_dict'
p5
ag0
((lp6
(lp7
S'r_to_g_config'
p8
aS'bl'
p9
aa(lp10
S'num_turns'
p11
aI3
aa(lp12
S'start_direction'
p13
acutils_ms
StartDirection
p14
(I1
tp15
Rp16
aa(lp17
S'assistance_type'
p18
acutils_ms
AssistanceType
p19
(I1
tp20
Rp21
aa(lp22
S'start_mode'
p23
aS'x'
p24
aa(lp25
S'ui_given_a_noise'
p26
aF0.1
aa(lp27
S'um_given_ui_noise'
p28
aF0.3
aa(lp29
S'entropy_threshold'
p30
aF0.8
aa(lp31
S'is_assistance'
p32
aI01
aatp33
Rp34
aa(lp35
S'trials'
p36
ag0
((lp37
(lp38
I0
accollections
defaultdict
p39
(c__builtin__
list
p40
tp41
Rp42
S'a'
p43
(lp44
S'mode_r'
p45
aS'move_n'
p46
aS'mode_l'
p47
ag46
ag47
aS'move_p'
p48
ag47
ag46
ag47
ag46
asS'assistance_match_with_ground_truth'
p49
(lp50
I01
aI01
aI01
aI01
aI01
aI01
aI01
aI01
aI01
aI01
asS'total_steps'
p51
I10
sS'sp'
p52
(S'p4'
p53
F1.5707963267948966
S'x'
p54
tp55
sS's'
p56
(lp57
(S'p0'
p58
I0
g24
tp59
a(g58
I0
S'y'
p60
tp61
a(S'p1'
p62
I0
g60
tp63
a(g62
I0
g54
tp64
a(S'p2'
p65
I0
g54
tp66
a(g65
I0
S't'
p67
tp68
a(g65
F1.5707963267948966
g67
tp69
a(g65
F1.5707963267948966
g60
tp70
a(S'p3'
p71
F1.5707963267948966
g60
tp72
a(g71
F1.5707963267948966
g54
tp73
asS'ui'
p74
(lp75
S'hp'
p76
aS'ss'
p77
aS'hs'
p78
ag77
ag77
ag52
ag78
ag77
ag78
ag77
asS'um_before'
p79
(lp80
g76
ag77
ag78
ag77
ag77
ag52
ag78
ag77
ag78
ag52
asS'um_after'
p81
(lp82
g76
ag77
ag78
ag77
ag78
ag52
ag78
ag77
ag78
ag77
asaa(lp83
I1
ag39
(g40
tp84
Rp85
g43
(lp86
g45
ag46
ag47
ag47
ag46
ag47
ag48
ag47
ag46
ag47
ag46
asg49
(lp87
I01
aI01
aI00
aI01
aI01
aI01
aI01
aI01
aI01
aI01
aI01
asg51
I11
sg52
g55
sg56
(lp88
(g58
I0
g24
tp89
ag61
ag63
a(g62
I0
g60
tp90
ag64
ag66
ag68
ag69
ag70
ag72
ag73
asg74
(lp91
g76
ag77
ag76
ag78
ag52
ag78
ag77
ag78
ag77
ag78
ag77
asg79
(lp92
g76
ag77
ag52
ag78
ag52
ag78
ag77
ag78
ag77
ag78
ag77
asg81
(lp93
g76
ag77
ag52
ag78
ag77
ag78
ag52
ag78
ag77
ag78
ag77
asaa(lp94
I2
ag39
(g40
tp95
Rp96
g43
(lp97
g45
ag46
ag47
ag46
ag47
ag48
ag47
ag46
ag47
ag46
asg49
(lp98
I01
aI01
aI01
aI01
aI01
aI01
aI01
aI01
aI01
aI01
asg51
I10
sg52
g55
sg56
(lp99
(g58
I0
g24
tp100
ag61
ag63
ag64
ag66
ag68
ag69
ag70
ag72
ag73
asg74
(lp101
g76
ag77
ag78
ag77
ag78
ag52
ag77
ag77
ag78
ag77
asg79
(lp102
g77
ag77
ag78
ag77
ag78
ag52
ag77
ag77
ag76
ag77
asg81
(lp103
g76
ag77
ag78
ag77
ag78
ag52
ag78
ag77
ag78
ag77
asaa(lp104
I3
ag39
(g40
tp105
Rp106
g43
(lp107
g45
ag46
ag47
ag46
ag47
ag48
ag47
ag46
ag47
ag46
asg49
(lp108
I01
aI01
aI01
aI01
aI01
aI01
aI01
aI01
aI01
aI01
asg51
I10
sg52
g55
sg56
(lp109
(g58
I0
g24
tp110
ag61
ag63
ag64
ag66
ag68
ag69
ag70
ag72
ag73
asg74
(lp111
g52
ag77
ag76
ag77
ag78
ag52
ag78
ag77
ag78
ag77
asg79
(lp112
g52
ag52
ag76
ag78
ag78
ag52
ag78
ag52
ag78
ag76
asg81
(lp113
g76
ag77
ag78
ag77
ag78
ag52
ag78
ag77
ag78
ag77
asaa(lp114
I4
ag39
(g40
tp115
Rp116
g43
(lp117
g45
ag46
ag47
ag46
ag47
ag48
ag47
ag46
ag47
ag46
asg49
(lp118
I01
aI01
aI01
aI01
aI01
aI01
aI01
aI01
aI01
aI01
asg51
I10
sg52
g55
sg56
(lp119
(g58
I0
g24
tp120
ag61
ag63
ag64
ag66
ag68
ag69
ag70
ag72
ag73
asg74
(lp121
g77
ag76
ag78
ag77
ag78
ag52
ag78
ag77
ag78
ag77
asg79
(lp122
g77
ag76
ag78
ag77
ag78
ag52
ag78
ag77
ag78
ag78
asg81
(lp123
g76
ag77
ag78
ag77
ag78
ag52
ag78
ag77
ag78
ag77
asaa(lp124
I5
ag39
(g40
tp125
Rp126
g43
(lp127
g45
ag47
ag46
ag47
ag46
ag47
ag48
ag47
ag46
ag47
ag46
asg49
(lp128
I00
aI01
aI01
aI01
aI01
aI01
aI01
aI01
aI01
aI01
aI01
asg51
I11
sg52
g55
sg56
(lp129
(g58
I0
g24
tp130
a(g58
I0
g67
tp131
a(g58
I0
g60
tp132
ag63
ag64
ag66
ag68
ag69
ag70
ag72
ag73
asg74
(lp133
g76
ag78
ag52
ag77
ag77
ag78
ag77
ag77
ag77
ag77
ag78
asg79
(lp134
g78
ag78
ag52
ag77
ag77
ag78
ag52
ag77
ag77
ag77
ag78
asg81
(lp135
g78
ag78
ag77
ag78
ag77
ag78
ag52
ag78
ag77
ag78
ag77
asaa(lp136
I6
ag39
(g40
tp137
Rp138
g43
(lp139
g45
ag46
ag47
ag46
ag47
ag47
ag48
ag47
ag46
ag47
ag46
asg49
(lp140
I01
aI01
aI01
aI01
aI00
aI01
aI01
aI01
aI01
aI01
aI01
asg51
I11
sg52
g55
sg56
(lp141
(g58
I0
g24
tp142
ag61
ag63
ag64
ag66
a(g65
I0
g54
tp143
ag68
ag69
ag70
ag72
ag73
asg74
(lp144
g76
ag77
ag78
ag52
ag52
ag78
ag52
ag78
ag77
ag78
ag77
asg79
(lp145
g76
ag77
ag78
ag78
ag52
ag78
ag52
ag78
ag78
ag78
ag77
asg81
(lp146
g76
ag77
ag78
ag77
ag52
ag78
ag52
ag78
ag77
ag78
ag77
asaa(lp147
I7
ag39
(g40
tp148
Rp149
g43
(lp150
g45
ag46
ag47
ag46
ag47
ag48
ag47
ag46
ag47
ag46
asg49
(lp151
I01
aI01
aI01
aI01
aI01
aI01
aI01
aI01
aI01
aI01
asg51
I10
sg52
g55
sg56
(lp152
(g58
I0
g24
tp153
ag61
ag63
ag64
ag66
ag68
ag69
ag70
ag72
ag73
asg74
(lp154
g76
ag77
ag78
ag77
ag78
ag52
ag78
ag77
ag78
ag77
asg79
(lp155
g52
ag77
ag78
ag77
ag78
ag77
ag78
ag77
ag78
ag77
asg81
(lp156
g76
ag77
ag78
ag77
ag78
ag52
ag78
ag77
ag78
ag77
asaa(lp157
I8
ag39
(g40
tp158
Rp159
g43
(lp160
g45
ag46
ag47
ag46
ag47
ag48
ag47
ag46
ag47
ag46
asg49
(lp161
I01
aI01
aI01
aI01
aI01
aI01
aI01
aI01
aI01
aI01
asg51
I10
sg52
g55
sg56
(lp162
(g58
I0
g24
tp163
ag61
ag63
ag64
ag66
ag68
ag69
ag70
ag72
ag73
asg74
(lp164
g76
ag77
ag78
ag77
ag78
ag52
ag78
ag77
ag78
ag77
asg79
(lp165
g76
ag76
ag78
ag77
ag78
ag52
ag78
ag77
ag78
ag77
asg81
(lp166
g76
ag77
ag78
ag77
ag78
ag52
ag78
ag77
ag78
ag77
asaa(lp167
I9
ag39
(g40
tp168
Rp169
g43
(lp170
g45
ag46
ag47
ag46
ag47
ag48
ag47
ag46
ag47
ag46
asg49
(lp171
I01
aI01
aI01
aI01
aI01
aI01
aI01
aI01
aI01
aI01
asg51
I10
sg52
g55
sg56
(lp172
(g58
I0
g24
tp173
ag61
ag63
ag64
ag66
ag68
ag69
ag70
ag72
ag73
asg74
(lp174
g76
ag77
ag78
ag77
ag76
ag76
ag78
ag77
ag78
ag77
asg79
(lp175
g52
ag77
ag78
ag77
ag76
ag76
ag78
ag78
ag78
ag78
asg81
(lp176
g76
ag77
ag78
ag77
ag78
ag52
ag78
ag77
ag78
ag77
asaatp177
Rp178
aatp179
Rp180
.