ccollections
OrderedDict
p0
((lp1
(lp2
S'index'
p3
aI4015
aa(lp4
S'combination_dict'
p5
ag0
((lp6
(lp7
S'r_to_g_config'
p8
aS'tl'
p9
aa(lp10
S'num_turns'
p11
aI1
aa(lp12
S'start_direction'
p13
acutils_ms
StartDirection
p14
(I3
tp15
Rp16
aa(lp17
S'assistance_type'
p18
acutils_ms
AssistanceType
p19
(I0
tp20
Rp21
aa(lp22
S'start_mode'
p23
aS'y'
p24
aa(lp25
S'ui_given_a_noise'
p26
aF0.1
aa(lp27
S'um_given_ui_noise'
p28
aF0.3
aa(lp29
S'entropy_threshold'
p30
aF0.7
aa(lp31
S'is_assistance'
p32
aI00
aatp33
Rp34
aa(lp35
S'trials'
p36
ag0
((lp37
(lp38
I0
accollections
defaultdict
p39
(c__builtin__
list
p40
tp41
Rp42
S'a'
p43
(lp44
S'mode_l'
p45
aS'move_n'
p46
ag45
aS'move_p'
p47
ag45
aS'mode_r'
p48
ag47
asS'assistance_match_with_ground_truth'
p49
(lp50
I01
aI01
aI01
aI01
aI00
aI01
aI01
asS'total_steps'
p51
I7
sS'sp'
p52
(S'p2'
p53
F1.5707963267948966
S'y'
p54
tp55
sS's'
p56
(lp57
(S'p0'
p58
I0
g24
tp59
a(g58
I0
S'x'
p60
tp61
a(S'p1'
p62
I0
g60
tp63
a(g62
I0
S't'
p64
tp65
a(g62
F1.5707963267948966
g64
tp66
a(g62
F1.5707963267948966
g60
tp67
a(g62
F1.5707963267948966
g54
tp68
asS'ui'
p69
(lp70
S'hs'
p71
aS'ss'
p72
ag71
ag52
ag71
aS'hp'
p73
ag52
asS'um_before'
p74
(lp75
g71
ag72
ag71
ag52
ag73
ag73
ag52
asS'um_after'
p76
(lp77
g71
ag72
ag71
ag52
ag73
ag73
ag52
asaa(lp78
I1
ag39
(g40
tp79
Rp80
g43
(lp81
g45
ag46
ag45
ag48
ag48
ag48
ag46
ag48
ag46
ag45
ag47
ag47
ag48
ag47
ag45
ag45
ag45
ag47
ag45
ag48
ag45
ag46
ag45
ag45
ag48
ag45
ag47
ag45
ag47
ag45
ag46
ag48
ag47
asg49
(lp82
I01
aI00
aI00
aI00
aI00
aI01
aI00
aI01
aI01
aI01
aI00
aI00
aI01
aI00
aI00
aI00
aI01
aI00
aI00
aI00
aI01
aI01
aI00
aI00
aI00
aI01
aI01
aI01
aI00
aI01
aI01
aI01
aI01
asg51
I33
sg52
g55
sg56
(lp83
(g58
I0
g24
tp84
ag61
a(g58
I0
g54
tp85
a(g58
I0
g64
tp86
a(g58
I0
g64
tp87
ag87
a(g58
I0
g60
tp88
a(g58
I0
g64
tp89
ag88
ag63
ag65
a(g62
I0
g64
tp90
a(g62
I0
g54
tp91
a(g62
I0
g64
tp92
a(g62
I0
g60
tp93
a(g62
I0
g60
tp94
a(g62
I0
g60
tp95
ag65
ag93
a(g62
I0
g54
tp96
a(g58
I0
g54
tp97
ag61
ag63
ag95
ag96
a(g62
I0
g60
tp98
ag65
ag66
a(g62
F1.5707963267948966
g54
tp99
a(g58
F1.5707963267948966
g54
tp100
a(g58
F1.5707963267948966
g60
tp101
a(g62
F1.5707963267948966
g60
tp102
ag68
asg69
(lp103
g71
ag71
ag71
ag52
ag73
ag73
ag71
ag73
ag72
ag71
ag52
ag71
ag73
ag52
ag71
ag71
ag71
ag71
ag73
ag73
ag71
ag72
ag71
ag71
ag71
ag71
ag52
ag71
ag72
ag71
ag72
ag73
ag52
asg74
(lp104
g71
ag73
ag73
ag72
ag72
ag73
ag71
ag73
ag72
ag71
ag72
ag71
ag73
ag73
ag52
ag72
ag71
ag73
ag73
ag72
ag71
ag72
ag72
ag73
ag71
ag71
ag52
ag71
ag72
ag71
ag72
ag73
ag52
asg76
(lp105
g71
ag73
ag73
ag72
ag72
ag73
ag71
ag73
ag72
ag71
ag72
ag71
ag73
ag73
ag52
ag72
ag71
ag73
ag73
ag72
ag71
ag72
ag72
ag73
ag71
ag71
ag52
ag71
ag72
ag71
ag72
ag73
ag52
asaa(lp106
I2
ag39
(g40
tp107
Rp108
g43
(lp109
g45
ag46
ag45
ag47
ag45
ag47
asg49
(lp110
I01
aI01
aI01
aI01
aI01
aI01
asg51
I6
sg52
g55
sg56
(lp111
(g58
I0
g24
tp112
ag61
ag63
ag65
ag66
ag99
asg69
(lp113
g71
ag72
ag71
ag52
ag71
ag52
asg74
(lp114
g71
ag72
ag71
ag52
ag71
ag52
asg76
(lp115
g71
ag72
ag71
ag52
ag71
ag52
asaa(lp116
I3
ag39
(g40
tp117
Rp118
g43
(lp119
g45
ag45
ag46
ag48
ag48
ag46
ag45
ag47
ag47
ag45
ag47
asg49
(lp120
I00
aI01
aI00
aI00
aI01
aI01
aI01
aI00
aI01
aI01
aI01
asg51
I11
sg52
g55
sg56
(lp121
(g58
I0
g24
tp122
a(g58
I0
g54
tp123
ag61
ag89
a(g58
I0
g64
tp124
ag88
ag63
ag65
ag90
ag66
ag99
asg69
(lp125
g73
ag71
ag71
ag73
ag73
ag72
ag71
ag52
ag52
ag71
ag52
asg74
(lp126
g52
ag71
ag71
ag52
ag73
ag72
ag71
ag72
ag52
ag71
ag52
asg76
(lp127
g52
ag71
ag71
ag52
ag73
ag72
ag71
ag72
ag52
ag71
ag52
asaa(lp128
I4
ag39
(g40
tp129
Rp130
g43
(lp131
g45
ag46
ag45
ag48
ag47
ag47
ag45
ag47
ag48
asg49
(lp132
I01
aI01
aI00
aI01
aI00
aI01
aI00
aI00
aI00
asg51
I9
sg52
(g53
I0
g54
tp133
sg56
(lp134
(g58
I0
g24
tp135
ag61
ag63
ag96
ag92
ag90
ag66
a(g62
I0
g64
tp136
ag91
asg69
(lp137
g71
ag72
ag71
ag73
ag72
ag52
ag71
ag71
ag73
asg74
(lp138
g71
ag72
ag73
ag73
ag72
ag52
ag72
ag71
ag52
asg76
(lp139
g71
ag72
ag73
ag73
ag72
ag52
ag72
ag71
ag52
asaa(lp140
I5
ag39
(g40
tp141
Rp142
g43
(lp143
g45
ag48
ag48
ag46
ag45
ag46
ag45
ag46
ag45
ag45
ag48
asg49
(lp144
I00
aI00
aI01
aI00
aI01
aI00
aI01
aI01
aI00
aI00
aI00
asg51
I11
sg52
g133
sg56
(lp145
(g58
I0
g24
tp146
ag86
ag87
ag88
ag85
ag61
ag85
ag61
ag63
ag95
ag96
asg69
(lp147
g73
ag73
ag73
ag72
ag71
ag72
ag71
ag72
ag71
ag73
ag52
asg74
(lp148
g73
ag72
ag73
ag73
ag71
ag73
ag71
ag72
ag72
ag73
ag52
asg76
(lp149
g73
ag72
ag73
ag73
ag71
ag73
ag71
ag72
ag72
ag73
ag52
asaa(lp150
I6
ag39
(g40
tp151
Rp152
g43
(lp153
g45
ag45
ag46
ag48
ag48
ag46
ag45
ag46
ag45
ag47
ag45
ag45
ag48
ag48
ag48
ag47
asg49
(lp154
I00
aI01
aI00
aI00
aI01
aI00
aI01
aI01
aI01
aI01
aI00
aI00
aI00
aI00
aI01
aI01
asg51
I16
sg52
g55
sg56
(lp155
(g58
I0
g24
tp156
a(g58
I0
g54
tp157
ag61
ag89
ag87
ag88
ag85
ag61
ag63
ag65
ag66
a(g62
F1.5707963267948966
g64
tp158
ag67
a(g62
F1.5707963267948966
g60
tp159
ag159
ag68
asg69
(lp160
g71
ag71
ag72
ag71
ag73
ag72
ag71
ag72
ag71
ag52
ag71
ag71
ag73
ag72
ag73
ag52
asg74
(lp161
g72
ag71
ag71
ag72
ag73
ag73
ag71
ag72
ag71
ag52
ag52
ag73
ag72
ag72
ag73
ag52
asg76
(lp162
g72
ag71
ag71
ag72
ag73
ag73
ag71
ag72
ag71
ag52
ag52
ag73
ag72
ag72
ag73
ag52
asaa(lp163
I7
ag39
(g40
tp164
Rp165
g43
(lp166
g45
ag45
ag45
ag46
ag45
ag47
ag45
ag47
ag45
ag46
ag48
ag47
ag45
ag46
ag48
ag48
ag47
asg49
(lp167
I00
aI00
aI01
aI01
aI01
aI01
aI01
aI00
aI01
aI01
aI01
aI00
aI01
aI01
aI00
aI01
aI01
asg51
I17
sg52
g55
sg56
(lp168
(g58
I0
g24
tp169
ag157
ag157
ag61
ag63
ag65
ag66
ag99
ag100
ag101
ag102
ag68
ag100
ag101
ag102
a(g62
F1.5707963267948966
g60
tp170
ag68
asg69
(lp171
g71
ag71
ag71
ag72
ag71
ag52
ag71
ag52
ag71
ag72
ag73
ag72
ag71
ag72
ag73
ag73
ag52
asg74
(lp172
g72
ag72
ag71
ag72
ag71
ag52
ag71
ag72
ag71
ag72
ag73
ag72
ag71
ag72
ag52
ag73
ag52
asg76
(lp173
g72
ag72
ag71
ag72
ag71
ag52
ag71
ag72
ag71
ag72
ag73
ag72
ag71
ag72
ag52
ag73
ag52
asaa(lp174
I8
ag39
(g40
tp175
Rp176
g43
(lp177
g45
ag48
ag48
ag48
ag48
ag46
ag45
ag47
ag45
ag48
ag47
ag47
ag45
ag48
ag47
asg49
(lp178
I00
aI00
aI00
aI00
aI01
aI01
aI01
aI00
aI00
aI01
aI00
aI01
aI00
aI01
aI01
asg51
I15
sg52
g55
sg56
(lp179
(g58
I0
g24
tp180
ag86
ag124
ag124
ag87
ag88
ag63
ag65
ag93
ag96
ag92
ag90
ag66
ag67
ag68
asg69
(lp181
g71
ag52
ag52
ag73
ag73
ag72
ag71
ag52
ag71
ag73
ag72
ag52
ag73
ag73
ag52
asg74
(lp182
g73
ag52
ag52
ag72
ag73
ag72
ag71
ag73
ag73
ag73
ag72
ag52
ag73
ag73
ag52
asg76
(lp183
g73
ag52
ag52
ag72
ag73
ag72
ag71
ag73
ag73
ag73
ag72
ag52
ag73
ag73
ag52
asaa(lp184
I9
ag39
(g40
tp185
Rp186
g43
(lp187
g45
ag46
ag45
ag47
ag45
ag48
ag45
ag47
ag45
ag45
ag48
ag47
ag48
ag47
ag45
ag47
ag45
ag48
ag47
ag45
ag46
ag45
ag46
ag45
ag46
ag48
ag48
ag47
asg49
(lp188
I01
aI01
aI01
aI01
aI00
aI00
aI00
aI00
aI00
aI00
aI01
aI00
aI01
aI01
aI01
aI00
aI00
aI01
aI00
aI01
aI00
aI01
aI00
aI01
aI01
aI00
aI01
aI01
asg51
I28
sg52
g55
sg56
(lp189
(g58
I0
g24
tp190
ag61
ag63
ag65
ag66
ag67
a(g62
F1.5707963267948966
g64
tp191
ag136
ag93
ag95
ag96
ag92
ag91
ag92
ag66
ag99
a(g62
F1.5707963267948966
g64
tp192
ag67
ag68
ag100
ag101
a(g58
F1.5707963267948966
g54
tp193
ag101
ag193
ag101
ag102
ag159
ag68
asg69
(lp194
g71
ag72
ag71
ag52
ag73
ag71
ag71
ag73
ag71
ag71
ag73
ag71
ag73
ag52
ag71
ag52
ag71
ag73
ag72
ag73
ag73
ag71
ag72
ag71
ag72
ag72
ag73
ag52
asg74
(lp195
g71
ag72
ag71
ag52
ag73
ag71
ag72
ag73
ag72
ag73
ag73
ag71
ag73
ag52
ag71
ag73
ag73
ag73
ag72
ag71
ag73
ag71
ag73
ag71
ag72
ag72
ag73
ag52
asg76
(lp196
g71
ag72
ag71
ag52
ag73
ag71
ag72
ag73
ag72
ag73
ag73
ag71
ag73
ag52
ag71
ag73
ag73
ag73
ag72
ag71
ag73
ag71
ag73
ag71
ag72
ag72
ag73
ag52
asaatp197
Rp198
aatp199
Rp200
.