ccollections
OrderedDict
p0
((lp1
(lp2
S'combination_dict'
p3
ag0
((lp4
(lp5
S'r_to_g_config'
p6
aS'tl'
p7
aa(lp8
S'num_turns'
p9
aI3
aa(lp10
S'start_direction'
p11
acutils_ms
StartDirection
p12
(I1
tp13
Rp14
aa(lp15
S'assistance_type'
p16
acutils_ms
AssistanceType
p17
(I2
tp18
Rp19
aa(lp20
S'start_mode'
p21
aS'x'
p22
aa(lp23
S'ui_given_a_noise'
p24
aF0.7
aa(lp25
S'um_given_ui_noise'
p26
aF0.5
aa(lp27
S'entropy_threshold'
p28
aF0.5
aatp29
Rp30
aa(lp31
S'data'
p32
accollections
defaultdict
p33
(c__builtin__
list
p34
tp35
Rp36
S'a'
p37
(lp38
S'mode_r'
p39
aS'move_p'
p40
ag40
ag40
ag40
aS'mode_l'
p41
ag40
ag41
ag39
aS'move_n'
p42
ag41
ag41
ag39
ag41
ag41
ag39
ag42
ag39
ag41
ag42
ag41
ag39
ag40
ag39
ag41
ag42
ag41
ag40
ag40
ag40
ag40
ag39
ag40
ag39
ag41
ag41
ag41
ag41
ag40
ag41
ag40
ag41
ag41
ag42
asS'assistance_match_with_ground_truth'
p43
(lp44
I01
aI00
aI00
aI00
aI00
aI01
aI01
aI00
aI01
aI01
aI00
aI00
aI00
aI00
aI00
aI01
aI00
aI00
aI01
aI01
aI00
aI01
aI00
aI00
aI01
aI00
aI01
aI00
aI00
aI00
aI00
aI01
aI00
aI00
aI00
aI00
aI00
aI01
aI01
aI01
aI01
aI00
aI01
aI01
asS'total_steps'
p45
I44
sS'sp'
p46
(lp47
(S'p0'
p48
I0
S'y'
p49
tp50
a(g48
I0
g49
tp51
ag51
ag51
a(g48
I0
S't'
p52
tp53
a(g48
I0
g49
tp54
a(S'p1'
p55
I0
g49
tp56
a(g55
I0
g52
tp57
a(g55
I0
S'x'
p58
tp59
a(S'p2'
p60
I0
g58
tp61
a(g60
I0
g58
tp62
a(g60
I0
g49
tp63
a(g55
I0
g49
tp64
a(g55
I0
g49
tp65
ag57
ag59
a(g55
I0
g52
tp66
a(g55
I0
g49
tp67
a(g55
I0
g58
tp68
ag61
ag63
a(g60
I0
g52
tp69
a(g60
I0
g49
tp70
a(S'p3'
p71
I0
g49
tp72
a(g71
I0
g58
tp73
a(g60
I0
g58
tp74
a(g60
I0
g52
tp75
a(g60
I0
g52
tp76
ag76
ag76
ag70
ag69
ag70
a(g60
I0
g58
tp77
a(g60
I0
g58
tp78
ag78
ag78
ag75
a(g60
F1.5707963267948966
g52
tp79
a(g60
F1.5707963267948966
g49
tp80
a(g71
F1.5707963267948966
g49
tp81
a(g71
F1.5707963267948966
g49
tp82
a(g71
F1.5707963267948966
g58
tp83
a(S'p4'
p84
F1.5707963267948966
g58
tp85
asS's'
p86
(lp87
(g48
I0
g22
tp88
ag50
ag51
ag51
ag51
ag53
ag54
ag56
ag57
ag59
ag61
ag62
ag63
ag64
ag65
ag57
ag59
ag66
ag67
ag68
ag61
ag63
ag69
ag70
ag72
ag73
ag74
ag75
ag76
ag76
ag76
ag70
ag69
ag70
ag77
ag78
ag78
ag78
ag75
ag79
ag80
ag81
ag82
ag83
asS'ui'
p89
(lp90
S'hp'
p91
ag46
aS'ss'
p92
ag46
ag46
aS'hs'
p93
ag46
ag93
ag91
ag92
ag93
ag46
ag92
ag46
ag46
ag91
ag93
ag91
ag93
ag92
ag93
ag91
ag46
ag93
ag93
ag93
ag93
ag93
ag92
ag92
ag91
ag91
ag46
ag92
ag46
ag46
ag93
ag93
ag46
ag93
ag46
ag93
ag93
ag92
asS'um_before'
p94
(lp95
g91
ag92
ag92
ag92
ag91
ag93
ag46
ag91
ag91
ag92
ag92
ag91
ag92
ag46
ag91
ag91
ag93
ag93
ag93
ag92
ag91
ag91
ag93
ag46
ag93
ag46
ag93
ag92
ag92
ag92
ag93
ag91
ag93
ag93
ag46
ag46
ag46
ag93
ag46
ag93
ag46
ag92
ag93
ag92
asS'um_after'
p96
(lp97
g91
ag92
ag92
ag92
ag91
ag93
ag46
ag91
ag91
ag92
ag92
ag91
ag92
ag46
ag91
ag91
ag93
ag93
ag93
ag92
ag91
ag91
ag93
ag46
ag93
ag46
ag93
ag92
ag92
ag92
ag93
ag91
ag93
ag93
ag46
ag46
ag46
ag93
ag46
ag93
ag46
ag92
ag93
ag92
asaa(lp98
S'index'
p99
aI56709
aatp100
Rp101
.