ccollections
OrderedDict
p0
((lp1
(lp2
S'index'
p3
aI7281
aa(lp4
S'combination_dict'
p5
ag0
((lp6
(lp7
S'r_to_g_config'
p8
aS'tl'
p9
aa(lp10
S'num_turns'
p11
aI3
aa(lp12
S'start_direction'
p13
acutils_ms
StartDirection
p14
(I1
tp15
Rp16
aa(lp17
S'assistance_type'
p18
acutils_ms
AssistanceType
p19
(I0
tp20
Rp21
aa(lp22
S'start_mode'
p23
aS't'
p24
aa(lp25
S'ui_given_a_noise'
p26
aF0.5
aa(lp27
S'um_given_ui_noise'
p28
aF0.1
aa(lp29
S'entropy_threshold'
p30
aF0.5
aa(lp31
S'is_assistance'
p32
aI00
aatp33
Rp34
aa(lp35
S'trials'
p36
ag0
((lp37
(lp38
I0
accollections
defaultdict
p39
(c__builtin__
list
p40
tp41
Rp42
S'a'
p43
(lp44
S'mode_l'
p45
aS'move_p'
p46
aS'mode_r'
p47
ag45
ag45
ag46
ag45
ag47
ag47
ag47
aS'move_n'
p48
ag45
ag45
ag45
ag47
ag48
ag45
ag47
ag46
ag45
ag46
ag45
ag45
ag45
ag48
asS'assistance_match_with_ground_truth'
p49
(lp50
I01
aI00
aI00
aI00
aI01
aI01
aI00
aI00
aI00
aI01
aI00
aI00
aI00
aI00
aI01
aI01
aI00
aI01
aI01
aI01
aI01
aI00
aI00
aI01
aI01
asS'total_steps'
p51
I25
sS'sp'
p52
(S'p4'
p53
F1.5707963267948966
S'x'
p54
tp55
sS's'
p56
(lp57
(S'p0'
p58
I0
g24
tp59
a(g58
I0
S'y'
p60
tp61
a(g58
I0
g54
tp62
a(g58
I0
S't'
p63
tp64
a(g58
I0
g63
tp65
ag61
a(S'p1'
p66
I0
g60
tp67
a(g66
I0
g63
tp68
a(g66
I0
g63
tp69
ag69
a(g66
I0
g54
tp70
a(g66
I0
g60
tp71
a(g66
I0
g60
tp72
ag72
ag68
ag70
a(S'p2'
p73
I0
g54
tp74
a(g73
I0
g60
tp75
a(g73
I0
g63
tp76
a(g73
F1.5707963267948966
g63
tp77
a(g73
F1.5707963267948966
g60
tp78
a(S'p3'
p79
F1.5707963267948966
g60
tp80
a(g79
F1.5707963267948966
g60
tp81
a(g79
F1.5707963267948966
g60
tp82
a(g79
F1.5707963267948966
g54
tp83
asS'ui'
p84
(lp85
S'hs'
p86
ag86
ag86
ag52
ag86
ag52
aS'hp'
p87
ag52
ag52
ag87
ag87
ag52
ag86
ag87
ag87
ag52
ag87
ag87
ag52
ag86
ag52
ag52
ag86
ag86
aS'ss'
p88
asS'um_before'
p89
(lp90
g86
ag86
ag86
ag52
ag86
ag52
ag87
ag52
ag52
ag87
ag87
ag52
ag52
ag87
ag87
ag88
ag87
ag87
ag52
ag86
ag52
ag52
ag88
ag86
ag88
asS'um_after'
p91
(lp92
g86
ag86
ag86
ag52
ag86
ag52
ag87
ag52
ag52
ag87
ag87
ag52
ag52
ag87
ag87
ag88
ag87
ag87
ag52
ag86
ag52
ag52
ag88
ag86
ag88
asaa(lp93
I1
ag39
(g40
tp94
Rp95
g43
(lp96
g45
ag45
ag47
ag47
ag46
ag45
ag47
ag47
ag48
ag47
ag48
ag45
ag47
ag46
ag45
ag46
ag45
ag46
ag45
ag45
ag47
ag48
ag47
ag46
ag45
ag47
ag47
ag48
ag45
ag45
ag48
ag45
ag45
ag45
ag48
asg49
(lp97
I00
aI00
aI00
aI01
aI01
aI00
aI00
aI01
aI00
aI01
aI01
aI00
aI01
aI01
aI00
aI01
aI01
aI00
aI00
aI00
aI01
aI01
aI01
aI01
aI00
aI00
aI01
aI00
aI00
aI01
aI00
aI00
aI00
aI01
aI01
asg51
I35
sg52
g55
sg56
(lp98
(g58
I0
g24
tp99
ag65
a(g58
I0
g54
tp100
a(g58
I0
g54
tp101
a(g58
I0
g60
tp102
ag67
ag68
a(g66
I0
g63
tp103
ag70
a(g66
I0
g63
tp104
ag70
ag74
ag75
ag76
ag77
a(g73
I0
g63
tp105
ag77
ag78
a(g66
F1.5707963267948966
g60
tp106
a(g66
F1.5707963267948966
g60
tp107
a(g66
F1.5707963267948966
g63
tp108
a(g66
F1.5707963267948966
g54
tp109
a(g73
F1.5707963267948966
g54
tp110
a(g73
F1.5707963267948966
g60
tp111
ag80
a(g79
F1.5707963267948966
g63
tp112
a(g79
F1.5707963267948966
g63
tp113
a(g79
F1.5707963267948966
g54
tp114
a(g79
F1.5707963267948966
g60
tp115
ag81
ag83
ag115
ag82
ag82
ag83
asg84
(lp116
g86
ag87
ag88
ag87
ag52
ag87
ag88
ag87
ag86
ag52
ag88
ag52
ag87
ag52
ag88
ag52
ag86
ag88
ag88
ag87
ag87
ag88
ag87
ag52
ag86
ag87
ag87
ag87
ag86
ag86
ag87
ag88
ag86
ag86
ag88
asg89
(lp117
g52
ag87
ag52
ag87
ag52
ag87
ag88
ag87
ag86
ag87
ag88
ag87
ag87
ag52
ag88
ag52
ag86
ag88
ag52
ag87
ag87
ag88
ag87
ag52
ag87
ag52
ag87
ag87
ag52
ag86
ag87
ag88
ag88
ag86
ag88
asg91
(lp118
g52
ag87
ag52
ag87
ag52
ag87
ag88
ag87
ag86
ag87
ag88
ag87
ag87
ag52
ag88
ag52
ag86
ag88
ag52
ag87
ag87
ag88
ag87
ag52
ag87
ag52
ag87
ag87
ag52
ag86
ag87
ag88
ag88
ag86
ag88
asaa(lp119
I2
ag39
(g40
tp120
Rp121
g43
(lp122
g45
ag46
ag45
ag46
ag45
ag45
ag48
ag45
ag45
ag45
ag47
ag46
ag47
ag45
ag45
ag46
ag45
ag47
ag46
ag45
ag48
ag47
ag47
ag47
ag45
ag45
ag45
ag47
ag46
ag45
ag47
ag48
asg49
(lp123
I01
aI00
aI01
aI01
aI00
aI01
aI01
aI00
aI00
aI00
aI01
aI00
aI00
aI00
aI01
aI01
aI00
aI01
aI00
aI01
aI01
aI00
aI00
aI00
aI00
aI00
aI00
aI01
aI01
aI00
aI01
aI01
asg51
I32
sg52
g55
sg56
(lp124
(g58
I0
g24
tp125
ag61
a(g58
I0
g63
tp126
ag61
ag67
a(g66
I0
g60
tp127
a(g66
I0
g54
tp128
ag74
a(g73
I0
g54
tp129
ag129
ag75
ag76
a(g73
I0
g60
tp130
a(g73
I0
g54
tp131
ag129
a(g73
I0
g63
tp132
ag77
a(g73
F1.5707963267948966
g54
tp133
ag111
ag106
a(g66
F1.5707963267948966
g54
tp134
ag110
a(g73
F1.5707963267948966
g54
tp135
a(g73
F1.5707963267948966
g54
tp136
a(g73
F1.5707963267948966
g63
tp137
a(g73
F1.5707963267948966
g63
tp138
ag138
ag133
ag111
ag80
ag112
ag114
asg84
(lp139
g86
ag52
ag86
ag52
ag88
ag86
ag88
ag52
ag52
ag87
ag87
ag86
ag87
ag52
ag86
ag52
ag87
ag87
ag88
ag86
ag88
ag88
ag52
ag86
ag52
ag86
ag86
ag87
ag52
ag87
ag87
ag88
asg89
(lp140
g86
ag87
ag86
ag52
ag88
ag86
ag88
ag52
ag52
ag87
ag87
ag86
ag86
ag52
ag86
ag52
ag87
ag87
ag88
ag86
ag88
ag88
ag52
ag86
ag52
ag52
ag87
ag87
ag52
ag87
ag87
ag88
asg91
(lp141
g86
ag87
ag86
ag52
ag88
ag86
ag88
ag52
ag52
ag87
ag87
ag86
ag86
ag52
ag86
ag52
ag87
ag87
ag88
ag86
ag88
ag88
ag52
ag86
ag52
ag52
ag87
ag87
ag52
ag87
ag87
ag88
asaa(lp142
I3
ag39
(g40
tp143
Rp144
g43
(lp145
g45
ag45
ag45
ag46
ag46
ag46
ag47
ag47
ag46
ag45
ag45
ag48
ag47
ag47
ag45
ag46
ag45
ag48
ag45
ag45
ag47
ag48
ag45
ag45
ag46
ag46
ag45
ag46
ag47
ag45
ag47
ag46
ag45
ag45
ag48
asg49
(lp146
I00
aI00
aI01
aI00
aI00
aI00
aI00
aI01
aI01
aI00
aI01
aI00
aI00
aI00
aI01
aI01
aI01
aI00
aI00
aI00
aI01
aI01
aI00
aI01
aI00
aI01
aI01
aI00
aI00
aI00
aI01
aI01
aI00
aI01
aI01
asg51
I35
sg52
g55
sg56
(lp147
(g58
I0
g24
tp148
a(g58
I0
g63
tp149
ag149
ag61
a(g58
I0
g60
tp150
ag150
ag62
ag101
ag102
ag67
ag127
ag128
a(g58
I0
g54
tp151
a(g58
I0
g54
tp152
ag64
ag61
ag67
ag128
ag71
ag127
ag68
ag70
ag74
ag129
ag132
a(g73
I0
g63
tp153
ag77
ag78
a(g73
F1.5707963267948966
g54
tp154
ag137
ag133
ag111
ag80
ag81
ag83
asg84
(lp155
g88
ag86
ag86
ag88
ag86
ag86
ag87
ag87
ag52
ag88
ag86
ag87
ag86
ag86
ag86
ag52
ag86
ag87
ag88
ag87
ag87
ag88
ag86
ag86
ag86
ag52
ag86
ag86
ag86
ag87
ag87
ag52
ag52
ag86
ag88
asg89
(lp156
g88
ag88
ag86
ag88
ag88
ag86
ag52
ag87
ag52
ag88
ag86
ag52
ag88
ag86
ag86
ag52
ag86
ag87
ag88
ag87
ag87
ag88
ag52
ag86
ag88
ag52
ag86
ag86
ag86
ag87
ag87
ag52
ag52
ag86
ag88
asg91
(lp157
g88
ag88
ag86
ag88
ag88
ag86
ag52
ag87
ag52
ag88
ag86
ag52
ag88
ag86
ag86
ag52
ag86
ag87
ag88
ag87
ag87
ag88
ag52
ag86
ag88
ag52
ag86
ag86
ag86
ag87
ag87
ag52
ag52
ag86
ag88
asaa(lp158
I4
ag39
(g40
tp159
Rp160
g43
(lp161
g45
ag46
ag45
ag48
ag45
ag48
ag47
ag46
ag46
ag47
ag46
ag45
ag45
ag47
ag45
ag45
ag45
ag48
ag45
ag47
ag46
ag45
ag46
ag46
ag47
ag45
ag45
ag46
ag45
ag46
ag47
ag46
ag45
ag45
ag45
ag45
ag46
ag46
ag46
ag46
ag45
ag46
ag47
ag46
ag45
ag48
ag45
ag48
ag47
ag47
ag48
ag47
ag46
ag45
ag48
ag47
ag48
ag47
ag47
ag46
ag45
ag48
asg49
(lp162
I01
aI01
aI01
aI00
aI01
aI00
aI01
aI00
aI00
aI01
aI01
aI00
aI00
aI00
aI00
aI00
aI01
aI01
aI00
aI01
aI00
aI01
aI00
aI00
aI00
aI00
aI01
aI01
aI00
aI00
aI01
aI00
aI00
aI00
aI00
aI01
aI00
aI00
aI00
aI01
aI01
aI00
aI01
aI01
aI01
aI00
aI01
aI00
aI00
aI01
aI00
aI01
aI00
aI01
aI00
aI01
aI01
aI00
aI01
aI01
aI01
aI01
asg51
I62
sg52
g55
sg56
(lp163
(g58
I0
g24
tp164
ag61
ag67
ag128
ag71
ag128
ag151
ag102
ag150
ag62
ag102
ag67
ag72
ag68
a(g66
I0
g60
tp165
ag72
ag127
ag128
ag74
ag75
ag76
a(g73
I0
g54
tp166
ag132
ag153
ag130
ag131
a(g73
I0
g54
tp167
ag132
ag77
ag105
ag130
ag76
ag166
ag167
ag167
ag167
ag132
ag153
ag153
ag153
ag77
ag78
ag154
ag111
ag80
ag83
ag115
ag83
a(g79
F1.5707963267948966
g63
tp168
a(g79
F1.5707963267948966
g63
tp169
ag114
a(g73
F1.5707963267948966
g54
tp170
ag111
ag106
ag134
a(g66
F1.5707963267948966
g63
tp171
ag109
ag110
ag135
ag111
ag80
ag83
asg84
(lp172
g86
ag52
ag86
ag87
ag86
ag88
ag87
ag88
ag86
ag87
ag52
ag52
ag87
ag86
ag52
ag88
ag87
ag88
ag87
ag87
ag87
ag86
ag52
ag86
ag86
ag86
ag86
ag52
ag88
ag86
ag87
ag87
ag86
ag88
ag88
ag86
ag88
ag88
ag88
ag52
ag86
ag86
ag87
ag52
ag86
ag87
ag86
ag86
ag88
ag87
ag88
ag87
ag88
ag86
ag86
ag87
ag88
ag86
ag87
ag52
ag86
ag88
asg89
(lp173
g86
ag52
ag86
ag87
ag86
ag52
ag87
ag88
ag86
ag87
ag52
ag52
ag87
ag86
ag52
ag88
ag86
ag88
ag87
ag87
ag87
ag86
ag88
ag86
ag86
ag88
ag86
ag52
ag88
ag86
ag87
ag87
ag88
ag88
ag88
ag86
ag88
ag88
ag88
ag52
ag86
ag86
ag87
ag52
ag86
ag87
ag86
ag86
ag88
ag87
ag52
ag87
ag88
ag86
ag86
ag87
ag88
ag88
ag87
ag52
ag86
ag88
asg91
(lp174
g86
ag52
ag86
ag87
ag86
ag52
ag87
ag88
ag86
ag87
ag52
ag52
ag87
ag86
ag52
ag88
ag86
ag88
ag87
ag87
ag87
ag86
ag88
ag86
ag86
ag88
ag86
ag52
ag88
ag86
ag87
ag87
ag88
ag88
ag88
ag86
ag88
ag88
ag88
ag52
ag86
ag86
ag87
ag52
ag86
ag87
ag86
ag86
ag88
ag87
ag52
ag87
ag88
ag86
ag86
ag87
ag88
ag88
ag87
ag52
ag86
ag88
asaa(lp175
I5
ag39
(g40
tp176
Rp177
g43
(lp178
g45
ag46
ag46
ag45
ag48
ag45
ag45
ag46
ag47
ag46
ag47
ag45
ag47
ag48
ag45
ag45
ag45
ag48
asg49
(lp179
I01
aI00
aI01
aI01
aI01
aI00
aI01
aI00
aI01
aI00
aI00
aI00
aI01
aI00
aI00
aI00
aI01
aI01
asg51
I18
sg52
(g53
I0
g54
tp180
sg56
(lp181
(g58
I0
g24
tp182
ag61
ag150
ag67
ag128
ag74
ag129
ag132
ag130
ag76
ag130
a(g79
I0
g60
tp183
a(g79
I0
g63
tp184
a(g79
I0
g54
tp185
a(g79
I0
g60
tp186
a(g79
I0
g60
tp187
a(g79
I0
g60
tp188
a(g79
I0
g54
tp189
asg84
(lp190
g86
ag52
ag52
ag86
ag88
ag52
ag86
ag86
ag87
ag86
ag52
ag87
ag87
ag87
ag86
ag88
ag86
ag86
asg89
(lp191
g86
ag88
ag52
ag86
ag88
ag52
ag86
ag86
ag87
ag86
ag52
ag87
ag87
ag87
ag52
ag88
ag86
ag88
asg91
(lp192
g86
ag88
ag52
ag86
ag88
ag52
ag86
ag86
ag87
ag86
ag52
ag87
ag87
ag87
ag52
ag88
ag86
ag88
asaa(lp193
I6
ag39
(g40
tp194
Rp195
g43
(lp196
g45
ag46
ag47
ag47
ag47
ag47
ag46
ag46
ag46
ag45
ag47
ag48
ag47
ag47
ag47
ag45
ag45
ag45
ag46
ag45
ag45
ag47
ag48
ag47
ag47
ag47
ag48
ag45
ag48
ag47
ag48
ag45
ag46
ag45
ag46
ag47
ag46
ag47
ag45
ag45
ag48
ag47
ag47
ag47
ag48
ag45
ag46
ag45
ag45
ag47
ag47
ag45
ag47
ag47
ag47
ag46
ag45
ag45
ag45
ag47
ag48
ag45
ag48
ag47
ag47
ag48
ag47
ag46
ag47
ag45
ag46
ag45
ag45
ag47
ag47
ag48
ag47
ag47
ag48
ag45
ag45
ag47
ag48
ag45
ag45
ag47
ag48
asg49
(lp197
I01
aI00
aI00
aI00
aI00
aI01
aI00
aI00
aI01
aI00
aI01
aI00
aI00
aI00
aI00
aI00
aI00
aI01
aI01
aI00
aI00
aI01
aI00
aI00
aI00
aI01
aI00
aI01
aI00
aI01
aI01
aI01
aI01
aI00
aI00
aI01
aI00
aI00
aI00
aI01
aI00
aI00
aI00
aI01
aI01
aI01
aI01
aI00
aI00
aI00
aI00
aI00
aI00
aI00
aI01
aI00
aI00
aI00
aI00
aI01
aI00
aI01
aI00
aI00
aI01
aI01
aI01
aI00
aI00
aI01
aI01
aI00
aI00
aI00
aI01
aI00
aI00
aI01
aI00
aI00
aI00
aI01
aI00
aI00
aI00
aI01
aI01
asg51
I87
sg52
g55
sg56
(lp198
(g58
I0
g24
tp199
ag61
ag62
ag152
ag152
ag152
ag102
ag150
ag150
ag67
ag68
ag70
ag151
ag101
ag152
ag64
ag149
ag149
ag61
ag67
ag72
ag68
ag70
ag104
ag69
ag69
ag70
ag71
ag128
ag104
ag70
ag74
ag132
ag77
ag105
ag130
ag76
ag130
a(g66
I0
g60
tp200
ag72
ag128
ag104
ag69
ag103
ag70
ag74
ag132
ag77
ag138
ag133
ag135
ag137
ag133
ag136
ag136
ag111
ag106
ag107
ag107
ag108
ag109
a(g66
F1.5707963267948966
g60
tp201
ag134
ag171
a(g66
F1.5707963267948966
g63
tp202
ag109
ag110
ag111
ag154
ag137
ag78
ag80
ag81
ag112
ag169
ag114
ag168
ag113
ag114
ag115
ag81
ag112
ag114
ag115
ag82
ag112
ag114
asg84
(lp203
g86
ag86
ag52
ag52
ag88
ag87
ag88
ag88
ag52
ag87
ag87
ag86
ag52
ag88
ag86
ag88
ag88
ag86
ag52
ag52
ag87
ag87
ag86
ag52
ag52
ag87
ag87
ag86
ag86
ag87
ag88
ag86
ag52
ag88
ag86
ag87
ag52
ag52
ag52
ag86
ag86
ag52
ag88
ag87
ag88
ag86
ag52
ag52
ag87
ag87
ag86
ag87
ag52
ag52
ag87
ag88
ag52
ag52
ag87
ag87
ag87
ag86
ag86
ag52
ag87
ag88
ag87
ag86
ag86
ag86
ag52
ag86
ag87
ag88
ag87
ag86
ag52
ag87
ag87
ag52
ag88
ag87
ag87
ag88
ag87
ag87
ag88
asg89
(lp204
g86
ag86
ag88
ag88
ag88
ag87
ag88
ag88
ag52
ag87
ag87
ag52
ag52
ag88
ag86
ag88
ag88
ag86
ag52
ag52
ag87
ag87
ag86
ag52
ag52
ag87
ag87
ag86
ag86
ag87
ag88
ag86
ag52
ag88
ag86
ag87
ag86
ag88
ag52
ag86
ag86
ag52
ag88
ag87
ag88
ag86
ag52
ag52
ag87
ag88
ag86
ag87
ag52
ag52
ag87
ag88
ag52
ag52
ag87
ag87
ag87
ag86
ag86
ag52
ag87
ag88
ag87
ag86
ag86
ag86
ag52
ag52
ag87
ag88
ag87
ag86
ag52
ag87
ag87
ag52
ag87
ag87
ag87
ag88
ag87
ag87
ag88
asg91
(lp205
g86
ag86
ag88
ag88
ag88
ag87
ag88
ag88
ag52
ag87
ag87
ag52
ag52
ag88
ag86
ag88
ag88
ag86
ag52
ag52
ag87
ag87
ag86
ag52
ag52
ag87
ag87
ag86
ag86
ag87
ag88
ag86
ag52
ag88
ag86
ag87
ag86
ag88
ag52
ag86
ag86
ag52
ag88
ag87
ag88
ag86
ag52
ag52
ag87
ag88
ag86
ag87
ag52
ag52
ag87
ag88
ag52
ag52
ag87
ag87
ag87
ag86
ag86
ag52
ag87
ag88
ag87
ag86
ag86
ag86
ag52
ag52
ag87
ag88
ag87
ag86
ag52
ag87
ag87
ag52
ag87
ag87
ag87
ag88
ag87
ag87
ag88
asaa(lp206
I7
ag39
(g40
tp207
Rp208
g43
(lp209
g45
ag45
ag45
ag46
ag47
ag46
ag46
ag45
ag47
ag47
ag48
ag45
ag48
ag45
ag45
ag46
ag45
ag45
ag46
ag46
ag47
ag46
ag47
ag45
ag47
ag47
ag48
ag45
ag47
ag45
ag48
ag47
ag47
ag47
ag48
asg49
(lp210
I00
aI00
aI01
aI00
aI01
aI00
aI01
aI00
aI00
aI01
aI00
aI01
aI01
aI00
aI01
aI01
aI00
aI00
aI00
aI00
aI01
aI00
aI00
aI00
aI00
aI01
aI00
aI00
aI00
aI01
aI00
aI00
aI00
aI01
aI01
asg51
I35
sg52
g180
sg56
(lp211
(g58
I0
g24
tp212
ag149
ag149
ag61
ag62
ag102
ag150
ag67
ag68
ag69
ag70
ag71
ag128
ag74
ag129
ag132
ag77
ag138
ag105
ag153
ag130
ag76
ag130
ag183
ag184
a(g79
I0
g63
tp213
ag185
a(g73
I0
g54
tp214
ag75
ag183
ag189
a(g79
I0
g63
tp215
a(g79
I0
g63
tp216
ag213
ag185
asg84
(lp217
g86
ag88
ag86
ag86
ag87
ag52
ag52
ag87
ag87
ag87
ag87
ag86
ag88
ag52
ag86
ag52
ag87
ag88
ag88
ag86
ag87
ag86
ag52
ag87
ag87
ag87
ag88
ag86
ag52
ag86
ag86
ag87
ag88
ag87
ag88
asg89
(lp218
g88
ag88
ag86
ag86
ag87
ag88
ag52
ag87
ag52
ag87
ag87
ag86
ag88
ag52
ag86
ag52
ag52
ag88
ag88
ag86
ag87
ag86
ag52
ag87
ag88
ag87
ag52
ag87
ag52
ag86
ag86
ag52
ag88
ag87
ag88
asg91
(lp219
g88
ag88
ag86
ag86
ag87
ag88
ag52
ag87
ag52
ag87
ag87
ag86
ag88
ag52
ag86
ag52
ag52
ag88
ag88
ag86
ag87
ag86
ag52
ag87
ag88
ag87
ag52
ag87
ag52
ag86
ag86
ag52
ag88
ag87
ag88
asaa(lp220
I8
ag39
(g40
tp221
Rp222
g43
(lp223
g45
ag46
ag45
ag48
ag47
ag48
ag45
ag48
ag45
ag48
ag45
ag47
ag45
ag45
ag48
ag47
ag48
ag47
ag46
ag46
ag45
ag46
ag45
ag45
ag45
ag46
ag45
ag45
ag45
ag45
ag48
ag45
ag45
ag48
ag45
ag46
ag46
ag45
ag45
ag46
ag45
ag47
ag47
ag47
ag45
ag46
ag46
ag46
ag46
ag47
ag46
ag47
ag46
ag46
ag45
ag47
ag46
ag45
ag46
ag47
ag46
ag47
ag45
ag46
ag45
ag45
ag45
ag45
ag48
ag47
ag46
ag45
ag48
asg49
(lp224
I01
aI01
aI01
aI00
aI01
aI00
aI01
aI00
aI01
aI00
aI00
aI00
aI00
aI01
aI00
aI01
aI00
aI01
aI00
aI00
aI01
aI00
aI00
aI00
aI01
aI01
aI00
aI00
aI00
aI01
aI00
aI00
aI01
aI01
aI01
aI00
aI01
aI00
aI00
aI01
aI00
aI00
aI00
aI00
aI00
aI00
aI00
aI00
aI00
aI01
aI00
aI01
aI00
aI00
aI00
aI01
aI01
aI01
aI00
aI01
aI00
aI00
aI01
aI01
aI00
aI00
aI00
aI01
aI00
aI01
aI01
aI01
aI01
asg51
I73
sg52
g55
sg56
(lp225
(g58
I0
g24
tp226
ag61
ag67
ag128
ag104
ag70
ag71
ag128
ag71
ag128
ag71
ag68
ag165
ag127
ag128
ag104
ag70
ag151
ag102
ag150
ag126
ag61
ag126
ag149
ag65
ag61
ag67
ag72
ag72
ag127
ag128
ag71
ag72
ag128
ag74
ag132
ag153
ag77
ag138
ag105
ag77
ag133
ag136
ag136
ag137
ag105
ag153
ag153
ag153
ag130
ag76
ag130
ag76
ag153
ag166
ag75
ag76
ag77
ag78
ag154
ag111
ag154
ag137
ag78
ag80
ag81
ag81
ag81
ag83
ag170
ag111
ag80
ag83
asg84
(lp227
g86
ag52
ag86
ag87
ag87
ag87
ag86
ag87
ag86
ag87
ag87
ag86
ag88
ag86
ag86
ag87
ag88
ag87
ag88
ag86
ag86
ag52
ag86
ag52
ag86
ag52
ag52
ag52
ag86
ag86
ag87
ag52
ag86
ag52
ag86
ag88
ag52
ag86
ag88
ag52
ag87
ag52
ag52
ag86
ag86
ag88
ag88
ag88
ag86
ag87
ag86
ag87
ag88
ag87
ag86
ag87
ag52
ag86
ag86
ag87
ag86
ag86
ag86
ag52
ag52
ag88
ag52
ag86
ag52
ag87
ag52
ag86
ag88
asg89
(lp228
g86
ag52
ag86
ag86
ag87
ag87
ag86
ag87
ag86
ag87
ag87
ag86
ag88
ag86
ag86
ag87
ag52
ag87
ag88
ag87
ag86
ag87
ag88
ag52
ag86
ag52
ag52
ag52
ag88
ag86
ag87
ag52
ag86
ag88
ag86
ag88
ag52
ag52
ag88
ag52
ag87
ag52
ag52
ag86
ag88
ag88
ag88
ag88
ag86
ag87
ag86
ag87
ag88
ag87
ag87
ag87
ag52
ag86
ag86
ag87
ag86
ag86
ag86
ag52
ag52
ag52
ag52
ag86
ag52
ag87
ag52
ag86
ag88
asg91
(lp229
g86
ag52
ag86
ag86
ag87
ag87
ag86
ag87
ag86
ag87
ag87
ag86
ag88
ag86
ag86
ag87
ag52
ag87
ag88
ag87
ag86
ag87
ag88
ag52
ag86
ag52
ag52
ag52
ag88
ag86
ag87
ag52
ag86
ag88
ag86
ag88
ag52
ag52
ag88
ag52
ag87
ag52
ag52
ag86
ag88
ag88
ag88
ag88
ag86
ag87
ag86
ag87
ag88
ag87
ag87
ag87
ag52
ag86
ag86
ag87
ag86
ag86
ag86
ag52
ag52
ag52
ag52
ag86
ag52
ag87
ag52
ag86
ag88
asaa(lp230
I9
ag39
(g40
tp231
Rp232
g43
(lp233
g45
ag46
ag45
ag45
ag47
ag48
ag45
ag48
ag45
ag47
ag48
ag47
ag48
ag45
ag45
ag48
ag45
ag47
ag46
ag45
ag46
ag47
ag46
ag45
ag45
ag46
ag47
ag46
ag45
ag47
ag48
ag47
ag46
ag47
ag45
ag46
ag46
ag46
ag45
ag46
ag47
ag46
ag47
ag47
ag46
ag45
ag45
ag46
ag45
ag46
ag45
ag46
ag45
ag48
ag47
ag45
ag46
ag47
ag46
ag47
ag45
ag45
ag47
ag48
ag45
ag45
ag47
ag46
ag45
ag47
ag47
ag46
ag45
ag48
ag45
ag47
ag47
ag47
ag48
ag47
ag47
ag45
ag46
ag46
ag47
ag45
ag46
ag46
ag47
ag46
ag45
ag47
ag46
ag45
ag48
ag47
ag48
ag45
ag48
asg49
(lp234
I01
aI01
aI00
aI00
aI01
aI00
aI01
aI00
aI00
aI01
aI00
aI01
aI00
aI00
aI01
aI01
aI00
aI01
aI01
aI00
aI00
aI01
aI01
aI00
aI01
aI00
aI01
aI00
aI00
aI01
aI01
aI01
aI00
aI00
aI00
aI00
aI00
aI01
aI01
aI00
aI01
aI00
aI00
aI01
aI00
aI00
aI01
aI00
aI01
aI00
aI01
aI00
aI01
aI01
aI00
aI00
aI00
aI01
aI00
aI00
aI00
aI00
aI01
aI00
aI00
aI00
aI01
aI01
aI00
aI00
aI01
aI00
aI01
aI00
aI00
aI00
aI00
aI01
aI01
aI00
aI00
aI00
aI00
aI00
aI00
aI01
aI00
aI00
aI01
aI01
aI00
aI01
aI01
aI01
aI00
aI01
aI00
aI01
aI01
asg51
I99
sg52
g55
sg56
(lp235
(g58
I0
g24
tp236
ag61
ag67
ag127
ag68
ag70
ag71
ag128
ag71
ag68
ag70
ag104
ag70
ag71
ag72
ag128
ag74
ag75
ag76
ag77
ag105
ag130
ag76
ag77
ag138
ag78
ag154
ag111
ag106
ag108
ag109
ag110
ag111
ag154
ag137
ag105
ag153
ag153
ag77
ag78
ag154
ag111
ag154
ag136
ag111
a(g73
F1.5707963267948966
g63
tp237
ag138
ag78
ag237
ag78
ag237
ag78
ag106
ag134
ag110
ag137
ag105
ag130
ag76
ag130
ag183
ag188
ag184
ag185
ag214
ag167
ag75
ag76
ag77
ag133
ag136
ag111
ag106
ag134
ag201
ag108
a(g66
F1.5707963267948966
g63
tp238
ag238
ag109
ag110
ag136
ag137
ag105
ag153
ag130
ag131
ag132
ag153
ag130
ag76
ag77
ag133
ag111
ag80
ag83
ag168
ag114
ag115
ag83
asg84
(lp239
g86
ag52
ag88
ag87
ag87
ag87
ag86
ag87
ag86
ag87
ag86
ag52
ag88
ag52
ag86
ag88
ag87
ag87
ag52
ag88
ag86
ag52
ag52
ag52
ag86
ag86
ag87
ag88
ag87
ag87
ag88
ag87
ag86
ag86
ag88
ag88
ag88
ag52
ag86
ag86
ag87
ag86
ag52
ag87
ag86
ag52
ag86
ag52
ag86
ag52
ag86
ag88
ag86
ag88
ag86
ag86
ag86
ag87
ag86
ag87
ag88
ag87
ag87
ag52
ag88
ag87
ag87
ag52
ag87
ag87
ag87
ag88
ag86
ag87
ag87
ag88
ag87
ag87
ag86
ag52
ag86
ag88
ag88
ag86
ag86
ag86
ag52
ag86
ag87
ag52
ag87
ag87
ag52
ag86
ag86
ag87
ag87
ag86
ag88
asg89
(lp240
g86
ag52
ag88
ag87
ag87
ag87
ag86
ag87
ag87
ag87
ag86
ag87
ag87
ag52
ag86
ag88
ag87
ag87
ag52
ag88
ag86
ag87
ag52
ag52
ag86
ag86
ag87
ag88
ag87
ag87
ag88
ag87
ag86
ag86
ag88
ag88
ag88
ag52
ag86
ag86
ag87
ag86
ag52
ag87
ag87
ag52
ag86
ag87
ag86
ag87
ag86
ag88
ag86
ag88
ag86
ag88
ag86
ag87
ag86
ag52
ag88
ag87
ag87
ag52
ag88
ag87
ag87
ag52
ag87
ag52
ag87
ag88
ag86
ag87
ag87
ag88
ag88
ag87
ag88
ag52
ag86
ag88
ag88
ag86
ag86
ag86
ag88
ag86
ag87
ag52
ag87
ag87
ag52
ag86
ag86
ag87
ag87
ag86
ag88
asg91
(lp241
g86
ag52
ag88
ag87
ag87
ag87
ag86
ag87
ag87
ag87
ag86
ag87
ag87
ag52
ag86
ag88
ag87
ag87
ag52
ag88
ag86
ag87
ag52
ag52
ag86
ag86
ag87
ag88
ag87
ag87
ag88
ag87
ag86
ag86
ag88
ag88
ag88
ag52
ag86
ag86
ag87
ag86
ag52
ag87
ag87
ag52
ag86
ag87
ag86
ag87
ag86
ag88
ag86
ag88
ag86
ag88
ag86
ag87
ag86
ag52
ag88
ag87
ag87
ag52
ag88
ag87
ag87
ag52
ag87
ag52
ag87
ag88
ag86
ag87
ag87
ag88
ag88
ag87
ag88
ag52
ag86
ag88
ag88
ag86
ag86
ag86
ag88
ag86
ag87
ag52
ag87
ag87
ag52
ag86
ag86
ag87
ag87
ag86
ag88
asaatp242
Rp243
aatp244
Rp245
.