ccollections
OrderedDict
p0
((lp1
(lp2
S'index'
p3
aI4208
aa(lp4
S'combination_dict'
p5
ag0
((lp6
(lp7
S'r_to_g_config'
p8
aS'tl'
p9
aa(lp10
S'num_turns'
p11
aI1
aa(lp12
S'start_direction'
p13
acutils_ms
StartDirection
p14
(I3
tp15
Rp16
aa(lp17
S'assistance_type'
p18
acutils_ms
AssistanceType
p19
(I1
tp20
Rp21
aa(lp22
S'start_mode'
p23
aS't'
p24
aa(lp25
S'ui_given_a_noise'
p26
aF0.3
aa(lp27
S'um_given_ui_noise'
p28
aF0.1
aa(lp29
S'entropy_threshold'
p30
aF0.9
aa(lp31
S'is_assistance'
p32
aI01
aatp33
Rp34
aa(lp35
S'trials'
p36
ag0
((lp37
(lp38
I0
accollections
defaultdict
p39
(c__builtin__
list
p40
tp41
Rp42
S'a'
p43
(lp44
S'mode_r'
p45
aS'move_n'
p46
aS'mode_l'
p47
ag45
aS'move_p'
p48
ag47
ag48
ag47
ag45
ag48
asS'assistance_match_with_ground_truth'
p49
(lp50
I01
aI01
aI00
aI01
aI01
aI01
aI00
aI00
aI01
aI01
asS'total_steps'
p51
I10
sS'sp'
p52
(S'p2'
p53
F1.5707963267948966
S'y'
p54
tp55
sS's'
p56
(lp57
(S'p0'
p58
I0
g24
tp59
a(g58
I0
S'x'
p60
tp61
a(S'p1'
p62
I0
g60
tp63
a(g62
I0
g54
tp64
a(g62
I0
S't'
p65
tp66
a(g62
F1.5707963267948966
g65
tp67
a(g62
F1.5707963267948966
g54
tp68
a(g62
F1.5707963267948966
g65
tp69
a(g62
F1.5707963267948966
g60
tp70
a(g62
F1.5707963267948966
g54
tp71
asS'ui'
p72
(lp73
S'hp'
p74
aS'ss'
p75
aS'hs'
p76
ag74
ag52
ag76
ag52
ag76
ag74
ag52
asS'um_before'
p77
(lp78
g74
ag75
ag74
ag52
ag52
ag76
ag74
ag74
ag74
ag52
asS'um_after'
p79
(lp80
g74
ag75
ag74
ag74
ag52
ag76
ag74
ag74
ag74
ag52
asaa(lp81
I1
ag39
(g40
tp82
Rp83
g43
(lp84
g45
ag46
ag45
ag46
ag47
ag48
ag47
ag48
ag48
ag47
ag48
ag47
ag47
ag47
ag46
ag47
ag47
ag46
ag45
ag48
ag47
ag45
ag47
ag46
ag45
ag47
ag48
ag47
ag48
asg49
(lp85
I01
aI00
aI01
aI01
aI01
aI00
aI01
aI00
aI01
aI01
aI00
aI00
aI00
aI01
aI00
aI00
aI01
aI01
aI01
aI00
aI00
aI00
aI01
aI01
aI00
aI01
aI00
aI01
aI01
asg51
I29
sg52
g55
sg56
(lp86
(g58
I0
g24
tp87
ag61
a(g58
I0
g65
tp88
ag61
ag63
a(g62
I0
g65
tp89
a(g62
I0
g60
tp90
ag89
a(g62
I0
g65
tp91
ag67
ag68
a(g58
F1.5707963267948966
g54
tp92
a(g58
F1.5707963267948966
g54
tp93
ag93
a(g58
F1.5707963267948966
g60
tp94
a(g58
F1.5707963267948966
g54
tp95
ag93
ag94
a(g62
F1.5707963267948966
g60
tp96
ag71
ag92
a(g58
F1.5707963267948966
g65
tp97
a(g58
F1.5707963267948966
g54
tp98
ag94
ag96
a(g62
F1.5707963267948966
g65
tp99
ag68
ag69
ag68
asg72
(lp100
g74
ag75
ag52
ag75
ag76
ag52
ag76
ag75
ag52
ag76
ag75
ag75
ag75
ag76
ag75
ag76
ag76
ag75
ag74
ag75
ag76
ag76
ag76
ag75
ag76
ag76
ag74
ag76
ag52
asg77
(lp101
g74
ag76
ag52
ag75
ag76
ag74
ag76
ag75
ag52
ag76
ag75
ag75
ag75
ag76
ag74
ag75
ag76
ag75
ag74
ag75
ag74
ag76
ag76
ag75
ag76
ag76
ag74
ag76
ag52
asg79
(lp102
g74
ag76
ag74
ag75
ag76
ag74
ag76
ag75
ag52
ag76
ag75
ag75
ag75
ag76
ag74
ag75
ag76
ag75
ag74
ag75
ag74
ag76
ag76
ag75
ag76
ag76
ag74
ag76
ag52
asaa(lp103
I2
ag39
(g40
tp104
Rp105
g43
(lp106
g45
ag46
ag45
ag46
ag47
ag46
ag47
ag47
ag48
ag47
ag48
ag47
ag47
ag47
ag48
ag45
ag48
ag47
ag48
ag47
ag48
ag47
ag46
ag47
ag46
ag45
ag47
ag48
ag47
ag48
ag45
ag47
ag48
asg49
(lp107
I01
aI00
aI01
aI00
aI01
aI01
aI00
aI01
aI00
aI01
aI00
aI00
aI00
aI01
aI00
aI01
aI01
aI01
aI00
aI01
aI00
aI01
aI00
aI01
aI01
aI00
aI00
aI01
aI01
aI00
aI00
aI01
aI01
asg51
I33
sg52
g55
sg56
(lp108
(g58
I0
g24
tp109
ag61
ag88
ag61
a(g58
I0
g54
tp110
a(g58
I0
g60
tp111
ag63
a(g62
I0
g60
tp112
ag89
ag90
ag89
ag90
ag112
ag112
ag89
a(g62
I0
g54
tp113
ag66
ag67
ag68
ag69
ag68
ag92
ag94
ag95
ag94
ag96
ag99
a(g62
I0
g65
tp114
ag67
ag68
a(g62
F1.5707963267948966
g60
tp115
ag99
ag68
asg72
(lp116
g74
ag74
ag74
ag74
ag76
ag75
ag75
ag76
ag74
ag76
ag74
ag75
ag75
ag76
ag52
ag74
ag52
ag76
ag74
ag76
ag75
ag76
ag74
ag76
ag75
ag76
ag75
ag52
ag76
ag52
ag76
ag76
ag52
asg77
(lp117
g74
ag76
ag74
ag74
ag52
ag75
ag75
ag52
ag74
ag76
ag74
ag75
ag75
ag76
ag76
ag74
ag52
ag76
ag74
ag76
ag75
ag52
ag74
ag76
ag75
ag76
ag75
ag52
ag76
ag76
ag76
ag76
ag52
asg79
(lp118
g74
ag76
ag74
ag74
ag76
ag75
ag75
ag76
ag74
ag76
ag74
ag75
ag75
ag76
ag76
ag74
ag52
ag76
ag74
ag76
ag75
ag76
ag74
ag76
ag75
ag76
ag75
ag52
ag76
ag76
ag76
ag76
ag52
asaa(lp119
I3
ag39
(g40
tp120
Rp121
g43
(lp122
g45
ag46
ag47
ag47
ag47
ag48
ag48
ag47
ag48
asg49
(lp123
I01
aI01
aI00
aI00
aI01
aI00
aI01
aI01
aI01
asg51
I9
sg52
g55
sg56
(lp124
(g58
I0
g24
tp125
ag61
ag63
ag112
ag112
ag89
ag91
ag67
ag68
asg72
(lp126
g74
ag75
ag75
ag75
ag76
ag75
ag52
ag76
ag52
asg77
(lp127
g74
ag75
ag75
ag75
ag76
ag75
ag52
ag76
ag52
asg79
(lp128
g74
ag75
ag75
ag75
ag76
ag75
ag52
ag76
ag52
asaa(lp129
I4
ag39
(g40
tp130
Rp131
g43
(lp132
g45
ag47
ag46
ag47
ag48
ag47
ag45
ag48
asg49
(lp133
I00
aI01
aI01
aI01
aI01
aI00
aI01
aI01
asg51
I8
sg52
g55
sg56
(lp134
(g58
I0
g24
tp135
a(g58
I0
g54
tp136
ag111
ag63
ag89
ag67
ag70
ag71
asg72
(lp137
g76
ag76
ag75
ag76
ag52
ag75
ag74
ag52
asg77
(lp138
g76
ag76
ag75
ag76
ag52
ag74
ag74
ag52
asg79
(lp139
g76
ag76
ag75
ag76
ag52
ag74
ag74
ag52
asaa(lp140
I5
ag39
(g40
tp141
Rp142
g43
(lp143
g45
ag46
ag47
ag45
ag46
ag47
ag47
ag48
ag48
ag47
ag48
ag47
ag48
ag47
ag48
ag47
ag48
asg49
(lp144
I01
aI00
aI00
aI01
aI01
aI00
aI01
aI00
aI00
aI01
aI01
aI01
aI00
aI01
aI00
aI01
aI01
asg51
I17
sg52
g55
sg56
(lp145
(g58
I0
g24
tp146
ag61
ag110
a(g58
I0
g65
tp147
ag61
ag63
ag112
ag89
ag91
ag90
ag89
ag67
ag68
ag69
ag68
ag69
ag68
asg72
(lp148
g74
ag75
ag52
ag74
ag75
ag76
ag76
ag75
ag74
ag76
ag52
ag76
ag52
ag76
ag74
ag76
ag52
asg77
(lp149
g74
ag74
ag74
ag74
ag75
ag75
ag76
ag75
ag74
ag76
ag52
ag76
ag74
ag76
ag74
ag76
ag52
asg79
(lp150
g74
ag74
ag74
ag74
ag75
ag75
ag76
ag75
ag74
ag76
ag52
ag76
ag74
ag76
ag74
ag76
ag52
asaa(lp151
I6
ag39
(g40
tp152
Rp153
g43
(lp154
g45
ag46
ag45
ag46
ag47
ag48
ag47
ag48
ag48
ag47
ag45
ag47
ag48
ag47
ag45
ag47
ag48
ag47
ag48
asg49
(lp155
I01
aI00
aI01
aI01
aI01
aI00
aI01
aI00
aI00
aI00
aI00
aI01
aI00
aI00
aI00
aI01
aI01
aI01
aI01
asg51
I19
sg52
g55
sg56
(lp156
(g58
I0
g24
tp157
ag61
ag88
ag61
ag63
ag89
ag90
ag89
ag91
ag90
ag64
a(g62
I0
g60
tp158
ag89
ag90
ag64
ag158
ag89
ag67
ag68
asg72
(lp159
g74
ag75
ag74
ag75
ag76
ag74
ag76
ag75
ag74
ag76
ag76
ag76
ag74
ag74
ag76
ag76
ag52
ag76
ag52
asg77
(lp160
g74
ag76
ag52
ag75
ag76
ag74
ag76
ag75
ag74
ag74
ag76
ag76
ag74
ag74
ag76
ag76
ag52
ag76
ag52
asg79
(lp161
g74
ag76
ag74
ag75
ag76
ag74
ag76
ag75
ag74
ag74
ag76
ag76
ag74
ag74
ag76
ag76
ag52
ag76
ag52
asaa(lp162
I7
ag39
(g40
tp163
Rp164
g43
(lp165
g45
ag46
ag47
ag48
ag47
ag48
ag47
ag47
ag45
ag46
ag45
ag48
asg49
(lp166
I01
aI01
aI01
aI01
aI01
aI00
aI00
aI00
aI01
aI01
aI01
aI01
asg51
I12
sg52
g55
sg56
(lp167
(g58
I0
g24
tp168
ag61
ag63
ag89
ag67
ag68
ag92
ag93
ag97
a(g58
F1.5707963267948966
g60
tp169
ag96
ag71
asg72
(lp170
g74
ag75
ag76
ag52
ag76
ag75
ag75
ag74
ag74
ag75
ag74
ag52
asg77
(lp171
g75
ag75
ag76
ag52
ag76
ag75
ag75
ag74
ag52
ag75
ag74
ag52
asg79
(lp172
g74
ag75
ag76
ag52
ag76
ag75
ag75
ag74
ag74
ag75
ag74
ag52
asaa(lp173
I8
ag39
(g40
tp174
Rp175
g43
(lp176
g45
ag46
ag47
ag47
ag48
ag47
ag48
ag47
ag48
asg49
(lp177
I01
aI01
aI00
aI01
aI01
aI01
aI00
aI01
aI01
asg51
I9
sg52
g55
sg56
(lp178
(g58
I0
g24
tp179
ag61
ag63
ag112
ag89
ag67
ag68
ag69
ag68
asg72
(lp180
g74
ag75
ag75
ag76
ag52
ag76
ag74
ag76
ag52
asg77
(lp181
g74
ag75
ag75
ag76
ag52
ag76
ag74
ag76
ag52
asg79
(lp182
g74
ag75
ag75
ag76
ag52
ag76
ag74
ag76
ag52
asaa(lp183
I9
ag39
(g40
tp184
Rp185
g43
(lp186
g45
ag46
ag47
ag48
ag47
ag48
asg49
(lp187
I01
aI01
aI01
aI01
aI01
aI01
asg51
I6
sg52
g55
sg56
(lp188
(g58
I0
g24
tp189
ag61
ag63
ag89
ag67
ag68
asg72
(lp190
g74
ag75
ag76
ag52
ag76
ag52
asg77
(lp191
g74
ag75
ag76
ag52
ag76
ag52
asg79
(lp192
g74
ag75
ag76
ag52
ag76
ag52
asaatp193
Rp194
aatp195
Rp196
.