ccollections
OrderedDict
p0
((lp1
(lp2
S'combination_dict'
p3
ag0
((lp4
(lp5
S'r_to_g_config'
p6
aS'br'
p7
aa(lp8
S'num_turns'
p9
aI1
aa(lp10
S'start_direction'
p11
acutils_ms
StartDirection
p12
(I1
tp13
Rp14
aa(lp15
S'assistance_type'
p16
acutils_ms
AssistanceType
p17
(I1
tp18
Rp19
aa(lp20
S'start_mode'
p21
aS't'
p22
aa(lp23
S'ui_given_a_noise'
p24
aF0.3
aa(lp25
S'um_given_ui_noise'
p26
aF0.3
aa(lp27
S'entropy_threshold'
p28
aF0.6
aatp29
Rp30
aa(lp31
S'data'
p32
accollections
defaultdict
p33
(c__builtin__
list
p34
tp35
Rp36
S'a'
p37
(lp38
S'mode_l'
p39
aS'move_n'
p40
ag39
aS'mode_r'
p41
ag40
ag41
ag41
ag41
aS'move_p'
p42
ag41
ag41
ag42
ag41
ag42
ag41
ag42
ag42
ag42
ag41
ag42
ag41
ag40
ag39
ag40
ag39
ag40
ag39
ag41
ag42
ag39
ag39
ag42
asS'assistance_match_with_ground_truth'
p43
(lp44
I01
aI00
aI00
aI01
aI01
aI00
aI00
aI01
aI01
aI00
aI01
aI00
aI00
aI00
aI01
aI00
aI00
aI01
aI01
aI00
aI01
aI00
aI01
aI00
aI01
aI01
aI00
aI01
aI00
aI00
aI01
aI01
asS'total_steps'
p45
I32
sS'sp'
p46
(lp47
(S'p0'
p48
I0
S'y'
p49
tp50
a(g48
I0
S't'
p51
tp52
a(g48
I0
S'x'
p53
tp54
a(g48
I0
g49
tp55
a(S'p1'
p56
I0
g49
tp57
a(g56
I0
g49
tp58
ag58
a(g56
I0
g51
tp59
a(g56
F1.5707963267948966
g51
tp60
a(g56
F1.5707963267948966
g51
tp61
a(g56
F1.5707963267948966
g53
tp62
a(g56
F1.5707963267948966
g51
tp63
a(g56
I0
g51
tp64
a(g56
I0
g49
tp65
ag59
a(g56
I0
g51
tp66
ag66
ag60
ag62
a(g48
F1.5707963267948966
g53
tp67
a(g48
F1.5707963267948966
g49
tp68
a(g48
F1.5707963267948966
g51
tp69
a(g48
F1.5707963267948966
g49
tp70
ag69
ag70
a(g56
F1.5707963267948966
g49
tp71
a(g56
F1.5707963267948966
g51
tp72
ag62
a(g56
F1.5707963267948966
g49
tp73
a(g56
F1.5707963267948966
g49
tp74
a(g56
F1.5707963267948966
g53
tp75
a(S'p2'
p76
F1.5707963267948966
g53
tp77
asS's'
p78
(lp79
(g48
I0
g22
tp80
ag50
ag52
ag54
ag55
ag57
ag58
ag58
ag59
ag60
ag61
ag62
ag63
ag64
ag65
ag59
ag66
ag66
ag60
ag62
ag67
ag68
ag69
ag70
ag69
ag70
ag71
ag72
ag62
ag73
ag74
ag75
asS'ui'
p81
(lp82
S'hs'
p83
aS'ss'
p84
ag83
ag46
ag84
aS'hp'
p85
ag84
ag85
ag46
ag46
ag85
ag46
ag85
ag46
ag85
ag84
ag85
ag46
ag85
ag83
ag85
ag84
ag83
ag84
ag83
ag84
ag83
ag85
ag46
ag83
ag83
ag46
asS'um_before'
p86
(lp87
g83
ag85
ag85
ag85
ag84
ag84
ag84
ag85
ag46
ag46
ag85
ag83
ag84
ag83
ag83
ag84
ag84
ag46
ag85
ag84
ag85
ag85
ag83
ag85
ag46
ag84
ag85
ag85
ag85
ag84
ag83
ag46
asS'um_after'
p88
(lp89
g83
ag85
ag85
ag85
ag84
ag84
ag84
ag85
ag46
ag46
ag85
ag83
ag84
ag83
ag85
ag84
ag84
ag46
ag85
ag84
ag85
ag85
ag83
ag85
ag83
ag84
ag85
ag85
ag85
ag84
ag83
ag46
asaa(lp90
S'index'
p91
aI93863
aatp92
Rp93
.