ccollections
OrderedDict
p0
((lp1
(lp2
S'combination_dict'
p3
ag0
((lp4
(lp5
S'r_to_g_config'
p6
aS'bl'
p7
aa(lp8
S'num_turns'
p9
aI1
aa(lp10
S'start_direction'
p11
acutils_ms
StartDirection
p12
(I1
tp13
Rp14
aa(lp15
S'assistance_type'
p16
acutils_ms
AssistanceType
p17
(I0
tp18
Rp19
aa(lp20
S'start_mode'
p21
aS't'
p22
aa(lp23
S'ui_given_a_noise'
p24
aF0.7
aa(lp25
S'um_given_ui_noise'
p26
aF0.5
aa(lp27
S'entropy_threshold'
p28
aF0.9
aatp29
Rp30
aa(lp31
S'data'
p32
accollections
defaultdict
p33
(c__builtin__
list
p34
tp35
Rp36
S'a'
p37
(lp38
S'mode_l'
p39
ag39
ag39
aS'mode_r'
p40
ag40
ag40
ag39
aS'move_n'
p41
ag40
ag40
ag40
ag41
ag39
ag41
ag40
ag40
ag40
ag41
ag40
ag40
ag40
aS'move_p'
p42
ag40
ag42
ag40
ag40
ag42
ag42
ag42
ag40
ag42
ag39
ag42
ag40
ag40
ag40
ag39
ag40
ag42
ag40
ag39
ag40
ag42
ag40
ag39
ag41
ag39
ag40
ag41
ag40
ag40
ag40
ag40
ag41
ag39
ag39
ag41
ag40
ag39
ag39
ag41
ag39
ag40
ag42
ag39
ag40
ag40
ag41
ag39
ag39
ag40
ag41
ag40
ag40
ag39
ag41
ag40
ag40
ag41
ag41
ag39
ag39
ag41
ag41
ag40
ag40
ag39
ag42
ag39
ag40
ag39
ag39
ag39
ag41
ag41
ag41
ag40
ag39
ag42
ag40
ag41
ag39
ag41
ag40
ag40
ag40
ag40
ag41
ag41
ag41
ag39
ag40
ag39
ag41
ag39
ag41
ag40
ag39
ag39
ag39
ag40
ag41
asS'assistance_match_with_ground_truth'
p43
(lp44
I00
aI00
aI00
aI00
aI00
aI00
aI01
aI00
aI00
aI00
aI01
aI00
aI01
aI00
aI00
aI00
aI01
aI01
aI00
aI00
aI01
aI00
aI01
aI01
aI00
aI00
aI00
aI00
aI01
aI00
aI00
aI01
aI00
aI00
aI00
aI00
aI00
aI01
aI01
aI00
aI00
aI00
aI01
aI00
aI01
aI00
aI00
aI01
aI00
aI00
aI00
aI00
aI01
aI00
aI00
aI01
aI00
aI00
aI00
aI01
aI01
aI00
aI00
aI00
aI00
aI00
aI01
aI00
aI00
aI00
aI01
aI00
aI00
aI00
aI01
aI00
aI00
aI01
aI00
aI00
aI00
aI01
aI00
aI01
aI00
aI00
aI01
aI00
aI00
aI00
aI00
aI00
aI01
aI00
aI00
aI01
aI00
aI01
aI01
aI01
aI00
aI01
aI00
aI00
aI00
aI00
aI01
aI00
aI00
aI01
aI00
aI00
aI01
aI00
aI01
aI00
aI00
aI00
aI00
aI00
aI01
aI01
asS'total_steps'
p45
I122
sS'sp'
p46
(lp47
(S'p0'
p48
I0
S't'
p49
tp50
a(g48
I0
g49
tp51
a(g48
I0
S'x'
p52
tp53
a(g48
I0
g52
tp54
ag54
a(g48
I0
g49
tp55
a(g48
I0
S'y'
p56
tp57
a(g48
I0
g52
tp58
ag54
ag54
a(g48
I0
g56
tp59
a(g48
I0
g49
tp60
ag57
ag58
ag54
ag54
ag59
a(S'p1'
p61
I0
g56
tp62
a(g61
I0
g56
tp63
ag63
a(g61
I0
g49
tp64
a(g61
I0
g56
tp65
ag64
a(g61
F1.5707963267948966
g49
tp66
ag66
a(g61
I0
g49
tp67
a(g61
I0
g49
tp68
ag68
ag66
ag67
a(g61
I0
g52
tp69
a(g61
I0
g49
tp70
ag65
ag63
ag63
a(g61
I0
g52
tp71
a(g61
I0
g56
tp72
ag64
ag66
a(g61
F1.5707963267948966
g56
tp73
a(g61
F1.5707963267948966
g49
tp74
ag67
ag66
ag73
a(g61
F1.5707963267948966
g52
tp75
a(g61
F1.5707963267948966
g56
tp76
ag74
a(g61
F1.5707963267948966
g52
tp77
a(g48
F1.5707963267948966
g52
tp78
ag78
ag78
a(g48
F1.5707963267948966
g52
tp79
a(g48
F1.5707963267948966
g56
tp80
a(g48
F1.5707963267948966
g49
tp81
a(g48
F1.5707963267948966
g49
tp82
a(g48
F1.5707963267948966
g56
tp83
a(g48
F1.5707963267948966
g52
tp84
a(g48
F1.5707963267948966
g49
tp85
a(g48
F1.5707963267948966
g49
tp86
ag83
a(g61
F1.5707963267948966
g56
tp87
ag74
ag67
ag69
a(g48
I0
g52
tp88
ag88
ag59
ag60
ag50
ag53
ag59
ag58
ag58
ag55
ag57
ag58
ag58
ag59
a(g48
I0
g56
tp89
ag60
ag50
ag57
ag89
ag62
ag63
ag71
ag70
ag69
ag88
ag55
ag51
ag51
ag57
ag89
ag89
ag62
ag71
ag70
ag66
ag77
ag76
ag75
ag78
ag78
ag79
ag79
ag80
a(g48
F1.5707963267948966
g56
tp90
ag90
ag87
ag74
ag73
ag75
ag76
ag75
a(g61
F1.5707963267948966
g49
tp91
ag73
a(g61
F1.5707963267948966
g56
tp92
a(g61
F1.5707963267948966
g56
tp93
ag74
ag77
a(S'p2'
p94
F1.5707963267948966
g52
tp95
asS's'
p96
(lp97
(g48
I0
g22
tp98
ag50
ag51
ag53
ag54
ag54
ag55
ag57
ag58
ag54
ag54
ag59
ag60
ag57
ag58
ag54
ag54
ag59
ag62
ag63
ag63
ag64
ag65
ag64
ag66
ag66
ag67
ag68
ag68
ag66
ag67
ag69
ag70
ag65
ag63
ag63
ag71
ag72
ag64
ag66
ag73
ag74
ag67
ag66
ag73
ag75
ag76
ag74
ag77
ag78
ag78
ag78
ag79
ag80
ag81
ag82
ag83
ag84
ag85
ag86
ag83
ag87
ag74
ag67
ag69
ag88
ag88
ag59
ag60
ag50
ag53
ag59
ag58
ag58
ag55
ag57
ag58
ag58
ag59
ag89
ag60
ag50
ag57
ag89
ag62
ag63
ag71
ag70
ag69
ag88
ag55
ag51
ag51
ag57
ag89
ag89
ag62
ag71
ag70
ag66
ag77
ag76
ag75
ag78
ag78
ag79
ag79
ag80
ag90
ag90
ag87
ag74
ag73
ag75
ag76
ag75
ag91
ag73
ag92
ag93
ag74
ag77
asS'ui'
p99
(lp100
S'ss'
p101
ag46
ag101
ag101
ag101
ag101
aS'hs'
p102
ag102
ag101
aS'hp'
p103
ag102
ag46
ag102
ag101
ag102
ag103
ag103
ag46
ag102
ag103
ag103
ag101
ag103
ag46
ag103
ag103
ag101
ag101
ag46
ag101
ag103
ag102
ag46
ag102
ag46
ag102
ag103
ag103
ag46
ag103
ag103
ag103
ag46
ag102
ag102
ag103
ag103
ag103
ag46
ag103
ag103
ag103
ag103
ag102
ag46
ag102
ag101
ag102
ag102
ag46
ag101
ag102
ag101
ag103
ag46
ag101
ag103
ag103
ag102
ag103
ag102
ag101
ag46
ag103
ag102
ag101
ag46
ag103
ag103
ag103
ag101
ag101
ag46
ag101
ag101
ag102
ag103
ag103
ag46
ag102
ag46
ag46
ag101
ag46
ag46
ag103
ag102
ag102
ag46
ag103
ag103
ag102
ag46
ag46
ag103
ag46
ag103
ag46
ag46
ag102
ag102
ag102
ag102
ag103
ag102
ag102
ag102
ag46
ag102
ag103
ag101
ag101
asS'um_before'
p104
(lp105
g101
ag46
ag103
ag101
ag101
ag102
ag102
ag102
ag101
ag101
ag103
ag103
ag102
ag102
ag101
ag101
ag103
ag101
ag101
ag46
ag103
ag102
ag103
ag46
ag46
ag101
ag101
ag101
ag46
ag101
ag103
ag102
ag102
ag101
ag101
ag102
ag103
ag103
ag46
ag102
ag103
ag101
ag46
ag102
ag102
ag103
ag103
ag103
ag46
ag46
ag46
ag101
ag103
ag103
ag46
ag102
ag102
ag102
ag101
ag102
ag101
ag103
ag101
ag103
ag46
ag46
ag103
ag103
ag101
ag103
ag103
ag102
ag46
ag102
ag102
ag102
ag46
ag103
ag46
ag103
ag101
ag102
ag46
ag101
ag101
ag102
ag102
ag103
ag46
ag102
ag46
ag46
ag102
ag46
ag46
ag101
ag102
ag102
ag46
ag103
ag103
ag102
ag46
ag46
ag101
ag46
ag103
ag46
ag46
ag101
ag103
ag102
ag102
ag103
ag102
ag102
ag102
ag46
ag101
ag103
ag103
ag101
asS'um_after'
p106
(lp107
g101
ag46
ag103
ag101
ag101
ag102
ag102
ag102
ag101
ag101
ag103
ag103
ag102
ag102
ag101
ag101
ag103
ag101
ag101
aNag103
ag102
ag103
ag46
aNag101
ag101
ag101
ag46
ag101
ag103
ag102
ag102
ag101
ag101
ag102
ag103
ag103
ag46
ag102
ag103
ag101
ag46
ag102
ag102
ag103
ag103
ag103
ag46
aNaNag101
ag103
ag103
ag46
ag102
ag102
ag102
ag101
ag102
ag101
ag103
ag101
ag103
ag46
aNag103
ag103
ag101
ag103
ag103
ag102
aNag102
ag102
ag102
aNag103
ag46
ag103
ag101
ag102
ag46
ag101
ag101
ag102
ag102
ag103
ag46
ag102
ag46
ag46
ag102
ag46
ag46
ag101
ag102
ag102
ag46
ag103
ag103
ag102
ag46
aNag101
aNag103
ag46
ag46
ag101
ag103
ag102
ag102
ag103
ag102
ag102
ag102
ag46
ag101
ag103
ag103
ag101
asaa(lp108
S'index'
p109
aI63941
aatp110
Rp111
.