ccollections
OrderedDict
p0
((lp1
(lp2
S'index'
p3
aI11788
aa(lp4
S'combination_dict'
p5
ag0
((lp6
(lp7
S'r_to_g_config'
p8
aS'br'
p9
aa(lp10
S'num_turns'
p11
aI1
aa(lp12
S'start_direction'
p13
acutils_ms
StartDirection
p14
(I3
tp15
Rp16
aa(lp17
S'assistance_type'
p18
acutils_ms
AssistanceType
p19
(I0
tp20
Rp21
aa(lp22
S'start_mode'
p23
aS'y'
p24
aa(lp25
S'ui_given_a_noise'
p26
aF0.5
aa(lp27
S'um_given_ui_noise'
p28
aF0.5
aa(lp29
S'entropy_threshold'
p30
aF0.9
aa(lp31
S'is_assistance'
p32
aI01
aatp33
Rp34
aa(lp35
S'trials'
p36
ag0
((lp37
(lp38
I0
accollections
defaultdict
p39
(c__builtin__
list
p40
tp41
Rp42
S'a'
p43
(lp44
S'mode_l'
p45
ag45
aS'move_p'
p46
ag45
ag45
ag46
ag46
aS'mode_r'
p47
ag47
ag47
ag45
ag45
ag46
ag46
ag46
ag46
ag47
ag47
ag47
ag47
ag46
ag46
ag46
ag45
ag47
ag46
ag47
ag47
ag45
ag46
ag46
ag45
ag46
ag45
ag45
ag45
aS'move_n'
p48
asS'assistance_match_with_ground_truth'
p49
(lp50
I00
aI01
aI01
aI00
aI01
aI00
aI00
aI00
aI00
aI00
aI00
aI01
aI00
aI00
aI00
aI00
aI00
aI00
aI00
aI01
aI00
aI00
aI01
aI00
aI01
aI00
aI00
aI00
aI01
aI00
aI01
aI01
aI01
aI00
aI00
aI01
aI01
asS'total_steps'
p51
I37
sS'sp'
p52
(S'p2'
p53
F1.5707963267948966
S'y'
p54
tp55
sS's'
p56
(lp57
(S'p0'
p58
I0
g24
tp59
a(g58
I0
g54
tp60
a(g58
I0
S'x'
p61
tp62
a(S'p1'
p63
I0
g61
tp64
ag64
a(g63
I0
S't'
p65
tp66
a(g63
I0
g65
tp67
a(g63
I0
g54
tp68
ag68
ag68
a(g58
I0
g54
tp69
ag69
ag62
ag62
ag62
ag62
a(g58
I0
g65
tp70
ag70
ag70
ag70
a(g58
I0
g61
tp71
a(g58
I0
g61
tp72
ag72
ag64
a(g63
I0
g54
tp73
a(g63
I0
g65
tp74
ag68
ag68
ag69
ag62
ag72
ag64
ag66
a(g63
F1.5707963267948966
g65
tp75
ag75
ag75
a(g63
F1.5707963267948966
g54
tp76
asS'ui'
p77
(lp78
S'ss'
p79
ag79
ag79
aS'hp'
p80
aS'hs'
p81
ag52
ag52
ag80
ag52
ag52
ag79
ag79
ag52
ag52
ag80
ag79
ag79
ag79
ag79
ag80
ag52
ag80
ag52
ag80
ag80
ag52
ag80
ag52
ag81
ag79
ag52
ag81
ag52
ag52
ag79
ag81
ag79
asS'um_before'
p82
(lp83
g79
ag81
ag52
ag52
ag81
ag79
ag81
ag79
ag81
ag52
ag52
ag81
ag80
ag80
ag80
ag81
ag79
ag79
ag81
ag80
ag79
ag80
ag52
ag80
ag80
ag81
ag81
ag52
ag81
ag79
ag52
ag81
ag52
ag52
ag52
ag81
ag79
asS'um_after'
p84
(lp85
g79
ag81
ag52
aNag81
ag79
ag81
aNaNag52
aNag81
aNaNaNag81
aNaNaNag80
ag79
aNag52
ag80
ag80
ag81
aNag52
ag81
ag79
ag52
ag81
ag52
aNaNag81
ag79
asaa(lp86
I1
ag39
(g40
tp87
Rp88
g43
(lp89
g45
ag46
ag46
ag45
ag45
ag45
ag46
ag46
ag46
ag46
ag46
ag46
ag45
ag48
asg49
(lp90
I01
aI00
aI01
aI00
aI00
aI01
aI00
aI00
aI00
aI00
aI00
aI01
aI01
aI01
asg51
I14
sg52
g55
sg56
(lp91
(g58
I0
g24
tp92
ag62
ag62
ag64
a(g63
I0
g61
tp93
ag93
ag66
ag66
ag66
ag66
ag66
ag67
ag75
ag76
asg77
(lp94
g81
ag80
ag52
ag81
ag79
ag81
ag52
ag52
ag52
ag52
ag80
ag52
ag81
ag79
asg82
(lp95
g81
ag80
ag52
ag79
ag79
ag81
ag80
ag80
ag80
ag80
ag79
ag52
ag81
ag79
asg84
(lp96
g81
aNag52
ag79
ag79
ag81
aNaNaNaNag79
ag52
ag81
ag79
asaa(lp97
I2
ag39
(g40
tp98
Rp99
g43
(lp100
g45
ag45
ag45
ag45
ag45
ag46
ag46
ag47
ag47
ag47
ag46
ag45
ag46
ag45
ag48
ag48
asg49
(lp101
I00
aI00
aI00
aI00
aI01
aI00
aI00
aI00
aI00
aI01
aI01
aI01
aI01
aI01
aI00
aI01
asg51
I16
sg52
g55
sg56
(lp102
(g58
I0
g24
tp103
ag103
ag60
ag60
ag60
ag62
ag72
ag70
ag70
a(g58
I0
g65
tp104
ag71
ag64
ag66
ag75
ag76
ag76
asg77
(lp105
g80
ag81
ag79
ag52
ag81
ag80
ag81
ag79
ag79
ag80
ag52
ag81
ag52
ag81
ag79
ag79
asg82
(lp106
g52
ag79
ag52
ag52
ag81
ag79
ag81
ag79
ag52
ag80
ag52
ag81
ag52
ag81
ag81
ag79
asg84
(lp107
Nag79
aNaNag81
ag79
ag81
aNag52
ag80
ag52
ag81
ag52
ag81
aNag79
asaa(lp108
I3
ag39
(g40
tp109
Rp110
g43
(lp111
g45
ag46
ag45
ag47
ag47
ag45
ag45
ag46
ag46
ag46
ag45
ag45
ag46
ag45
ag47
ag47
ag47
ag47
ag47
ag47
ag47
ag47
ag48
ag48
ag48
asg49
(lp112
I01
aI01
aI00
aI00
aI00
aI00
aI01
aI00
aI00
aI01
aI00
aI01
aI01
aI00
aI00
aI00
aI00
aI00
aI00
aI00
aI00
aI01
aI00
aI00
aI01
asg51
I25
sg52
g55
sg56
(lp113
(g58
I0
g24
tp114
ag62
ag64
ag73
ag73
ag69
ag69
ag62
ag62
ag62
ag64
ag93
ag66
ag75
a(g63
F1.5707963267948966
g61
tp115
ag115
ag115
ag115
ag115
ag115
a(g63
F1.5707963267948966
g61
tp116
ag116
a(g63
F1.5707963267948966
g54
tp117
ag117
ag117
asg77
(lp118
g79
ag52
ag80
ag80
ag79
ag52
ag80
ag80
ag80
ag52
ag81
ag81
ag52
ag80
ag80
ag79
ag80
ag79
ag79
ag52
ag80
ag80
ag81
ag79
ag79
asg82
(lp119
g81
ag52
ag80
ag79
ag52
ag52
ag81
ag80
ag80
ag52
ag79
ag81
ag52
ag80
ag81
ag81
ag79
ag79
ag79
ag52
ag79
ag80
ag52
ag80
ag79
asg84
(lp120
g81
ag52
ag80
aNag52
aNag81
aNaNag52
ag79
ag81
ag52
ag80
aNaNaNaNaNag52
aNag80
aNaNag79
asaa(lp121
I4
ag39
(g40
tp122
Rp123
g43
(lp124
g45
ag46
ag46
ag45
ag46
ag46
ag46
ag47
ag47
ag47
ag47
ag45
ag45
ag45
ag46
ag45
ag45
ag47
ag47
ag47
ag45
ag45
ag46
ag46
ag46
ag46
ag45
ag45
ag47
ag47
ag46
ag45
ag45
ag46
ag47
ag47
ag46
ag46
ag45
ag47
ag48
ag48
ag48
ag48
asg49
(lp125
I01
aI00
aI01
aI01
aI00
aI00
aI00
aI00
aI00
aI00
aI00
aI00
aI00
aI01
aI01
aI00
aI00
aI00
aI00
aI00
aI00
aI01
aI00
aI00
aI00
aI01
aI00
aI00
aI00
aI01
aI01
aI00
aI00
aI00
aI00
aI01
aI00
aI01
aI00
aI01
aI00
aI00
aI00
aI01
asg51
I44
sg52
g55
sg56
(lp126
(g58
I0
g24
tp127
ag62
ag72
ag64
ag66
ag66
ag66
ag68
ag68
ag68
ag68
ag69
ag60
ag60
ag62
ag64
ag93
ag73
ag73
ag73
ag69
ag60
ag62
ag72
ag72
ag72
ag64
ag93
ag73
ag73
ag74
ag75
ag75
a(g63
I0
g65
tp128
ag68
ag68
ag74
ag74
ag75
ag115
ag117
ag117
ag117
ag117
asg77
(lp129
g80
ag79
ag52
ag81
ag52
ag80
ag52
ag80
ag79
ag79
ag52
ag81
ag79
ag81
ag52
ag79
ag79
ag80
ag52
ag80
ag79
ag81
ag79
ag80
ag79
ag52
ag79
ag52
ag80
ag52
ag52
ag52
ag81
ag52
ag79
ag80
ag80
ag52
ag79
ag80
ag79
ag79
ag80
ag79
asg82
(lp130
g81
ag79
ag52
ag81
ag80
ag80
ag81
ag79
ag79
ag81
ag52
ag79
ag52
ag81
ag52
ag79
ag80
ag79
ag81
ag52
ag79
ag81
ag79
ag80
ag79
ag52
ag79
ag80
ag79
ag80
ag52
ag52
ag79
ag81
ag81
ag80
ag80
ag52
ag80
ag80
ag81
ag52
ag81
ag79
asg84
(lp131
g81
ag79
ag52
ag81
aNaNag81
aNaNaNag52
ag79
aNag81
ag52
ag79
ag80
aNaNag52
ag79
ag81
ag79
aNag79
ag52
ag79
ag80
aNag80
ag52
aNag79
ag81
aNag80
aNag52
ag80
ag80
aNaNaNag79
asaa(lp132
I5
ag39
(g40
tp133
Rp134
g43
(lp135
g45
ag46
ag46
ag46
ag47
ag47
ag47
ag47
ag46
ag47
ag47
ag46
ag47
ag47
ag47
ag47
ag47
ag47
ag46
ag45
ag45
ag47
ag46
ag47
ag46
ag47
ag46
ag46
ag47
ag47
ag47
ag47
ag45
ag46
ag45
ag46
ag45
ag45
ag48
asg49
(lp136
I01
aI00
aI00
aI00
aI00
aI00
aI00
aI01
aI00
aI00
aI01
aI00
aI00
aI00
aI00
aI00
aI00
aI01
aI01
aI00
aI00
aI01
aI00
aI01
aI00
aI01
aI00
aI00
aI00
aI00
aI00
aI00
aI01
aI01
aI01
aI01
aI00
aI01
aI01
asg51
I39
sg52
g55
sg56
(lp137
(g58
I0
g24
tp138
ag62
ag62
ag72
ag70
ag70
ag70
ag104
ag71
ag70
ag70
ag71
ag70
ag104
ag104
ag104
ag104
ag104
ag71
ag64
ag64
ag73
ag74
ag68
ag74
ag68
ag74
ag74
ag68
ag68
ag68
ag68
ag69
ag62
ag64
ag66
ag75
ag75
ag76
asg77
(lp139
g81
ag80
ag80
ag81
ag79
ag80
ag80
ag80
ag52
ag79
ag80
ag52
ag52
ag80
ag80
ag79
ag52
ag80
ag52
ag79
ag81
ag80
ag81
ag80
ag79
ag80
ag80
ag80
ag81
ag80
ag80
ag52
ag81
ag79
ag79
ag79
ag79
ag81
ag52
asg82
(lp140
g81
ag80
ag79
ag81
ag79
ag81
ag52
ag80
ag81
ag79
ag80
ag81
ag52
ag79
ag81
ag52
ag81
ag80
ag52
ag52
ag80
ag80
ag81
ag80
ag81
ag80
ag80
ag81
ag79
ag79
ag81
ag52
ag81
ag52
ag81
ag52
ag52
ag81
ag79
asg84
(lp141
g81
aNag79
ag81
aNaNag52
ag80
ag81
aNag80
ag81
ag52
aNaNag52
aNag80
ag52
aNag80
ag80
ag81
ag80
ag81
ag80
aNag81
aNaNaNag52
ag81
ag52
ag81
ag52
aNag81
ag79
asaa(lp142
I6
ag39
(g40
tp143
Rp144
g43
(lp145
g45
ag45
ag46
ag47
ag47
ag47
ag47
ag47
ag46
ag46
ag46
ag45
ag46
ag45
ag48
asg49
(lp146
I00
aI01
aI00
aI00
aI00
aI00
aI00
aI01
aI00
aI00
aI01
aI01
aI01
aI01
aI01
asg51
I15
sg52
g55
sg56
(lp147
(g58
I0
g24
tp148
ag148
ag62
ag70
ag70
ag70
ag70
ag104
ag71
ag71
ag72
ag64
ag66
ag75
ag76
asg77
(lp149
g79
ag81
ag52
ag79
ag80
ag79
ag79
ag80
ag52
ag80
ag52
ag79
ag52
ag81
ag79
asg82
(lp150
g52
ag81
ag81
ag79
ag79
ag81
ag52
ag80
ag80
ag79
ag52
ag81
ag52
ag81
ag79
asg84
(lp151
Nag81
ag81
aNaNaNag52
ag80
aNag79
ag52
ag81
ag52
ag81
ag79
asaa(lp152
I7
ag39
(g40
tp153
Rp154
g43
(lp155
g45
ag45
ag46
ag47
ag47
ag46
ag46
ag47
ag46
ag46
ag47
ag47
ag47
ag47
ag47
ag47
ag46
ag45
ag46
ag46
ag46
ag45
ag46
ag46
ag46
ag46
ag45
ag46
ag46
ag45
ag48
ag48
asg49
(lp156
I00
aI01
aI00
aI00
aI01
aI00
aI00
aI01
aI00
aI00
aI00
aI00
aI00
aI00
aI00
aI01
aI01
aI01
aI00
aI00
aI01
aI00
aI00
aI00
aI00
aI01
aI00
aI00
aI01
aI01
aI00
aI01
asg51
I32
sg52
g55
sg56
(lp157
(g58
I0
g24
tp158
ag158
ag62
ag70
ag104
ag71
ag71
ag70
ag71
ag71
ag70
ag70
ag104
ag104
ag104
ag104
ag71
ag64
ag66
ag66
ag66
ag75
ag128
ag128
ag128
ag128
ag75
ag128
ag128
ag75
ag76
ag76
asg77
(lp159
g79
ag81
ag79
ag79
ag80
ag52
ag79
ag80
ag52
ag79
ag79
ag79
ag52
ag79
ag80
ag80
ag52
ag81
ag52
ag52
ag52
ag81
ag80
ag52
ag80
ag52
ag81
ag52
ag52
ag79
ag52
ag79
asg82
(lp160
g52
ag81
ag81
ag52
ag80
ag80
ag81
ag80
ag80
ag81
ag81
ag52
ag52
ag79
ag79
ag80
ag52
ag81
ag80
ag80
ag52
ag79
ag80
ag80
ag80
ag52
ag79
ag80
ag52
ag81
ag52
ag79
asg84
(lp161
Nag81
ag81
ag52
ag80
aNag81
ag80
aNag81
aNag52
ag52
aNaNag80
ag52
ag81
aNaNag52
ag79
aNaNaNag52
ag79
aNag52
ag81
aNag79
asaa(lp162
I8
ag39
(g40
tp163
Rp164
g43
(lp165
g45
ag46
ag46
ag47
ag47
ag46
ag46
ag46
ag45
ag46
ag46
ag46
ag47
ag46
ag46
ag47
ag47
ag47
ag47
ag47
ag46
ag46
ag45
ag47
ag47
ag48
ag48
asg49
(lp166
I01
aI00
aI00
aI00
aI01
aI00
aI00
aI01
aI01
aI00
aI00
aI00
aI01
aI00
aI00
aI00
aI00
aI00
aI00
aI01
aI00
aI01
aI00
aI00
aI01
aI00
aI01
asg51
I27
sg52
g55
sg56
(lp167
(g58
I0
g24
tp168
ag62
ag62
ag70
ag70
ag71
ag72
ag72
ag64
ag66
ag67
ag67
ag68
ag74
ag67
ag68
ag68
ag68
ag68
ag68
ag74
ag67
ag75
ag115
ag115
ag117
ag117
asg77
(lp169
g81
ag80
ag52
ag80
ag80
ag80
ag52
ag52
ag81
ag79
ag52
ag80
ag80
ag52
ag80
ag80
ag79
ag80
ag80
ag80
ag52
ag52
ag81
ag79
ag80
ag79
ag79
asg82
(lp170
g81
ag80
ag81
ag79
ag80
ag79
ag80
ag52
ag81
ag79
ag79
ag81
ag80
ag79
ag81
ag79
ag79
ag79
ag81
ag80
ag79
ag52
ag80
ag79
ag80
ag81
ag79
asg84
(lp171
g81
aNag81
aNag80
ag79
aNag52
ag81
ag79
ag79
ag81
ag80
ag79
ag81
aNaNaNaNag80
ag79
ag52
ag80
aNag80
aNag79
asaa(lp172
I9
ag39
(g40
tp173
Rp174
g43
(lp175
g45
ag46
ag46
ag46
ag46
ag45
ag46
ag45
ag48
asg49
(lp176
I01
aI00
aI00
aI00
aI01
aI01
aI01
aI01
aI01
asg51
I9
sg52
g55
sg56
(lp177
(g58
I0
g24
tp178
ag62
ag72
ag72
ag72
ag64
ag66
ag75
ag76
asg77
(lp179
g81
ag79
ag52
ag80
ag52
ag81
ag52
ag79
ag79
asg82
(lp180
g81
ag79
ag80
ag79
ag52
ag81
ag52
ag81
ag79
asg84
(lp181
g81
ag79
aNag79
ag52
ag81
ag52
ag81
ag79
asaatp182
Rp183
aatp184
Rp185
.