ccollections
OrderedDict
p0
((lp1
(lp2
S'combination_dict'
p3
ag0
((lp4
(lp5
S'r_to_g_config'
p6
aS'tr'
p7
aa(lp8
S'num_turns'
p9
aI3
aa(lp10
S'start_direction'
p11
acutils_ms
StartDirection
p12
(I1
tp13
Rp14
aa(lp15
S'assistance_type'
p16
acutils_ms
AssistanceType
p17
(I0
tp18
Rp19
aa(lp20
S'start_mode'
p21
aS'x'
p22
aa(lp23
S'ui_given_a_noise'
p24
aF0.7
aa(lp25
S'um_given_ui_noise'
p26
aF0.3
aa(lp27
S'entropy_threshold'
p28
aF0.7
aatp29
Rp30
aa(lp31
S'data'
p32
accollections
defaultdict
p33
(c__builtin__
list
p34
tp35
Rp36
S'a'
p37
(lp38
S'mode_r'
p39
ag39
ag39
ag39
ag39
ag39
aS'move_p'
p40
ag39
ag39
ag39
ag39
aS'mode_l'
p41
ag40
ag41
ag41
ag40
ag39
ag41
ag40
ag41
ag41
ag40
ag39
ag40
ag41
ag40
ag39
ag40
ag40
ag40
ag39
ag41
ag40
ag39
ag41
ag40
ag39
ag41
ag41
ag40
ag41
ag39
ag40
ag39
ag40
ag39
ag41
ag41
ag39
ag41
ag39
ag39
ag39
ag41
ag40
ag39
ag41
ag39
ag39
ag41
ag39
ag41
ag40
ag39
ag39
ag40
ag39
ag41
ag40
ag39
ag41
ag39
ag40
asS'assistance_match_with_ground_truth'
p42
(lp43
I00
aI00
aI00
aI00
aI00
aI01
aI00
aI00
aI00
aI00
aI00
aI01
aI01
aI00
aI01
aI01
aI00
aI01
aI00
aI00
aI01
aI00
aI01
aI01
aI01
aI00
aI01
aI00
aI00
aI00
aI00
aI01
aI00
aI00
aI01
aI00
aI00
aI00
aI01
aI01
aI00
aI01
aI01
aI01
aI00
aI00
aI00
aI00
aI00
aI00
aI00
aI00
aI00
aI01
aI01
aI00
aI00
aI00
aI00
aI00
aI00
aI01
aI01
aI00
aI01
aI00
aI00
aI01
aI00
aI00
aI00
aI01
aI01
asS'total_steps'
p44
I73
sS'sp'
p45
(lp46
(S'p0'
p47
I0
S'x'
p48
tp49
ag49
ag49
ag49
ag49
a(g47
I0
S'y'
p50
tp51
a(g47
I0
g48
tp52
a(g47
I0
g48
tp53
ag49
ag53
a(g47
I0
S't'
p54
tp55
a(g47
I0
g50
tp56
a(S'p1'
p57
I0
g50
tp58
a(g57
I0
g50
tp59
a(g57
I0
g48
tp60
a(S'p2'
p61
I0
g48
tp62
a(g61
I0
g54
tp63
a(g61
I0
g50
tp64
a(g57
I0
g50
tp65
ag59
ag60
a(g47
I0
g48
tp66
ag51
ag58
ag60
a(g57
I0
g54
tp67
a(g57
I0
g48
tp68
ag68
ag68
ag66
ag55
ag56
ag52
ag55
ag56
ag52
ag55
a(g47
I0
g54
tp69
ag56
ag58
a(g57
I0
g54
tp70
ag68
ag62
a(g61
I0
g50
tp71
a(g61
I0
g48
tp72
ag63
a(g61
I0
g54
tp73
a(g61
I0
g48
tp74
ag63
ag74
a(g61
I0
g48
tp75
a(g61
I0
g48
tp76
ag63
ag64
a(S'p3'
p77
I0
g50
tp78
a(g77
I0
g48
tp79
a(g77
I0
g50
tp80
a(g77
I0
g50
tp81
ag79
ag80
ag79
a(g77
I0
g54
tp82
a(g77
F1.5707963267948966
g54
tp83
a(g77
F1.5707963267948966
g54
tp84
a(g77
F1.5707963267948966
g48
tp85
a(g77
F1.5707963267948966
g54
tp86
a(g77
F1.5707963267948966
g50
tp87
a(g77
F1.5707963267948966
g48
tp88
ag86
ag87
a(g77
F1.5707963267948966
g54
tp89
ag85
a(S'p4'
p90
F1.5707963267948966
g48
tp91
asS's'
p92
(lp93
(g47
I0
g22
tp94
ag49
ag49
ag49
ag49
ag49
ag51
ag52
ag53
ag49
ag53
ag55
ag56
ag58
ag59
ag60
ag62
ag63
ag64
ag65
ag59
ag60
ag66
ag51
ag58
ag60
ag67
ag68
ag68
ag68
ag66
ag55
ag56
ag52
ag55
ag56
ag52
ag55
ag69
ag56
ag58
ag70
ag68
ag62
ag71
ag72
ag63
ag73
ag74
ag63
ag74
ag75
ag76
ag63
ag64
ag78
ag79
ag80
ag81
ag79
ag80
ag79
ag82
ag83
ag84
ag85
ag86
ag87
ag88
ag86
ag87
ag89
ag85
asS'ui'
p95
(lp96
S'hp'
p97
ag97
ag45
ag45
aS'hs'
p98
ag97
ag45
ag97
ag45
aS'ss'
p99
ag98
ag97
ag99
ag98
ag98
ag45
ag98
ag98
ag99
ag98
ag98
ag99
ag97
ag45
ag98
ag98
ag97
ag45
ag97
ag97
ag98
ag99
ag98
ag97
ag98
ag45
ag97
ag98
ag98
ag45
ag97
ag97
ag45
ag97
ag99
ag97
ag98
ag97
ag98
ag97
ag45
ag45
ag98
ag98
ag45
ag98
ag97
ag45
ag98
ag97
ag98
ag97
ag45
ag97
ag97
ag45
ag97
ag97
ag45
ag98
ag97
ag97
ag45
asS'um_before'
p100
(lp101
g45
ag45
ag45
ag45
ag45
ag97
ag98
ag99
ag45
ag99
ag98
ag98
ag45
ag45
ag98
ag45
ag98
ag98
ag99
ag45
ag98
ag99
ag97
ag45
ag98
ag98
ag97
ag97
ag97
ag99
ag98
ag98
ag98
ag98
ag98
ag98
ag98
ag45
ag98
ag45
ag97
ag97
ag45
ag97
ag98
ag98
ag45
ag97
ag98
ag97
ag45
ag99
ag98
ag98
ag45
ag98
ag97
ag45
ag98
ag97
ag98
ag98
ag45
ag45
ag97
ag98
ag98
ag98
ag98
ag98
ag97
ag97
ag45
asS'um_after'
p102
(lp103
g45
ag45
ag45
ag45
ag45
ag97
ag98
ag99
ag45
ag99
ag98
ag98
ag45
ag45
ag98
ag45
ag98
ag98
ag99
ag45
ag98
ag99
ag97
ag45
ag98
ag98
ag97
aNaNag99
ag98
ag98
ag98
ag98
ag98
ag98
ag98
ag45
ag98
ag45
ag97
ag97
ag45
ag97
ag98
ag98
ag45
ag97
ag98
ag97
ag45
ag99
ag98
ag98
ag45
ag98
ag97
ag45
ag98
ag97
ag98
ag98
ag45
ag45
ag97
ag98
ag98
ag98
ag98
ag98
ag97
ag97
ag45
asaa(lp104
S'index'
p105
aI24672
aatp106
Rp107
.