ccollections
OrderedDict
p0
((lp1
(lp2
S'combination_dict'
p3
ag0
((lp4
(lp5
S'r_to_g_config'
p6
aS'br'
p7
aa(lp8
S'num_turns'
p9
aI2
aa(lp10
S'start_direction'
p11
acutils_ms
StartDirection
p12
(I1
tp13
Rp14
aa(lp15
S'assistance_type'
p16
acutils_ms
AssistanceType
p17
(I0
tp18
Rp19
aa(lp20
S'start_mode'
p21
aS'x'
p22
aa(lp23
S'ui_given_a_noise'
p24
aF0.7
aa(lp25
S'um_given_ui_noise'
p26
aF0.3
aa(lp27
S'entropy_threshold'
p28
aF0.5
aatp29
Rp30
aa(lp31
S'data'
p32
accollections
defaultdict
p33
(c__builtin__
list
p34
tp35
Rp36
S'a'
p37
(lp38
S'mode_r'
p39
aS'move_n'
p40
aS'mode_l'
p41
ag40
ag41
ag41
ag40
ag39
ag41
ag39
ag40
ag39
ag39
ag39
ag40
ag41
ag39
ag39
ag39
aS'move_p'
p42
ag41
ag41
ag39
ag42
ag39
ag41
ag41
ag42
ag41
ag42
ag41
ag42
ag41
ag42
ag39
ag41
ag42
ag41
ag42
ag41
ag41
ag42
ag41
ag42
ag41
ag41
ag41
ag40
asS'assistance_match_with_ground_truth'
p43
(lp44
I01
aI00
aI01
aI00
aI00
aI01
aI00
aI00
aI00
aI01
aI00
aI00
aI00
aI01
aI01
aI00
aI00
aI00
aI01
aI00
aI00
aI00
aI01
aI00
aI00
aI00
aI01
aI00
aI01
aI00
aI01
aI01
aI01
aI00
aI00
aI01
aI01
aI01
aI00
aI00
aI01
aI01
aI00
aI01
aI00
aI00
aI01
aI01
asS'total_steps'
p45
I48
sS'sp'
p46
(lp47
(S'p0'
p48
I0
S'y'
p49
tp50
a(g48
I0
S't'
p51
tp52
a(g48
I0
g49
tp53
ag52
a(g48
I0
g51
tp54
ag53
a(g48
I0
S'x'
p55
tp56
a(g48
I0
g51
tp57
a(g48
I0
g55
tp58
ag50
ag56
a(g48
I0
g55
tp59
ag59
ag50
a(S'p1'
p60
I0
g49
tp61
a(g60
I0
g51
tp62
a(g60
I0
g51
tp63
ag63
a(g60
I0
g55
tp64
a(g60
I0
g49
tp65
a(g60
I0
g49
tp66
ag62
ag64
a(g60
I0
g51
tp67
a(g60
I0
g49
tp68
ag66
a(g60
I0
g55
tp69
ag65
ag69
ag65
ag69
a(S'p2'
p70
I0
g55
tp71
a(g70
I0
g51
tp72
a(g70
I0
g49
tp73
a(g60
I0
g49
tp74
ag69
ag71
ag72
a(g70
I0
g55
tp75
a(g70
I0
g55
tp76
ag72
a(g70
F1.5707963267948966
g51
tp77
a(g70
I0
g51
tp78
ag77
a(g70
F1.5707963267948966
g51
tp79
ag79
a(g70
F1.5707963267948966
g49
tp80
a(S'p3'
p81
F1.5707963267948966
g49
tp82
asS's'
p83
(lp84
(g48
I0
g22
tp85
ag50
ag52
ag53
ag52
ag54
ag53
ag56
ag57
ag58
ag50
ag56
ag59
ag59
ag50
ag61
ag62
ag63
ag63
ag64
ag65
ag66
ag62
ag64
ag67
ag68
ag66
ag69
ag65
ag69
ag65
ag69
ag71
ag72
ag73
ag74
ag69
ag71
ag72
ag75
ag76
ag72
ag77
ag78
ag77
ag79
ag79
ag80
asS'ui'
p86
(lp87
S'hp'
p88
ag88
aS'hs'
p89
ag88
aS'ss'
p90
ag89
ag88
ag89
ag89
ag88
ag46
ag90
ag46
ag88
ag90
ag46
ag46
ag46
ag88
ag46
ag90
ag89
ag88
ag89
ag89
ag89
ag89
ag88
ag89
ag88
ag46
ag89
ag89
ag89
ag90
ag89
ag46
ag89
ag88
ag90
ag89
ag46
ag90
ag89
ag46
ag46
ag89
ag90
asS'um_before'
p91
(lp92
g88
ag88
ag89
ag88
ag90
ag89
ag89
ag89
ag88
ag88
ag89
ag46
ag46
ag88
ag90
ag88
ag46
ag46
ag88
ag88
ag46
ag88
ag88
ag89
ag89
ag46
ag89
ag88
ag89
ag88
ag89
ag46
ag89
ag89
ag46
ag89
ag46
ag89
ag88
ag46
ag89
ag46
ag90
ag46
ag46
ag46
ag89
ag90
asS'um_after'
p93
(lp94
g88
ag88
ag89
ag88
ag90
ag89
ag89
ag89
ag88
ag88
ag89
ag46
ag46
ag88
ag90
ag88
ag46
ag46
ag88
ag88
ag46
ag88
ag88
ag89
ag89
ag46
ag89
ag88
ag89
ag88
ag89
ag46
ag89
ag89
ag46
ag89
ag46
ag89
ag88
ag46
ag89
ag46
ag90
ag46
ag46
ag46
ag89
ag90
asaa(lp95
S'index'
p96
aI101454
aatp97
Rp98
.