ccollections
OrderedDict
p0
((lp1
(lp2
S'index'
p3
aI9402
aa(lp4
S'combination_dict'
p5
ag0
((lp6
(lp7
S'r_to_g_config'
p8
aS'bl'
p9
aa(lp10
S'num_turns'
p11
aI2
aa(lp12
S'start_direction'
p13
acutils_ms
StartDirection
p14
(I3
tp15
Rp16
aa(lp17
S'assistance_type'
p18
acutils_ms
AssistanceType
p19
(I1
tp20
Rp21
aa(lp22
S'start_mode'
p23
aS't'
p24
aa(lp25
S'ui_given_a_noise'
p26
aF0.7
aa(lp27
S'um_given_ui_noise'
p28
aF0.1
aa(lp29
S'entropy_threshold'
p30
aF0.6
aa(lp31
S'is_assistance'
p32
aI01
aatp33
Rp34
aa(lp35
S'trials'
p36
ag0
((lp37
(lp38
I0
accollections
defaultdict
p39
(c__builtin__
list
p40
tp41
Rp42
S'a'
p43
(lp44
S'mode_r'
p45
aS'move_n'
p46
ag46
aS'mode_l'
p47
ag47
ag47
ag45
aS'move_p'
p48
ag47
ag45
ag46
ag45
ag46
ag45
ag46
ag47
ag46
ag47
ag46
ag45
ag45
ag45
ag46
ag45
ag45
ag46
ag47
ag46
ag45
ag46
ag47
ag47
ag47
ag46
ag45
ag47
ag47
ag47
ag45
ag46
ag45
ag46
ag45
ag46
ag47
ag45
ag45
ag46
ag47
ag47
ag47
ag46
ag46
ag45
ag46
ag47
ag47
ag47
ag46
asS'assistance_match_with_ground_truth'
p49
(lp50
I01
aI00
aI01
aI00
aI00
aI00
aI01
aI01
aI00
aI01
aI00
aI01
aI00
aI01
aI01
aI01
aI00
aI01
aI00
aI00
aI00
aI01
aI00
aI00
aI01
aI00
aI01
aI01
aI01
aI00
aI00
aI00
aI01
aI00
aI00
aI00
aI00
aI00
aI01
aI01
aI01
aI00
aI01
aI00
aI00
aI00
aI01
aI00
aI00
aI00
aI01
aI00
aI01
aI01
aI01
aI00
aI00
aI01
aI01
asS'total_steps'
p51
I59
sS'sp'
p52
(S'p3'
p53
F1.5707963267948966
S'x'
p54
tp55
sS's'
p56
(lp57
(S'p0'
p58
I0
g24
tp59
a(g58
I0
g54
tp60
a(g58
I0
g54
tp61
a(S'p1'
p62
I0
g54
tp63
a(g62
I0
g54
tp64
a(g62
I0
g54
tp65
a(g62
I0
S'y'
p66
tp67
a(g62
I0
S't'
p68
tp69
a(g62
F1.5707963267948966
g68
tp70
a(g62
F1.5707963267948966
g54
tp71
a(g62
F1.5707963267948966
g66
tp72
a(g62
F1.5707963267948966
g54
tp73
ag72
ag73
ag72
a(S'p2'
p74
F1.5707963267948966
g66
tp75
a(g74
F1.5707963267948966
g54
tp76
a(g74
F1.5707963267948966
g66
tp77
ag76
a(g74
F1.5707963267948966
g68
tp78
a(g74
F1.5707963267948966
g68
tp79
ag79
a(g74
F1.5707963267948966
g54
tp80
a(g62
F1.5707963267948966
g54
tp81
a(g62
F1.5707963267948966
g54
tp82
ag72
a(g58
F1.5707963267948966
g66
tp83
a(g58
F1.5707963267948966
g54
tp84
a(g62
F1.5707963267948966
g54
tp85
ag72
ag83
a(g58
F1.5707963267948966
g66
tp86
a(g58
F1.5707963267948966
g66
tp87
ag84
a(g58
F1.5707963267948966
g68
tp88
a(g58
F1.5707963267948966
g66
tp89
ag87
ag86
a(g58
F1.5707963267948966
g68
tp90
a(g58
F1.5707963267948966
g54
tp91
ag85
ag72
ag73
ag72
a(g62
F1.5707963267948966
g68
tp92
ag71
ag82
ag72
ag83
ag86
ag86
ag84
a(g58
F1.5707963267948966
g54
tp93
ag85
ag72
ag75
a(g74
F1.5707963267948966
g66
tp94
ag94
ag76
asS'ui'
p95
(lp96
S'hp'
p97
ag52
aS'ss'
p98
ag97
ag52
ag97
ag97
ag52
ag97
ag97
aS'hs'
p99
ag97
ag99
ag97
ag98
ag99
ag98
ag99
ag99
ag98
ag98
ag97
ag99
ag97
ag97
ag52
ag99
ag98
ag97
ag98
ag52
ag98
ag99
ag99
ag97
ag99
ag99
ag97
ag52
ag97
ag97
ag98
ag97
ag97
ag97
ag52
ag97
ag52
ag52
ag52
ag99
ag52
ag98
ag97
ag98
ag52
ag52
ag99
ag98
asS'um_before'
p100
(lp101
g97
ag52
ag98
ag98
ag52
ag97
ag97
ag52
ag97
ag97
ag99
ag97
ag99
ag97
ag98
ag99
ag97
ag99
ag99
ag98
ag98
ag97
ag52
ag52
ag97
ag52
ag99
ag98
ag97
ag52
ag52
ag98
ag99
ag99
ag99
ag98
ag52
ag97
ag97
ag98
ag97
ag99
ag97
ag97
ag97
ag52
ag97
ag52
ag52
ag52
ag99
ag52
ag98
ag97
ag98
ag52
ag52
ag99
ag98
asS'um_after'
p102
(lp103
g97
ag52
ag98
ag98
ag52
ag97
ag97
ag52
ag97
ag97
ag99
ag97
ag99
ag97
ag98
ag99
ag97
ag99
ag99
ag98
ag98
ag97
ag52
ag52
ag97
ag52
ag99
ag98
ag97
ag52
ag52
ag98
ag99
ag99
ag99
ag98
ag52
ag97
ag97
ag98
ag97
ag99
ag97
ag97
ag97
ag52
ag97
ag52
ag52
ag52
ag99
ag52
ag98
ag97
ag98
ag52
ag52
ag99
ag98
asaa(lp104
I1
ag39
(g40
tp105
Rp106
g43
(lp107
g45
ag46
ag46
ag47
ag48
ag48
ag45
ag47
ag47
ag47
ag47
ag47
ag46
ag47
ag46
ag47
ag45
ag46
asg49
(lp108
I01
aI00
aI01
aI01
aI00
aI00
aI00
aI00
aI00
aI00
aI00
aI01
aI00
aI01
aI00
aI00
aI01
aI01
asg51
I18
sg52
(g53
I0
g54
tp109
sg56
(lp110
(g58
I0
g24
tp111
ag60
ag61
ag63
a(g62
I0
g68
tp112
a(g62
I0
g68
tp113
a(g62
I0
g66
tp114
a(g74
I0
g66
tp115
a(g74
I0
g66
tp116
ag116
a(g74
I0
g66
tp117
ag117
a(g74
I0
g54
tp118
a(g74
I0
g66
tp119
ag118
ag119
a(g74
I0
g68
tp120
a(g74
I0
g54
tp121
asg95
(lp122
g97
ag52
ag98
ag99
ag97
ag99
ag52
ag52
ag52
ag98
ag98
ag99
ag97
ag99
ag97
ag98
ag97
ag98
asg100
(lp123
g97
ag52
ag98
ag99
ag98
ag99
ag98
ag52
ag52
ag98
ag98
ag99
ag97
ag99
ag97
ag97
ag97
ag98
asg102
(lp124
g97
ag52
ag98
ag99
ag98
ag99
ag98
ag52
ag52
ag98
ag98
ag99
ag97
ag99
ag97
ag97
ag97
ag98
asaa(lp125
I2
ag39
(g40
tp126
Rp127
g43
(lp128
g45
ag46
ag45
ag45
ag46
ag47
ag47
ag47
ag48
ag45
ag48
ag47
ag47
ag48
ag48
ag47
ag46
ag45
ag45
ag46
ag47
ag46
ag45
ag46
asg49
(lp129
I01
aI00
aI00
aI01
aI01
aI00
aI00
aI01
aI00
aI01
aI00
aI00
aI01
aI00
aI01
aI01
aI00
aI00
aI01
aI01
aI01
aI00
aI01
aI01
asg51
I24
sg52
g55
sg56
(lp130
(g58
I0
g24
tp131
ag60
a(g58
I0
g68
tp132
a(g58
I0
g68
tp133
ag60
ag63
ag64
ag65
ag112
ag114
ag69
a(g62
I0
g54
tp134
ag65
ag112
ag113
ag70
a(g62
F1.5707963267948966
g66
tp135
ag73
ag82
ag72
ag75
ag76
ag78
ag80
asg95
(lp136
g97
ag99
ag97
ag97
ag98
ag98
ag98
ag52
ag99
ag97
ag97
ag52
ag99
ag99
ag52
ag99
ag99
ag52
ag97
ag98
ag99
ag99
ag97
ag98
asg100
(lp137
g97
ag99
ag98
ag97
ag98
ag98
ag52
ag99
ag99
ag97
ag97
ag52
ag99
ag98
ag52
ag99
ag99
ag52
ag97
ag98
ag99
ag99
ag97
ag98
asg102
(lp138
g97
ag99
ag98
ag97
ag98
ag98
ag52
ag99
ag99
ag97
ag97
ag52
ag99
ag98
ag52
ag99
ag99
ag52
ag97
ag98
ag99
ag99
ag97
ag98
asaa(lp139
I3
ag39
(g40
tp140
Rp141
g43
(lp142
g45
ag45
ag46
ag45
ag45
ag46
ag45
ag46
ag47
ag48
ag47
ag48
ag47
ag47
ag48
ag48
ag47
ag45
ag45
ag45
ag45
ag45
ag46
ag47
ag46
ag45
ag46
ag45
ag45
ag45
ag45
ag46
asg49
(lp143
I00
aI01
aI00
aI00
aI01
aI00
aI01
aI01
aI01
aI01
aI00
aI00
aI00
aI01
aI00
aI01
aI00
aI00
aI00
aI00
aI00
aI01
aI01
aI01
aI00
aI01
aI00
aI00
aI00
aI00
aI01
aI01
asg51
I32
sg52
g55
sg56
(lp144
(g58
I0
g24
tp145
a(g58
I0
g68
tp146
ag60
ag132
ag146
ag60
ag132
ag60
ag63
ag112
ag70
a(g62
I0
g68
tp147
ag134
ag64
ag112
ag113
ag70
ag71
a(g62
F1.5707963267948966
g54
tp148
ag82
ag82
ag148
ag72
ag75
ag76
ag78
ag80
ag78
a(g74
F1.5707963267948966
g68
tp149
ag149
ag149
ag80
asg95
(lp150
g52
ag97
ag99
ag52
ag98
ag99
ag97
ag98
ag99
ag52
ag99
ag97
ag98
ag99
ag98
ag52
ag98
ag98
ag52
ag52
ag98
ag97
ag98
ag99
ag99
ag97
ag99
ag52
ag52
ag52
ag97
ag98
asg100
(lp151
g52
ag97
ag99
ag52
ag97
ag99
ag97
ag98
ag99
ag52
ag98
ag97
ag98
ag99
ag98
ag52
ag97
ag98
ag52
ag52
ag98
ag97
ag98
ag99
ag99
ag97
ag99
ag52
ag52
ag52
ag97
ag98
asg102
(lp152
g52
ag97
ag99
ag52
ag97
ag99
ag97
ag98
ag99
ag52
ag98
ag97
ag98
ag99
ag98
ag52
ag97
ag98
ag52
ag52
ag98
ag97
ag98
ag99
ag99
ag97
ag99
ag52
ag52
ag52
ag97
ag98
asaa(lp153
I4
ag39
(g40
tp154
Rp155
g43
(lp156
g45
ag47
ag47
ag47
ag46
ag45
ag46
ag45
ag45
ag46
ag45
ag45
ag45
ag46
ag47
ag47
ag47
ag46
ag45
ag45
ag46
ag46
ag45
ag46
ag47
ag48
ag45
ag48
ag47
ag47
ag47
ag46
ag47
ag46
ag45
ag46
asg49
(lp157
I00
aI00
aI00
aI01
aI00
aI01
aI00
aI00
aI01
aI00
aI00
aI00
aI01
aI00
aI00
aI00
aI01
aI00
aI00
aI01
aI00
aI00
aI01
aI01
aI01
aI00
aI01
aI01
aI00
aI00
aI01
aI01
aI01
aI00
aI01
aI01
asg51
I36
sg52
g55
sg56
(lp158
(g58
I0
g24
tp159
a(g58
I0
g66
tp160
a(g58
I0
g66
tp161
ag161
a(g58
I0
g54
tp162
ag132
ag60
ag132
ag146
ag60
ag132
ag146
ag146
ag60
a(g58
I0
g66
tp163
ag161
ag161
ag162
ag132
ag146
ag60
ag61
ag132
ag60
ag63
ag112
ag114
ag69
ag70
a(g62
F1.5707963267948966
g68
tp164
ag164
ag135
ag75
ag76
ag78
ag80
asg95
(lp165
g98
ag52
ag52
ag99
ag98
ag97
ag99
ag52
ag97
ag99
ag52
ag52
ag97
ag97
ag52
ag52
ag99
ag99
ag52
ag97
ag52
ag99
ag97
ag97
ag99
ag99
ag97
ag52
ag52
ag52
ag99
ag98
ag99
ag99
ag97
ag98
asg100
(lp166
g99
ag52
ag52
ag99
ag99
ag97
ag99
ag52
ag97
ag99
ag52
ag52
ag97
ag97
ag52
ag52
ag99
ag99
ag52
ag97
ag52
ag99
ag97
ag98
ag99
ag99
ag97
ag52
ag52
ag52
ag99
ag98
ag99
ag99
ag97
ag98
asg102
(lp167
g99
ag52
ag52
ag99
ag99
ag97
ag99
ag52
ag97
ag99
ag52
ag52
ag97
ag97
ag52
ag52
ag99
ag99
ag52
ag97
ag52
ag99
ag97
ag98
ag99
ag99
ag97
ag52
ag52
ag52
ag99
ag98
ag99
ag99
ag97
ag98
asaa(lp168
I5
ag39
(g40
tp169
Rp170
g43
(lp171
g45
ag45
ag45
ag45
ag46
ag47
ag48
ag47
ag48
ag47
ag46
ag45
ag45
ag45
ag45
ag45
ag45
ag45
ag46
ag47
ag47
ag47
ag45
ag46
ag47
ag45
ag46
ag45
ag46
ag45
ag46
ag45
ag45
ag45
ag46
ag47
ag46
ag47
ag45
ag46
ag47
ag47
ag47
ag46
ag45
ag46
ag47
ag46
asg49
(lp172
I00
aI00
aI00
aI01
aI01
aI01
aI00
aI01
aI01
aI01
aI00
aI00
aI00
aI00
aI00
aI00
aI00
aI01
aI01
aI00
aI00
aI00
aI01
aI00
aI00
aI01
aI00
aI01
aI00
aI01
aI00
aI00
aI00
aI01
aI01
aI01
aI00
aI00
aI01
aI00
aI00
aI00
aI01
aI00
aI01
aI01
aI01
aI01
asg51
I48
sg52
g55
sg56
(lp173
(g58
I0
g24
tp174
ag146
ag146
ag146
ag60
ag63
ag112
ag134
ag112
ag70
ag135
ag73
ag82
ag82
ag82
ag82
ag148
ag82
ag72
ag75
ag94
ag94
a(g74
F1.5707963267948966
g68
tp175
ag80
ag77
ag175
ag80
ag78
ag80
ag78
ag80
ag81
ag82
ag82
ag72
ag75
ag76
ag77
ag175
ag80
ag77
a(g74
F1.5707963267948966
g66
tp176
ag176
ag76
ag81
ag72
ag75
ag76
asg95
(lp177
g52
ag52
ag52
ag97
ag98
ag99
ag97
ag99
ag52
ag99
ag99
ag52
ag52
ag52
ag52
ag52
ag52
ag97
ag98
ag52
ag52
ag97
ag97
ag98
ag52
ag97
ag99
ag97
ag99
ag97
ag52
ag52
ag52
ag97
ag98
ag99
ag97
ag97
ag97
ag97
ag98
ag98
ag99
ag98
ag97
ag98
ag99
ag98
asg100
(lp178
g52
ag52
ag52
ag97
ag98
ag99
ag97
ag99
ag52
ag99
ag99
ag52
ag52
ag52
ag52
ag98
ag52
ag97
ag98
ag52
ag52
ag97
ag97
ag97
ag97
ag97
ag99
ag97
ag99
ag97
ag52
ag52
ag52
ag97
ag98
ag99
ag97
ag97
ag97
ag97
ag98
ag98
ag99
ag52
ag97
ag98
ag99
ag98
asg102
(lp179
g52
ag52
ag52
ag97
ag98
ag99
ag97
ag99
ag52
ag99
ag99
ag52
ag52
ag52
ag52
ag98
ag52
ag97
ag98
ag52
ag52
ag97
ag97
ag97
ag97
ag97
ag99
ag97
ag99
ag97
ag52
ag52
ag52
ag97
ag98
ag99
ag97
ag97
ag97
ag97
ag98
ag98
ag99
ag52
ag97
ag98
ag99
ag98
asaa(lp180
I6
ag39
(g40
tp181
Rp182
g43
(lp183
g45
ag46
ag45
ag46
ag45
ag45
ag45
ag46
ag46
ag47
ag47
ag48
ag47
ag47
ag45
ag47
ag45
ag46
ag47
ag47
ag46
ag47
ag48
ag47
ag46
ag45
ag46
ag45
ag46
ag47
ag46
asg49
(lp184
I01
aI00
aI01
aI00
aI00
aI00
aI01
aI00
aI01
aI00
aI01
aI00
aI00
aI00
aI00
aI00
aI01
aI00
aI00
aI01
aI01
aI01
aI01
aI01
aI00
aI01
aI00
aI01
aI01
aI01
aI01
asg51
I31
sg52
g55
sg56
(lp185
(g58
I0
g24
tp186
ag60
ag132
ag60
ag132
ag146
ag146
ag60
ag61
ag63
ag65
ag112
ag134
ag64
ag67
a(g58
I0
g66
tp187
a(g58
I0
g68
tp188
ag60
ag163
ag161
ag162
ag63
ag112
ag70
ag135
ag73
ag72
ag73
ag72
ag75
ag76
asg95
(lp189
g97
ag99
ag97
ag99
ag52
ag52
ag97
ag52
ag98
ag52
ag99
ag97
ag97
ag52
ag52
ag97
ag97
ag97
ag52
ag99
ag98
ag99
ag52
ag99
ag99
ag97
ag99
ag97
ag98
ag99
ag98
asg100
(lp190
g97
ag99
ag97
ag99
ag52
ag52
ag97
ag52
ag98
ag52
ag99
ag97
ag98
ag97
ag52
ag97
ag97
ag97
ag52
ag99
ag98
ag99
ag52
ag99
ag99
ag97
ag99
ag97
ag98
ag99
ag98
asg102
(lp191
g97
ag99
ag97
ag99
ag52
ag52
ag97
ag52
ag98
ag52
ag99
ag97
ag98
ag97
ag52
ag97
ag97
ag97
ag52
ag99
ag98
ag99
ag52
ag99
ag99
ag97
ag99
ag97
ag98
ag99
ag98
asaa(lp192
I7
ag39
(g40
tp193
Rp194
g43
(lp195
g45
ag45
ag45
ag45
ag46
ag47
ag47
ag48
ag47
ag47
ag46
ag45
ag45
ag46
ag45
ag46
ag47
ag47
ag46
asg49
(lp196
I00
aI00
aI00
aI01
aI01
aI00
aI01
aI01
aI00
aI01
aI00
aI00
aI01
aI00
aI01
aI01
aI00
aI01
aI01
asg51
I19
sg52
g55
sg56
(lp197
(g58
I0
g24
tp198
ag146
ag146
ag133
ag60
ag63
ag65
ag112
ag70
ag164
ag135
ag73
ag82
ag72
ag73
ag72
ag75
ag94
ag76
asg95
(lp199
g52
ag52
ag97
ag97
ag98
ag52
ag99
ag52
ag99
ag99
ag99
ag97
ag97
ag99
ag97
ag98
ag99
ag99
ag98
asg100
(lp200
g52
ag52
ag98
ag97
ag98
ag52
ag99
ag52
ag52
ag99
ag99
ag52
ag97
ag99
ag97
ag98
ag52
ag99
ag98
asg102
(lp201
g52
ag52
ag98
ag97
ag98
ag52
ag99
ag52
ag52
ag99
ag99
ag52
ag97
ag99
ag97
ag98
ag52
ag99
ag98
asaa(lp202
I8
ag39
(g40
tp203
Rp204
g43
(lp205
g45
ag45
ag45
ag46
ag47
ag45
ag48
ag47
ag48
ag47
ag47
ag45
ag48
ag47
ag48
ag47
ag46
ag47
ag46
ag45
ag46
ag45
ag45
ag45
ag46
ag47
ag48
ag47
ag47
ag46
ag47
ag47
ag46
ag47
ag47
ag46
ag47
ag46
ag45
ag46
ag45
ag46
ag45
ag46
ag47
ag46
asg49
(lp206
I00
aI00
aI01
aI01
aI00
aI01
aI01
aI00
aI00
aI00
aI00
aI01
aI00
aI01
aI01
aI01
aI01
aI01
aI00
aI01
aI00
aI00
aI00
aI01
aI00
aI00
aI01
aI00
aI01
aI01
aI00
aI01
aI00
aI00
aI01
aI00
aI01
aI00
aI01
aI00
aI01
aI00
aI01
aI01
aI01
aI01
asg51
I46
sg52
g55
sg56
(lp207
(g58
I0
g24
tp208
ag133
ag146
ag60
ag63
ag67
ag69
ag70
ag147
ag134
ag65
ag67
ag69
ag134
ag112
ag70
ag135
ag75
ag76
ag81
ag72
ag73
ag82
ag82
ag72
ag92
ag147
ag70
ag164
ag135
ag75
ag176
ag76
ag77
ag176
ag76
ag77
ag76
ag78
ag80
ag81
ag72
ag73
ag72
ag75
ag76
asg95
(lp209
g98
ag52
ag97
ag98
ag97
ag97
ag99
ag98
ag97
ag52
ag97
ag97
ag97
ag99
ag52
ag99
ag99
ag99
ag99
ag97
ag99
ag52
ag97
ag97
ag52
ag97
ag52
ag52
ag99
ag98
ag97
ag99
ag98
ag99
ag99
ag97
ag99
ag99
ag97
ag52
ag97
ag99
ag97
ag99
ag99
ag98
asg100
(lp210
g98
ag52
ag97
ag98
ag97
ag97
ag52
ag98
ag97
ag52
ag97
ag97
ag97
ag99
ag52
ag99
ag98
ag99
ag52
ag97
ag99
ag52
ag52
ag97
ag97
ag98
ag52
ag52
ag99
ag98
ag98
ag99
ag97
ag98
ag99
ag97
ag99
ag99
ag97
ag52
ag97
ag99
ag97
ag98
ag99
ag98
asg102
(lp211
g98
ag52
ag97
ag98
ag97
ag97
ag52
ag98
ag97
ag52
ag97
ag97
ag97
ag99
ag52
ag99
ag98
ag99
ag52
ag97
ag99
ag52
ag52
ag97
ag97
ag98
ag52
ag52
ag99
ag98
ag98
ag99
ag97
ag98
ag99
ag97
ag99
ag99
ag97
ag52
ag97
ag99
ag97
ag98
ag99
ag98
asaa(lp212
I9
ag39
(g40
tp213
Rp214
g43
(lp215
g45
ag45
ag46
ag45
ag46
ag45
ag46
ag45
ag45
ag45
ag46
ag45
ag46
ag45
ag46
ag45
ag46
ag47
ag46
ag47
ag47
ag48
ag48
ag47
ag48
ag47
ag45
ag45
ag45
ag45
ag46
ag47
ag45
ag46
ag45
ag46
ag45
ag45
ag46
ag45
ag46
ag45
ag45
ag46
ag45
ag46
asg49
(lp216
I00
aI01
aI00
aI01
aI00
aI01
aI00
aI00
aI00
aI01
aI00
aI01
aI00
aI01
aI00
aI01
aI00
aI01
aI01
aI00
aI01
aI00
aI00
aI01
aI01
aI00
aI00
aI00
aI00
aI01
aI01
aI00
aI01
aI00
aI01
aI00
aI00
aI01
aI00
aI01
aI00
aI00
aI01
aI00
aI01
aI01
asg51
I46
sg52
g55
sg56
(lp217
(g58
I0
g24
tp218
ag146
ag60
ag132
ag60
ag132
ag60
ag132
ag146
ag146
ag60
ag132
ag60
ag132
ag60
ag132
ag60
ag163
ag162
ag63
ag65
ag112
ag113
ag134
ag112
ag70
ag71
ag148
ag82
ag148
ag72
ag75
ag175
ag80
ag78
ag80
ag78
ag149
ag80
ag78
ag80
ag78
ag79
ag80
ag78
ag80
asg95
(lp219
g52
ag97
ag52
ag52
ag99
ag97
ag99
ag52
ag97
ag52
ag99
ag97
ag99
ag97
ag98
ag97
ag97
ag99
ag98
ag52
ag99
ag98
ag97
ag99
ag52
ag97
ag97
ag52
ag97
ag97
ag98
ag97
ag97
ag99
ag97
ag99
ag52
ag97
ag99
ag97
ag99
ag98
ag97
ag99
ag97
ag98
asg100
(lp220
g52
ag97
ag99
ag97
ag99
ag97
ag99
ag52
ag52
ag97
ag99
ag97
ag99
ag97
ag99
ag97
ag97
ag99
ag98
ag52
ag99
ag98
ag97
ag99
ag52
ag97
ag98
ag52
ag98
ag97
ag98
ag97
ag97
ag99
ag97
ag99
ag52
ag97
ag99
ag97
ag99
ag98
ag97
ag99
ag97
ag98
asg102
(lp221
g52
ag97
ag99
ag97
ag99
ag97
ag99
ag52
ag52
ag97
ag99
ag97
ag99
ag97
ag99
ag97
ag97
ag99
ag98
ag52
ag99
ag98
ag97
ag99
ag52
ag97
ag98
ag52
ag98
ag97
ag98
ag97
ag97
ag99
ag97
ag99
ag52
ag97
ag99
ag97
ag99
ag98
ag97
ag99
ag97
ag98
asaatp222
Rp223
aatp224
Rp225
.