ccollections
OrderedDict
p0
((lp1
(lp2
S'index'
p3
aI5936
aa(lp4
S'combination_dict'
p5
ag0
((lp6
(lp7
S'r_to_g_config'
p8
aS'tl'
p9
aa(lp10
S'num_turns'
p11
aI2
aa(lp12
S'start_direction'
p13
acutils_ms
StartDirection
p14
(I1
tp15
Rp16
aa(lp17
S'assistance_type'
p18
acutils_ms
AssistanceType
p19
(I0
tp20
Rp21
aa(lp22
S'start_mode'
p23
aS't'
p24
aa(lp25
S'ui_given_a_noise'
p26
aF0.1
aa(lp27
S'um_given_ui_noise'
p28
aF0.3
aa(lp29
S'entropy_threshold'
p30
aF0.8
aa(lp31
S'is_assistance'
p32
aI01
aatp33
Rp34
aa(lp35
S'trials'
p36
ag0
((lp37
(lp38
I0
accollections
defaultdict
p39
(c__builtin__
list
p40
tp41
Rp42
S'a'
p43
(lp44
S'mode_l'
p45
ag45
aS'move_p'
p46
aS'mode_r'
p47
ag47
ag47
ag47
ag46
ag46
ag47
aS'move_n'
p48
ag47
ag48
ag47
ag48
ag47
ag46
asS'assistance_match_with_ground_truth'
p49
(lp50
I00
aI01
aI01
aI00
aI00
aI00
aI01
aI00
aI01
aI01
aI00
aI01
aI00
aI01
aI01
aI01
aI01
asS'total_steps'
p51
I17
sS'sp'
p52
(S'p3'
p53
F1.5707963267948966
S'y'
p54
tp55
sS's'
p56
(lp57
(S'p0'
p58
I0
g24
tp59
ag59
a(g58
I0
g54
tp60
a(S'p1'
p61
I0
g54
tp62
ag62
ag62
ag62
a(g61
I0
S't'
p63
tp64
ag64
a(g61
F1.5707963267948966
g63
tp65
a(g61
F1.5707963267948966
S'x'
p66
tp67
a(g61
F1.5707963267948966
g63
tp68
ag67
ag68
ag67
a(S'p2'
p69
F1.5707963267948966
g66
tp70
a(g69
F1.5707963267948966
g54
tp71
asS'ui'
p72
(lp73
S'hp'
p74
aS'hs'
p75
ag52
ag52
ag75
ag74
ag74
ag75
ag52
ag74
aS'ss'
p76
ag74
ag76
ag74
ag76
ag74
ag52
asS'um_before'
p77
(lp78
g76
ag75
ag52
ag52
ag75
ag76
ag74
ag76
ag52
ag74
ag75
ag74
ag75
ag74
ag76
ag74
ag52
asS'um_after'
p79
(lp80
Nag75
ag52
aNaNaNag74
aNag52
ag74
ag75
ag74
ag75
ag74
ag76
ag74
ag52
asaa(lp81
I1
ag39
(g40
tp82
Rp83
g43
(lp84
g45
ag46
ag47
ag46
ag46
ag47
ag48
ag47
ag47
ag46
asg49
(lp85
I01
aI01
aI01
aI00
aI01
aI01
aI01
aI00
aI01
aI01
asg51
I10
sg52
g55
sg56
(lp86
(g58
I0
g24
tp87
ag60
ag62
ag64
ag64
ag65
ag67
ag70
ag70
ag71
asg72
(lp88
g75
ag52
ag74
ag52
ag52
ag74
ag76
ag74
ag74
ag52
asg77
(lp89
g75
ag52
ag74
ag76
ag52
ag74
ag76
ag52
ag74
ag52
asg79
(lp90
g75
ag52
ag74
aNag52
ag74
ag76
aNag74
ag52
asaa(lp91
I2
ag39
(g40
tp92
Rp93
g43
(lp94
g45
ag45
ag45
ag45
ag46
ag46
ag46
ag47
ag46
ag47
ag48
ag47
ag47
ag46
asg49
(lp95
I00
aI00
aI00
aI01
aI00
aI00
aI01
aI01
aI01
aI01
aI01
aI00
aI01
aI01
asg51
I14
sg52
g55
sg56
(lp96
(g58
I0
g24
tp97
ag97
ag97
ag97
ag60
ag60
ag60
ag62
ag64
ag65
ag67
ag70
ag70
ag71
asg72
(lp98
g75
ag75
ag75
ag75
ag52
ag52
ag52
ag74
ag52
ag74
ag76
ag74
ag74
ag52
asg77
(lp99
g52
ag52
ag52
ag75
ag76
ag75
ag52
ag74
ag52
ag74
ag76
ag52
ag74
ag52
asg79
(lp100
NaNaNag75
aNaNag52
ag74
ag52
ag74
ag76
aNag74
ag52
asaa(lp101
I3
ag39
(g40
tp102
Rp103
g43
(lp104
g45
ag46
ag46
ag46
ag47
ag47
ag46
ag47
ag47
ag48
ag48
ag47
ag46
asg49
(lp105
I01
aI00
aI00
aI01
aI00
aI01
aI01
aI00
aI01
aI00
aI01
aI01
aI01
asg51
I13
sg52
g55
sg56
(lp106
(g58
I0
g24
tp107
ag60
ag60
ag60
ag62
ag62
ag64
ag65
ag65
ag67
ag67
ag70
ag71
asg72
(lp108
g75
ag52
ag75
ag52
ag74
ag74
ag52
ag74
ag74
ag52
ag76
ag74
ag52
asg77
(lp109
g75
ag75
ag75
ag52
ag76
ag74
ag52
ag76
ag74
ag52
ag76
ag74
ag52
asg79
(lp110
g75
aNaNag52
aNag74
ag52
aNag74
aNag76
ag74
ag52
asaa(lp111
I4
ag39
(g40
tp112
Rp113
g43
(lp114
g45
ag45
ag46
ag47
ag47
ag47
ag47
ag47
ag46
ag47
ag47
ag48
ag48
ag47
ag46
asg49
(lp115
I00
aI01
aI01
aI00
aI00
aI00
aI00
aI01
aI01
aI00
aI01
aI00
aI01
aI01
aI01
asg51
I15
sg52
g55
sg56
(lp116
(g58
I0
g24
tp117
ag117
ag60
ag62
ag62
ag62
ag62
ag62
ag64
ag65
ag65
ag67
ag67
ag70
ag71
asg72
(lp118
g75
ag75
ag52
ag74
ag74
ag74
ag74
ag74
ag52
ag74
ag74
ag74
ag76
ag74
ag52
asg77
(lp119
g74
ag75
ag52
ag52
ag52
ag75
ag76
ag74
ag52
ag75
ag74
ag74
ag76
ag74
ag52
asg79
(lp120
Nag75
ag52
aNaNaNaNag74
ag52
aNag74
aNag76
ag74
ag52
asaa(lp121
I5
ag39
(g40
tp122
Rp123
g43
(lp124
g45
ag46
ag46
ag47
ag46
ag47
ag47
ag47
ag48
ag48
ag47
ag46
ag46
asg49
(lp125
I01
aI00
aI01
aI01
aI01
aI00
aI00
aI01
aI00
aI01
aI01
aI00
aI01
asg51
I13
sg52
g55
sg56
(lp126
(g58
I0
g24
tp127
ag60
ag60
ag62
ag64
ag65
ag65
ag65
ag67
ag67
ag70
ag71
ag71
asg72
(lp128
g75
ag52
ag52
ag74
ag52
ag74
ag74
ag74
ag76
ag76
ag74
ag52
ag52
asg77
(lp129
g75
ag74
ag52
ag74
ag52
ag76
ag76
ag74
ag52
ag76
ag74
ag75
ag52
asg79
(lp130
g75
aNag52
ag74
ag52
aNaNag74
aNag76
ag74
aNag52
asaa(lp131
I6
ag39
(g40
tp132
Rp133
g43
(lp134
g45
ag46
ag46
ag46
ag47
ag46
ag47
ag48
ag47
ag46
asg49
(lp135
I01
aI00
aI00
aI01
aI01
aI01
aI01
aI01
aI01
aI01
asg51
I10
sg52
g55
sg56
(lp136
(g58
I0
g24
tp137
ag60
ag60
ag60
ag62
ag64
ag65
ag67
ag70
ag71
asg72
(lp138
g75
ag52
ag52
ag52
ag74
ag52
ag74
ag76
ag74
ag52
asg77
(lp139
g75
ag75
ag75
ag52
ag74
ag52
ag74
ag76
ag74
ag52
asg79
(lp140
g75
aNaNag52
ag74
ag52
ag74
ag76
ag74
ag52
asaa(lp141
I7
ag39
(g40
tp142
Rp143
g43
(lp144
g45
ag46
ag46
ag47
ag47
ag47
ag47
ag47
ag46
ag46
ag47
ag48
ag48
ag48
ag47
ag47
ag46
asg49
(lp145
I01
aI00
aI01
aI00
aI00
aI00
aI00
aI01
aI00
aI01
aI01
aI00
aI00
aI01
aI00
aI01
aI01
asg51
I17
sg52
g55
sg56
(lp146
(g58
I0
g24
tp147
ag60
ag60
ag62
ag62
ag62
ag62
ag62
ag64
ag64
ag65
ag67
ag67
ag67
ag70
ag70
ag71
asg72
(lp148
g75
ag52
ag52
ag75
ag74
ag76
ag76
ag74
ag52
ag52
ag74
ag52
ag74
ag76
ag74
ag74
ag52
asg77
(lp149
g75
ag75
ag52
ag75
ag75
ag76
ag76
ag74
ag75
ag52
ag74
ag52
ag74
ag76
ag76
ag74
ag52
asg79
(lp150
g75
aNag52
aNaNaNaNag74
aNag52
ag74
aNaNag76
aNag74
ag52
asaa(lp151
I8
ag39
(g40
tp152
Rp153
g43
(lp154
g45
ag45
ag45
ag46
ag46
ag46
ag47
ag47
ag47
ag46
ag47
ag47
ag47
ag47
ag48
ag47
ag47
ag48
ag47
ag46
asg49
(lp155
I00
aI00
aI01
aI00
aI00
aI01
aI00
aI00
aI01
aI01
aI00
aI00
aI00
aI01
aI00
aI00
aI01
aI01
aI01
aI01
asg51
I20
sg52
g55
sg56
(lp156
(g58
I0
g24
tp157
ag157
ag157
ag60
ag60
ag60
ag62
ag62
ag62
ag64
ag65
ag65
ag65
ag65
ag67
ag68
ag68
ag67
ag70
ag71
asg72
(lp158
g52
ag75
ag75
ag52
ag52
ag52
ag74
ag74
ag74
ag52
ag74
ag75
ag75
ag74
ag74
ag74
ag74
ag76
ag74
ag52
asg77
(lp159
g52
ag76
ag75
ag74
ag75
ag52
ag76
ag52
ag74
ag52
ag76
ag76
ag75
ag74
ag75
ag76
ag74
ag76
ag74
ag52
asg79
(lp160
NaNag75
aNaNag52
aNaNag74
ag52
aNaNaNag74
ag75
aNag74
ag76
ag74
ag52
asaa(lp161
I9
ag39
(g40
tp162
Rp163
g43
(lp164
g45
ag46
ag46
ag46
ag46
ag46
ag46
ag47
ag47
ag47
ag46
ag47
ag47
ag47
ag47
ag48
ag48
ag48
ag48
ag47
ag46
ag46
asg49
(lp165
I01
aI00
aI00
aI00
aI00
aI00
aI01
aI00
aI00
aI01
aI01
aI00
aI00
aI00
aI01
aI00
aI00
aI00
aI01
aI01
aI00
aI01
asg51
I22
sg52
g55
sg56
(lp166
(g58
I0
g24
tp167
ag60
ag60
ag60
ag60
ag60
ag60
ag62
ag62
ag62
ag64
ag65
ag65
ag65
ag65
ag67
ag67
ag67
ag67
ag70
ag71
ag71
asg72
(lp168
g75
ag52
ag52
ag76
ag52
ag52
ag52
ag74
ag74
ag74
ag52
ag74
ag74
ag75
ag74
ag76
ag76
ag76
ag76
ag74
ag52
ag52
asg77
(lp169
g75
ag74
ag75
ag76
ag75
ag76
ag52
ag75
ag76
ag74
ag52
ag52
ag75
ag75
ag74
ag52
ag74
ag52
ag76
ag74
ag75
ag52
asg79
(lp170
g75
aNaNaNaNaNag52
aNaNag74
ag52
aNaNaNag74
aNaNaNag76
ag74
aNag52
asaatp171
Rp172
aatp173
Rp174
.