ccollections
OrderedDict
p0
((lp1
(lp2
S'combination_dict'
p3
ag0
((lp4
(lp5
S'r_to_g_config'
p6
aS'bl'
p7
aa(lp8
S'num_turns'
p9
aI2
aa(lp10
S'start_direction'
p11
acutils_ms
StartDirection
p12
(I1
tp13
Rp14
aa(lp15
S'assistance_type'
p16
acutils_ms
AssistanceType
p17
(I0
tp18
Rp19
aa(lp20
S'start_mode'
p21
aS'x'
p22
aa(lp23
S'ui_given_a_noise'
p24
aF0.5
aa(lp25
S'um_given_ui_noise'
p26
aF0.5
aa(lp27
S'entropy_threshold'
p28
aF0.6
aatp29
Rp30
aa(lp31
S'data'
p32
accollections
defaultdict
p33
(c__builtin__
list
p34
tp35
Rp36
S'a'
p37
(lp38
S'mode_r'
p39
aS'mode_l'
p40
ag39
aS'move_n'
p41
ag40
ag40
ag41
ag40
ag40
ag40
ag40
ag39
ag40
ag40
ag40
ag41
ag40
ag39
ag39
ag41
ag40
aS'move_p'
p42
ag42
ag39
ag42
ag39
ag40
ag39
ag39
ag39
ag39
ag39
ag40
ag39
ag39
ag41
ag40
ag39
ag39
ag41
ag40
ag42
ag40
ag42
ag40
ag40
ag40
ag40
ag40
ag42
ag40
ag41
ag40
ag41
ag40
ag40
ag41
ag40
ag41
ag40
ag40
ag39
ag39
ag39
ag39
ag41
ag39
ag39
ag41
ag40
ag40
ag39
ag39
ag39
ag41
ag39
ag39
ag39
ag40
ag41
ag39
ag39
ag39
ag40
ag41
ag39
ag41
ag41
ag40
ag41
ag40
ag40
ag41
ag39
ag40
ag42
ag42
ag39
ag40
ag41
ag40
ag40
ag40
ag39
ag42
ag40
ag41
ag40
ag39
ag39
ag39
ag41
ag39
ag39
ag39
ag40
ag41
ag40
ag39
ag41
ag39
ag41
ag39
ag39
ag41
asS'assistance_match_with_ground_truth'
p43
(lp44
I00
aI00
aI01
aI00
aI00
aI01
aI01
aI00
aI00
aI00
aI00
aI00
aI00
aI00
aI01
aI00
aI00
aI00
aI01
aI01
aI01
aI00
aI00
aI01
aI00
aI00
aI00
aI00
aI00
aI00
aI00
aI00
aI00
aI00
aI01
aI00
aI00
aI00
aI01
aI01
aI01
aI01
aI00
aI00
aI00
aI00
aI00
aI00
aI01
aI01
aI01
aI00
aI01
aI00
aI00
aI01
aI00
aI01
aI00
aI00
aI00
aI00
aI00
aI00
aI01
aI00
aI00
aI01
aI00
aI00
aI00
aI00
aI00
aI01
aI00
aI00
aI00
aI00
aI01
aI00
aI00
aI00
aI00
aI01
aI00
aI01
aI00
aI01
aI01
aI00
aI00
aI01
aI01
aI00
aI00
aI00
aI00
aI00
aI01
aI01
aI00
aI00
aI00
aI01
aI01
aI01
aI00
aI00
aI00
aI00
aI01
aI00
aI00
aI00
aI00
aI01
aI00
aI00
aI01
aI00
aI01
aI00
aI00
aI01
aI01
asS'total_steps'
p45
I125
sS'sp'
p46
(lp47
(S'p0'
p48
I0
S't'
p49
tp50
a(g48
I0
S'x'
p51
tp52
a(g48
I0
S'y'
p53
tp54
a(g48
I0
g49
tp55
a(g48
I0
g49
tp56
a(g48
I0
g53
tp57
a(S'p1'
p58
I0
g53
tp59
a(g58
I0
g53
tp60
ag60
a(g58
I0
g53
tp61
a(g58
I0
g49
tp62
a(g58
I0
g53
tp63
ag60
ag61
a(g58
I0
g51
tp64
a(g58
I0
g53
tp65
ag62
a(g58
I0
g49
tp66
a(g58
I0
g51
tp67
a(S'p2'
p68
I0
g51
tp69
a(g68
I0
g49
tp70
a(g68
I0
g49
tp71
a(g68
I0
g53
tp72
a(g68
I0
g49
tp73
ag72
a(g58
I0
g53
tp74
ag62
a(g58
I0
g49
tp75
ag75
ag66
ag66
ag63
ag62
ag75
ag67
ag65
ag62
ag75
ag67
ag69
ag70
a(g68
F1.5707963267948966
g49
tp76
a(g68
I0
g49
tp77
a(g68
I0
g51
tp78
a(g68
I0
g51
tp79
ag79
ag79
ag79
ag70
ag76
a(g68
F1.5707963267948966
g53
tp80
a(g68
F1.5707963267948966
g49
tp81
ag80
ag81
a(g68
F1.5707963267948966
g49
tp82
ag80
a(g58
F1.5707963267948966
g53
tp83
a(g58
F1.5707963267948966
g51
tp84
a(g58
F1.5707963267948966
g53
tp85
a(g58
F1.5707963267948966
g53
tp86
a(g58
F1.5707963267948966
g49
tp87
a(g58
F1.5707963267948966
g49
tp88
a(g58
F1.5707963267948966
g49
tp89
ag88
a(g58
F1.5707963267948966
g51
tp90
a(g58
F1.5707963267948966
g49
tp91
ag88
ag90
ag85
a(g58
F1.5707963267948966
g53
tp92
ag87
ag88
ag89
ag90
a(g48
F1.5707963267948966
g51
tp93
a(g48
F1.5707963267948966
g51
tp94
ag94
a(g48
F1.5707963267948966
g49
tp95
a(g48
F1.5707963267948966
g53
tp96
a(g48
F1.5707963267948966
g51
tp97
a(g48
F1.5707963267948966
g51
tp98
ag98
ag95
ag96
ag97
a(g48
F1.5707963267948966
g53
tp99
a(g48
F1.5707963267948966
g53
tp100
a(g58
F1.5707963267948966
g53
tp101
ag84
ag85
ag86
ag84
a(g68
F1.5707963267948966
g51
tp102
a(g68
F1.5707963267948966
g49
tp103
ag77
ag71
ag72
ag74
ag64
ag69
ag79
a(g68
I0
g51
tp104
a(g68
I0
g53
tp105
ag73
ag76
ag80
ag81
a(g68
F1.5707963267948966
g51
tp106
a(g68
F1.5707963267948966
g51
tp107
a(g68
F1.5707963267948966
g51
tp108
a(g68
F1.5707963267948966
g53
tp109
a(g68
F1.5707963267948966
g51
tp110
ag108
ag108
ag103
ag80
ag81
ag106
ag109
ag110
ag109
ag110
ag108
ag109
a(S'p3'
p111
F1.5707963267948966
g53
tp112
asS's'
p113
(lp114
(g48
I0
g22
tp115
ag50
ag52
ag54
ag55
ag56
ag57
ag59
ag60
ag60
ag61
ag62
ag63
ag60
ag61
ag64
ag65
ag62
ag66
ag67
ag69
ag70
ag71
ag72
ag73
ag72
ag74
ag62
ag75
ag75
ag66
ag66
ag63
ag62
ag75
ag67
ag65
ag62
ag75
ag67
ag69
ag70
ag76
ag77
ag78
ag79
ag79
ag79
ag79
ag70
ag76
ag80
ag81
ag80
ag81
ag82
ag80
ag83
ag84
ag85
ag86
ag87
ag88
ag89
ag88
ag90
ag91
ag88
ag90
ag85
ag92
ag87
ag88
ag89
ag90
ag93
ag94
ag94
ag95
ag96
ag97
ag98
ag98
ag95
ag96
ag97
ag99
ag100
ag101
ag84
ag85
ag86
ag84
ag102
ag103
ag77
ag71
ag72
ag74
ag64
ag69
ag79
ag104
ag105
ag73
ag76
ag80
ag81
ag106
ag107
ag108
ag109
ag110
ag108
ag108
ag103
ag80
ag81
ag106
ag109
ag110
ag109
ag110
ag108
ag109
asS'ui'
p116
(lp117
g46
aS'hs'
p118
aS'hp'
p119
ag119
ag118
ag118
ag119
aS'ss'
p120
ag120
ag119
ag120
ag118
ag118
ag46
ag46
ag118
ag118
ag119
ag119
ag118
ag118
ag120
ag118
ag119
ag46
ag46
ag118
ag46
ag46
ag119
ag119
ag119
ag118
ag119
ag119
ag120
ag120
ag46
ag119
ag120
ag118
ag119
ag118
ag118
ag118
ag120
ag118
ag118
ag120
ag119
ag118
ag118
ag119
ag119
ag46
ag46
ag120
ag46
ag119
ag118
ag119
ag119
ag119
ag120
ag119
ag46
ag119
ag119
ag119
ag46
ag118
ag119
ag46
ag119
ag119
ag119
ag119
ag46
ag118
ag120
ag119
ag119
ag46
ag118
ag120
ag119
ag119
ag120
ag118
ag120
ag118
ag46
ag120
ag119
ag118
ag46
ag46
ag46
ag119
ag118
ag118
ag46
ag119
ag119
ag46
ag118
ag120
ag119
ag46
ag119
ag119
ag118
ag46
ag119
ag46
ag46
ag120
ag118
ag119
ag120
ag119
ag46
ag118
ag119
ag120
asS'um_before'
p121
(lp122
g118
ag119
ag119
ag119
ag46
ag118
ag120
ag120
ag120
ag46
ag119
ag118
ag120
ag46
ag118
ag119
ag119
ag120
ag119
ag120
ag118
ag120
ag118
ag119
ag118
ag46
ag119
ag46
ag46
ag120
ag120
ag118
ag119
ag46
ag119
ag119
ag119
ag46
ag119
ag120
ag118
ag46
ag120
ag119
ag120
ag120
ag120
ag120
ag118
ag46
ag118
ag119
ag118
ag119
ag46
ag118
ag46
ag118
ag119
ag120
ag119
ag120
ag46
ag120
ag119
ag118
ag120
ag119
ag119
ag46
ag119
ag120
ag46
ag119
ag46
ag120
ag120
ag118
ag118
ag118
ag46
ag46
ag118
ag118
ag118
ag119
ag46
ag120
ag118
ag119
ag120
ag118
ag120
ag118
ag120
ag120
ag118
ag46
ag118
ag120
ag120
ag46
ag119
ag119
ag46
ag118
ag119
ag119
ag46
ag120
ag119
ag118
ag120
ag120
ag118
ag118
ag119
ag119
ag119
ag118
ag119
ag118
ag120
ag119
ag120
asS'um_after'
p123
(lp124
g118
ag119
ag119
ag119
ag46
ag118
ag120
ag120
ag120
ag46
ag119
ag118
ag120
ag46
ag118
ag119
ag119
ag120
ag119
ag120
ag118
ag120
ag118
ag119
ag118
ag46
ag119
ag46
ag46
ag120
ag120
ag118
ag119
ag46
ag119
ag119
ag119
ag46
ag119
ag120
ag118
ag46
ag120
ag119
ag120
ag120
ag120
ag120
ag118
ag46
ag118
ag119
ag118
ag119
ag46
ag118
ag46
ag118
ag119
ag120
ag119
ag120
ag46
ag120
ag119
ag118
ag120
ag119
ag119
ag46
ag119
ag120
ag46
ag119
ag46
ag120
ag120
ag118
ag118
ag118
ag46
ag46
ag118
ag118
ag118
ag119
ag46
ag120
ag118
ag119
ag120
ag118
ag120
ag118
ag120
ag120
ag118
ag46
ag118
ag120
ag120
ag46
ag119
ag119
ag46
ag118
ag119
ag119
ag46
ag120
ag119
ag118
ag120
ag120
ag118
ag118
ag119
ag119
ag119
ag118
ag119
ag118
ag120
ag119
ag120
asaa(lp125
S'index'
p126
aI72515
aatp127
Rp128
.