ccollections
OrderedDict
p0
((lp1
(lp2
S'index'
p3
aI4282
aa(lp4
S'combination_dict'
p5
ag0
((lp6
(lp7
S'r_to_g_config'
p8
aS'tl'
p9
aa(lp10
S'num_turns'
p11
aI1
aa(lp12
S'start_direction'
p13
acutils_ms
StartDirection
p14
(I3
tp15
Rp16
aa(lp17
S'assistance_type'
p18
acutils_ms
AssistanceType
p19
(I1
tp20
Rp21
aa(lp22
S'start_mode'
p23
aS't'
p24
aa(lp25
S'ui_given_a_noise'
p26
aF0.7
aa(lp27
S'um_given_ui_noise'
p28
aF0.1
aa(lp29
S'entropy_threshold'
p30
aF0.6
aa(lp31
S'is_assistance'
p32
aI01
aatp33
Rp34
aa(lp35
S'trials'
p36
ag0
((lp37
(lp38
I0
accollections
defaultdict
p39
(c__builtin__
list
p40
tp41
Rp42
S'a'
p43
(lp44
S'mode_r'
p45
aS'move_n'
p46
aS'mode_l'
p47
aS'move_p'
p48
ag47
ag48
ag47
ag47
ag46
ag45
ag45
ag46
ag45
ag48
asS'assistance_match_with_ground_truth'
p49
(lp50
I01
aI01
aI01
aI01
aI01
aI00
aI00
aI01
aI00
aI00
aI01
aI01
aI01
aI01
asS'total_steps'
p51
I14
sS'sp'
p52
(S'p2'
p53
F1.5707963267948966
S'y'
p54
tp55
sS's'
p56
(lp57
(S'p0'
p58
I0
g24
tp59
a(g58
I0
S'x'
p60
tp61
a(S'p1'
p62
I0
g60
tp63
a(g62
I0
S't'
p64
tp65
a(g62
F1.5707963267948966
g64
tp66
a(g62
F1.5707963267948966
g54
tp67
a(g58
F1.5707963267948966
g54
tp68
a(g58
F1.5707963267948966
g54
tp69
a(g58
F1.5707963267948966
g60
tp70
a(g58
F1.5707963267948966
g64
tp71
a(g58
F1.5707963267948966
g64
tp72
a(g58
F1.5707963267948966
g60
tp73
a(g62
F1.5707963267948966
g60
tp74
a(g62
F1.5707963267948966
g54
tp75
asS'ui'
p76
(lp77
S'hp'
p78
aS'ss'
p79
aS'hs'
p80
ag52
ag80
ag79
ag79
ag80
ag80
ag78
ag78
ag79
ag78
ag52
asS'um_before'
p81
(lp82
g78
ag79
ag80
ag52
ag80
ag79
ag79
ag80
ag80
ag52
ag78
ag79
ag78
ag52
asS'um_after'
p83
(lp84
g78
ag79
ag80
ag52
ag80
ag79
ag79
ag80
ag80
ag52
ag78
ag79
ag78
ag52
asaa(lp85
I1
ag39
(g40
tp86
Rp87
g43
(lp88
g45
ag45
ag45
ag45
ag46
ag47
ag47
ag46
ag47
ag48
ag47
ag48
ag47
ag47
ag48
asg49
(lp89
I00
aI00
aI00
aI01
aI00
aI00
aI01
aI01
aI01
aI01
aI00
aI01
aI00
aI01
aI01
asg51
I15
sg52
g55
sg56
(lp90
(g58
I0
g24
tp91
a(g58
I0
g64
tp92
a(g58
I0
g64
tp93
ag92
ag61
a(g58
I0
g54
tp94
a(g58
I0
g54
tp95
a(g58
I0
g60
tp96
ag63
ag65
ag66
a(g62
I0
g64
tp97
ag66
a(g62
F1.5707963267948966
g64
tp98
ag67
asg76
(lp99
g79
ag52
ag79
ag78
ag78
ag79
ag80
ag79
ag80
ag52
ag79
ag52
ag78
ag80
ag52
asg81
(lp100
g79
ag52
ag79
ag78
ag78
ag79
ag80
ag79
ag80
ag52
ag79
ag52
ag52
ag80
ag52
asg83
(lp101
g79
ag52
ag79
ag78
ag78
ag79
ag80
ag79
ag80
ag52
ag79
ag52
ag52
ag80
ag52
asaa(lp102
I2
ag39
(g40
tp103
Rp104
g43
(lp105
g45
ag45
ag46
ag47
ag47
ag45
ag47
ag47
ag45
ag48
ag47
ag48
asg49
(lp106
I00
aI01
aI01
aI00
aI00
aI00
aI00
aI00
aI01
aI01
aI01
aI01
asg51
I12
sg52
g55
sg56
(lp107
(g58
I0
g24
tp108
ag92
ag61
ag63
a(g62
I0
g60
tp109
a(g62
I0
g54
tp110
a(g62
I0
g60
tp111
a(g62
I0
g60
tp112
ag110
a(g62
I0
g64
tp113
ag66
ag67
asg76
(lp114
g79
ag78
ag79
ag79
ag80
ag80
ag52
ag80
ag78
ag52
ag80
ag52
asg81
(lp115
g79
ag78
ag79
ag79
ag78
ag80
ag52
ag78
ag78
ag52
ag80
ag52
asg83
(lp116
g79
ag78
ag79
ag79
ag78
ag80
ag52
ag78
ag78
ag52
ag80
ag52
asaa(lp117
I3
ag39
(g40
tp118
Rp119
g43
(lp120
g45
ag45
ag46
ag45
ag46
ag46
ag47
ag48
ag47
ag48
ag48
ag47
ag48
ag45
ag47
ag47
ag47
ag48
ag47
ag47
ag47
ag48
ag45
ag48
ag47
ag48
ag47
ag46
ag45
ag45
ag45
ag48
ag47
ag47
ag46
ag45
ag46
ag45
ag45
ag47
ag47
ag48
asg49
(lp121
I00
aI01
aI00
aI01
aI00
aI01
aI01
aI00
aI01
aI00
aI01
aI01
aI00
aI00
aI00
aI00
aI00
aI01
aI00
aI00
aI01
aI00
aI01
aI00
aI01
aI00
aI01
aI01
aI00
aI00
aI01
aI00
aI00
aI01
aI00
aI01
aI01
aI00
aI00
aI00
aI01
aI01
asg51
I42
sg52
g55
sg56
(lp122
(g58
I0
g24
tp123
ag93
ag61
a(g58
I0
g64
tp124
ag61
a(g58
I0
g60
tp125
ag63
ag65
a(g62
I0
g60
tp126
ag65
a(g62
I0
g64
tp127
ag66
ag67
a(g62
F1.5707963267948966
g60
tp128
a(g62
F1.5707963267948966
g64
tp129
ag98
ag98
ag97
ag66
ag98
ag98
ag67
ag128
ag75
a(g62
F1.5707963267948966
g64
tp130
ag67
ag68
ag70
ag74
a(g62
F1.5707963267948966
g60
tp131
ag131
ag75
ag68
ag69
ag70
ag71
ag73
ag74
a(g62
F1.5707963267948966
g60
tp132
ag129
ag98
ag67
asg76
(lp133
g52
ag78
ag79
ag78
ag80
ag79
ag80
ag78
ag80
ag52
ag52
ag80
ag80
ag80
ag52
ag52
ag79
ag52
ag52
ag80
ag80
ag80
ag78
ag78
ag80
ag79
ag80
ag79
ag79
ag79
ag78
ag52
ag79
ag80
ag80
ag78
ag79
ag52
ag80
ag80
ag80
ag52
asg81
(lp134
g52
ag78
ag80
ag78
ag52
ag79
ag80
ag78
ag80
ag79
ag52
ag80
ag80
ag80
ag52
ag52
ag79
ag52
ag52
ag52
ag80
ag80
ag78
ag78
ag80
ag79
ag80
ag79
ag79
ag79
ag78
ag79
ag79
ag80
ag80
ag78
ag79
ag52
ag80
ag52
ag80
ag52
asg83
(lp135
g52
ag78
ag80
ag78
ag52
ag79
ag80
ag78
ag80
ag79
ag52
ag80
ag80
ag80
ag52
ag52
ag79
ag52
ag52
ag52
ag80
ag80
ag78
ag78
ag80
ag79
ag80
ag79
ag79
ag79
ag78
ag79
ag79
ag80
ag80
ag78
ag79
ag52
ag80
ag52
ag80
ag52
asaa(lp136
I4
ag39
(g40
tp137
Rp138
g43
(lp139
g45
ag47
ag47
ag47
ag47
ag45
ag46
ag47
ag47
ag46
ag47
ag45
ag48
ag48
ag45
asg49
(lp140
I00
aI00
aI00
aI00
aI00
aI01
aI00
aI00
aI01
aI01
aI00
aI01
aI00
aI00
aI00
asg51
I15
sg52
(g53
I0
g54
tp141
sg56
(lp142
(g58
I0
g24
tp143
a(g58
I0
g54
tp144
ag95
ag95
a(g58
I0
g54
tp145
a(g58
I0
g64
tp146
ag61
ag94
ag95
ag96
ag63
ag110
ag113
ag127
a(g62
I0
g54
tp147
asg76
(lp148
g80
ag80
ag79
ag52
ag78
ag78
ag78
ag79
ag80
ag79
ag78
ag78
ag52
ag80
ag52
asg81
(lp149
g80
ag79
ag79
ag52
ag78
ag78
ag78
ag79
ag80
ag79
ag78
ag78
ag79
ag80
ag52
asg83
(lp150
g80
ag79
ag79
ag52
ag78
ag78
ag78
ag79
ag80
ag79
ag78
ag78
ag79
ag80
ag52
asaa(lp151
I5
ag39
(g40
tp152
Rp153
g43
(lp154
g45
ag46
ag45
ag46
ag47
ag48
ag48
ag47
ag48
asg49
(lp155
I01
aI00
aI01
aI01
aI01
aI00
aI01
aI01
aI01
asg51
I9
sg52
g55
sg56
(lp156
(g58
I0
g24
tp157
ag61
ag124
ag61
ag63
ag65
ag127
ag66
ag67
asg76
(lp158
g78
ag80
ag78
ag79
ag80
ag79
ag52
ag80
ag52
asg81
(lp159
g78
ag80
ag78
ag79
ag80
ag79
ag52
ag80
ag52
asg83
(lp160
g78
ag80
ag78
ag79
ag80
ag79
ag52
ag80
ag52
asaa(lp161
I6
ag39
(g40
tp162
Rp163
g43
(lp164
g45
ag46
ag47
ag47
ag48
ag47
ag48
asg49
(lp165
I01
aI01
aI00
aI01
aI01
aI01
aI01
asg51
I7
sg52
g55
sg56
(lp166
(g58
I0
g24
tp167
ag61
ag63
ag112
ag65
ag66
ag67
asg76
(lp168
g78
ag79
ag52
ag80
ag52
ag80
ag52
asg81
(lp169
g78
ag79
ag52
ag80
ag52
ag80
ag52
asg83
(lp170
g78
ag79
ag52
ag80
ag52
ag80
ag52
asaa(lp171
I7
ag39
(g40
tp172
Rp173
g43
(lp174
g45
ag46
ag47
ag47
ag48
ag45
asg49
(lp175
I01
aI01
aI00
aI01
aI00
aI00
asg51
I6
sg52
g141
sg56
(lp176
(g58
I0
g24
tp177
ag61
ag63
ag109
ag65
ag147
asg76
(lp178
g78
ag79
ag79
ag80
ag80
ag52
asg81
(lp179
g78
ag79
ag79
ag80
ag80
ag52
asg83
(lp180
g78
ag79
ag79
ag80
ag80
ag52
asaa(lp181
I8
ag39
(g40
tp182
Rp183
g43
(lp184
g45
ag46
ag45
ag46
ag47
ag46
ag47
ag45
ag47
ag46
ag47
ag47
ag47
ag47
ag46
ag47
ag46
ag45
ag45
ag45
ag46
ag45
ag46
ag47
ag47
ag47
ag47
ag45
ag45
ag46
ag45
ag46
ag47
ag47
ag46
ag45
ag46
ag47
ag47
ag45
ag48
ag47
ag47
ag48
ag47
ag48
asg49
(lp185
I01
aI00
aI01
aI00
aI01
aI01
aI00
aI00
aI01
aI00
aI00
aI00
aI00
aI01
aI00
aI01
aI00
aI00
aI00
aI01
aI00
aI01
aI00
aI00
aI00
aI00
aI00
aI00
aI01
aI00
aI01
aI00
aI00
aI01
aI00
aI01
aI01
aI00
aI00
aI01
aI01
aI00
aI00
aI01
aI01
aI01
asg51
I46
sg52
g55
sg56
(lp186
(g58
I0
g24
tp187
ag61
ag124
ag61
ag94
ag96
ag63
ag110
a(g58
I0
g54
tp188
ag96
ag94
ag145
ag145
ag145
ag96
ag94
ag96
ag124
ag92
ag92
ag61
ag124
ag61
ag94
ag145
ag95
ag95
ag146
ag92
ag61
ag124
ag61
ag94
ag95
ag96
ag124
ag61
ag63
ag109
ag110
ag113
ag66
ag98
ag97
ag66
ag67
asg76
(lp189
g78
ag80
ag78
ag78
ag80
ag79
ag78
ag52
ag80
ag78
ag52
ag52
ag52
ag80
ag80
ag80
ag80
ag78
ag79
ag78
ag80
ag78
ag78
ag52
ag79
ag79
ag78
ag80
ag78
ag80
ag78
ag78
ag80
ag80
ag80
ag78
ag79
ag79
ag80
ag78
ag52
ag52
ag79
ag79
ag80
ag52
asg81
(lp190
g78
ag80
ag78
ag78
ag80
ag79
ag78
ag79
ag80
ag78
ag52
ag52
ag52
ag80
ag78
ag80
ag80
ag79
ag79
ag78
ag80
ag78
ag78
ag52
ag79
ag79
ag78
ag79
ag78
ag80
ag78
ag78
ag79
ag80
ag80
ag78
ag79
ag79
ag78
ag78
ag52
ag52
ag79
ag52
ag80
ag52
asg83
(lp191
g78
ag80
ag78
ag78
ag80
ag79
ag78
ag79
ag80
ag78
ag52
ag52
ag52
ag80
ag78
ag80
ag80
ag79
ag79
ag78
ag80
ag78
ag78
ag52
ag79
ag79
ag78
ag79
ag78
ag80
ag78
ag78
ag79
ag80
ag80
ag78
ag79
ag79
ag78
ag78
ag52
ag52
ag79
ag52
ag80
ag52
asaa(lp192
I9
ag39
(g40
tp193
Rp194
g43
(lp195
g45
ag45
ag46
ag47
ag47
ag47
ag47
ag47
ag47
ag48
ag45
ag48
ag47
ag47
ag48
ag45
ag48
ag47
ag48
asg49
(lp196
I00
aI01
aI01
aI00
aI00
aI00
aI00
aI00
aI01
aI00
aI01
aI01
aI00
aI00
aI00
aI01
aI01
aI01
aI01
asg51
I19
sg52
g55
sg56
(lp197
(g58
I0
g24
tp198
ag92
ag61
ag63
ag109
ag112
ag109
ag109
ag109
ag65
ag147
ag113
ag66
ag98
ag97
ag147
ag113
ag66
ag67
asg76
(lp199
g79
ag78
ag79
ag79
ag52
ag79
ag79
ag79
ag80
ag80
ag78
ag52
ag52
ag79
ag80
ag78
ag52
ag80
ag52
asg81
(lp200
g79
ag78
ag79
ag79
ag52
ag79
ag79
ag79
ag80
ag80
ag78
ag52
ag52
ag79
ag80
ag78
ag52
ag80
ag52
asg83
(lp201
g79
ag78
ag79
ag79
ag52
ag79
ag79
ag79
ag80
ag80
ag78
ag52
ag52
ag79
ag80
ag78
ag52
ag80
ag52
asaatp202
Rp203
aatp204
Rp205
.