ccollections
OrderedDict
p0
((lp1
(lp2
S'combination_dict'
p3
ag0
((lp4
(lp5
S'r_to_g_config'
p6
aS'tr'
p7
aa(lp8
S'num_turns'
p9
aI3
aa(lp10
S'start_direction'
p11
acutils_ms
StartDirection
p12
(I1
tp13
Rp14
aa(lp15
S'assistance_type'
p16
acutils_ms
AssistanceType
p17
(I2
tp18
Rp19
aa(lp20
S'start_mode'
p21
aS'x'
p22
aa(lp23
S'ui_given_a_noise'
p24
aF0.1
aa(lp25
S'um_given_ui_noise'
p26
aF0.7
aa(lp27
S'entropy_threshold'
p28
aF0.6
aatp29
Rp30
aa(lp31
S'data'
p32
accollections
defaultdict
p33
(c__builtin__
list
p34
tp35
Rp36
S'a'
p37
(lp38
S'mode_r'
p39
ag39
aS'mode_l'
p40
aS'move_p'
p41
ag39
ag39
ag39
ag41
ag39
ag41
ag40
ag41
ag39
ag39
ag39
ag40
ag40
ag41
ag40
ag40
ag40
ag40
ag40
ag39
ag41
ag39
ag40
ag41
ag41
ag39
ag41
ag39
ag39
ag40
ag40
ag41
ag39
ag40
ag40
ag40
ag40
ag39
ag41
ag40
ag41
ag39
ag39
ag39
ag39
ag41
ag40
ag40
ag41
ag39
ag39
ag40
ag41
ag40
ag40
ag41
ag40
ag41
asS'assistance_match_with_ground_truth'
p42
(lp43
I00
aI00
aI01
aI00
aI00
aI00
aI01
aI00
aI01
aI01
aI01
aI01
aI00
aI00
aI00
aI00
aI01
aI00
aI00
aI00
aI00
aI00
aI00
aI01
aI01
aI00
aI01
aI00
aI01
aI01
aI00
aI00
aI00
aI00
aI01
aI00
aI00
aI00
aI00
aI00
aI00
aI01
aI00
aI01
aI01
aI00
aI00
aI00
aI01
aI01
aI00
aI01
aI00
aI00
aI00
aI01
aI01
aI00
aI01
aI00
aI01
aI01
asS'total_steps'
p44
I62
sS'sp'
p45
(lp46
(S'p0'
p47
I0
S'x'
p48
tp49
a(g47
I0
S't'
p50
tp51
a(g47
I0
S'y'
p52
tp53
a(g47
I0
g48
tp54
a(g47
I0
g48
tp55
ag49
a(g47
I0
g52
tp56
ag54
ag56
a(S'p1'
p57
I0
g52
tp58
a(g57
I0
g48
tp59
a(S'p2'
p60
I0
g48
tp61
a(g60
I0
g48
tp62
ag62
a(g60
I0
g50
tp63
a(g60
I0
g50
tp64
a(g60
I0
g52
tp65
a(g60
I0
g50
tp66
a(g60
I0
g50
tp67
ag67
ag67
ag67
a(g60
I0
g48
tp68
a(g60
I0
g52
tp69
a(S'p3'
p70
I0
g52
tp71
a(g70
I0
g48
tp72
a(g70
I0
g50
tp73
a(g70
I0
g50
tp74
a(g70
F1.5707963267948966
g50
tp75
a(g70
F1.5707963267948966
g48
tp76
a(g70
F1.5707963267948966
g50
tp77
a(g70
F1.5707963267948966
g50
tp78
a(g70
F1.5707963267948966
g52
tp79
a(g70
F1.5707963267948966
g52
tp80
a(g70
F1.5707963267948966
g48
tp81
a(g60
F1.5707963267948966
g48
tp82
a(g60
F1.5707963267948966
g50
tp83
a(g60
F1.5707963267948966
g50
tp84
ag84
ag84
a(g60
F1.5707963267948966
g48
tp85
a(g60
F1.5707963267948966
g52
tp86
a(g57
F1.5707963267948966
g52
tp87
a(g57
F1.5707963267948966
g48
tp88
a(g60
F1.5707963267948966
g48
tp89
a(g60
F1.5707963267948966
g48
tp90
ag90
a(g60
F1.5707963267948966
g48
tp91
ag86
a(g70
F1.5707963267948966
g52
tp92
a(g70
F1.5707963267948966
g52
tp93
ag81
ag82
ag90
ag83
a(g60
F1.5707963267948966
g52
tp94
ag92
ag93
ag81
a(g70
F1.5707963267948966
g52
tp95
ag81
a(S'p4'
p96
F1.5707963267948966
g48
tp97
asS's'
p98
(lp99
(g47
I0
g22
tp100
ag49
ag51
ag53
ag54
ag55
ag49
ag56
ag54
ag56
ag58
ag59
ag61
ag62
ag62
ag63
ag64
ag65
ag66
ag67
ag67
ag67
ag67
ag68
ag69
ag71
ag72
ag73
ag74
ag75
ag76
ag77
ag78
ag79
ag80
ag81
ag82
ag83
ag84
ag84
ag84
ag85
ag86
ag87
ag88
ag89
ag90
ag90
ag91
ag86
ag92
ag93
ag81
ag82
ag90
ag83
ag94
ag92
ag93
ag81
ag95
ag81
asS'ui'
p101
(lp102
S'hp'
p103
aS'hs'
p104
ag104
ag103
ag103
aS'ss'
p105
ag103
ag45
ag103
ag45
ag104
ag45
ag103
ag103
ag103
ag104
ag105
ag45
ag104
ag104
ag104
ag45
ag104
ag103
ag45
ag103
ag104
ag45
ag103
ag103
ag103
ag103
ag103
ag104
ag104
ag45
ag105
ag105
ag104
ag104
ag104
ag103
ag45
ag103
ag45
ag103
ag103
ag103
ag103
ag45
ag104
ag104
ag103
ag103
ag103
ag104
ag45
ag104
ag104
ag45
ag104
ag105
asS'um_before'
p106
(lp107
g105
ag104
ag104
ag104
ag45
ag105
ag103
ag104
ag103
ag45
ag104
ag45
ag105
ag105
ag104
ag45
ag104
ag103
ag105
ag105
ag105
ag105
ag103
ag103
ag45
ag104
ag104
ag105
ag45
ag103
ag104
ag45
ag104
ag105
ag104
ag105
ag104
ag45
ag45
ag45
ag103
ag103
ag105
ag104
ag45
ag45
ag45
ag105
ag103
ag45
ag45
ag104
ag105
ag45
ag104
ag104
ag45
ag45
ag104
ag103
ag104
ag45
asS'um_after'
p108
(lp109
g105
ag104
ag104
ag104
ag45
ag105
ag103
ag104
ag103
ag45
ag104
ag45
ag105
ag105
ag104
ag45
ag104
ag103
ag105
ag105
ag105
ag105
ag103
ag103
ag45
ag104
ag104
ag105
ag45
ag103
ag104
ag45
ag104
ag105
ag104
ag105
ag104
ag45
ag45
ag45
ag103
ag103
ag105
ag104
ag45
ag45
ag45
ag105
ag103
ag45
ag45
ag104
ag105
ag45
ag104
ag104
ag45
ag45
ag104
ag103
ag104
ag45
asaa(lp110
S'index'
p111
aI27367
aatp112
Rp113
.