ccollections
OrderedDict
p0
((lp1
(lp2
S'combination_dict'
p3
ag0
((lp4
(lp5
S'r_to_g_config'
p6
aS'br'
p7
aa(lp8
S'num_turns'
p9
aI2
aa(lp10
S'start_direction'
p11
acutils_ms
StartDirection
p12
(I0
tp13
Rp14
aa(lp15
S'assistance_type'
p16
acutils_ms
AssistanceType
p17
(I2
tp18
Rp19
aa(lp20
S'start_mode'
p21
aS't'
p22
aa(lp23
S'ui_given_a_noise'
p24
aF0.5
aa(lp25
S'um_given_ui_noise'
p26
aF0.7
aa(lp27
S'entropy_threshold'
p28
aF0.7
aatp29
Rp30
aa(lp31
S'data'
p32
accollections
defaultdict
p33
(c__builtin__
list
p34
tp35
Rp36
S'a'
p37
(lp38
S'mode_r'
p39
aS'mode_l'
p40
ag40
aS'move_p'
p41
ag41
ag40
ag41
ag40
ag41
ag40
ag40
ag40
ag39
ag40
ag40
ag41
ag40
ag40
ag39
ag40
ag41
ag40
ag41
ag40
ag40
aS'move_n'
p42
ag39
ag39
ag39
ag40
ag41
ag41
ag41
ag40
ag40
ag42
ag40
ag40
ag41
ag41
ag41
ag39
ag40
ag40
ag41
ag41
ag41
ag41
ag41
ag39
ag39
ag40
ag41
ag39
ag40
ag40
ag40
ag40
ag40
ag40
ag40
ag41
ag40
ag40
ag40
ag40
ag40
ag40
ag41
ag41
ag40
ag40
ag39
ag41
ag39
ag41
ag40
ag40
ag39
ag40
ag40
ag40
ag40
ag41
ag40
ag42
ag39
ag40
ag42
ag39
ag40
ag42
ag40
ag41
asS'assistance_match_with_ground_truth'
p43
(lp44
I00
aI00
aI01
aI00
aI00
aI01
aI00
aI01
aI01
aI00
aI00
aI00
aI00
aI00
aI01
aI01
aI00
aI00
aI00
aI01
aI01
aI01
aI01
aI00
aI01
aI00
aI00
aI00
aI00
aI00
aI00
aI00
aI01
aI00
aI01
aI00
aI00
aI01
aI00
aI00
aI00
aI00
aI00
aI01
aI00
aI00
aI00
aI00
aI01
aI00
aI00
aI00
aI00
aI00
aI00
aI00
aI00
aI00
aI00
aI00
aI01
aI01
aI00
aI00
aI00
aI00
aI00
aI01
aI00
aI00
aI00
aI00
aI01
aI00
aI01
aI00
aI00
aI00
aI00
aI00
aI00
aI00
aI01
aI01
aI01
aI00
aI00
aI01
aI00
aI00
aI01
aI01
aI01
aI01
asS'total_steps'
p45
I94
sS'sp'
p46
(lp47
(S'p0'
p48
I0
S'y'
p49
tp50
a(g48
I0
g49
tp51
a(g48
I0
S'x'
p52
tp53
a(g48
I0
g52
tp54
a(g48
I0
g49
tp55
ag53
ag55
ag53
a(S'p1'
p56
I0
g52
tp57
a(g56
I0
g52
tp58
a(g56
I0
g52
tp59
a(g56
I0
g49
tp60
a(g48
I0
g49
tp61
a(g48
I0
g49
tp62
ag53
ag57
ag59
ag60
ag61
ag53
ag57
a(g56
I0
S't'
p63
tp64
a(g56
F1.5707963267948966
g63
tp65
a(g56
F1.5707963267948966
g63
tp66
a(g56
F1.5707963267948966
g49
tp67
a(g56
F1.5707963267948966
g52
tp68
a(g56
F1.5707963267948966
g52
tp69
ag69
a(g56
F1.5707963267948966
g63
tp70
a(g56
I0
g63
tp71
a(g56
I0
g63
tp72
ag72
ag65
ag66
ag67
a(g48
F1.5707963267948966
g49
tp73
a(g48
F1.5707963267948966
g49
tp74
a(g48
F1.5707963267948966
g52
tp75
a(g48
F1.5707963267948966
g52
tp76
ag76
a(g48
F1.5707963267948966
g63
tp77
a(g48
F1.5707963267948966
g49
tp78
a(g48
F1.5707963267948966
g49
tp79
ag75
ag76
ag76
ag76
ag76
a(g56
F1.5707963267948966
g52
tp80
a(g56
F1.5707963267948966
g52
tp81
ag70
ag71
a(g56
I0
g49
tp82
ag61
ag51
ag62
ag51
ag51
ag62
ag51
ag53
ag57
ag59
ag59
ag59
ag59
ag58
ag64
ag72
a(g56
I0
g52
tp83
ag58
ag60
a(g56
I0
g63
tp84
ag82
ag84
ag83
ag59
ag60
a(g56
I0
g52
tp85
ag59
ag59
ag58
ag64
ag65
ag67
ag68
ag70
ag67
ag68
ag70
ag67
a(S'p2'
p86
F1.5707963267948966
g49
tp87
a(g86
F1.5707963267948966
g52
tp88
a(S'p3'
p89
F1.5707963267948966
g52
tp90
asS's'
p91
(lp92
(g48
I0
g22
tp93
ag50
ag51
ag53
ag54
ag55
ag53
ag55
ag53
ag57
ag58
ag59
ag60
ag61
ag62
ag53
ag57
ag59
ag60
ag61
ag53
ag57
ag64
ag65
ag66
ag67
ag68
ag69
ag69
ag70
ag71
ag72
ag72
ag65
ag66
ag67
ag73
ag74
ag75
ag76
ag76
ag77
ag78
ag79
ag75
ag76
ag76
ag76
ag76
ag80
ag81
ag70
ag71
ag82
ag61
ag51
ag62
ag51
ag51
ag62
ag51
ag53
ag57
ag59
ag59
ag59
ag59
ag58
ag64
ag72
ag83
ag58
ag60
ag84
ag82
ag84
ag83
ag59
ag60
ag85
ag59
ag59
ag58
ag64
ag65
ag67
ag68
ag70
ag67
ag68
ag70
ag67
ag87
ag88
asS'ui'
p94
(lp95
S'hp'
p96
aS'hs'
p97
ag97
ag46
ag96
ag97
ag96
ag96
aS'ss'
p98
ag46
ag98
ag96
ag96
ag97
ag97
ag46
ag46
ag96
ag46
ag96
ag46
ag98
ag46
ag96
ag97
ag98
ag98
ag97
ag98
ag46
ag46
ag98
ag46
ag97
ag97
ag46
ag46
ag97
ag98
ag46
ag96
ag96
ag97
ag96
ag98
ag46
ag98
ag46
ag46
ag97
ag96
ag46
ag98
ag98
ag97
ag46
ag96
ag97
ag98
ag97
ag97
ag46
ag97
ag97
ag46
ag96
ag97
ag97
ag98
ag46
ag97
ag46
ag96
ag46
ag96
ag46
ag97
ag46
ag96
ag98
ag97
ag97
ag97
ag46
ag97
ag97
ag96
ag96
ag98
ag96
ag97
ag97
ag97
ag98
asS'um_before'
p99
(lp100
g97
ag46
ag97
ag98
ag96
ag97
ag96
ag97
ag46
ag98
ag46
ag96
ag46
ag98
ag97
ag46
ag46
ag96
ag46
ag97
ag46
ag97
ag46
ag46
ag97
ag97
ag98
ag98
ag97
ag98
ag98
ag98
ag46
ag46
ag97
ag46
ag98
ag97
ag98
ag98
ag97
ag97
ag46
ag97
ag98
ag98
ag98
ag98
ag46
ag46
ag97
ag98
ag97
ag46
ag46
ag98
ag46
ag46
ag98
ag46
ag97
ag46
ag46
ag46
ag46
ag46
ag98
ag97
ag98
ag96
ag98
ag96
ag96
ag97
ag96
ag96
ag46
ag96
ag97
ag46
ag46
ag98
ag97
ag46
ag97
ag97
ag97
ag97
ag97
ag97
ag97
ag98
ag97
ag46
asS'um_after'
p101
(lp102
g97
ag46
ag97
ag98
ag96
ag97
ag96
ag97
ag46
ag98
ag46
ag96
ag46
ag98
ag97
ag46
ag46
ag96
ag46
ag97
ag46
ag97
ag46
ag46
ag97
ag97
ag98
ag98
ag97
ag98
ag98
ag98
ag46
ag46
ag97
ag46
ag98
ag97
ag98
ag98
ag97
ag97
ag46
ag97
ag98
ag98
ag98
ag98
ag46
ag46
ag97
ag98
ag97
ag46
ag46
ag98
ag46
ag46
ag98
ag46
ag97
ag46
ag46
ag46
ag46
ag46
ag98
ag97
ag98
ag96
ag98
ag96
ag96
ag97
ag96
ag96
ag46
ag96
ag97
ag46
ag46
ag98
ag97
ag46
ag97
ag97
ag97
ag97
ag97
ag97
ag97
ag98
ag97
ag46
asaa(lp103
S'index'
p104
aI99772
aatp105
Rp106
.