ccollections
OrderedDict
p0
((lp1
(lp2
S'combination_dict'
p3
ag0
((lp4
(lp5
S'r_to_g_config'
p6
aS'tr'
p7
aa(lp8
S'num_turns'
p9
aI2
aa(lp10
S'start_direction'
p11
acutils_ms
StartDirection
p12
(I1
tp13
Rp14
aa(lp15
S'assistance_type'
p16
acutils_ms
AssistanceType
p17
(I2
tp18
Rp19
aa(lp20
S'start_mode'
p21
aS'x'
p22
aa(lp23
S'ui_given_a_noise'
p24
aF0.7
aa(lp25
S'um_given_ui_noise'
p26
aF0.1
aa(lp27
S'entropy_threshold'
p28
aF0.6
aatp29
Rp30
aa(lp31
S'data'
p32
accollections
defaultdict
p33
(c__builtin__
list
p34
tp35
Rp36
S'a'
p37
(lp38
S'mode_r'
p39
aS'mode_l'
p40
aS'move_p'
p41
ag40
ag40
ag40
ag41
ag40
ag39
ag39
ag41
ag39
ag41
ag40
ag41
ag40
ag41
ag40
ag40
ag41
ag39
ag41
ag40
ag41
ag39
ag40
ag40
ag41
ag39
ag41
ag40
ag40
ag40
ag41
ag39
ag39
ag39
ag41
ag40
ag40
ag40
ag41
ag39
ag41
ag40
ag40
ag40
ag39
ag39
ag40
ag40
ag39
ag39
ag39
ag40
ag40
ag40
ag41
ag41
ag40
ag40
ag41
ag40
ag41
ag40
ag41
ag39
ag40
ag41
ag40
ag40
ag41
asS'assistance_match_with_ground_truth'
p42
(lp43
I00
aI01
aI00
aI00
aI00
aI01
aI01
aI00
aI00
aI01
aI00
aI01
aI00
aI01
aI01
aI01
aI00
aI00
aI01
aI00
aI01
aI01
aI01
aI00
aI00
aI00
aI01
aI00
aI01
aI01
aI00
aI00
aI01
aI00
aI00
aI00
aI01
aI00
aI00
aI00
aI01
aI00
aI01
aI00
aI00
aI00
aI00
aI00
aI00
aI00
aI00
aI00
aI00
aI00
aI00
aI00
aI01
aI00
aI01
aI00
aI01
aI01
aI01
aI01
aI00
aI00
aI00
aI01
aI01
aI00
aI01
aI01
asS'total_steps'
p44
I72
sS'sp'
p45
(lp46
(S'p0'
p47
I0
S't'
p48
tp49
a(g47
I0
S'y'
p50
tp51
a(g47
I0
g48
tp52
a(g47
I0
g48
tp53
a(g47
I0
g48
tp54
ag51
a(S'p1'
p55
I0
g50
tp56
a(g55
I0
g48
tp57
a(g55
I0
g48
tp58
a(g55
I0
S'x'
p59
tp60
a(g47
I0
g59
tp61
a(g47
I0
g50
tp62
ag52
ag51
ag56
a(g55
I0
g59
tp63
a(g55
I0
g50
tp64
a(g55
I0
g50
tp65
ag63
ag61
ag62
ag56
ag63
ag61
ag49
ag53
ag51
a(g47
I0
g59
tp66
ag62
ag56
ag65
ag65
ag63
ag61
a(g47
I0
g59
tp67
a(g47
I0
g59
tp68
ag62
ag52
ag54
ag53
ag51
ag66
ag62
ag52
ag53
ag53
a(g47
I0
g59
tp69
ag67
ag49
ag54
ag69
ag67
ag67
ag49
ag54
ag54
ag51
a(g47
I0
g50
tp70
ag56
ag65
ag63
a(S'p2'
p71
I0
g59
tp72
a(g71
I0
g48
tp73
a(g71
F1.5707963267948966
g48
tp74
a(g71
I0
g48
tp75
a(g71
I0
g50
tp76
a(g71
I0
g59
tp77
ag73
ag74
a(g71
F1.5707963267948966
g48
tp78
a(g71
F1.5707963267948966
g50
tp79
a(S'p3'
p80
F1.5707963267948966
g50
tp81
asS's'
p82
(lp83
(g47
I0
g22
tp84
ag49
ag51
ag52
ag53
ag54
ag51
ag56
ag57
ag58
ag60
ag61
ag62
ag52
ag51
ag56
ag63
ag64
ag65
ag63
ag61
ag62
ag56
ag63
ag61
ag49
ag53
ag51
ag66
ag62
ag56
ag65
ag65
ag63
ag61
ag67
ag68
ag62
ag52
ag54
ag53
ag51
ag66
ag62
ag52
ag53
ag53
ag69
ag67
ag49
ag54
ag69
ag67
ag67
ag49
ag54
ag54
ag51
ag70
ag56
ag65
ag63
ag72
ag73
ag74
ag75
ag76
ag77
ag73
ag74
ag78
ag79
asS'ui'
p85
(lp86
S'hs'
p87
ag87
ag45
aS'ss'
p88
ag88
ag87
ag45
aS'hp'
p89
ag45
ag89
ag88
ag89
ag89
ag87
ag45
ag87
ag89
ag89
ag87
ag88
ag89
ag45
ag45
ag88
ag87
ag88
ag87
ag87
ag89
ag45
ag88
ag88
ag87
ag88
ag45
ag88
ag89
ag89
ag45
ag88
ag87
ag87
ag89
ag89
ag88
ag88
ag89
ag45
ag89
ag88
ag89
ag89
ag87
ag87
ag45
ag45
ag87
ag88
ag45
ag88
ag87
ag45
ag87
ag45
ag88
ag87
ag87
ag87
ag45
ag45
ag87
ag45
asS'um_before'
p90
(lp91
g87
ag87
ag89
ag88
ag45
ag87
ag45
ag89
ag45
ag89
ag88
ag89
ag89
ag87
ag45
ag87
ag89
ag88
ag87
ag88
ag89
ag45
ag87
ag88
ag87
ag88
ag87
ag87
ag89
ag45
ag88
ag88
ag87
ag88
ag45
ag88
ag89
ag89
ag45
ag88
ag87
ag87
ag89
ag89
ag88
ag88
ag89
ag45
ag87
ag45
ag89
ag45
ag45
ag87
ag45
ag45
ag87
ag88
ag45
ag88
ag87
ag45
ag87
ag45
ag88
ag87
ag87
ag87
ag45
ag45
ag87
ag45
asS'um_after'
p92
(lp93
g87
ag87
ag89
ag88
ag45
ag87
ag45
ag89
ag45
ag89
ag88
ag89
ag89
ag87
ag45
ag87
ag89
ag88
ag87
ag88
ag89
ag45
ag87
ag88
ag87
ag88
ag87
ag87
ag89
ag45
ag88
ag88
ag87
ag88
ag45
ag88
ag89
ag89
ag45
ag88
ag87
ag87
ag89
ag89
ag88
ag88
ag89
ag45
ag87
ag45
ag89
ag45
ag45
ag87
ag45
ag45
ag87
ag88
ag45
ag88
ag87
ag45
ag87
ag45
ag88
ag87
ag87
ag87
ag45
ag45
ag87
ag45
asaa(lp94
S'index'
p95
aI18211
aatp96
Rp97
.