ccollections
OrderedDict
p0
((lp1
(lp2
S'combination_dict'
p3
ag0
((lp4
(lp5
S'r_to_g_config'
p6
aS'tr'
p7
aa(lp8
S'num_turns'
p9
aI2
aa(lp10
S'start_direction'
p11
acutils_ms
StartDirection
p12
(I0
tp13
Rp14
aa(lp15
S'assistance_type'
p16
acutils_ms
AssistanceType
p17
(I0
tp18
Rp19
aa(lp20
S'start_mode'
p21
aS't'
p22
aa(lp23
S'ui_given_a_noise'
p24
aF0.3
aa(lp25
S'um_given_ui_noise'
p26
aF0.7
aa(lp27
S'entropy_threshold'
p28
aF0.9
aatp29
Rp30
aa(lp31
S'data'
p32
accollections
defaultdict
p33
(c__builtin__
list
p34
tp35
Rp36
S'a'
p37
(lp38
S'mode_r'
p39
ag39
aS'move_p'
p40
aS'mode_l'
p41
ag41
ag41
ag40
ag41
ag40
ag41
ag41
ag41
ag41
ag41
ag40
asS'assistance_match_with_ground_truth'
p42
(lp43
I00
aI01
aI01
aI00
aI00
aI01
aI01
aI01
aI01
aI00
aI00
aI00
aI00
aI01
aI01
asS'total_steps'
p44
I15
sS'sp'
p45
(lp46
(S'p0'
p47
I0
S't'
p48
tp49
a(g47
I0
S'x'
p50
tp51
a(S'p1'
p52
I0
g50
tp53
ag53
ag53
a(g52
I0
g48
tp54
a(g52
F1.5707963267948966
g48
tp55
a(g52
F1.5707963267948966
S'y'
p56
tp57
a(S'p2'
p58
F1.5707963267948966
g56
tp59
ag59
ag59
ag59
ag59
a(g58
F1.5707963267948966
g50
tp60
a(S'p3'
p61
F1.5707963267948966
g50
tp62
asS's'
p63
(lp64
(g47
I0
g22
tp65
ag49
ag51
ag53
ag53
ag53
ag54
ag55
ag57
ag59
ag59
ag59
ag59
ag59
ag60
asS'ui'
p66
(lp67
S'hs'
p68
aS'hp'
p69
ag45
ag68
ag68
ag68
ag45
ag68
ag45
ag68
ag68
ag69
ag68
ag68
ag45
asS'um_before'
p70
(lp71
S'ss'
p72
ag69
ag45
ag72
ag72
ag68
ag45
ag68
ag45
ag72
ag69
ag69
ag69
ag68
ag45
asS'um_after'
p73
(lp74
g72
ag69
ag45
aNaNag68
ag45
ag68
ag45
aNaNaNaNag68
ag45
asaa(lp75
S'index'
p76
aI9992
aatp77
Rp78
.