ccollections
OrderedDict
p0
((lp1
(lp2
S'index'
p3
aI7889
aa(lp4
S'combination_dict'
p5
ag0
((lp6
(lp7
S'r_to_g_config'
p8
aS'bl'
p9
aa(lp10
S'num_turns'
p11
aI1
aa(lp12
S'start_direction'
p13
acutils_ms
StartDirection
p14
(I3
tp15
Rp16
aa(lp17
S'assistance_type'
p18
acutils_ms
AssistanceType
p19
(I0
tp20
Rp21
aa(lp22
S'start_mode'
p23
aS'y'
p24
aa(lp25
S'ui_given_a_noise'
p26
aF0.3
aa(lp27
S'um_given_ui_noise'
p28
aF0.1
aa(lp29
S'entropy_threshold'
p30
aF0.9
aa(lp31
S'is_assistance'
p32
aI00
aatp33
Rp34
aa(lp35
S'trials'
p36
ag0
((lp37
(lp38
I0
accollections
defaultdict
p39
(c__builtin__
list
p40
tp41
Rp42
S'a'
p43
(lp44
S'mode_l'
p45
aS'move_n'
p46
ag45
aS'move_p'
p47
ag45
ag45
ag46
asS'assistance_match_with_ground_truth'
p48
(lp49
I01
aI01
aI01
aI01
aI00
aI01
aI01
asS'total_steps'
p50
I7
sS'sp'
p51
(S'p2'
p52
F1.5707963267948966
S'y'
p53
tp54
sS's'
p55
(lp56
(S'p0'
p57
I0
g24
tp58
a(g57
I0
S'x'
p59
tp60
a(S'p1'
p61
I0
g59
tp62
a(g61
I0
S't'
p63
tp64
a(g61
F1.5707963267948966
g63
tp65
a(g61
F1.5707963267948966
g63
tp66
a(g61
F1.5707963267948966
g53
tp67
asS'ui'
p68
(lp69
S'hs'
p70
aS'ss'
p71
ag70
ag51
ag51
ag70
ag71
asS'um_before'
p72
(lp73
g70
ag71
ag70
ag51
ag51
ag70
ag71
asS'um_after'
p74
(lp75
g70
ag71
ag70
ag51
ag51
ag70
ag71
asaa(lp76
I1
ag39
(g40
tp77
Rp78
g43
(lp79
g45
aS'mode_r'
p80
ag80
ag46
ag46
ag45
ag45
ag80
ag47
ag45
ag47
ag47
ag47
ag45
ag46
ag45
ag47
ag45
ag46
asg48
(lp81
I00
aI00
aI01
aI00
aI01
aI00
aI00
aI01
aI01
aI00
aI00
aI00
aI01
aI01
aI00
aI00
aI01
aI01
aI01
asg50
I19
sg51
g54
sg55
(lp82
(g57
I0
g24
tp83
a(g57
I0
g63
tp84
a(g57
I0
g63
tp85
a(g57
I0
g59
tp86
a(g57
I0
g59
tp87
ag62
a(g61
I0
g59
tp88
a(g61
I0
g53
tp89
a(g61
I0
g63
tp90
ag65
a(g61
I0
g63
tp91
a(g61
I0
g63
tp92
ag92
ag65
ag67
a(g61
F1.5707963267948966
g63
tp93
ag91
ag65
ag67
asg68
(lp94
g70
ag51
aS'hp'
p95
ag51
ag71
ag70
ag95
ag95
ag51
ag71
ag71
ag71
ag51
ag70
ag95
ag71
ag51
ag70
ag71
asg72
(lp96
g95
ag51
ag95
ag51
ag71
ag71
ag95
ag95
ag51
ag71
ag71
ag71
ag51
ag70
ag95
ag71
ag51
ag70
ag71
asg74
(lp97
g95
ag51
ag95
ag51
ag71
ag71
ag95
ag95
ag51
ag71
ag71
ag71
ag51
ag70
ag95
ag71
ag51
ag70
ag71
asaa(lp98
I2
ag39
(g40
tp99
Rp100
g43
(lp101
g45
ag46
ag45
ag47
ag45
ag47
ag80
ag47
ag45
ag47
ag47
ag45
ag45
ag45
ag80
ag80
ag80
ag46
asg48
(lp102
I01
aI01
aI01
aI00
aI01
aI00
aI01
aI00
aI01
aI00
aI01
aI00
aI00
aI00
aI00
aI00
aI01
aI01
asg50
I18
sg51
g54
sg55
(lp103
(g57
I0
g24
tp104
ag60
ag62
ag64
a(g61
I0
g59
tp105
ag64
a(g61
I0
g53
tp106
ag90
ag105
ag64
ag92
ag65
ag66
ag66
a(g61
F1.5707963267948966
g59
tp107
a(g61
F1.5707963267948966
g59
tp108
a(g61
F1.5707963267948966
g59
tp109
a(g61
F1.5707963267948966
g53
tp110
asg68
(lp111
g70
ag71
ag70
ag95
ag70
ag51
ag95
ag95
ag70
ag71
ag51
ag70
ag70
ag95
ag71
ag51
ag95
ag71
asg72
(lp112
g70
ag71
ag70
ag95
ag70
ag70
ag95
ag95
ag70
ag71
ag51
ag51
ag51
ag95
ag71
ag51
ag95
ag71
asg74
(lp113
g70
ag71
ag70
ag95
ag70
ag70
ag95
ag95
ag70
ag71
ag51
ag51
ag51
ag95
ag71
ag51
ag95
ag71
asaa(lp114
I3
ag39
(g40
tp115
Rp116
g43
(lp117
g45
ag46
ag45
ag47
ag45
ag47
ag45
ag47
ag45
ag47
ag45
ag46
ag45
ag47
ag45
ag46
asg48
(lp118
I01
aI01
aI01
aI00
aI01
aI01
aI00
aI01
aI00
aI01
aI01
aI00
aI00
aI01
aI01
aI01
asg50
I16
sg51
g54
sg55
(lp119
(g57
I0
g24
tp120
ag60
ag62
ag64
ag105
ag64
ag65
ag91
ag65
ag91
ag65
ag67
ag93
ag91
ag65
ag67
asg68
(lp121
g70
ag71
ag70
ag95
ag70
ag51
ag71
ag51
ag71
ag51
ag70
ag71
ag71
ag51
ag70
ag71
asg72
(lp122
g70
ag71
ag70
ag95
ag70
ag51
ag71
ag51
ag71
ag51
ag70
ag95
ag71
ag51
ag70
ag71
asg74
(lp123
g70
ag71
ag70
ag95
ag70
ag51
ag71
ag51
ag71
ag51
ag70
ag95
ag71
ag51
ag70
ag71
asaa(lp124
I4
ag39
(g40
tp125
Rp126
g43
(lp127
g45
ag45
ag46
ag45
ag47
ag45
ag47
ag45
ag47
ag45
ag46
asg48
(lp128
I00
aI01
aI01
aI01
aI01
aI00
aI00
aI01
aI01
aI01
aI01
asg50
I11
sg51
g54
sg55
(lp129
(g57
I0
g24
tp130
a(g57
I0
g53
tp131
ag60
ag62
ag64
ag65
ag91
ag105
ag64
ag65
ag67
asg68
(lp132
g95
ag70
ag71
ag70
ag51
ag71
ag95
ag70
ag51
ag70
ag71
asg72
(lp133
g71
ag70
ag71
ag70
ag51
ag71
ag95
ag70
ag51
ag70
ag71
asg74
(lp134
g71
ag70
ag71
ag70
ag51
ag71
ag95
ag70
ag51
ag70
ag71
asaa(lp135
I5
ag39
(g40
tp136
Rp137
g43
(lp138
g45
ag46
ag45
ag45
ag47
ag47
ag45
ag46
asg48
(lp139
I01
aI01
aI00
aI01
aI00
aI01
aI01
aI01
asg50
I8
sg51
g54
sg55
(lp140
(g57
I0
g24
tp141
ag60
ag62
ag88
ag64
ag92
ag65
ag67
asg68
(lp142
g70
ag71
ag71
ag70
ag71
ag51
ag70
ag71
asg72
(lp143
g70
ag71
ag71
ag70
ag71
ag51
ag70
ag71
asg74
(lp144
g70
ag71
ag71
ag70
ag71
ag51
ag70
ag71
asaa(lp145
I6
ag39
(g40
tp146
Rp147
g43
(lp148
g45
ag80
ag46
ag45
ag47
ag80
ag47
ag45
ag46
asg48
(lp149
I00
aI01
aI01
aI01
aI00
aI01
aI01
aI01
aI01
asg50
I9
sg51
g54
sg55
(lp150
(g57
I0
g24
tp151
ag84
ag86
ag62
ag64
ag106
ag90
ag65
ag67
asg68
(lp152
g95
ag51
ag71
ag70
ag70
ag95
ag51
ag70
ag71
asg72
(lp153
g95
ag95
ag71
ag70
ag70
ag95
ag51
ag70
ag71
asg74
(lp154
g95
ag95
ag71
ag70
ag70
ag95
ag51
ag70
ag71
asaa(lp155
I7
ag39
(g40
tp156
Rp157
g43
(lp158
g45
ag46
ag45
ag45
ag80
ag45
ag46
ag45
ag47
ag45
ag46
asg48
(lp159
I01
aI01
aI00
aI00
aI00
aI01
aI01
aI01
aI01
aI01
aI01
asg50
I11
sg51
g54
sg55
(lp160
(g57
I0
g24
tp161
ag60
ag62
a(g61
I0
g59
tp162
ag89
a(g57
I0
g53
tp163
ag60
ag62
ag64
ag65
ag67
asg68
(lp164
g70
ag71
ag51
ag95
ag51
ag70
ag71
ag70
ag51
ag70
ag71
asg72
(lp165
g70
ag71
ag51
ag95
ag51
ag70
ag71
ag70
ag51
ag70
ag71
asg74
(lp166
g70
ag71
ag51
ag95
ag51
ag70
ag71
ag70
ag51
ag70
ag71
asaa(lp167
I8
ag39
(g40
tp168
Rp169
g43
(lp170
g45
ag80
ag46
ag45
ag47
ag45
ag46
asg48
(lp171
I00
aI01
aI01
aI01
aI01
aI01
aI01
asg50
I7
sg51
g54
sg55
(lp172
(g57
I0
g24
tp173
ag84
ag86
ag62
ag64
ag65
ag67
asg68
(lp174
g71
ag95
ag71
ag70
ag51
ag70
ag71
asg72
(lp175
g95
ag95
ag71
ag70
ag51
ag70
ag71
asg74
(lp176
g95
ag95
ag71
ag70
ag51
ag70
ag71
asaa(lp177
I9
ag39
(g40
tp178
Rp179
g43
(lp180
g45
ag46
ag45
ag47
ag47
ag47
ag45
ag46
asg48
(lp181
I01
aI01
aI01
aI00
aI00
aI01
aI01
aI01
asg50
I8
sg51
g54
sg55
(lp182
(g57
I0
g24
tp183
ag60
ag62
ag64
ag92
ag92
ag65
ag67
asg68
(lp184
g70
ag71
ag70
ag71
ag71
ag51
ag70
ag71
asg72
(lp185
g70
ag71
ag70
ag71
ag71
ag51
ag70
ag71
asg74
(lp186
g70
ag71
ag70
ag71
ag71
ag51
ag70
ag71
asaatp187
Rp188
aatp189
Rp190
.