ccollections
OrderedDict
p0
((lp1
(lp2
S'combination_dict'
p3
ag0
((lp4
(lp5
S'r_to_g_config'
p6
aS'bl'
p7
aa(lp8
S'num_turns'
p9
aI3
aa(lp10
S'start_direction'
p11
acutils_ms
StartDirection
p12
(I0
tp13
Rp14
aa(lp15
S'assistance_type'
p16
acutils_ms
AssistanceType
p17
(I2
tp18
Rp19
aa(lp20
S'start_mode'
p21
aS'y'
p22
aa(lp23
S'ui_given_a_noise'
p24
aF0.3
aa(lp25
S'um_given_ui_noise'
p26
aF0.3
aa(lp27
S'entropy_threshold'
p28
aF0.5
aatp29
Rp30
aa(lp31
S'data'
p32
accollections
defaultdict
p33
(c__builtin__
list
p34
tp35
Rp36
S'a'
p37
(lp38
S'mode_l'
p39
aS'move_n'
p40
aS'mode_r'
p41
ag39
ag41
ag40
ag39
ag40
ag41
ag39
ag39
ag41
ag40
ag39
ag39
ag39
ag40
ag39
ag39
ag40
ag41
ag41
ag39
ag40
ag41
ag40
ag39
ag39
ag40
ag41
ag41
ag41
ag40
ag39
ag39
ag39
ag41
ag40
ag39
ag40
ag41
ag39
ag39
ag39
ag40
ag39
ag41
ag39
ag40
ag41
ag40
ag39
ag40
ag39
aS'move_p'
p42
ag39
ag41
ag40
ag39
ag40
ag41
ag40
asS'assistance_match_with_ground_truth'
p43
(lp44
I01
aI01
aI00
aI00
aI01
aI00
aI01
aI01
aI00
aI00
aI00
aI01
aI01
aI00
aI00
aI01
aI00
aI00
aI01
aI00
aI00
aI00
aI01
aI00
aI01
aI00
aI00
aI01
aI01
aI00
aI00
aI01
aI00
aI00
aI00
aI00
aI01
aI01
aI01
aI00
aI00
aI00
aI00
aI01
aI00
aI00
aI00
aI01
aI01
aI01
aI01
aI01
aI01
aI01
aI01
aI00
aI01
aI00
aI01
aI01
aI01
aI01
asS'total_steps'
p45
I62
sS'sp'
p46
(lp47
(S'p0'
p48
I0
S'x'
p49
tp50
a(S'p1'
p51
I0
g49
tp52
a(g51
I0
S't'
p53
tp54
a(g51
I0
g49
tp55
a(g51
I0
S'y'
p56
tp57
a(g48
I0
g56
tp58
ag50
ag52
ag54
a(g51
I0
g53
tp59
ag55
ag57
a(S'p2'
p60
I0
g56
tp61
a(g60
I0
g56
tp62
ag62
a(g60
I0
g49
tp63
a(g60
I0
g56
tp64
a(g60
I0
g56
tp65
ag63
a(g60
I0
g53
tp66
a(g60
I0
g53
tp67
a(g60
I0
g56
tp68
ag63
a(g51
I0
g49
tp69
ag57
ag58
a(g48
I0
g56
tp70
ag50
ag52
a(g51
I0
g49
tp71
a(g51
I0
g49
tp72
ag57
a(g51
I0
g53
tp73
ag59
a(g51
I0
g53
tp74
ag55
ag57
ag61
ag63
ag69
ag54
ag59
ag59
a(g51
I0
g56
tp75
ag58
a(g48
I0
g53
tp76
a(g48
I0
g56
tp77
ag50
ag52
ag57
ag61
ag63
a(S'p3'
p78
I0
g49
tp79
a(g78
I0
g53
tp80
a(g78
F1.5707963267948966
g53
tp81
a(g78
F1.5707963267948966
g49
tp82
a(g78
F1.5707963267948966
g56
tp83
a(g60
F1.5707963267948966
g56
tp84
a(g60
F1.5707963267948966
g49
tp85
a(g78
F1.5707963267948966
g49
tp86
ag83
a(S'p4'
p87
F1.5707963267948966
g56
tp88
asS's'
p89
(lp90
(g48
I0
g22
tp91
ag50
ag52
ag54
ag55
ag57
ag58
ag50
ag52
ag54
ag59
ag55
ag57
ag61
ag62
ag62
ag63
ag64
ag65
ag63
ag66
ag67
ag68
ag63
ag69
ag57
ag58
ag70
ag50
ag52
ag71
ag72
ag57
ag73
ag59
ag74
ag55
ag57
ag61
ag63
ag69
ag54
ag59
ag59
ag75
ag58
ag76
ag77
ag50
ag52
ag57
ag61
ag63
ag79
ag80
ag81
ag82
ag83
ag84
ag85
ag86
ag83
asS'ui'
p92
(lp93
S'hs'
p94
aS'ss'
p95
ag94
aS'hp'
p96
ag96
ag95
ag94
ag95
ag96
ag94
ag96
ag96
ag95
ag94
ag95
ag94
ag95
ag46
ag94
ag95
ag96
ag94
ag94
ag95
ag96
ag95
ag46
ag94
ag95
ag96
ag94
ag96
ag96
ag94
ag96
ag94
ag96
ag95
ag94
ag46
ag94
ag94
ag46
ag94
ag95
ag96
ag96
ag94
ag95
ag96
ag95
ag94
ag95
ag94
ag46
ag96
ag96
ag96
ag94
ag95
ag96
ag95
asS'um_before'
p97
(lp98
g94
ag95
ag94
ag96
ag96
ag46
ag94
ag95
ag94
ag46
ag96
ag96
ag95
ag95
ag95
ag94
ag96
ag46
ag94
ag94
ag46
ag94
ag94
ag46
ag96
ag46
ag46
ag94
ag95
ag46
ag95
ag96
ag96
ag46
ag95
ag96
ag96
ag95
ag94
ag46
ag94
ag46
ag46
ag94
ag46
ag96
ag94
ag94
ag95
ag96
ag95
ag94
ag95
ag94
ag46
ag96
ag96
ag46
ag94
ag95
ag96
ag95
asS'um_after'
p99
(lp100
g94
ag95
ag94
ag96
ag96
ag46
ag94
ag95
ag94
ag46
ag96
ag96
ag95
ag95
ag95
ag94
ag96
ag46
ag94
ag94
ag46
ag94
ag94
ag46
ag96
ag46
ag46
ag94
ag95
ag46
ag95
ag96
ag96
ag46
ag95
ag96
ag96
ag95
ag94
ag46
ag94
ag46
ag46
ag94
ag46
ag96
ag94
ag94
ag95
ag96
ag95
ag94
ag95
ag94
ag46
ag96
ag96
ag46
ag94
ag95
ag96
ag95
asaa(lp101
S'index'
p102
aI81054
aatp103
Rp104
.