ccollections
OrderedDict
p0
((lp1
(lp2
S'index'
p3
aI5446
aa(lp4
S'combination_dict'
p5
ag0
((lp6
(lp7
S'r_to_g_config'
p8
aS'tl'
p9
aa(lp10
S'num_turns'
p11
aI2
aa(lp12
S'start_direction'
p13
acutils_ms
StartDirection
p14
(I3
tp15
Rp16
aa(lp17
S'assistance_type'
p18
acutils_ms
AssistanceType
p19
(I1
tp20
Rp21
aa(lp22
S'start_mode'
p23
aS't'
p24
aa(lp25
S'ui_given_a_noise'
p26
aF0.1
aa(lp27
S'um_given_ui_noise'
p28
aF0.1
aa(lp29
S'entropy_threshold'
p30
aF0.8
aa(lp31
S'is_assistance'
p32
aI01
aatp33
Rp34
aa(lp35
S'trials'
p36
ag0
((lp37
(lp38
I0
accollections
defaultdict
p39
(c__builtin__
list
p40
tp41
Rp42
S'a'
p43
(lp44
S'mode_r'
p45
aS'move_n'
p46
ag45
aS'move_p'
p47
ag45
ag47
ag47
ag45
ag46
asS'assistance_match_with_ground_truth'
p48
(lp49
I01
aI01
aI01
aI01
aI01
aI00
aI01
aI01
aI01
asS'total_steps'
p50
I9
sS'sp'
p51
(S'p3'
p52
F1.5707963267948966
S'x'
p53
tp54
sS's'
p55
(lp56
(S'p0'
p57
I0
g24
tp58
a(g57
I0
g53
tp59
a(S'p1'
p60
I0
g53
tp61
a(g60
I0
S'y'
p62
tp63
a(S'p2'
p64
I0
g62
tp65
a(g64
I0
S't'
p66
tp67
a(g64
I0
g66
tp68
a(g64
F1.5707963267948966
g66
tp69
a(g64
F1.5707963267948966
g53
tp70
asS'ui'
p71
(lp72
S'hp'
p73
aS'ss'
p74
ag73
ag51
ag73
ag74
ag51
ag73
ag74
asS'um_before'
p75
(lp76
g73
ag74
ag73
ag51
ag73
ag74
ag51
ag73
ag74
asS'um_after'
p77
(lp78
g73
ag74
ag73
ag51
ag73
ag74
ag51
ag73
ag74
asaa(lp79
I1
ag39
(g40
tp80
Rp81
g43
(lp82
g45
ag46
ag45
ag47
ag45
ag47
ag45
ag46
asg48
(lp83
I01
aI01
aI01
aI01
aI01
aI01
aI01
aI01
asg50
I8
sg51
g54
sg55
(lp84
(g57
I0
g24
tp85
ag59
ag61
ag63
ag65
ag67
ag69
ag70
asg71
(lp86
g73
ag74
ag73
ag51
ag73
ag51
ag73
ag74
asg75
(lp87
g73
ag74
ag73
ag51
ag73
ag51
ag73
ag74
asg77
(lp88
g73
ag74
ag73
ag51
ag73
ag51
ag73
ag74
asaa(lp89
I2
ag39
(g40
tp90
Rp91
g43
(lp92
g45
ag46
ag45
ag47
ag45
ag47
aS'mode_l'
p93
ag47
ag45
ag46
asg48
(lp94
I01
aI01
aI01
aI01
aI01
aI00
aI01
aI01
aI01
aI01
asg50
I10
sg51
g54
sg55
(lp95
(g57
I0
g24
tp96
ag59
ag61
ag63
ag65
ag67
a(g64
I0
g53
tp97
a(g64
I0
g66
tp98
ag69
ag70
asg71
(lp99
g73
ag74
ag73
ag51
ag73
ag51
aS'hs'
p100
ag51
ag73
ag74
asg75
(lp101
g73
ag74
ag73
ag51
ag73
ag73
ag100
ag51
ag73
ag74
asg77
(lp102
g73
ag74
ag73
ag51
ag73
ag73
ag100
ag51
ag73
ag74
asaa(lp103
I3
ag39
(g40
tp104
Rp105
g43
(lp106
g45
ag46
ag45
ag47
ag93
ag47
ag45
ag47
ag47
ag45
ag46
asg48
(lp107
I01
aI01
aI01
aI00
aI01
aI01
aI01
aI00
aI01
aI01
aI01
asg50
I11
sg51
g54
sg55
(lp108
(g57
I0
g24
tp109
ag59
ag61
ag63
a(g60
I0
g66
tp110
a(g60
I0
g62
tp111
ag65
ag67
ag68
ag69
ag70
asg71
(lp112
g73
ag74
ag73
ag51
ag100
ag51
ag73
ag51
ag51
ag73
ag74
asg75
(lp113
g73
ag74
ag73
ag73
ag100
ag51
ag73
ag74
ag51
ag73
ag74
asg77
(lp114
g73
ag74
ag73
ag73
ag100
ag51
ag73
ag74
ag51
ag73
ag74
asaa(lp115
I4
ag39
(g40
tp116
Rp117
g43
(lp118
g45
ag46
ag45
ag47
ag45
ag47
ag45
ag46
asg48
(lp119
I01
aI01
aI01
aI01
aI01
aI01
aI01
aI01
asg50
I8
sg51
g54
sg55
(lp120
(g57
I0
g24
tp121
ag59
ag61
ag63
ag65
ag67
ag69
ag70
asg71
(lp122
g73
ag74
ag73
ag51
ag73
ag51
ag73
ag74
asg75
(lp123
g73
ag74
ag73
ag51
ag73
ag51
ag73
ag74
asg77
(lp124
g73
ag74
ag73
ag51
ag73
ag51
ag73
ag74
asaa(lp125
I5
ag39
(g40
tp126
Rp127
g43
(lp128
g45
ag46
ag45
ag47
ag45
ag47
ag45
ag47
ag45
ag46
asg48
(lp129
I01
aI01
aI01
aI00
aI01
aI01
aI01
aI01
aI01
aI01
asg50
I10
sg51
g54
sg55
(lp130
(g57
I0
g24
tp131
ag59
ag61
ag63
a(g60
I0
g53
tp132
ag63
ag65
ag67
ag69
ag70
asg71
(lp133
g73
ag74
ag73
ag51
ag73
ag51
ag73
ag51
ag73
ag74
asg75
(lp134
g73
ag74
ag73
ag100
ag73
ag51
ag73
ag51
ag73
ag74
asg77
(lp135
g73
ag74
ag73
ag100
ag73
ag51
ag73
ag51
ag73
ag74
asaa(lp136
I6
ag39
(g40
tp137
Rp138
g43
(lp139
g45
ag46
ag45
ag47
ag45
ag47
ag93
ag47
ag45
ag47
ag45
ag45
ag46
asg48
(lp140
I01
aI01
aI01
aI00
aI01
aI00
aI01
aI01
aI01
aI01
aI00
aI01
aI01
asg50
I13
sg51
g54
sg55
(lp141
(g57
I0
g24
tp142
ag59
ag61
ag63
ag132
ag63
ag110
ag111
ag65
ag67
ag69
a(g64
F1.5707963267948966
g66
tp143
ag70
asg71
(lp144
g73
ag74
ag73
ag100
ag73
ag51
ag100
ag51
ag73
ag51
ag51
ag73
ag74
asg75
(lp145
g73
ag74
ag73
ag100
ag73
ag73
ag100
ag51
ag73
ag51
ag51
ag73
ag74
asg77
(lp146
g73
ag74
ag73
ag100
ag73
ag73
ag100
ag51
ag73
ag51
ag51
ag73
ag74
asaa(lp147
I7
ag39
(g40
tp148
Rp149
g43
(lp150
g45
ag46
ag45
ag47
ag45
ag47
ag45
ag46
asg48
(lp151
I01
aI01
aI01
aI01
aI01
aI01
aI01
aI01
asg50
I8
sg51
g54
sg55
(lp152
(g57
I0
g24
tp153
ag59
ag61
ag63
ag65
ag67
ag69
ag70
asg71
(lp154
g73
ag74
ag73
ag51
ag73
ag51
ag73
ag74
asg75
(lp155
g73
ag100
ag73
ag51
ag73
ag51
ag73
ag74
asg77
(lp156
g73
ag74
ag73
ag51
ag73
ag51
ag73
ag74
asaa(lp157
I8
ag39
(g40
tp158
Rp159
g43
(lp160
g45
ag46
ag45
ag47
ag45
ag47
ag45
ag46
ag93
ag46
asg48
(lp161
I01
aI01
aI01
aI01
aI01
aI01
aI01
aI00
aI01
aI01
asg50
I10
sg51
g54
sg55
(lp162
(g57
I0
g24
tp163
ag59
ag61
ag63
ag65
ag67
ag69
ag70
a(g64
F1.5707963267948966
g62
tp164
a(g64
F1.5707963267948966
g53
tp165
asg71
(lp166
g73
ag74
ag73
ag51
ag73
ag51
ag73
ag74
ag100
ag74
asg75
(lp167
g73
ag74
ag73
ag51
ag73
ag51
ag73
ag73
ag100
ag100
asg77
(lp168
g73
ag74
ag73
ag51
ag73
ag51
ag73
ag73
ag100
ag74
asaa(lp169
I9
ag39
(g40
tp170
Rp171
g43
(lp172
g45
ag46
ag45
ag47
ag45
ag47
ag45
ag46
ag93
ag46
asg48
(lp173
I01
aI01
aI01
aI01
aI01
aI01
aI01
aI00
aI01
aI01
asg50
I10
sg51
g54
sg55
(lp174
(g57
I0
g24
tp175
ag59
ag61
ag63
ag65
ag67
ag69
ag70
ag164
ag165
asg71
(lp176
g73
ag74
ag73
ag51
ag73
ag51
ag73
ag74
ag51
ag74
asg75
(lp177
g73
ag74
ag73
ag51
ag73
ag51
ag100
ag73
ag51
ag51
asg77
(lp178
g73
ag74
ag73
ag51
ag73
ag51
ag73
ag73
ag100
ag74
asaatp179
Rp180
aatp181
Rp182
.