ccollections
OrderedDict
p0
((lp1
(lp2
S'index'
p3
aI3773
aa(lp4
S'combination_dict'
p5
ag0
((lp6
(lp7
S'r_to_g_config'
p8
aS'tr'
p9
aa(lp10
S'num_turns'
p11
aI3
aa(lp12
S'start_direction'
p13
acutils_ms
StartDirection
p14
(I1
tp15
Rp16
aa(lp17
S'assistance_type'
p18
acutils_ms
AssistanceType
p19
(I1
tp20
Rp21
aa(lp22
S'start_mode'
p23
aS't'
p24
aa(lp25
S'ui_given_a_noise'
p26
aF0.5
aa(lp27
S'um_given_ui_noise'
p28
aF0.3
aa(lp29
S'entropy_threshold'
p30
aF0.6
aa(lp31
S'is_assistance'
p32
aI00
aatp33
Rp34
aa(lp35
S'trials'
p36
ag0
((lp37
(lp38
I0
accollections
defaultdict
p39
(c__builtin__
list
p40
tp41
Rp42
S'a'
p43
(lp44
S'mode_l'
p45
ag45
aS'move_p'
p46
ag45
ag45
ag45
ag46
ag45
ag45
ag45
aS'mode_r'
p47
ag45
ag46
ag47
ag46
ag45
ag46
ag45
ag47
ag47
ag45
ag45
ag47
ag45
ag46
ag45
ag45
ag45
ag47
ag47
ag46
ag47
ag47
ag45
ag46
ag45
asS'assistance_match_with_ground_truth'
p48
(lp49
I00
aI01
aI01
aI00
aI00
aI01
aI00
aI00
aI00
aI00
aI00
aI01
aI01
aI01
aI00
aI01
aI00
aI00
aI00
aI00
aI00
aI00
aI00
aI01
aI00
aI00
aI00
aI00
aI00
aI01
aI01
aI00
aI00
aI01
aI00
aI00
asS'total_steps'
p50
I36
sS'sp'
p51
(S'p4'
p52
I0
S'x'
p53
tp54
sS's'
p55
(lp56
(S'p0'
p57
I0
g24
tp58
a(g57
I0
S't'
p59
tp60
a(g57
I0
S'y'
p61
tp62
a(S'p1'
p63
I0
g61
tp64
a(g63
I0
g61
tp65
ag65
a(g63
I0
g53
tp66
a(g63
I0
g61
tp67
ag65
a(g63
I0
g61
tp68
a(g63
I0
g59
tp69
a(g63
I0
g61
tp70
ag66
a(S'p2'
p71
I0
g53
tp72
a(g71
I0
g61
tp73
a(g71
I0
g59
tp74
a(g71
I0
g61
tp75
ag74
a(g71
I0
g53
tp76
a(g71
I0
g53
tp77
a(g71
I0
g59
tp78
a(g71
I0
g59
tp79
ag76
ag78
ag75
ag74
ag79
ag79
ag76
a(g71
I0
g53
tp80
ag73
a(S'p3'
p81
I0
g61
tp82
a(g81
I0
g61
tp83
a(g81
I0
g53
tp84
a(g81
I0
g59
tp85
a(g81
I0
g53
tp86
asS'ui'
p87
(lp88
S'hp'
p89
aS'hs'
p90
ag51
ag51
ag90
ag90
ag89
ag90
aS'ss'
p91
ag90
ag90
ag90
ag51
ag89
ag89
ag90
ag89
ag89
ag51
ag90
ag91
ag91
ag90
ag90
ag89
ag91
ag89
ag51
ag91
ag89
ag51
ag51
ag90
ag90
ag89
ag89
asS'um_before'
p92
(lp93
g51
ag90
ag51
ag51
ag51
ag90
ag89
ag51
ag91
ag89
ag90
ag90
ag51
ag89
ag89
ag90
ag89
ag89
ag51
ag90
ag91
ag89
ag90
ag90
ag89
ag91
ag91
ag89
ag91
ag89
ag51
ag51
ag90
ag90
ag89
ag51
asS'um_after'
p94
(lp95
g51
ag90
ag51
ag51
ag51
ag90
ag89
ag51
ag91
ag89
ag90
ag90
ag51
ag89
ag89
ag90
ag89
ag89
ag51
ag90
ag91
ag89
ag90
ag90
ag89
ag91
ag91
ag89
ag91
ag89
ag51
ag51
ag90
ag90
ag89
ag51
asaa(lp96
I1
ag39
(g40
tp97
Rp98
g43
(lp99
g45
ag45
ag47
ag46
ag45
ag45
ag46
ag47
ag46
ag47
ag45
ag46
ag47
ag46
ag47
ag46
ag47
ag46
ag45
ag47
ag47
ag46
ag46
ag47
ag45
ag46
asg48
(lp100
I00
aI00
aI01
aI01
aI00
aI01
aI01
aI01
aI01
aI00
aI01
aI01
aI01
aI00
aI01
aI00
aI01
aI01
aI00
aI00
aI00
aI00
aI01
aI00
aI01
aI01
asg50
I26
sg51
(g52
F1.5707963267948966
g53
tp101
sg55
(lp102
(g57
I0
g24
tp103
ag60
a(g57
I0
g53
tp104
a(g57
I0
g61
tp105
ag64
ag65
ag66
ag72
ag73
ag82
ag84
ag85
a(g81
F1.5707963267948966
g59
tp106
a(g81
F1.5707963267948966
g53
tp107
a(g71
F1.5707963267948966
g53
tp108
a(g71
F1.5707963267948966
g61
tp109
a(g71
F1.5707963267948966
g53
tp110
ag109
a(g81
F1.5707963267948966
g61
tp111
a(g81
F1.5707963267948966
g59
tp112
a(g81
F1.5707963267948966
g59
tp113
a(g81
I0
g59
tp114
a(g81
I0
g59
tp115
ag106
a(g81
F1.5707963267948966
g61
tp116
a(g81
F1.5707963267948966
g53
tp117
asg87
(lp118
g90
ag89
ag89
ag51
ag51
ag90
ag51
ag89
ag51
ag51
ag90
ag89
ag89
ag51
ag89
ag90
ag89
ag51
ag89
ag51
ag51
ag91
ag51
ag89
ag90
ag51
asg92
(lp119
g51
ag89
ag89
ag51
ag51
ag90
ag51
ag89
ag51
ag90
ag90
ag51
ag89
ag91
ag89
ag90
ag89
ag51
ag89
ag51
ag91
ag91
ag51
ag90
ag90
ag51
asg94
(lp120
g51
ag89
ag89
ag51
ag51
ag90
ag51
ag89
ag51
ag90
ag90
ag51
ag89
ag91
ag89
ag90
ag89
ag51
ag89
ag51
ag91
ag91
ag51
ag90
ag90
ag51
asaa(lp121
I2
ag39
(g40
tp122
Rp123
g43
(lp124
g45
ag45
ag45
ag45
ag47
ag46
ag47
ag45
ag45
ag46
ag45
ag46
ag47
ag45
ag47
ag46
ag47
ag46
ag45
asg48
(lp125
I00
aI00
aI00
aI00
aI01
aI00
aI00
aI00
aI01
aI01
aI01
aI01
aI00
aI00
aI01
aI01
aI01
aI00
aI00
asg50
I19
sg51
g54
sg55
(lp126
(g57
I0
g24
tp127
a(g57
I0
g59
tp128
ag60
ag60
ag104
ag105
a(g57
I0
g53
tp129
a(g57
I0
g59
tp130
ag60
ag62
ag64
ag66
ag72
ag78
ag76
ag73
ag82
a(g81
I0
g59
tp131
ag86
asg87
(lp132
g91
ag51
ag90
ag89
ag51
ag51
ag89
ag90
ag90
ag51
ag90
ag51
ag90
ag89
ag89
ag51
ag89
ag51
ag51
asg92
(lp133
g91
ag51
ag51
ag89
ag89
ag90
ag90
ag51
ag90
ag51
ag90
ag51
ag90
ag89
ag89
ag51
ag89
ag89
ag51
asg94
(lp134
g91
ag51
ag51
ag89
ag89
ag90
ag90
ag51
ag90
ag51
ag90
ag51
ag90
ag89
ag89
ag51
ag89
ag89
ag51
asaa(lp135
I3
ag39
(g40
tp136
Rp137
g43
(lp138
g45
ag47
ag45
ag45
ag45
ag47
ag46
ag47
ag46
ag45
ag45
ag45
ag46
ag45
ag46
ag47
ag46
ag47
ag47
ag45
asg48
(lp139
I00
aI00
aI00
aI00
aI00
aI01
aI00
aI01
aI00
aI00
aI00
aI01
aI01
aI01
aI01
aI01
aI01
aI00
aI00
aI00
asg50
I20
sg51
g54
sg55
(lp140
(g57
I0
g24
tp141
ag104
ag130
ag60
ag60
ag104
ag105
ag129
ag105
a(g57
I0
g59
tp142
ag60
ag60
ag62
ag64
ag66
ag72
ag73
ag82
ag83
ag84
asg87
(lp143
g90
ag90
ag51
ag90
ag90
ag89
ag51
ag89
ag89
ag51
ag51
ag90
ag51
ag90
ag90
ag89
ag51
ag89
ag51
ag90
asg92
(lp144
g89
ag90
ag51
ag51
ag89
ag89
ag90
ag89
ag89
ag51
ag51
ag90
ag51
ag90
ag51
ag89
ag51
ag51
ag90
ag51
asg94
(lp145
g89
ag90
ag51
ag51
ag89
ag89
ag90
ag89
ag89
ag51
ag51
ag90
ag51
ag90
ag51
ag89
ag51
ag51
ag90
ag51
asaa(lp146
I4
ag39
(g40
tp147
Rp148
g43
(lp149
g45
ag45
ag46
ag45
ag45
ag45
ag46
ag46
ag45
ag45
ag45
ag45
ag45
ag45
ag47
ag47
ag47
ag46
ag47
ag46
ag45
ag45
ag45
ag46
ag47
ag46
ag47
ag47
ag47
ag46
ag47
ag46
ag47
ag46
ag47
ag46
asg48
(lp150
I00
aI01
aI00
aI00
aI00
aI01
aI00
aI01
aI00
aI00
aI00
aI00
aI00
aI00
aI00
aI00
aI01
aI01
aI01
aI00
aI00
aI00
aI01
aI01
aI01
aI00
aI00
aI00
aI01
aI00
aI01
aI01
aI01
aI00
aI01
aI01
asg50
I36
sg51
g101
sg55
(lp151
(g57
I0
g24
tp152
ag60
ag62
ag142
ag60
ag60
ag62
a(g57
I0
g61
tp153
ag64
ag65
ag68
ag65
ag65
ag68
ag69
a(g63
I0
g59
tp154
ag154
a(g63
I0
g53
tp155
ag72
ag73
ag74
ag79
a(g71
I0
g59
tp156
ag75
ag82
ag131
a(g81
I0
g61
tp157
ag83
ag83
ag131
ag157
ag131
ag106
ag107
a(g81
F1.5707963267948966
g59
tp158
ag107
asg87
(lp159
g90
ag90
ag89
ag51
ag90
ag91
ag51
ag51
ag51
ag91
ag51
ag90
ag91
ag89
ag51
ag51
ag89
ag51
ag89
ag51
ag91
ag51
ag90
ag51
ag89
ag89
ag51
ag51
ag89
ag51
ag89
ag51
ag89
ag51
ag89
ag51
asg92
(lp160
g51
ag90
ag89
ag51
ag51
ag90
ag91
ag51
ag51
ag91
ag51
ag51
ag91
ag89
ag51
ag51
ag89
ag51
ag89
ag89
ag91
ag51
ag90
ag51
ag89
ag90
ag51
ag51
ag89
ag90
ag89
ag51
ag89
ag90
ag89
ag51
asg94
(lp161
g51
ag90
ag89
ag51
ag51
ag90
ag91
ag51
ag51
ag91
ag51
ag51
ag91
ag89
ag51
ag51
ag89
ag51
ag89
ag89
ag91
ag51
ag90
ag51
ag89
ag90
ag51
ag51
ag89
ag90
ag89
ag51
ag89
ag90
ag89
ag51
asaa(lp162
I5
ag39
(g40
tp163
Rp164
g43
(lp165
g45
ag46
ag45
ag46
ag45
ag45
ag46
ag45
ag45
ag45
ag46
ag45
ag45
ag47
ag47
ag46
ag47
ag45
ag47
ag46
ag45
ag45
ag47
ag47
ag47
ag46
ag45
ag46
ag47
ag46
ag47
ag45
ag46
ag47
ag46
ag47
ag46
asg48
(lp166
I01
aI00
aI01
aI00
aI00
aI01
aI00
aI00
aI00
aI01
aI01
aI00
aI00
aI00
aI01
aI00
aI00
aI00
aI01
aI00
aI00
aI00
aI00
aI00
aI01
aI01
aI01
aI01
aI01
aI01
aI00
aI01
aI00
aI01
aI01
aI01
aI01
asg50
I37
sg51
g101
sg55
(lp167
(g57
I0
g24
tp168
ag62
ag142
ag62
ag142
ag60
ag62
ag142
ag60
ag128
ag62
ag64
ag65
ag69
ag154
ag155
a(g57
I0
g53
tp169
ag130
ag104
ag105
ag142
ag128
ag104
a(g57
I0
g53
tp170
a(g57
I0
g53
tp171
ag105
ag64
ag66
ag72
ag73
ag82
ag84
ag85
ag157
ag131
ag106
ag107
asg87
(lp172
g90
ag89
ag90
ag89
ag90
ag90
ag89
ag90
ag91
ag90
ag51
ag51
ag90
ag51
ag89
ag91
ag90
ag90
ag89
ag89
ag51
ag91
ag90
ag90
ag89
ag51
ag90
ag51
ag89
ag51
ag90
ag90
ag89
ag89
ag51
ag89
ag51
asg92
(lp173
g90
ag89
ag90
ag89
ag51
ag90
ag89
ag51
ag91
ag90
ag51
ag51
ag89
ag51
ag89
ag91
ag90
ag89
ag89
ag89
ag91
ag89
ag51
ag91
ag89
ag51
ag90
ag51
ag89
ag51
ag90
ag90
ag90
ag89
ag51
ag89
ag51
asg94
(lp174
g90
ag89
ag90
ag89
ag51
ag90
ag89
ag51
ag91
ag90
ag51
ag51
ag89
ag51
ag89
ag91
ag90
ag89
ag89
ag89
ag91
ag89
ag51
ag91
ag89
ag51
ag90
ag51
ag89
ag51
ag90
ag90
ag90
ag89
ag51
ag89
ag51
asaa(lp175
I6
ag39
(g40
tp176
Rp177
g43
(lp178
g45
ag46
ag45
ag46
ag46
ag45
ag46
ag47
ag45
ag46
ag47
ag45
ag46
ag45
ag46
ag47
ag45
ag46
asg48
(lp179
I01
aI00
aI01
aI00
aI01
aI01
aI01
aI00
aI01
aI01
aI00
aI01
aI00
aI01
aI01
aI00
aI01
aI01
asg50
I18
sg51
g101
sg55
(lp180
(g57
I0
g24
tp181
ag62
ag142
ag62
ag153
ag64
ag66
ag72
ag78
ag75
ag82
ag84
ag85
ag86
ag85
ag106
ag116
ag117
asg87
(lp182
g90
ag89
ag90
ag51
ag51
ag90
ag51
ag90
ag91
ag51
ag90
ag90
ag89
ag90
ag51
ag89
ag90
ag51
asg92
(lp183
g90
ag89
ag90
ag91
ag51
ag90
ag51
ag90
ag90
ag51
ag90
ag90
ag89
ag90
ag51
ag90
ag90
ag51
asg94
(lp184
g90
ag89
ag90
ag91
ag51
ag90
ag51
ag90
ag90
ag51
ag90
ag90
ag89
ag90
ag51
ag90
ag90
ag51
asaa(lp185
I7
ag39
(g40
tp186
Rp187
g43
(lp188
g45
ag45
ag45
ag47
ag45
ag45
ag47
ag46
ag46
ag47
ag46
ag46
ag45
ag45
ag46
ag47
ag45
ag46
ag47
ag46
ag47
ag45
ag46
ag47
ag46
ag47
ag46
ag45
ag46
ag45
ag45
ag46
ag45
ag45
ag45
ag47
ag46
asg48
(lp189
I00
aI00
aI00
aI00
aI00
aI00
aI01
aI00
aI00
aI01
aI00
aI01
aI00
aI01
aI00
aI00
aI01
aI01
aI01
aI01
aI00
aI01
aI01
aI01
aI00
aI01
aI00
aI01
aI01
aI00
aI01
aI00
aI00
aI00
aI00
aI01
aI01
asg50
I37
sg51
g101
sg55
(lp190
(g57
I0
g24
tp191
ag60
ag60
ag104
ag130
ag60
ag104
ag105
ag153
ag129
ag105
ag153
ag64
ag68
ag66
a(g63
I0
g59
tp192
ag70
ag66
ag72
ag73
ag82
ag84
ag85
ag106
ag107
ag108
ag109
a(g71
F1.5707963267948966
g59
tp193
a(g71
F1.5707963267948966
g61
tp194
ag111
a(g81
F1.5707963267948966
g61
tp195
ag117
a(g81
F1.5707963267948966
g61
tp196
ag195
ag195
ag112
ag107
asg87
(lp197
g51
ag51
ag89
ag89
ag89
ag91
ag89
ag51
ag51
ag89
ag51
ag51
ag91
ag90
ag51
ag89
ag90
ag51
ag89
ag51
ag51
ag90
ag89
ag89
ag51
ag89
ag89
ag51
ag51
ag90
ag89
ag51
ag89
ag89
ag89
ag89
ag51
asg92
(lp198
g51
ag51
ag89
ag90
ag51
ag89
ag89
ag91
ag90
ag89
ag91
ag51
ag91
ag90
ag90
ag90
ag90
ag51
ag89
ag51
ag90
ag90
ag51
ag89
ag91
ag89
ag89
ag90
ag51
ag51
ag90
ag89
ag51
ag51
ag89
ag89
ag51
asg94
(lp199
g51
ag51
ag89
ag90
ag51
ag89
ag89
ag91
ag90
ag89
ag91
ag51
ag91
ag90
ag90
ag90
ag90
ag51
ag89
ag51
ag90
ag90
ag51
ag89
ag91
ag89
ag89
ag90
ag51
ag51
ag90
ag89
ag51
ag51
ag89
ag89
ag51
asaa(lp200
I8
ag39
(g40
tp201
Rp202
g43
(lp203
g45
ag45
ag45
ag45
ag45
ag45
ag47
ag45
ag45
ag45
ag45
ag46
ag45
ag46
ag47
ag45
ag47
ag47
ag45
ag45
ag45
ag45
ag45
ag46
ag45
ag45
ag45
ag46
ag47
ag47
ag47
ag45
ag46
ag47
ag47
ag47
ag47
ag45
ag46
ag47
ag46
ag45
ag46
ag45
ag47
ag47
ag46
ag47
ag47
ag47
ag45
ag47
ag46
ag45
ag45
ag47
ag46
ag47
ag47
ag46
ag47
ag46
ag45
ag45
ag46
asg48
(lp204
I00
aI00
aI00
aI00
aI00
aI00
aI00
aI00
aI00
aI00
aI01
aI01
aI01
aI00
aI00
aI00
aI00
aI00
aI00
aI00
aI00
aI00
aI01
aI00
aI00
aI00
aI01
aI00
aI00
aI00
aI00
aI01
aI00
aI00
aI00
aI00
aI00
aI01
aI01
aI01
aI00
aI01
aI00
aI00
aI00
aI01
aI01
aI00
aI00
aI00
aI00
aI01
aI00
aI00
aI00
aI01
aI01
aI00
aI01
aI01
aI01
aI00
aI00
aI01
aI01
asg50
I65
sg51
g101
sg55
(lp205
(g57
I0
g24
tp206
ag128
ag60
ag60
ag60
ag60
ag104
ag130
ag60
ag60
ag60
ag62
ag64
ag66
ag192
ag70
ag69
ag154
ag70
ag68
ag65
ag65
ag65
ag66
ag67
ag65
ag68
ag66
ag192
a(g63
I0
g59
tp207
ag154
ag70
ag66
ag192
ag154
ag154
ag207
ag70
ag66
ag72
ag73
a(g63
I0
g61
tp208
ag66
ag67
ag69
ag154
ag155
ag72
ag80
ag80
ag78
ag76
ag73
ag74
ag156
ag76
ag73
ag82
ag83
ag131
ag106
ag107
ag196
ag195
ag117
asg87
(lp209
g91
ag89
ag89
ag51
ag90
ag91
ag90
ag90
ag51
ag90
ag90
ag51
ag90
ag51
ag51
ag89
ag51
ag51
ag91
ag51
ag90
ag51
ag90
ag89
ag90
ag91
ag90
ag90
ag51
ag89
ag89
ag90
ag89
ag89
ag89
ag51
ag51
ag90
ag51
ag89
ag51
ag90
ag89
ag91
ag89
ag89
ag51
ag89
ag91
ag90
ag91
ag89
ag89
ag90
ag89
ag89
ag51
ag51
ag89
ag51
ag89
ag89
ag90
ag90
ag89
asg92
(lp210
g91
ag51
ag51
ag51
ag51
ag89
ag90
ag51
ag51
ag51
ag90
ag51
ag90
ag90
ag90
ag89
ag51
ag90
ag91
ag51
ag51
ag51
ag90
ag89
ag51
ag91
ag90
ag90
ag91
ag51
ag90
ag90
ag90
ag51
ag51
ag91
ag90
ag90
ag51
ag89
ag91
ag90
ag89
ag89
ag51
ag89
ag51
ag91
ag91
ag90
ag89
ag89
ag89
ag51
ag89
ag89
ag51
ag51
ag89
ag51
ag89
ag89
ag51
ag90
ag51
asg94
(lp211
g91
ag51
ag51
ag51
ag51
ag89
ag90
ag51
ag51
ag51
ag90
ag51
ag90
ag90
ag90
ag89
ag51
ag90
ag91
ag51
ag51
ag51
ag90
ag89
ag51
ag91
ag90
ag90
ag91
ag51
ag90
ag90
ag90
ag51
ag51
ag91
ag90
ag90
ag51
ag89
ag91
ag90
ag89
ag89
ag51
ag89
ag51
ag91
ag91
ag90
ag89
ag89
ag89
ag51
ag89
ag89
ag51
ag51
ag89
ag51
ag89
ag89
ag51
ag90
ag51
asaa(lp212
I9
ag39
(g40
tp213
Rp214
g43
(lp215
g45
ag47
ag47
ag47
ag46
ag45
ag45
ag46
ag45
ag45
ag45
ag45
ag45
ag46
ag47
ag46
ag47
ag46
ag47
ag45
ag45
ag47
ag46
ag47
ag46
ag45
ag46
ag47
ag45
ag46
ag47
ag45
ag45
ag46
ag47
ag46
ag45
ag46
asg48
(lp216
I00
aI00
aI00
aI01
aI00
aI00
aI01
aI01
aI00
aI00
aI00
aI00
aI01
aI01
aI01
aI01
aI01
aI01
aI00
aI00
aI00
aI01
aI00
aI01
aI01
aI01
aI00
aI00
aI01
aI00
aI00
aI00
aI01
aI00
aI01
aI01
aI01
aI01
asg50
I38
sg51
g101
sg55
(lp217
(g57
I0
g24
tp218
ag104
ag170
ag170
ag105
ag142
ag60
ag62
ag64
ag65
ag65
ag65
ag68
ag66
ag72
ag73
ag82
ag131
ag106
ag116
ag195
ag112
ag107
ag108
ag109
ag111
ag117
ag158
ag116
ag117
ag158
ag116
a(g81
F1.5707963267948966
g61
tp219
ag117
ag108
ag109
ag111
ag117
asg87
(lp220
g90
ag90
ag51
ag89
ag89
ag90
ag90
ag51
ag90
ag90
ag51
ag91
ag90
ag51
ag89
ag89
ag89
ag51
ag90
ag51
ag90
ag89
ag51
ag89
ag51
ag90
ag51
ag90
ag89
ag51
ag90
ag91
ag90
ag91
ag89
ag51
ag90
ag89
asg92
(lp221
g89
ag51
ag51
ag89
ag89
ag51
ag90
ag51
ag51
ag51
ag51
ag91
ag90
ag51
ag89
ag51
ag89
ag51
ag90
ag51
ag89
ag89
ag91
ag89
ag51
ag90
ag90
ag90
ag90
ag90
ag90
ag91
ag90
ag91
ag89
ag51
ag90
ag51
asg94
(lp222
g89
ag51
ag51
ag89
ag89
ag51
ag90
ag51
ag51
ag51
ag51
ag91
ag90
ag51
ag89
ag51
ag89
ag51
ag90
ag51
ag89
ag89
ag91
ag89
ag51
ag90
ag90
ag90
ag90
ag90
ag90
ag91
ag90
ag91
ag89
ag51
ag90
ag51
asaatp223
Rp224
aatp225
Rp226
.