ccollections
OrderedDict
p0
((lp1
(lp2
S'combination_dict'
p3
ag0
((lp4
(lp5
S'r_to_g_config'
p6
aS'br'
p7
aa(lp8
S'num_turns'
p9
aI3
aa(lp10
S'start_direction'
p11
acutils_ms
StartDirection
p12
(I0
tp13
Rp14
aa(lp15
S'assistance_type'
p16
acutils_ms
AssistanceType
p17
(I0
tp18
Rp19
aa(lp20
S'start_mode'
p21
aS't'
p22
aa(lp23
S'ui_given_a_noise'
p24
aF0.5
aa(lp25
S'um_given_ui_noise'
p26
aF0.7
aa(lp27
S'entropy_threshold'
p28
aF0.7
aatp29
Rp30
aa(lp31
S'data'
p32
accollections
defaultdict
p33
(c__builtin__
list
p34
tp35
Rp36
S'a'
p37
(lp38
S'mode_r'
p39
aS'move_p'
p40
ag40
aS'mode_l'
p41
ag39
ag41
ag39
ag40
ag40
ag39
ag40
ag39
ag40
ag39
ag40
ag39
aS'move_n'
p42
ag42
ag39
ag39
ag39
ag40
ag41
ag39
ag40
ag39
ag41
ag39
ag39
ag39
ag41
ag39
ag41
ag39
ag40
ag39
ag40
ag39
ag40
ag39
ag42
ag42
ag41
ag39
ag40
ag41
ag41
ag40
ag40
ag39
ag40
ag40
ag39
ag39
ag39
ag39
ag39
ag40
ag39
ag41
ag40
ag39
ag40
ag41
ag39
ag40
ag39
ag40
ag39
ag42
asS'assistance_match_with_ground_truth'
p43
(lp44
I01
aI00
aI00
aI00
aI00
aI00
aI01
aI00
aI00
aI01
aI00
aI01
aI00
aI01
aI01
aI01
aI00
aI01
aI00
aI00
aI01
aI00
aI00
aI01
aI00
aI00
aI00
aI00
aI00
aI00
aI00
aI00
aI00
aI01
aI01
aI01
aI00
aI01
aI01
aI01
aI00
aI00
aI00
aI01
aI00
aI00
aI01
aI00
aI00
aI00
aI00
aI00
aI00
aI00
aI00
aI00
aI01
aI00
aI00
aI01
aI00
aI01
aI00
aI00
aI01
aI01
aI01
aI01
aI01
aI01
asS'total_steps'
p45
I70
sS'sp'
p46
(lp47
(S'p0'
p48
I0
S'x'
p49
tp50
ag50
a(g48
I0
S'y'
p51
tp52
a(g48
I0
S't'
p53
tp54
a(g48
I0
g51
tp55
ag54
ag50
ag50
a(g48
I0
g53
tp56
ag50
ag56
ag50
ag56
ag50
a(S'p1'
p57
I0
g49
tp58
a(g57
I0
g51
tp59
ag59
a(S'p2'
p60
I0
g51
tp61
a(g60
I0
g51
tp62
ag62
a(g60
I0
g53
tp63
a(g60
I0
g49
tp64
a(g60
I0
g51
tp65
ag63
a(g60
I0
g51
tp66
a(g60
I0
g49
tp67
ag65
ag62
ag62
ag67
ag65
ag67
ag65
ag63
a(g60
F1.5707963267948966
g53
tp68
a(g60
F1.5707963267948966
g49
tp69
a(g60
F1.5707963267948966
g53
tp70
ag69
a(S'p3'
p71
F1.5707963267948966
g49
tp72
a(g71
F1.5707963267948966
g51
tp73
ag73
a(g60
F1.5707963267948966
g51
tp74
a(g60
F1.5707963267948966
g53
tp75
ag69
a(g60
F1.5707963267948966
g51
tp76
ag76
a(g60
F1.5707963267948966
g49
tp77
ag77
ag70
a(g60
I0
g53
tp78
ag78
ag66
a(g60
I0
g51
tp79
ag79
ag62
ag79
ag63
ag66
ag67
a(g60
I0
g53
tp80
ag66
ag63
ag64
ag65
ag63
ag68
ag69
ag72
ag73
a(S'p4'
p81
F1.5707963267948966
g51
tp82
asS's'
p83
(lp84
(g48
I0
g22
tp85
ag50
ag50
ag52
ag54
ag55
ag54
ag50
ag50
ag56
ag50
ag56
ag50
ag56
ag50
ag58
ag59
ag59
ag61
ag62
ag62
ag63
ag64
ag65
ag63
ag66
ag67
ag65
ag62
ag62
ag67
ag65
ag67
ag65
ag63
ag68
ag69
ag70
ag69
ag72
ag73
ag73
ag74
ag75
ag69
ag76
ag76
ag77
ag77
ag70
ag78
ag78
ag66
ag79
ag79
ag62
ag79
ag63
ag66
ag67
ag80
ag66
ag63
ag64
ag65
ag63
ag68
ag69
ag72
ag73
asS'ui'
p86
(lp87
S'hp'
p88
ag46
ag46
aS'hs'
p89
aS'ss'
p90
ag88
ag88
ag46
ag90
ag88
ag46
ag88
ag89
ag88
ag46
ag88
ag90
ag90
ag46
ag88
ag88
ag88
ag89
ag88
ag90
ag90
ag89
ag90
ag89
ag89
ag88
ag89
ag88
ag88
ag46
ag88
ag46
ag88
ag46
ag89
ag89
ag88
ag88
ag88
ag89
ag89
ag89
ag46
ag46
ag90
ag46
ag90
ag88
ag88
ag89
ag88
ag88
ag46
ag88
ag89
ag46
ag88
ag46
ag89
ag88
ag46
ag88
ag46
ag88
ag90
asS'um_before'
p91
(lp92
g88
ag90
ag88
ag88
ag89
ag88
ag88
ag90
ag89
ag88
ag89
ag88
ag89
ag88
ag46
ag88
ag89
ag90
ag90
ag90
ag88
ag88
ag88
ag88
ag89
ag89
ag88
ag90
ag90
ag89
ag88
ag89
ag88
ag88
ag46
ag88
ag89
ag88
ag46
ag88
ag89
ag46
ag88
ag88
ag88
ag90
ag89
ag90
ag89
ag90
ag90
ag89
ag46
ag46
ag90
ag46
ag88
ag89
ag89
ag89
ag89
ag88
ag88
ag88
ag88
ag46
ag88
ag46
ag88
ag90
asS'um_after'
p93
(lp94
g88
aNag88
ag88
ag89
ag88
ag88
aNag89
ag88
ag89
ag88
ag89
ag88
ag46
ag88
aNag90
ag90
ag90
ag88
ag88
ag88
ag88
ag89
ag89
ag88
ag90
ag90
ag89
ag88
ag89
ag88
ag88
ag46
ag88
ag89
ag88
ag46
ag88
aNag46
ag88
ag88
ag88
aNag89
aNag89
ag90
aNag89
ag46
ag46
ag90
ag46
ag88
ag89
ag89
ag89
ag89
ag88
ag88
ag88
ag88
ag46
ag88
ag46
ag88
ag90
asaa(lp95
S'index'
p96
aI106175
aatp97
Rp98
.