ccollections
OrderedDict
p0
((lp1
(lp2
S'combination_dict'
p3
ag0
((lp4
(lp5
S'r_to_g_config'
p6
aS'tr'
p7
aa(lp8
S'num_turns'
p9
aI3
aa(lp10
S'start_direction'
p11
acutils_ms
StartDirection
p12
(I1
tp13
Rp14
aa(lp15
S'assistance_type'
p16
acutils_ms
AssistanceType
p17
(I2
tp18
Rp19
aa(lp20
S'start_mode'
p21
aS'x'
p22
aa(lp23
S'ui_given_a_noise'
p24
aF0.7
aa(lp25
S'um_given_ui_noise'
p26
aF0.1
aa(lp27
S'entropy_threshold'
p28
aF0.9
aatp29
Rp30
aa(lp31
S'data'
p32
accollections
defaultdict
p33
(c__builtin__
list
p34
tp35
Rp36
S'a'
p37
(lp38
S'mode_r'
p39
aS'mode_l'
p40
aS'move_p'
p41
ag39
ag41
ag39
ag41
ag41
ag40
ag39
ag40
ag41
ag39
ag39
ag39
ag41
ag39
ag41
ag39
ag40
ag39
ag39
ag40
ag40
ag40
ag41
ag39
ag41
ag41
ag39
ag39
ag41
ag39
ag39
ag39
ag40
ag41
ag41
ag39
ag41
ag41
ag39
ag41
ag39
ag39
ag41
ag39
ag39
ag39
ag41
ag40
ag41
ag39
ag41
ag40
ag41
ag39
ag39
ag40
ag39
ag40
ag40
ag40
ag40
ag41
ag39
ag41
ag39
ag39
ag39
ag39
ag39
ag39
ag40
ag41
ag39
ag41
ag40
ag40
ag40
ag40
ag40
ag41
ag39
ag41
ag40
ag41
ag39
ag41
ag41
ag40
ag41
ag39
ag40
ag39
ag40
ag41
ag39
ag41
ag39
ag41
ag40
ag40
ag40
ag40
ag40
ag39
ag41
asS'assistance_match_with_ground_truth'
p42
(lp43
I00
aI01
aI01
aI01
aI00
aI01
aI00
aI00
aI00
aI00
aI01
aI00
aI00
aI00
aI01
aI00
aI01
aI01
aI00
aI00
aI00
aI00
aI00
aI00
aI01
aI00
aI01
aI00
aI00
aI00
aI01
aI00
aI00
aI00
aI00
aI01
aI00
aI01
aI00
aI00
aI00
aI01
aI01
aI00
aI01
aI01
aI00
aI00
aI01
aI01
aI01
aI00
aI01
aI00
aI01
aI00
aI00
aI00
aI00
aI00
aI00
aI00
aI00
aI01
aI00
aI01
aI00
aI00
aI00
aI00
aI00
aI00
aI00
aI01
aI00
aI01
aI00
aI00
aI00
aI00
aI00
aI01
aI00
aI01
aI00
aI01
aI00
aI01
aI00
aI01
aI01
aI01
aI00
aI00
aI00
aI01
aI00
aI01
aI00
aI01
aI01
aI00
aI00
aI00
aI00
aI00
aI01
aI01
asS'total_steps'
p44
I108
sS'sp'
p45
(lp46
(S'p0'
p47
I0
S't'
p48
tp49
a(g47
I0
S'y'
p50
tp51
a(S'p1'
p52
I0
g50
tp53
a(g52
I0
g48
tp54
a(g52
I0
g50
tp55
ag54
a(g52
I0
g48
tp56
a(g52
I0
S'x'
p57
tp58
a(g47
I0
g57
tp59
ag49
ag51
a(g47
I0
g57
tp60
a(g47
I0
g57
tp61
a(g47
I0
g57
tp62
a(g47
I0
g50
tp63
ag60
ag63
ag53
a(g52
I0
g57
tp64
a(S'p2'
p65
I0
g57
tp66
a(g65
I0
g57
tp67
a(g65
I0
g48
tp68
a(g65
I0
g48
tp69
a(g65
I0
g48
tp70
a(g65
I0
g50
tp71
a(g52
I0
g50
tp72
ag54
ag56
ag55
a(g52
I0
g50
tp73
ag54
ag55
ag73
ag73
ag64
a(g52
I0
g48
tp74
ag56
a(g52
F1.5707963267948966
g48
tp75
a(g52
I0
g48
tp76
ag56
ag55
ag54
ag75
a(g52
F1.5707963267948966
g48
tp77
a(g52
F1.5707963267948966
g57
tp78
a(g65
F1.5707963267948966
g57
tp79
a(g65
F1.5707963267948966
g57
tp80
ag80
a(g65
F1.5707963267948966
g50
tp81
a(S'p3'
p82
F1.5707963267948966
g50
tp83
a(g82
F1.5707963267948966
g57
tp84
a(g82
F1.5707963267948966
g48
tp85
a(g82
F1.5707963267948966
g57
tp86
a(g82
F1.5707963267948966
g50
tp87
ag84
a(g65
F1.5707963267948966
g57
tp88
ag80
a(g65
F1.5707963267948966
g48
tp89
a(g65
F1.5707963267948966
g57
tp90
ag89
a(g65
F1.5707963267948966
g48
tp91
ag91
a(g65
F1.5707963267948966
g48
tp92
a(g65
F1.5707963267948966
g50
tp93
a(g65
F1.5707963267948966
g57
tp94
ag81
ag94
ag80
a(g65
F1.5707963267948966
g57
tp95
ag80
ag80
ag95
ag89
ag93
ag94
ag81
a(g52
F1.5707963267948966
g50
tp96
a(g52
F1.5707963267948966
g50
tp97
ag97
ag97
a(g52
F1.5707963267948966
g50
tp98
a(g52
F1.5707963267948966
g57
tp99
a(g47
F1.5707963267948966
g57
tp100
a(g47
F1.5707963267948966
g50
tp101
a(g47
F1.5707963267948966
g48
tp102
a(g47
F1.5707963267948966
g50
tp103
a(g47
F1.5707963267948966
g57
tp104
ag101
a(g47
F1.5707963267948966
g50
tp105
a(g52
F1.5707963267948966
g50
tp106
ag99
ag79
ag89
ag90
ag89
ag93
ag94
ag81
ag94
ag81
ag83
a(g82
F1.5707963267948966
g50
tp107
a(g82
F1.5707963267948966
g50
tp108
ag108
ag107
a(g82
F1.5707963267948966
g48
tp109
ag86
a(S'p4'
p110
F1.5707963267948966
g57
tp111
asS's'
p112
(lp113
(g47
I0
g22
tp114
ag49
ag51
ag53
ag54
ag55
ag54
ag56
ag58
ag59
ag49
ag51
ag60
ag61
ag62
ag63
ag60
ag63
ag53
ag64
ag66
ag67
ag68
ag69
ag70
ag71
ag72
ag54
ag56
ag55
ag73
ag54
ag55
ag73
ag73
ag64
ag74
ag56
ag75
ag76
ag56
ag55
ag54
ag75
ag77
ag78
ag79
ag80
ag80
ag81
ag83
ag84
ag85
ag86
ag87
ag84
ag88
ag80
ag89
ag90
ag89
ag91
ag91
ag92
ag93
ag94
ag81
ag94
ag80
ag95
ag80
ag80
ag95
ag89
ag93
ag94
ag81
ag96
ag97
ag97
ag97
ag98
ag99
ag100
ag101
ag102
ag103
ag104
ag101
ag105
ag106
ag99
ag79
ag89
ag90
ag89
ag93
ag94
ag81
ag94
ag81
ag83
ag107
ag108
ag108
ag107
ag109
ag86
asS'ui'
p115
(lp116
S'hs'
p117
ag117
ag45
aS'hp'
p118
ag117
ag118
aS'ss'
p119
ag118
ag119
ag117
ag117
ag117
ag45
ag45
ag118
ag117
ag118
ag45
ag117
ag45
ag45
ag117
ag117
ag119
ag119
ag119
ag118
ag119
ag45
ag45
ag118
ag45
ag45
ag45
ag117
ag117
ag119
ag45
ag118
ag45
ag117
ag118
ag45
ag45
ag118
ag45
ag119
ag119
ag118
ag45
ag117
ag117
ag118
ag118
ag119
ag118
ag119
ag119
ag118
ag117
ag117
ag119
ag45
ag117
ag117
ag117
ag117
ag119
ag45
ag119
ag119
ag117
ag117
ag117
ag117
ag118
ag119
ag45
ag45
ag117
ag119
ag117
ag119
ag118
ag118
ag117
ag117
ag118
ag119
ag45
ag117
ag45
ag117
ag118
ag118
ag117
ag117
ag118
ag117
ag118
ag45
ag119
ag45
ag45
ag119
ag117
ag118
ag45
asS'um_before'
p120
(lp121
g117
ag117
ag45
ag118
ag117
ag118
ag119
ag118
ag119
ag117
ag117
ag117
ag119
ag45
ag118
ag117
ag118
ag45
ag117
ag45
ag45
ag117
ag45
ag119
ag117
ag119
ag118
ag119
ag117
ag45
ag118
ag117
ag45
ag45
ag117
ag117
ag119
ag45
ag119
ag119
ag117
ag118
ag45
ag45
ag118
ag45
ag119
ag119
ag118
ag45
ag117
ag117
ag118
ag118
ag117
ag119
ag119
ag117
ag118
ag117
ag119
ag119
ag45
ag117
ag117
ag118
ag117
ag119
ag45
ag119
ag119
ag45
ag117
ag117
ag117
ag118
ag119
ag45
ag45
ag45
ag119
ag117
ag119
ag118
ag118
ag117
ag117
ag118
ag119
ag45
ag117
ag45
ag117
ag118
ag117
ag117
ag117
ag118
ag117
ag118
ag45
ag119
ag45
ag45
ag119
ag118
ag118
ag45
asS'um_after'
p122
(lp123
g117
ag117
ag45
ag118
ag117
ag118
ag119
ag118
ag119
ag117
ag117
ag117
ag119
ag45
ag118
ag117
ag118
ag45
ag117
ag45
ag45
ag117
ag45
ag119
ag117
ag119
ag118
ag119
ag117
ag45
ag118
ag117
ag45
ag45
ag117
ag117
ag119
ag45
ag119
ag119
ag117
ag118
ag45
ag45
ag118
ag45
ag119
ag119
ag118
ag45
ag117
ag117
ag118
ag118
ag117
ag119
ag119
ag117
ag118
ag117
ag119
ag119
ag45
ag117
ag117
ag118
ag117
ag119
ag45
ag119
ag119
ag45
ag117
ag117
ag117
ag118
ag119
ag45
ag45
ag45
ag119
ag117
ag119
ag118
ag118
ag117
ag117
ag118
ag119
ag45
ag117
ag45
ag117
ag118
ag117
ag117
ag117
ag118
ag117
ag118
ag45
ag119
ag45
ag45
ag119
ag118
ag118
ag45
asaa(lp124
S'index'
p125
aI27842
aatp126
Rp127
.