ccollections
OrderedDict
p0
((lp1
(lp2
S'combination_dict'
p3
ag0
((lp4
(lp5
S'r_to_g_config'
p6
aS'bl'
p7
aa(lp8
S'num_turns'
p9
aI2
aa(lp10
S'start_direction'
p11
acutils_ms
StartDirection
p12
(I0
tp13
Rp14
aa(lp15
S'assistance_type'
p16
acutils_ms
AssistanceType
p17
(I2
tp18
Rp19
aa(lp20
S'start_mode'
p21
aS'y'
p22
aa(lp23
S'ui_given_a_noise'
p24
aF0.5
aa(lp25
S'um_given_ui_noise'
p26
aF0.5
aa(lp27
S'entropy_threshold'
p28
aF0.9
aatp29
Rp30
aa(lp31
S'data'
p32
accollections
defaultdict
p33
(c__builtin__
list
p34
tp35
Rp36
S'a'
p37
(lp38
S'mode_l'
p39
aS'move_n'
p40
aS'mode_r'
p41
ag40
ag41
ag39
ag39
ag41
ag41
ag41
ag40
ag39
ag41
ag40
ag39
ag39
ag40
ag41
ag40
ag39
ag40
ag39
ag41
ag40
ag41
aS'move_p'
p42
ag42
ag39
ag42
ag42
ag41
ag42
ag42
ag41
ag42
ag41
ag42
ag41
ag42
ag41
ag42
ag39
ag42
ag39
ag41
ag39
ag41
ag39
ag40
ag41
ag41
ag39
ag42
ag39
ag42
ag42
ag42
ag41
ag40
ag41
ag40
ag39
ag40
ag39
ag40
ag41
ag40
ag39
ag41
ag42
ag39
ag41
ag39
ag41
ag41
ag40
ag41
ag39
ag40
ag39
ag40
ag40
ag40
ag39
ag39
ag41
ag41
ag40
ag39
ag41
ag41
ag40
ag41
ag41
ag39
ag39
ag41
ag40
ag40
ag41
ag41
ag40
ag40
ag41
ag40
ag39
ag40
ag41
ag41
ag41
ag41
ag41
ag41
ag40
ag41
ag41
ag42
ag39
ag42
ag42
ag39
ag41
ag41
ag39
ag42
ag41
ag41
ag42
ag41
ag40
ag41
ag41
ag41
ag40
ag39
ag40
ag41
ag39
ag40
ag39
ag41
ag40
ag41
ag40
ag39
ag40
ag41
ag40
ag39
ag40
ag39
ag40
ag39
ag41
ag39
ag40
ag41
ag40
ag39
ag39
ag40
ag41
ag39
ag41
ag40
ag40
ag39
ag39
ag40
ag41
ag39
ag40
ag39
ag40
asS'assistance_match_with_ground_truth'
p43
(lp44
I01
aI00
aI01
aI01
aI00
aI00
aI00
aI00
aI00
aI01
aI00
aI00
aI01
aI00
aI00
aI01
aI01
aI01
aI00
aI01
aI00
aI00
aI01
aI01
aI01
aI00
aI00
aI01
aI00
aI01
aI00
aI00
aI01
aI00
aI00
aI01
aI00
aI01
aI00
aI01
aI00
aI01
aI00
aI00
aI00
aI00
aI00
aI01
aI01
aI00
aI00
aI01
aI00
aI01
aI00
aI00
aI01
aI01
aI00
aI01
aI00
aI01
aI00
aI01
aI01
aI01
aI01
aI00
aI00
aI00
aI00
aI00
aI00
aI00
aI01
aI00
aI00
aI01
aI00
aI01
aI00
aI00
aI00
aI00
aI00
aI00
aI01
aI00
aI00
aI00
aI01
aI00
aI00
aI00
aI00
aI00
aI01
aI00
aI00
aI00
aI01
aI00
aI01
aI01
aI00
aI01
aI00
aI00
aI00
aI00
aI00
aI00
aI01
aI01
aI00
aI01
aI00
aI01
aI00
aI00
aI00
aI00
aI00
aI01
aI00
aI00
aI01
aI01
aI01
aI00
aI00
aI00
aI01
aI00
aI01
aI01
aI00
aI01
aI00
aI00
aI01
aI01
aI01
aI00
aI01
aI01
aI01
aI00
aI01
aI00
aI01
aI00
aI00
aI00
aI01
aI00
aI01
aI00
aI00
aI01
aI00
aI00
aI00
aI01
aI00
aI00
aI00
aI01
aI01
aI00
aI01
aI01
aI01
aI01
asS'total_steps'
p45
I174
sS'sp'
p46
(lp47
(S'p0'
p48
I0
S'x'
p49
tp50
a(g48
I0
S't'
p51
tp52
a(g48
I0
g49
tp53
a(S'p1'
p54
I0
g49
tp55
a(g54
I0
g51
tp56
a(g54
I0
g51
tp57
a(g54
I0
g49
tp58
a(g54
I0
g49
tp59
a(g54
I0
g49
tp60
a(g54
I0
S'y'
p61
tp62
a(g48
I0
g61
tp63
a(g48
I0
g51
tp64
ag53
a(g48
I0
g61
tp65
a(g48
I0
g61
tp66
ag50
ag55
ag62
a(g54
I0
g51
tp67
a(g54
I0
g61
tp68
ag67
ag58
ag62
a(S'p2'
p69
I0
g61
tp70
a(g69
I0
g51
tp71
a(g69
I0
g51
tp72
a(g69
I0
g49
tp73
a(g69
I0
g51
tp74
ag72
a(g69
F1.5707963267948966
g51
tp75
a(g69
I0
g51
tp76
ag72
ag75
ag76
a(g69
I0
g61
tp77
ag71
ag77
ag71
ag77
ag71
ag73
ag74
ag73
a(g54
I0
g49
tp78
ag56
ag58
ag56
ag68
ag70
a(g69
I0
g61
tp79
a(g69
I0
g49
tp80
ag74
ag73
ag74
ag72
ag72
ag75
a(g69
F1.5707963267948966
g49
tp81
a(g54
F1.5707963267948966
g49
tp82
a(g54
F1.5707963267948966
g61
tp83
a(g48
F1.5707963267948966
g61
tp84
a(g48
F1.5707963267948966
g49
tp85
a(g48
F1.5707963267948966
g61
tp86
ag85
a(g54
F1.5707963267948966
g49
tp87
ag83
a(g69
F1.5707963267948966
g61
tp88
a(g69
F1.5707963267948966
g51
tp89
ag76
ag73
ag78
ag56
ag58
ag60
ag62
a(g54
I0
g49
tp90
ag56
ag68
ag63
ag50
a(g48
I0
g49
tp91
ag91
ag65
a(g48
I0
g61
tp92
ag64
a(g48
I0
g51
tp93
ag53
ag65
ag64
a(g48
I0
g51
tp94
ag53
ag52
ag94
a(g48
I0
g61
tp95
ag66
ag64
ag53
ag91
ag52
ag93
ag53
ag91
ag55
ag62
ag67
ag68
ag90
ag60
ag60
ag60
ag60
ag59
ag62
ag70
a(g69
I0
g61
tp96
ag71
ag73
ag74
ag72
ag73
a(g69
I0
g61
tp97
ag96
ag80
ag74
ag77
ag79
ag71
ag75
ag81
ag82
a(g54
F1.5707963267948966
g49
tp98
a(g54
F1.5707963267948966
g49
tp99
ag83
ag84
ag85
ag87
a(g54
F1.5707963267948966
g51
tp100
a(g54
F1.5707963267948966
g61
tp101
ag84
a(g48
F1.5707963267948966
g51
tp102
a(g48
F1.5707963267948966
g49
tp103
ag87
ag83
ag84
ag85
ag87
ag83
a(g54
F1.5707963267948966
g51
tp104
ag101
ag84
ag85
ag86
ag102
a(g48
F1.5707963267948966
g61
tp105
ag85
a(g48
F1.5707963267948966
g51
tp106
ag103
ag86
a(g48
F1.5707963267948966
g61
tp107
ag85
ag106
ag105
ag102
ag103
a(g48
F1.5707963267948966
g49
tp108
ag86
a(g48
F1.5707963267948966
g61
tp109
ag85
ag87
ag100
ag101
ag88
a(g69
F1.5707963267948966
g49
tp110
a(S'p3'
p111
F1.5707963267948966
g49
tp112
asS's'
p113
(lp114
(g48
I0
g22
tp115
ag50
ag52
ag53
ag55
ag56
ag57
ag58
ag59
ag60
ag62
ag63
ag64
ag53
ag65
ag66
ag50
ag55
ag62
ag67
ag68
ag67
ag58
ag62
ag70
ag71
ag72
ag73
ag74
ag72
ag75
ag76
ag72
ag75
ag76
ag77
ag71
ag77
ag71
ag77
ag71
ag73
ag74
ag73
ag78
ag56
ag58
ag56
ag68
ag70
ag79
ag80
ag74
ag73
ag74
ag72
ag72
ag75
ag81
ag82
ag83
ag84
ag85
ag86
ag85
ag87
ag83
ag88
ag89
ag76
ag73
ag78
ag56
ag58
ag60
ag62
ag90
ag56
ag68
ag63
ag50
ag91
ag91
ag65
ag92
ag64
ag93
ag53
ag65
ag64
ag94
ag53
ag52
ag94
ag95
ag66
ag64
ag53
ag91
ag52
ag93
ag53
ag91
ag55
ag62
ag67
ag68
ag90
ag60
ag60
ag60
ag60
ag59
ag62
ag70
ag96
ag71
ag73
ag74
ag72
ag73
ag97
ag96
ag80
ag74
ag77
ag79
ag71
ag75
ag81
ag82
ag98
ag99
ag83
ag84
ag85
ag87
ag100
ag101
ag84
ag102
ag103
ag87
ag83
ag84
ag85
ag87
ag83
ag104
ag101
ag84
ag85
ag86
ag102
ag105
ag85
ag106
ag103
ag86
ag107
ag85
ag106
ag105
ag102
ag103
ag108
ag86
ag109
ag85
ag87
ag100
ag101
ag88
ag110
asS'ui'
p116
(lp117
S'hs'
p118
ag118
aS'ss'
p119
ag119
aS'hp'
p120
ag118
ag118
ag118
ag119
ag120
ag118
ag118
ag119
ag46
ag119
ag118
ag119
ag120
ag119
ag118
ag119
ag118
ag120
ag119
ag120
ag46
ag46
ag118
ag46
ag46
ag119
ag46
ag46
ag119
ag119
ag119
ag120
ag119
ag46
ag120
ag46
ag118
ag120
ag118
ag120
ag118
ag119
ag118
ag119
ag120
ag120
ag118
ag119
ag118
ag46
ag46
ag46
ag120
ag119
ag120
ag46
ag118
ag46
ag118
ag119
ag120
ag119
ag118
ag119
ag120
ag118
ag120
ag118
ag119
ag120
ag118
ag119
ag118
ag119
ag118
ag119
ag118
ag119
ag119
ag118
ag119
ag119
ag120
ag118
ag119
ag120
ag118
ag119
ag120
ag118
ag118
ag120
ag46
ag118
ag119
ag120
ag118
ag119
ag120
ag46
ag118
ag118
ag119
ag119
ag119
ag119
ag120
ag120
ag119
ag119
ag120
ag119
ag118
ag119
ag46
ag118
ag119
ag120
ag118
ag120
ag118
ag120
ag46
ag120
ag119
ag119
ag118
ag120
ag119
ag118
ag119
ag118
ag118
ag46
ag120
ag120
ag119
ag120
ag46
ag118
ag119
ag120
ag46
ag118
ag46
ag118
ag119
ag118
ag119
ag118
ag118
ag118
ag119
ag118
ag118
ag118
ag118
ag118
ag119
ag46
ag119
ag118
ag120
ag119
ag120
ag118
ag118
ag118
ag119
asS'um_before'
p121
(lp122
g118
ag118
ag120
ag119
ag118
ag119
ag120
ag46
ag119
ag120
ag46
ag120
ag120
ag120
ag46
ag118
ag119
ag120
ag120
ag118
ag120
ag120
ag120
ag119
ag120
ag119
ag120
ag118
ag119
ag46
ag119
ag119
ag46
ag119
ag118
ag120
ag118
ag120
ag118
ag120
ag120
ag118
ag120
ag46
ag118
ag120
ag118
ag118
ag119
ag46
ag118
ag118
ag120
ag118
ag119
ag119
ag46
ag120
ag46
ag120
ag46
ag118
ag120
ag118
ag119
ag120
ag119
ag120
ag119
ag120
ag46
ag118
ag120
ag119
ag120
ag118
ag118
ag118
ag46
ag118
ag46
ag46
ag120
ag119
ag120
ag119
ag120
ag120
ag120
ag46
ag120
ag118
ag46
ag118
ag46
ag120
ag120
ag46
ag118
ag119
ag120
ag46
ag119
ag120
ag120
ag118
ag118
ag119
ag119
ag119
ag119
ag46
ag120
ag119
ag119
ag120
ag120
ag118
ag119
ag120
ag120
ag119
ag118
ag118
ag118
ag46
ag120
ag46
ag120
ag46
ag119
ag46
ag120
ag46
ag118
ag119
ag118
ag118
ag46
ag120
ag120
ag119
ag120
ag46
ag118
ag119
ag120
ag120
ag118
ag46
ag118
ag120
ag120
ag118
ag118
ag118
ag120
ag120
ag46
ag118
ag118
ag118
ag120
ag120
ag46
ag120
ag119
ag118
ag119
ag118
ag118
ag119
ag118
ag119
asS'um_after'
p123
(lp124
g118
ag118
ag120
ag119
ag118
ag119
ag120
ag46
ag119
ag120
ag46
ag120
ag120
ag120
ag46
ag118
ag119
ag120
ag120
ag118
ag120
ag120
ag120
ag119
ag120
ag119
ag120
ag118
ag119
ag46
ag119
ag119
ag46
ag119
ag118
ag120
ag118
ag120
ag118
ag120
ag120
ag118
ag120
ag46
ag118
ag120
ag118
ag118
ag119
ag46
ag118
ag118
ag120
ag118
ag119
ag119
ag46
ag120
ag46
ag120
ag46
ag118
ag120
ag118
ag119
ag120
ag119
ag120
ag119
ag120
ag46
ag118
ag120
ag119
ag120
ag118
ag118
ag118
ag46
ag118
ag46
ag46
ag120
ag119
ag120
ag119
ag120
ag120
ag120
ag46
ag120
ag118
ag46
ag118
ag46
ag120
ag120
ag46
ag118
ag119
ag120
ag46
ag119
ag120
ag120
ag118
ag118
ag119
ag119
ag119
ag119
ag46
ag120
ag119
ag119
ag120
ag120
ag118
ag119
ag120
ag120
ag119
ag118
ag118
ag118
ag46
ag120
ag46
ag120
ag46
ag119
ag46
ag120
ag46
ag118
ag119
ag118
ag118
ag46
ag120
ag120
ag119
ag120
ag46
ag118
ag119
ag120
ag120
ag118
ag46
ag118
ag120
ag120
ag118
ag118
ag118
ag120
ag120
ag46
ag118
ag118
ag118
ag120
ag120
ag46
ag120
ag119
ag118
ag119
ag118
ag118
ag119
ag118
ag119
asaa(lp125
S'index'
p126
aI71746
aatp127
Rp128
.