ccollections
OrderedDict
p0
((lp1
(lp2
S'index'
p3
aI2662
aa(lp4
S'combination_dict'
p5
ag0
((lp6
(lp7
S'r_to_g_config'
p8
aS'tr'
p9
aa(lp10
S'num_turns'
p11
aI3
aa(lp12
S'start_direction'
p13
acutils_ms
StartDirection
p14
(I3
tp15
Rp16
aa(lp17
S'assistance_type'
p18
acutils_ms
AssistanceType
p19
(I0
tp20
Rp21
aa(lp22
S'start_mode'
p23
aS't'
p24
aa(lp25
S'ui_given_a_noise'
p26
aF0.5
aa(lp27
S'um_given_ui_noise'
p28
aF0.5
aa(lp29
S'entropy_threshold'
p30
aF0.6
aa(lp31
S'is_assistance'
p32
aI01
aatp33
Rp34
aa(lp35
S'trials'
p36
ag0
((lp37
(lp38
I0
accollections
defaultdict
p39
(c__builtin__
list
p40
tp41
Rp42
S'a'
p43
(lp44
S'mode_r'
p45
aS'move_p'
p46
ag45
ag45
ag45
ag46
aS'mode_l'
p47
ag46
ag45
ag45
ag45
ag46
ag45
ag46
ag46
ag45
ag47
ag46
ag47
ag46
ag45
ag45
ag47
ag47
ag45
ag45
ag45
ag47
ag46
ag47
ag47
ag45
ag47
ag46
ag46
ag46
ag45
ag45
ag47
ag45
ag45
ag47
ag47
ag47
ag47
ag45
ag47
ag45
ag47
ag45
ag46
ag47
ag47
ag45
asS'assistance_match_with_ground_truth'
p48
(lp49
I01
aI01
aI00
aI00
aI01
aI01
aI01
aI00
aI00
aI00
aI01
aI00
aI01
aI00
aI00
aI00
aI01
aI01
aI01
aI00
aI00
aI00
aI00
aI00
aI00
aI00
aI00
aI01
aI01
aI00
aI00
aI00
aI01
aI00
aI00
aI00
aI00
aI00
aI00
aI00
aI00
aI00
aI00
aI00
aI00
aI00
aI00
aI00
aI00
aI01
aI01
aI00
aI00
aI00
asS'total_steps'
p50
I54
sS'sp'
p51
(S'p4'
p52
I0
S'y'
p53
tp54
sS's'
p55
(lp56
(S'p0'
p57
I0
g24
tp58
a(g57
I0
S'x'
p59
tp60
a(S'p1'
p61
I0
g59
tp62
a(g61
I0
g59
tp63
a(g61
I0
g59
tp64
a(g61
I0
g53
tp65
a(S'p2'
p66
I0
g53
tp67
a(g66
I0
g59
tp68
a(g61
I0
g59
tp69
ag64
ag63
ag65
a(g61
I0
g59
tp70
ag65
ag65
ag70
a(g61
I0
S't'
p71
tp72
a(g61
I0
g53
tp73
ag67
ag68
ag69
ag64
ag72
a(g61
I0
g71
tp74
a(g61
I0
g59
tp75
ag64
ag64
ag72
ag73
ag67
a(g66
I0
g53
tp76
a(g66
I0
g71
tp77
a(g66
I0
g53
tp78
ag68
ag68
ag68
a(g66
I0
g71
tp79
a(g66
I0
g71
tp80
ag78
ag77
a(g66
I0
g71
tp81
ag78
ag76
ag76
ag76
ag77
ag78
ag77
ag78
ag77
a(g66
I0
g59
tp82
a(S'p3'
p83
I0
g59
tp84
a(g83
I0
g59
tp85
a(g83
I0
g53
tp86
asS'ui'
p87
(lp88
S'hp'
p89
ag51
ag89
aS'ss'
p90
ag89
ag51
ag89
ag90
aS'hs'
p91
ag90
ag89
ag91
ag89
ag51
ag91
ag90
ag91
ag51
ag91
ag91
ag89
ag89
ag51
ag89
ag90
ag91
ag89
ag91
ag89
ag91
ag91
ag89
ag91
ag51
ag51
ag91
ag91
ag89
ag91
ag91
ag90
ag89
ag91
ag91
ag51
ag89
ag89
ag91
ag89
ag89
ag51
ag89
ag89
ag89
asS'um_before'
p92
(lp93
g89
ag51
ag51
ag90
ag89
ag51
ag91
ag90
ag90
ag51
ag89
ag91
ag89
ag89
ag91
ag91
ag91
ag51
ag91
ag90
ag90
ag91
ag51
ag89
ag90
ag90
ag91
ag91
ag51
ag51
ag89
ag91
ag91
ag89
ag89
ag91
ag51
ag91
ag89
ag90
ag91
ag51
ag51
ag51
ag89
ag91
ag89
ag91
ag89
ag89
ag51
ag90
ag89
ag51
asS'um_after'
p94
(lp95
g89
ag51
ag51
ag90
ag89
ag51
ag91
ag90
ag90
ag51
ag89
ag91
ag89
aNag91
ag91
ag91
ag51
ag91
ag90
ag90
ag91
ag51
ag89
ag90
ag90
ag91
ag91
ag51
ag51
ag89
ag91
ag91
aNaNag91
ag51
ag91
ag89
ag90
ag91
ag51
ag51
ag51
ag89
ag91
ag89
ag91
ag89
ag89
ag51
ag90
ag89
ag51
asaa(lp96
I1
ag39
(g40
tp97
Rp98
g43
(lp99
g45
ag45
ag46
ag45
ag45
ag46
ag45
ag45
ag45
ag45
ag45
ag46
ag45
ag45
ag45
ag46
ag45
ag45
ag46
ag45
ag45
ag46
ag47
ag46
ag45
ag47
ag46
ag45
ag46
ag45
ag46
ag47
ag46
ag46
ag45
ag47
ag46
ag45
ag47
ag46
ag47
ag46
ag46
ag46
ag47
ag46
ag47
ag46
ag45
ag46
ag45
ag46
ag47
ag47
ag46
ag45
ag45
ag47
ag47
ag47
ag46
ag46
ag47
ag47
ag46
ag45
ag47
ag46
ag47
ag46
ag45
ag45
ag47
ag46
ag45
ag45
ag45
ag45
ag47
ag46
asg48
(lp100
I00
aI01
aI00
aI00
aI01
aI00
aI00
aI00
aI00
aI00
aI01
aI00
aI00
aI00
aI01
aI01
aI00
aI01
aI00
aI00
aI01
aI00
aI01
aI01
aI00
aI01
aI00
aI01
aI00
aI01
aI01
aI01
aI00
aI00
aI00
aI01
aI00
aI00
aI01
aI01
aI01
aI00
aI00
aI01
aI01
aI00
aI01
aI00
aI01
aI00
aI01
aI00
aI00
aI01
aI01
aI00
aI00
aI00
aI00
aI01
aI00
aI01
aI00
aI01
aI01
aI00
aI01
aI00
aI01
aI01
aI00
aI00
aI01
aI00
aI00
aI00
aI00
aI00
aI01
aI01
asg50
I80
sg51
(g52
F1.5707963267948966
g53
tp101
sg55
(lp102
(g57
I0
g24
tp103
a(g57
I0
g71
tp104
ag60
a(g57
I0
g71
tp105
a(g57
I0
g71
tp106
ag60
ag105
ag104
ag106
ag106
ag104
ag60
ag105
ag106
ag106
ag60
ag62
ag64
ag65
ag70
ag63
ag65
a(g57
I0
g53
tp107
a(g57
I0
g59
tp108
ag62
ag72
ag73
ag70
ag65
ag70
ag65
ag67
ag68
ag68
ag79
ag78
ag68
ag79
ag78
ag68
ag84
a(g83
I0
g71
tp109
ag109
a(g83
I0
g71
tp110
a(g83
F1.5707963267948966
g71
tp111
a(g83
F1.5707963267948966
g53
tp112
a(g66
F1.5707963267948966
g53
tp113
a(g66
F1.5707963267948966
g59
tp114
a(g61
F1.5707963267948966
g59
tp115
a(g61
F1.5707963267948966
g53
tp116
a(g61
F1.5707963267948966
g59
tp117
ag116
a(g57
F1.5707963267948966
g53
tp118
a(g57
F1.5707963267948966
g53
tp119
a(g57
F1.5707963267948966
g59
tp120
a(g61
F1.5707963267948966
g59
tp121
a(g61
F1.5707963267948966
g59
tp122
a(g61
F1.5707963267948966
g71
tp123
a(g61
F1.5707963267948966
g71
tp124
a(g61
F1.5707963267948966
g71
tp125
a(g61
F1.5707963267948966
g53
tp126
ag126
a(g66
F1.5707963267948966
g53
tp127
a(g66
F1.5707963267948966
g53
tp128
ag114
a(g83
F1.5707963267948966
g59
tp129
a(g83
F1.5707963267948966
g71
tp130
ag112
ag113
ag114
ag129
a(g83
F1.5707963267948966
g59
tp131
ag130
ag112
a(g83
F1.5707963267948966
g59
tp132
ag131
ag131
ag131
ag130
ag112
asg87
(lp133
g89
ag89
ag91
ag91
ag89
ag51
ag89
ag90
ag91
ag89
ag89
ag90
ag90
ag89
ag89
ag51
ag89
ag89
ag51
ag89
ag89
ag90
ag91
ag51
ag91
ag91
ag91
ag89
ag91
ag89
ag51
ag91
ag51
ag90
ag90
ag91
ag90
ag89
ag91
ag91
ag91
ag51
ag90
ag51
ag91
ag91
ag91
ag91
ag89
ag91
ag89
ag90
ag91
ag91
ag51
ag90
ag89
ag51
ag91
ag91
ag51
ag51
ag90
ag90
ag51
ag91
ag91
ag51
ag91
ag51
ag90
ag91
ag91
ag91
ag90
ag90
ag89
ag89
ag91
ag91
asg92
(lp134
g51
ag89
ag91
ag90
ag89
ag91
ag51
ag90
ag90
ag51
ag89
ag91
ag90
ag90
ag89
ag51
ag90
ag89
ag91
ag51
ag89
ag90
ag91
ag51
ag91
ag91
ag91
ag89
ag91
ag89
ag51
ag91
ag89
ag91
ag91
ag91
ag91
ag91
ag91
ag51
ag91
ag89
ag90
ag51
ag91
ag90
ag91
ag90
ag89
ag91
ag89
ag90
ag51
ag91
ag51
ag90
ag91
ag51
ag90
ag91
ag89
ag51
ag90
ag91
ag51
ag91
ag91
ag90
ag91
ag51
ag90
ag91
ag91
ag91
ag90
ag90
ag90
ag91
ag91
ag51
asg94
(lp135
g51
ag89
ag91
ag90
ag89
ag91
ag51
ag90
ag90
ag51
ag89
ag91
ag90
ag90
ag89
ag51
ag90
ag89
ag91
ag51
ag89
ag90
ag91
ag51
ag91
ag91
ag91
ag89
ag91
ag89
ag51
ag91
aNag91
ag91
ag91
ag91
ag91
ag91
ag51
ag91
aNag90
ag51
ag91
ag90
ag91
ag90
ag89
ag91
ag89
ag90
ag51
ag91
ag51
ag90
ag91
ag51
ag90
ag91
aNag51
ag90
ag91
ag51
ag91
ag91
ag90
ag91
ag51
ag90
ag91
ag91
ag91
ag90
ag90
ag90
ag91
ag91
ag51
asaa(lp136
I2
ag39
(g40
tp137
Rp138
g43
(lp139
g45
ag47
ag47
ag47
ag47
ag45
ag47
ag45
ag46
ag45
ag47
ag47
ag47
ag46
ag46
ag46
ag45
ag47
ag46
ag46
ag45
ag45
ag45
ag46
ag45
ag45
ag47
ag45
ag46
ag45
ag46
ag47
ag45
ag46
ag45
ag45
ag46
ag47
ag47
ag46
ag47
ag47
ag47
ag47
ag47
ag46
ag45
ag47
ag45
ag47
ag47
ag47
ag46
ag47
ag46
ag47
ag47
ag47
ag46
ag45
ag47
ag47
ag46
ag47
ag47
ag46
ag46
ag47
ag47
ag46
ag45
ag47
ag45
ag47
ag47
ag46
ag45
ag45
ag45
ag45
ag47
ag46
asg48
(lp140
I00
aI00
aI00
aI00
aI00
aI00
aI00
aI01
aI00
aI00
aI00
aI00
aI01
aI00
aI00
aI00
aI00
aI01
aI00
aI00
aI00
aI00
aI01
aI00
aI00
aI00
aI00
aI01
aI01
aI01
aI01
aI00
aI01
aI00
aI00
aI01
aI01
aI00
aI01
aI01
aI00
aI00
aI00
aI00
aI00
aI00
aI00
aI00
aI00
aI00
aI00
aI01
aI01
aI00
aI01
aI00
aI00
aI01
aI00
aI00
aI00
aI00
aI01
aI00
aI00
aI00
aI01
aI00
aI01
aI00
aI00
aI00
aI00
aI00
aI01
aI00
aI00
aI00
aI00
aI00
aI01
aI01
asg50
I82
sg51
g101
sg55
(lp141
(g57
I0
g24
tp142
a(g57
I0
g53
tp143
a(g57
I0
g53
tp144
a(g57
I0
g53
tp145
ag144
a(g57
I0
g71
tp146
ag143
ag146
ag60
ag105
ag143
ag144
ag145
ag108
ag108
ag108
ag105
ag143
ag108
a(g57
I0
g59
tp147
ag105
ag104
ag106
ag60
ag105
ag106
ag143
ag146
ag60
ag62
ag65
ag67
ag77
ag82
ag79
ag80
ag82
ag84
a(g83
I0
g59
tp148
ag109
ag111
a(g83
F1.5707963267948966
g71
tp149
ag149
ag149
ag149
a(g83
I0
g71
tp150
a(g83
I0
g53
tp151
a(g83
I0
g59
tp152
ag86
ag152
ag85
ag85
ag109
ag111
ag150
ag111
ag149
ag149
ag112
ag132
ag130
ag149
ag150
ag111
ag149
ag150
ag110
ag111
ag149
ag112
ag132
ag130
a(g83
F1.5707963267948966
g59
tp153
ag130
ag149
ag112
ag132
a(g83
F1.5707963267948966
g59
tp154
ag131
ag131
ag130
ag112
asg87
(lp155
g91
ag51
ag90
ag91
ag89
ag89
ag91
ag89
ag51
ag89
ag51
ag90
ag91
ag91
ag91
ag91
ag91
ag91
ag90
ag91
ag90
ag90
ag89
ag91
ag91
ag91
ag89
ag89
ag51
ag89
ag51
ag91
ag89
ag91
ag89
ag89
ag51
ag91
ag91
ag51
ag91
ag89
ag51
ag91
ag51
ag51
ag89
ag89
ag91
ag91
ag51
ag89
ag51
ag89
ag89
ag51
ag51
ag91
ag91
ag91
ag51
ag91
ag51
ag91
ag91
ag91
ag51
ag91
ag91
ag91
ag90
ag91
ag91
ag91
ag51
ag51
ag89
ag91
ag89
ag89
ag91
ag51
asg92
(lp156
g91
ag51
ag90
ag51
ag89
ag91
ag89
ag89
ag91
ag91
ag51
ag90
ag91
ag89
ag89
ag91
ag91
ag91
ag90
ag91
ag51
ag90
ag89
ag91
ag90
ag91
ag89
ag89
ag51
ag89
ag51
ag89
ag89
ag91
ag51
ag89
ag51
ag51
ag91
ag51
ag51
ag51
ag51
ag51
ag90
ag91
ag91
ag89
ag91
ag90
ag90
ag91
ag51
ag90
ag51
ag51
ag51
ag91
ag91
ag91
ag51
ag90
ag51
ag51
ag90
ag90
ag51
ag51
ag91
ag91
ag91
ag89
ag91
ag51
ag91
ag91
ag51
ag90
ag90
ag91
ag91
ag51
asg94
(lp157
g91
ag51
ag90
ag51
ag89
ag91
ag89
ag89
ag91
ag91
ag51
ag90
ag91
aNaNag91
ag91
ag91
ag90
ag91
ag51
ag90
ag89
ag91
ag90
ag91
ag89
ag89
ag51
ag89
ag51
ag89
ag89
ag91
ag51
ag89
ag51
ag51
ag91
ag51
ag51
ag51
ag51
ag51
ag90
ag91
ag91
ag89
ag91
ag90
ag90
ag91
ag51
ag90
ag51
ag51
ag51
ag91
ag91
ag91
ag51
ag90
ag51
ag51
ag90
ag90
ag51
ag51
ag91
ag91
ag91
ag89
ag91
ag51
ag91
ag91
ag51
ag90
ag90
ag91
ag91
ag51
asaa(lp158
I3
ag39
(g40
tp159
Rp160
g43
(lp161
g45
ag45
ag45
ag47
ag47
ag47
ag47
ag46
ag45
ag45
ag47
ag47
ag47
ag45
ag47
ag47
ag46
ag47
ag47
ag47
ag46
ag45
ag47
ag47
ag46
ag47
ag46
ag46
ag47
ag47
ag46
ag45
ag47
ag47
ag47
ag45
ag46
ag46
ag46
ag47
ag46
ag47
ag47
ag47
ag45
ag47
ag46
ag45
ag46
ag45
ag46
ag46
ag46
ag46
ag47
ag46
ag46
asg48
(lp162
I00
aI00
aI00
aI00
aI00
aI00
aI01
aI01
aI00
aI00
aI00
aI00
aI00
aI00
aI00
aI01
aI00
aI00
aI00
aI01
aI01
aI00
aI00
aI01
aI01
aI01
aI00
aI01
aI00
aI01
aI00
aI00
aI00
aI00
aI00
aI01
aI00
aI00
aI01
aI01
aI01
aI00
aI00
aI00
aI00
aI00
aI00
aI01
aI00
aI01
aI00
aI00
aI00
aI01
aI01
aI00
aI01
asg50
I57
sg51
g101
sg55
(lp163
(g57
I0
g24
tp164
ag106
ag106
ag143
ag144
ag145
ag144
ag108
ag62
ag63
ag72
ag74
ag74
ag75
ag72
a(g61
I0
g71
tp165
ag73
ag107
ag144
ag145
ag108
ag62
ag72
ag74
ag73
ag67
ag68
ag68
ag84
ag148
ag109
ag151
a(g66
I0
g53
tp166
a(g66
I0
g53
tp167
ag167
ag77
ag82
ag82
ag82
ag84
ag109
ag111
ag149
ag149
ag153
ag130
ag150
ag151
a(g83
I0
g71
tp168
ag151
ag168
ag168
ag168
ag110
ag111
ag112
ag112
asg87
(lp169
g89
ag89
ag90
ag91
ag91
ag51
ag91
ag51
ag89
ag91
ag51
ag91
ag89
ag89
ag91
ag91
ag51
ag51
ag91
ag91
ag51
ag91
ag91
ag91
ag51
ag91
ag51
ag51
ag91
ag91
ag91
ag90
ag90
ag89
ag89
ag89
ag51
ag51
ag51
ag51
ag51
ag91
ag91
ag89
ag91
ag90
ag91
ag91
ag91
ag89
ag89
ag51
ag91
ag51
ag91
ag51
ag51
asg92
(lp170
g90
ag90
ag91
ag51
ag90
ag51
ag91
ag51
ag51
ag91
ag51
ag51
ag89
ag91
ag90
ag91
ag90
ag51
ag90
ag91
ag51
ag91
ag51
ag91
ag51
ag91
ag89
ag51
ag51
ag91
ag91
ag90
ag90
ag90
ag89
ag89
ag89
ag89
ag51
ag91
ag51
ag51
ag51
ag89
ag91
ag90
ag91
ag89
ag91
ag89
ag89
ag89
ag90
ag51
ag91
ag89
ag51
asg94
(lp171
g90
ag90
ag91
ag51
ag90
ag51
ag91
ag51
ag51
ag91
ag51
ag51
ag89
ag91
ag90
ag91
ag90
ag51
ag90
ag91
ag51
ag91
ag51
ag91
ag51
ag91
aNag51
ag51
ag91
ag91
ag90
ag90
ag90
ag89
ag89
aNaNag51
ag91
ag51
ag51
ag51
ag89
ag91
ag90
ag91
ag89
ag91
ag89
aNaNag90
ag51
ag91
aNag51
asaa(lp172
I4
ag39
(g40
tp173
Rp174
g43
(lp175
g45
ag45
ag46
ag46
ag45
ag45
ag45
ag46
ag46
ag45
ag46
ag47
ag46
ag47
ag47
ag45
ag47
ag47
ag45
ag45
ag46
ag45
ag46
ag47
ag45
ag45
ag45
ag46
ag47
ag47
ag46
ag47
ag47
ag46
asg48
(lp176
I00
aI01
aI00
aI00
aI00
aI00
aI01
aI00
aI01
aI01
aI01
aI01
aI01
aI00
aI00
aI00
aI00
aI00
aI00
aI01
aI00
aI01
aI01
aI00
aI00
aI00
aI01
aI01
aI00
aI01
aI01
aI00
aI01
aI01
asg50
I34
sg51
g101
sg55
(lp177
(g57
I0
g24
tp178
ag106
ag60
ag147
ag105
ag104
ag106
ag60
ag147
ag62
ag65
ag67
ag68
ag84
ag148
ag86
ag166
ag76
ag77
ag81
ag82
ag69
ag65
ag67
ag77
ag81
ag81
ag82
ag84
ag148
ag109
ag111
ag149
ag112
asg87
(lp179
g89
ag89
ag51
ag51
ag89
ag90
ag89
ag51
ag51
ag89
ag51
ag91
ag91
ag51
ag51
ag90
ag91
ag89
ag89
ag89
ag90
ag89
ag51
ag51
ag89
ag89
ag89
ag51
ag91
ag91
ag51
ag91
ag91
ag91
asg92
(lp180
g90
ag89
ag90
ag91
ag51
ag90
ag89
ag90
ag51
ag89
ag51
ag91
ag51
ag51
ag89
ag90
ag51
ag89
ag90
ag89
ag90
ag89
ag51
ag89
ag90
ag90
ag89
ag51
ag51
ag91
ag51
ag51
ag91
ag51
asg94
(lp181
g90
ag89
ag90
ag91
ag51
ag90
ag89
ag90
ag51
ag89
ag51
ag91
ag51
ag51
ag89
ag90
ag51
ag89
ag90
ag89
ag90
ag89
ag51
ag89
ag90
ag90
ag89
ag51
ag51
ag91
ag51
ag51
ag91
ag51
asaa(lp182
I5
ag39
(g40
tp183
Rp184
g43
(lp185
g45
ag47
ag47
ag46
ag45
ag46
ag47
ag46
ag46
ag45
ag45
ag45
ag46
ag47
ag46
ag46
ag46
ag45
ag46
ag47
ag46
ag47
ag46
ag47
ag46
ag46
ag46
ag46
ag46
ag46
ag45
asg48
(lp186
I00
aI00
aI01
aI01
aI01
aI00
aI01
aI00
aI01
aI00
aI00
aI01
aI01
aI01
aI00
aI00
aI00
aI01
aI01
aI01
aI01
aI00
aI01
aI00
aI00
aI00
aI00
aI00
aI00
aI00
aI00
asg50
I31
sg51
g54
sg55
(lp187
(g57
I0
g24
tp188
ag143
ag145
ag108
ag62
ag65
ag107
ag108
ag108
ag62
ag64
ag64
ag65
ag67
ag68
ag68
ag68
ag79
ag82
ag84
ag109
ag111
ag150
ag111
ag150
ag150
ag110
ag110
ag110
ag110
ag151
asg87
(lp189
g91
ag89
ag91
ag51
ag89
ag91
ag89
ag51
ag51
ag90
ag89
ag89
ag51
ag89
ag51
ag51
ag91
ag89
ag51
ag89
ag51
ag91
ag51
ag51
ag51
ag51
ag51
ag91
ag90
ag91
ag91
asg92
(lp190
g91
ag90
ag91
ag51
ag89
ag90
ag91
ag89
ag51
ag90
ag90
ag89
ag51
ag91
ag89
ag89
ag91
ag89
ag51
ag91
ag51
ag90
ag51
ag90
ag89
ag90
ag90
ag90
ag90
ag91
ag51
asg94
(lp191
g91
ag90
ag91
ag51
ag89
ag90
ag91
aNag51
ag90
ag90
ag89
ag51
ag91
aNaNag91
ag89
ag51
ag91
ag51
ag90
ag51
ag90
aNag90
ag90
ag90
ag90
ag91
ag51
asaa(lp192
I6
ag39
(g40
tp193
Rp194
g43
(lp195
g45
ag46
ag45
ag45
ag45
ag47
ag47
ag47
ag46
ag47
ag46
ag45
ag45
ag46
ag47
ag47
ag46
ag45
ag46
ag45
ag47
ag46
ag46
ag45
ag45
ag45
ag47
ag47
ag47
ag47
ag47
ag46
ag47
ag47
ag47
ag47
ag47
ag47
ag46
ag47
ag47
ag46
asg48
(lp196
I01
aI01
aI00
aI00
aI00
aI00
aI00
aI01
aI00
aI01
aI01
aI00
aI01
aI01
aI00
aI01
aI00
aI01
aI00
aI00
aI01
aI00
aI00
aI00
aI00
aI00
aI00
aI00
aI00
aI00
aI01
aI01
aI00
aI00
aI00
aI00
aI00
aI01
aI01
aI00
aI01
aI01
asg50
I42
sg51
g101
sg55
(lp197
(g57
I0
g24
tp198
ag60
ag62
ag63
ag64
ag72
ag74
ag165
ag73
ag107
ag108
ag62
ag63
ag65
ag67
ag76
ag68
ag79
ag82
ag79
ag78
ag68
ag68
ag79
ag80
ag80
ag78
ag76
ag167
ag167
ag76
ag68
ag84
ag148
ag85
ag148
ag85
ag148
ag109
ag111
ag149
ag112
asg87
(lp199
g89
ag51
ag89
ag90
ag91
ag91
ag90
ag91
ag90
ag51
ag51
ag89
ag91
ag51
ag91
ag89
ag91
ag89
ag91
ag91
ag91
ag51
ag91
ag89
ag89
ag89
ag91
ag91
ag91
ag51
ag90
ag51
ag91
ag89
ag91
ag91
ag51
ag91
ag90
ag51
ag51
ag51
asg92
(lp200
g89
ag51
ag51
ag90
ag91
ag51
ag90
ag91
ag90
ag91
ag51
ag51
ag89
ag51
ag51
ag91
ag91
ag89
ag91
ag91
ag91
ag89
ag91
ag51
ag51
ag91
ag51
ag90
ag90
ag51
ag91
ag51
ag51
ag90
ag51
ag90
ag51
ag91
ag51
ag51
ag91
ag51
asg94
(lp201
g89
ag51
ag51
ag90
ag91
ag51
ag90
ag91
ag90
ag91
ag51
ag51
ag89
ag51
ag51
ag91
ag91
ag89
ag91
ag91
ag91
aNag91
ag51
ag51
ag91
ag51
ag90
ag90
ag51
ag91
ag51
ag51
ag90
ag51
ag90
ag51
ag91
ag51
ag51
ag91
ag51
asaa(lp202
I7
ag39
(g40
tp203
Rp204
g43
(lp205
g45
ag45
ag45
ag46
ag45
ag47
ag46
ag45
ag47
ag45
ag46
ag45
ag47
ag47
ag46
ag47
ag46
ag46
ag45
ag45
ag45
ag45
ag45
ag46
ag45
ag47
ag45
ag45
ag45
ag45
ag46
ag45
ag46
ag45
ag45
ag46
ag45
ag47
ag46
ag47
ag46
ag45
ag45
ag45
ag47
ag47
ag47
ag46
ag46
ag46
ag45
ag46
ag47
ag46
ag47
ag45
ag47
ag46
ag46
ag46
ag46
ag47
ag46
ag47
ag47
ag45
ag46
ag45
ag46
ag46
ag47
ag45
ag47
ag46
ag45
ag47
ag46
ag47
ag47
ag47
ag47
ag45
ag45
ag45
ag45
ag45
ag47
ag47
ag47
ag47
ag47
ag45
ag47
ag45
ag47
ag47
ag46
ag45
ag45
ag47
ag47
ag46
asg48
(lp206
I00
aI00
aI01
aI01
aI00
aI01
aI00
aI00
aI00
aI01
aI00
aI00
aI00
aI01
aI01
aI01
aI00
aI00
aI00
aI00
aI00
aI00
aI01
aI00
aI00
aI00
aI00
aI00
aI00
aI01
aI00
aI01
aI00
aI00
aI01
aI00
aI00
aI01
aI00
aI01
aI01
aI00
aI00
aI00
aI00
aI00
aI01
aI00
aI00
aI00
aI01
aI01
aI01
aI01
aI00
aI00
aI01
aI00
aI00
aI00
aI01
aI01
aI00
aI00
aI00
aI01
aI00
aI01
aI00
aI00
aI00
aI00
aI01
aI01
aI00
aI01
aI01
aI00
aI00
aI00
aI00
aI00
aI00
aI00
aI00
aI00
aI00
aI00
aI00
aI00
aI00
aI00
aI00
aI00
aI00
aI01
aI01
aI00
aI00
aI00
aI01
aI01
asg50
I102
sg51
g101
sg55
(lp207
(g57
I0
g24
tp208
ag106
ag104
ag60
ag62
ag72
ag73
ag70
ag72
ag75
ag65
ag70
ag72
ag165
ag73
ag67
ag68
ag68
ag79
ag81
ag81
ag80
ag81
ag82
ag79
ag78
ag77
ag81
ag80
ag81
ag82
ag79
ag82
ag79
ag81
ag82
ag69
ag72
ag73
ag107
ag108
ag62
ag63
ag63
ag72
ag74
ag74
ag73
ag73
ag73
ag70
ag65
ag67
ag68
ag84
ag86
ag152
ag109
ag109
ag109
ag110
ag111
ag112
ag113
a(g66
F1.5707963267948966
g53
tp209
a(g66
F1.5707963267948966
g71
tp210
a(g66
F1.5707963267948966
g59
tp211
ag115
ag116
ag116
ag118
a(g57
F1.5707963267948966
g71
tp212
a(g57
F1.5707963267948966
g53
tp213
ag120
ag121
ag123
ag126
ag127
ag209
ag209
ag209
ag210
a(g66
F1.5707963267948966
g71
tp214
a(g66
F1.5707963267948966
g71
tp215
ag214
ag214
a(g66
F1.5707963267948966
g53
tp216
ag128
ag209
ag128
ag209
ag210
ag216
ag210
ag216
ag209
ag114
ag129
ag131
ag130
ag149
ag112
asg87
(lp217
g90
ag89
ag89
ag51
ag91
ag89
ag91
ag89
ag51
ag89
ag91
ag91
ag89
ag91
ag51
ag91
ag51
ag91
ag89
ag91
ag91
ag89
ag89
ag91
ag89
ag91
ag89
ag89
ag90
ag89
ag51
ag89
ag51
ag90
ag89
ag91
ag91
ag91
ag51
ag89
ag90
ag89
ag89
ag89
ag51
ag51
ag91
ag51
ag51
ag91
ag89
ag51
ag91
ag51
ag51
ag89
ag91
ag51
ag51
ag90
ag51
ag91
ag90
ag51
ag89
ag89
ag91
ag91
ag51
ag51
ag91
ag89
ag91
ag51
ag89
ag91
ag51
ag91
ag89
ag51
ag91
ag89
ag89
ag89
ag91
ag89
ag51
ag90
ag51
ag91
ag89
ag91
ag89
ag91
ag91
ag91
ag51
ag90
ag89
ag51
ag91
ag51
asg92
(lp218
g90
ag51
ag89
ag51
ag91
ag91
ag91
ag91
ag89
ag89
ag91
ag91
ag90
ag91
ag51
ag91
ag89
ag91
ag90
ag90
ag51
ag90
ag89
ag91
ag91
ag89
ag90
ag51
ag90
ag89
ag91
ag89
ag91
ag90
ag89
ag90
ag91
ag91
ag90
ag91
ag51
ag51
ag51
ag91
ag51
ag51
ag91
ag89
ag89
ag91
ag89
ag51
ag91
ag51
ag89
ag91
ag91
ag89
ag89
ag90
ag51
ag91
ag90
ag51
ag89
ag89
ag90
ag89
ag89
ag90
ag89
ag91
ag91
ag51
ag91
ag91
ag51
ag51
ag51
ag51
ag89
ag90
ag51
ag90
ag90
ag91
ag90
ag51
ag90
ag51
ag89
ag91
ag89
ag91
ag51
ag91
ag51
ag90
ag91
ag51
ag91
ag51
asg94
(lp219
g90
ag51
ag89
ag51
ag91
ag91
ag91
ag91
ag89
ag89
ag91
ag91
ag90
ag91
ag51
ag91
aNag91
ag90
ag90
ag51
ag90
ag89
ag91
ag91
ag89
ag90
ag51
ag90
ag89
ag91
ag89
ag91
ag90
ag89
ag90
ag91
ag91
ag90
ag91
ag51
ag51
ag51
ag91
ag51
ag51
ag91
aNaNag91
ag89
ag51
ag91
ag51
ag89
ag91
ag91
aNaNag90
ag51
ag91
ag90
ag51
ag89
ag89
ag90
ag89
aNag90
ag89
ag91
ag91
ag51
ag91
ag91
ag51
ag51
ag51
ag51
ag89
ag90
ag51
ag90
ag90
ag91
ag90
ag51
ag90
ag51
ag89
ag91
ag89
ag91
ag51
ag91
ag51
ag90
ag91
ag51
ag91
ag51
asaa(lp220
I8
ag39
(g40
tp221
Rp222
g43
(lp223
g45
ag46
ag46
ag45
ag47
ag46
ag45
ag47
ag46
ag45
ag47
ag47
ag46
ag47
ag47
ag47
ag47
ag45
ag46
ag47
ag47
ag47
ag46
ag47
ag47
ag45
ag45
ag45
ag46
asg48
(lp224
I01
aI00
aI00
aI00
aI01
aI01
aI00
aI01
aI00
aI00
aI00
aI01
aI01
aI00
aI00
aI00
aI00
aI01
aI01
aI00
aI00
aI01
aI01
aI00
aI00
aI00
aI00
aI01
aI01
asg50
I29
sg51
g101
sg55
(lp225
(g57
I0
g24
tp226
ag60
ag60
ag105
ag143
ag108
ag62
ag72
ag73
ag70
ag72
ag74
ag73
ag67
ag167
ag167
ag167
ag77
ag82
ag84
ag85
ag148
ag109
ag111
ag149
ag153
ag131
ag131
a(g83
F1.5707963267948966
g53
tp227
asg87
(lp228
g89
ag51
ag91
ag90
ag91
ag51
ag89
ag91
ag91
ag90
ag51
ag91
ag51
ag51
ag91
ag51
ag89
ag91
ag51
ag89
ag51
ag91
ag51
ag91
ag91
ag91
ag89
ag89
ag51
asg92
(lp229
g89
ag89
ag91
ag91
ag91
ag51
ag91
ag91
ag91
ag91
ag51
ag91
ag51
ag90
ag90
ag90
ag89
ag89
ag51
ag90
ag51
ag91
ag51
ag51
ag89
ag90
ag90
ag89
ag51
asg94
(lp230
g89
aNag91
ag91
ag91
ag51
ag91
ag91
ag91
ag91
ag51
ag91
ag51
ag90
ag90
ag90
ag89
ag89
ag51
ag90
ag51
ag91
ag51
ag51
ag89
ag90
ag90
ag89
ag51
asaa(lp231
I9
ag39
(g40
tp232
Rp233
g43
(lp234
g45
ag46
ag46
ag45
ag46
ag45
ag47
ag46
ag47
ag46
ag46
ag46
ag45
ag47
ag47
ag46
ag46
ag45
ag47
ag46
ag45
ag45
ag47
ag46
ag47
ag47
ag47
ag47
ag46
ag45
ag46
ag45
ag45
ag45
ag45
ag45
ag47
ag47
ag46
ag47
ag45
ag47
ag47
ag46
ag45
ag46
ag47
ag47
ag45
ag46
ag46
ag45
ag45
ag45
ag45
ag45
ag46
ag47
ag47
ag46
ag47
ag47
ag45
ag46
ag46
ag45
ag46
ag45
ag46
ag45
ag46
ag47
ag46
ag46
ag47
ag46
ag45
ag45
ag45
ag45
ag46
ag47
ag47
ag46
ag45
ag45
ag47
ag47
ag46
ag47
ag47
ag47
ag46
ag45
ag45
ag46
ag45
ag45
ag46
ag47
ag46
ag46
ag45
ag47
ag45
ag47
ag46
ag47
ag47
ag45
ag47
ag45
ag45
ag47
ag46
ag46
ag45
ag45
ag45
ag45
ag45
ag47
ag45
ag46
ag46
ag46
ag46
ag46
ag45
ag45
ag45
ag45
ag47
ag46
ag47
ag47
ag47
ag47
ag45
ag46
ag46
ag46
ag45
ag45
ag45
ag47
ag47
ag45
ag46
ag46
ag47
ag45
ag45
ag46
ag45
ag45
ag45
ag46
ag47
ag46
ag45
ag45
ag45
ag46
ag46
ag46
ag45
ag47
ag45
ag45
ag46
ag45
ag47
ag47
ag46
ag47
ag47
ag46
ag46
ag45
ag45
ag45
ag46
ag45
ag46
ag47
ag47
ag47
ag46
ag46
ag45
ag47
ag46
ag47
ag46
ag45
ag46
ag46
ag46
ag45
ag45
asg48
(lp235
I01
aI00
aI00
aI01
aI01
aI00
aI01
aI00
aI01
aI00
aI00
aI00
aI00
aI00
aI01
aI00
aI01
aI00
aI01
aI00
aI00
aI00
aI01
aI00
aI00
aI00
aI00
aI01
aI01
aI01
aI00
aI00
aI00
aI00
aI00
aI00
aI00
aI01
aI01
aI00
aI00
aI00
aI01
aI00
aI01
aI00
aI00
aI00
aI01
aI00
aI01
aI00
aI00
aI00
aI00
aI01
aI01
aI00
aI01
aI01
aI00
aI00
aI01
aI00
aI00
aI01
aI00
aI01
aI00
aI01
aI01
aI00
aI00
aI01
aI01
aI00
aI00
aI00
aI00
aI01
aI00
aI00
aI01
aI01
aI00
aI00
aI00
aI01
aI00
aI00
aI00
aI01
aI00
aI00
aI01
aI00
aI00
aI01
aI01
aI01
aI00
aI00
aI00
aI00
aI00
aI01
aI00
aI00
aI00
aI00
aI00
aI00
aI00
aI01
aI00
aI00
aI00
aI00
aI00
aI00
aI00
aI00
aI01
aI00
aI00
aI00
aI00
aI01
aI00
aI00
aI00
aI00
aI01
aI00
aI00
aI00
aI00
aI00
aI01
aI00
aI00
aI01
aI00
aI00
aI00
aI00
aI00
aI01
aI00
aI01
aI00
aI00
aI01
aI00
aI00
aI00
aI01
aI00
aI01
aI00
aI00
aI00
aI01
aI00
aI00
aI00
aI00
aI00
aI00
aI01
aI01
aI00
aI00
aI01
aI01
aI00
aI01
aI00
aI00
aI00
aI00
aI01
aI00
aI01
aI00
aI00
aI00
aI01
aI00
aI01
aI00
aI01
aI00
aI01
aI00
aI01
aI00
aI00
aI00
aI00
aI00
asg50
I201
sg51
(g57
F1.5707963267948966
g71
tp236
sg55
(lp237
(g57
I0
g24
tp238
ag60
ag60
ag105
ag60
ag62
ag72
ag73
ag107
ag108
ag147
ag147
ag105
ag143
ag145
ag108
ag108
ag62
ag72
ag73
ag70
ag64
ag72
ag73
ag107
ag144
ag145
ag145
ag108
ag62
ag65
ag70
ag64
ag64
ag63
ag64
ag72
ag165
ag73
ag67
ag77
ag78
ag167
ag68
ag69
ag65
ag107
ag144
ag146
ag60
ag60
ag62
ag64
ag64
ag64
ag64
ag65
ag67
ag76
ag68
ag84
ag148
ag86
ag168
ag168
ag151
ag168
ag151
ag168
ag151
ag168
ag111
ag150
ag150
ag111
ag112
ag132
ag131
ag154
ag131
ag227
ag113
ag128
ag114
ag129
ag154
ag130
ag149
ag112
ag113
ag128
ag209
ag114
a(g66
F1.5707963267948966
g71
tp239
ag214
ag211
ag115
ag122
ag116
ag127
ag114
ag114
ag115
ag123
a(g61
F1.5707963267948966
g59
tp240
ag123
ag126
ag118
ag119
ag212
ag213
ag212
a(g57
F1.5707963267948966
g71
tp241
ag213
ag120
ag120
a(g57
F1.5707963267948966
g71
tp242
ag241
ag236
ag236
ag241
ag213
ag212
a(g57
F1.5707963267948966
g59
tp243
a(g57
F1.5707963267948966
g59
tp244
ag244
ag244
ag244
ag121
a(g61
F1.5707963267948966
g59
tp245
ag122
ag245
ag123
ag126
ag118
ag119
a(g57
F1.5707963267948966
g53
tp246
ag119
ag212
ag243
ag244
ag244
ag121
ag122
ag122
ag123
ag125
ag240
ag116
ag116
ag127
ag210
ag215
ag211
ag115
ag245
ag245
ag116
ag118
ag120
ag242
ag241
ag241
ag243
ag243
ag244
ag242
ag213
ag212
ag241
ag243
ag121
ag123
ag124
ag126
ag127
ag209
ag114
ag114
ag115
ag122
ag245
ag116
ag117
ag116
ag118
ag119
ag119
ag120
ag120
ag121
ag123
ag126
ag118
ag120
ag242
ag243
ag243
ag243
ag242
ag236
asg87
(lp247
g89
ag51
ag89
ag89
ag51
ag90
ag89
ag91
ag91
ag51
ag51
ag51
ag89
ag91
ag51
ag51
ag51
ag89
ag91
ag51
ag89
ag91
ag91
ag51
ag51
ag91
ag91
ag89
ag51
ag90
ag91
ag90
ag51
ag89
ag90
ag91
ag91
ag91
ag91
ag91
ag91
ag90
ag91
ag51
ag89
ag51
ag91
ag89
ag89
ag89
ag51
ag89
ag90
ag89
ag89
ag89
ag91
ag51
ag89
ag90
ag51
ag89
ag89
ag89
ag91
ag89
ag91
ag89
ag51
ag89
ag51
ag89
ag51
ag51
ag89
ag91
ag89
ag89
ag90
ag89
ag51
ag91
ag89
ag51
ag89
ag91
ag51
ag91
ag90
ag91
ag89
ag91
ag51
ag90
ag89
ag90
ag91
ag89
ag51
ag91
ag51
ag91
ag90
ag89
ag91
ag91
ag51
ag89
ag51
ag91
ag89
ag91
ag89
ag91
ag51
ag91
ag89
ag89
ag91
ag89
ag89
ag89
ag89
ag51
ag51
ag91
ag90
ag51
ag89
ag90
ag90
ag89
ag91
ag91
ag91
ag89
ag51
ag89
ag89
ag51
ag90
ag51
ag90
ag89
ag90
ag90
ag91
ag89
ag51
ag91
ag89
ag89
ag89
ag51
ag89
ag89
ag89
ag90
ag51
ag89
ag91
ag89
ag89
ag51
ag91
ag51
ag91
ag51
ag89
ag89
ag51
ag89
ag91
ag91
ag51
ag51
ag91
ag51
ag91
ag89
ag90
ag91
ag90
ag89
ag89
ag91
ag91
ag91
ag91
ag51
ag89
ag91
ag51
ag91
ag91
ag89
ag89
ag51
ag51
ag90
ag91
asg92
(lp248
g89
ag89
ag91
ag89
ag51
ag91
ag91
ag90
ag91
ag90
ag89
ag91
ag91
ag90
ag91
ag89
ag51
ag91
ag91
ag91
ag90
ag91
ag91
ag90
ag51
ag90
ag90
ag91
ag51
ag89
ag91
ag90
ag90
ag51
ag90
ag91
ag90
ag91
ag51
ag89
ag91
ag90
ag91
ag90
ag89
ag90
ag51
ag89
ag89
ag89
ag51
ag90
ag90
ag90
ag90
ag89
ag51
ag51
ag91
ag51
ag51
ag89
ag89
ag89
ag91
ag89
ag91
ag89
ag91
ag89
ag51
ag90
ag89
ag51
ag91
ag91
ag90
ag51
ag90
ag89
ag90
ag90
ag91
ag51
ag51
ag91
ag51
ag91
ag90
ag90
ag51
ag91
ag91
ag90
ag89
ag90
ag90
ag89
ag51
ag91
ag89
ag90
ag91
ag89
ag91
ag91
ag90
ag51
ag89
ag91
ag89
ag51
ag91
ag91
ag89
ag91
ag51
ag90
ag90
ag51
ag91
ag89
ag89
ag90
ag89
ag90
ag90
ag51
ag51
ag90
ag51
ag91
ag91
ag90
ag51
ag90
ag51
ag89
ag89
ag90
ag90
ag51
ag90
ag90
ag91
ag90
ag89
ag89
ag89
ag51
ag89
ag51
ag89
ag90
ag51
ag51
ag89
ag90
ag91
ag91
ag51
ag51
ag89
ag89
ag90
ag91
ag91
ag89
ag51
ag89
ag51
ag91
ag51
ag91
ag51
ag51
ag91
ag89
ag90
ag90
ag51
ag89
ag91
ag89
ag90
ag51
ag51
ag91
ag89
ag51
ag91
ag91
ag90
ag91
ag91
ag89
ag89
ag89
ag91
ag90
ag90
asg94
(lp249
g89
aNag91
ag89
ag51
ag91
ag91
ag90
ag91
ag90
aNag91
ag91
ag90
ag91
aNag51
ag91
ag91
ag91
ag90
ag91
ag91
ag90
ag51
ag90
ag90
ag91
ag51
ag89
ag91
ag90
ag90
ag51
ag90
ag91
ag90
ag91
ag51
ag89
ag91
ag90
ag91
ag90
ag89
ag90
ag51
ag89
ag89
aNag51
ag90
ag90
ag90
ag90
ag89
ag51
ag51
ag91
ag51
ag51
ag89
ag89
aNag91
ag89
ag91
ag89
ag91
ag89
ag51
ag90
aNag51
ag91
ag91
ag90
ag51
ag90
ag89
ag90
ag90
ag91
ag51
ag51
ag91
ag51
ag91
ag90
ag90
ag51
ag91
ag91
ag90
ag89
ag90
ag90
ag89
ag51
ag91
aNag90
ag91
ag89
ag91
ag91
ag90
ag51
ag89
ag91
ag89
ag51
ag91
ag91
aNag91
ag51
ag90
ag90
ag51
ag91
ag89
ag89
ag90
aNag90
ag90
ag51
ag51
ag90
ag51
ag91
ag91
ag90
ag51
ag90
ag51
ag89
ag89
ag90
ag90
ag51
ag90
ag90
ag91
ag90
ag89
ag89
aNag51
ag89
ag51
ag89
ag90
ag51
ag51
ag89
ag90
ag91
ag91
ag51
ag51
ag89
aNag90
ag91
ag91
ag89
ag51
ag89
ag51
ag91
ag51
ag91
ag51
ag51
ag91
aNag90
ag90
ag51
ag89
ag91
ag89
ag90
ag51
ag51
ag91
aNag51
ag91
ag91
ag90
ag91
ag91
ag89
aNaNag91
ag90
ag90
asaatp250
Rp251
aatp252
Rp253
.