ccollections
OrderedDict
p0
((lp1
(lp2
S'combination_dict'
p3
ag0
((lp4
(lp5
S'r_to_g_config'
p6
aS'br'
p7
aa(lp8
S'num_turns'
p9
aI3
aa(lp10
S'start_direction'
p11
acutils_ms
StartDirection
p12
(I1
tp13
Rp14
aa(lp15
S'assistance_type'
p16
acutils_ms
AssistanceType
p17
(I2
tp18
Rp19
aa(lp20
S'start_mode'
p21
aS'x'
p22
aa(lp23
S'ui_given_a_noise'
p24
aF0.5
aa(lp25
S'um_given_ui_noise'
p26
aF0.7
aa(lp27
S'entropy_threshold'
p28
aF0.7
aatp29
Rp30
aa(lp31
S'data'
p32
accollections
defaultdict
p33
(c__builtin__
list
p34
tp35
Rp36
S'a'
p37
(lp38
S'mode_r'
p39
ag39
aS'mode_l'
p40
ag39
ag39
ag40
ag40
aS'move_n'
p41
ag40
ag40
ag40
ag39
ag40
ag39
ag40
ag40
ag39
ag40
ag40
ag39
ag40
ag39
ag39
ag40
aS'move_p'
p42
ag39
ag39
ag39
ag40
ag40
ag40
ag39
ag42
ag40
ag40
ag40
ag40
ag39
ag40
ag40
ag42
ag39
ag39
ag41
ag39
ag39
ag41
ag39
ag39
ag41
ag40
ag39
ag39
ag40
ag39
ag40
ag39
ag42
ag39
ag40
ag41
ag39
ag41
ag40
ag40
ag42
ag39
ag39
ag39
ag39
ag39
ag39
ag41
ag40
ag42
ag40
ag42
ag40
ag40
ag40
ag40
ag40
ag42
ag40
ag42
ag40
ag40
ag42
ag40
ag39
ag39
ag41
ag39
ag40
ag39
ag39
ag41
ag40
ag42
ag42
ag40
ag40
ag39
ag41
ag40
ag40
ag39
ag40
ag41
ag39
ag41
ag40
ag41
ag40
ag42
ag42
ag40
ag42
ag40
ag41
ag40
ag42
ag40
ag39
ag40
ag40
ag39
ag39
ag40
ag40
ag40
ag40
ag42
ag40
ag42
ag39
ag42
ag39
ag42
asS'assistance_match_with_ground_truth'
p43
(lp44
I00
aI00
aI00
aI00
aI00
aI00
aI01
aI01
aI00
aI00
aI00
aI00
aI00
aI00
aI00
aI00
aI00
aI00
aI00
aI00
aI00
aI00
aI00
aI01
aI00
aI00
aI00
aI00
aI00
aI00
aI00
aI01
aI00
aI00
aI00
aI00
aI00
aI00
aI00
aI01
aI00
aI00
aI01
aI00
aI00
aI01
aI00
aI00
aI01
aI01
aI00
aI00
aI00
aI00
aI00
aI00
aI01
aI00
aI00
aI01
aI00
aI01
aI01
aI00
aI01
aI00
aI00
aI00
aI00
aI00
aI00
aI01
aI01
aI01
aI00
aI01
aI00
aI00
aI00
aI00
aI00
aI01
aI00
aI01
aI01
aI00
aI01
aI01
aI00
aI00
aI01
aI00
aI00
aI00
aI00
aI01
aI00
aI00
aI00
aI01
aI00
aI00
aI01
aI00
aI00
aI00
aI00
aI01
aI00
aI01
aI00
aI01
aI00
aI00
aI00
aI00
aI01
aI01
aI01
aI01
aI01
aI00
aI00
aI00
aI00
aI00
aI00
aI00
aI00
aI00
aI00
aI01
aI00
aI01
aI00
aI01
aI00
aI01
aI01
asS'total_steps'
p45
I139
sS'sp'
p46
(lp47
(S'p0'
p48
I0
S'x'
p49
tp50
a(g48
I0
S't'
p51
tp52
a(g48
I0
g49
tp53
a(g48
I0
g49
tp54
ag52
a(g48
I0
g51
tp55
a(g48
I0
S'y'
p56
tp57
a(S'p1'
p58
I0
g56
tp59
a(g58
I0
g56
tp60
ag60
a(g58
I0
g51
tp61
a(g58
I0
g56
tp62
ag61
ag62
ag60
ag61
ag62
a(g58
I0
g56
tp63
ag61
ag62
ag61
a(g58
I0
g51
tp64
ag62
a(g58
I0
g49
tp65
a(g58
I0
g51
tp66
ag64
a(g58
I0
g51
tp67
ag62
ag63
ag60
ag61
a(g58
I0
g49
tp68
a(g58
I0
g56
tp69
ag60
ag60
ag63
ag61
ag62
ag63
ag65
a(g48
I0
g49
tp70
ag54
a(g48
I0
g56
tp71
a(g48
I0
g49
tp72
ag54
ag71
ag72
ag50
ag71
ag59
ag61
ag67
ag62
ag61
ag62
ag61
ag68
ag70
ag52
ag57
ag72
ag71
ag59
ag60
ag65
ag70
ag50
ag50
ag54
ag50
ag50
ag71
ag59
ag65
ag69
ag65
ag69
ag60
ag60
ag60
ag60
ag65
ag69
ag65
a(S'p2'
p73
I0
g49
tp74
a(g73
I0
g49
tp75
a(g73
I0
g51
tp76
a(g73
F1.5707963267948966
g51
tp77
a(g73
F1.5707963267948966
g49
tp78
a(g73
F1.5707963267948966
g49
tp79
a(g73
F1.5707963267948966
g56
tp80
a(g73
F1.5707963267948966
g49
tp81
a(g73
F1.5707963267948966
g51
tp82
ag78
a(g73
F1.5707963267948966
g49
tp83
ag80
a(g73
F1.5707963267948966
g51
tp84
a(g73
I0
g51
tp85
a(g73
I0
g51
tp86
ag77
a(g73
F1.5707963267948966
g51
tp87
ag78
ag80
ag84
ag87
ag78
ag82
a(g73
F1.5707963267948966
g56
tp88
ag81
ag80
ag84
ag88
ag84
ag85
ag86
a(g73
I0
g49
tp89
ag76
ag77
ag88
a(S'p3'
p90
F1.5707963267948966
g56
tp91
a(g90
F1.5707963267948966
g49
tp92
a(g90
F1.5707963267948966
g56
tp93
a(g90
F1.5707963267948966
g51
tp94
a(g90
F1.5707963267948966
g56
tp95
a(g90
F1.5707963267948966
g56
tp96
ag94
a(g90
F1.5707963267948966
g51
tp97
ag95
ag96
a(g90
F1.5707963267948966
g56
tp98
ag98
ag92
ag93
ag92
a(g90
F1.5707963267948966
g51
tp99
a(g90
F1.5707963267948966
g49
tp100
ag99
ag100
a(S'p4'
p101
F1.5707963267948966
g49
tp102
asS's'
p103
(lp104
(g48
I0
g22
tp105
ag50
ag52
ag53
ag54
ag52
ag55
ag57
ag59
ag60
ag60
ag61
ag62
ag61
ag62
ag60
ag61
ag62
ag63
ag61
ag62
ag61
ag64
ag62
ag65
ag66
ag64
ag67
ag62
ag63
ag60
ag61
ag68
ag69
ag60
ag60
ag63
ag61
ag62
ag63
ag65
ag70
ag54
ag71
ag72
ag54
ag71
ag72
ag50
ag71
ag59
ag61
ag67
ag62
ag61
ag62
ag61
ag68
ag70
ag52
ag57
ag72
ag71
ag59
ag60
ag65
ag70
ag50
ag50
ag54
ag50
ag50
ag71
ag59
ag65
ag69
ag65
ag69
ag60
ag60
ag60
ag60
ag65
ag69
ag65
ag74
ag75
ag76
ag77
ag78
ag79
ag80
ag81
ag82
ag78
ag83
ag80
ag84
ag85
ag86
ag77
ag87
ag78
ag80
ag84
ag87
ag78
ag82
ag88
ag81
ag80
ag84
ag88
ag84
ag85
ag86
ag89
ag76
ag77
ag88
ag91
ag92
ag93
ag94
ag95
ag96
ag94
ag97
ag95
ag96
ag98
ag98
ag92
ag93
ag92
ag99
ag100
ag99
ag100
asS'ui'
p106
(lp107
S'ss'
p108
ag108
aS'hp'
p109
ag109
ag108
ag46
aS'hs'
p110
ag108
ag110
ag110
ag46
ag109
ag110
ag108
ag109
ag109
ag110
ag109
ag109
ag109
ag110
ag109
ag110
ag110
ag46
ag108
ag109
ag108
ag109
ag110
ag110
ag46
ag109
ag110
ag108
ag110
ag109
ag108
ag109
ag108
ag109
ag46
ag109
ag108
ag46
ag109
ag110
ag108
ag109
ag110
ag110
ag110
ag110
ag109
ag46
ag109
ag110
ag108
ag108
ag109
ag110
ag109
ag108
ag108
ag110
ag108
ag110
ag110
ag110
ag110
ag108
ag109
ag108
ag110
ag109
ag110
ag109
ag110
ag46
ag110
ag110
ag110
ag46
ag110
ag109
ag46
ag108
ag109
ag110
ag108
ag109
ag109
ag110
ag109
ag109
ag109
ag110
ag109
ag108
ag109
ag109
ag110
ag109
ag46
ag46
ag109
ag46
ag109
ag108
ag110
ag109
ag109
ag109
ag109
ag110
ag110
ag110
ag46
ag110
ag108
ag109
ag109
ag109
ag110
ag108
ag110
ag108
ag109
ag110
ag110
ag110
ag110
ag109
ag108
ag110
ag109
ag110
ag46
ag46
asS'um_before'
p111
(lp112
g108
ag110
ag109
ag46
ag110
ag108
ag110
ag108
ag108
ag108
ag109
ag110
ag109
ag110
ag108
ag109
ag110
ag46
ag109
ag110
ag109
ag108
ag110
ag110
ag110
ag108
ag46
ag110
ag46
ag108
ag109
ag109
ag109
ag108
ag108
ag46
ag109
ag110
ag46
ag110
ag108
ag46
ag109
ag110
ag46
ag109
ag110
ag108
ag109
ag108
ag109
ag46
ag110
ag109
ag110
ag109
ag109
ag108
ag110
ag110
ag110
ag109
ag108
ag108
ag110
ag108
ag108
ag108
ag46
ag108
ag108
ag109
ag108
ag110
ag109
ag110
ag109
ag108
ag108
ag108
ag108
ag110
ag109
ag110
ag46
ag46
ag110
ag46
ag109
ag108
ag109
ag110
ag110
ag109
ag46
ag109
ag109
ag108
ag108
ag46
ag46
ag109
ag109
ag109
ag46
ag109
ag110
ag110
ag110
ag109
ag109
ag110
ag109
ag108
ag108
ag109
ag110
ag46
ag110
ag108
ag110
ag109
ag109
ag110
ag108
ag109
ag108
ag110
ag108
ag46
ag46
ag110
ag109
ag110
ag110
ag109
ag110
ag109
ag46
asS'um_after'
p113
(lp114
g108
ag110
ag109
ag46
ag110
ag108
ag110
ag108
ag108
ag108
ag109
ag110
ag109
ag110
ag108
ag109
ag110
ag46
ag109
ag110
ag109
ag108
ag110
ag110
ag110
ag108
ag46
ag110
ag46
ag108
ag109
ag109
ag109
ag108
ag108
ag46
ag109
ag110
ag46
ag110
ag108
ag46
ag109
ag110
ag46
ag109
ag110
ag108
ag109
ag108
ag109
ag46
ag110
ag109
ag110
ag109
ag109
ag108
ag110
ag110
ag110
ag109
ag108
ag108
ag110
ag108
ag108
ag108
ag46
ag108
ag108
ag109
ag108
ag110
ag109
ag110
ag109
ag108
ag108
ag108
ag108
ag110
ag109
ag110
ag46
ag46
ag110
ag46
ag109
ag108
ag109
ag110
ag110
ag109
ag46
ag109
ag109
ag108
ag108
ag46
ag46
ag109
ag109
ag109
ag46
ag109
ag110
ag110
ag110
ag109
ag109
ag110
ag109
ag108
ag108
ag109
ag110
ag46
ag110
ag108
ag110
ag109
ag109
ag110
ag108
ag109
ag108
ag110
ag108
ag46
ag46
ag110
ag109
ag110
ag110
ag109
ag110
ag109
ag46
asaa(lp115
S'index'
p116
aI114174
aatp117
Rp118
.