ccollections
OrderedDict
p0
((lp1
(lp2
S'combination_dict'
p3
ag0
((lp4
(lp5
S'r_to_g_config'
p6
aS'bl'
p7
aa(lp8
S'num_turns'
p9
aI2
aa(lp10
S'start_direction'
p11
acutils_ms
StartDirection
p12
(I0
tp13
Rp14
aa(lp15
S'assistance_type'
p16
acutils_ms
AssistanceType
p17
(I2
tp18
Rp19
aa(lp20
S'start_mode'
p21
aS't'
p22
aa(lp23
S'ui_given_a_noise'
p24
aF0.5
aa(lp25
S'um_given_ui_noise'
p26
aF0.5
aa(lp27
S'entropy_threshold'
p28
aF0.9
aatp29
Rp30
aa(lp31
S'data'
p32
accollections
defaultdict
p33
(c__builtin__
list
p34
tp35
Rp36
S'a'
p37
(lp38
S'mode_r'
p39
aS'move_n'
p40
aS'mode_l'
p41
ag40
ag41
ag41
ag41
ag41
ag39
ag41
ag41
ag39
ag40
ag40
ag40
ag39
ag40
ag41
ag41
ag40
ag41
aS'move_p'
p42
ag41
ag41
ag42
ag41
ag41
ag41
ag41
ag41
ag41
ag41
ag39
ag41
ag41
ag41
ag40
ag41
ag41
ag41
ag39
ag39
ag39
ag39
ag39
ag39
ag40
ag39
ag41
ag41
ag39
ag39
ag39
ag39
ag40
ag41
ag40
ag41
ag41
ag42
ag41
ag40
ag41
ag42
ag41
ag39
ag41
ag40
ag41
ag39
ag39
ag39
ag40
asS'assistance_match_with_ground_truth'
p43
(lp44
I01
aI00
aI01
aI01
aI00
aI00
aI00
aI00
aI00
aI00
aI00
aI01
aI00
aI00
aI00
aI01
aI00
aI00
aI01
aI01
aI01
aI01
aI00
aI00
aI00
aI00
aI00
aI00
aI00
aI00
aI00
aI00
aI00
aI00
aI00
aI01
aI00
aI00
aI00
aI00
aI00
aI00
aI00
aI00
aI00
aI01
aI00
aI00
aI00
aI00
aI00
aI00
aI00
aI01
aI00
aI01
aI00
aI00
aI01
aI01
aI01
aI00
aI00
aI01
aI00
aI00
aI01
aI01
aI00
aI00
aI00
aI01
aI01
asS'total_steps'
p45
I73
sS'sp'
p46
(lp47
(S'p0'
p48
I0
S'x'
p49
tp50
a(g48
I0
S'y'
p51
tp52
a(g48
I0
g49
tp53
a(S'p1'
p54
I0
g49
tp55
a(g54
I0
g49
tp56
a(g54
I0
g49
tp57
ag56
a(g54
I0
g51
tp58
a(g48
I0
g51
tp59
a(g48
I0
g51
tp60
a(g48
I0
S't'
p61
tp62
ag50
a(g48
I0
g49
tp63
ag63
a(g48
I0
g61
tp64
ag50
ag52
ag60
ag53
ag55
a(g54
I0
g61
tp65
a(g54
F1.5707963267948966
g61
tp66
a(g54
F1.5707963267948966
g61
tp67
a(g54
I0
g61
tp68
a(g54
I0
g49
tp69
ag57
ag56
ag57
ag56
ag57
ag57
ag58
a(S'p2'
p70
I0
g51
tp71
a(g70
I0
g51
tp72
ag72
a(g70
I0
g49
tp73
a(g70
I0
g51
tp74
a(g70
I0
g51
tp75
ag72
a(g70
I0
g61
tp76
a(g70
I0
g61
tp77
a(g70
I0
g61
tp78
ag78
ag77
ag77
a(g70
I0
g49
tp79
a(g70
I0
g61
tp80
a(g70
I0
g51
tp81
ag75
ag76
ag78
ag78
ag77
ag79
ag74
ag73
a(g54
I0
g49
tp82
ag57
ag65
ag66
a(g54
F1.5707963267948966
g51
tp83
a(g54
F1.5707963267948966
g61
tp84
ag68
ag66
a(g54
F1.5707963267948966
g49
tp85
a(g54
F1.5707963267948966
g61
tp86
ag83
a(g70
F1.5707963267948966
g51
tp87
a(g70
F1.5707963267948966
g61
tp88
a(g70
F1.5707963267948966
g61
tp89
a(g70
F1.5707963267948966
g61
tp90
a(g70
F1.5707963267948966
g49
tp91
a(S'p3'
p92
F1.5707963267948966
g49
tp93
asS's'
p94
(lp95
(g48
I0
g22
tp96
ag50
ag52
ag53
ag55
ag56
ag57
ag56
ag58
ag59
ag60
ag62
ag50
ag63
ag63
ag64
ag50
ag52
ag60
ag53
ag55
ag65
ag66
ag67
ag68
ag69
ag57
ag56
ag57
ag56
ag57
ag57
ag58
ag71
ag72
ag72
ag73
ag74
ag75
ag72
ag76
ag77
ag78
ag78
ag77
ag77
ag79
ag80
ag81
ag75
ag76
ag78
ag78
ag77
ag79
ag74
ag73
ag82
ag57
ag65
ag66
ag83
ag84
ag68
ag66
ag85
ag86
ag83
ag87
ag88
ag89
ag90
ag91
asS'ui'
p97
(lp98
S'hp'
p99
aS'ss'
p100
ag99
ag99
ag99
ag46
aS'hs'
p101
ag99
ag46
ag99
ag101
ag99
ag46
ag46
ag46
ag100
ag99
ag100
ag101
ag100
ag46
ag46
ag46
ag100
ag46
ag101
ag101
ag101
ag46
ag101
ag46
ag99
ag100
ag99
ag100
ag101
ag99
ag46
ag99
ag99
ag46
ag100
ag100
ag99
ag46
ag99
ag101
ag101
ag101
ag99
ag99
ag46
ag101
ag99
ag100
ag101
ag46
ag46
ag46
ag46
ag101
ag99
ag101
ag46
ag46
ag46
ag101
ag100
ag99
ag100
ag101
ag99
ag100
asS'um_before'
p102
(lp103
g99
ag99
ag101
ag100
ag100
ag46
ag100
ag99
ag46
ag100
ag99
ag99
ag46
ag46
ag101
ag99
ag99
ag100
ag101
ag100
ag101
ag46
ag46
ag100
ag99
ag46
ag100
ag46
ag100
ag46
ag46
ag99
ag100
ag100
ag100
ag101
ag99
ag46
ag100
ag99
ag46
ag100
ag100
ag46
ag46
ag99
ag101
ag101
ag46
ag99
ag100
ag100
ag46
ag99
ag99
ag101
ag46
ag46
ag101
ag46
ag101
ag99
ag100
ag46
ag99
ag101
ag101
ag100
ag99
ag100
ag46
ag99
ag100
asS'um_after'
p104
(lp105
g99
ag99
ag101
ag100
ag100
ag46
ag100
ag99
ag46
ag100
ag99
ag99
ag46
ag46
ag101
ag99
ag99
ag100
ag101
ag100
ag101
ag46
ag46
ag100
ag99
ag46
ag100
ag46
ag100
ag46
ag46
ag99
ag100
ag100
ag100
ag101
ag99
ag46
ag100
ag99
ag46
ag100
ag100
ag46
ag46
ag99
ag101
ag101
ag46
ag99
ag100
ag100
ag46
ag99
ag99
ag101
ag46
ag46
ag101
ag46
ag101
ag99
ag100
ag46
ag99
ag101
ag101
ag100
ag99
ag100
ag46
ag99
ag100
asaa(lp106
S'index'
p107
aI70945
aatp108
Rp109
.