ccollections
OrderedDict
p0
((lp1
(lp2
S'combination_dict'
p3
ag0
((lp4
(lp5
S'r_to_g_config'
p6
aS'tr'
p7
aa(lp8
S'num_turns'
p9
aI1
aa(lp10
S'start_direction'
p11
acutils_ms
StartDirection
p12
(I1
tp13
Rp14
aa(lp15
S'assistance_type'
p16
acutils_ms
AssistanceType
p17
(I1
tp18
Rp19
aa(lp20
S'start_mode'
p21
aS't'
p22
aa(lp23
S'ui_given_a_noise'
p24
aF0.5
aa(lp25
S'um_given_ui_noise'
p26
aF0.7
aa(lp27
S'entropy_threshold'
p28
aF0.5
aatp29
Rp30
aa(lp31
S'data'
p32
accollections
defaultdict
p33
(c__builtin__
list
p34
tp35
Rp36
S'a'
p37
(lp38
S'mode_l'
p39
ag39
ag39
aS'move_p'
p40
aS'mode_r'
p41
ag40
ag41
ag39
ag39
ag41
ag40
ag39
ag41
ag41
ag40
ag41
ag41
ag41
ag41
ag40
ag41
ag41
ag41
ag40
ag40
ag41
ag40
ag39
ag41
ag39
ag41
ag41
ag39
ag41
ag41
ag39
ag41
ag40
ag40
ag39
ag40
ag40
ag39
ag41
ag40
ag41
ag40
ag41
ag41
ag39
ag41
ag41
ag39
ag39
ag40
ag41
ag41
ag41
ag41
ag40
ag41
ag40
ag40
ag40
ag39
ag40
ag40
ag41
ag39
ag39
ag40
asS'assistance_match_with_ground_truth'
p42
(lp43
I00
aI00
aI01
aI01
aI01
aI01
aI00
aI00
aI00
aI00
aI00
aI00
aI00
aI01
aI00
aI00
aI00
aI00
aI01
aI00
aI00
aI00
aI01
aI00
aI01
aI01
aI00
aI00
aI00
aI00
aI00
aI00
aI00
aI00
aI00
aI00
aI01
aI00
aI00
aI01
aI00
aI00
aI00
aI01
aI01
aI01
aI00
aI00
aI00
aI00
aI00
aI00
aI00
aI01
aI01
aI00
aI00
aI00
aI01
aI01
aI00
aI00
aI00
aI00
aI01
aI00
aI01
aI00
aI00
aI01
aI01
asS'total_steps'
p44
I71
sS'sp'
p45
(lp46
(S'p0'
p47
I0
S't'
p48
tp49
a(g47
I0
g48
tp50
a(g47
I0
S'y'
p51
tp52
a(S'p1'
p53
I0
g51
tp54
a(g53
I0
g48
tp55
a(g53
F1.5707963267948966
g48
tp56
a(g53
F1.5707963267948966
g51
tp57
a(g53
F1.5707963267948966
g51
tp58
a(g53
F1.5707963267948966
g48
tp59
a(g53
I0
g48
tp60
a(g53
I0
S'x'
p61
tp62
a(g47
I0
g61
tp63
a(g47
I0
g61
tp64
a(g47
I0
g51
tp65
a(g47
I0
g61
tp66
ag64
a(g47
I0
g61
tp67
ag64
ag65
ag66
ag64
ag67
ag65
a(g47
I0
g51
tp68
ag54
ag55
ag62
a(g53
I0
g51
tp69
a(g53
I0
g61
tp70
ag63
ag64
a(g47
I0
g48
tp71
a(g47
I0
g61
tp72
ag64
ag71
ag72
ag65
ag68
a(g47
I0
g48
tp73
ag52
ag68
ag73
ag72
ag65
ag54
ag55
a(g53
I0
g51
tp74
a(g53
I0
g51
tp75
ag70
ag63
ag64
ag71
ag49
ag52
ag54
ag75
a(g53
I0
g51
tp76
ag76
ag55
ag56
ag60
a(g53
I0
g48
tp77
ag77
ag62
a(g53
I0
g48
tp78
ag77
ag56
ag57
a(g53
F1.5707963267948966
g51
tp79
a(g53
F1.5707963267948966
g61
tp80
a(S'p2'
p81
F1.5707963267948966
g61
tp82
asS's'
p83
(lp84
(g47
I0
g22
tp85
ag49
ag50
ag52
ag54
ag55
ag56
ag57
ag58
ag59
ag60
ag62
ag63
ag64
ag65
ag66
ag64
ag67
ag64
ag65
ag66
ag64
ag67
ag65
ag68
ag54
ag55
ag62
ag69
ag70
ag63
ag64
ag71
ag72
ag64
ag71
ag72
ag65
ag68
ag73
ag52
ag68
ag73
ag72
ag65
ag54
ag55
ag74
ag75
ag70
ag63
ag64
ag71
ag49
ag52
ag54
ag75
ag76
ag76
ag55
ag56
ag60
ag77
ag77
ag62
ag78
ag77
ag56
ag57
ag79
ag80
asS'ui'
p86
(lp87
S'hs'
p88
ag45
ag88
aS'ss'
p89
aS'hp'
p90
ag45
ag45
ag88
ag88
ag90
ag45
ag88
ag88
ag90
ag88
ag90
ag88
ag90
ag45
ag45
ag90
ag45
ag89
ag88
ag45
ag90
ag45
ag45
ag89
ag90
ag90
ag45
ag88
ag89
ag88
ag88
ag90
ag45
ag45
ag89
ag89
ag45
ag90
ag90
ag88
ag90
ag89
ag90
ag88
ag90
ag90
ag89
ag89
ag45
ag45
ag90
ag45
ag90
ag90
ag45
ag90
ag90
ag45
ag45
ag89
ag90
ag89
ag88
ag90
ag88
ag45
asS'um_before'
p91
(lp92
g89
ag45
ag88
ag45
ag90
ag45
ag88
ag45
ag90
ag89
ag90
ag89
ag89
ag90
ag88
ag89
ag45
ag89
ag90
ag88
ag89
ag45
ag90
ag89
ag45
ag90
ag90
ag90
ag88
ag89
ag89
ag88
ag90
ag89
ag88
ag90
ag90
ag89
ag90
ag88
ag89
ag90
ag90
ag90
ag45
ag90
ag88
ag89
ag88
ag89
ag89
ag88
ag89
ag88
ag45
ag89
ag45
ag45
ag90
ag45
ag89
ag89
ag89
ag90
ag88
ag89
ag45
ag88
ag89
ag88
ag45
asS'um_after'
p93
(lp94
g89
ag45
ag88
ag45
ag90
ag45
ag88
ag45
ag90
ag89
ag90
ag89
ag89
ag90
ag88
ag89
ag45
ag89
ag90
ag88
ag89
ag45
ag90
ag89
ag45
ag90
ag90
ag90
ag88
ag89
ag89
ag88
ag90
ag89
ag88
ag90
ag90
ag89
ag90
ag88
ag89
ag90
ag90
ag90
ag45
ag90
ag88
ag89
ag88
ag89
ag89
ag88
ag89
ag88
ag45
ag89
ag45
ag45
ag90
ag45
ag89
ag89
ag89
ag90
ag88
ag89
ag45
ag88
ag89
ag88
ag45
asaa(lp95
S'index'
p96
aI7752
aatp97
Rp98
.