ccollections
OrderedDict
p0
((lp1
(lp2
S'index'
p3
aI12388
aa(lp4
S'combination_dict'
p5
ag0
((lp6
(lp7
S'r_to_g_config'
p8
aS'br'
p9
aa(lp10
S'num_turns'
p11
aI1
aa(lp12
S'start_direction'
p13
acutils_ms
StartDirection
p14
(I1
tp15
Rp16
aa(lp17
S'assistance_type'
p18
acutils_ms
AssistanceType
p19
(I0
tp20
Rp21
aa(lp22
S'start_mode'
p23
aS't'
p24
aa(lp25
S'ui_given_a_noise'
p26
aF0.3
aa(lp27
S'um_given_ui_noise'
p28
aF0.5
aa(lp29
S'entropy_threshold'
p30
aF0.9
aa(lp31
S'is_assistance'
p32
aI01
aatp33
Rp34
aa(lp35
S'trials'
p36
ag0
((lp37
(lp38
I0
accollections
defaultdict
p39
(c__builtin__
list
p40
tp41
Rp42
S'a'
p43
(lp44
S'mode_l'
p45
aS'mode_r'
p46
aS'move_n'
p47
ag47
ag47
ag47
ag47
ag46
ag46
ag46
ag46
aS'move_p'
p48
ag48
ag46
ag48
asS'assistance_match_with_ground_truth'
p49
(lp50
I00
aI01
aI00
aI00
aI00
aI00
aI01
aI00
aI00
aI00
aI01
aI00
aI01
aI01
aI01
asS'total_steps'
p51
I15
sS'sp'
p52
(S'p2'
p53
F1.5707963267948966
S'x'
p54
tp55
sS's'
p56
(lp57
(S'p0'
p58
I0
g24
tp59
a(g58
I0
g54
tp60
a(g58
I0
S'y'
p61
tp62
ag62
ag62
ag62
ag62
a(S'p1'
p63
I0
g61
tp64
ag64
ag64
ag64
a(g63
I0
S't'
p65
tp66
ag66
a(g63
F1.5707963267948966
g65
tp67
a(g63
F1.5707963267948966
g54
tp68
asS'ui'
p69
(lp70
S'hs'
p71
aS'hp'
p72
aS'ss'
p73
ag73
ag73
ag73
ag73
ag72
ag72
ag72
ag72
ag71
ag52
ag72
ag52
asS'um_before'
p74
(lp75
g72
ag72
ag72
ag71
ag71
ag52
ag73
ag71
ag52
ag71
ag72
ag71
ag52
ag72
ag52
asS'um_after'
p76
(lp77
g72
ag72
aNaNaNaNag73
aNaNaNag72
aNag52
ag72
ag52
asaa(lp78
I1
ag39
(g40
tp79
Rp80
g43
(lp81
g45
ag45
ag47
ag47
ag46
ag48
ag46
ag46
ag46
ag48
ag48
asg49
(lp82
I00
aI01
aI00
aI01
aI01
aI01
aI00
aI00
aI01
aI00
aI01
asg51
I11
sg52
g55
sg56
(lp83
(g58
I0
g24
tp84
ag84
a(g58
I0
g61
tp85
ag85
ag64
ag66
ag67
ag67
ag67
ag68
ag68
asg69
(lp86
g72
ag71
ag73
ag73
ag72
ag52
ag72
ag72
ag72
ag71
ag72
asg74
(lp87
g52
ag71
ag71
ag73
ag72
ag52
ag71
ag71
ag72
ag71
ag52
asg76
(lp88
Nag71
aNag73
ag72
ag52
aNaNag72
aNag52
asaa(lp89
I2
ag39
(g40
tp90
Rp91
g43
(lp92
g45
ag45
ag45
ag47
ag47
ag46
ag48
ag48
ag48
ag46
ag46
ag48
asg49
(lp93
I00
aI00
aI01
aI00
aI01
aI01
aI00
aI00
aI01
aI00
aI01
aI01
asg51
I12
sg52
g55
sg56
(lp94
(g58
I0
g24
tp95
ag95
ag95
ag85
ag85
ag64
ag66
ag66
ag66
ag67
ag67
ag68
asg69
(lp96
g72
ag71
ag71
ag73
ag73
ag72
ag52
ag71
ag72
ag71
ag72
ag52
asg74
(lp97
g52
ag52
ag71
ag71
ag73
ag72
ag71
ag71
ag52
ag71
ag72
ag52
asg76
(lp98
NaNag71
aNag73
ag72
aNaNag52
aNag72
ag52
asaa(lp99
I3
ag39
(g40
tp100
Rp101
g43
(lp102
g45
ag47
ag46
ag46
ag46
ag46
ag46
ag46
ag46
ag46
ag48
ag48
ag48
ag46
ag46
ag46
ag46
ag48
ag48
asg49
(lp103
I01
aI01
aI00
aI00
aI00
aI00
aI00
aI00
aI00
aI01
aI00
aI00
aI01
aI00
aI00
aI00
aI01
aI00
aI01
asg51
I19
sg52
g55
sg56
(lp104
(g58
I0
g24
tp105
ag85
ag64
a(g63
I0
g61
tp106
ag106
ag106
ag106
ag106
ag106
ag106
ag66
ag66
a(g63
I0
g65
tp107
ag67
ag67
ag67
ag67
ag68
ag68
asg69
(lp108
g72
ag73
ag73
ag72
ag72
ag71
ag72
ag73
ag72
ag72
ag52
ag73
ag52
ag72
ag72
ag71
ag72
ag73
ag71
asg74
(lp109
g71
ag73
ag73
ag71
ag71
ag73
ag71
ag52
ag71
ag72
ag71
ag73
ag52
ag71
ag71
ag71
ag72
ag71
ag52
asg76
(lp110
g71
ag73
ag73
aNaNag73
aNaNaNag72
aNag73
ag52
aNaNaNag72
aNag52
asaa(lp111
I4
ag39
(g40
tp112
Rp113
g43
(lp114
g45
ag46
ag47
ag46
ag48
ag46
ag48
asg49
(lp115
I00
aI01
aI01
aI01
aI01
aI01
aI01
asg51
I7
sg52
g55
sg56
(lp116
(g58
I0
g24
tp117
ag60
ag62
ag64
ag66
ag67
ag68
asg69
(lp118
g71
ag72
ag73
ag72
ag52
ag72
ag72
asg74
(lp119
g72
ag72
ag73
ag72
ag52
ag72
ag52
asg76
(lp120
g72
ag72
ag73
ag72
ag52
ag72
ag52
asaa(lp121
I5
ag39
(g40
tp122
Rp123
g43
(lp124
g45
ag46
ag47
ag46
ag48
ag48
ag46
ag48
ag48
asg49
(lp125
I00
aI01
aI01
aI01
aI00
aI01
aI01
aI00
aI01
asg51
I9
sg52
g55
sg56
(lp126
(g58
I0
g24
tp127
ag60
ag62
ag64
ag66
ag66
ag67
ag68
ag68
asg69
(lp128
g71
ag72
ag73
ag72
ag52
ag71
ag73
ag72
ag52
asg74
(lp129
g72
ag72
ag73
ag72
ag71
ag52
ag72
ag71
ag52
asg76
(lp130
g72
ag72
ag73
ag72
aNag52
ag72
aNag52
asaa(lp131
I6
ag39
(g40
tp132
Rp133
g43
(lp134
g45
ag46
ag46
ag46
ag46
ag47
ag47
ag46
ag48
ag48
ag48
ag46
ag46
ag48
ag45
ag46
ag46
ag48
asg49
(lp135
I00
aI00
aI00
aI00
aI01
aI00
aI01
aI01
aI00
aI00
aI01
aI00
aI01
aI00
aI00
aI00
aI01
aI01
asg51
I18
sg52
g55
sg56
(lp136
(g58
I0
g24
tp137
ag60
ag60
ag60
ag60
ag62
ag62
ag64
ag66
ag66
ag107
ag67
ag67
ag68
a(g63
F1.5707963267948966
g61
tp138
a(g63
F1.5707963267948966
g65
tp139
ag139
ag68
asg69
(lp140
g71
ag73
ag72
ag72
ag72
ag71
ag73
ag72
ag52
ag73
ag52
ag72
ag72
ag72
ag72
ag72
ag72
ag52
asg74
(lp141
g72
ag71
ag52
ag71
ag72
ag52
ag73
ag72
ag71
ag73
ag52
ag71
ag72
ag72
ag72
ag71
ag72
ag52
asg76
(lp142
g72
aNaNaNag72
aNag73
ag72
aNag73
ag52
aNag72
ag72
ag72
aNag72
ag52
asaa(lp143
I7
ag39
(g40
tp144
Rp145
g43
(lp146
g45
ag47
ag47
ag47
ag47
ag47
ag47
ag46
ag46
ag46
ag46
ag48
ag48
ag46
ag46
ag48
asg49
(lp147
I01
aI00
aI00
aI00
aI00
aI00
aI01
aI00
aI00
aI00
aI01
aI00
aI01
aI00
aI01
aI01
asg51
I16
sg52
g55
sg56
(lp148
(g58
I0
g24
tp149
ag85
ag85
ag85
ag85
ag85
ag85
ag64
ag64
ag64
ag64
ag66
ag66
ag67
ag67
ag68
asg69
(lp150
g71
ag73
ag72
ag73
ag71
ag73
ag73
ag71
ag72
ag71
ag72
ag72
ag52
ag72
ag72
ag52
asg74
(lp151
g71
ag72
ag71
ag71
ag72
ag72
ag73
ag71
ag52
ag71
ag72
ag71
ag52
ag52
ag72
ag52
asg76
(lp152
g71
aNaNaNaNaNag73
aNaNaNag72
aNag52
aNag72
ag52
asaa(lp153
I8
ag39
(g40
tp154
Rp155
g43
(lp156
g45
ag45
ag47
ag47
ag46
ag48
ag46
ag48
ag48
asg49
(lp157
I00
aI01
aI00
aI01
aI01
aI01
aI01
aI00
aI01
asg51
I9
sg52
g55
sg56
(lp158
(g58
I0
g24
tp159
ag159
ag85
ag85
ag64
ag66
ag67
ag68
ag68
asg69
(lp160
g71
ag71
ag71
ag73
ag72
ag52
ag72
ag72
ag52
asg74
(lp161
g73
ag71
ag71
ag73
ag72
ag52
ag72
ag71
ag52
asg76
(lp162
Nag71
aNag73
ag72
ag52
ag72
aNag52
asaa(lp163
I9
ag39
(g40
tp164
Rp165
g43
(lp166
g45
ag45
ag46
ag47
ag46
ag46
ag46
ag46
ag46
ag46
ag48
ag46
ag48
ag48
ag48
ag45
ag45
ag45
ag46
ag48
ag45
ag46
ag48
ag48
ag46
ag47
ag45
ag48
asg49
(lp167
I00
aI00
aI01
aI01
aI00
aI00
aI00
aI00
aI00
aI01
aI01
aI01
aI00
aI00
aI00
aI00
aI00
aI00
aI01
aI00
aI00
aI01
aI00
aI00
aI01
aI01
aI01
aI01
asg51
I28
sg52
g55
sg56
(lp168
(g58
I0
g24
tp169
ag169
ag60
ag62
ag64
ag64
ag64
ag64
ag64
ag64
ag66
ag67
ag68
ag68
ag68
ag138
ag138
ag138
ag139
ag68
ag138
ag139
ag68
ag68
a(g58
F1.5707963267948966
g54
tp170
a(g58
F1.5707963267948966
g61
tp171
a(g63
F1.5707963267948966
g61
tp172
a(g63
F1.5707963267948966
g54
tp173
asg69
(lp174
g52
ag72
ag72
ag73
ag72
ag71
ag72
ag72
ag71
ag72
ag52
ag72
ag73
ag52
ag73
ag71
ag71
ag71
ag72
ag72
ag71
ag72
ag52
ag73
ag72
ag73
ag71
ag52
asg74
(lp175
g52
ag72
ag72
ag73
ag71
ag71
ag52
ag71
ag71
ag72
ag52
ag72
ag71
ag71
ag72
ag52
ag52
ag72
ag72
ag72
ag72
ag72
ag71
ag73
ag72
ag73
ag71
ag52
asg76
(lp176
Nag72
ag72
ag73
aNaNaNaNaNag72
ag52
ag72
aNaNag72
aNaNag72
ag72
ag72
ag72
ag72
aNag73
ag72
ag73
ag71
ag52
asaatp177
Rp178
aatp179
Rp180
.