ccollections
OrderedDict
p0
((lp1
(lp2
S'index'
p3
aI10513
aa(lp4
S'combination_dict'
p5
ag0
((lp6
(lp7
S'r_to_g_config'
p8
aS'bl'
p9
aa(lp10
S'num_turns'
p11
aI3
aa(lp12
S'start_direction'
p13
acutils_ms
StartDirection
p14
(I3
tp15
Rp16
aa(lp17
S'assistance_type'
p18
acutils_ms
AssistanceType
p19
(I0
tp20
Rp21
aa(lp22
S'start_mode'
p23
aS'y'
p24
aa(lp25
S'ui_given_a_noise'
p26
aF0.5
aa(lp27
S'um_given_ui_noise'
p28
aF0.7
aa(lp29
S'entropy_threshold'
p30
aF0.6
aa(lp31
S'is_assistance'
p32
aI00
aatp33
Rp34
aa(lp35
S'trials'
p36
ag0
((lp37
(lp38
I0
accollections
defaultdict
p39
(c__builtin__
list
p40
tp41
Rp42
S'a'
p43
(lp44
S'mode_l'
p45
ag45
aS'mode_r'
p46
ag46
ag46
aS'move_n'
p47
ag46
ag46
ag47
ag46
ag46
ag46
ag45
ag45
ag45
ag45
ag45
ag47
ag46
ag45
ag45
ag45
ag47
ag46
ag46
ag45
ag46
ag47
ag46
ag45
ag46
ag46
ag46
ag46
ag46
ag47
ag46
ag46
ag46
aS'move_p'
p48
ag48
ag46
ag46
ag46
ag47
ag45
ag47
ag46
ag47
ag46
ag47
ag46
ag45
ag45
ag45
ag45
ag47
asS'assistance_match_with_ground_truth'
p49
(lp50
I00
aI00
aI00
aI00
aI01
aI00
aI00
aI01
aI01
aI00
aI00
aI00
aI00
aI00
aI00
aI00
aI01
aI00
aI00
aI00
aI00
aI01
aI01
aI00
aI00
aI00
aI01
aI00
aI00
aI00
aI00
aI00
aI00
aI00
aI01
aI01
aI00
aI00
aI01
aI00
aI01
aI00
aI00
aI01
aI00
aI01
aI01
aI01
aI00
aI01
aI00
aI00
aI00
aI00
aI00
aI01
aI01
asS'total_steps'
p51
I57
sS'sp'
p52
(S'p4'
p53
F1.5707963267948966
S'y'
p54
tp55
sS's'
p56
(lp57
(S'p0'
p58
I0
g24
tp59
a(g58
I0
g54
tp60
a(g58
I0
S't'
p61
tp62
a(g58
I0
g61
tp63
a(g58
I0
g61
tp64
a(g58
I0
S'x'
p65
tp66
a(g58
I0
g61
tp67
ag63
ag66
a(S'p1'
p68
I0
g65
tp69
a(g68
I0
g65
tp70
a(g68
I0
g65
tp71
a(g68
I0
g61
tp72
a(g68
I0
g61
tp73
a(g68
I0
g61
tp74
ag74
ag74
a(g68
I0
g54
tp75
a(g68
I0
g65
tp76
ag72
ag74
ag73
ag75
a(S'p2'
p77
I0
g54
tp78
a(g77
I0
g54
tp79
a(g77
I0
g65
tp80
a(S'p3'
p81
I0
g65
tp82
a(g81
I0
g54
tp83
a(g77
I0
g54
tp84
ag80
a(g68
I0
g65
tp85
ag70
ag70
ag70
ag70
a(g68
I0
g54
tp86
ag78
ag79
a(g77
I0
g54
tp87
a(g77
I0
g61
tp88
a(g77
I0
g61
tp89
a(g77
F1.5707963267948966
g61
tp90
a(g77
F1.5707963267948966
g61
tp91
ag91
a(g77
F1.5707963267948966
g65
tp92
a(g77
F1.5707963267948966
g54
tp93
a(g77
F1.5707963267948966
g65
tp94
a(g81
F1.5707963267948966
g65
tp95
a(g81
F1.5707963267948966
g54
tp96
a(g81
F1.5707963267948966
g65
tp97
ag96
ag97
a(g81
F1.5707963267948966
g61
tp98
a(g81
F1.5707963267948966
g61
tp99
ag99
a(g81
F1.5707963267948966
g61
tp100
a(g81
F1.5707963267948966
g54
tp101
asS'ui'
p102
(lp103
g52
aS'hp'
p104
ag104
ag104
ag104
aS'ss'
p105
ag52
ag104
ag105
ag52
ag104
ag104
ag52
ag105
aS'hs'
p106
ag106
ag52
ag106
ag104
ag52
ag52
ag106
ag105
ag106
ag104
ag106
ag104
ag105
ag104
ag52
ag104
ag104
ag104
ag52
ag104
ag106
ag106
ag104
ag104
ag106
ag52
ag104
ag104
ag104
ag104
ag106
ag106
ag104
ag106
ag104
ag106
ag52
ag106
ag106
ag106
ag106
ag105
asS'um_before'
p107
(lp108
g52
ag104
ag52
ag105
ag104
ag106
ag52
ag104
ag105
ag52
ag105
ag106
ag52
ag105
ag105
ag105
ag106
ag106
ag106
ag105
ag52
ag106
ag105
ag105
ag106
ag105
ag104
ag52
ag106
ag52
ag52
ag52
ag52
ag52
ag104
ag105
ag105
ag52
ag104
ag105
ag52
ag52
ag52
ag104
ag104
ag106
ag105
ag104
ag106
ag104
ag106
ag106
ag105
ag105
ag52
ag106
ag105
asS'um_after'
p109
(lp110
g52
ag104
ag52
ag105
ag104
ag106
ag52
ag104
ag105
ag52
ag105
ag106
ag52
ag105
ag105
ag105
ag106
ag106
ag106
ag105
ag52
ag106
ag105
ag105
ag106
ag105
ag104
ag52
ag106
ag52
ag52
ag52
ag52
ag52
ag104
ag105
ag105
ag52
ag104
ag105
ag52
ag52
ag52
ag104
ag104
ag106
ag105
ag104
ag106
ag104
ag106
ag106
ag105
ag105
ag52
ag106
ag105
asaa(lp111
I1
ag39
(g40
tp112
Rp113
g43
(lp114
g45
ag46
ag46
ag46
ag46
ag47
ag45
ag46
ag47
ag47
ag46
ag47
ag46
ag45
ag48
ag48
ag46
ag46
ag46
ag47
ag46
ag47
ag45
ag47
ag46
ag47
ag45
ag47
ag46
ag46
ag47
ag45
ag45
ag45
ag46
ag47
ag47
ag46
ag45
ag46
ag46
ag46
ag47
ag45
ag45
ag45
ag47
ag46
ag47
ag45
ag45
ag47
ag46
ag45
ag47
ag45
ag45
ag47
ag46
ag46
ag46
ag46
ag46
ag46
ag47
ag45
ag46
ag46
ag47
ag46
ag45
ag47
ag45
ag47
ag45
ag46
ag47
ag46
ag47
asg49
(lp115
I00
aI00
aI00
aI00
aI01
aI00
aI00
aI01
aI00
aI01
aI01
aI01
aI00
aI01
aI00
aI01
aI00
aI00
aI01
aI00
aI01
aI00
aI01
aI00
aI01
aI00
aI01
aI00
aI00
aI01
aI00
aI00
aI00
aI00
aI01
aI00
aI01
aI00
aI00
aI00
aI00
aI01
aI00
aI00
aI00
aI01
aI00
aI01
aI01
aI00
aI01
aI01
aI00
aI01
aI00
aI00
aI01
aI00
aI00
aI00
aI00
aI00
aI00
aI01
aI00
aI00
aI00
aI01
aI00
aI00
aI01
aI01
aI01
aI00
aI00
aI01
aI01
aI01
aI01
asg51
I79
sg52
g55
sg56
(lp116
(g58
I0
g24
tp117
ag62
ag64
ag64
ag63
ag66
a(g58
I0
g54
tp118
ag62
ag66
a(g58
I0
g65
tp119
ag69
ag86
ag78
ag80
a(g77
I0
g61
tp120
ag89
ag90
ag91
ag91
ag92
a(g77
F1.5707963267948966
g61
tp121
ag92
ag93
ag94
a(g68
F1.5707963267948966
g65
tp122
a(g68
F1.5707963267948966
g54
tp123
a(g68
F1.5707963267948966
g61
tp124
a(g68
F1.5707963267948966
g54
tp125
a(g68
F1.5707963267948966
g65
tp126
a(g68
F1.5707963267948966
g65
tp127
ag123
a(g58
F1.5707963267948966
g54
tp128
a(g58
F1.5707963267948966
g54
tp129
ag129
a(g58
F1.5707963267948966
g61
tp130
a(g58
F1.5707963267948966
g65
tp131
a(g58
F1.5707963267948966
g65
tp132
a(g68
F1.5707963267948966
g65
tp133
a(g68
F1.5707963267948966
g61
tp134
a(g68
F1.5707963267948966
g65
tp135
ag127
ag127
ag123
ag124
a(g68
F1.5707963267948966
g61
tp136
ag136
ag125
ag126
ag123
a(g77
F1.5707963267948966
g54
tp137
a(g77
F1.5707963267948966
g54
tp138
ag94
ag95
ag98
ag101
a(g77
F1.5707963267948966
g54
tp139
ag138
ag94
ag122
ag127
a(g68
F1.5707963267948966
g65
tp140
ag127
ag127
ag127
ag123
ag124
ag135
ag127
ag123
ag126
ag134
ag125
ag137
ag94
ag93
a(g77
F1.5707963267948966
g61
tp141
ag92
ag95
ag96
asg102
(lp142
g105
ag104
ag104
ag52
ag104
ag104
ag104
ag52
ag104
ag105
ag104
ag105
ag104
ag106
ag105
ag52
ag52
ag52
ag104
ag105
ag104
ag104
ag106
ag52
ag104
ag105
ag106
ag106
ag104
ag104
ag105
ag52
ag105
ag105
ag104
ag104
ag52
ag106
ag52
ag104
ag104
ag104
ag105
ag105
ag52
ag52
ag105
ag104
ag106
ag105
ag106
ag105
ag104
ag106
ag52
ag106
ag106
ag52
ag104
ag104
ag52
ag104
ag104
ag104
ag105
ag106
ag104
ag104
ag105
ag104
ag106
ag105
ag106
ag105
ag106
ag104
ag106
ag106
ag52
asg107
(lp143
g104
ag105
ag105
ag52
ag104
ag104
ag104
ag104
ag52
ag105
ag104
ag105
ag106
ag106
ag105
ag52
ag52
ag52
ag104
ag106
ag104
ag104
ag106
ag52
ag104
ag104
ag106
ag106
ag52
ag104
ag52
ag52
ag52
ag104
ag104
ag52
ag105
ag106
ag104
ag52
ag52
ag104
ag104
ag52
ag52
ag106
ag106
ag104
ag105
ag105
ag106
ag105
ag106
ag106
ag52
ag105
ag106
ag52
ag52
ag105
ag52
ag52
ag52
ag104
ag104
ag104
ag52
ag104
ag106
ag106
ag106
ag105
ag106
ag104
ag104
ag104
ag105
ag104
ag105
asg109
(lp144
g104
ag105
ag105
ag52
ag104
ag104
ag104
ag104
ag52
ag105
ag104
ag105
ag106
ag106
ag105
ag52
ag52
ag52
ag104
ag106
ag104
ag104
ag106
ag52
ag104
ag104
ag106
ag106
ag52
ag104
ag52
ag52
ag52
ag104
ag104
ag52
ag105
ag106
ag104
ag52
ag52
ag104
ag104
ag52
ag52
ag106
ag106
ag104
ag105
ag105
ag106
ag105
ag106
ag106
ag52
ag105
ag106
ag52
ag52
ag105
ag52
ag52
ag52
ag104
ag104
ag104
ag52
ag104
ag106
ag106
ag106
ag105
ag106
ag104
ag104
ag104
ag105
ag104
ag105
asaa(lp145
I2
ag39
(g40
tp146
Rp147
g43
(lp148
g45
ag45
ag45
ag47
ag46
ag46
ag46
ag47
ag46
ag47
ag45
ag47
ag45
ag45
ag45
ag45
ag47
ag47
ag46
ag47
ag46
ag45
ag48
ag46
ag48
ag46
ag45
ag45
ag47
ag45
ag45
ag45
ag45
ag47
ag46
ag47
ag46
ag47
ag45
ag45
ag45
ag45
ag45
ag47
ag46
ag46
ag46
ag46
ag45
ag45
ag45
ag47
ag46
ag46
ag46
ag47
asg49
(lp149
I00
aI00
aI01
aI01
aI00
aI00
aI01
aI00
aI01
aI00
aI01
aI00
aI00
aI00
aI00
aI01
aI00
aI01
aI01
aI01
aI00
aI01
aI00
aI01
aI01
aI00
aI00
aI01
aI00
aI00
aI00
aI00
aI01
aI00
aI01
aI00
aI01
aI01
aI00
aI00
aI00
aI00
aI01
aI01
aI00
aI00
aI00
aI00
aI00
aI00
aI01
aI00
aI00
aI00
aI01
aI01
asg51
I56
sg52
g55
sg56
(lp150
(g58
I0
g24
tp151
ag60
ag60
a(g58
I0
g65
tp152
ag69
ag70
ag70
ag86
ag76
ag86
a(g58
I0
g54
tp153
ag152
ag118
ag60
ag60
a(g58
I0
g54
tp154
ag152
ag119
ag69
ag86
ag78
ag80
ag120
a(g77
I0
g54
tp155
ag88
ag90
a(g77
F1.5707963267948966
g54
tp156
a(g77
F1.5707963267948966
g54
tp157
ag94
ag93
ag157
ag138
ag157
ag94
ag122
ag123
ag126
ag123
ag137
ag157
ag138
ag157
ag138
ag94
ag95
a(g81
F1.5707963267948966
g65
tp158
ag158
a(g81
F1.5707963267948966
g65
tp159
ag98
ag99
ag99
ag101
ag97
ag158
ag159
ag96
asg102
(lp160
g104
ag106
ag106
ag105
ag104
ag104
ag104
ag106
ag104
ag105
ag106
ag105
ag52
ag52
ag106
ag105
ag52
ag105
ag104
ag106
ag104
ag106
ag106
ag104
ag52
ag106
ag52
ag106
ag104
ag52
ag52
ag52
ag106
ag104
ag104
ag106
ag104
ag105
ag106
ag106
ag106
ag105
ag106
ag105
ag104
ag104
ag52
ag104
ag106
ag106
ag52
ag105
ag104
ag52
ag104
ag105
asg107
(lp161
g52
ag52
ag106
ag105
ag52
ag52
ag104
ag106
ag104
ag52
ag106
ag104
ag52
ag52
ag105
ag106
ag52
ag105
ag104
ag105
ag106
ag106
ag106
ag104
ag52
ag106
ag52
ag106
ag104
ag52
ag105
ag52
ag106
ag52
ag104
ag106
ag104
ag105
ag52
ag105
ag52
ag105
ag106
ag105
ag52
ag52
ag105
ag106
ag105
ag105
ag106
ag106
ag52
ag105
ag104
ag105
asg109
(lp162
g52
ag52
ag106
ag105
ag52
ag52
ag104
ag106
ag104
ag52
ag106
ag104
ag52
ag52
ag105
ag106
ag52
ag105
ag104
ag105
ag106
ag106
ag106
ag104
ag52
ag106
ag52
ag106
ag104
ag52
ag105
ag52
ag106
ag52
ag104
ag106
ag104
ag105
ag52
ag105
ag52
ag105
ag106
ag105
ag52
ag52
ag105
ag106
ag105
ag105
ag106
ag106
ag52
ag105
ag104
ag105
asaa(lp163
I3
ag39
(g40
tp164
Rp165
g43
(lp166
g45
ag45
ag45
ag47
ag46
ag46
ag45
ag45
ag45
ag47
ag46
ag48
ag46
ag45
ag46
ag45
ag47
asg49
(lp167
I00
aI00
aI01
aI01
aI00
aI00
aI00
aI00
aI01
aI01
aI01
aI00
aI00
aI00
aI00
aI01
aI01
asg51
I17
sg52
(g53
I0
g54
tp168
sg56
(lp169
(g58
I0
g24
tp170
ag60
ag154
ag152
ag69
ag70
ag72
ag74
ag74
ag75
ag78
ag88
ag155
ag80
ag82
a(g81
I0
g61
tp171
a(g81
I0
g54
tp172
asg102
(lp173
g52
ag106
ag106
ag52
ag104
ag104
ag106
ag106
ag106
ag105
ag104
ag106
ag52
ag106
ag106
ag106
ag105
asg107
(lp174
g52
ag105
ag106
ag105
ag52
ag106
ag105
ag105
ag106
ag105
ag104
ag106
ag106
ag105
ag106
ag106
ag105
asg109
(lp175
g52
ag105
ag106
ag105
ag52
ag106
ag105
ag105
ag106
ag105
ag104
ag106
ag106
ag105
ag106
ag106
ag105
asaa(lp176
I4
ag39
(g40
tp177
Rp178
g43
(lp179
g45
ag45
ag47
ag46
ag47
ag45
ag47
ag47
ag46
ag47
ag45
ag47
ag45
ag45
ag45
ag45
ag45
ag47
ag47
ag46
ag47
ag45
ag45
ag45
ag47
ag47
ag46
ag46
ag47
ag46
ag46
ag47
ag45
ag46
ag47
ag45
ag47
ag45
ag45
ag45
ag47
ag45
ag47
ag47
ag47
ag47
ag45
ag47
ag46
ag45
ag45
ag47
ag45
ag47
ag46
ag45
ag45
ag45
ag47
ag46
ag46
ag46
ag46
ag47
ag45
ag46
ag47
ag46
ag45
ag45
ag45
ag46
ag45
ag45
ag46
ag45
ag47
ag46
ag45
ag47
ag46
ag48
ag46
ag45
ag46
ag46
ag46
ag46
ag46
ag47
ag46
ag45
ag46
ag47
asg49
(lp180
I00
aI01
aI00
aI01
aI00
aI01
aI00
aI01
aI01
aI00
aI01
aI00
aI00
aI00
aI00
aI00
aI01
aI00
aI01
aI01
aI00
aI00
aI00
aI01
aI00
aI00
aI00
aI01
aI01
aI00
aI01
aI00
aI00
aI01
aI00
aI01
aI00
aI00
aI00
aI01
aI00
aI01
aI00
aI00
aI00
aI00
aI01
aI00
aI00
aI00
aI01
aI00
aI01
aI00
aI00
aI00
aI00
aI01
aI00
aI00
aI00
aI00
aI01
aI00
aI00
aI01
aI00
aI00
aI00
aI00
aI00
aI00
aI00
aI00
aI00
aI01
aI01
aI00
aI01
aI01
aI01
aI00
aI00
aI00
aI00
aI00
aI00
aI00
aI01
aI00
aI00
aI00
aI01
aI01
asg51
I94
sg52
g168
sg56
(lp181
(g58
I0
g24
tp182
ag154
ag152
ag67
ag66
ag118
ag152
ag119
ag69
ag86
ag153
ag152
ag118
ag60
ag154
ag154
ag60
ag152
ag119
ag69
ag86
ag153
ag154
ag154
ag152
ag119
ag67
ag63
ag66
ag69
ag70
ag86
a(g68
I0
g61
tp183
a(g68
I0
g65
tp184
ag86
ag183
ag75
ag183
ag74
ag74
ag75
ag153
ag152
ag119
ag119
ag119
ag118
ag152
ag67
a(g58
I0
g54
tp185
ag60
ag152
ag118
ag152
ag67
ag185
ag60
ag60
ag152
ag67
ag63
ag64
ag64
ag66
ag118
ag62
ag66
ag67
ag185
ag60
ag154
ag62
ag185
ag154
ag62
ag185
ag152
ag69
ag72
ag75
ag78
ag88
ag155
ag80
ag82
a(g81
I0
g65
tp186
a(g81
I0
g65
tp187
ag186
ag186
ag83
a(g81
I0
g65
tp188
ag171
a(g81
I0
g65
tp189
ag83
asg102
(lp190
g105
ag106
ag106
ag106
ag105
ag106
ag104
ag52
ag104
ag52
ag106
ag52
ag52
ag106
ag106
ag52
ag106
ag52
ag105
ag104
ag105
ag106
ag106
ag52
ag52
ag106
ag104
ag104
ag52
ag104
ag104
ag104
ag106
ag104
ag104
ag106
ag105
ag106
ag52
ag106
ag52
ag106
ag52
ag52
ag104
ag52
ag106
ag106
ag106
ag52
ag106
ag104
ag106
ag106
ag104
ag52
ag52
ag106
ag106
ag104
ag104
ag106
ag104
ag105
ag52
ag104
ag104
ag106
ag52
ag106
ag105
ag104
ag106
ag106
ag52
ag106
ag105
ag104
ag106
ag105
ag104
ag106
ag104
ag106
ag104
ag106
ag104
ag104
ag104
ag106
ag106
ag106
ag104
ag105
asg107
(lp191
g105
ag106
ag106
ag104
ag104
ag106
ag52
ag105
ag104
ag52
ag106
ag104
ag52
ag105
ag105
ag52
ag106
ag52
ag105
ag104
ag52
ag105
ag105
ag106
ag52
ag106
ag52
ag104
ag105
ag52
ag104
ag104
ag104
ag104
ag104
ag106
ag104
ag105
ag105
ag106
ag52
ag106
ag52
ag52
ag52
ag104
ag106
ag106
ag106
ag52
ag106
ag104
ag106
ag106
ag106
ag52
ag52
ag106
ag106
ag52
ag105
ag105
ag104
ag104
ag104
ag104
ag106
ag106
ag52
ag105
ag104
ag106
ag105
ag104
ag106
ag106
ag105
ag106
ag106
ag105
ag104
ag106
ag106
ag105
ag52
ag105
ag52
ag52
ag104
ag106
ag106
ag104
ag104
ag105
asg109
(lp192
g105
ag106
ag106
ag104
ag104
ag106
ag52
ag105
ag104
ag52
ag106
ag104
ag52
ag105
ag105
ag52
ag106
ag52
ag105
ag104
ag52
ag105
ag105
ag106
ag52
ag106
ag52
ag104
ag105
ag52
ag104
ag104
ag104
ag104
ag104
ag106
ag104
ag105
ag105
ag106
ag52
ag106
ag52
ag52
ag52
ag104
ag106
ag106
ag106
ag52
ag106
ag104
ag106
ag106
ag106
ag52
ag52
ag106
ag106
ag52
ag105
ag105
ag104
ag104
ag104
ag104
ag106
ag106
ag52
ag105
ag104
ag106
ag105
ag104
ag106
ag106
ag105
ag106
ag106
ag105
ag104
ag106
ag106
ag105
ag52
ag105
ag52
ag52
ag104
ag106
ag106
ag104
ag104
ag105
asaa(lp193
I5
ag39
(g40
tp194
Rp195
g43
(lp196
g45
ag45
ag47
ag47
ag47
ag46
ag47
ag46
ag47
ag45
ag45
ag45
ag45
ag47
ag47
ag46
ag46
ag45
ag46
ag47
ag46
ag46
ag45
ag46
ag48
ag48
ag46
ag46
ag48
ag45
ag46
ag48
ag46
ag47
ag46
ag47
ag46
ag46
ag45
ag47
asg49
(lp197
I00
aI01
aI00
aI00
aI01
aI01
aI00
aI01
aI00
aI00
aI00
aI00
aI01
aI00
aI01
aI00
aI00
aI00
aI01
aI01
aI00
aI00
aI00
aI01
aI00
aI00
aI00
aI01
aI00
aI00
aI01
aI01
aI01
aI01
aI01
aI00
aI00
aI00
aI01
aI01
asg51
I40
sg52
g55
sg56
(lp198
(g58
I0
g24
tp199
ag154
ag152
ag119
ag119
ag69
ag86
ag76
ag86
ag153
ag60
ag60
ag154
ag152
ag119
ag69
ag70
ag72
ag184
ag86
ag78
ag79
ag80
a(g77
I0
g54
tp200
ag88
ag89
ag155
ag87
ag88
a(g77
I0
g65
tp201
ag200
ag88
ag90
ag92
ag95
ag96
ag97
ag159
ag98
ag101
asg102
(lp202
g106
ag106
ag105
ag105
ag105
ag104
ag105
ag104
ag52
ag52
ag105
ag106
ag106
ag104
ag105
ag52
ag104
ag105
ag104
ag106
ag104
ag104
ag106
ag104
ag105
ag106
ag104
ag104
ag106
ag104
ag104
ag52
ag104
ag105
ag104
ag105
ag52
ag104
ag106
ag105
asg107
(lp203
g105
ag106
ag52
ag52
ag105
ag104
ag106
ag104
ag52
ag52
ag52
ag105
ag106
ag52
ag105
ag52
ag106
ag104
ag104
ag105
ag105
ag106
ag104
ag104
ag105
ag106
ag52
ag104
ag104
ag104
ag104
ag52
ag104
ag105
ag104
ag106
ag105
ag106
ag106
ag105
asg109
(lp204
g105
ag106
ag52
ag52
ag105
ag104
ag106
ag104
ag52
ag52
ag52
ag105
ag106
ag52
ag105
ag52
ag106
ag104
ag104
ag105
ag105
ag106
ag104
ag104
ag105
ag106
ag52
ag104
ag104
ag104
ag104
ag52
ag104
ag105
ag104
ag106
ag105
ag106
ag106
ag105
asaa(lp205
I6
ag39
(g40
tp206
Rp207
g43
(lp208
g45
ag46
ag47
ag47
ag45
ag47
ag46
ag46
ag45
ag47
ag45
ag46
ag46
ag46
ag47
ag45
ag46
ag47
ag46
ag46
ag46
ag46
ag46
ag45
ag45
ag45
ag47
ag45
ag45
ag47
ag47
ag45
ag46
ag47
ag45
ag45
ag45
ag45
ag47
ag47
ag45
ag47
ag45
ag45
ag47
ag46
ag47
ag45
ag47
ag47
ag46
ag47
ag46
ag45
ag45
ag46
ag47
ag45
ag47
ag46
ag47
ag45
ag46
ag47
ag47
ag45
ag47
ag47
ag45
ag46
ag45
ag47
ag46
ag47
ag45
ag45
ag45
ag46
ag47
ag45
ag46
ag45
ag46
ag46
ag45
ag45
ag45
ag46
ag46
ag46
ag45
ag45
ag45
ag45
ag45
ag47
ag46
ag45
ag46
ag47
ag46
ag45
ag46
ag46
ag47
ag45
ag47
ag45
ag45
ag45
ag47
ag46
ag46
ag47
ag47
ag45
ag46
ag46
ag47
ag46
ag46
ag46
ag47
ag45
ag45
ag47
ag46
ag45
ag46
ag46
ag46
ag47
asg49
(lp209
I00
aI01
aI00
aI00
aI01
aI00
aI00
aI00
aI01
aI00
aI00
aI00
aI00
aI01
aI00
aI00
aI01
aI01
aI00
aI00
aI00
aI00
aI00
aI00
aI00
aI01
aI00
aI00
aI01
aI00
aI00
aI00
aI01
aI00
aI00
aI00
aI00
aI01
aI00
aI00
aI01
aI00
aI00
aI01
aI00
aI01
aI00
aI01
aI00
aI01
aI01
aI00
aI00
aI00
aI00
aI01
aI00
aI01
aI00
aI01
aI00
aI00
aI01
aI00
aI00
aI01
aI00
aI00
aI00
aI00
aI01
aI01
aI01
aI00
aI00
aI00
aI00
aI01
aI00
aI00
aI00
aI00
aI00
aI00
aI00
aI00
aI00
aI00
aI00
aI00
aI00
aI00
aI00
aI00
aI01
aI01
aI00
aI00
aI01
aI01
aI00
aI00
aI00
aI01
aI00
aI01
aI00
aI00
aI00
aI01
aI00
aI00
aI01
aI00
aI00
aI00
aI00
aI01
aI01
aI00
aI00
aI01
aI00
aI00
aI01
aI01
aI00
aI00
aI00
aI00
aI01
aI01
asg51
I132
sg52
g168
sg56
(lp210
(g58
I0
g24
tp211
ag62
ag66
ag119
ag118
ag152
ag67
ag63
ag185
ag152
ag118
ag62
ag63
ag63
ag66
ag118
ag62
ag66
ag69
ag71
ag70
ag70
ag70
ag72
ag73
ag73
ag75
ag153
ag154
ag152
ag119
ag118
ag62
ag66
ag118
ag154
ag154
ag154
ag152
ag119
ag118
ag152
ag118
ag154
ag152
ag67
ag66
ag118
ag152
ag119
ag69
ag86
ag76
ag72
ag74
ag184
ag86
ag183
ag75
ag76
ag86
ag153
ag62
ag66
ag119
ag118
ag152
ag119
ag118
ag62
ag185
ag152
ag69
ag86
ag183
ag74
ag74
ag184
ag86
ag183
ag184
ag72
ag184
ag70
ag72
ag74
ag74
ag184
ag70
ag70
ag72
ag74
ag74
ag74
ag74
ag75
ag78
ag80
ag85
ag86
ag78
ag80
ag85
ag71
ag86
ag153
ag152
ag118
ag60
ag60
ag152
ag67
ag64
ag66
ag119
ag118
ag62
ag63
ag66
ag69
ag70
ag70
ag86
ag183
ag74
ag75
ag78
ag80
ag82
ag187
ag187
ag83
asg102
(lp212
g106
ag106
ag52
ag106
ag106
ag52
ag52
ag104
ag106
ag106
ag106
ag104
ag104
ag104
ag104
ag106
ag104
ag104
ag104
ag104
ag52
ag104
ag104
ag52
ag106
ag106
ag104
ag106
ag106
ag104
ag105
ag106
ag104
ag105
ag105
ag106
ag106
ag106
ag52
ag104
ag106
ag104
ag106
ag106
ag106
ag104
ag105
ag106
ag52
ag105
ag104
ag52
ag106
ag106
ag106
ag104
ag105
ag106
ag106
ag104
ag105
ag52
ag104
ag52
ag52
ag106
ag105
ag105
ag106
ag104
ag106
ag105
ag104
ag104
ag106
ag106
ag106
ag104
ag105
ag104
ag104
ag106
ag104
ag104
ag105
ag105
ag106
ag52
ag104
ag104
ag105
ag106
ag106
ag106
ag52
ag105
ag106
ag52
ag104
ag105
ag104
ag52
ag104
ag104
ag106
ag106
ag105
ag52
ag52
ag106
ag106
ag104
ag104
ag105
ag104
ag106
ag104
ag104
ag52
ag104
ag104
ag104
ag105
ag106
ag106
ag105
ag104
ag105
ag104
ag52
ag104
ag105
asg107
(lp213
g104
ag104
ag52
ag104
ag106
ag106
ag52
ag106
ag106
ag104
ag104
ag52
ag52
ag104
ag104
ag104
ag104
ag105
ag105
ag52
ag52
ag52
ag106
ag52
ag52
ag106
ag52
ag105
ag106
ag52
ag104
ag104
ag104
ag104
ag105
ag105
ag105
ag106
ag52
ag104
ag106
ag104
ag105
ag106
ag106
ag104
ag104
ag106
ag52
ag105
ag104
ag106
ag106
ag105
ag104
ag104
ag104
ag106
ag106
ag104
ag52
ag104
ag104
ag52
ag104
ag106
ag52
ag104
ag104
ag106
ag106
ag105
ag104
ag104
ag105
ag105
ag104
ag104
ag104
ag104
ag106
ag104
ag52
ag106
ag105
ag105
ag104
ag52
ag52
ag106
ag105
ag105
ag105
ag105
ag106
ag105
ag106
ag52
ag104
ag105
ag106
ag52
ag105
ag104
ag52
ag106
ag104
ag52
ag52
ag106
ag106
ag105
ag104
ag52
ag104
ag104
ag52
ag104
ag105
ag52
ag52
ag104
ag104
ag105
ag106
ag105
ag106
ag105
ag105
ag105
ag104
ag105
asg109
(lp214
g104
ag104
ag52
ag104
ag106
ag106
ag52
ag106
ag106
ag104
ag104
ag52
ag52
ag104
ag104
ag104
ag104
ag105
ag105
ag52
ag52
ag52
ag106
ag52
ag52
ag106
ag52
ag105
ag106
ag52
ag104
ag104
ag104
ag104
ag105
ag105
ag105
ag106
ag52
ag104
ag106
ag104
ag105
ag106
ag106
ag104
ag104
ag106
ag52
ag105
ag104
ag106
ag106
ag105
ag104
ag104
ag104
ag106
ag106
ag104
ag52
ag104
ag104
ag52
ag104
ag106
ag52
ag104
ag104
ag106
ag106
ag105
ag104
ag104
ag105
ag105
ag104
ag104
ag104
ag104
ag106
ag104
ag52
ag106
ag105
ag105
ag104
ag52
ag52
ag106
ag105
ag105
ag105
ag105
ag106
ag105
ag106
ag52
ag104
ag105
ag106
ag52
ag105
ag104
ag52
ag106
ag104
ag52
ag52
ag106
ag106
ag105
ag104
ag52
ag104
ag104
ag52
ag104
ag105
ag52
ag52
ag104
ag104
ag105
ag106
ag105
ag106
ag105
ag105
ag105
ag104
ag105
asaa(lp215
I7
ag39
(g40
tp216
Rp217
g43
(lp218
g45
ag47
ag46
ag46
ag46
ag46
ag47
ag45
ag47
ag46
ag46
ag47
ag47
ag46
ag46
ag46
ag47
ag45
ag46
ag47
ag46
ag45
ag47
ag45
ag47
ag47
ag47
ag46
ag45
ag45
ag45
ag47
ag45
ag47
ag46
ag46
ag47
ag46
ag46
ag46
ag45
ag45
ag47
ag45
ag45
ag46
ag45
ag47
ag46
ag48
ag46
ag46
ag47
ag46
ag47
asg49
(lp219
I01
aI01
aI00
aI00
aI00
aI01
aI00
aI01
aI00
aI00
aI01
aI00
aI00
aI00
aI00
aI01
aI00
aI00
aI01
aI00
aI00
aI01
aI00
aI01
aI00
aI00
aI01
aI00
aI00
aI00
aI01
aI00
aI01
aI00
aI00
aI01
aI01
aI00
aI00
aI00
aI00
aI01
aI00
aI00
aI00
aI00
aI01
aI01
aI01
aI01
aI00
aI01
aI01
aI01
aI01
asg51
I55
sg52
g55
sg56
(lp220
(g58
I0
g24
tp221
ag152
ag69
ag71
ag70
ag70
ag86
ag153
ag152
ag67
ag63
ag66
ag119
ag67
ag63
ag64
ag66
ag118
ag62
ag66
ag67
ag185
ag152
ag118
ag152
ag119
ag119
ag69
ag72
ag73
ag74
ag75
ag153
ag152
ag67
ag64
ag66
ag69
ag70
ag70
ag72
ag74
ag75
ag183
ag73
ag184
ag72
ag75
ag78
ag88
ag90
ag91
ag92
ag95
ag96
asg102
(lp222
g52
ag105
ag104
ag104
ag104
ag104
ag52
ag106
ag105
ag104
ag104
ag104
ag52
ag104
ag105
ag104
ag106
ag105
ag104
ag52
ag106
ag106
ag105
ag106
ag52
ag105
ag105
ag104
ag52
ag106
ag52
ag104
ag106
ag104
ag106
ag104
ag106
ag104
ag52
ag104
ag106
ag106
ag105
ag52
ag106
ag106
ag106
ag105
ag104
ag52
ag104
ag104
ag105
ag104
ag106
asg107
(lp223
g106
ag105
ag105
ag52
ag52
ag104
ag52
ag106
ag106
ag52
ag104
ag52
ag106
ag52
ag105
ag104
ag104
ag104
ag104
ag106
ag106
ag106
ag104
ag106
ag52
ag52
ag105
ag106
ag52
ag105
ag106
ag52
ag106
ag106
ag105
ag104
ag105
ag52
ag52
ag106
ag105
ag106
ag104
ag52
ag104
ag106
ag106
ag105
ag104
ag52
ag52
ag104
ag105
ag104
ag105
asg109
(lp224
g106
ag105
ag105
ag52
ag52
ag104
ag52
ag106
ag106
ag52
ag104
ag52
ag106
ag52
ag105
ag104
ag104
ag104
ag104
ag106
ag106
ag106
ag104
ag106
ag52
ag52
ag105
ag106
ag52
ag105
ag106
ag52
ag106
ag106
ag105
ag104
ag105
ag52
ag52
ag106
ag105
ag106
ag104
ag52
ag104
ag106
ag106
ag105
ag104
ag52
ag52
ag104
ag105
ag104
ag105
asaa(lp225
I8
ag39
(g40
tp226
Rp227
g43
(lp228
g45
ag46
ag45
ag45
ag45
ag45
ag45
ag47
ag46
ag47
ag47
ag47
ag47
ag46
ag47
ag45
ag47
ag46
ag46
ag46
ag47
ag45
ag45
ag45
ag45
ag45
ag45
ag47
ag45
ag45
ag47
ag46
ag46
ag46
ag47
ag46
ag47
ag47
ag47
ag45
ag45
ag46
ag45
ag45
ag45
ag45
ag47
ag47
ag45
ag46
ag45
ag47
ag46
ag47
ag46
ag46
ag45
ag46
ag46
ag45
ag45
ag45
ag47
ag46
ag48
ag48
ag46
ag45
ag46
ag47
ag46
ag48
ag46
ag45
ag48
ag45
ag48
ag46
ag46
ag48
ag46
ag45
ag47
ag45
ag47
ag45
ag46
ag47
ag46
ag46
ag47
ag45
ag46
ag47
ag46
ag46
ag45
ag47
ag45
ag47
ag45
ag47
ag46
ag46
ag46
ag45
ag45
ag47
ag46
ag46
ag46
ag46
ag46
ag45
ag45
ag47
ag45
ag47
ag45
ag47
ag45
ag45
ag47
ag46
ag46
ag47
ag47
ag45
ag47
ag46
ag47
ag45
ag47
ag46
ag46
ag46
ag47
ag45
ag47
ag47
ag47
ag47
ag46
ag45
ag45
ag47
ag45
ag45
ag45
ag45
ag45
ag46
ag45
ag45
ag45
ag45
ag45
ag47
ag46
ag47
ag45
ag46
ag46
ag46
ag46
ag46
ag45
ag47
ag47
ag46
ag46
ag45
ag45
ag47
ag46
ag45
ag47
ag45
ag47
ag46
ag47
ag45
ag47
ag46
ag45
ag46
ag47
ag46
ag46
ag46
ag47
ag45
ag45
ag47
ag45
ag45
ag47
ag45
ag47
ag46
ag47
asg49
(lp229
I00
aI00
aI00
aI00
aI00
aI00
aI01
aI00
aI01
aI00
aI00
aI00
aI01
aI01
aI00
aI01
aI01
aI00
aI00
aI01
aI00
aI00
aI00
aI00
aI00
aI00
aI01
aI00
aI00
aI01
aI00
aI00
aI00
aI01
aI00
aI01
aI00
aI00
aI00
aI00
aI00
aI00
aI00
aI00
aI00
aI01
aI00
aI00
aI00
aI00
aI01
aI01
aI01
aI01
aI00
aI00
aI00
aI00
aI00
aI00
aI00
aI01
aI00
aI01
aI00
aI00
aI00
aI00
aI01
aI00
aI01
aI00
aI00
aI01
aI00
aI01
aI00
aI00
aI01
aI01
aI00
aI01
aI00
aI01
aI00
aI00
aI01
aI00
aI00
aI01
aI00
aI00
aI01
aI01
aI00
aI00
aI01
aI01
aI01
aI00
aI01
aI00
aI00
aI00
aI00
aI00
aI01
aI00
aI00
aI00
aI00
aI00
aI00
aI00
aI01
aI00
aI01
aI00
aI01
aI00
aI00
aI01
aI00
aI00
aI01
aI00
aI00
aI01
aI01
aI01
aI01
aI01
aI00
aI00
aI00
aI01
aI00
aI01
aI00
aI00
aI00
aI00
aI00
aI00
aI01
aI00
aI00
aI00
aI00
aI00
aI00
aI00
aI00
aI00
aI00
aI00
aI01
aI01
aI01
aI00
aI00
aI00
aI00
aI00
aI00
aI00
aI01
aI00
aI01
aI00
aI00
aI00
aI01
aI00
aI00
aI01
aI01
aI01
aI00
aI01
aI00
aI01
aI00
aI00
aI00
aI01
aI01
aI00
aI00
aI01
aI00
aI00
aI01
aI00
aI00
aI01
aI01
aI01
aI01
aI01
aI00
asg51
I201
sg52
g139
sg56
(lp230
(g58
I0
g24
tp231
ag62
ag185
ag60
ag154
ag154
ag154
ag152
ag67
ag66
ag119
ag119
ag119
ag69
ag86
ag153
ag152
ag69
ag70
ag71
ag86
ag153
ag154
ag154
ag154
ag60
ag154
ag152
ag118
ag154
ag152
ag67
ag63
ag64
ag66
ag67
ag66
ag119
ag119
ag118
ag154
ag62
ag185
ag60
ag154
ag60
ag152
ag119
ag118
ag62
ag185
ag152
ag69
ag86
ag78
ag87
ag80
ag82
ag186
ag171
a(g81
I0
g61
tp232
ag232
ag172
ag84
ag88
ag89
ag155
ag80
ag82
ag83
ag84
ag88
ag155
ag80
ag120
ag201
ag120
ag155
ag87
ag88
ag90
ag156
ag94
ag93
ag94
ag93
ag141
ag92
ag122
ag127
ag123
ag128
ag130
ag131
ag133
ag127
ag134
ag125
ag137
ag94
ag93
ag94
ag122
ag127
ag140
ag134
ag136
ag125
ag126
ag140
ag127
ag127
ag127
ag134
ag136
ag125
ag124
ag125
ag128
a(g58
F1.5707963267948966
g65
tp233
a(g58
F1.5707963267948966
g54
tp234
ag129
ag233
a(g58
F1.5707963267948966
g61
tp235
a(g58
F1.5707963267948966
g61
tp236
ag131
ag132
ag234
ag233
ag133
ag123
ag137
ag94
ag122
ag127
ag127
ag123
ag128
ag233
ag132
ag132
ag132
ag235
a(g58
F1.5707963267948966
g54
tp237
a(g58
F1.5707963267948966
g54
tp238
ag233
ag234
ag238
ag238
ag129
ag238
ag130
ag237
ag129
ag129
ag238
ag238
ag233
ag133
ag123
ag128
ag130
a(g58
F1.5707963267948966
g61
tp239
ag239
ag239
ag236
ag237
ag233
ag132
ag133
ag127
ag134
ag136
ag125
ag126
ag134
ag125
ag137
ag94
ag122
ag123
ag128
ag233
ag235
ag237
ag130
ag131
ag133
ag127
ag127
ag123
ag124
a(g68
F1.5707963267948966
g61
tp240
ag125
ag124
ag136
ag125
ag137
ag94
ag95
ag96
asg102
(lp241
g106
ag104
ag105
ag106
ag105
ag106
ag106
ag106
ag104
ag52
ag52
ag105
ag105
ag104
ag105
ag106
ag106
ag104
ag52
ag104
ag52
ag52
ag105
ag106
ag52
ag106
ag106
ag105
ag105
ag106
ag105
ag104
ag104
ag104
ag106
ag104
ag105
ag105
ag104
ag106
ag106
ag52
ag52
ag106
ag52
ag106
ag105
ag105
ag106
ag104
ag106
ag105
ag104
ag104
ag104
ag104
ag106
ag104
ag104
ag52
ag52
ag104
ag52
ag104
ag106
ag106
ag104
ag106
ag104
ag105
ag104
ag106
ag104
ag106
ag52
ag106
ag106
ag106
ag104
ag52
ag104
ag105
ag105
ag106
ag105
ag52
ag104
ag105
ag104
ag104
ag104
ag106
ag104
ag105
ag52
ag104
ag106
ag105
ag106
ag104
ag106
ag52
ag104
ag104
ag104
ag106
ag52
ag105
ag52
ag104
ag104
ag104
ag104
ag52
ag106
ag104
ag106
ag106
ag106
ag105
ag105
ag106
ag105
ag104
ag104
ag105
ag104
ag105
ag52
ag104
ag106
ag52
ag52
ag104
ag104
ag104
ag52
ag52
ag105
ag105
ag52
ag106
ag104
ag106
ag106
ag104
ag52
ag105
ag104
ag106
ag106
ag104
ag52
ag106
ag52
ag52
ag106
ag105
ag104
ag105
ag106
ag52
ag104
ag104
ag104
ag104
ag106
ag52
ag106
ag52
ag104
ag52
ag106
ag106
ag106
ag106
ag105
ag106
ag105
ag104
ag52
ag106
ag105
ag104
ag106
ag104
ag105
ag104
ag104
ag104
ag52
ag106
ag106
ag104
ag105
ag106
ag106
ag106
ag105
ag104
ag105
asg107
(lp242
g104
ag106
ag52
ag105
ag105
ag105
ag106
ag106
ag104
ag52
ag52
ag52
ag105
ag104
ag52
ag106
ag105
ag52
ag105
ag104
ag52
ag105
ag105
ag105
ag52
ag105
ag106
ag104
ag105
ag106
ag106
ag52
ag105
ag104
ag106
ag104
ag52
ag52
ag104
ag105
ag104
ag106
ag52
ag105
ag52
ag106
ag52
ag104
ag104
ag106
ag106
ag105
ag104
ag105
ag52
ag106
ag105
ag52
ag106
ag52
ag52
ag106
ag52
ag104
ag105
ag106
ag106
ag105
ag104
ag52
ag104
ag106
ag106
ag106
ag104
ag106
ag106
ag52
ag104
ag52
ag106
ag106
ag104
ag106
ag104
ag104
ag104
ag52
ag52
ag104
ag52
ag104
ag104
ag105
ag52
ag106
ag106
ag105
ag106
ag104
ag106
ag52
ag52
ag105
ag106
ag52
ag106
ag106
ag105
ag52
ag52
ag52
ag106
ag52
ag106
ag104
ag106
ag52
ag106
ag104
ag52
ag106
ag106
ag105
ag104
ag52
ag104
ag106
ag105
ag104
ag105
ag106
ag52
ag52
ag52
ag104
ag52
ag106
ag52
ag52
ag52
ag106
ag106
ag105
ag106
ag104
ag105
ag105
ag52
ag105
ag104
ag106
ag52
ag52
ag105
ag105
ag106
ag105
ag104
ag52
ag104
ag52
ag52
ag52
ag105
ag106
ag106
ag52
ag105
ag52
ag106
ag52
ag106
ag106
ag106
ag106
ag105
ag106
ag52
ag104
ag52
ag106
ag106
ag106
ag104
ag104
ag105
ag52
ag52
ag104
ag104
ag105
ag106
ag104
ag52
ag106
ag105
ag106
ag105
ag104
ag52
asg109
(lp243
g104
ag106
ag52
ag105
ag105
ag105
ag106
ag106
ag104
ag52
ag52
ag52
ag105
ag104
ag52
ag106
ag105
ag52
ag105
ag104
ag52
ag105
ag105
ag105
ag52
ag105
ag106
ag104
ag105
ag106
ag106
ag52
ag105
ag104
ag106
ag104
ag52
ag52
ag104
ag105
ag104
ag106
ag52
ag105
ag52
ag106
ag52
ag104
ag104
ag106
ag106
ag105
ag104
ag105
ag52
ag106
ag105
ag52
ag106
ag52
ag52
ag106
ag52
ag104
ag105
ag106
ag106
ag105
ag104
ag52
ag104
ag106
ag106
ag106
ag104
ag106
ag106
ag52
ag104
ag52
ag106
ag106
ag104
ag106
ag104
ag104
ag104
ag52
ag52
ag104
ag52
ag104
ag104
ag105
ag52
ag106
ag106
ag105
ag106
ag104
ag106
ag52
ag52
ag105
ag106
ag52
ag106
ag106
ag105
ag52
ag52
ag52
ag106
ag52
ag106
ag104
ag106
ag52
ag106
ag104
ag52
ag106
ag106
ag105
ag104
ag52
ag104
ag106
ag105
ag104
ag105
ag106
ag52
ag52
ag52
ag104
ag52
ag106
ag52
ag52
ag52
ag106
ag106
ag105
ag106
ag104
ag105
ag105
ag52
ag105
ag104
ag106
ag52
ag52
ag105
ag105
ag106
ag105
ag104
ag52
ag104
ag52
ag52
ag52
ag105
ag106
ag106
ag52
ag105
ag52
ag106
ag52
ag106
ag106
ag106
ag106
ag105
ag106
ag52
ag104
ag52
ag106
ag106
ag106
ag104
ag104
ag105
ag52
ag52
ag104
ag104
ag105
ag106
ag104
ag52
ag106
ag105
ag106
ag105
ag104
ag52
asaa(lp244
I9
ag39
(g40
tp245
Rp246
g43
(lp247
g45
ag47
ag46
ag46
ag47
ag46
ag46
ag47
ag46
ag46
ag48
ag45
ag48
ag46
ag48
ag46
ag46
ag45
ag45
ag46
ag47
ag46
ag45
ag47
ag45
ag45
ag47
ag46
ag47
asg49
(lp248
I01
aI00
aI00
aI01
aI01
aI00
aI01
aI01
aI00
aI01
aI00
aI01
aI00
aI01
aI01
aI00
aI00
aI00
aI00
aI01
aI01
aI00
aI01
aI00
aI00
aI01
aI00
aI01
aI01
asg51
I29
sg52
g55
sg56
(lp249
(g58
I0
g24
tp250
ag152
ag67
ag63
ag66
ag69
ag70
ag86
ag78
ag87
ag88
ag201
ag120
ag155
ag88
ag90
ag91
ag156
ag157
ag141
ag92
ag95
ag98
ag101
a(g81
F1.5707963267948966
g61
tp251
ag99
ag101
ag97
ag96
asg102
(lp252
g106
ag106
ag104
ag104
ag106
ag104
ag104
ag104
ag104
ag104
ag52
ag106
ag52
ag104
ag52
ag104
ag104
ag52
ag52
ag104
ag106
ag104
ag106
ag105
ag106
ag106
ag105
ag104
ag104
asg107
(lp253
g106
ag106
ag52
ag104
ag105
ag52
ag104
ag105
ag52
ag104
ag104
ag106
ag106
ag104
ag52
ag52
ag106
ag52
ag104
ag104
ag105
ag106
ag106
ag104
ag105
ag106
ag106
ag104
ag105
asg109
(lp254
g106
ag106
ag52
ag104
ag105
ag52
ag104
ag105
ag52
ag104
ag104
ag106
ag106
ag104
ag52
ag52
ag106
ag52
ag104
ag104
ag105
ag106
ag106
ag104
ag105
ag106
ag106
ag104
ag105
asaatp255
Rp256
aatp257
Rp258
.