ccollections
OrderedDict
p0
((lp1
(lp2
S'index'
p3
aI11066
aa(lp4
S'combination_dict'
p5
ag0
((lp6
(lp7
S'r_to_g_config'
p8
aS'bl'
p9
aa(lp10
S'num_turns'
p11
aI3
aa(lp12
S'start_direction'
p13
acutils_ms
StartDirection
p14
(I1
tp15
Rp16
aa(lp17
S'assistance_type'
p18
acutils_ms
AssistanceType
p19
(I0
tp20
Rp21
aa(lp22
S'start_mode'
p23
aS't'
p24
aa(lp25
S'ui_given_a_noise'
p26
aF0.1
aa(lp27
S'um_given_ui_noise'
p28
aF0.5
aa(lp29
S'entropy_threshold'
p30
aF0.8
aa(lp31
S'is_assistance'
p32
aI01
aatp33
Rp34
aa(lp35
S'trials'
p36
ag0
((lp37
(lp38
I0
accollections
defaultdict
p39
(c__builtin__
list
p40
tp41
Rp42
S'a'
p43
(lp44
S'mode_l'
p45
ag45
aS'move_n'
p46
ag46
ag46
ag46
ag46
ag46
ag45
ag46
ag46
ag45
ag45
aS'move_p'
p47
ag47
ag47
ag47
ag45
ag46
ag46
ag45
ag46
ag46
asS'assistance_match_with_ground_truth'
p48
(lp49
I00
aI01
aI00
aI00
aI00
aI00
aI00
aI01
aI01
aI00
aI01
aI00
aI01
aI00
aI00
aI00
aI01
aI01
aI00
aI01
aI01
aI00
aI01
asS'total_steps'
p50
I23
sS'sp'
p51
(S'p4'
p52
F1.5707963267948966
S'x'
p53
tp54
sS's'
p55
(lp56
(S'p0'
p57
I0
g24
tp58
ag58
a(g57
I0
S'y'
p59
tp60
ag60
ag60
ag60
ag60
ag60
a(S'p1'
p61
I0
g59
tp62
a(g61
I0
g53
tp63
ag63
a(S'p2'
p64
I0
g53
tp65
ag65
a(g64
I0
S't'
p66
tp67
ag67
ag67
ag67
a(g64
F1.5707963267948966
g66
tp68
a(g64
F1.5707963267948966
g59
tp69
ag69
a(S'p3'
p70
F1.5707963267948966
g59
tp71
a(g70
F1.5707963267948966
g53
tp72
ag72
asS'ui'
p73
(lp74
S'hs'
p75
ag75
ag51
ag51
aS'ss'
p76
ag76
ag76
ag76
ag75
ag76
ag51
ag75
ag75
ag51
ag51
ag51
ag51
ag75
ag76
ag76
ag75
ag76
ag76
asS'um_before'
p77
(lp78
g51
ag75
ag51
ag51
ag51
ag51
ag51
ag76
ag75
ag51
ag76
ag51
ag75
aS'hp'
p79
ag76
ag76
ag51
ag75
ag79
ag76
ag75
ag79
ag76
asS'um_after'
p80
(lp81
Nag75
aNaNaNaNaNag76
ag75
aNag76
aNag75
aNaNaNag51
ag75
aNag76
ag75
aNag76
asaa(lp82
I1
ag39
(g40
tp83
Rp84
g43
(lp85
g45
ag46
ag45
ag46
ag46
ag46
ag46
ag46
ag46
ag46
ag45
ag47
ag45
ag46
ag46
ag45
ag46
asg48
(lp86
I01
aI01
aI01
aI00
aI00
aI00
aI00
aI00
aI00
aI01
aI01
aI01
aI01
aI00
aI01
aI01
aI01
asg50
I17
sg51
g54
sg55
(lp87
(g57
I0
g24
tp88
ag60
ag62
ag63
ag63
ag63
ag63
ag63
ag63
ag63
ag65
ag67
ag68
ag69
ag69
ag71
ag72
asg73
(lp89
g75
ag76
ag75
ag76
ag76
ag76
ag75
ag76
ag76
ag76
ag75
ag51
ag75
ag76
ag76
ag75
ag76
asg77
(lp90
g75
ag76
ag75
ag51
ag75
ag79
ag75
ag51
ag51
ag76
ag75
ag51
ag75
ag79
ag76
ag75
ag76
asg80
(lp91
g75
ag76
ag75
aNaNaNaNaNaNag76
ag75
ag51
ag75
aNag76
ag75
ag76
asaa(lp92
I2
ag39
(g40
tp93
Rp94
g43
(lp95
g45
aS'mode_r'
p96
ag96
ag96
ag46
ag46
ag45
ag45
ag46
ag45
ag45
ag47
ag45
ag45
ag45
ag45
ag46
ag46
ag45
ag46
asg48
(lp97
I00
aI00
aI00
aI01
aI00
aI01
aI00
aI01
aI01
aI00
aI01
aI01
aI00
aI00
aI00
aI01
aI00
aI01
aI01
aI01
asg50
I20
sg51
g54
sg55
(lp98
(g57
I0
g24
tp99
a(g57
I0
g53
tp100
ag100
ag100
a(g57
I0
g59
tp101
ag101
ag62
ag62
ag63
ag65
ag65
ag67
ag68
ag68
ag68
ag68
ag69
ag69
ag71
ag72
asg73
(lp102
g79
ag79
ag79
ag79
ag76
ag76
ag75
ag75
ag76
ag51
ag75
ag51
ag75
ag75
ag75
ag75
ag76
ag76
ag75
ag76
asg77
(lp103
g79
ag51
ag76
ag79
ag75
ag76
ag51
ag75
ag76
ag51
ag75
ag51
ag76
ag76
ag51
ag75
ag51
ag76
ag75
ag76
asg80
(lp104
g79
aNaNag79
aNag76
aNag75
ag76
aNag75
ag51
aNaNaNag75
aNag76
ag75
ag76
asaa(lp105
I3
ag39
(g40
tp106
Rp107
g43
(lp108
g45
ag46
ag46
ag46
ag46
ag46
ag46
ag46
ag45
ag46
ag46
ag46
ag46
ag46
ag46
ag45
ag45
ag45
ag45
ag45
ag45
ag45
ag47
ag47
ag47
ag96
ag96
ag96
ag96
ag47
ag47
ag45
ag45
ag46
ag46
ag45
ag46
ag46
asg48
(lp109
I01
aI00
aI00
aI00
aI00
aI00
aI00
aI01
aI01
aI00
aI00
aI00
aI00
aI00
aI01
aI00
aI00
aI00
aI00
aI00
aI00
aI01
aI00
aI00
aI00
aI00
aI00
aI00
aI01
aI00
aI01
aI00
aI01
aI00
aI01
aI01
aI00
aI01
asg50
I38
sg51
g54
sg55
(lp110
(g57
I0
g24
tp111
ag60
ag60
ag60
ag60
ag60
ag60
ag60
ag62
ag63
ag63
ag63
ag63
ag63
ag63
ag65
ag65
ag65
ag65
ag65
ag65
ag65
ag67
ag67
ag67
a(g64
I0
g59
tp112
ag112
ag112
ag112
a(g64
I0
g66
tp113
ag113
ag68
ag68
ag69
ag69
ag71
ag72
ag72
asg73
(lp114
g75
ag76
ag51
ag76
ag76
ag51
ag51
ag76
ag75
ag76
ag76
ag51
ag76
ag76
ag76
ag75
ag75
ag75
ag75
ag75
ag51
ag75
ag51
ag51
ag51
ag79
ag79
ag79
ag79
ag51
ag51
ag76
ag75
ag76
ag76
ag75
ag76
ag76
asg77
(lp115
g75
ag51
ag79
ag79
ag51
ag51
ag51
ag76
ag75
ag75
ag75
ag51
ag79
ag75
ag76
ag51
ag51
ag51
ag51
ag51
ag51
ag75
ag79
ag79
ag75
ag51
ag76
ag51
ag79
ag79
ag51
ag51
ag75
ag51
ag76
ag75
ag79
ag76
asg80
(lp116
g75
aNaNaNaNaNaNag76
ag75
aNaNaNaNaNag76
aNaNaNaNaNaNag75
aNaNag75
aNaNaNag79
aNag51
aNag75
aNag76
ag75
aNag76
asaa(lp117
I4
ag39
(g40
tp118
Rp119
g43
(lp120
g45
ag46
ag46
ag46
ag45
ag45
ag46
ag45
ag47
ag47
ag45
ag46
ag45
ag45
ag96
ag96
ag96
ag46
asg48
(lp121
I01
aI00
aI00
aI01
aI00
aI01
aI01
aI01
aI00
aI01
aI01
aI01
aI00
aI00
aI00
aI00
aI01
aI01
asg50
I18
sg51
g54
sg55
(lp122
(g57
I0
g24
tp123
ag60
ag60
ag60
ag62
ag62
ag63
ag65
ag67
ag67
ag68
ag69
ag71
ag71
a(g70
F1.5707963267948966
g66
tp124
ag124
ag124
a(g70
F1.5707963267948966
g53
tp125
asg73
(lp126
g75
ag76
ag76
ag76
ag79
ag75
ag76
ag75
ag51
ag51
ag75
ag76
ag75
ag79
ag79
ag79
ag79
ag76
asg77
(lp127
g75
ag79
ag79
ag76
ag51
ag75
ag76
ag75
ag79
ag51
ag75
ag76
ag51
ag79
ag51
ag76
ag79
ag76
asg80
(lp128
g75
aNaNag76
aNag75
ag76
ag75
aNag51
ag75
ag76
aNag79
aNaNag79
ag76
asaa(lp129
I5
ag39
(g40
tp130
Rp131
g43
(lp132
g45
ag45
ag46
ag45
ag45
ag46
ag46
ag45
ag47
ag47
ag47
ag47
ag45
ag45
ag46
ag46
ag46
ag45
ag46
asg48
(lp133
I00
aI01
aI01
aI00
aI01
aI00
aI01
aI01
aI00
aI00
aI00
aI01
aI00
aI01
aI00
aI00
aI01
aI01
aI01
asg50
I19
sg51
g54
sg55
(lp134
(g57
I0
g24
tp135
ag135
ag60
ag62
ag62
ag63
ag63
ag65
ag67
ag67
ag67
ag67
ag68
ag68
ag69
ag69
ag69
ag71
ag72
asg73
(lp136
g75
ag75
ag76
ag75
ag75
ag76
ag76
ag75
ag51
ag51
ag51
ag51
ag75
ag75
ag79
ag76
ag76
ag75
ag79
asg77
(lp137
g51
ag75
ag76
ag51
ag75
ag75
ag76
ag75
ag79
ag76
ag79
ag51
ag51
ag75
ag79
ag75
ag76
ag75
ag76
asg80
(lp138
Nag75
ag76
aNag75
aNag76
ag75
aNaNaNag51
aNag75
aNaNag76
ag75
ag76
asaa(lp139
I6
ag39
(g40
tp140
Rp141
g43
(lp142
g45
ag45
ag46
ag46
ag46
ag45
ag46
ag45
ag47
ag45
ag46
ag45
ag46
ag46
ag46
ag46
ag46
ag46
ag46
ag46
ag46
ag46
ag46
asg48
(lp143
I00
aI01
aI00
aI00
aI01
aI01
aI01
aI01
aI01
aI01
aI01
aI01
aI00
aI00
aI00
aI00
aI00
aI00
aI00
aI00
aI00
aI00
aI01
asg50
I23
sg51
g54
sg55
(lp144
(g57
I0
g24
tp145
ag145
ag60
ag60
ag60
ag62
ag63
ag65
ag67
ag68
ag69
ag71
ag72
ag72
ag72
ag72
ag72
ag72
ag72
ag72
ag72
ag72
ag72
asg73
(lp146
g75
ag75
ag76
ag75
ag76
ag75
ag51
ag75
ag51
ag75
ag76
ag75
ag76
ag75
ag76
ag75
ag76
ag51
ag76
ag75
ag75
ag76
ag76
asg77
(lp147
g51
ag75
ag79
ag75
ag76
ag75
ag76
ag75
ag51
ag75
ag76
ag75
ag75
ag75
ag75
ag75
ag79
ag51
ag51
ag75
ag75
ag79
ag76
asg80
(lp148
Nag75
aNaNag76
ag75
ag76
ag75
ag51
ag75
ag76
ag75
aNaNaNaNaNaNaNaNaNaNag76
asaa(lp149
I7
ag39
(g40
tp150
Rp151
g43
(lp152
g45
ag96
ag96
ag96
ag46
ag45
ag45
ag45
ag45
ag45
ag46
ag46
ag46
ag45
ag47
ag45
ag46
ag46
ag46
ag45
ag46
asg48
(lp153
I00
aI00
aI00
aI01
aI01
aI00
aI00
aI00
aI00
aI01
aI00
aI00
aI01
aI01
aI01
aI01
aI00
aI00
aI01
aI01
aI01
asg50
I21
sg51
g54
sg55
(lp154
(g57
I0
g24
tp155
ag100
ag100
ag100
ag101
ag62
ag62
ag62
ag62
ag62
ag63
ag63
ag63
ag65
ag67
ag68
ag69
ag69
ag69
ag71
ag72
asg73
(lp156
g75
ag79
ag79
ag79
ag76
ag79
ag75
ag75
ag75
ag75
ag79
ag76
ag76
ag75
ag51
ag75
ag76
ag76
ag76
ag75
ag76
asg77
(lp157
g79
ag51
ag51
ag79
ag76
ag76
ag51
ag51
ag51
ag75
ag79
ag51
ag76
ag75
ag51
ag75
ag51
ag79
ag76
ag75
ag76
asg80
(lp158
g79
aNaNag79
ag76
aNaNaNaNag75
aNaNag76
ag75
ag51
ag75
aNaNag76
ag75
ag76
asaa(lp159
I8
ag39
(g40
tp160
Rp161
g43
(lp162
g45
ag46
ag46
ag46
ag45
ag46
ag46
ag46
ag46
ag46
ag46
ag46
ag45
ag47
ag45
ag46
ag45
ag46
ag46
ag46
asg48
(lp163
I01
aI00
aI00
aI01
aI01
aI00
aI00
aI00
aI00
aI00
aI00
aI01
aI01
aI01
aI01
aI01
aI01
aI00
aI00
aI01
asg50
I20
sg51
g54
sg55
(lp164
(g57
I0
g24
tp165
ag60
ag60
ag60
ag62
ag63
ag63
ag63
ag63
ag63
ag63
ag63
ag65
ag67
ag68
ag69
ag71
ag72
ag72
ag72
asg73
(lp166
g75
ag76
ag76
ag76
ag75
ag76
ag76
ag76
ag76
ag76
ag76
ag76
ag75
ag51
ag75
ag76
ag75
ag76
ag76
ag76
asg77
(lp167
g75
ag51
ag51
ag76
ag75
ag51
ag51
ag79
ag79
ag51
ag79
ag76
ag75
ag51
ag75
ag76
ag75
ag75
ag75
ag76
asg80
(lp168
g75
aNaNag76
ag75
aNaNaNaNaNaNag76
ag75
ag51
ag75
ag76
ag75
aNaNag76
asaa(lp169
I9
ag39
(g40
tp170
Rp171
g43
(lp172
g45
ag46
ag45
ag45
ag45
ag46
ag45
ag45
ag47
ag47
ag45
ag45
ag46
ag46
ag45
ag46
ag46
ag46
asg48
(lp173
I01
aI01
aI00
aI00
aI01
aI01
aI00
aI01
aI00
aI01
aI00
aI01
aI00
aI01
aI01
aI00
aI00
aI01
asg50
I18
sg51
g54
sg55
(lp174
(g57
I0
g24
tp175
ag60
ag62
ag62
ag62
ag63
ag65
ag65
ag67
ag67
ag68
ag68
ag69
ag69
ag71
ag72
ag72
ag72
asg73
(lp176
g75
ag76
ag75
ag75
ag75
ag76
ag75
ag75
ag51
ag51
ag75
ag75
ag76
ag76
ag75
ag51
ag76
ag76
asg77
(lp177
g75
ag76
ag51
ag51
ag75
ag76
ag51
ag75
ag76
ag51
ag51
ag75
ag51
ag76
ag75
ag51
ag79
ag76
asg80
(lp178
g75
ag76
aNaNag75
ag76
aNag75
aNag51
aNag75
aNag76
ag75
aNaNag76
asaatp179
Rp180
aatp181
Rp182
.