ccollections
OrderedDict
p0
((lp1
(lp2
S'combination_dict'
p3
ag0
((lp4
(lp5
S'r_to_g_config'
p6
aS'tr'
p7
aa(lp8
S'num_turns'
p9
aI1
aa(lp10
S'start_direction'
p11
acutils_ms
StartDirection
p12
(I0
tp13
Rp14
aa(lp15
S'assistance_type'
p16
acutils_ms
AssistanceType
p17
(I0
tp18
Rp19
aa(lp20
S'start_mode'
p21
aS't'
p22
aa(lp23
S'ui_given_a_noise'
p24
aF0.7
aa(lp25
S'um_given_ui_noise'
p26
aF0.7
aa(lp27
S'entropy_threshold'
p28
aF0.6
aatp29
Rp30
aa(lp31
S'data'
p32
accollections
defaultdict
p33
(c__builtin__
list
p34
tp35
Rp36
S'a'
p37
(lp38
S'mode_r'
p39
ag39
ag39
ag39
ag39
ag39
aS'move_p'
p40
ag39
ag39
ag39
ag39
ag40
aS'mode_l'
p41
ag39
ag40
ag39
ag39
ag40
ag39
ag39
ag40
ag41
ag39
ag40
ag41
ag40
asS'assistance_match_with_ground_truth'
p42
(lp43
I00
aI00
aI00
aI00
aI00
aI01
aI00
aI00
aI00
aI00
aI01
aI01
aI00
aI01
aI00
aI00
aI01
aI00
aI00
aI01
aI01
aI00
aI01
aI00
aI01
aI01
asS'total_steps'
p44
I26
sS'sp'
p45
(lp46
(S'p0'
p47
I0
g22
tp48
a(g47
I0
S't'
p49
tp50
ag50
ag50
ag50
a(g47
I0
S'x'
p51
tp52
a(g47
I0
g49
tp53
ag53
ag53
ag53
ag52
a(S'p1'
p54
I0
g51
tp55
a(g54
I0
S'y'
p56
tp57
a(g54
I0
g49
tp58
a(g54
I0
g56
tp59
ag59
ag58
ag59
ag59
ag58
a(g54
F1.5707963267948966
g49
tp60
a(g54
F1.5707963267948966
g51
tp61
a(g54
F1.5707963267948966
g56
tp62
a(g54
F1.5707963267948966
g49
tp63
a(g54
F1.5707963267948966
g56
tp64
a(S'p2'
p65
F1.5707963267948966
g56
tp66
asS's'
p67
(lp68
g48
ag48
ag50
ag50
ag50
ag50
ag52
ag53
ag53
ag53
ag53
ag52
ag55
ag57
ag58
ag59
ag59
ag58
ag59
ag59
ag58
ag60
ag61
ag62
ag63
ag64
asS'ui'
p69
(lp70
S'hp'
p71
ag71
ag71
ag71
ag71
ag71
ag71
ag71
ag71
ag45
ag71
ag45
ag71
ag71
ag45
aS'hs'
p72
ag71
ag72
ag71
ag71
ag45
ag72
ag71
ag71
ag72
ag45
asS'um_before'
p73
(lp74
g72
ag45
ag45
ag72
ag45
ag71
ag72
ag72
ag72
aS'ss'
p75
ag71
ag45
ag71
ag71
ag72
ag72
ag71
ag72
ag72
ag71
ag45
ag71
ag71
ag71
ag72
ag45
asS'um_after'
p76
(lp77
Nag45
ag45
aNag45
ag71
ag72
aNaNaNag71
ag45
ag71
ag71
ag72
aNag71
ag72
aNag71
ag45
ag71
ag71
ag71
ag72
ag45
asaa(lp78
S'index'
p79
aI769
aatp80
Rp81
.