ccollections
OrderedDict
p0
((lp1
(lp2
S'index'
p3
aI5445
aa(lp4
S'combination_dict'
p5
ag0
((lp6
(lp7
S'r_to_g_config'
p8
aS'tl'
p9
aa(lp10
S'num_turns'
p11
aI2
aa(lp12
S'start_direction'
p13
acutils_ms
StartDirection
p14
(I3
tp15
Rp16
aa(lp17
S'assistance_type'
p18
acutils_ms
AssistanceType
p19
(I1
tp20
Rp21
aa(lp22
S'start_mode'
p23
aS't'
p24
aa(lp25
S'ui_given_a_noise'
p26
aF0.1
aa(lp27
S'um_given_ui_noise'
p28
aF0.1
aa(lp29
S'entropy_threshold'
p30
aF0.7
aa(lp31
S'is_assistance'
p32
aI00
aatp33
Rp34
aa(lp35
S'trials'
p36
ag0
((lp37
(lp38
I0
accollections
defaultdict
p39
(c__builtin__
list
p40
tp41
Rp42
S'a'
p43
(lp44
S'mode_r'
p45
aS'move_n'
p46
aS'mode_l'
p47
aS'move_p'
p48
ag48
ag47
ag48
ag45
ag47
ag47
ag48
ag47
ag46
ag45
ag48
ag47
ag46
asS'assistance_match_with_ground_truth'
p49
(lp50
I01
aI01
aI01
aI00
aI01
aI01
aI00
aI00
aI00
aI01
aI00
aI01
aI01
aI01
aI01
aI01
aI01
asS'total_steps'
p51
I17
sS'sp'
p52
(S'p3'
p53
F1.5707963267948966
S'x'
p54
tp55
sS's'
p56
(lp57
(S'p0'
p58
I0
g24
tp59
a(g58
I0
g54
tp60
a(S'p1'
p61
I0
g54
tp62
a(g61
I0
S't'
p63
tp64
a(g61
I0
g63
tp65
a(g61
F1.5707963267948966
g63
tp66
a(g61
F1.5707963267948966
S'y'
p67
tp68
a(g61
F1.5707963267948966
g54
tp69
a(g61
F1.5707963267948966
g63
tp70
a(g61
F1.5707963267948966
g63
tp71
ag68
a(g58
F1.5707963267948966
g67
tp72
a(g58
F1.5707963267948966
g54
tp73
a(g61
F1.5707963267948966
g54
tp74
a(g61
F1.5707963267948966
g67
tp75
a(S'p2'
p76
F1.5707963267948966
g67
tp77
a(g76
F1.5707963267948966
g54
tp78
asS'ui'
p79
(lp80
S'hp'
p81
aS'ss'
p82
aS'hs'
p83
ag52
ag52
ag83
ag52
ag81
ag83
ag83
ag52
ag83
ag82
ag81
ag52
ag83
ag82
asS'um_before'
p84
(lp85
g81
ag82
ag83
ag82
ag52
ag83
ag83
ag83
ag52
ag83
ag82
ag83
ag82
ag81
ag52
ag83
ag82
asS'um_after'
p86
(lp87
g81
ag82
ag83
ag82
ag52
ag83
ag83
ag83
ag52
ag83
ag82
ag83
ag82
ag81
ag52
ag83
ag82
asaa(lp88
I1
ag39
(g40
tp89
Rp90
g43
(lp91
g45
ag45
ag46
ag47
ag48
ag47
ag48
ag47
ag46
asg49
(lp92
I00
aI01
aI01
aI01
aI01
aI01
aI01
aI01
aI01
asg51
I9
sg52
g55
sg56
(lp93
(g58
I0
g24
tp94
a(g58
I0
g63
tp95
ag60
ag62
ag64
ag66
ag68
ag77
ag78
asg79
(lp96
g82
ag81
ag82
ag83
ag52
ag83
ag52
ag83
ag82
asg84
(lp97
g82
ag81
ag82
ag83
ag52
ag83
ag52
ag83
ag82
asg86
(lp98
g82
ag81
ag82
ag83
ag52
ag83
ag52
ag83
ag82
asaa(lp99
I2
ag39
(g40
tp100
Rp101
g43
(lp102
g45
ag46
ag47
ag48
ag47
ag47
ag47
ag48
ag47
ag45
ag48
ag47
ag46
asg49
(lp103
I01
aI01
aI01
aI00
aI00
aI00
aI01
aI01
aI00
aI01
aI01
aI01
aI01
asg51
I13
sg52
g55
sg56
(lp104
(g58
I0
g24
tp105
ag60
ag62
ag64
a(g61
I0
g54
tp106
a(g61
I0
g54
tp107
ag107
ag64
ag66
a(g61
F1.5707963267948966
g54
tp108
ag75
ag77
ag78
asg79
(lp109
g81
ag82
ag83
ag83
ag52
ag83
ag83
ag52
ag83
ag81
ag52
ag83
ag82
asg84
(lp110
g81
ag82
ag83
ag81
ag52
ag52
ag83
ag52
ag81
ag81
ag52
ag83
ag82
asg86
(lp111
g81
ag82
ag83
ag81
ag52
ag52
ag83
ag52
ag81
ag81
ag52
ag83
ag82
asaa(lp112
I3
ag39
(g40
tp113
Rp114
g43
(lp115
g45
ag46
ag47
ag48
ag48
ag47
ag48
ag47
ag47
ag45
ag48
ag47
ag46
asg49
(lp116
I01
aI01
aI01
aI00
aI00
aI01
aI01
aI00
aI00
aI01
aI01
aI01
aI01
asg51
I13
sg52
g55
sg56
(lp117
(g58
I0
g24
tp118
ag60
ag62
ag64
ag65
ag106
ag64
ag66
ag71
ag108
ag75
ag77
ag78
asg79
(lp119
g81
ag82
ag83
ag82
ag81
ag83
ag52
ag52
ag83
ag81
ag52
ag83
ag82
asg84
(lp120
g81
ag82
ag83
ag82
ag81
ag83
ag52
ag52
ag81
ag81
ag52
ag83
ag82
asg86
(lp121
g81
ag82
ag83
ag82
ag81
ag83
ag52
ag52
ag81
ag81
ag52
ag83
ag82
asaa(lp122
I4
ag39
(g40
tp123
Rp124
g43
(lp125
g45
ag46
ag47
ag47
ag47
ag46
ag47
ag48
ag47
ag48
ag48
ag48
ag45
ag48
ag47
ag48
ag47
ag46
asg49
(lp126
I01
aI00
aI00
aI00
aI01
aI01
aI01
aI00
aI01
aI00
aI00
aI00
aI01
aI01
aI01
aI01
aI01
aI01
asg51
I18
sg52
g55
sg56
(lp127
(g58
I0
g24
tp128
ag60
a(g58
I0
g67
tp129
a(g58
I0
g67
tp130
ag130
a(g58
I0
g54
tp131
ag62
ag64
ag106
ag64
ag65
ag65
a(g61
I0
g67
tp132
a(g61
I0
g63
tp133
ag66
ag68
ag77
ag78
asg79
(lp134
g81
ag81
ag83
ag83
ag83
ag82
ag83
ag52
ag83
ag52
ag82
ag52
ag81
ag52
ag83
ag52
ag83
ag82
asg84
(lp135
g81
ag81
ag52
ag52
ag83
ag82
ag83
ag81
ag83
ag82
ag82
ag83
ag81
ag52
ag83
ag52
ag83
ag82
asg86
(lp136
g81
ag81
ag52
ag52
ag83
ag82
ag83
ag81
ag83
ag82
ag82
ag83
ag81
ag52
ag83
ag52
ag83
ag82
asaa(lp137
I5
ag39
(g40
tp138
Rp139
g43
(lp140
g45
ag47
ag46
ag45
ag46
ag46
ag47
ag48
ag47
ag48
ag47
ag46
ag45
ag48
ag47
ag46
asg49
(lp141
I00
aI01
aI00
aI01
aI00
aI01
aI01
aI01
aI01
aI01
aI01
aI00
aI01
aI01
aI01
aI01
asg51
I16
sg52
g55
sg56
(lp142
(g58
I0
g24
tp143
a(g58
I0
g67
tp144
ag131
a(g58
I0
g63
tp145
ag60
a(g58
I0
g54
tp146
ag62
ag64
ag66
ag68
ag77
ag78
a(g61
F1.5707963267948966
g54
tp147
ag75
ag77
ag78
asg79
(lp148
g83
ag83
ag82
ag81
ag52
ag82
ag83
ag52
ag83
ag52
ag83
ag52
ag81
ag52
ag83
ag82
asg84
(lp149
g83
ag83
ag83
ag81
ag52
ag82
ag83
ag52
ag83
ag52
ag83
ag52
ag81
ag52
ag83
ag82
asg86
(lp150
g83
ag83
ag83
ag81
ag52
ag82
ag83
ag52
ag83
ag52
ag83
ag52
ag81
ag52
ag83
ag82
asaa(lp151
I6
ag39
(g40
tp152
Rp153
g43
(lp154
g45
ag46
ag47
ag45
ag48
ag47
ag48
ag47
ag48
ag47
ag47
ag46
asg49
(lp155
I01
aI01
aI00
aI01
aI00
aI01
aI01
aI01
aI01
aI00
aI01
aI01
asg51
I12
sg52
g55
sg56
(lp156
(g58
I0
g24
tp157
ag60
ag62
a(g61
I0
g67
tp158
ag133
ag106
ag64
ag66
ag68
ag77
a(g76
F1.5707963267948966
g67
tp159
ag78
asg79
(lp160
g81
ag82
ag81
ag81
ag81
ag83
ag52
ag83
ag52
ag83
ag83
ag82
asg84
(lp161
g81
ag82
ag81
ag81
ag81
ag83
ag52
ag83
ag52
ag52
ag83
ag82
asg86
(lp162
g81
ag82
ag81
ag81
ag81
ag83
ag52
ag83
ag52
ag52
ag83
ag82
asaa(lp163
I7
ag39
(g40
tp164
Rp165
g43
(lp166
g45
ag46
ag47
ag48
ag47
ag48
ag47
ag48
ag47
ag45
ag45
ag48
ag45
ag48
ag45
ag48
ag47
ag46
asg49
(lp167
I01
aI01
aI01
aI01
aI00
aI01
aI01
aI00
aI00
aI00
aI01
aI00
aI01
aI00
aI01
aI01
aI01
aI01
asg51
I18
sg52
g55
sg56
(lp168
(g58
I0
g24
tp169
ag60
ag62
ag64
ag66
a(g61
I0
g63
tp170
ag66
ag68
a(g61
F1.5707963267948966
g63
tp171
ag108
a(g61
F1.5707963267948966
g54
tp172
ag75
ag69
ag75
ag69
ag75
ag77
ag78
asg79
(lp173
g81
ag82
ag83
ag52
ag83
ag52
ag83
ag81
ag83
ag81
ag81
ag52
ag81
ag52
ag81
ag52
ag83
ag82
asg84
(lp174
g81
ag82
ag83
ag52
ag82
ag52
ag83
ag81
ag81
ag82
ag81
ag83
ag81
ag83
ag81
ag52
ag83
ag82
asg86
(lp175
g81
ag82
ag83
ag52
ag82
ag52
ag83
ag81
ag81
ag82
ag81
ag83
ag81
ag83
ag81
ag52
ag83
ag82
asaa(lp176
I8
ag39
(g40
tp177
Rp178
g43
(lp179
g45
ag46
ag47
ag48
ag48
ag47
ag47
ag47
ag48
ag45
ag48
ag47
ag46
asg49
(lp180
I01
aI01
aI01
aI00
aI01
aI00
aI00
aI01
aI00
aI01
aI01
aI01
aI01
asg51
I13
sg52
g55
sg56
(lp181
(g58
I0
g24
tp182
ag60
ag62
ag64
ag65
ag66
ag71
ag71
ag68
ag69
ag75
ag77
ag78
asg79
(lp183
g81
ag82
ag83
ag82
ag52
ag52
ag52
ag83
ag52
ag81
ag52
ag83
ag82
asg84
(lp184
g81
ag82
ag83
ag82
ag52
ag52
ag52
ag83
ag83
ag81
ag52
ag83
ag82
asg86
(lp185
g81
ag82
ag83
ag82
ag52
ag52
ag52
ag83
ag83
ag81
ag52
ag83
ag82
asaa(lp186
I9
ag39
(g40
tp187
Rp188
g43
(lp189
g45
ag46
ag47
ag48
ag47
ag48
ag47
ag46
asg49
(lp190
I01
aI01
aI01
aI01
aI01
aI01
aI01
aI01
asg51
I8
sg52
g55
sg56
(lp191
(g58
I0
g24
tp192
ag60
ag62
ag64
ag66
ag68
ag77
ag78
asg79
(lp193
g81
ag82
ag83
ag52
ag83
ag52
ag83
ag82
asg84
(lp194
g81
ag82
ag83
ag52
ag83
ag52
ag83
ag82
asg86
(lp195
g81
ag82
ag83
ag52
ag83
ag52
ag83
ag82
asaatp196
Rp197
aatp198
Rp199
.