ccollections
OrderedDict
p0
((lp1
(lp2
S'combination_dict'
p3
ag0
((lp4
(lp5
S'r_to_g_config'
p6
aS'bl'
p7
aa(lp8
S'num_turns'
p9
aI3
aa(lp10
S'start_direction'
p11
acutils_ms
StartDirection
p12
(I0
tp13
Rp14
aa(lp15
S'assistance_type'
p16
acutils_ms
AssistanceType
p17
(I2
tp18
Rp19
aa(lp20
S'start_mode'
p21
aS'y'
p22
aa(lp23
S'ui_given_a_noise'
p24
aF0.7
aa(lp25
S'um_given_ui_noise'
p26
aF0.5
aa(lp27
S'entropy_threshold'
p28
aF0.9
aatp29
Rp30
aa(lp31
S'data'
p32
accollections
defaultdict
p33
(c__builtin__
list
p34
tp35
Rp36
S'a'
p37
(lp38
S'mode_l'
p39
aS'move_n'
p40
aS'mode_r'
p41
ag41
ag41
ag41
ag41
ag40
ag39
ag39
ag40
ag41
ag40
ag41
ag41
ag39
ag39
ag39
ag40
ag40
ag40
ag39
ag39
ag39
ag40
ag41
ag41
ag41
ag40
ag39
ag39
ag40
ag39
ag39
ag39
ag41
ag39
ag40
ag39
ag39
ag40
ag41
ag41
ag39
ag39
ag39
ag40
ag39
aS'move_p'
p42
ag39
ag39
ag42
ag41
ag39
ag40
ag39
ag40
ag41
ag41
ag40
ag39
ag40
ag39
ag41
asS'assistance_match_with_ground_truth'
p43
(lp44
I01
aI01
aI00
aI00
aI00
aI00
aI01
aI00
aI00
aI01
aI00
aI01
aI00
aI00
aI00
aI00
aI00
aI01
aI00
aI00
aI00
aI00
aI00
aI01
aI01
aI00
aI00
aI01
aI00
aI00
aI01
aI00
aI00
aI00
aI00
aI00
aI01
aI01
aI00
aI01
aI00
aI00
aI00
aI00
aI00
aI01
aI01
aI01
aI00
aI00
aI01
aI00
aI00
aI01
aI00
aI01
aI00
aI00
aI01
aI01
aI01
aI01
aI00
aI00
asS'total_steps'
p45
I64
sS'sp'
p46
(lp47
(S'p0'
p48
I0
S'x'
p49
tp50
a(S'p1'
p51
I0
g49
tp52
a(g51
I0
g49
tp53
a(g51
I0
g49
tp54
ag54
ag53
a(g51
I0
S'y'
p55
tp56
a(g48
I0
g55
tp57
a(g48
I0
g55
tp58
ag50
a(g48
I0
S't'
p59
tp60
a(g48
I0
g49
tp61
ag60
a(g48
I0
g59
tp62
a(g48
I0
g55
tp63
ag58
ag58
ag50
a(g48
I0
g49
tp64
ag64
a(g48
I0
g55
tp65
ag58
ag58
ag50
ag52
ag53
ag53
ag56
a(g51
I0
g59
tp66
a(g51
I0
g59
tp67
a(g51
I0
g55
tp68
ag66
a(g51
I0
g59
tp69
ag67
a(g51
I0
g49
tp70
a(g51
I0
g59
tp71
ag68
a(S'p2'
p72
I0
g55
tp73
a(g72
I0
g55
tp74
a(g72
I0
g49
tp75
a(g72
I0
g59
tp76
a(g72
I0
g59
tp77
a(g72
I0
g55
tp78
ag74
a(g72
I0
g55
tp79
ag75
a(S'p3'
p80
I0
g49
tp81
a(g80
I0
g59
tp82
a(g80
I0
g49
tp83
a(g80
I0
g49
tp84
ag82
a(g80
I0
g55
tp85
a(g72
I0
g55
tp86
ag75
a(g72
I0
g55
tp87
ag75
a(g51
I0
g49
tp88
ag54
ag56
ag73
ag75
ag81
a(g80
I0
g55
tp89
a(S'p4'
p90
I0
g55
tp91
asS's'
p92
(lp93
(g48
I0
g22
tp94
ag50
ag52
ag53
ag54
ag54
ag53
ag56
ag57
ag58
ag50
ag60
ag61
ag60
ag62
ag63
ag58
ag58
ag50
ag64
ag64
ag65
ag58
ag58
ag50
ag52
ag53
ag53
ag56
ag66
ag67
ag68
ag66
ag69
ag67
ag70
ag71
ag68
ag73
ag74
ag75
ag76
ag77
ag78
ag74
ag79
ag75
ag81
ag82
ag83
ag84
ag82
ag85
ag86
ag75
ag87
ag75
ag88
ag54
ag56
ag73
ag75
ag81
ag89
asS'ui'
p95
(lp96
S'hp'
p97
aS'ss'
p98
ag46
aS'hs'
p99
ag98
ag46
ag97
ag97
ag98
ag97
ag46
ag97
ag46
ag46
ag99
ag99
ag98
ag99
ag46
ag46
ag98
ag99
ag98
ag46
ag98
ag97
ag97
ag97
ag98
ag46
ag99
ag98
ag98
ag46
ag46
ag97
ag46
ag98
ag97
ag99
ag46
ag98
ag46
ag98
ag46
ag99
ag98
ag99
ag97
ag98
ag46
ag46
ag97
ag99
ag98
ag46
ag98
ag97
ag99
ag98
ag99
ag98
ag99
ag46
asS'um_before'
p100
(lp101
g99
ag98
ag46
ag98
ag98
ag46
ag97
ag46
ag98
ag99
ag99
ag97
ag99
ag98
ag99
ag98
ag98
ag99
ag46
ag46
ag97
ag98
ag98
ag99
ag98
ag46
ag46
ag97
ag97
ag46
ag99
ag97
ag98
ag46
ag97
ag99
ag99
ag98
ag98
ag99
ag99
ag98
ag99
ag98
ag46
ag99
ag98
ag99
ag97
ag98
ag99
ag99
ag46
ag99
ag97
ag99
ag46
ag98
ag97
ag98
ag99
ag98
ag97
ag98
asS'um_after'
p102
(lp103
g99
ag98
ag46
ag98
ag98
ag46
ag97
ag46
ag98
ag99
ag99
ag97
ag99
ag98
ag99
ag98
ag98
ag99
ag46
ag46
ag97
ag98
ag98
ag99
ag98
ag46
ag46
ag97
ag97
ag46
ag99
ag97
ag98
ag46
ag97
ag99
ag99
ag98
ag98
ag99
ag99
ag98
ag99
ag98
ag46
ag99
ag98
ag99
ag97
ag98
ag99
ag99
ag46
ag99
ag97
ag99
ag46
ag98
ag97
ag98
ag99
ag98
ag97
ag98
asaa(lp104
S'index'
p105
aI81547
aatp106
Rp107
.