ccollections
OrderedDict
p0
((lp1
(lp2
S'index'
p3
aI6243
aa(lp4
S'combination_dict'
p5
ag0
((lp6
(lp7
S'r_to_g_config'
p8
aS'tl'
p9
aa(lp10
S'num_turns'
p11
aI2
aa(lp12
S'start_direction'
p13
acutils_ms
StartDirection
p14
(I1
tp15
Rp16
aa(lp17
S'assistance_type'
p18
acutils_ms
AssistanceType
p19
(I1
tp20
Rp21
aa(lp22
S'start_mode'
p23
aS't'
p24
aa(lp25
S'ui_given_a_noise'
p26
aF0.1
aa(lp27
S'um_given_ui_noise'
p28
aF0.1
aa(lp29
S'entropy_threshold'
p30
aF0.6
aa(lp31
S'is_assistance'
p32
aI00
aatp33
Rp34
aa(lp35
S'trials'
p36
ag0
((lp37
(lp38
I0
accollections
defaultdict
p39
(c__builtin__
list
p40
tp41
Rp42
S'a'
p43
(lp44
S'mode_l'
p45
aS'move_p'
p46
aS'mode_r'
p47
ag45
ag46
ag47
ag46
ag47
ag46
ag47
aS'move_n'
p48
ag45
ag48
ag47
ag45
ag46
ag45
ag48
ag47
ag46
asS'assistance_match_with_ground_truth'
p49
(lp50
I01
aI00
aI00
aI01
aI00
aI01
aI01
aI01
aI01
aI01
aI00
aI01
aI01
aI00
aI01
aI00
aI01
aI01
aI01
aI01
asS'total_steps'
p51
I20
sS'sp'
p52
(S'p3'
p53
F1.5707963267948966
S'y'
p54
tp55
sS's'
p56
(lp57
(S'p0'
p58
I0
g24
tp59
a(g58
I0
g54
tp60
a(g58
I0
S'x'
p61
tp62
a(g58
I0
S't'
p63
tp64
ag60
ag62
a(g58
I0
g54
tp65
a(S'p1'
p66
I0
g54
tp67
a(g66
I0
g63
tp68
a(g66
F1.5707963267948966
g63
tp69
a(g66
F1.5707963267948966
g61
tp70
a(g66
F1.5707963267948966
g54
tp71
a(g66
F1.5707963267948966
g61
tp72
a(S'p2'
p73
F1.5707963267948966
g61
tp74
a(g73
F1.5707963267948966
g63
tp75
a(g73
F1.5707963267948966
g54
tp76
a(g66
F1.5707963267948966
g54
tp77
ag72
ag74
a(g73
F1.5707963267948966
g54
tp78
asS'ui'
p79
(lp80
S'hs'
p81
ag81
ag81
ag81
ag52
aS'hp'
p82
ag52
ag82
ag52
ag82
aS'ss'
p83
ag81
ag83
ag81
ag81
ag83
ag81
ag83
ag82
ag52
asS'um_before'
p84
(lp85
g81
ag81
ag81
ag81
ag81
ag82
ag52
ag82
ag52
ag82
ag82
ag81
ag83
ag81
ag81
ag83
ag81
ag83
ag82
ag52
asS'um_after'
p86
(lp87
g81
ag81
ag81
ag81
ag81
ag82
ag52
ag82
ag52
ag82
ag82
ag81
ag83
ag81
ag81
ag83
ag81
ag83
ag82
ag52
asaa(lp88
I1
ag39
(g40
tp89
Rp90
g43
(lp91
g45
ag46
ag47
ag46
ag47
ag48
ag47
ag46
asg49
(lp92
I01
aI01
aI01
aI01
aI01
aI01
aI01
aI01
asg51
I8
sg52
g55
sg56
(lp93
(g58
I0
g24
tp94
ag60
ag67
ag68
ag69
ag70
ag74
ag78
asg79
(lp95
g81
ag52
ag82
ag52
ag82
ag83
ag82
ag52
asg84
(lp96
g81
ag52
ag82
ag52
ag82
ag83
ag82
ag52
asg86
(lp97
g81
ag52
ag82
ag52
ag82
ag83
ag82
ag52
asaa(lp98
I2
ag39
(g40
tp99
Rp100
g43
(lp101
g45
ag46
ag47
ag46
ag47
ag48
ag47
ag48
ag47
ag48
ag47
ag46
asg49
(lp102
I01
aI01
aI01
aI01
aI01
aI00
aI01
aI00
aI01
aI01
aI01
aI01
asg51
I12
sg52
g55
sg56
(lp103
(g58
I0
g24
tp104
ag60
ag67
ag68
ag69
ag70
a(g66
F1.5707963267948966
g63
tp105
ag70
ag105
ag70
ag74
ag78
asg79
(lp106
g81
ag52
ag82
ag52
ag82
ag83
ag82
ag83
ag82
ag83
ag82
ag52
asg84
(lp107
g81
ag52
ag82
ag52
ag82
ag81
ag82
ag81
ag82
ag83
ag82
ag52
asg86
(lp108
g81
ag52
ag82
ag52
ag82
ag81
ag82
ag81
ag82
ag83
ag82
ag52
asaa(lp109
I3
ag39
(g40
tp110
Rp111
g43
(lp112
g45
ag46
ag46
ag47
ag46
ag47
ag48
ag47
ag46
asg49
(lp113
I01
aI00
aI01
aI01
aI01
aI01
aI01
aI01
aI01
asg51
I9
sg52
g55
sg56
(lp114
(g58
I0
g24
tp115
ag60
a(g58
I0
g54
tp116
ag67
ag68
ag69
ag70
ag74
ag78
asg79
(lp117
g81
ag83
ag52
ag82
ag52
ag82
ag83
ag82
ag52
asg84
(lp118
g81
ag83
ag52
ag82
ag52
ag82
ag83
ag82
ag52
asg86
(lp119
g81
ag83
ag52
ag82
ag52
ag82
ag83
ag82
ag52
asaa(lp120
I4
ag39
(g40
tp121
Rp122
g43
(lp123
g45
ag45
ag46
ag47
ag46
ag47
ag48
ag47
ag46
asg49
(lp124
I00
aI01
aI01
aI01
aI01
aI01
aI01
aI01
aI01
asg51
I9
sg52
g55
sg56
(lp125
(g58
I0
g24
tp126
a(g58
I0
g63
tp127
ag60
ag67
ag68
ag69
ag70
ag74
ag78
asg79
(lp128
g81
ag81
ag52
ag82
ag52
ag82
ag83
ag82
ag52
asg84
(lp129
g52
ag81
ag52
ag82
ag52
ag82
ag83
ag82
ag52
asg86
(lp130
g52
ag81
ag52
ag82
ag52
ag82
ag83
ag82
ag52
asaa(lp131
I5
ag39
(g40
tp132
Rp133
g43
(lp134
g45
ag46
ag47
ag46
ag47
ag48
ag47
ag46
ag47
ag46
ag45
ag45
ag48
ag47
ag47
ag46
asg49
(lp135
I01
aI01
aI01
aI01
aI01
aI01
aI01
aI00
aI01
aI00
aI00
aI01
aI01
aI00
aI01
aI01
asg51
I16
sg52
g55
sg56
(lp136
(g58
I0
g24
tp137
ag60
ag67
ag68
ag69
ag70
ag74
ag78
a(g73
F1.5707963267948966
g61
tp138
ag78
ag77
a(g66
F1.5707963267948966
g54
tp139
ag72
ag74
a(g73
F1.5707963267948966
g61
tp140
ag78
asg79
(lp141
g81
ag52
ag82
ag52
ag82
ag83
ag82
ag81
ag82
ag83
ag81
ag81
ag83
ag52
ag82
ag52
asg84
(lp142
g81
ag52
ag82
ag52
ag82
ag83
ag82
ag81
ag82
ag83
ag83
ag81
ag83
ag52
ag82
ag52
asg86
(lp143
g81
ag52
ag82
ag52
ag82
ag83
ag82
ag81
ag82
ag83
ag83
ag81
ag83
ag52
ag82
ag52
asaa(lp144
I6
ag39
(g40
tp145
Rp146
g43
(lp147
g45
ag45
ag46
ag47
ag46
ag47
ag48
ag47
ag45
ag47
ag48
ag47
ag46
asg49
(lp148
I00
aI01
aI01
aI01
aI01
aI01
aI00
aI00
aI00
aI01
aI01
aI01
aI01
asg51
I13
sg52
g55
sg56
(lp149
(g58
I0
g24
tp150
a(g58
I0
g63
tp151
ag60
ag67
ag68
ag69
ag70
ag105
a(g66
F1.5707963267948966
g54
tp152
a(g66
F1.5707963267948966
g63
tp153
ag70
ag74
ag78
asg79
(lp154
g81
ag81
ag52
ag82
ag52
ag82
ag83
ag52
ag82
ag82
ag83
ag82
ag52
asg84
(lp155
g83
ag81
ag52
ag82
ag52
ag82
ag81
ag81
ag82
ag82
ag83
ag82
ag52
asg86
(lp156
g83
ag81
ag52
ag82
ag52
ag82
ag81
ag81
ag82
ag82
ag83
ag82
ag52
asaa(lp157
I7
ag39
(g40
tp158
Rp159
g43
(lp160
g45
ag46
ag47
ag46
ag47
ag48
ag47
ag46
asg49
(lp161
I01
aI01
aI01
aI01
aI01
aI01
aI01
aI01
asg51
I8
sg52
g55
sg56
(lp162
(g58
I0
g24
tp163
ag60
ag67
ag68
ag69
ag70
ag74
ag78
asg79
(lp164
g81
ag52
ag82
ag52
ag82
ag83
ag82
ag52
asg84
(lp165
g81
ag52
ag82
ag52
ag82
ag83
ag82
ag52
asg86
(lp166
g81
ag52
ag82
ag52
ag82
ag83
ag82
ag52
asaa(lp167
I8
ag39
(g40
tp168
Rp169
g43
(lp170
g45
ag46
ag47
ag46
ag47
ag46
ag47
ag46
ag47
ag48
ag47
ag48
ag47
ag47
ag46
asg49
(lp171
I01
aI01
aI01
aI00
aI01
aI00
aI01
aI01
aI01
aI00
aI01
aI01
aI00
aI01
aI01
asg51
I15
sg52
g55
sg56
(lp172
(g58
I0
g24
tp173
ag60
ag67
ag68
a(g66
I0
g54
tp174
ag68
ag174
ag68
ag69
ag70
ag105
ag70
ag74
ag140
ag78
asg79
(lp175
g81
ag52
ag82
ag52
ag82
ag52
ag82
ag52
ag82
ag83
ag82
ag83
ag52
ag82
ag52
asg84
(lp176
g81
ag52
ag82
ag81
ag82
ag81
ag82
ag52
ag82
ag81
ag82
ag83
ag52
ag82
ag52
asg86
(lp177
g81
ag52
ag82
ag81
ag82
ag81
ag82
ag52
ag82
ag81
ag82
ag83
ag52
ag82
ag52
asaa(lp178
I9
ag39
(g40
tp179
Rp180
g43
(lp181
g45
ag46
ag47
ag45
ag47
ag46
ag47
ag48
ag47
ag46
ag45
ag45
ag48
ag47
ag46
asg49
(lp182
I01
aI01
aI00
aI00
aI01
aI01
aI01
aI01
aI01
aI00
aI00
aI01
aI01
aI01
aI01
asg51
I15
sg52
g55
sg56
(lp183
(g58
I0
g24
tp184
ag60
ag67
a(g66
I0
g61
tp185
a(g66
I0
g54
tp186
ag68
ag69
ag70
ag74
ag78
ag77
ag139
ag72
ag74
ag78
asg79
(lp187
g81
ag52
ag81
ag82
ag82
ag52
ag82
ag83
ag82
ag52
ag81
ag81
ag83
ag82
ag52
asg84
(lp188
g81
ag52
ag81
ag82
ag82
ag52
ag82
ag83
ag82
ag83
ag83
ag81
ag83
ag82
ag52
asg86
(lp189
g81
ag52
ag81
ag82
ag82
ag52
ag82
ag83
ag82
ag83
ag83
ag81
ag83
ag82
ag52
asaatp190
Rp191
aatp192
Rp193
.