ccollections
OrderedDict
p0
((lp1
(lp2
S'index'
p3
aI13226
aa(lp4
S'combination_dict'
p5
ag0
((lp6
(lp7
S'r_to_g_config'
p8
aS'br'
p9
aa(lp10
S'num_turns'
p11
aI2
aa(lp12
S'start_direction'
p13
acutils_ms
StartDirection
p14
(I3
tp15
Rp16
aa(lp17
S'assistance_type'
p18
acutils_ms
AssistanceType
p19
(I1
tp20
Rp21
aa(lp22
S'start_mode'
p23
aS't'
p24
aa(lp25
S'ui_given_a_noise'
p26
aF0.5
aa(lp27
S'um_given_ui_noise'
p28
aF0.5
aa(lp29
S'entropy_threshold'
p30
aF0.8
aa(lp31
S'is_assistance'
p32
aI01
aatp33
Rp34
aa(lp35
S'trials'
p36
ag0
((lp37
(lp38
I0
accollections
defaultdict
p39
(c__builtin__
list
p40
tp41
Rp42
S'a'
p43
(lp44
S'mode_r'
p45
aS'move_p'
p46
ag45
aS'move_n'
p47
aS'mode_l'
p48
ag45
ag47
ag45
ag47
ag48
ag48
ag45
ag46
ag45
ag47
ag45
ag47
ag48
ag45
ag47
ag45
ag47
ag45
ag47
ag45
ag46
ag45
ag46
asS'assistance_match_with_ground_truth'
p49
(lp50
I01
aI01
aI01
aI00
aI00
aI01
aI00
aI01
aI00
aI00
aI00
aI01
aI01
aI01
aI00
aI01
aI00
aI00
aI01
aI00
aI01
aI00
aI01
aI01
aI01
aI01
aI01
aI01
asS'total_steps'
p51
I28
sS'sp'
p52
(S'p3'
p53
F1.5707963267948966
S'x'
p54
tp55
sS's'
p56
(lp57
(S'p0'
p58
I0
g24
tp59
a(g58
I0
g54
tp60
a(S'p1'
p61
I0
g54
tp62
a(g61
I0
S'y'
p63
tp64
a(g61
I0
S't'
p65
tp66
a(g61
I0
g54
tp67
ag64
a(g61
I0
g54
tp68
ag64
a(g58
I0
g63
tp69
a(g58
I0
g63
tp70
a(g58
I0
g65
tp71
ag60
ag62
ag64
ag68
ag64
ag66
ag67
ag64
ag68
ag64
ag68
ag64
a(S'p2'
p72
I0
g63
tp73
a(g72
I0
g65
tp74
a(g72
F1.5707963267948966
g65
tp75
a(g72
F1.5707963267948966
g54
tp76
asS'ui'
p77
(lp78
S'ss'
p79
ag52
aS'hp'
p80
ag80
aS'hs'
p81
ag80
ag81
ag80
ag52
ag52
ag81
ag80
ag52
ag80
ag81
ag80
ag79
ag81
ag80
ag81
ag80
ag79
ag80
ag52
ag80
ag52
ag80
ag52
asS'um_before'
p82
(lp83
g79
ag52
ag81
ag80
ag80
ag52
ag81
ag80
ag52
ag52
ag80
ag52
ag52
ag52
ag81
ag80
ag80
ag80
ag80
ag81
ag81
ag81
ag80
ag79
ag81
ag79
ag80
ag52
asS'um_after'
p84
(lp85
g80
ag52
ag80
ag80
ag80
ag80
ag81
ag80
ag52
ag52
ag80
ag80
ag52
ag80
ag81
ag80
ag80
ag80
ag80
ag81
ag80
ag81
ag80
ag79
ag80
ag52
ag80
ag52
asaa(lp86
I1
ag39
(g40
tp87
Rp88
g43
(lp89
g45
ag46
ag45
ag47
ag48
ag45
ag47
ag45
ag46
ag45
ag46
asg49
(lp90
I01
aI01
aI01
aI00
aI00
aI01
aI01
aI01
aI01
aI01
aI01
asg51
I11
sg52
g55
sg56
(lp91
(g58
I0
g24
tp92
ag60
ag62
ag64
ag66
ag67
ag64
ag73
ag74
ag75
ag76
asg77
(lp93
g80
ag52
ag79
ag52
ag80
ag81
ag79
ag80
ag52
ag80
ag52
asg82
(lp94
g80
ag52
ag81
ag80
ag80
ag52
ag79
ag80
ag52
ag52
ag52
asg84
(lp95
g80
ag52
ag80
ag80
ag80
ag80
ag79
ag80
ag52
ag80
ag52
asaa(lp96
I2
ag39
(g40
tp97
Rp98
g43
(lp99
g45
ag46
ag45
ag47
ag45
ag46
ag45
ag46
asg49
(lp100
I01
aI01
aI01
aI01
aI01
aI01
aI01
aI01
asg51
I8
sg52
g55
sg56
(lp101
(g58
I0
g24
tp102
ag60
ag62
ag64
ag73
ag74
ag75
ag76
asg77
(lp103
g52
ag52
ag80
ag79
ag79
ag79
ag80
ag52
asg82
(lp104
g52
ag80
ag79
ag79
ag81
ag79
ag79
ag52
asg84
(lp105
g80
ag52
ag80
ag79
ag80
ag52
ag80
ag52
asaa(lp106
I3
ag39
(g40
tp107
Rp108
g43
(lp109
g45
ag46
ag45
ag47
ag45
ag46
ag45
ag46
asg49
(lp110
I01
aI01
aI01
aI01
aI01
aI01
aI01
aI01
asg51
I8
sg52
g55
sg56
(lp111
(g58
I0
g24
tp112
ag60
ag62
ag64
ag73
ag74
ag75
ag76
asg77
(lp113
g80
ag52
ag79
ag79
ag80
ag80
ag81
ag52
asg82
(lp114
g81
ag52
ag52
ag79
ag52
ag79
ag81
ag52
asg84
(lp115
g80
ag52
ag80
ag79
ag80
ag52
ag80
ag52
asaa(lp116
I4
ag39
(g40
tp117
Rp118
g43
(lp119
g45
ag46
ag45
ag47
ag45
ag47
ag48
ag48
ag48
ag45
ag46
ag45
ag47
ag45
ag46
ag45
ag46
asg49
(lp120
I01
aI01
aI01
aI00
aI01
aI00
aI00
aI00
aI00
aI01
aI01
aI01
aI01
aI01
aI01
aI01
aI01
asg51
I17
sg52
g55
sg56
(lp121
(g58
I0
g24
tp122
ag60
ag62
ag64
ag68
ag64
ag69
ag70
a(g58
I0
g63
tp123
ag71
ag60
ag62
ag64
ag73
ag74
ag75
ag76
asg77
(lp124
g79
ag79
ag80
ag79
ag80
ag52
ag81
ag79
ag81
ag80
ag52
ag80
ag79
ag52
ag52
ag81
ag79
asg82
(lp125
g79
ag79
ag81
ag81
ag80
ag52
ag52
ag79
ag80
ag81
ag52
ag52
ag79
ag81
ag80
ag81
ag79
asg84
(lp126
g80
ag52
ag80
ag81
ag80
ag52
ag52
ag79
ag80
ag80
ag52
ag80
ag79
ag80
ag52
ag80
ag52
asaa(lp127
I5
ag39
(g40
tp128
Rp129
g43
(lp130
g45
ag46
ag45
ag47
ag45
ag47
ag48
ag45
ag47
ag45
ag46
ag45
ag46
asg49
(lp131
I01
aI01
aI01
aI00
aI01
aI00
aI00
aI01
aI01
aI01
aI01
aI01
aI01
asg51
I13
sg52
g55
sg56
(lp132
(g58
I0
g24
tp133
ag60
ag62
ag64
ag68
ag64
ag66
ag67
ag64
ag73
ag74
ag75
ag76
asg77
(lp134
g80
ag52
ag79
ag52
ag80
ag80
ag81
ag80
ag80
ag80
ag81
ag79
ag81
asg82
(lp135
g80
ag52
ag79
ag81
ag80
ag80
ag80
ag80
ag79
ag79
ag81
ag79
ag79
asg84
(lp136
g80
ag52
ag80
ag81
ag80
ag80
ag80
ag80
ag79
ag80
ag52
ag80
ag52
asaa(lp137
I6
ag39
(g40
tp138
Rp139
g43
(lp140
g45
ag46
ag45
ag47
ag45
ag46
ag45
ag46
asg49
(lp141
I01
aI01
aI01
aI01
aI01
aI01
aI01
aI01
asg51
I8
sg52
g55
sg56
(lp142
(g58
I0
g24
tp143
ag60
ag62
ag64
ag73
ag74
ag75
ag76
asg77
(lp144
g79
ag52
ag80
ag79
ag80
ag52
ag81
ag79
asg82
(lp145
g81
ag81
ag80
ag79
ag79
ag79
ag81
ag79
asg84
(lp146
g80
ag52
ag80
ag79
ag80
ag52
ag80
ag52
asaa(lp147
I7
ag39
(g40
tp148
Rp149
g43
(lp150
g45
ag46
ag45
ag47
ag48
ag45
ag47
ag48
ag47
ag45
ag47
ag45
ag46
ag45
ag46
asg49
(lp151
I01
aI01
aI01
aI00
aI00
aI01
aI00
aI01
aI00
aI01
aI01
aI01
aI01
aI01
aI01
asg51
I15
sg52
g55
sg56
(lp152
(g58
I0
g24
tp153
ag60
ag62
ag64
ag66
ag67
ag64
ag66
a(g61
I0
g63
tp154
ag68
ag64
ag73
ag74
ag75
ag76
asg77
(lp155
g79
ag52
ag79
ag79
ag80
ag80
ag79
ag81
ag81
ag80
ag79
ag80
ag52
ag80
ag81
asg82
(lp156
g79
ag52
ag79
ag80
ag80
ag79
ag80
ag81
ag81
ag81
ag79
ag79
ag52
ag52
ag81
asg84
(lp157
g80
ag52
ag80
ag80
ag80
ag80
ag80
ag81
ag81
ag80
ag79
ag80
ag52
ag80
ag52
asaa(lp158
I8
ag39
(g40
tp159
Rp160
g43
(lp161
g45
ag46
ag45
ag47
ag45
ag46
ag45
ag46
asg49
(lp162
I01
aI01
aI01
aI01
aI01
aI01
aI01
aI01
asg51
I8
sg52
g55
sg56
(lp163
(g58
I0
g24
tp164
ag60
ag62
ag64
ag73
ag74
ag75
ag76
asg77
(lp165
g81
ag52
ag80
ag79
ag80
ag52
ag79
ag52
asg82
(lp166
g81
ag52
ag80
ag79
ag80
ag79
ag52
ag52
asg84
(lp167
g80
ag52
ag80
ag79
ag80
ag52
ag80
ag52
asaa(lp168
I9
ag39
(g40
tp169
Rp170
g43
(lp171
g45
ag46
ag45
ag47
ag48
ag46
ag45
ag47
ag45
ag46
ag45
ag46
asg49
(lp172
I01
aI01
aI01
aI00
aI01
aI01
aI01
aI01
aI01
aI01
aI01
aI01
asg51
I12
sg52
g55
sg56
(lp173
(g58
I0
g24
tp174
ag60
ag62
ag64
ag69
a(g58
I0
g54
tp175
ag62
ag64
ag73
ag74
ag75
ag76
asg77
(lp176
g80
ag52
ag81
ag52
ag81
ag52
ag80
ag79
ag81
ag52
ag80
ag52
asg82
(lp177
g80
ag79
ag81
ag52
ag81
ag81
ag81
ag79
ag81
ag52
ag79
ag80
asg84
(lp178
g80
ag52
ag80
ag52
ag81
ag52
ag80
ag79
ag80
ag52
ag80
ag52
asaatp179
Rp180
aatp181
Rp182
.