ccollections
OrderedDict
p0
((lp1
(lp2
S'index'
p3
aI8113
aa(lp4
S'combination_dict'
p5
ag0
((lp6
(lp7
S'r_to_g_config'
p8
aS'bl'
p9
aa(lp10
S'num_turns'
p11
aI1
aa(lp12
S'start_direction'
p13
acutils_ms
StartDirection
p14
(I3
tp15
Rp16
aa(lp17
S'assistance_type'
p18
acutils_ms
AssistanceType
p19
(I1
tp20
Rp21
aa(lp22
S'start_mode'
p23
aS't'
p24
aa(lp25
S'ui_given_a_noise'
p26
aF0.5
aa(lp27
S'um_given_ui_noise'
p28
aF0.7
aa(lp29
S'entropy_threshold'
p30
aF0.6
aa(lp31
S'is_assistance'
p32
aI00
aatp33
Rp34
aa(lp35
S'trials'
p36
ag0
((lp37
(lp38
I0
accollections
defaultdict
p39
(c__builtin__
list
p40
tp41
Rp42
S'a'
p43
(lp44
S'mode_r'
p45
aS'mode_l'
p46
aS'move_n'
p47
ag46
ag45
aS'move_p'
p48
ag46
ag47
asS'assistance_match_with_ground_truth'
p49
(lp50
I00
aI01
aI01
aI00
aI01
aI01
aI01
aI01
asS'total_steps'
p51
I8
sS'sp'
p52
(S'p2'
p53
F1.5707963267948966
S'y'
p54
tp55
sS's'
p56
(lp57
(S'p0'
p58
I0
g24
tp59
a(g58
I0
g54
tp60
a(g58
I0
S'x'
p61
tp62
a(S'p1'
p63
I0
g61
tp64
a(g63
I0
g54
tp65
a(g63
I0
S't'
p66
tp67
a(g63
F1.5707963267948966
g66
tp68
a(g63
F1.5707963267948966
g54
tp69
asS'ui'
p70
(lp71
S'hp'
p72
aS'hs'
p73
ag72
ag73
ag72
ag52
ag52
ag72
asS'um_before'
p74
(lp75
g73
ag73
aS'ss'
p76
ag72
ag72
ag52
ag73
ag76
asS'um_after'
p77
(lp78
g73
ag73
ag76
ag72
ag72
ag52
ag73
ag76
asaa(lp79
I1
ag39
(g40
tp80
Rp81
g43
(lp82
g45
ag45
ag45
ag47
ag46
ag46
ag45
ag47
ag46
ag45
ag45
ag47
ag46
ag45
ag45
ag47
ag46
ag45
asg49
(lp83
I00
aI00
aI01
aI00
aI00
aI00
aI01
aI00
aI00
aI00
aI01
aI00
aI00
aI00
aI01
aI01
aI00
aI00
asg51
I18
sg52
(g53
I0
g54
tp84
sg56
(lp85
(g58
I0
g24
tp86
a(g58
I0
g66
tp87
ag87
a(g58
I0
g61
tp88
a(g58
I0
g54
tp89
a(g58
I0
g54
tp90
a(g58
I0
g66
tp91
ag88
ag89
ag91
a(g58
I0
g66
tp92
ag88
ag89
ag91
ag87
ag88
ag64
ag65
asg70
(lp93
g76
ag72
ag76
ag72
ag52
ag73
ag72
ag76
ag73
ag72
ag72
ag72
ag73
ag72
ag72
ag76
ag52
ag72
asg74
(lp94
g76
ag76
ag72
ag72
ag76
ag72
ag72
ag72
ag72
ag52
ag72
ag72
ag72
ag76
ag72
ag76
ag72
ag76
asg77
(lp95
g76
ag76
ag72
ag72
ag76
ag72
ag72
ag72
ag72
ag52
ag72
ag72
ag72
ag76
ag72
ag76
ag72
ag76
asaa(lp96
I2
ag39
(g40
tp97
Rp98
g43
(lp99
g45
ag45
ag47
ag46
ag46
ag45
ag46
ag46
ag46
ag45
ag47
ag46
ag45
ag46
ag48
ag46
ag48
ag45
ag48
ag45
ag46
ag45
ag47
ag46
ag48
ag46
ag45
asg49
(lp100
I00
aI01
aI01
aI00
aI00
aI00
aI00
aI00
aI00
aI01
aI01
aI00
aI00
aI01
aI01
aI00
aI00
aI01
aI00
aI00
aI00
aI01
aI01
aI01
aI00
aI00
aI00
asg51
I27
sg52
g84
sg56
(lp101
(g58
I0
g24
tp102
ag87
ag88
ag64
a(g63
I0
g61
tp103
ag65
a(g58
I0
g54
tp104
a(g58
I0
g54
tp105
ag90
ag91
ag88
ag64
ag65
a(g63
I0
g61
tp106
a(g63
I0
g66
tp107
ag68
a(g63
I0
g66
tp108
a(g63
I0
g54
tp109
ag67
ag109
ag104
ag91
ag88
ag64
ag107
a(g63
I0
g61
tp110
ag65
asg70
(lp111
g72
ag73
ag76
ag73
ag52
ag72
ag72
ag72
ag73
ag72
ag76
ag73
ag72
ag73
ag52
ag73
ag73
ag72
ag52
ag52
ag72
ag72
ag52
ag73
ag52
ag73
ag73
asg74
(lp112
g76
ag72
ag76
ag76
ag72
ag52
ag52
ag76
ag72
ag72
ag76
ag72
ag73
ag73
ag52
ag76
ag73
ag72
ag73
ag52
ag72
ag72
ag76
ag73
ag72
ag72
ag76
asg77
(lp113
g76
ag72
ag76
ag76
ag72
ag52
ag52
ag76
ag72
ag72
ag76
ag72
ag73
ag73
ag52
ag76
ag73
ag72
ag73
ag52
ag72
ag72
ag76
ag73
ag72
ag72
ag76
asaa(lp114
I3
ag39
(g40
tp115
Rp116
g43
(lp117
g45
ag45
ag45
ag46
ag46
ag47
ag46
ag46
ag46
ag46
ag47
ag46
ag45
ag47
ag46
ag46
ag45
ag48
ag45
ag48
ag45
asg49
(lp118
I00
aI00
aI00
aI00
aI01
aI00
aI00
aI00
aI00
aI01
aI00
aI00
aI01
aI01
aI00
aI00
aI01
aI00
aI01
aI00
aI00
asg51
I21
sg52
g84
sg56
(lp119
(g58
I0
g24
tp120
ag87
ag87
ag60
ag90
ag62
ag89
ag105
ag105
ag105
ag62
ag89
ag91
ag88
ag64
ag103
ag65
ag67
ag109
ag67
ag109
asg70
(lp121
g72
ag72
ag73
ag52
ag73
ag72
ag73
ag52
ag52
ag73
ag76
ag52
ag72
ag76
ag72
ag72
ag72
ag52
ag72
ag73
ag72
asg74
(lp122
g76
ag76
ag73
ag76
ag73
ag72
ag52
ag52
ag52
ag73
ag72
ag72
ag72
ag76
ag76
ag72
ag72
ag73
ag72
ag73
ag76
asg77
(lp123
g76
ag76
ag73
ag76
ag73
ag72
ag52
ag52
ag52
ag73
ag72
ag72
ag72
ag76
ag76
ag72
ag72
ag73
ag72
ag73
ag76
asaa(lp124
I4
ag39
(g40
tp125
Rp126
g43
(lp127
g45
ag45
ag45
ag47
ag46
ag46
ag46
ag46
ag46
ag45
ag46
ag46
ag47
ag47
ag46
ag46
ag48
ag48
ag48
ag46
ag45
asg49
(lp128
I00
aI00
aI01
aI01
aI00
aI00
aI00
aI00
aI00
aI00
aI00
aI01
aI00
aI01
aI00
aI01
aI00
aI00
aI00
aI00
aI00
asg51
I21
sg52
g84
sg56
(lp129
(g58
I0
g24
tp130
ag87
ag92
ag88
ag64
a(g63
I0
g61
tp131
ag103
ag103
ag131
ag65
ag104
ag90
ag62
a(g58
I0
g61
tp132
ag64
ag103
ag107
a(g63
I0
g66
tp133
ag133
ag110
ag65
asg70
(lp134
g72
ag72
ag72
ag76
ag52
ag76
ag72
ag52
ag76
ag52
ag72
ag73
ag76
ag76
ag73
ag73
ag73
ag52
ag52
ag72
ag72
asg74
(lp135
g76
ag52
ag72
ag76
ag52
ag76
ag76
ag52
ag72
ag52
ag76
ag73
ag52
ag76
ag76
ag73
ag76
ag76
ag72
ag72
ag76
asg77
(lp136
g76
ag52
ag72
ag76
ag52
ag76
ag76
ag52
ag72
ag52
ag76
ag73
ag52
ag76
ag76
ag73
ag76
ag76
ag72
ag72
ag76
asaa(lp137
I5
ag39
(g40
tp138
Rp139
g43
(lp140
g45
ag45
ag45
ag45
ag45
ag45
ag45
ag47
ag46
ag48
ag45
asg49
(lp141
I00
aI00
aI00
aI00
aI00
aI00
aI01
aI01
aI01
aI00
aI00
asg51
I11
sg52
g84
sg56
(lp142
(g58
I0
g24
tp143
ag87
ag92
ag87
ag87
ag87
ag92
ag88
ag64
ag107
ag109
asg70
(lp144
g72
ag72
ag72
ag52
ag72
ag72
ag52
ag76
ag73
ag52
ag73
asg74
(lp145
g76
ag52
ag76
ag76
ag76
ag52
ag72
ag76
ag73
ag73
ag76
asg77
(lp146
g76
ag52
ag76
ag76
ag76
ag52
ag72
ag76
ag73
ag73
ag76
asaa(lp147
I6
ag39
(g40
tp148
Rp149
g43
(lp150
g45
ag45
ag47
ag46
ag47
ag47
ag47
ag46
ag46
ag46
ag47
ag46
ag48
ag46
ag45
ag47
ag46
ag47
ag45
ag45
ag47
asg49
(lp151
I00
aI01
aI00
aI01
aI00
aI00
aI00
aI00
aI00
aI01
aI01
aI01
aI01
aI00
aI01
aI00
aI01
aI01
aI00
aI01
aI01
asg51
I21
sg52
g55
sg56
(lp152
(g58
I0
g24
tp153
ag87
ag88
ag89
ag62
ag132
ag132
ag89
ag105
ag90
ag62
ag64
ag107
ag68
a(g63
F1.5707963267948966
g61
tp154
a(g63
F1.5707963267948966
g54
tp155
a(g58
F1.5707963267948966
g54
tp156
a(g58
F1.5707963267948966
g61
tp157
a(g63
F1.5707963267948966
g61
tp158
a(g63
F1.5707963267948966
g61
tp159
ag155
asg70
(lp160
g73
ag72
ag76
ag73
ag76
ag76
ag76
ag72
ag76
ag73
ag76
ag73
ag52
ag76
ag72
ag76
ag73
ag76
ag73
ag52
ag76
asg74
(lp161
g76
ag72
ag72
ag73
ag52
ag52
ag72
ag52
ag76
ag73
ag76
ag73
ag52
ag72
ag72
ag52
ag73
ag76
ag76
ag72
ag76
asg77
(lp162
g76
ag72
ag72
ag73
ag52
ag52
ag72
ag52
ag76
ag73
ag76
ag73
ag52
ag72
ag72
ag52
ag73
ag76
ag76
ag72
ag76
asaa(lp163
I7
ag39
(g40
tp164
Rp165
g43
(lp166
g45
ag46
ag46
ag46
ag46
ag47
ag46
ag48
ag46
ag47
asg49
(lp167
I00
aI00
aI00
aI00
aI01
aI01
aI01
aI01
aI01
aI01
asg51
I10
sg52
g55
sg56
(lp168
(g58
I0
g24
tp169
ag60
ag105
ag105
ag90
ag62
ag64
ag107
ag68
ag69
asg70
(lp170
g73
ag52
ag52
ag72
ag52
ag76
ag73
ag52
ag73
ag76
asg74
(lp171
g73
ag52
ag52
ag76
ag73
ag76
ag73
ag52
ag73
ag76
asg77
(lp172
g73
ag52
ag52
ag76
ag73
ag76
ag73
ag52
ag73
ag76
asaa(lp173
I8
ag39
(g40
tp174
Rp175
g43
(lp176
g45
ag47
ag46
ag45
ag45
ag47
ag46
ag46
ag48
ag46
ag45
ag47
asg49
(lp177
I01
aI00
aI00
aI00
aI01
aI01
aI00
aI01
aI01
aI00
aI01
aI01
asg51
I12
sg52
g55
sg56
(lp178
(g58
I0
g24
tp179
ag88
ag89
ag91
ag87
ag88
ag64
ag131
ag107
ag68
ag154
ag155
asg70
(lp180
g72
ag72
ag73
ag72
ag72
ag76
ag52
ag73
ag52
ag73
ag73
ag76
asg74
(lp181
g72
ag72
ag72
ag76
ag72
ag76
ag52
ag73
ag52
ag72
ag72
ag76
asg77
(lp182
g72
ag72
ag72
ag76
ag72
ag76
ag52
ag73
ag52
ag72
ag72
ag76
asaa(lp183
I9
ag39
(g40
tp184
Rp185
g43
(lp186
g45
ag46
ag46
ag46
ag45
ag47
ag46
ag46
ag45
ag45
ag47
ag47
ag46
ag48
ag46
ag48
ag46
ag45
ag48
ag45
ag48
ag45
ag46
ag46
ag45
asg49
(lp187
I00
aI00
aI00
aI00
aI01
aI00
aI00
aI00
aI00
aI01
aI00
aI01
aI01
aI01
aI00
aI00
aI00
aI01
aI00
aI01
aI00
aI00
aI00
aI00
aI00
asg51
I25
sg52
g84
sg56
(lp188
(g58
I0
g24
tp189
ag60
ag90
ag90
ag91
ag88
ag89
ag105
ag91
ag92
ag88
ag132
ag64
ag107
ag68
ag108
ag110
ag65
ag67
ag109
ag67
ag109
ag106
ag103
ag65
asg70
(lp190
g72
ag72
ag76
ag72
ag72
ag76
ag73
ag73
ag76
ag73
ag72
ag76
ag73
ag73
ag76
ag76
ag73
ag72
ag52
ag72
ag73
ag73
ag72
ag73
ag72
asg74
(lp191
g73
ag76
ag76
ag72
ag72
ag72
ag52
ag72
ag52
ag72
ag52
ag76
ag73
ag52
ag76
ag72
ag72
ag72
ag73
ag72
ag73
ag73
ag76
ag72
ag76
asg77
(lp192
g73
ag76
ag76
ag72
ag72
ag72
ag52
ag72
ag52
ag72
ag52
ag76
ag73
ag52
ag76
ag72
ag72
ag72
ag73
ag72
ag73
ag73
ag76
ag72
ag76
asaatp193
Rp194
aatp195
Rp196
.