ccollections
OrderedDict
p0
((lp1
(lp2
S'index'
p3
aI434
aa(lp4
S'combination_dict'
p5
ag0
((lp6
(lp7
S'r_to_g_config'
p8
aS'tr'
p9
aa(lp10
S'num_turns'
p11
aI1
aa(lp12
S'start_direction'
p13
acutils_ms
StartDirection
p14
(I3
tp15
Rp16
aa(lp17
S'assistance_type'
p18
acutils_ms
AssistanceType
p19
(I1
tp20
Rp21
aa(lp22
S'start_mode'
p23
aS't'
p24
aa(lp25
S'ui_given_a_noise'
p26
aF0.5
aa(lp27
S'um_given_ui_noise'
p28
aF0.7
aa(lp29
S'entropy_threshold'
p30
aF0.7
aa(lp31
S'is_assistance'
p32
aI01
aatp33
Rp34
aa(lp35
S'trials'
p36
ag0
((lp37
(lp38
I0
accollections
defaultdict
p39
(c__builtin__
list
p40
tp41
Rp42
S'a'
p43
(lp44
S'mode_r'
p45
aS'move_p'
p46
aS'mode_l'
p47
ag45
ag46
ag47
ag47
ag46
ag47
ag47
ag45
ag46
ag47
ag46
ag47
ag45
ag45
ag47
ag45
ag47
ag46
ag47
ag46
asS'assistance_match_with_ground_truth'
p48
(lp49
I01
aI01
aI00
aI01
aI01
aI00
aI00
aI00
aI00
aI00
aI01
aI01
aI01
aI00
aI00
aI00
aI00
aI00
aI00
aI00
aI01
aI01
aI01
asS'total_steps'
p50
I23
sS'sp'
p51
(S'p2'
p52
F1.5707963267948966
S'y'
p53
tp54
sS's'
p55
(lp56
(S'p0'
p57
I0
g24
tp58
a(g57
I0
S'x'
p59
tp60
a(S'p1'
p61
I0
g59
tp62
a(g61
I0
g53
tp63
a(g61
I0
S't'
p64
tp65
a(g61
F1.5707963267948966
g64
tp66
a(g61
F1.5707963267948966
g64
tp67
a(g61
I0
g64
tp68
a(g61
I0
g59
tp69
a(g61
I0
g59
tp70
ag63
ag65
ag66
a(g61
F1.5707963267948966
g53
tp71
a(g61
F1.5707963267948966
g64
tp72
a(g61
F1.5707963267948966
g59
tp73
a(g61
F1.5707963267948966
g59
tp74
a(g61
F1.5707963267948966
g64
tp75
ag73
ag75
ag68
ag66
ag71
asS'ui'
p76
(lp77
S'hp'
p78
ag51
ag78
aS'hs'
p79
ag51
ag79
ag79
ag79
aS'ss'
p80
ag78
ag79
ag51
ag79
ag51
ag80
ag78
ag79
ag78
ag80
ag80
ag51
ag79
ag79
asS'um_before'
p81
(lp82
g78
ag79
ag78
ag78
ag51
ag51
ag80
ag78
ag80
ag78
ag78
ag79
ag79
ag78
ag78
ag80
ag79
ag78
ag79
ag80
ag51
ag79
ag51
asS'um_after'
p83
(lp84
g78
ag51
ag78
ag78
ag51
ag51
ag80
ag78
ag80
ag78
ag78
ag51
ag79
ag78
ag78
ag80
ag79
ag78
ag79
ag80
ag51
ag79
ag51
asaa(lp85
I1
ag39
(g40
tp86
Rp87
g43
(lp88
g45
ag47
ag46
ag47
ag45
asg48
(lp89
I00
aI01
aI01
aI00
aI00
asg50
I5
sg51
(g52
I0
g53
tp90
sg55
(lp91
(g57
I0
g24
tp92
a(g57
I0
g53
tp93
a(g57
I0
g59
tp94
ag62
ag63
asg76
(lp95
g79
ag79
ag51
ag79
ag79
asg81
(lp96
g79
ag79
ag79
ag78
ag51
asg83
(lp97
g79
ag79
ag51
ag78
ag51
asaa(lp98
I2
ag39
(g40
tp99
Rp100
g43
(lp101
g45
ag45
ag45
ag46
ag47
ag46
ag47
ag47
ag46
ag47
ag47
ag46
ag47
ag47
ag47
ag45
ag47
ag46
asg48
(lp102
I00
aI00
aI01
aI01
aI01
aI01
aI00
aI01
aI00
aI00
aI01
aI00
aI00
aI00
aI00
aI00
aI01
aI01
asg50
I18
sg51
g54
sg55
(lp103
(g57
I0
g24
tp104
a(g57
I0
g64
tp105
ag105
ag60
ag62
a(g61
I0
g64
tp106
ag66
ag67
ag71
ag72
ag67
ag71
ag72
ag67
ag67
ag73
ag75
ag71
asg76
(lp107
g78
ag78
ag78
ag51
ag79
ag51
ag79
ag79
ag51
ag79
ag79
ag79
ag78
ag51
ag80
ag78
ag79
ag51
asg81
(lp108
g51
ag51
ag78
ag79
ag79
ag79
ag51
ag79
ag78
ag51
ag79
ag78
ag51
ag51
ag78
ag79
ag79
ag79
asg83
(lp109
g51
ag51
ag78
ag51
ag79
ag51
ag51
ag79
ag78
ag51
ag79
ag78
ag51
ag51
ag78
ag79
ag79
ag51
asaa(lp110
I3
ag39
(g40
tp111
Rp112
g43
(lp113
g45
ag46
ag47
ag45
ag46
ag47
ag46
asg48
(lp114
I01
aI01
aI00
aI01
aI01
aI01
aI01
asg50
I7
sg51
g54
sg55
(lp115
(g57
I0
g24
tp116
ag60
ag62
ag63
ag65
ag66
ag71
asg76
(lp117
g78
ag79
ag79
ag51
ag51
ag51
ag51
asg81
(lp118
g78
ag79
ag78
ag78
ag51
ag79
ag51
asg83
(lp119
g78
ag51
ag78
ag78
ag51
ag79
ag51
asaa(lp120
I4
ag39
(g40
tp121
Rp122
g43
(lp123
g45
ag46
ag47
ag47
ag47
ag45
ag46
ag47
ag46
ag47
ag47
ag45
ag47
ag46
asg48
(lp124
I01
aI01
aI00
aI00
aI00
aI01
aI00
aI01
aI01
aI00
aI00
aI00
aI01
aI01
asg50
I14
sg51
g54
sg55
(lp125
(g57
I0
g24
tp126
ag60
ag62
ag70
ag70
ag63
ag65
ag69
ag106
ag66
ag67
ag73
ag75
ag71
asg76
(lp127
g78
ag79
ag80
ag51
ag78
ag78
ag51
ag79
ag51
ag51
ag78
ag79
ag79
ag79
asg81
(lp128
g78
ag51
ag80
ag80
ag78
ag78
ag78
ag79
ag79
ag51
ag78
ag79
ag79
ag51
asg83
(lp129
g78
ag51
ag80
ag80
ag78
ag78
ag78
ag79
ag51
ag51
ag78
ag79
ag79
ag51
asaa(lp130
I5
ag39
(g40
tp131
Rp132
g43
(lp133
g45
ag45
ag46
ag47
ag47
ag46
ag47
ag47
ag46
asg48
(lp134
I00
aI01
aI01
aI00
aI01
aI01
aI00
aI01
aI01
asg50
I9
sg51
g54
sg55
(lp135
(g57
I0
g24
tp136
a(g57
I0
g64
tp137
ag60
ag62
ag70
ag106
ag66
ag67
ag71
asg76
(lp138
g80
ag78
ag51
ag80
ag79
ag51
ag78
ag79
ag51
asg81
(lp139
g80
ag78
ag79
ag80
ag79
ag51
ag51
ag79
ag79
asg83
(lp140
g80
ag78
ag51
ag80
ag79
ag51
ag51
ag79
ag51
asaa(lp141
I6
ag39
(g40
tp142
Rp143
g43
(lp144
g45
ag46
ag47
ag47
ag46
ag47
ag45
ag47
ag46
ag46
ag47
ag46
ag47
ag45
ag46
ag47
ag47
ag47
ag46
ag45
ag45
ag47
ag46
ag47
ag45
ag45
ag47
ag46
asg48
(lp145
I01
aI01
aI00
aI01
aI01
aI00
aI00
aI00
aI00
aI01
aI01
aI00
aI00
aI01
aI00
aI00
aI00
aI01
aI01
aI00
aI00
aI00
aI01
aI00
aI00
aI00
aI01
aI01
asg50
I28
sg51
g54
sg55
(lp146
(g57
I0
g24
tp147
ag60
ag62
ag70
ag106
ag66
ag73
ag75
ag68
a(g61
I0
g64
tp148
ag66
ag71
a(g57
F1.5707963267948966
g53
tp149
a(g57
F1.5707963267948966
g64
tp150
a(g57
F1.5707963267948966
g59
tp151
a(g57
F1.5707963267948966
g53
tp152
a(g57
F1.5707963267948966
g53
tp153
ag153
a(g57
F1.5707963267948966
g59
tp154
a(g61
F1.5707963267948966
g59
tp155
ag74
ag75
ag68
ag66
ag73
a(g61
F1.5707963267948966
g59
tp156
ag75
ag71
asg76
(lp157
g78
ag51
ag80
ag79
ag51
ag80
ag78
ag78
ag78
ag51
ag79
ag79
ag79
ag78
ag79
ag80
ag80
ag80
ag51
ag79
ag79
ag80
ag51
ag80
ag78
ag51
ag79
ag51
asg81
(lp158
g78
ag51
ag80
ag79
ag51
ag78
ag79
ag80
ag80
ag51
ag79
ag80
ag78
ag78
ag78
ag80
ag80
ag79
ag79
ag80
ag79
ag80
ag51
ag78
ag51
ag79
ag79
ag79
asg83
(lp159
g78
ag51
ag80
ag79
ag51
ag78
ag79
ag80
ag80
ag51
ag79
ag80
ag78
ag78
ag78
ag80
ag80
ag79
ag51
ag80
ag79
ag80
ag51
ag78
ag51
ag79
ag79
ag51
asaa(lp160
I7
ag39
(g40
tp161
Rp162
g43
(lp163
g45
ag46
ag47
ag47
ag45
ag47
ag45
asg48
(lp164
I01
aI01
aI00
aI00
aI00
aI00
aI00
asg50
I7
sg51
g90
sg55
(lp165
(g57
I0
g24
tp166
ag60
ag62
ag70
ag63
a(g61
I0
g59
tp167
ag63
asg76
(lp168
g78
ag51
ag79
ag80
ag79
ag78
ag51
asg81
(lp169
g78
ag51
ag80
ag78
ag79
ag78
ag51
asg83
(lp170
g78
ag51
ag80
ag78
ag79
ag78
ag51
asaa(lp171
I8
ag39
(g40
tp172
Rp173
g43
(lp174
g45
ag47
ag46
ag47
ag47
ag45
ag47
ag45
ag47
ag47
ag46
ag47
ag47
ag46
ag47
ag46
ag47
ag45
ag46
asg48
(lp175
I00
aI01
aI01
aI00
aI00
aI00
aI00
aI00
aI00
aI01
aI00
aI00
aI01
aI01
aI00
aI01
aI00
aI01
aI01
asg50
I19
sg51
g54
sg55
(lp176
(g57
I0
g24
tp177
ag93
ag94
ag62
a(g61
I0
g59
tp178
ag63
ag167
ag63
ag167
ag70
ag106
ag69
ag178
ag106
ag66
ag68
ag66
ag73
a(g61
F1.5707963267948966
g53
tp179
asg76
(lp180
g78
ag51
ag51
ag78
ag78
ag51
ag79
ag51
ag78
ag79
ag51
ag79
ag79
ag78
ag80
ag51
ag51
ag78
ag51
asg81
(lp181
g79
ag79
ag51
ag51
ag78
ag79
ag78
ag79
ag80
ag79
ag78
ag51
ag79
ag51
ag80
ag79
ag78
ag78
ag51
asg83
(lp182
g79
ag79
ag51
ag51
ag78
ag79
ag78
ag79
ag80
ag79
ag78
ag51
ag79
ag51
ag80
ag51
ag78
ag78
ag51
asaa(lp183
I9
ag39
(g40
tp184
Rp185
g43
(lp186
g45
ag45
ag47
ag46
ag47
ag45
ag46
ag47
ag46
ag47
ag45
ag45
ag45
ag45
ag47
ag46
asg48
(lp187
I00
aI00
aI01
aI01
aI00
aI01
aI01
aI00
aI01
aI00
aI00
aI00
aI00
aI00
aI01
aI01
asg50
I16
sg51
g54
sg55
(lp188
(g57
I0
g24
tp189
ag105
ag93
ag94
ag62
ag63
ag65
ag66
ag68
ag66
ag73
ag74
ag156
ag74
ag75
ag71
asg76
(lp190
g78
ag78
ag51
ag51
ag79
ag78
ag51
ag80
ag51
ag78
ag80
ag78
ag78
ag80
ag79
ag51
asg81
(lp191
g51
ag79
ag79
ag79
ag78
ag78
ag79
ag80
ag51
ag78
ag80
ag51
ag80
ag79
ag79
ag79
asg83
(lp192
g51
ag79
ag79
ag51
ag78
ag78
ag51
ag80
ag51
ag78
ag80
ag51
ag80
ag79
ag79
ag51
asaatp193
Rp194
aatp195
Rp196
.