ccollections
OrderedDict
p0
((lp1
(lp2
S'index'
p3
aI906
aa(lp4
S'combination_dict'
p5
ag0
((lp6
(lp7
S'r_to_g_config'
p8
aS'tr'
p9
aa(lp10
S'num_turns'
p11
aI1
aa(lp12
S'start_direction'
p13
acutils_ms
StartDirection
p14
(I1
tp15
Rp16
aa(lp17
S'assistance_type'
p18
acutils_ms
AssistanceType
p19
(I0
tp20
Rp21
aa(lp22
S'start_mode'
p23
aS't'
p24
aa(lp25
S'ui_given_a_noise'
p26
aF0.5
aa(lp27
S'um_given_ui_noise'
p28
aF0.5
aa(lp29
S'entropy_threshold'
p30
aF0.8
aa(lp31
S'is_assistance'
p32
aI01
aatp33
Rp34
aa(lp35
S'trials'
p36
ag0
((lp37
(lp38
I0
accollections
defaultdict
p39
(c__builtin__
list
p40
tp41
Rp42
S'a'
p43
(lp44
S'mode_l'
p45
ag45
aS'move_p'
p46
aS'mode_r'
p47
ag46
ag47
ag47
ag45
ag46
asS'assistance_match_with_ground_truth'
p48
(lp49
I00
aI01
aI01
aI01
aI01
aI00
aI00
aI01
aI01
asS'total_steps'
p50
I9
sS'sp'
p51
(S'p2'
p52
F1.5707963267948966
S'x'
p53
tp54
sS's'
p55
(lp56
(S'p0'
p57
I0
g24
tp58
a(g57
I0
S't'
p59
tp60
a(g57
I0
S'y'
p61
tp62
a(S'p1'
p63
I0
g61
tp64
a(g63
I0
g59
tp65
a(g63
F1.5707963267948966
g59
tp66
ag66
a(g63
F1.5707963267948966
g61
tp67
a(g63
F1.5707963267948966
g53
tp68
asS'ui'
p69
(lp70
S'ss'
p71
aS'hs'
p72
ag51
aS'hp'
p73
ag51
ag73
ag72
ag72
ag51
asS'um_before'
p74
(lp75
g71
ag72
ag51
ag73
ag51
ag71
ag72
ag72
ag51
asS'um_after'
p76
(lp77
g71
ag72
ag51
ag73
ag51
aNag72
ag72
ag51
asaa(lp78
I1
ag39
(g40
tp79
Rp80
g43
(lp81
g45
ag45
ag46
ag46
ag46
ag46
ag46
ag46
ag45
ag45
ag45
ag46
ag47
ag47
ag47
ag45
ag47
ag47
ag45
ag45
ag45
ag45
ag45
ag46
ag47
ag45
ag45
ag45
ag45
ag47
ag45
ag45
ag45
ag46
ag47
ag47
ag45
ag45
ag46
ag46
ag45
ag45
ag45
ag47
ag47
ag46
ag46
ag46
ag46
ag47
ag47
ag47
ag45
ag47
ag47
ag47
ag45
ag45
ag46
ag46
ag46
ag47
ag47
ag47
ag45
ag45
ag45
ag45
ag47
ag46
ag46
ag47
ag45
ag46
ag47
ag47
ag46
ag46
asg48
(lp82
I00
aI01
aI00
aI00
aI00
aI00
aI00
aI00
aI00
aI00
aI01
aI01
aI00
aI00
aI00
aI00
aI00
aI00
aI00
aI00
aI00
aI00
aI01
aI01
aI00
aI00
aI00
aI00
aI00
aI00
aI00
aI00
aI01
aI01
aI00
aI00
aI00
aI01
aI00
aI00
aI00
aI00
aI00
aI00
aI01
aI00
aI00
aI00
aI01
aI00
aI00
aI00
aI00
aI00
aI00
aI00
aI00
aI01
aI00
aI00
aI01
aI00
aI00
aI00
aI00
aI00
aI00
aI00
aI01
aI00
aI01
aI00
aI01
aI01
aI00
aI01
aI00
aI01
asg50
I78
sg51
g54
sg55
(lp83
(g57
I0
g24
tp84
ag84
ag62
ag62
ag62
ag62
ag62
ag62
a(g57
I0
g59
tp85
ag85
ag60
ag62
ag64
a(g63
I0
g61
tp86
ag86
a(g63
I0
g53
tp87
a(g57
I0
g53
tp88
ag88
a(g57
I0
g59
tp89
ag60
ag60
ag60
ag60
ag62
ag64
ag87
ag87
ag87
ag87
ag88
ag89
ag89
ag89
ag62
ag64
ag86
ag87
ag87
a(g63
I0
g59
tp90
ag90
a(g63
I0
g53
tp91
ag91
ag91
ag88
ag88
a(g57
I0
g61
tp92
ag92
ag92
ag92
ag64
ag64
ag86
ag87
ag88
a(g57
I0
g53
tp93
ag93
ag89
ag89
ag62
ag62
ag62
ag64
ag64
ag64
ag87
ag87
ag87
ag87
ag88
ag92
ag92
ag64
ag87
ag90
ag66
ag66
a(g63
F1.5707963267948966
g53
tp94
ag94
asg69
(lp95
g72
ag72
ag51
ag51
ag51
ag51
ag51
ag73
ag72
ag72
ag72
ag51
ag51
ag73
ag73
ag72
ag73
ag51
ag72
ag72
ag72
ag51
ag72
ag51
ag72
ag72
ag72
ag72
ag72
ag72
ag72
ag72
ag72
ag51
ag51
ag73
ag72
ag72
ag72
ag72
ag73
ag72
ag71
ag73
ag73
ag72
ag72
ag72
ag51
ag71
ag51
ag72
ag71
ag51
ag73
ag73
ag72
ag72
ag51
ag51
ag51
ag73
ag71
ag72
ag72
ag72
ag72
ag72
ag73
ag51
ag51
ag72
ag72
ag51
ag73
ag72
ag73
ag51
asg74
(lp96
g73
ag72
ag71
ag72
ag71
ag72
ag71
ag73
ag51
ag71
ag72
ag51
ag51
ag51
ag72
ag71
ag71
ag72
ag71
ag73
ag51
ag51
ag72
ag51
ag72
ag73
ag73
ag51
ag71
ag72
ag51
ag51
ag72
ag51
ag51
ag72
ag73
ag72
ag72
ag73
ag51
ag73
ag71
ag71
ag73
ag72
ag71
ag72
ag51
ag71
ag51
ag72
ag71
ag51
ag51
ag72
ag51
ag72
ag72
ag71
ag51
ag71
ag71
ag72
ag51
ag51
ag51
ag71
ag73
ag71
ag51
ag72
ag72
ag51
ag71
ag73
ag72
ag51
asg76
(lp97
Nag72
aNaNaNaNaNag73
aNag71
ag72
ag51
ag51
ag51
ag72
ag71
aNag72
ag71
aNaNaNag72
ag51
ag72
aNaNaNag71
ag72
aNaNag72
ag51
ag51
ag72
aNag72
aNag73
aNaNag71
aNag73
aNaNaNag51
aNag51
ag72
ag71
ag51
ag51
ag72
aNag72
aNaNag51
aNaNag72
aNaNaNag71
ag73
aNag51
ag72
ag72
ag51
aNag73
aNag51
asaa(lp98
I2
ag39
(g40
tp99
Rp100
g43
(lp101
g45
ag45
ag45
ag46
ag47
ag46
ag47
ag47
ag47
ag47
ag45
ag45
ag46
asg48
(lp102
I00
aI00
aI01
aI01
aI01
aI01
aI00
aI00
aI00
aI00
aI00
aI01
aI01
asg50
I13
sg51
g54
sg55
(lp103
(g57
I0
g24
tp104
ag104
ag60
ag62
ag64
ag65
ag66
a(g63
F1.5707963267948966
g59
tp105
ag105
ag105
ag67
a(g63
F1.5707963267948966
g61
tp106
ag68
asg69
(lp107
g72
ag72
ag51
ag51
ag73
ag51
ag73
ag71
ag51
ag72
ag72
ag72
ag51
asg74
(lp108
g51
ag71
ag72
ag51
ag73
ag51
ag51
ag71
ag51
ag72
ag71
ag72
ag51
asg76
(lp109
Nag71
ag72
ag51
ag73
ag51
ag51
aNag51
ag72
ag71
ag72
ag51
asaa(lp110
I3
ag39
(g40
tp111
Rp112
g43
(lp113
g45
ag45
ag46
ag46
ag47
ag47
ag46
ag47
ag46
ag46
asg48
(lp114
I00
aI01
aI00
aI01
aI00
aI01
aI01
aI01
aI00
aI01
asg50
I10
sg51
g54
sg55
(lp115
(g57
I0
g24
tp116
ag116
ag62
ag62
ag64
ag86
ag65
ag66
ag94
ag94
asg69
(lp117
g72
ag72
ag51
ag51
ag73
ag73
ag51
ag73
ag51
ag51
asg74
(lp118
g51
ag72
ag71
ag51
ag51
ag73
ag51
ag73
ag72
ag51
asg76
(lp119
Nag72
aNag51
ag51
ag73
ag51
ag73
aNag51
asaa(lp120
I4
ag39
(g40
tp121
Rp122
g43
(lp123
g45
ag45
ag46
ag47
ag47
ag47
ag47
ag46
ag46
ag47
ag47
ag47
ag46
asg48
(lp124
I00
aI01
aI01
aI00
aI00
aI00
aI01
aI00
aI01
aI00
aI00
aI01
aI01
asg50
I13
sg51
g54
sg55
(lp125
(g57
I0
g24
tp126
ag126
ag62
ag64
ag64
ag86
ag86
ag65
ag65
ag66
ag105
ag105
ag94
asg69
(lp127
g72
ag72
ag51
ag71
ag73
ag71
ag72
ag72
ag51
ag73
ag73
ag73
ag51
asg74
(lp128
g51
ag72
ag51
ag71
ag51
ag71
ag73
ag72
ag51
ag51
ag71
ag73
ag51
asg76
(lp129
Nag72
ag51
aNag51
aNag73
aNag51
ag51
aNag73
ag51
asaa(lp130
I5
ag39
(g40
tp131
Rp132
g43
(lp133
g45
ag46
ag45
ag45
ag45
ag45
ag46
ag47
ag46
ag47
ag47
ag46
ag46
asg48
(lp134
I01
aI00
aI00
aI00
aI00
aI01
aI01
aI01
aI01
aI00
aI01
aI00
aI01
asg50
I13
sg51
g54
sg55
(lp135
(g57
I0
g24
tp136
ag62
ag85
ag60
ag60
ag60
ag62
ag64
ag65
ag66
ag66
ag94
ag94
asg69
(lp137
g72
ag51
ag72
ag72
ag72
ag72
ag51
ag73
ag51
ag71
ag73
ag71
ag51
asg74
(lp138
g72
ag73
ag71
ag51
ag51
ag72
ag51
ag73
ag51
ag71
ag73
ag71
ag51
asg76
(lp139
g72
ag73
ag71
aNaNag72
ag51
ag73
ag51
aNag73
aNag51
asaa(lp140
I6
ag39
(g40
tp141
Rp142
g43
(lp143
g45
ag45
ag46
ag47
ag45
ag45
ag45
ag45
ag46
ag47
ag45
ag45
ag45
ag46
ag46
asg48
(lp144
I00
aI01
aI01
aI00
aI00
aI00
aI00
aI01
aI01
aI00
aI00
aI00
aI01
aI00
aI01
asg50
I15
sg51
g54
sg55
(lp145
(g57
I0
g24
tp146
ag146
ag62
ag64
ag87
ag87
ag87
ag87
ag90
ag66
ag67
ag67
ag67
ag68
ag68
asg69
(lp147
g72
ag72
ag51
ag72
ag72
ag51
ag73
ag72
ag51
ag73
ag72
ag72
ag72
ag51
ag51
asg74
(lp148
g51
ag72
ag51
ag72
ag51
ag51
ag73
ag72
ag51
ag72
ag51
ag51
ag72
ag72
ag51
asg76
(lp149
Nag72
ag51
ag72
aNaNaNag72
ag51
ag72
aNaNag72
aNag51
asaa(lp150
I7
ag39
(g40
tp151
Rp152
g43
(lp153
g45
ag46
ag47
ag46
ag47
ag47
ag47
ag47
ag47
ag45
ag45
ag45
ag46
asg48
(lp154
I01
aI01
aI01
aI01
aI00
aI00
aI00
aI00
aI00
aI00
aI00
aI01
aI01
asg50
I13
sg51
g54
sg55
(lp155
(g57
I0
g24
tp156
ag62
ag64
ag65
ag66
ag105
ag105
ag105
ag105
ag67
ag67
ag106
ag68
asg69
(lp157
g72
ag51
ag73
ag51
ag73
ag73
ag73
ag73
ag72
ag71
ag72
ag72
ag51
asg74
(lp158
g72
ag51
ag73
ag51
ag51
ag51
ag71
ag71
ag72
ag51
ag71
ag72
ag51
asg76
(lp159
g72
ag51
ag73
ag51
ag51
ag51
aNaNag72
aNag71
ag72
ag51
asaa(lp160
I8
ag39
(g40
tp161
Rp162
g43
(lp163
g45
ag45
ag45
ag46
ag47
ag45
ag46
ag46
ag47
ag47
ag47
ag46
asg48
(lp164
I00
aI00
aI01
aI01
aI00
aI01
aI00
aI01
aI00
aI00
aI01
aI01
asg50
I12
sg51
g54
sg55
(lp165
(g57
I0
g24
tp166
ag166
ag166
ag62
ag64
ag87
ag90
ag90
ag66
ag66
ag105
ag94
asg69
(lp167
g73
ag72
ag51
ag51
ag73
ag72
ag51
ag51
ag73
ag73
ag73
ag51
asg74
(lp168
g73
ag51
ag72
ag51
ag72
ag72
ag72
ag51
ag71
ag51
ag73
ag51
asg76
(lp169
NaNag72
ag51
ag72
ag72
aNag51
aNag51
ag73
ag51
asaa(lp170
I9
ag39
(g40
tp171
Rp172
g43
(lp173
g45
ag45
ag45
ag45
ag46
ag47
ag46
ag47
ag45
ag46
asg48
(lp174
I00
aI00
aI00
aI01
aI01
aI01
aI01
aI00
aI01
aI01
asg50
I10
sg51
g54
sg55
(lp175
(g57
I0
g24
tp176
ag176
ag176
ag60
ag62
ag64
ag65
ag66
ag67
ag68
asg69
(lp177
g72
ag72
ag71
ag72
ag51
ag73
ag51
ag72
ag72
ag51
asg74
(lp178
g73
ag51
ag71
ag72
ag51
ag73
ag51
ag72
ag72
ag51
asg76
(lp179
NaNag71
ag72
ag51
ag73
ag51
ag72
ag72
ag51
asaatp180
Rp181
aatp182
Rp183
.