ccollections
OrderedDict
p0
((lp1
(lp2
S'index'
p3
aI6110
aa(lp4
S'combination_dict'
p5
ag0
((lp6
(lp7
S'r_to_g_config'
p8
aS'tl'
p9
aa(lp10
S'num_turns'
p11
aI2
aa(lp12
S'start_direction'
p13
acutils_ms
StartDirection
p14
(I1
tp15
Rp16
aa(lp17
S'assistance_type'
p18
acutils_ms
AssistanceType
p19
(I1
tp20
Rp21
aa(lp22
S'start_mode'
p23
aS'x'
p24
aa(lp25
S'ui_given_a_noise'
p26
aF0.1
aa(lp27
S'um_given_ui_noise'
p28
aF0.7
aa(lp29
S'entropy_threshold'
p30
aF0.5
aa(lp31
S'is_assistance'
p32
aI01
aatp33
Rp34
aa(lp35
S'trials'
p36
ag0
((lp37
(lp38
I0
accollections
defaultdict
p39
(c__builtin__
list
p40
tp41
Rp42
S'a'
p43
(lp44
S'mode_r'
p45
aS'move_p'
p46
aS'mode_l'
p47
aS'move_n'
p48
ag47
ag46
ag47
ag46
asS'assistance_match_with_ground_truth'
p49
(lp50
I01
aI01
aI01
aI01
aI01
aI01
aI01
aI01
asS'total_steps'
p51
I8
sS'sp'
p52
(S'p3'
p53
F1.5707963267948966
S'y'
p54
tp55
sS's'
p56
(lp57
(S'p0'
p58
I0
g24
tp59
a(g58
I0
g54
tp60
a(S'p1'
p61
I0
g54
tp62
a(g61
I0
S'x'
p63
tp64
a(S'p2'
p65
I0
g63
tp66
a(g65
I0
S't'
p67
tp68
a(g65
F1.5707963267948966
g67
tp69
a(g65
F1.5707963267948966
g54
tp70
asS'ui'
p71
(lp72
S'hp'
p73
ag52
aS'hs'
p74
aS'ss'
p75
ag74
ag52
ag74
ag52
asS'um_before'
p76
(lp77
g74
ag52
ag73
ag75
ag74
ag52
ag74
ag52
asS'um_after'
p78
(lp79
g73
ag52
ag74
ag75
ag74
ag52
ag74
ag52
asaa(lp80
I1
ag39
(g40
tp81
Rp82
g43
(lp83
g45
ag46
ag45
ag46
ag47
ag48
ag47
ag46
ag47
ag46
asg49
(lp84
I01
aI00
aI01
aI01
aI01
aI01
aI01
aI01
aI01
aI01
asg51
I10
sg52
g55
sg56
(lp85
(g58
I0
g24
tp86
ag60
a(g58
I0
g63
tp87
ag60
ag62
ag64
ag66
ag68
ag69
ag70
asg71
(lp88
g73
ag74
ag73
ag52
ag74
ag75
ag73
ag52
ag74
ag52
asg76
(lp89
g73
ag74
ag73
ag52
ag73
ag74
ag74
ag75
ag74
ag73
asg78
(lp90
g73
ag74
ag73
ag52
ag74
ag75
ag74
ag52
ag74
ag52
asaa(lp91
I2
ag39
(g40
tp92
Rp93
g43
(lp94
g45
ag46
ag47
ag48
ag47
ag48
ag47
ag47
ag46
ag45
ag46
ag47
ag46
asg49
(lp95
I01
aI01
aI01
aI00
aI01
aI01
aI00
aI01
aI00
aI01
aI01
aI01
aI01
asg51
I13
sg52
g55
sg56
(lp96
(g58
I0
g24
tp97
ag60
ag62
ag64
a(g61
I0
g54
tp98
ag64
ag66
a(g65
I0
g63
tp99
ag68
a(g65
I0
g54
tp100
a(g65
I0
g67
tp101
ag69
ag70
asg71
(lp102
g73
ag52
ag73
ag74
ag74
ag75
ag74
ag74
ag74
ag73
ag52
ag74
ag74
asg76
(lp103
g73
ag73
ag74
ag73
ag74
ag74
ag75
ag74
ag74
ag74
ag52
ag74
ag73
asg78
(lp104
g73
ag52
ag74
ag73
ag74
ag75
ag75
ag74
ag74
ag73
ag52
ag74
ag52
asaa(lp105
I3
ag39
(g40
tp106
Rp107
g43
(lp108
g45
ag46
ag47
ag48
ag47
ag46
ag47
ag46
asg49
(lp109
I01
aI01
aI01
aI01
aI01
aI01
aI01
aI01
asg51
I8
sg52
g55
sg56
(lp110
(g58
I0
g24
tp111
ag60
ag62
ag64
ag66
ag68
ag69
ag70
asg71
(lp112
g73
ag52
ag74
ag75
ag74
ag52
ag74
ag52
asg76
(lp113
g74
ag73
ag73
ag75
ag52
ag75
ag74
ag73
asg78
(lp114
g73
ag52
ag74
ag75
ag74
ag52
ag74
ag52
asaa(lp115
I4
ag39
(g40
tp116
Rp117
g43
(lp118
g45
ag45
ag46
ag47
ag48
ag47
ag46
ag47
ag46
asg49
(lp119
I00
aI01
aI01
aI01
aI01
aI01
aI01
aI01
aI01
asg51
I9
sg52
g55
sg56
(lp120
(g58
I0
g24
tp121
a(g58
I0
g63
tp122
ag60
ag62
ag64
ag66
ag68
ag69
ag70
asg71
(lp123
g73
ag73
ag52
ag74
ag75
ag74
ag52
ag52
ag52
asg76
(lp124
g75
ag73
ag75
ag73
ag74
ag74
ag73
ag52
ag73
asg78
(lp125
g75
ag73
ag52
ag74
ag75
ag74
ag52
ag74
ag52
asaa(lp126
I5
ag39
(g40
tp127
Rp128
g43
(lp129
g45
ag46
ag47
ag48
ag47
ag46
ag47
ag46
asg49
(lp130
I01
aI01
aI01
aI01
aI01
aI01
aI01
aI01
asg51
I8
sg52
g55
sg56
(lp131
(g58
I0
g24
tp132
ag60
ag62
ag64
ag66
ag68
ag69
ag70
asg71
(lp133
g73
ag52
ag74
ag75
ag73
ag52
ag74
ag52
asg76
(lp134
g73
ag75
ag74
ag75
ag73
ag75
ag52
ag52
asg78
(lp135
g73
ag52
ag74
ag75
ag74
ag52
ag74
ag52
asaa(lp136
I6
ag39
(g40
tp137
Rp138
g43
(lp139
g45
ag45
ag46
ag47
ag48
ag47
ag46
ag47
ag46
asg49
(lp140
I00
aI01
aI01
aI01
aI01
aI01
aI01
aI01
aI01
asg51
I9
sg52
g55
sg56
(lp141
(g58
I0
g24
tp142
a(g58
I0
g63
tp143
ag60
ag62
ag64
ag66
ag68
ag69
ag70
asg71
(lp144
g73
ag73
ag52
ag74
ag74
ag74
ag52
ag74
ag52
asg76
(lp145
g52
ag73
ag75
ag52
ag74
ag74
ag73
ag74
ag52
asg78
(lp146
g52
ag73
ag52
ag74
ag75
ag74
ag52
ag74
ag52
asaa(lp147
I7
ag39
(g40
tp148
Rp149
g43
(lp150
g45
ag46
ag47
ag48
ag47
ag46
ag47
ag46
asg49
(lp151
I01
aI01
aI01
aI01
aI01
aI01
aI01
aI01
asg51
I8
sg52
g55
sg56
(lp152
(g58
I0
g24
tp153
ag60
ag62
ag64
ag66
ag68
ag69
ag70
asg71
(lp154
g73
ag52
ag74
ag75
ag74
ag52
ag74
ag73
asg76
(lp155
g74
ag75
ag74
ag75
ag74
ag52
ag74
ag73
asg78
(lp156
g73
ag52
ag74
ag75
ag74
ag52
ag74
ag52
asaa(lp157
I8
ag39
(g40
tp158
Rp159
g43
(lp160
g45
ag46
ag45
ag46
ag47
ag48
ag47
ag47
ag46
ag47
ag46
asg49
(lp161
I01
aI00
aI01
aI01
aI01
aI01
aI00
aI01
aI01
aI01
aI01
asg51
I11
sg52
g55
sg56
(lp162
(g58
I0
g24
tp163
ag60
ag87
ag60
ag62
ag64
ag66
ag99
ag68
ag69
ag70
asg71
(lp164
g73
ag73
ag73
ag52
ag74
ag73
ag74
ag74
ag52
ag74
ag52
asg76
(lp165
g74
ag74
ag73
ag52
ag73
ag74
ag75
ag74
ag75
ag52
ag75
asg78
(lp166
g73
ag74
ag73
ag52
ag74
ag75
ag75
ag74
ag52
ag74
ag52
asaa(lp167
I9
ag39
(g40
tp168
Rp169
g43
(lp170
g45
ag46
ag47
ag47
ag48
ag45
ag46
ag47
ag48
ag47
ag46
ag47
ag46
asg49
(lp171
I01
aI01
aI00
aI01
aI00
aI01
aI01
aI01
aI01
aI01
aI01
aI01
aI01
asg51
I13
sg52
g55
sg56
(lp172
(g58
I0
g24
tp173
ag60
ag62
a(g61
I0
g54
tp174
ag64
a(g58
I0
g63
tp175
ag60
ag62
ag64
ag66
ag68
ag69
ag70
asg71
(lp176
g73
ag52
ag75
ag74
ag75
ag73
ag52
ag73
ag75
ag74
ag52
ag74
ag52
asg76
(lp177
g73
ag73
ag75
ag73
ag52
ag74
ag73
ag74
ag75
ag74
ag75
ag74
ag75
asg78
(lp178
g73
ag52
ag75
ag74
ag52
ag73
ag52
ag74
ag75
ag74
ag52
ag74
ag52
asaatp179
Rp180
aatp181
Rp182
.