ccollections
OrderedDict
p0
((lp1
(lp2
S'index'
p3
aI493
aa(lp4
S'combination_dict'
p5
ag0
((lp6
(lp7
S'r_to_g_config'
p8
aS'tr'
p9
aa(lp10
S'num_turns'
p11
aI1
aa(lp12
S'start_direction'
p13
acutils_ms
StartDirection
p14
(I3
tp15
Rp16
aa(lp17
S'assistance_type'
p18
acutils_ms
AssistanceType
p19
(I1
tp20
Rp21
aa(lp22
S'start_mode'
p23
aS'y'
p24
aa(lp25
S'ui_given_a_noise'
p26
aF0.1
aa(lp27
S'um_given_ui_noise'
p28
aF0.3
aa(lp29
S'entropy_threshold'
p30
aF0.6
aa(lp31
S'is_assistance'
p32
aI00
aatp33
Rp34
aa(lp35
S'trials'
p36
ag0
((lp37
(lp38
I0
accollections
defaultdict
p39
(c__builtin__
list
p40
tp41
Rp42
S'a'
p43
(lp44
S'mode_l'
p45
ag45
ag45
aS'move_p'
p46
ag45
ag45
ag45
ag46
ag45
ag46
asS'assistance_match_with_ground_truth'
p47
(lp48
I00
aI00
aI01
aI01
aI00
aI00
aI01
aI01
aI01
aI01
asS'total_steps'
p49
I10
sS'sp'
p50
(S'p2'
p51
F1.5707963267948966
S'y'
p52
tp53
sS's'
p54
(lp55
(S'p0'
p56
I0
g24
tp57
a(g56
I0
g52
tp58
ag58
a(g56
I0
S'x'
p59
tp60
a(S'p1'
p61
I0
g59
tp62
a(g61
I0
g59
tp63
a(g61
I0
g59
tp64
a(g61
I0
S't'
p65
tp66
a(g61
F1.5707963267948966
g65
tp67
a(g61
F1.5707963267948966
g52
tp68
asS'ui'
p69
(lp70
S'hs'
p71
ag71
ag71
ag50
ag71
ag71
ag71
ag50
ag71
ag50
asS'um_before'
p72
(lp73
g50
ag50
ag71
ag50
ag50
aS'ss'
p74
ag71
ag50
ag71
ag50
asS'um_after'
p75
(lp76
g50
ag50
ag71
ag50
ag50
ag74
ag71
ag50
ag71
ag50
asaa(lp77
I1
ag39
(g40
tp78
Rp79
g43
(lp80
g45
aS'mode_r'
p81
ag81
ag45
ag46
ag45
ag45
ag45
ag45
ag46
ag45
ag46
asg47
(lp82
I00
aI00
aI00
aI01
aI01
aI00
aI00
aI00
aI01
aI01
aI01
aI01
asg49
I12
sg50
g53
sg54
(lp83
(g56
I0
g24
tp84
a(g56
I0
g65
tp85
a(g56
I0
g65
tp86
a(g56
I0
g52
tp87
ag60
ag62
ag63
ag63
ag63
ag66
ag67
ag68
asg69
(lp88
S'hp'
p89
ag74
ag71
ag71
ag50
ag71
ag50
ag71
ag71
ag50
ag71
ag50
asg72
(lp90
g89
ag74
ag71
ag71
ag50
ag50
ag50
ag50
ag71
ag50
ag71
ag50
asg75
(lp91
g89
ag74
ag71
ag71
ag50
ag50
ag50
ag50
ag71
ag50
ag71
ag50
asaa(lp92
I2
ag39
(g40
tp93
Rp94
g43
(lp95
g45
ag81
ag45
ag46
ag45
ag46
ag81
ag45
ag46
ag45
ag45
ag46
ag45
ag81
ag45
ag45
ag46
ag45
ag46
ag45
ag45
ag46
ag45
ag46
ag45
ag46
ag81
ag46
asg47
(lp96
I00
aI00
aI01
aI01
aI01
aI00
aI00
aI01
aI00
aI00
aI01
aI01
aI00
aI00
aI00
aI01
aI01
aI01
aI01
aI00
aI00
aI01
aI01
aI00
aI01
aI01
aI01
aI01
asg49
I28
sg50
g53
sg54
(lp97
(g56
I0
g24
tp98
ag85
ag87
ag60
ag62
ag66
a(g61
I0
g52
tp99
a(g56
I0
g52
tp100
ag60
a(g56
I0
g52
tp101
ag58
ag60
ag62
a(g61
I0
g52
tp102
ag100
ag58
ag60
ag62
ag66
ag67
a(g61
F1.5707963267948966
g65
tp103
a(g61
I0
g65
tp104
ag67
ag68
a(g56
F1.5707963267948966
g52
tp105
a(g56
F1.5707963267948966
g59
tp106
a(g61
F1.5707963267948966
g59
tp107
a(g61
F1.5707963267948966
g52
tp108
asg69
(lp109
g89
ag89
ag89
ag50
ag71
ag50
ag74
ag71
ag74
ag71
ag71
ag50
ag71
ag89
ag71
ag71
ag50
ag71
ag50
ag71
ag71
ag50
ag71
ag74
ag89
ag50
ag89
ag50
asg72
(lp110
g89
ag71
ag71
ag50
ag71
ag71
ag74
ag71
ag89
ag50
ag71
ag50
ag89
ag74
ag50
ag71
ag50
ag71
ag50
ag50
ag74
ag50
ag71
ag74
ag71
ag50
ag89
ag50
asg75
(lp111
g89
ag71
ag71
ag50
ag71
ag71
ag74
ag71
ag89
ag50
ag71
ag50
ag89
ag74
ag50
ag71
ag50
ag71
ag50
ag50
ag74
ag50
ag71
ag74
ag71
ag50
ag89
ag50
asaa(lp112
I3
ag39
(g40
tp113
Rp114
g43
(lp115
g45
ag46
ag45
ag46
ag45
ag46
asg47
(lp116
I01
aI01
aI01
aI01
aI01
aI01
asg49
I6
sg50
g53
sg54
(lp117
(g56
I0
g24
tp118
ag60
ag62
ag66
ag67
ag68
asg69
(lp119
g71
ag50
ag71
ag50
ag71
ag50
asg72
(lp120
g71
ag50
ag71
ag50
ag71
ag50
asg75
(lp121
g71
ag50
ag71
ag50
ag71
ag50
asaa(lp122
I4
ag39
(g40
tp123
Rp124
g43
(lp125
g45
ag45
ag81
ag45
ag46
ag45
ag45
ag46
ag45
ag46
ag81
ag81
ag46
asg47
(lp126
I00
aI00
aI00
aI01
aI01
aI00
aI01
aI01
aI01
aI00
aI00
aI01
aI01
asg49
I13
sg50
g53
sg54
(lp127
(g56
I0
g24
tp128
ag58
ag85
ag87
ag60
ag62
ag63
ag66
ag67
ag68
a(g61
F1.5707963267948966
g59
tp129
a(g61
F1.5707963267948966
g59
tp130
ag108
asg69
(lp131
g71
ag71
ag89
ag71
ag50
ag71
ag71
ag50
ag71
ag50
ag89
ag89
ag50
asg72
(lp132
g50
ag89
ag71
ag71
ag50
ag50
ag71
ag50
ag71
ag71
ag74
ag89
ag50
asg75
(lp133
g50
ag89
ag71
ag71
ag50
ag50
ag71
ag50
ag71
ag71
ag74
ag89
ag50
asaa(lp134
I5
ag39
(g40
tp135
Rp136
g43
(lp137
g45
ag45
ag46
ag45
ag81
ag45
ag45
ag46
ag45
ag45
ag46
ag45
ag46
asg47
(lp138
I00
aI01
aI01
aI00
aI00
aI00
aI01
aI00
aI00
aI01
aI01
aI01
aI01
asg49
I13
sg50
g53
sg54
(lp139
(g56
I0
g24
tp140
ag58
ag60
ag62
ag102
a(g61
I0
g59
tp141
ag63
ag66
a(g61
I0
g59
tp142
ag64
ag66
ag67
ag68
asg69
(lp143
g71
ag71
ag50
ag71
ag71
ag71
ag71
ag50
ag71
ag71
ag50
ag71
ag50
asg72
(lp144
g50
ag71
ag50
ag89
ag71
ag50
ag71
ag89
ag74
ag71
ag50
ag71
ag50
asg75
(lp145
g50
ag71
ag50
ag89
ag71
ag50
ag71
ag89
ag74
ag71
ag50
ag71
ag50
asaa(lp146
I6
ag39
(g40
tp147
Rp148
g43
(lp149
g45
ag81
ag46
ag81
ag46
ag45
ag45
ag45
ag46
ag46
ag81
asg47
(lp150
I00
aI01
aI00
aI01
aI01
aI00
aI00
aI01
aI00
aI00
aI00
asg49
I11
sg50
(g51
I0
g52
tp151
sg54
(lp152
(g56
I0
g24
tp153
ag85
a(g56
I0
g59
tp154
a(g56
I0
g65
tp155
ag154
ag62
ag64
ag63
ag66
a(g61
I0
g65
tp156
ag99
asg69
(lp157
g71
ag89
ag50
ag89
ag50
ag71
ag71
ag71
ag50
ag50
ag89
asg72
(lp158
g89
ag89
ag71
ag89
ag50
ag74
ag50
ag71
ag74
ag71
ag50
asg75
(lp159
g89
ag89
ag71
ag89
ag50
ag74
ag50
ag71
ag74
ag71
ag50
asaa(lp160
I7
ag39
(g40
tp161
Rp162
g43
(lp163
g45
ag46
ag45
ag46
ag45
ag46
ag45
ag46
asg47
(lp164
I01
aI01
aI01
aI01
aI01
aI00
aI01
aI01
asg49
I8
sg50
g53
sg54
(lp165
(g56
I0
g24
tp166
ag60
ag62
ag66
ag67
ag68
a(g61
F1.5707963267948966
g65
tp167
ag68
asg69
(lp168
g71
ag50
ag71
ag50
ag71
ag50
ag71
ag50
asg72
(lp169
g71
ag50
ag71
ag50
ag71
ag89
ag71
ag50
asg75
(lp170
g71
ag50
ag71
ag50
ag71
ag89
ag71
ag50
asaa(lp171
I8
ag39
(g40
tp172
Rp173
g43
(lp174
g45
ag46
ag45
ag46
ag45
ag46
ag81
ag46
asg47
(lp175
I01
aI01
aI01
aI01
aI01
aI00
aI01
aI01
asg49
I8
sg50
g53
sg54
(lp176
(g56
I0
g24
tp177
ag60
ag62
ag66
ag67
ag68
ag129
ag108
asg69
(lp178
g89
ag50
ag71
ag74
ag71
ag50
ag89
ag50
asg72
(lp179
g71
ag50
ag71
ag50
ag71
ag71
ag89
ag50
asg75
(lp180
g71
ag50
ag71
ag50
ag71
ag71
ag89
ag50
asaa(lp181
I9
ag39
(g40
tp182
Rp183
g43
(lp184
g45
ag46
ag46
ag45
ag46
ag45
ag46
ag45
ag81
ag46
asg47
(lp185
I01
aI00
aI01
aI01
aI01
aI00
aI01
aI00
aI01
aI01
asg49
I10
sg50
g53
sg54
(lp186
(g56
I0
g24
tp187
ag60
a(g56
I0
g59
tp188
ag62
ag66
ag67
ag104
ag67
a(g61
F1.5707963267948966
g59
tp189
ag108
asg69
(lp190
g71
ag74
ag50
ag71
ag50
ag71
ag50
ag71
ag89
ag50
asg72
(lp191
g71
ag74
ag50
ag71
ag50
ag74
ag50
ag89
ag89
ag50
asg75
(lp192
g71
ag74
ag50
ag71
ag50
ag74
ag50
ag89
ag89
ag50
asaatp193
Rp194
aatp195
Rp196
.