ccollections
OrderedDict
p0
((lp1
(lp2
S'index'
p3
aI2077
aa(lp4
S'combination_dict'
p5
ag0
((lp6
(lp7
S'r_to_g_config'
p8
aS'tr'
p9
aa(lp10
S'num_turns'
p11
aI2
aa(lp12
S'start_direction'
p13
acutils_ms
StartDirection
p14
(I1
tp15
Rp16
aa(lp17
S'assistance_type'
p18
acutils_ms
AssistanceType
p19
(I0
tp20
Rp21
aa(lp22
S'start_mode'
p23
aS'x'
p24
aa(lp25
S'ui_given_a_noise'
p26
aF0.7
aa(lp27
S'um_given_ui_noise'
p28
aF0.7
aa(lp29
S'entropy_threshold'
p30
aF0.8
aa(lp31
S'is_assistance'
p32
aI00
aatp33
Rp34
aa(lp35
S'trials'
p36
ag0
((lp37
(lp38
I0
accollections
defaultdict
p39
(c__builtin__
list
p40
tp41
Rp42
S'a'
p43
(lp44
S'mode_r'
p45
aS'mode_l'
p46
ag46
ag46
ag46
aS'move_p'
p47
ag45
ag47
ag47
ag45
ag45
ag45
ag45
ag45
ag47
ag45
ag47
ag45
ag46
ag46
ag46
ag45
ag47
ag47
ag47
ag45
ag47
ag45
ag47
ag46
ag45
ag45
ag46
ag45
ag45
ag46
ag46
ag45
ag47
ag46
ag47
ag46
ag47
asS'assistance_match_with_ground_truth'
p48
(lp49
I00
aI00
aI00
aI00
aI01
aI00
aI01
aI00
aI01
aI00
aI00
aI00
aI00
aI01
aI01
aI00
aI01
aI00
aI00
aI00
aI00
aI00
aI00
aI00
aI01
aI01
aI01
aI01
aI00
aI00
aI00
aI00
aI00
aI00
aI00
aI00
aI00
aI01
aI00
aI01
aI00
aI01
aI01
asS'total_steps'
p50
I43
sS'sp'
p51
(S'p3'
p52
F1.5707963267948966
S'y'
p53
tp54
sS's'
p55
(lp56
(S'p0'
p57
I0
g24
tp58
a(g57
I0
S't'
p59
tp60
a(g57
I0
g59
tp61
ag61
ag61
a(g57
I0
g53
tp62
a(g57
I0
S'x'
p63
tp64
a(g57
I0
g53
tp65
a(g57
I0
g53
tp66
a(S'p1'
p67
I0
g53
tp68
a(g67
I0
g53
tp69
ag69
ag69
a(g67
I0
g53
tp70
a(g67
I0
g59
tp71
a(g67
F1.5707963267948966
g59
tp72
a(g67
I0
g59
tp73
ag72
a(g67
F1.5707963267948966
g53
tp74
a(g67
F1.5707963267948966
g53
tp75
ag75
a(g67
F1.5707963267948966
g59
tp76
ag73
a(g67
I0
g59
tp77
ag77
ag72
a(g67
F1.5707963267948966
g63
tp78
a(S'p2'
p79
F1.5707963267948966
g63
tp80
a(g79
F1.5707963267948966
g53
tp81
a(g79
F1.5707963267948966
g59
tp82
a(g79
F1.5707963267948966
g63
tp83
a(g79
F1.5707963267948966
g63
tp84
a(g79
F1.5707963267948966
g59
tp85
ag83
a(g79
F1.5707963267948966
g63
tp86
ag85
a(g79
F1.5707963267948966
g59
tp87
ag83
ag81
ag82
a(g79
F1.5707963267948966
g53
tp88
ag82
ag88
asS'ui'
p89
(lp90
S'hp'
p91
aS'ss'
p92
aS'hs'
p93
ag51
ag93
ag91
ag92
ag92
ag51
ag93
ag93
ag92
ag91
ag93
ag51
ag91
ag51
ag93
ag93
ag93
ag92
ag91
ag51
ag92
ag51
ag92
ag51
ag92
ag92
ag93
ag93
ag91
ag93
ag91
ag91
ag93
ag93
ag91
ag91
ag93
ag92
ag93
ag51
asS'um_before'
p94
(lp95
g93
ag92
ag92
ag92
ag93
ag93
ag91
ag92
ag51
ag92
ag92
ag92
ag51
ag91
ag51
ag92
ag51
ag93
ag92
ag92
ag91
ag92
ag92
ag92
ag51
ag91
ag51
ag91
ag91
ag91
ag92
ag93
ag91
ag51
ag93
ag92
ag91
ag91
ag91
ag93
ag91
ag93
ag51
asS'um_after'
p96
(lp97
g93
ag92
ag92
ag92
ag93
ag93
ag91
ag92
ag51
ag92
ag92
ag92
ag51
ag91
ag51
ag92
ag51
ag93
ag92
ag92
ag91
ag92
ag92
ag92
ag51
ag91
ag51
ag91
ag91
ag91
ag92
ag93
ag91
ag51
ag93
ag92
ag91
ag91
ag91
ag93
ag91
ag93
ag51
asaa(lp98
I1
ag39
(g40
tp99
Rp100
g43
(lp101
g45
ag45
ag46
ag46
ag47
ag45
ag47
ag45
ag46
ag46
ag45
ag46
ag47
ag46
ag45
ag46
ag47
ag46
ag45
ag46
ag45
ag47
ag47
ag46
ag46
ag45
ag47
ag47
ag45
ag47
ag45
ag45
ag47
ag47
ag46
ag45
ag47
ag45
ag46
ag45
ag47
ag47
ag46
ag47
ag47
ag47
ag46
ag46
ag46
ag47
ag47
ag46
ag45
ag45
ag47
ag45
ag46
ag45
ag47
ag45
ag45
ag47
ag45
ag46
ag45
ag45
ag45
ag47
ag45
ag45
ag47
ag46
ag46
ag46
ag47
ag46
ag45
ag47
ag47
ag45
ag46
ag46
ag46
ag46
ag47
ag46
ag47
ag45
ag45
ag46
ag45
ag47
ag46
ag45
ag47
ag46
ag46
ag47
ag45
ag46
ag47
ag46
ag46
ag45
ag46
ag45
ag47
ag45
ag47
ag46
ag45
ag45
ag45
ag45
ag46
ag47
ag45
ag47
ag45
ag46
ag46
ag47
ag47
ag46
ag47
ag45
ag47
ag45
ag47
ag45
ag47
ag45
ag47
ag45
ag45
ag46
ag46
ag47
ag47
ag46
ag47
ag46
ag46
ag46
ag45
ag46
ag47
ag47
ag47
ag45
ag46
ag46
ag46
ag45
ag45
ag46
ag46
ag46
ag45
ag46
ag45
ag46
ag46
ag45
ag47
ag47
ag46
ag46
ag46
ag47
ag46
ag46
ag46
ag45
ag47
ag47
ag45
ag45
ag47
ag46
ag45
ag47
ag45
ag47
ag46
ag47
ag45
ag47
ag47
ag47
ag45
ag47
ag45
ag47
ag46
ag46
ag45
ag46
ag45
ag46
ag46
asg48
(lp102
I00
aI00
aI00
aI01
aI00
aI01
aI00
aI00
aI00
aI00
aI00
aI01
aI00
aI00
aI00
aI01
aI00
aI00
aI00
aI00
aI01
aI00
aI00
aI00
aI00
aI01
aI00
aI01
aI01
aI00
aI00
aI01
aI00
aI00
aI00
aI01
aI01
aI00
aI00
aI01
aI00
aI00
aI01
aI00
aI00
aI00
aI00
aI00
aI01
aI00
aI00
aI00
aI00
aI01
aI01
aI00
aI00
aI01
aI01
aI00
aI00
aI01
aI00
aI00
aI00
aI00
aI01
aI00
aI00
aI01
aI01
aI00
aI00
aI01
aI00
aI00
aI00
aI00
aI01
aI00
aI00
aI00
aI00
aI01
aI00
aI01
aI01
aI00
aI00
aI00
aI01
aI00
aI00
aI01
aI00
aI00
aI01
aI00
aI00
aI01
aI00
aI00
aI00
aI00
aI00
aI01
aI00
aI01
aI00
aI00
aI00
aI00
aI00
aI00
aI01
aI00
aI01
aI00
aI00
aI00
aI01
aI00
aI01
aI01
aI00
aI01
aI00
aI01
aI00
aI01
aI00
aI01
aI00
aI00
aI00
aI00
aI01
aI00
aI00
aI01
aI00
aI00
aI00
aI00
aI00
aI01
aI00
aI00
aI00
aI00
aI00
aI00
aI00
aI00
aI00
aI00
aI00
aI00
aI00
aI00
aI00
aI00
aI00
aI01
aI00
aI01
aI00
aI00
aI01
aI00
aI00
aI00
aI00
aI00
aI00
aI00
aI00
aI01
aI00
aI00
aI01
aI00
aI01
aI00
aI01
aI01
aI00
aI00
aI00
aI01
aI01
aI00
aI01
aI00
aI00
aI00
aI00
aI00
aI00
aI00
aI00
asg50
I201
sg51
(g57
F1.5707963267948966
g59
tp103
sg55
(lp104
(g57
I0
g24
tp105
a(g57
I0
g63
tp106
ag60
a(g57
I0
g59
tp107
ag62
ag64
ag65
ag64
ag60
ag61
a(g57
I0
g63
tp108
ag60
ag62
a(g57
I0
g59
tp109
ag108
ag60
ag62
ag109
ag108
ag60
ag108
ag65
ag66
ag109
ag61
ag108
ag65
ag66
ag68
ag71
a(g67
I0
g53
tp110
ag70
ag71
ag77
a(g67
I0
g63
tp111
a(g57
I0
g63
tp112
ag65
ag68
a(g67
I0
g63
tp113
ag112
ag65
ag66
ag109
ag62
ag66
ag66
ag109
ag61
ag61
ag62
ag66
ag109
ag108
ag106
ag65
ag68
ag113
a(g67
I0
g53
tp114
ag71
ag72
a(g67
F1.5707963267948966
g59
tp115
ag73
ag72
ag74
ag76
ag115
ag115
ag78
a(g57
F1.5707963267948966
g63
tp116
a(g57
F1.5707963267948966
g63
tp117
a(g57
F1.5707963267948966
g53
tp118
a(g67
F1.5707963267948966
g53
tp119
ag75
a(g67
F1.5707963267948966
g53
tp120
a(g67
F1.5707963267948966
g63
tp121
a(g67
F1.5707963267948966
g53
tp122
ag76
ag73
ag77
ag72
ag74
ag120
ag75
ag75
ag121
ag122
ag121
ag80
ag86
ag85
ag83
ag81
a(g67
F1.5707963267948966
g53
tp123
ag76
ag78
ag122
ag75
ag121
a(g67
F1.5707963267948966
g59
tp124
ag74
ag121
ag122
ag75
ag76
ag74
ag76
ag78
ag116
ag118
a(g57
F1.5707963267948966
g59
tp125
a(g57
F1.5707963267948966
g63
tp126
a(g57
F1.5707963267948966
g63
tp127
ag127
ag127
a(g57
F1.5707963267948966
g59
tp128
a(g57
F1.5707963267948966
g53
tp129
a(g57
F1.5707963267948966
g63
tp130
ag118
ag130
ag128
a(g57
F1.5707963267948966
g59
tp131
ag129
a(g57
F1.5707963267948966
g53
tp132
ag119
ag121
ag116
ag118
ag130
ag118
ag130
ag118
ag130
ag118
ag130
ag127
ag128
ag103
ag129
ag132
ag125
ag129
ag125
ag103
ag103
ag126
ag128
ag129
ag132
ag132
ag130
ag128
ag131
ag103
ag126
ag127
ag128
ag103
ag103
ag126
ag128
ag126
ag128
ag103
ag126
ag118
ag132
ag119
ag120
ag120
ag121
ag122
ag75
ag75
ag76
ag73
ag77
ag110
ag70
ag71
ag111
ag114
ag71
ag110
ag71
ag111
a(g67
I0
g59
tp133
ag72
ag73
ag77
ag77
ag72
ag78
ag116
ag118
ag125
ag103
ag126
ag128
ag126
ag128
ag103
asg89
(lp134
g91
ag93
ag92
ag93
ag91
ag91
ag91
ag91
ag91
ag93
ag91
ag92
ag92
ag93
ag93
ag93
ag91
ag93
ag91
ag93
ag91
ag51
ag93
ag51
ag91
ag91
ag92
ag51
ag92
ag93
ag51
ag93
ag51
ag92
ag92
ag92
ag51
ag93
ag93
ag91
ag51
ag91
ag93
ag91
ag92
ag91
ag93
ag51
ag93
ag92
ag92
ag92
ag91
ag93
ag51
ag91
ag93
ag91
ag51
ag91
ag51
ag91
ag92
ag92
ag92
ag51
ag91
ag93
ag51
ag93
ag91
ag93
ag93
ag92
ag92
ag92
ag92
ag51
ag51
ag93
ag92
ag93
ag92
ag93
ag93
ag93
ag51
ag91
ag91
ag51
ag91
ag51
ag93
ag91
ag92
ag93
ag93
ag93
ag93
ag93
ag91
ag51
ag93
ag91
ag92
ag92
ag92
ag91
ag91
ag93
ag93
ag93
ag93
ag91
ag93
ag93
ag92
ag93
ag93
ag92
ag93
ag51
ag51
ag93
ag93
ag91
ag93
ag91
ag93
ag91
ag51
ag92
ag93
ag91
ag91
ag51
ag93
ag93
ag93
ag93
ag92
ag93
ag51
ag92
ag91
ag93
ag51
ag93
ag91
ag93
ag93
ag93
ag93
ag93
ag91
ag92
ag92
ag91
ag91
ag93
ag91
ag92
ag92
ag92
ag91
ag92
ag92
ag92
ag93
ag93
ag91
ag93
ag93
ag91
ag92
ag51
ag91
ag93
ag92
ag93
ag91
ag93
ag91
ag51
ag93
ag51
ag51
ag93
ag92
ag51
ag91
ag93
ag91
ag91
ag93
ag92
ag93
ag92
ag93
ag91
ag92
asg94
(lp135
g92
ag93
ag51
ag93
ag93
ag91
ag93
ag93
ag92
ag91
ag93
ag93
ag91
ag91
ag93
ag93
ag91
ag91
ag93
ag91
ag91
ag92
ag91
ag92
ag91
ag91
ag92
ag51
ag91
ag93
ag51
ag91
ag92
ag91
ag92
ag91
ag51
ag93
ag92
ag91
ag92
ag91
ag93
ag92
ag92
ag91
ag92
ag92
ag93
ag92
ag91
ag91
ag92
ag91
ag51
ag93
ag91
ag91
ag51
ag51
ag92
ag51
ag93
ag91
ag51
ag51
ag91
ag92
ag51
ag91
ag51
ag92
ag51
ag93
ag91
ag91
ag92
ag92
ag51
ag93
ag51
ag92
ag92
ag93
ag91
ag93
ag51
ag51
ag93
ag91
ag91
ag92
ag91
ag91
ag91
ag92
ag93
ag93
ag93
ag93
ag91
ag92
ag91
ag93
ag91
ag91
ag92
ag91
ag91
ag91
ag92
ag92
ag92
ag93
ag93
ag93
ag91
ag93
ag93
ag51
ag93
ag92
ag51
ag93
ag92
ag91
ag93
ag91
ag93
ag91
ag93
ag91
ag93
ag92
ag93
ag92
ag93
ag92
ag91
ag93
ag91
ag92
ag92
ag91
ag93
ag93
ag92
ag92
ag93
ag93
ag51
ag92
ag91
ag92
ag93
ag92
ag92
ag91
ag93
ag91
ag93
ag92
ag91
ag91
ag92
ag51
ag51
ag51
ag93
ag91
ag92
ag92
ag91
ag92
ag92
ag93
ag51
ag91
ag91
ag91
ag91
ag93
ag91
ag91
ag93
ag51
ag92
ag92
ag92
ag51
ag91
ag92
ag91
ag91
ag92
ag91
ag93
ag91
ag93
ag92
ag92
asg96
(lp136
g92
ag93
ag51
ag93
ag93
ag91
ag93
ag93
ag92
ag91
ag93
ag93
ag91
ag91
ag93
ag93
ag91
ag91
ag93
ag91
ag91
ag92
ag91
ag92
ag91
ag91
ag92
ag51
ag91
ag93
ag51
ag91
ag92
ag91
ag92
ag91
ag51
ag93
ag92
ag91
ag92
ag91
ag93
ag92
ag92
ag91
ag92
ag92
ag93
ag92
ag91
ag91
ag92
ag91
ag51
ag93
ag91
ag91
ag51
ag51
ag92
ag51
ag93
ag91
ag51
ag51
ag91
ag92
ag51
ag91
ag51
ag92
ag51
ag93
ag91
ag91
ag92
ag92
ag51
ag93
ag51
ag92
ag92
ag93
ag91
ag93
ag51
ag51
ag93
ag91
ag91
ag92
ag91
ag91
ag91
ag92
ag93
ag93
ag93
ag93
ag91
ag92
ag91
ag93
ag91
ag91
ag92
ag91
ag91
ag91
ag92
ag92
ag92
ag93
ag93
ag93
ag91
ag93
ag93
ag51
ag93
ag92
ag51
ag93
ag92
ag91
ag93
ag91
ag93
ag91
ag93
ag91
ag93
ag92
ag93
ag92
ag93
ag92
ag91
ag93
ag91
ag92
ag92
ag91
ag93
ag93
ag92
ag92
ag93
ag93
ag51
ag92
ag91
ag92
ag93
ag92
ag92
ag91
ag93
ag91
ag93
ag92
ag91
ag91
ag92
ag51
ag51
ag51
ag93
ag91
ag92
ag92
ag91
ag92
ag92
ag93
ag51
ag91
ag91
ag91
ag91
ag93
ag91
ag91
ag93
ag51
ag92
ag92
ag92
ag51
ag91
ag92
ag91
ag91
ag92
ag91
ag93
ag91
ag93
ag92
ag92
asaa(lp137
I2
ag39
(g40
tp138
Rp139
g43
(lp140
g45
ag45
ag47
ag45
ag47
ag46
ag45
ag46
ag47
ag46
ag45
ag46
ag46
ag47
ag45
ag45
ag45
ag45
ag46
ag47
ag45
ag47
ag46
ag45
ag46
ag46
ag47
ag45
ag47
ag45
ag45
ag46
ag45
ag47
ag47
ag47
ag46
ag46
ag45
ag46
ag47
ag47
ag47
ag45
ag47
ag45
ag47
ag47
ag45
ag45
ag45
ag47
ag45
ag47
ag46
ag47
ag45
ag47
ag45
ag47
asg48
(lp141
I00
aI01
aI01
aI01
aI00
aI00
aI00
aI01
aI00
aI00
aI00
aI00
aI01
aI00
aI00
aI00
aI00
aI00
aI01
aI00
aI01
aI00
aI00
aI00
aI00
aI01
aI01
aI01
aI00
aI00
aI00
aI00
aI01
aI00
aI00
aI00
aI00
aI00
aI00
aI01
aI00
aI00
aI01
aI01
aI00
aI01
aI00
aI01
aI00
aI00
aI01
aI00
aI01
aI01
aI01
aI01
aI01
aI00
aI01
aI01
asg50
I60
sg51
g54
sg55
(lp142
(g57
I0
g24
tp143
a(g57
I0
g63
tp144
ag65
ag68
ag71
ag111
ag114
ag113
ag133
ag111
a(g79
I0
g63
tp145
a(g79
I0
g59
tp146
a(g79
I0
g59
tp147
a(g79
I0
g53
tp148
a(g79
I0
g63
tp149
a(g79
I0
g63
tp150
a(g79
I0
g63
tp151
ag151
ag146
ag148
a(g67
I0
g53
tp152
ag71
ag111
ag112
ag60
ag61
ag62
ag68
ag71
ag110
ag69
ag113
ag112
ag65
ag66
ag66
ag109
ag61
ag108
ag60
ag62
ag66
ag66
ag68
ag71
ag110
ag71
ag77
ag72
ag115
ag115
ag78
ag116
ag118
ag119
ag121
ag80
ag81
a(g79
F1.5707963267948966
g63
tp153
ag81
asg89
(lp154
g51
ag93
ag51
ag91
ag91
ag93
ag91
ag91
ag92
ag51
ag93
ag93
ag93
ag93
ag93
ag91
ag91
ag93
ag91
ag91
ag93
ag91
ag93
ag93
ag92
ag93
ag51
ag92
ag93
ag92
ag93
ag93
ag93
ag51
ag51
ag93
ag92
ag93
ag93
ag93
ag51
ag92
ag51
ag92
ag93
ag91
ag93
ag51
ag91
ag51
ag92
ag91
ag91
ag51
ag93
ag91
ag91
ag91
ag91
ag51
asg94
(lp155
g51
ag91
ag51
ag91
ag91
ag91
ag93
ag93
ag91
ag51
ag93
ag92
ag93
ag93
ag92
ag51
ag51
ag93
ag93
ag92
ag91
ag91
ag92
ag93
ag92
ag93
ag51
ag91
ag93
ag92
ag93
ag92
ag91
ag92
ag92
ag91
ag92
ag91
ag93
ag93
ag92
ag92
ag51
ag91
ag93
ag91
ag92
ag51
ag51
ag51
ag91
ag92
ag91
ag51
ag93
ag51
ag91
ag93
ag91
ag51
asg96
(lp156
g51
ag91
ag51
ag91
ag91
ag91
ag93
ag93
ag91
ag51
ag93
ag92
ag93
ag93
ag92
ag51
ag51
ag93
ag93
ag92
ag91
ag91
ag92
ag93
ag92
ag93
ag51
ag91
ag93
ag92
ag93
ag92
ag91
ag92
ag92
ag91
ag92
ag91
ag93
ag93
ag92
ag92
ag51
ag91
ag93
ag91
ag92
ag51
ag51
ag51
ag91
ag92
ag91
ag51
ag93
ag51
ag91
ag93
ag91
ag51
asaa(lp157
I3
ag39
(g40
tp158
Rp159
g43
(lp160
g45
ag46
ag46
ag47
ag45
ag47
ag46
ag47
ag45
ag45
ag45
ag47
ag45
ag47
ag45
ag46
ag46
ag45
ag45
ag45
ag46
ag46
ag45
ag46
ag46
ag45
ag45
ag45
ag46
ag46
ag46
ag46
ag46
ag47
ag45
ag45
ag46
ag47
asg48
(lp161
I00
aI00
aI01
aI01
aI01
aI00
aI01
aI00
aI00
aI00
aI01
aI01
aI01
aI01
aI00
aI00
aI00
aI00
aI00
aI00
aI00
aI00
aI00
aI00
aI00
aI00
aI00
aI00
aI00
aI00
aI00
aI00
aI01
aI00
aI00
aI00
aI01
aI01
asg50
I38
sg51
g54
sg55
(lp162
(g57
I0
g24
tp163
ag60
ag107
ag62
ag68
ag71
ag111
ag133
ag110
ag69
ag69
ag71
ag72
ag78
ag80
ag85
a(g79
F1.5707963267948966
g59
tp164
ag83
ag84
ag86
ag85
ag87
ag83
ag85
ag87
ag83
ag86
ag86
ag85
ag164
ag87
ag87
ag87
ag88
ag153
ag86
ag85
ag88
asg89
(lp165
g91
ag91
ag93
ag51
ag93
ag51
ag93
ag91
ag93
ag93
ag91
ag51
ag91
ag51
ag93
ag51
ag93
ag91
ag51
ag91
ag93
ag92
ag92
ag92
ag93
ag91
ag92
ag91
ag51
ag93
ag93
ag93
ag92
ag91
ag91
ag93
ag93
ag93
asg94
(lp166
g93
ag51
ag93
ag51
ag91
ag91
ag93
ag93
ag92
ag92
ag91
ag51
ag91
ag51
ag93
ag51
ag91
ag92
ag51
ag93
ag92
ag91
ag93
ag92
ag91
ag51
ag51
ag93
ag51
ag92
ag92
ag92
ag93
ag93
ag51
ag93
ag93
ag51
asg96
(lp167
g93
ag51
ag93
ag51
ag91
ag91
ag93
ag93
ag92
ag92
ag91
ag51
ag91
ag51
ag93
ag51
ag91
ag92
ag51
ag93
ag92
ag91
ag93
ag92
ag91
ag51
ag51
ag93
ag51
ag92
ag92
ag92
ag93
ag93
ag51
ag93
ag93
ag51
asaa(lp168
I4
ag39
(g40
tp169
Rp170
g43
(lp171
g45
ag45
ag47
ag46
ag47
ag47
ag46
ag47
ag47
ag47
ag46
ag45
ag47
ag45
ag45
ag47
ag46
ag45
ag45
ag46
ag47
ag45
ag46
ag45
ag45
ag46
ag46
ag46
ag46
ag45
ag45
ag45
ag47
ag45
ag47
ag45
ag45
ag47
ag45
ag46
ag47
ag47
ag45
ag45
ag45
ag46
ag47
ag46
ag47
ag45
ag47
ag47
ag47
ag45
ag45
ag47
ag45
ag47
asg48
(lp172
I00
aI01
aI00
aI01
aI00
aI00
aI01
aI00
aI00
aI00
aI00
aI01
aI01
aI00
aI01
aI00
aI00
aI00
aI00
aI01
aI00
aI00
aI00
aI00
aI00
aI00
aI00
aI00
aI00
aI00
aI00
aI01
aI00
aI01
aI00
aI00
aI01
aI00
aI00
aI01
aI00
aI01
aI00
aI00
aI00
aI01
aI00
aI01
aI00
aI01
aI00
aI00
aI01
aI00
aI01
aI01
aI01
aI01
asg50
I58
sg51
g54
sg55
(lp173
(g57
I0
g24
tp174
ag144
ag65
ag109
ag62
ag66
ag109
ag62
ag66
ag66
ag109
ag108
ag65
ag68
ag70
ag71
ag111
ag112
ag106
ag60
ag62
ag64
ag60
ag108
ag106
ag60
ag61
ag61
ag61
ag108
ag106
ag106
ag65
ag64
ag65
ag64
ag106
ag65
ag64
ag60
ag62
ag66
ag68
ag70
ag70
ag113
ag133
ag111
ag133
ag110
ag71
ag77
ag77
ag72
ag115
ag78
ag80
ag81
asg89
(lp175
g51
ag93
ag93
ag93
ag51
ag93
ag93
ag51
ag91
ag91
ag93
ag92
ag92
ag51
ag91
ag91
ag92
ag51
ag91
ag92
ag91
ag91
ag93
ag93
ag93
ag51
ag93
ag92
ag92
ag91
ag91
ag93
ag92
ag91
ag91
ag93
ag91
ag91
ag93
ag93
ag92
ag51
ag51
ag92
ag91
ag93
ag91
ag93
ag93
ag91
ag92
ag93
ag51
ag51
ag92
ag51
ag91
ag51
asg94
(lp176
g51
ag91
ag91
ag93
ag92
ag91
ag93
ag92
ag92
ag91
ag91
ag91
ag51
ag51
ag91
ag91
ag92
ag92
ag93
ag93
ag93
ag93
ag91
ag92
ag93
ag92
ag92
ag92
ag91
ag92
ag92
ag91
ag93
ag91
ag93
ag92
ag91
ag93
ag93
ag93
ag92
ag51
ag51
ag51
ag93
ag93
ag91
ag93
ag93
ag91
ag92
ag92
ag51
ag51
ag91
ag51
ag91
ag51
asg96
(lp177
g51
ag91
ag91
ag93
ag92
ag91
ag93
ag92
ag92
ag91
ag91
ag91
ag51
ag51
ag91
ag91
ag92
ag92
ag93
ag93
ag93
ag93
ag91
ag92
ag93
ag92
ag92
ag92
ag91
ag92
ag92
ag91
ag93
ag91
ag93
ag92
ag91
ag93
ag93
ag93
ag92
ag51
ag51
ag51
ag93
ag93
ag91
ag93
ag93
ag91
ag92
ag92
ag51
ag51
ag91
ag51
ag91
ag51
asaa(lp178
I5
ag39
(g40
tp179
Rp180
g43
(lp181
g45
ag46
ag45
ag45
ag47
ag46
ag46
ag46
ag45
ag45
ag47
ag45
ag45
ag45
ag46
ag46
ag46
ag47
ag45
ag45
ag45
ag45
ag46
ag45
ag47
ag46
ag45
ag47
ag45
ag45
ag46
ag45
ag45
ag46
ag47
ag45
ag47
ag46
ag45
ag47
ag46
ag46
ag46
ag45
ag47
ag46
ag45
ag45
ag47
ag45
ag47
ag45
ag45
ag46
ag45
ag47
ag47
ag47
ag46
ag47
ag46
ag46
ag46
ag45
ag47
ag46
ag45
ag46
ag46
ag45
ag46
ag46
ag46
ag45
ag45
ag46
ag46
ag45
ag47
ag46
ag47
ag46
ag45
ag47
ag46
ag46
ag45
ag46
ag46
ag45
ag45
ag46
ag45
ag45
ag47
ag45
ag47
ag45
ag46
ag45
ag46
ag45
ag46
ag45
ag45
ag46
ag46
ag47
ag45
ag47
ag46
ag47
ag45
ag46
ag45
ag45
ag47
ag45
ag47
ag45
ag45
ag47
ag47
ag45
ag46
ag45
ag46
ag46
ag46
ag45
ag46
ag46
ag46
ag46
ag47
ag45
ag45
ag45
ag47
asg48
(lp182
I00
aI00
aI00
aI01
aI00
aI00
aI00
aI00
aI00
aI01
aI00
aI00
aI00
aI00
aI00
aI00
aI01
aI01
aI00
aI00
aI00
aI00
aI00
aI01
aI00
aI00
aI01
aI01
aI00
aI00
aI00
aI00
aI00
aI01
aI00
aI01
aI00
aI00
aI01
aI00
aI00
aI00
aI00
aI01
aI00
aI00
aI00
aI01
aI00
aI01
aI00
aI00
aI00
aI00
aI01
aI00
aI00
aI00
aI01
aI00
aI00
aI00
aI00
aI01
aI00
aI00
aI00
aI00
aI00
aI00
aI00
aI00
aI00
aI00
aI00
aI00
aI00
aI01
aI00
aI01
aI00
aI00
aI01
aI00
aI00
aI00
aI00
aI00
aI00
aI00
aI00
aI00
aI00
aI01
aI00
aI01
aI01
aI00
aI00
aI00
aI00
aI00
aI00
aI00
aI00
aI00
aI01
aI00
aI01
aI00
aI01
aI01
aI00
aI00
aI00
aI01
aI01
aI00
aI01
aI00
aI00
aI00
aI01
aI00
aI00
aI00
aI00
aI00
aI00
aI00
aI00
aI00
aI00
aI01
aI01
aI00
aI00
aI01
aI01
asg50
I139
sg51
g54
sg55
(lp183
(g57
I0
g24
tp184
ag60
ag108
ag144
ag65
ag109
ag107
ag61
ag108
ag144
ag65
ag64
ag106
ag106
ag60
ag61
ag107
ag62
ag68
ag70
ag70
ag69
ag113
ag114
ag71
ag111
ag112
ag65
ag68
ag70
ag113
ag145
ag151
ag146
ag148
ag149
a(g79
I0
g53
tp185
a(g79
I0
g59
tp186
a(g79
I0
g63
tp187
ag185
ag186
ag147
ag147
ag187
ag185
ag186
ag187
ag150
ag185
ag152
ag71
ag110
ag69
ag113
ag112
ag65
ag66
ag66
ag109
ag62
ag109
ag61
ag107
ag108
ag65
ag109
ag108
ag60
ag61
ag108
ag60
ag107
ag107
ag108
ag144
ag60
ag61
ag108
ag65
ag109
ag62
ag109
ag108
ag65
ag109
ag61
ag108
ag60
ag61
ag108
ag144
ag60
ag108
ag106
ag65
ag64
ag65
ag68
ag113
ag114
ag113
ag112
ag60
ag108
ag144
ag60
ag61
ag62
ag64
ag65
ag109
ag62
ag68
ag113
ag114
ag70
ag71
ag72
ag73
ag72
ag115
ag73
ag77
ag72
ag74
ag76
ag74
ag75
ag75
ag76
ag74
ag120
ag75
ag75
ag121
ag80
ag84
ag86
ag81
asg89
(lp188
g91
ag93
ag92
ag91
ag91
ag51
ag93
ag92
ag92
ag91
ag93
ag92
ag92
ag91
ag93
ag93
ag93
ag51
ag91
ag91
ag92
ag91
ag93
ag91
ag91
ag93
ag91
ag51
ag93
ag92
ag92
ag91
ag93
ag93
ag93
ag91
ag91
ag93
ag91
ag91
ag92
ag92
ag93
ag91
ag91
ag93
ag51
ag93
ag92
ag91
ag92
ag91
ag91
ag92
ag91
ag91
ag92
ag91
ag93
ag91
ag93
ag93
ag92
ag91
ag93
ag93
ag92
ag93
ag92
ag93
ag93
ag51
ag92
ag51
ag91
ag92
ag93
ag92
ag92
ag93
ag93
ag92
ag93
ag93
ag93
ag93
ag91
ag93
ag93
ag51
ag91
ag92
ag92
ag91
ag91
ag93
ag51
ag91
ag92
ag91
ag93
ag91
ag91
ag51
ag93
ag93
ag93
ag91
ag91
ag51
ag92
ag51
ag91
ag93
ag51
ag93
ag51
ag51
ag51
ag51
ag91
ag91
ag51
ag91
ag93
ag93
ag93
ag92
ag93
ag91
ag51
ag93
ag93
ag93
ag51
ag93
ag51
ag91
ag51
asg94
(lp189
g93
ag91
ag51
ag91
ag91
ag51
ag92
ag91
ag51
ag91
ag93
ag92
ag92
ag93
ag92
ag51
ag93
ag51
ag51
ag51
ag92
ag93
ag91
ag91
ag91
ag92
ag91
ag51
ag51
ag93
ag51
ag51
ag93
ag93
ag93
ag91
ag91
ag91
ag91
ag91
ag92
ag92
ag91
ag91
ag91
ag91
ag92
ag91
ag92
ag91
ag93
ag92
ag93
ag92
ag91
ag92
ag92
ag91
ag93
ag91
ag92
ag51
ag91
ag91
ag91
ag91
ag93
ag92
ag91
ag93
ag51
ag51
ag91
ag51
ag93
ag92
ag91
ag91
ag91
ag93
ag91
ag91
ag91
ag91
ag92
ag91
ag93
ag92
ag91
ag51
ag93
ag91
ag92
ag91
ag93
ag91
ag51
ag93
ag91
ag93
ag92
ag93
ag91
ag51
ag93
ag92
ag93
ag93
ag91
ag91
ag93
ag51
ag93
ag91
ag51
ag91
ag51
ag92
ag51
ag51
ag92
ag92
ag51
ag93
ag91
ag93
ag92
ag92
ag91
ag93
ag51
ag92
ag92
ag93
ag51
ag92
ag51
ag91
ag51
asg96
(lp190
g93
ag91
ag51
ag91
ag91
ag51
ag92
ag91
ag51
ag91
ag93
ag92
ag92
ag93
ag92
ag51
ag93
ag51
ag51
ag51
ag92
ag93
ag91
ag91
ag91
ag92
ag91
ag51
ag51
ag93
ag51
ag51
ag93
ag93
ag93
ag91
ag91
ag91
ag91
ag91
ag92
ag92
ag91
ag91
ag91
ag91
ag92
ag91
ag92
ag91
ag93
ag92
ag93
ag92
ag91
ag92
ag92
ag91
ag93
ag91
ag92
ag51
ag91
ag91
ag91
ag91
ag93
ag92
ag91
ag93
ag51
ag51
ag91
ag51
ag93
ag92
ag91
ag91
ag91
ag93
ag91
ag91
ag91
ag91
ag92
ag91
ag93
ag92
ag91
ag51
ag93
ag91
ag92
ag91
ag93
ag91
ag51
ag93
ag91
ag93
ag92
ag93
ag91
ag51
ag93
ag92
ag93
ag93
ag91
ag91
ag93
ag51
ag93
ag91
ag51
ag91
ag51
ag92
ag51
ag51
ag92
ag92
ag51
ag93
ag91
ag93
ag92
ag92
ag91
ag93
ag51
ag92
ag92
ag93
ag51
ag92
ag51
ag91
ag51
asaa(lp191
I6
ag39
(g40
tp192
Rp193
g43
(lp194
g45
ag45
ag46
ag45
ag45
ag46
ag45
ag47
ag45
ag47
ag45
ag45
ag45
ag47
ag46
ag45
ag46
ag46
ag47
ag47
ag47
ag45
ag45
ag45
ag47
ag45
ag45
ag45
ag45
ag47
ag47
ag47
ag45
ag47
ag47
ag46
ag45
ag46
ag45
ag47
ag46
ag46
ag46
ag45
ag47
ag45
ag45
ag47
ag46
ag47
ag46
ag47
ag47
ag45
ag47
ag47
ag47
ag45
ag47
ag45
ag47
ag46
ag46
ag46
ag45
ag45
ag47
ag47
ag46
ag47
ag45
ag47
ag46
ag45
ag45
ag46
ag45
ag47
ag45
ag47
ag45
ag46
ag46
ag45
ag46
ag46
ag46
ag47
ag45
ag45
ag46
ag45
ag47
ag45
ag45
ag47
ag46
ag45
ag45
ag46
ag45
ag46
ag45
ag45
ag47
ag45
ag45
ag47
ag45
ag47
ag45
ag46
ag47
ag46
ag46
ag45
ag45
ag45
ag47
ag45
ag47
ag45
ag45
ag46
ag45
ag45
ag46
ag45
ag47
ag45
ag46
ag45
ag45
ag46
ag47
asg48
(lp195
I00
aI00
aI00
aI00
aI00
aI00
aI01
aI01
aI01
aI00
aI00
aI00
aI01
aI00
aI00
aI00
aI00
aI01
aI00
aI00
aI01
aI00
aI00
aI01
aI01
aI00
aI00
aI00
aI00
aI00
aI00
aI00
aI01
aI00
aI00
aI00
aI00
aI00
aI01
aI00
aI00
aI00
aI00
aI01
aI00
aI00
aI01
aI00
aI01
aI00
aI01
aI00
aI01
aI01
aI00
aI00
aI01
aI01
aI00
aI01
aI00
aI00
aI00
aI00
aI00
aI01
aI00
aI01
aI01
aI00
aI00
aI00
aI00
aI00
aI00
aI00
aI01
aI00
aI01
aI01
aI00
aI00
aI00
aI00
aI00
aI00
aI01
aI01
aI00
aI00
aI00
aI01
aI00
aI00
aI01
aI00
aI00
aI00
aI00
aI00
aI00
aI00
aI00
aI00
aI00
aI00
aI01
aI01
aI01
aI01
aI00
aI01
aI00
aI00
aI00
aI00
aI00
aI00
aI00
aI01
aI00
aI00
aI00
aI00
aI00
aI00
aI00
aI01
aI01
aI00
aI00
aI00
aI00
aI01
aI01
asg50
I135
sg51
(g52
I0
g53
tp196
sg55
(lp197
(g57
I0
g24
tp198
ag106
ag60
ag108
ag106
ag60
ag108
ag65
ag68
ag71
ag110
ag69
ag69
ag71
ag111
ag112
ag60
ag61
ag62
ag66
ag66
ag68
ag69
ag70
ag71
ag72
ag115
ag115
ag115
ag73
ag77
ag77
ag110
ag71
ag77
ag111
ag112
ag60
ag108
ag65
ag109
ag61
ag61
ag108
ag65
ag64
ag144
ag65
ag109
ag62
ag109
ag62
ag66
ag68
ag71
ag77
ag77
ag72
ag78
ag116
ag118
ag125
ag103
ag103
ag126
ag127
ag118
ag132
ag119
ag121
ag124
ag73
ag111
ag114
ag70
ag113
ag145
ag185
ag152
ag71
ag72
ag74
ag75
ag76
ag74
ag75
ag75
ag121
ag80
ag84
ag85
ag83
ag81
ag153
ag84
ag81
ag123
ag76
ag115
ag74
ag76
ag74
ag76
ag115
ag73
ag110
ag69
ag71
ag72
ag78
ag80
ag85
ag88
ag123
ag75
ag76
ag115
ag115
ag73
ag110
ag71
ag110
ag69
ag113
ag112
ag106
ag60
ag108
ag65
ag68
ag113
ag145
ag150
ag146
ag148
asg89
(lp199
g93
ag93
ag93
ag92
ag91
ag92
ag91
ag51
ag93
ag51
ag93
ag93
ag91
ag93
ag93
ag91
ag92
ag93
ag92
ag93
ag51
ag93
ag91
ag92
ag51
ag91
ag93
ag92
ag92
ag92
ag93
ag93
ag91
ag93
ag91
ag93
ag93
ag93
ag92
ag91
ag93
ag93
ag93
ag91
ag91
ag92
ag91
ag91
ag93
ag93
ag93
ag51
ag51
ag91
ag51
ag91
ag91
ag93
ag93
ag92
ag93
ag51
ag93
ag92
ag92
ag92
ag92
ag51
ag91
ag93
ag91
ag91
ag92
ag92
ag91
ag93
ag91
ag91
ag92
ag51
ag93
ag93
ag93
ag91
ag93
ag92
ag93
ag92
ag93
ag91
ag93
ag91
ag91
ag92
ag91
ag51
ag93
ag51
ag92
ag93
ag93
ag92
ag92
ag91
ag51
ag93
ag91
ag51
ag93
ag51
ag93
ag93
ag51
ag93
ag93
ag93
ag91
ag93
ag91
ag91
ag92
ag51
ag93
ag93
ag92
ag93
ag93
ag92
ag51
ag93
ag91
ag91
ag93
ag93
ag51
asg94
(lp200
g92
ag93
ag91
ag92
ag93
ag91
ag91
ag51
ag91
ag93
ag92
ag92
ag91
ag91
ag92
ag93
ag92
ag93
ag92
ag92
ag51
ag92
ag51
ag91
ag51
ag51
ag51
ag51
ag92
ag92
ag92
ag93
ag91
ag92
ag91
ag92
ag93
ag91
ag91
ag91
ag92
ag92
ag91
ag91
ag93
ag51
ag91
ag91
ag93
ag91
ag93
ag92
ag51
ag91
ag92
ag92
ag51
ag91
ag92
ag91
ag91
ag92
ag92
ag91
ag92
ag91
ag92
ag51
ag93
ag93
ag92
ag91
ag91
ag51
ag93
ag51
ag91
ag92
ag91
ag51
ag93
ag92
ag91
ag93
ag92
ag92
ag93
ag51
ag92
ag93
ag91
ag91
ag93
ag92
ag91
ag92
ag91
ag51
ag93
ag91
ag93
ag91
ag51
ag92
ag93
ag92
ag91
ag51
ag91
ag51
ag93
ag93
ag92
ag92
ag91
ag51
ag51
ag92
ag93
ag91
ag93
ag92
ag93
ag92
ag92
ag93
ag91
ag91
ag51
ag93
ag51
ag92
ag93
ag93
ag51
asg96
(lp201
g92
ag93
ag91
ag92
ag93
ag91
ag91
ag51
ag91
ag93
ag92
ag92
ag91
ag91
ag92
ag93
ag92
ag93
ag92
ag92
ag51
ag92
ag51
ag91
ag51
ag51
ag51
ag51
ag92
ag92
ag92
ag93
ag91
ag92
ag91
ag92
ag93
ag91
ag91
ag91
ag92
ag92
ag91
ag91
ag93
ag51
ag91
ag91
ag93
ag91
ag93
ag92
ag51
ag91
ag92
ag92
ag51
ag91
ag92
ag91
ag91
ag92
ag92
ag91
ag92
ag91
ag92
ag51
ag93
ag93
ag92
ag91
ag91
ag51
ag93
ag51
ag91
ag92
ag91
ag51
ag93
ag92
ag91
ag93
ag92
ag92
ag93
ag51
ag92
ag93
ag91
ag91
ag93
ag92
ag91
ag92
ag91
ag51
ag93
ag91
ag93
ag91
ag51
ag92
ag93
ag92
ag91
ag51
ag91
ag51
ag93
ag93
ag92
ag92
ag91
ag51
ag51
ag92
ag93
ag91
ag93
ag92
ag93
ag92
ag92
ag93
ag91
ag91
ag51
ag93
ag51
ag92
ag93
ag93
ag51
asaa(lp202
I7
ag39
(g40
tp203
Rp204
g43
(lp205
g45
ag45
ag45
ag47
ag47
ag47
ag47
ag46
ag45
ag45
ag47
ag46
ag47
ag46
ag45
ag46
ag45
ag46
ag47
ag45
ag45
ag45
ag46
ag45
ag46
ag45
ag46
ag46
ag46
ag46
ag47
ag45
ag47
ag46
ag45
ag45
ag46
ag47
ag46
ag46
ag46
ag47
ag46
ag47
ag45
ag45
ag47
ag47
ag47
ag47
ag45
ag46
ag45
ag45
ag46
ag45
ag46
ag46
ag47
ag46
ag46
ag46
ag47
ag45
ag45
ag46
ag45
ag45
ag45
ag47
ag45
ag46
ag46
ag46
ag47
ag45
ag46
ag46
ag47
ag46
ag45
ag45
ag45
ag46
ag45
ag47
ag46
ag45
ag45
ag47
ag46
ag47
ag45
ag47
ag47
ag47
ag45
ag46
ag45
ag47
ag45
ag46
ag45
ag45
ag46
ag46
ag45
ag47
ag45
ag45
ag47
ag46
ag45
ag47
ag45
ag46
ag45
ag45
ag47
ag46
ag46
ag46
ag47
ag46
ag46
ag46
ag47
ag45
ag47
ag46
ag45
ag45
ag47
ag45
ag45
ag46
ag46
ag45
ag47
ag46
ag45
ag46
ag45
ag46
ag45
ag46
ag46
ag46
ag45
ag46
ag47
ag45
ag45
ag46
ag47
ag47
ag46
ag45
ag47
ag47
ag45
ag45
ag45
ag45
ag46
ag46
ag47
ag45
ag47
ag46
ag47
ag45
ag47
ag46
ag45
ag47
ag45
ag47
ag47
ag45
ag47
ag46
ag46
ag45
ag46
ag47
ag47
ag46
ag47
ag46
ag47
ag46
ag45
ag47
ag47
ag47
ag47
ag45
ag47
ag45
ag45
asg48
(lp206
I00
aI00
aI01
aI00
aI00
aI00
aI00
aI00
aI00
aI01
aI00
aI01
aI00
aI00
aI00
aI00
aI00
aI01
aI00
aI00
aI00
aI00
aI00
aI00
aI00
aI00
aI00
aI00
aI00
aI01
aI01
aI01
aI00
aI00
aI00
aI00
aI01
aI00
aI00
aI00
aI01
aI00
aI01
aI00
aI00
aI01
aI00
aI00
aI00
aI01
aI00
aI00
aI00
aI00
aI00
aI00
aI00
aI01
aI00
aI00
aI00
aI01
aI01
aI00
aI00
aI00
aI00
aI00
aI01
aI01
aI00
aI00
aI00
aI01
aI00
aI00
aI00
aI01
aI00
aI00
aI00
aI00
aI00
aI00
aI00
aI00
aI00
aI00
aI01
aI00
aI01
aI00
aI01
aI00
aI00
aI01
aI00
aI00
aI00
aI01
aI00
aI00
aI00
aI00
aI00
aI00
aI01
aI01
aI00
aI01
aI00
aI00
aI01
aI01
aI00
aI00
aI00
aI01
aI00
aI00
aI00
aI01
aI00
aI00
aI00
aI01
aI00
aI00
aI00
aI00
aI00
aI01
aI01
aI00
aI00
aI00
aI00
aI00
aI00
aI00
aI00
aI00
aI00
aI00
aI00
aI00
aI00
aI00
aI00
aI01
aI00
aI00
aI00
aI01
aI00
aI00
aI00
aI01
aI00
aI00
aI00
aI00
aI00
aI00
aI00
aI01
aI00
aI01
aI00
aI01
aI01
aI01
aI00
aI00
aI01
aI00
aI01
aI00
aI00
aI01
aI00
aI00
aI00
aI00
aI01
aI00
aI00
aI01
aI00
aI01
aI00
aI00
aI01
aI00
aI00
aI00
aI01
aI01
aI00
aI00
aI01
asg50
I201
sg51
g71
sg55
(lp207
(g57
I0
g24
tp208
ag106
ag106
ag65
ag66
ag66
ag66
ag109
ag108
ag106
ag65
ag109
ag62
ag109
ag108
ag60
ag108
ag60
ag62
ag64
ag144
ag144
ag60
ag108
ag60
ag108
ag60
ag61
ag107
ag61
ag62
ag68
ag71
ag111
ag112
ag106
ag60
ag62
ag109
ag61
ag61
ag62
ag109
ag62
ag64
ag144
ag65
ag66
ag66
ag66
ag68
ag113
ag112
ag106
ag60
ag108
ag60
ag107
ag62
ag109
ag61
ag107
ag62
ag68
ag69
ag113
ag114
ag70
ag70
ag71
ag72
ag74
ag75
ag75
ag121
ag124
ag74
ag75
ag121
ag122
ag76
ag115
ag115
ag74
ag76
ag73
ag111
ag114
ag70
ag71
ag111
ag133
ag110
ag71
ag77
ag77
ag72
ag74
ag76
ag73
ag72
ag74
ag76
ag115
ag74
ag75
ag76
ag78
ag80
ag86
ag81
ag123
ag76
ag78
ag80
ag85
ag83
ag86
ag81
ag123
ag75
ag75
ag121
ag122
ag75
ag75
ag121
ag124
ag73
ag111
ag114
ag70
ag71
ag72
ag115
ag74
ag75
ag76
ag73
ag111
ag114
ag113
ag112
ag60
ag108
ag60
ag61
ag61
ag108
ag60
ag62
ag64
ag144
ag60
ag62
ag66
ag109
ag108
ag65
ag66
ag64
ag106
ag106
ag106
ag60
ag61
ag62
ag64
ag65
ag109
ag62
ag68
ag71
ag111
ag112
ag65
ag64
ag65
ag66
ag64
ag65
ag109
ag61
ag108
ag60
ag62
ag66
ag109
ag62
ag109
ag62
ag109
ag108
ag65
ag66
ag66
ag66
ag68
ag71
ag110
ag70
asg89
(lp209
g92
ag93
ag91
ag92
ag91
ag92
ag51
ag93
ag91
ag91
ag92
ag93
ag92
ag93
ag93
ag91
ag91
ag93
ag91
ag91
ag91
ag91
ag93
ag91
ag93
ag93
ag92
ag51
ag92
ag93
ag92
ag91
ag92
ag93
ag93
ag93
ag93
ag51
ag92
ag93
ag93
ag91
ag93
ag93
ag93
ag51
ag51
ag93
ag92
ag51
ag91
ag93
ag93
ag93
ag93
ag93
ag51
ag93
ag51
ag93
ag51
ag93
ag51
ag93
ag93
ag93
ag91
ag51
ag91
ag92
ag93
ag93
ag93
ag93
ag93
ag93
ag93
ag93
ag92
ag92
ag51
ag51
ag91
ag93
ag92
ag92
ag93
ag91
ag92
ag92
ag93
ag93
ag93
ag92
ag93
ag51
ag93
ag93
ag91
ag51
ag91
ag91
ag51
ag93
ag92
ag92
ag91
ag51
ag91
ag51
ag91
ag92
ag92
ag51
ag91
ag92
ag51
ag91
ag92
ag92
ag92
ag93
ag92
ag93
ag92
ag93
ag91
ag92
ag93
ag93
ag51
ag92
ag91
ag92
ag51
ag93
ag93
ag93
ag93
ag93
ag91
ag92
ag93
ag93
ag91
ag93
ag92
ag92
ag91
ag93
ag93
ag51
ag93
ag92
ag93
ag91
ag93
ag91
ag51
ag93
ag91
ag92
ag51
ag91
ag93
ag93
ag93
ag91
ag93
ag93
ag51
ag91
ag91
ag93
ag91
ag93
ag91
ag92
ag93
ag91
ag92
ag92
ag93
ag93
ag93
ag51
ag91
ag92
ag91
ag93
ag93
ag93
ag91
ag92
ag92
ag91
ag51
ag91
ag93
ag91
ag91
asg94
(lp210
g92
ag92
ag91
ag92
ag92
ag92
ag91
ag91
ag92
ag91
ag91
ag93
ag91
ag91
ag93
ag91
ag93
ag93
ag93
ag51
ag51
ag93
ag91
ag93
ag91
ag93
ag92
ag51
ag92
ag93
ag51
ag91
ag91
ag92
ag92
ag93
ag93
ag91
ag92
ag92
ag93
ag91
ag93
ag93
ag51
ag91
ag92
ag92
ag92
ag51
ag93
ag92
ag92
ag93
ag91
ag93
ag51
ag93
ag91
ag92
ag51
ag93
ag51
ag92
ag93
ag91
ag51
ag51
ag91
ag51
ag93
ag92
ag92
ag93
ag93
ag93
ag92
ag93
ag91
ag91
ag51
ag51
ag93
ag91
ag92
ag91
ag91
ag51
ag91
ag91
ag93
ag93
ag91
ag92
ag92
ag51
ag93
ag91
ag92
ag51
ag93
ag91
ag51
ag93
ag92
ag91
ag91
ag51
ag51
ag91
ag92
ag91
ag91
ag51
ag93
ag91
ag51
ag91
ag92
ag92
ag92
ag93
ag91
ag92
ag92
ag93
ag93
ag92
ag91
ag91
ag51
ag91
ag51
ag51
ag93
ag92
ag91
ag92
ag91
ag91
ag93
ag92
ag93
ag91
ag93
ag92
ag92
ag91
ag93
ag93
ag93
ag51
ag93
ag93
ag92
ag91
ag91
ag91
ag92
ag93
ag92
ag92
ag92
ag93
ag92
ag93
ag93
ag91
ag91
ag93
ag51
ag91
ag91
ag92
ag91
ag93
ag91
ag92
ag93
ag91
ag91
ag92
ag91
ag93
ag93
ag92
ag91
ag93
ag91
ag93
ag91
ag91
ag91
ag92
ag92
ag92
ag51
ag91
ag93
ag51
ag91
asg96
(lp211
g92
ag92
ag91
ag92
ag92
ag92
ag91
ag91
ag92
ag91
ag91
ag93
ag91
ag91
ag93
ag91
ag93
ag93
ag93
ag51
ag51
ag93
ag91
ag93
ag91
ag93
ag92
ag51
ag92
ag93
ag51
ag91
ag91
ag92
ag92
ag93
ag93
ag91
ag92
ag92
ag93
ag91
ag93
ag93
ag51
ag91
ag92
ag92
ag92
ag51
ag93
ag92
ag92
ag93
ag91
ag93
ag51
ag93
ag91
ag92
ag51
ag93
ag51
ag92
ag93
ag91
ag51
ag51
ag91
ag51
ag93
ag92
ag92
ag93
ag93
ag93
ag92
ag93
ag91
ag91
ag51
ag51
ag93
ag91
ag92
ag91
ag91
ag51
ag91
ag91
ag93
ag93
ag91
ag92
ag92
ag51
ag93
ag91
ag92
ag51
ag93
ag91
ag51
ag93
ag92
ag91
ag91
ag51
ag51
ag91
ag92
ag91
ag91
ag51
ag93
ag91
ag51
ag91
ag92
ag92
ag92
ag93
ag91
ag92
ag92
ag93
ag93
ag92
ag91
ag91
ag51
ag91
ag51
ag51
ag93
ag92
ag91
ag92
ag91
ag91
ag93
ag92
ag93
ag91
ag93
ag92
ag92
ag91
ag93
ag93
ag93
ag51
ag93
ag93
ag92
ag91
ag91
ag91
ag92
ag93
ag92
ag92
ag92
ag93
ag92
ag93
ag93
ag91
ag91
ag93
ag51
ag91
ag91
ag92
ag91
ag93
ag91
ag92
ag93
ag91
ag91
ag92
ag91
ag93
ag93
ag92
ag91
ag93
ag91
ag93
ag91
ag91
ag91
ag92
ag92
ag92
ag51
ag91
ag93
ag51
ag91
asaa(lp212
I8
ag39
(g40
tp213
Rp214
g43
(lp215
g45
ag47
ag45
ag45
ag46
ag45
ag45
ag45
ag45
ag45
ag45
ag47
ag45
ag46
ag47
ag46
ag45
ag45
ag45
ag46
ag45
ag47
ag46
ag46
ag47
ag45
ag45
ag45
ag46
ag46
ag46
ag45
ag47
ag46
ag46
ag45
ag45
ag46
ag46
ag46
ag47
ag46
ag46
ag47
ag45
ag45
ag47
ag45
ag45
ag45
ag47
ag45
ag46
ag46
ag45
ag45
ag45
ag45
ag46
ag47
ag46
ag47
asg48
(lp216
I01
aI01
aI00
aI00
aI00
aI00
aI00
aI00
aI00
aI00
aI01
aI01
aI00
aI01
aI00
aI00
aI00
aI00
aI00
aI00
aI01
aI00
aI00
aI01
aI01
aI00
aI00
aI00
aI00
aI00
aI00
aI01
aI00
aI00
aI00
aI00
aI00
aI00
aI00
aI01
aI00
aI00
aI01
aI00
aI00
aI01
aI00
aI00
aI00
aI01
aI00
aI00
aI00
aI00
aI00
aI00
aI00
aI00
aI01
aI00
aI01
aI01
asg50
I62
sg51
g54
sg55
(lp217
(g57
I0
g24
tp218
ag65
ag68
ag70
ag113
ag114
ag69
ag69
ag70
ag69
ag70
ag71
ag72
ag74
ag121
ag122
ag76
ag115
ag115
ag74
ag76
ag78
ag122
ag120
ag121
ag80
ag86
ag86
ag85
ag87
ag87
ag83
ag81
ag82
ag164
ag83
ag86
ag85
ag87
ag87
ag88
ag82
ag87
ag88
ag153
ag84
ag81
ag153
ag84
ag86
ag81
ag153
ag85
ag87
ag83
ag84
ag84
ag84
ag85
ag88
ag82
ag88
asg89
(lp219
g91
ag51
ag51
ag91
ag93
ag92
ag92
ag93
ag51
ag51
ag92
ag51
ag91
ag93
ag51
ag93
ag91
ag91
ag93
ag93
ag91
ag93
ag92
ag93
ag51
ag51
ag92
ag91
ag93
ag92
ag93
ag91
ag93
ag51
ag91
ag51
ag93
ag93
ag93
ag93
ag93
ag93
ag93
ag92
ag91
ag93
ag93
ag91
ag51
ag92
ag93
ag91
ag93
ag93
ag51
ag51
ag93
ag91
ag92
ag92
ag93
ag51
asg94
(lp220
g91
ag51
ag51
ag93
ag91
ag92
ag92
ag51
ag92
ag51
ag91
ag51
ag93
ag93
ag91
ag91
ag51
ag51
ag93
ag91
ag91
ag91
ag51
ag93
ag51
ag51
ag51
ag93
ag92
ag92
ag91
ag91
ag91
ag51
ag91
ag51
ag93
ag92
ag92
ag93
ag91
ag92
ag93
ag93
ag92
ag91
ag93
ag92
ag51
ag91
ag93
ag93
ag92
ag91
ag92
ag92
ag92
ag93
ag93
ag91
ag93
ag51
asg96
(lp221
g91
ag51
ag51
ag93
ag91
ag92
ag92
ag51
ag92
ag51
ag91
ag51
ag93
ag93
ag91
ag91
ag51
ag51
ag93
ag91
ag91
ag91
ag51
ag93
ag51
ag51
ag51
ag93
ag92
ag92
ag91
ag91
ag91
ag51
ag91
ag51
ag93
ag92
ag92
ag93
ag91
ag92
ag93
ag93
ag92
ag91
ag93
ag92
ag51
ag91
ag93
ag93
ag92
ag91
ag92
ag92
ag92
ag93
ag93
ag91
ag93
ag51
asaa(lp222
I9
ag39
(g40
tp223
Rp224
g43
(lp225
g45
ag45
ag47
ag45
ag46
ag47
ag47
ag45
ag45
ag46
ag46
ag45
ag45
ag47
ag45
ag46
ag45
ag45
ag46
ag45
ag46
ag45
ag45
ag47
ag47
ag46
ag45
ag45
ag46
ag46
ag46
ag46
ag45
ag46
ag46
ag47
ag47
ag45
ag46
ag45
ag45
ag46
ag47
ag46
ag47
ag45
ag45
ag46
ag45
ag47
ag45
ag47
asg48
(lp226
I00
aI01
aI00
aI00
aI01
aI00
aI00
aI00
aI00
aI00
aI00
aI00
aI01
aI01
aI00
aI00
aI00
aI00
aI00
aI00
aI00
aI00
aI01
aI00
aI00
aI00
aI00
aI00
aI00
aI00
aI00
aI00
aI00
aI00
aI01
aI00
aI01
aI00
aI00
aI00
aI00
aI01
aI00
aI01
aI00
aI00
aI00
aI00
aI01
aI00
aI01
aI01
asg50
I52
sg51
g196
sg55
(lp227
(g57
I0
g24
tp228
ag144
ag65
ag64
ag60
ag62
ag66
ag64
ag144
ag60
ag61
ag108
ag106
ag65
ag68
ag113
ag114
ag70
ag113
ag114
ag113
ag112
ag106
ag65
ag66
ag109
ag108
ag106
ag60
ag61
ag61
ag61
ag108
ag60
ag61
ag62
ag66
ag68
ag113
ag145
ag150
ag146
ag148
ag186
ag148
ag149
ag151
ag146
ag187
ag185
ag149
ag185
asg89
(lp229
g91
ag91
ag93
ag51
ag93
ag92
ag93
ag51
ag91
ag92
ag93
ag92
ag91
ag91
ag91
ag93
ag91
ag93
ag92
ag93
ag92
ag91
ag91
ag93
ag91
ag93
ag91
ag93
ag93
ag91
ag92
ag92
ag91
ag92
ag93
ag51
ag51
ag93
ag92
ag93
ag93
ag93
ag91
ag93
ag91
ag51
ag93
ag93
ag91
ag91
ag93
ag92
asg94
(lp230
g51
ag91
ag93
ag93
ag93
ag92
ag93
ag51
ag93
ag92
ag91
ag92
ag91
ag51
ag93
ag91
ag51
ag93
ag91
ag93
ag92
ag92
ag91
ag92
ag91
ag91
ag92
ag93
ag92
ag92
ag92
ag91
ag93
ag92
ag93
ag92
ag51
ag93
ag51
ag92
ag93
ag93
ag91
ag93
ag93
ag51
ag93
ag91
ag91
ag93
ag91
ag51
asg96
(lp231
g51
ag91
ag93
ag93
ag93
ag92
ag93
ag51
ag93
ag92
ag91
ag92
ag91
ag51
ag93
ag91
ag51
ag93
ag91
ag93
ag92
ag92
ag91
ag92
ag91
ag91
ag92
ag93
ag92
ag92
ag92
ag91
ag93
ag92
ag93
ag92
ag51
ag93
ag51
ag92
ag93
ag93
ag91
ag93
ag93
ag51
ag93
ag91
ag91
ag93
ag91
ag51
asaatp232
Rp233
aatp234
Rp235
.