ccollections
OrderedDict
p0
((lp1
(lp2
S'combination_dict'
p3
ag0
((lp4
(lp5
S'r_to_g_config'
p6
aS'bl'
p7
aa(lp8
S'num_turns'
p9
aI3
aa(lp10
S'start_direction'
p11
acutils_ms
StartDirection
p12
(I0
tp13
Rp14
aa(lp15
S'assistance_type'
p16
acutils_ms
AssistanceType
p17
(I1
tp18
Rp19
aa(lp20
S'start_mode'
p21
aS'y'
p22
aa(lp23
S'ui_given_a_noise'
p24
aF0.5
aa(lp25
S'um_given_ui_noise'
p26
aF0.3
aa(lp27
S'entropy_threshold'
p28
aF0.6
aatp29
Rp30
aa(lp31
S'data'
p32
accollections
defaultdict
p33
(c__builtin__
list
p34
tp35
Rp36
S'a'
p37
(lp38
S'mode_l'
p39
ag39
aS'move_n'
p40
ag40
aS'mode_r'
p41
ag40
ag41
ag41
ag41
ag39
ag39
ag39
ag39
ag41
ag40
ag39
ag40
ag41
ag41
ag40
ag41
ag39
ag39
ag39
ag40
ag41
aS'move_p'
p42
ag42
ag42
ag41
ag40
ag39
ag39
ag40
ag41
ag41
ag39
ag40
ag39
ag39
ag39
ag39
ag39
ag40
ag41
ag40
ag39
ag40
ag41
ag39
ag39
ag39
ag41
ag40
ag41
ag41
ag42
ag42
ag39
ag41
ag39
ag39
ag40
asS'assistance_match_with_ground_truth'
p43
(lp44
I00
aI01
aI00
aI00
aI01
aI01
aI00
aI00
aI00
aI00
aI00
aI00
aI00
aI01
aI00
aI01
aI00
aI00
aI01
aI01
aI00
aI00
aI00
aI01
aI01
aI01
aI00
aI00
aI01
aI01
aI00
aI00
aI01
aI00
aI00
aI00
aI01
aI01
aI00
aI00
aI00
aI00
aI01
aI00
aI01
aI01
aI01
aI00
aI00
aI00
aI00
aI00
aI01
aI00
aI00
aI00
aI00
aI00
aI00
aI00
aI00
aI01
aI01
asS'total_steps'
p45
I63
sS'sp'
p46
(lp47
(S'p0'
p48
I0
S'y'
p49
tp50
a(g48
I0
S'x'
p51
tp52
a(g48
I0
g51
tp53
a(g48
I0
S't'
p54
tp55
a(g48
I0
g51
tp56
a(S'p1'
p57
I0
g51
tp58
a(g57
I0
g51
tp59
a(g57
I0
g51
tp60
a(g57
I0
g54
tp61
a(g57
I0
g54
tp62
ag62
ag62
a(g57
I0
g51
tp63
a(g57
I0
g49
tp64
a(g48
I0
g49
tp65
ag52
ag55
a(g48
I0
g54
tp66
ag56
ag58
ag61
ag62
a(g57
I0
g54
tp67
a(g57
I0
g49
tp68
a(S'p2'
p69
I0
g49
tp70
a(g69
I0
g54
tp71
a(g69
I0
g54
tp72
ag72
a(g69
F1.5707963267948966
g54
tp73
a(g69
F1.5707963267948966
g51
tp74
a(g69
F1.5707963267948966
g49
tp75
a(g69
F1.5707963267948966
g49
tp76
a(g69
F1.5707963267948966
g51
tp77
a(g57
F1.5707963267948966
g51
tp78
a(g57
F1.5707963267948966
g51
tp79
a(g57
F1.5707963267948966
g54
tp80
a(g57
F1.5707963267948966
g49
tp81
a(g69
F1.5707963267948966
g49
tp82
ag76
ag76
ag76
ag76
ag77
ag78
a(g57
F1.5707963267948966
g49
tp83
ag82
ag77
a(g69
F1.5707963267948966
g54
tp84
a(g69
F1.5707963267948966
g49
tp85
ag76
ag76
a(g69
F1.5707963267948966
g54
tp86
ag74
ag84
a(g69
F1.5707963267948966
g54
tp87
a(g69
I0
g54
tp88
ag72
a(g69
I0
g51
tp89
a(S'p3'
p90
I0
g51
tp91
a(g90
I0
g54
tp92
a(g90
I0
g54
tp93
a(g90
I0
g49
tp94
a(S'p4'
p95
I0
g49
tp96
asS's'
p97
(lp98
(g48
I0
g22
tp99
ag50
ag52
ag53
ag55
ag56
ag58
ag59
ag60
ag61
ag62
ag62
ag62
ag63
ag64
ag65
ag52
ag55
ag66
ag56
ag58
ag61
ag62
ag67
ag68
ag70
ag71
ag72
ag72
ag73
ag74
ag75
ag76
ag77
ag78
ag79
ag80
ag81
ag82
ag76
ag76
ag76
ag76
ag77
ag78
ag83
ag82
ag77
ag84
ag85
ag76
ag76
ag86
ag74
ag84
ag87
ag88
ag72
ag89
ag91
ag92
ag93
ag94
asS'ui'
p100
(lp101
S'ss'
p102
aS'hs'
p103
ag102
ag102
aS'hp'
p104
ag102
ag46
ag103
ag104
ag102
ag102
ag102
ag103
ag104
ag104
ag103
ag46
ag104
ag104
ag102
ag103
ag103
ag46
ag103
ag102
ag104
ag102
ag102
ag46
ag104
ag103
ag103
ag103
ag102
ag46
ag104
ag102
ag102
ag103
ag102
ag102
ag104
ag103
ag46
ag104
ag102
ag103
ag103
ag104
ag102
ag103
ag103
ag104
ag103
ag46
ag102
ag102
ag104
ag102
ag104
ag103
ag103
ag102
asS'um_before'
p105
(lp106
g102
ag103
ag46
ag103
ag104
ag102
ag46
ag102
ag103
ag102
ag102
ag102
ag104
ag104
ag46
ag103
ag103
ag46
ag104
ag102
ag103
ag102
ag46
ag103
ag102
ag104
ag102
ag102
ag46
ag104
ag104
ag102
ag103
ag46
ag46
ag103
ag103
ag102
ag102
ag102
ag102
ag102
ag103
ag46
ag104
ag102
ag103
ag103
ag103
ag102
ag102
ag104
ag104
ag103
ag46
ag102
ag102
ag104
ag102
ag103
ag102
ag103
ag102
asS'um_after'
p107
(lp108
g102
ag103
ag46
ag103
ag104
ag102
ag46
ag102
ag103
ag102
ag102
ag102
ag104
ag104
ag46
ag103
ag103
ag46
ag104
ag102
ag103
ag102
ag46
ag103
ag102
ag104
ag102
ag102
ag46
ag104
ag104
ag102
ag103
ag46
ag46
ag103
ag103
ag102
ag102
ag102
ag102
ag102
ag103
ag46
ag104
ag102
ag103
ag103
ag103
ag102
ag102
ag104
ag104
ag103
ag46
ag102
ag102
ag104
ag102
ag103
ag102
ag103
ag102
asaa(lp109
S'index'
p110
aI79661
aatp111
Rp112
.