ccollections
OrderedDict
p0
((lp1
(lp2
S'index'
p3
aI15102
aa(lp4
S'combination_dict'
p5
ag0
((lp6
(lp7
S'r_to_g_config'
p8
aS'br'
p9
aa(lp10
S'num_turns'
p11
aI3
aa(lp12
S'start_direction'
p13
acutils_ms
StartDirection
p14
(I1
tp15
Rp16
aa(lp17
S'assistance_type'
p18
acutils_ms
AssistanceType
p19
(I1
tp20
Rp21
aa(lp22
S'start_mode'
p23
aS'x'
p24
aa(lp25
S'ui_given_a_noise'
p26
aF0.3
aa(lp27
S'um_given_ui_noise'
p28
aF0.5
aa(lp29
S'entropy_threshold'
p30
aF0.6
aa(lp31
S'is_assistance'
p32
aI01
aatp33
Rp34
aa(lp35
S'trials'
p36
ag0
((lp37
(lp38
I0
accollections
defaultdict
p39
(c__builtin__
list
p40
tp41
Rp42
S'a'
p43
(lp44
S'mode_r'
p45
aS'move_n'
p46
aS'mode_l'
p47
aS'move_p'
p48
ag47
ag47
ag48
ag47
ag48
ag47
ag47
ag46
ag47
ag48
ag45
ag47
ag46
ag47
ag48
asS'assistance_match_with_ground_truth'
p49
(lp50
I01
aI01
aI01
aI01
aI00
aI01
aI00
aI01
aI01
aI00
aI01
aI01
aI01
aI00
aI00
aI01
aI01
aI01
aI01
asS'total_steps'
p51
I19
sS'sp'
p52
(S'p4'
p53
F1.5707963267948966
S'x'
p54
tp55
sS's'
p56
(lp57
(S'p0'
p58
I0
g24
tp59
a(g58
I0
S'y'
p60
tp61
a(S'p1'
p62
I0
g60
tp63
a(g62
I0
g54
tp64
a(S'p2'
p65
I0
g54
tp66
a(g65
I0
g54
tp67
a(g65
I0
S't'
p68
tp69
a(g65
I0
g54
tp70
ag69
a(g65
F1.5707963267948966
g68
tp71
a(g65
F1.5707963267948966
g68
tp72
a(g65
F1.5707963267948966
g60
tp73
a(S'p3'
p74
F1.5707963267948966
g60
tp75
a(g74
F1.5707963267948966
g54
tp76
a(g65
F1.5707963267948966
g54
tp77
a(g65
F1.5707963267948966
g68
tp78
ag73
ag75
ag76
asS'ui'
p79
(lp80
S'hp'
p81
aS'ss'
p82
ag52
aS'hs'
p83
ag52
ag83
ag52
ag83
ag52
ag83
ag52
ag82
ag83
ag82
ag52
ag83
ag82
ag83
ag52
asS'um_before'
p84
(lp85
g81
ag82
ag83
ag83
ag52
ag82
ag81
ag83
ag83
ag52
ag83
ag82
ag83
ag82
ag83
ag83
ag82
ag83
ag83
asS'um_after'
p86
(lp87
g81
ag82
ag83
ag52
ag52
ag83
ag81
ag83
ag52
ag52
ag83
ag82
ag83
ag82
ag83
ag83
ag82
ag83
ag52
asaa(lp88
I1
ag39
(g40
tp89
Rp90
g43
(lp91
g45
ag46
ag47
ag48
ag47
ag48
ag47
ag46
ag47
ag47
ag45
ag48
asg49
(lp92
I01
aI01
aI01
aI01
aI01
aI01
aI01
aI01
aI00
aI00
aI01
aI01
asg51
I12
sg52
g55
sg56
(lp93
(g58
I0
g24
tp94
ag61
ag63
ag64
ag66
ag69
ag71
ag73
ag75
a(g74
F1.5707963267948966
g60
tp95
a(g74
F1.5707963267948966
g68
tp96
a(g74
F1.5707963267948966
g54
tp97
asg79
(lp98
g81
ag82
ag82
ag83
ag83
ag52
ag83
ag82
ag83
ag52
ag81
ag52
asg84
(lp99
g81
ag83
ag82
ag83
ag83
ag52
ag82
ag82
ag52
ag81
ag81
ag83
asg86
(lp100
g81
ag82
ag83
ag52
ag83
ag52
ag83
ag82
ag52
ag81
ag81
ag52
asaa(lp101
I2
ag39
(g40
tp102
Rp103
g43
(lp104
g45
ag46
ag47
ag48
ag47
ag48
ag47
ag47
ag46
ag47
ag45
ag48
asg49
(lp105
I01
aI01
aI01
aI01
aI01
aI01
aI00
aI01
aI01
aI00
aI01
aI01
asg51
I12
sg52
g55
sg56
(lp106
(g58
I0
g24
tp107
ag61
ag63
ag64
ag66
ag69
ag71
ag72
ag73
ag75
ag96
ag97
asg79
(lp108
g81
ag82
ag83
ag52
ag83
ag52
ag52
ag83
ag83
ag83
ag82
ag52
asg84
(lp109
g82
ag82
ag82
ag52
ag82
ag52
ag52
ag82
ag83
ag81
ag82
ag52
asg86
(lp110
g81
ag82
ag83
ag52
ag83
ag52
ag52
ag83
ag82
ag81
ag81
ag52
asaa(lp111
I3
ag39
(g40
tp112
Rp113
g43
(lp114
g45
ag45
ag46
ag47
ag48
ag47
ag48
ag47
ag45
ag46
ag47
ag48
ag45
ag46
ag47
ag47
ag47
ag48
asg49
(lp115
I00
aI01
aI01
aI01
aI01
aI01
aI01
aI00
aI01
aI01
aI01
aI00
aI01
aI01
aI00
aI00
aI01
aI01
asg51
I18
sg52
g55
sg56
(lp116
(g58
I0
g24
tp117
a(g58
I0
g54
tp118
ag61
ag63
ag64
ag66
ag69
ag71
a(g65
F1.5707963267948966
g54
tp119
a(g65
F1.5707963267948966
g60
tp120
ag75
ag76
ag77
ag120
ag75
ag95
ag95
ag76
asg79
(lp121
g52
ag81
ag82
ag82
ag52
ag83
ag52
ag81
ag81
ag82
ag83
ag82
ag52
ag83
ag52
ag52
ag83
ag52
asg84
(lp122
g52
ag81
ag52
ag82
ag83
ag82
ag83
ag81
ag81
ag82
ag83
ag82
ag82
ag83
ag52
ag52
ag83
ag52
asg86
(lp123
g52
ag81
ag82
ag83
ag52
ag83
ag52
ag81
ag81
ag82
ag83
ag82
ag81
ag82
ag52
ag52
ag83
ag52
asaa(lp124
I4
ag39
(g40
tp125
Rp126
g43
(lp127
g45
ag45
ag46
ag47
ag48
ag47
ag48
ag47
ag47
ag48
ag47
ag48
ag47
ag46
ag47
ag47
ag48
ag47
ag47
ag45
ag48
ag47
ag48
ag47
ag47
ag48
asg49
(lp128
I00
aI01
aI01
aI01
aI01
aI01
aI00
aI00
aI01
aI00
aI01
aI01
aI01
aI01
aI00
aI01
aI00
aI00
aI00
aI01
aI00
aI01
aI00
aI00
aI01
aI01
asg51
I26
sg52
g55
sg56
(lp129
(g58
I0
g24
tp130
ag118
ag61
ag63
ag64
ag66
ag69
ag70
ag67
ag69
ag70
ag69
ag71
ag73
ag75
ag95
ag76
a(g74
F1.5707963267948966
g60
tp131
ag95
ag96
ag97
ag131
ag76
ag131
ag95
ag76
asg79
(lp132
g81
ag81
ag83
ag83
ag52
ag83
ag81
ag52
ag83
ag52
ag82
ag52
ag83
ag82
ag52
ag83
ag52
ag52
ag83
ag81
ag81
ag83
ag83
ag82
ag83
ag52
asg84
(lp133
g52
ag82
ag83
ag83
ag52
ag83
ag81
ag52
ag82
ag81
ag82
ag83
ag82
ag82
ag52
ag83
ag81
ag52
ag81
ag81
ag81
ag82
ag81
ag52
ag83
ag52
asg86
(lp134
g52
ag81
ag82
ag83
ag52
ag83
ag81
ag52
ag83
ag81
ag83
ag52
ag83
ag82
ag52
ag83
ag81
ag52
ag81
ag81
ag81
ag83
ag81
ag52
ag83
ag52
asaa(lp135
I5
ag39
(g40
tp136
Rp137
g43
(lp138
g45
ag45
ag46
ag47
ag48
ag47
ag45
ag48
ag47
ag46
ag47
ag48
asg49
(lp139
I00
aI01
aI01
aI01
aI01
aI00
aI01
aI01
aI01
aI01
aI01
aI01
asg51
I12
sg52
g55
sg56
(lp140
(g58
I0
g24
tp141
ag118
ag61
ag63
ag64
ag66
a(g65
I0
g60
tp142
a(g65
I0
g68
tp143
ag71
ag73
ag75
ag76
asg79
(lp144
g81
ag81
ag82
ag83
ag52
ag52
ag82
ag52
ag83
ag82
ag82
ag52
asg84
(lp145
g52
ag81
ag82
ag83
ag52
ag81
ag82
ag52
ag82
ag83
ag82
ag83
asg86
(lp146
g52
ag81
ag82
ag83
ag52
ag81
ag81
ag52
ag83
ag82
ag83
ag52
asaa(lp147
I6
ag39
(g40
tp148
Rp149
g43
(lp150
g45
ag45
ag45
ag47
ag46
ag47
ag45
ag45
ag45
ag48
ag47
ag48
ag48
ag47
ag46
ag47
ag48
asg49
(lp151
I00
aI00
aI00
aI01
aI01
aI00
aI00
aI00
aI01
aI01
aI01
aI00
aI01
aI01
aI01
aI01
aI01
asg51
I17
sg52
g55
sg56
(lp152
(g58
I0
g24
tp153
ag118
ag118
a(g58
I0
g68
tp154
a(g58
I0
g60
tp155
ag63
a(g62
I0
g68
tp156
a(g62
I0
g68
tp157
ag157
a(g62
I0
g54
tp158
ag66
ag69
a(g65
I0
g68
tp159
ag71
ag73
ag75
ag76
asg79
(lp160
g81
ag82
ag81
ag81
ag82
ag83
ag81
ag52
ag81
ag52
ag83
ag81
ag52
ag83
ag83
ag52
ag52
asg84
(lp161
g52
ag52
ag83
ag83
ag82
ag81
ag52
ag52
ag82
ag52
ag82
ag82
ag83
ag83
ag82
ag83
ag52
asg86
(lp162
g52
ag52
ag83
ag83
ag82
ag81
ag52
ag52
ag81
ag52
ag83
ag82
ag52
ag83
ag82
ag83
ag52
asaa(lp163
I7
ag39
(g40
tp164
Rp165
g43
(lp166
g45
ag46
ag47
ag48
ag47
ag48
ag47
ag46
ag47
ag48
ag45
ag47
ag46
ag47
ag48
asg49
(lp167
I01
aI01
aI01
aI01
aI01
aI01
aI01
aI01
aI01
aI00
aI00
aI01
aI01
aI01
aI01
asg51
I15
sg52
g55
sg56
(lp168
(g58
I0
g24
tp169
ag61
ag63
ag64
ag66
ag69
ag71
ag73
ag75
ag76
ag77
ag78
ag73
ag75
ag76
asg79
(lp170
g81
ag82
ag82
ag52
ag83
ag52
ag83
ag82
ag83
ag52
ag82
ag83
ag82
ag83
ag52
asg84
(lp171
g81
ag83
ag82
ag52
ag83
ag52
ag83
ag82
ag83
ag82
ag83
ag83
ag52
ag83
ag52
asg86
(lp172
g81
ag82
ag83
ag52
ag83
ag52
ag83
ag82
ag83
ag82
ag83
ag83
ag82
ag83
ag52
asaa(lp173
I8
ag39
(g40
tp174
Rp175
g43
(lp176
g45
ag46
ag47
ag46
ag47
ag47
ag48
ag47
ag47
ag48
ag47
ag46
ag47
ag48
asg49
(lp177
I01
aI00
aI01
aI01
aI00
aI01
aI01
aI00
aI01
aI01
aI01
aI01
aI01
aI01
asg51
I14
sg52
g55
sg56
(lp178
(g58
I0
g24
tp179
ag61
a(g58
I0
g68
tp180
ag155
ag63
a(g62
I0
g60
tp181
ag64
ag66
ag67
ag69
ag71
ag73
ag75
ag76
asg79
(lp182
g81
ag82
ag83
ag82
ag52
ag83
ag52
ag82
ag83
ag52
ag83
ag52
ag83
ag81
asg84
(lp183
g81
ag81
ag83
ag83
ag52
ag82
ag52
ag52
ag83
ag52
ag83
ag52
ag83
ag83
asg86
(lp184
g81
ag81
ag83
ag82
ag52
ag83
ag52
ag52
ag83
ag52
ag83
ag82
ag83
ag52
asaa(lp185
I9
ag39
(g40
tp186
Rp187
g43
(lp188
g45
ag46
ag47
ag48
ag47
ag45
ag48
ag47
ag46
ag47
ag48
ag47
ag48
asg49
(lp189
I01
aI01
aI01
aI01
aI00
aI01
aI01
aI01
aI01
aI01
aI00
aI01
aI01
asg51
I13
sg52
g55
sg56
(lp190
(g58
I0
g24
tp191
ag61
ag63
ag64
ag66
ag142
ag143
ag71
ag73
ag75
ag76
ag131
ag76
asg79
(lp192
g81
ag81
ag83
ag83
ag83
ag81
ag83
ag83
ag82
ag83
ag81
ag83
ag52
asg84
(lp193
g81
ag83
ag83
ag83
ag81
ag82
ag83
ag83
ag82
ag83
ag81
ag83
ag52
asg86
(lp194
g81
ag82
ag83
ag52
ag81
ag81
ag52
ag83
ag82
ag83
ag81
ag83
ag52
asaatp195
Rp196
aatp197
Rp198
.