ccollections
OrderedDict
p0
((lp1
(lp2
S'index'
p3
aI13859
aa(lp4
S'combination_dict'
p5
ag0
((lp6
(lp7
S'r_to_g_config'
p8
aS'br'
p9
aa(lp10
S'num_turns'
p11
aI2
aa(lp12
S'start_direction'
p13
acutils_ms
StartDirection
p14
(I1
tp15
Rp16
aa(lp17
S'assistance_type'
p18
acutils_ms
AssistanceType
p19
(I1
tp20
Rp21
aa(lp22
S'start_mode'
p23
aS'x'
p24
aa(lp25
S'ui_given_a_noise'
p26
aF0.5
aa(lp27
S'um_given_ui_noise'
p28
aF0.3
aa(lp29
S'entropy_threshold'
p30
aF0.9
aa(lp31
S'is_assistance'
p32
aI00
aatp33
Rp34
aa(lp35
S'trials'
p36
ag0
((lp37
(lp38
I0
accollections
defaultdict
p39
(c__builtin__
list
p40
tp41
Rp42
S'a'
p43
(lp44
S'mode_r'
p45
ag45
ag45
ag45
ag45
aS'mode_l'
p46
aS'move_n'
p47
ag45
ag45
ag45
ag46
aS'move_p'
p48
ag45
ag48
ag45
ag47
ag45
ag47
asS'assistance_match_with_ground_truth'
p49
(lp50
I00
aI00
aI00
aI00
aI00
aI01
aI01
aI00
aI00
aI00
aI01
aI01
aI01
aI01
aI01
aI00
aI01
aI01
asS'total_steps'
p51
I18
sS'sp'
p52
(S'p3'
p53
F1.5707963267948966
S'y'
p54
tp55
sS's'
p56
(lp57
(S'p0'
p58
I0
g24
tp59
a(g58
I0
S'x'
p60
tp61
a(g58
I0
g60
tp62
ag62
ag61
a(g58
I0
S't'
p63
tp64
a(g58
I0
g54
tp65
a(S'p1'
p66
I0
g54
tp67
a(g66
I0
g54
tp68
ag68
a(g66
I0
g60
tp69
a(g66
I0
g63
tp70
a(g66
F1.5707963267948966
g63
tp71
a(g66
F1.5707963267948966
g60
tp72
a(S'p2'
p73
F1.5707963267948966
g60
tp74
a(g73
F1.5707963267948966
g54
tp75
a(g73
F1.5707963267948966
g60
tp76
ag75
asS'ui'
p77
(lp78
S'hs'
p79
ag79
ag79
ag52
ag79
ag79
aS'ss'
p80
aS'hp'
p81
ag52
ag52
ag79
ag52
ag81
ag52
ag81
ag80
ag81
ag80
asS'um_before'
p82
(lp83
g80
ag52
ag52
ag80
ag79
ag79
ag80
ag52
ag52
ag79
ag79
ag52
ag81
ag52
ag81
ag79
ag81
ag80
asS'um_after'
p84
(lp85
g80
ag52
ag52
ag80
ag79
ag79
ag80
ag52
ag52
ag79
ag79
ag52
ag81
ag52
ag81
ag79
ag81
ag80
asaa(lp86
I1
ag39
(g40
tp87
Rp88
g43
(lp89
g45
ag47
ag45
ag48
ag45
ag45
ag45
ag48
ag45
ag46
ag48
ag45
ag48
ag45
ag47
ag46
ag48
ag45
ag45
ag45
ag47
ag45
ag47
asg49
(lp90
I01
aI01
aI01
aI01
aI00
aI00
aI00
aI01
aI00
aI01
aI00
aI01
aI01
aI01
aI00
aI01
aI01
aI00
aI00
aI01
aI00
aI01
aI01
asg51
I23
sg52
g55
sg56
(lp91
(g58
I0
g24
tp92
a(g58
I0
g54
tp93
ag67
a(g66
I0
g63
tp94
ag71
a(g66
F1.5707963267948966
g63
tp95
ag95
a(g66
I0
g63
tp96
ag71
a(g66
F1.5707963267948966
g54
tp97
a(g66
F1.5707963267948966
g60
tp98
a(g66
F1.5707963267948966
g63
tp99
ag72
ag74
ag75
a(g66
F1.5707963267948966
g54
tp100
ag98
ag74
a(g73
F1.5707963267948966
g60
tp101
a(g73
F1.5707963267948966
g60
tp102
ag75
ag76
ag75
asg77
(lp103
g81
ag80
ag81
ag52
ag52
ag81
ag80
ag52
ag81
ag79
ag81
ag81
ag52
ag81
ag52
ag81
ag52
ag79
ag52
ag81
ag80
ag81
ag80
asg82
(lp104
g81
ag80
ag81
ag52
ag52
ag52
ag80
ag52
ag79
ag79
ag79
ag81
ag52
ag81
ag52
ag79
ag52
ag80
ag52
ag81
ag79
ag81
ag80
asg84
(lp105
g81
ag80
ag81
ag52
ag52
ag52
ag80
ag52
ag79
ag79
ag79
ag81
ag52
ag81
ag52
ag79
ag52
ag80
ag52
ag81
ag79
ag81
ag80
asaa(lp106
I2
ag39
(g40
tp107
Rp108
g43
(lp109
g45
ag45
ag47
ag45
ag48
ag45
ag48
ag45
ag48
ag45
ag48
ag45
ag47
ag46
ag45
ag45
ag45
ag48
ag45
ag45
ag47
asg49
(lp110
I00
aI01
aI01
aI01
aI00
aI01
aI00
aI01
aI01
aI01
aI01
aI01
aI00
aI00
aI00
aI00
aI01
aI01
aI00
aI01
aI01
asg51
I21
sg52
g55
sg56
(lp111
(g58
I0
g24
tp112
ag62
ag93
ag67
ag94
a(g66
I0
g54
tp113
ag94
ag113
ag94
ag71
ag72
ag74
ag75
ag100
a(g66
F1.5707963267948966
g63
tp114
ag95
ag95
ag72
ag74
ag102
ag75
asg77
(lp115
g52
ag81
ag80
ag81
ag79
ag81
ag79
ag81
ag52
ag81
ag52
ag81
ag52
ag79
ag81
ag81
ag81
ag52
ag81
ag81
ag80
asg82
(lp116
g52
ag81
ag80
ag81
ag79
ag81
ag79
ag81
ag52
ag81
ag52
ag81
ag52
ag81
ag52
ag52
ag81
ag52
ag52
ag81
ag80
asg84
(lp117
g52
ag81
ag80
ag81
ag79
ag81
ag79
ag81
ag52
ag81
ag52
ag81
ag52
ag81
ag52
ag52
ag81
ag52
ag52
ag81
ag80
asaa(lp118
I3
ag39
(g40
tp119
Rp120
g43
(lp121
g45
ag47
ag45
ag48
ag45
ag48
ag45
ag47
asg49
(lp122
I01
aI01
aI01
aI01
aI01
aI01
aI01
aI01
asg51
I8
sg52
g55
sg56
(lp123
(g58
I0
g24
tp124
ag93
ag67
ag94
ag71
ag72
ag74
ag75
asg77
(lp125
g81
ag80
ag81
ag52
ag81
ag52
ag81
ag80
asg82
(lp126
g81
ag80
ag81
ag52
ag81
ag52
ag81
ag80
asg84
(lp127
g81
ag80
ag81
ag52
ag81
ag52
ag81
ag80
asaa(lp128
I4
ag39
(g40
tp129
Rp130
g43
(lp131
g45
ag46
ag47
ag47
ag46
ag45
ag47
ag45
ag46
ag45
ag46
ag45
ag45
ag46
ag47
asg49
(lp132
I00
aI01
aI00
aI00
aI00
aI01
aI01
aI00
aI00
aI00
aI00
aI00
aI00
aI01
aI01
asg51
I15
sg52
(g53
I0
g54
tp133
sg56
(lp134
(g58
I0
g24
tp135
ag64
ag65
a(g58
I0
g54
tp136
a(g58
I0
g63
tp137
a(g58
I0
g60
tp138
ag93
ag67
ag69
a(g73
I0
g60
tp139
a(g73
I0
g63
tp140
a(g73
I0
g60
tp141
a(g73
I0
g60
tp142
ag140
a(g73
I0
g54
tp143
asg77
(lp144
g79
ag79
ag52
ag52
ag79
ag81
ag80
ag79
ag52
ag79
ag79
ag52
ag81
ag79
ag80
asg82
(lp145
g79
ag79
ag52
ag81
ag81
ag81
ag80
ag79
ag52
ag79
ag81
ag52
ag79
ag79
ag80
asg84
(lp146
g79
ag79
ag52
ag81
ag81
ag81
ag80
ag79
ag52
ag79
ag81
ag52
ag79
ag79
ag80
asaa(lp147
I5
ag39
(g40
tp148
Rp149
g43
(lp150
g45
ag47
ag47
ag45
ag45
ag46
ag45
ag47
ag45
ag45
ag45
ag48
ag45
ag46
ag48
ag45
ag47
asg49
(lp151
I01
aI00
aI01
aI00
aI00
aI00
aI01
aI01
aI00
aI00
aI01
aI01
aI00
aI01
aI01
aI01
aI01
asg51
I17
sg52
g55
sg56
(lp152
(g58
I0
g24
tp153
ag93
ag136
ag67
a(g66
I0
g54
tp154
ag69
a(g58
I0
g60
tp155
ag93
ag67
ag68
ag68
ag94
ag71
ag97
ag98
ag74
ag75
asg77
(lp156
g52
ag52
ag80
ag80
ag79
ag79
ag81
ag80
ag52
ag52
ag81
ag79
ag81
ag79
ag52
ag81
ag80
asg82
(lp157
g81
ag52
ag80
ag80
ag79
ag80
ag81
ag80
ag52
ag52
ag81
ag52
ag79
ag79
ag52
ag81
ag80
asg84
(lp158
g81
ag52
ag80
ag80
ag79
ag80
ag81
ag80
ag52
ag52
ag81
ag52
ag79
ag79
ag52
ag81
ag80
asaa(lp159
I6
ag39
(g40
tp160
Rp161
g43
(lp162
g45
ag45
ag45
ag47
ag45
ag45
ag45
ag45
ag46
ag45
ag48
ag45
ag45
ag48
ag45
ag47
ag46
ag46
ag48
ag46
ag46
ag45
ag48
ag45
ag47
asg49
(lp163
I00
aI00
aI01
aI01
aI00
aI00
aI00
aI00
aI00
aI01
aI01
aI00
aI01
aI00
aI01
aI01
aI00
aI01
aI00
aI00
aI00
aI01
aI01
aI01
aI01
asg51
I25
sg52
g55
sg56
(lp164
(g58
I0
g24
tp165
ag61
ag62
ag93
ag67
ag68
ag68
ag68
ag69
a(g66
I0
g54
tp166
ag94
ag71
ag95
ag72
a(g58
F1.5707963267948966
g60
tp167
a(g58
F1.5707963267948966
g54
tp168
a(g66
F1.5707963267948966
g54
tp169
a(g66
F1.5707963267948966
g54
tp170
ag98
a(g66
F1.5707963267948966
g54
tp171
a(g66
F1.5707963267948966
g54
tp172
ag114
ag72
ag74
ag75
asg77
(lp173
g80
ag52
ag52
ag80
ag81
ag52
ag52
ag52
ag79
ag81
ag52
ag52
ag79
ag80
ag81
ag80
ag79
ag79
ag52
ag79
ag79
ag81
ag79
ag52
ag80
asg82
(lp174
g80
ag52
ag81
ag80
ag52
ag52
ag52
ag79
ag81
ag81
ag52
ag52
ag81
ag80
ag81
ag80
ag80
ag79
ag81
ag52
ag81
ag81
ag52
ag81
ag80
asg84
(lp175
g80
ag52
ag81
ag80
ag52
ag52
ag52
ag79
ag81
ag81
ag52
ag52
ag81
ag80
ag81
ag80
ag80
ag79
ag81
ag52
ag81
ag81
ag52
ag81
ag80
asaa(lp176
I7
ag39
(g40
tp177
Rp178
g43
(lp179
g45
ag46
ag45
ag45
ag47
ag45
ag48
ag45
ag45
ag48
ag46
ag48
ag45
ag46
ag47
asg49
(lp180
I00
aI00
aI00
aI01
aI01
aI01
aI01
aI00
aI01
aI00
aI01
aI01
aI00
aI01
aI01
asg51
I15
sg52
g55
sg56
(lp181
(g58
I0
g24
tp182
ag64
ag138
ag62
ag93
ag67
ag94
ag71
ag95
ag72
ag171
ag98
ag74
a(g73
F1.5707963267948966
g63
tp183
a(g73
F1.5707963267948966
g54
tp184
asg77
(lp185
g52
ag79
ag81
ag79
ag80
ag81
ag52
ag52
ag81
ag81
ag81
ag52
ag79
ag79
ag80
asg82
(lp186
g79
ag81
ag52
ag81
ag80
ag81
ag52
ag52
ag81
ag81
ag79
ag52
ag79
ag79
ag80
asg84
(lp187
g79
ag81
ag52
ag81
ag80
ag81
ag52
ag52
ag81
ag81
ag79
ag52
ag79
ag79
ag80
asaa(lp188
I8
ag39
(g40
tp189
Rp190
g43
(lp191
g45
ag45
ag47
ag45
ag46
ag45
ag47
ag45
ag45
ag45
ag45
ag45
ag45
ag47
ag45
ag45
ag46
ag46
ag47
asg49
(lp192
I00
aI01
aI01
aI00
aI00
aI01
aI00
aI00
aI00
aI00
aI00
aI00
aI01
aI00
aI00
aI00
aI00
aI01
aI01
asg51
I19
sg52
g133
sg56
(lp193
(g58
I0
g24
tp194
ag62
ag93
ag67
ag69
ag139
a(g73
I0
g54
tp195
a(g73
I0
g60
tp196
ag142
ag142
a(g73
I0
g60
tp197
ag142
ag142
ag195
ag196
ag142
ag140
a(g73
I0
g63
tp198
ag143
asg77
(lp199
g81
ag81
ag80
ag81
ag79
ag81
ag52
ag52
ag52
ag52
ag52
ag81
ag81
ag52
ag52
ag52
ag52
ag52
ag80
asg82
(lp200
g52
ag81
ag80
ag79
ag52
ag81
ag79
ag52
ag52
ag80
ag52
ag52
ag81
ag79
ag52
ag79
ag52
ag79
ag80
asg84
(lp201
g52
ag81
ag80
ag79
ag52
ag81
ag79
ag52
ag52
ag80
ag52
ag52
ag81
ag79
ag52
ag79
ag52
ag79
ag80
asaa(lp202
I9
ag39
(g40
tp203
Rp204
g43
(lp205
g45
ag47
ag46
ag45
ag47
ag45
ag45
ag47
ag45
ag45
ag47
ag45
ag45
ag48
ag45
ag46
ag48
ag46
ag48
ag45
ag47
asg49
(lp206
I01
aI00
aI00
aI01
aI00
aI00
aI01
aI00
aI00
aI01
aI01
aI00
aI01
aI01
aI00
aI01
aI00
aI01
aI01
aI01
aI01
asg51
I21
sg52
g55
sg56
(lp207
(g58
I0
g24
tp208
ag93
ag137
ag138
ag93
a(g58
I0
g60
tp209
ag62
ag93
ag209
ag62
ag93
ag67
ag68
ag94
ag71
ag97
ag98
ag171
ag98
ag74
ag75
asg77
(lp210
g81
ag80
ag79
ag81
ag81
ag81
ag79
ag80
ag81
ag81
ag80
ag52
ag81
ag52
ag79
ag80
ag81
ag52
ag52
ag81
ag80
asg82
(lp211
g81
ag81
ag81
ag81
ag79
ag52
ag81
ag79
ag52
ag81
ag80
ag52
ag81
ag52
ag79
ag79
ag81
ag79
ag52
ag81
ag80
asg84
(lp212
g81
ag81
ag81
ag81
ag79
ag52
ag81
ag79
ag52
ag81
ag80
ag52
ag81
ag52
ag79
ag79
ag81
ag79
ag52
ag81
ag80
asaatp213
Rp214
aatp215
Rp216
.