ccollections
OrderedDict
p0
((lp1
(lp2
S'combination_dict'
p3
ag0
((lp4
(lp5
S'r_to_g_config'
p6
aS'tl'
p7
aa(lp8
S'num_turns'
p9
aI3
aa(lp10
S'start_direction'
p11
acutils_ms
StartDirection
p12
(I1
tp13
Rp14
aa(lp15
S'assistance_type'
p16
acutils_ms
AssistanceType
p17
(I0
tp18
Rp19
aa(lp20
S'start_mode'
p21
aS't'
p22
aa(lp23
S'ui_given_a_noise'
p24
aF0.3
aa(lp25
S'um_given_ui_noise'
p26
aF0.7
aa(lp27
S'entropy_threshold'
p28
aF0.7
aatp29
Rp30
aa(lp31
S'data'
p32
accollections
defaultdict
p33
(c__builtin__
list
p34
tp35
Rp36
S'a'
p37
(lp38
S'mode_l'
p39
aS'move_p'
p40
ag40
ag39
ag39
ag40
ag40
ag40
ag39
aS'move_n'
p41
aS'mode_r'
p42
ag41
ag41
ag42
ag42
ag41
ag39
ag40
ag39
ag39
ag42
ag40
ag39
ag39
ag42
ag41
ag39
ag41
ag39
ag41
ag42
ag40
ag39
ag42
ag41
ag39
ag41
ag39
ag39
ag42
ag41
ag42
ag40
ag39
ag39
ag39
ag42
ag42
ag42
ag41
ag42
ag39
ag42
ag42
ag42
ag42
ag40
ag39
ag41
ag39
ag39
ag39
ag41
ag39
ag41
ag39
ag42
ag41
ag41
ag41
ag42
ag41
ag42
ag42
ag42
ag42
ag42
ag41
ag42
ag42
ag40
ag39
ag39
ag41
ag39
ag41
ag41
asS'assistance_match_with_ground_truth'
p43
(lp44
I01
aI00
aI00
aI00
aI01
aI00
aI00
aI01
aI01
aI00
aI01
aI00
aI00
aI00
aI01
aI01
aI01
aI01
aI00
aI00
aI01
aI00
aI00
aI00
aI01
aI00
aI01
aI00
aI01
aI01
aI01
aI00
aI00
aI01
aI00
aI01
aI00
aI00
aI00
aI01
aI01
aI01
aI00
aI00
aI00
aI00
aI00
aI00
aI01
aI01
aI00
aI00
aI00
aI00
aI00
aI01
aI00
aI01
aI00
aI00
aI00
aI01
aI00
aI01
aI00
aI00
aI01
aI00
aI00
aI00
aI01
aI00
aI00
aI00
aI00
aI00
aI01
aI01
aI00
aI01
aI01
aI00
aI01
aI00
aI01
aI00
aI01
asS'total_steps'
p45
I87
sS'sp'
p46
(lp47
(S'p0'
p48
I0
S'y'
p49
tp50
a(g48
I0
g49
tp51
a(g48
I0
S't'
p52
tp53
a(g48
I0
g52
tp54
ag50
ag51
ag51
a(S'p1'
p55
I0
g49
tp56
a(g55
I0
S'x'
p57
tp58
a(g55
I0
g52
tp59
a(g55
I0
g57
tp60
ag60
ag59
ag59
ag60
a(S'p2'
p61
I0
g57
tp62
a(g61
I0
g52
tp63
a(g61
F1.5707963267948966
g52
tp64
a(g61
F1.5707963267948966
g52
tp65
a(g61
F1.5707963267948966
g57
tp66
a(g61
F1.5707963267948966
g49
tp67
a(g55
F1.5707963267948966
g49
tp68
a(g55
F1.5707963267948966
g49
tp69
a(g55
F1.5707963267948966
g52
tp70
a(g55
F1.5707963267948966
g57
tp71
a(g55
F1.5707963267948966
g49
tp72
a(g55
F1.5707963267948966
g57
tp73
ag72
ag73
a(g61
F1.5707963267948966
g57
tp74
ag67
ag68
ag70
ag71
ag72
ag73
ag72
a(g55
F1.5707963267948966
g49
tp75
ag70
ag71
ag74
ag67
ag68
ag75
ag69
ag70
ag70
ag70
ag71
ag74
a(g61
F1.5707963267948966
g52
tp76
ag66
ag66
ag66
ag66
ag67
ag68
ag73
ag72
ag69
ag69
ag73
ag72
ag73
ag72
ag70
ag71
ag71
ag71
a(g55
F1.5707963267948966
g52
tp77
ag71
ag77
ag77
ag77
ag77
ag77
ag71
ag74
ag74
ag67
a(S'p3'
p78
F1.5707963267948966
g49
tp79
a(g78
F1.5707963267948966
g49
tp80
a(g78
F1.5707963267948966
g57
tp81
a(g78
F1.5707963267948966
g49
tp82
ag81
ag81
a(S'p4'
p83
F1.5707963267948966
g57
tp84
asS's'
p85
(lp86
(g48
I0
g22
tp87
ag50
ag51
ag53
ag54
ag50
ag51
ag51
ag56
ag58
ag59
ag60
ag60
ag59
ag59
ag60
ag62
ag63
ag64
ag65
ag66
ag67
ag68
ag69
ag70
ag71
ag72
ag73
ag72
ag73
ag74
ag67
ag68
ag70
ag71
ag72
ag73
ag72
ag75
ag70
ag71
ag74
ag67
ag68
ag75
ag69
ag70
ag70
ag70
ag71
ag74
ag76
ag66
ag66
ag66
ag66
ag67
ag68
ag73
ag72
ag69
ag69
ag73
ag72
ag73
ag72
ag70
ag71
ag71
ag71
ag77
ag71
ag77
ag77
ag77
ag77
ag77
ag71
ag74
ag74
ag67
ag79
ag80
ag81
ag82
ag81
ag81
asS'ui'
p88
(lp89
S'hs'
p90
aS'hp'
p91
ag91
ag46
ag90
ag46
ag91
ag46
ag90
aS'ss'
p92
ag91
ag92
ag90
ag91
ag91
ag46
ag90
ag46
ag90
ag90
ag92
ag92
ag90
ag90
ag91
ag92
ag90
ag92
ag90
ag90
ag91
ag92
ag91
ag91
ag92
ag90
ag91
ag46
ag90
ag91
ag91
ag91
ag46
ag46
ag90
ag90
ag91
ag91
ag91
ag92
ag92
ag91
ag91
ag90
ag91
ag91
ag46
ag46
ag91
ag90
ag91
ag90
ag92
ag90
ag92
ag91
ag91
ag92
ag92
ag91
ag91
ag90
ag91
ag92
ag91
ag91
ag91
ag92
ag91
ag91
ag46
ag92
ag90
ag92
ag90
ag92
ag46
asS'um_before'
p93
(lp94
g90
ag92
ag91
ag46
ag90
ag92
ag92
ag46
ag90
ag90
ag91
ag46
ag90
ag92
ag91
ag92
ag90
ag46
ag46
ag91
ag91
ag92
ag92
ag91
ag91
ag91
ag90
ag91
ag90
ag92
ag91
ag92
ag91
ag91
ag91
ag90
ag91
ag46
ag91
ag91
ag92
ag91
ag92
ag46
ag92
ag91
ag92
ag92
ag91
ag92
ag90
ag91
ag92
ag92
ag92
ag91
ag92
ag90
ag91
ag92
ag92
ag90
ag91
ag90
ag91
ag91
ag91
ag46
ag46
ag90
ag91
ag90
ag92
ag92
ag92
ag92
ag91
ag92
ag92
ag91
ag46
ag46
ag90
ag91
ag90
ag46
ag92
asS'um_after'
p95
(lp96
g90
ag92
ag91
ag46
ag90
ag92
ag92
ag46
ag90
ag90
ag91
aNag90
aNag91
ag92
ag90
ag46
ag46
ag91
ag91
ag92
ag92
ag91
ag91
ag91
ag90
ag91
ag90
ag92
ag91
ag92
ag91
ag91
ag91
ag90
ag91
ag46
ag91
ag91
ag92
ag91
ag92
ag46
ag92
ag91
aNaNag91
ag92
ag90
ag91
aNaNaNag91
ag92
ag90
ag91
ag92
ag92
ag90
ag91
ag90
ag91
ag91
ag91
aNaNag90
ag91
ag90
aNaNaNaNag91
ag92
aNag91
ag46
ag46
ag90
ag91
ag90
aNag92
asaa(lp97
S'index'
p98
aI53978
aatp99
Rp100
.