ccollections
OrderedDict
p0
((lp1
(lp2
S'combination_dict'
p3
ag0
((lp4
(lp5
S'r_to_g_config'
p6
aS'tr'
p7
aa(lp8
S'num_turns'
p9
aI3
aa(lp10
S'start_direction'
p11
acutils_ms
StartDirection
p12
(I1
tp13
Rp14
aa(lp15
S'assistance_type'
p16
acutils_ms
AssistanceType
p17
(I0
tp18
Rp19
aa(lp20
S'start_mode'
p21
aS't'
p22
aa(lp23
S'ui_given_a_noise'
p24
aF0.5
aa(lp25
S'um_given_ui_noise'
p26
aF0.7
aa(lp27
S'entropy_threshold'
p28
aF0.7
aatp29
Rp30
aa(lp31
S'data'
p32
accollections
defaultdict
p33
(c__builtin__
list
p34
tp35
Rp36
S'a'
p37
(lp38
S'mode_l'
p39
aS'move_p'
p40
ag40
ag39
ag39
ag39
aS'mode_r'
p41
ag41
ag41
ag39
ag40
ag39
ag40
ag41
ag39
ag40
ag40
ag40
ag40
ag41
ag39
ag41
ag39
ag40
ag41
ag39
ag39
ag41
ag40
ag39
ag40
ag40
ag39
ag40
ag39
ag40
ag40
ag39
ag39
ag39
ag40
ag39
ag39
ag39
ag40
ag41
ag39
ag41
ag39
ag40
ag39
ag40
ag41
ag41
ag39
ag41
ag39
ag40
ag41
ag40
ag41
ag39
ag39
ag39
ag41
ag41
ag39
ag40
ag41
ag41
ag39
ag39
ag39
ag39
ag40
ag39
ag40
ag39
ag41
ag39
ag40
ag41
ag41
ag41
ag41
ag41
ag40
ag39
ag41
ag41
ag39
ag41
ag41
ag41
ag41
ag41
ag40
ag39
ag40
ag41
ag39
ag40
ag41
ag40
ag39
ag39
ag40
asS'assistance_match_with_ground_truth'
p42
(lp43
I01
aI00
aI01
aI00
aI00
aI00
aI00
aI00
aI00
aI01
aI01
aI01
aI00
aI00
aI01
aI00
aI00
aI00
aI00
aI00
aI00
aI00
aI01
aI00
aI00
aI00
aI00
aI01
aI00
aI01
aI00
aI01
aI01
aI01
aI01
aI00
aI00
aI00
aI00
aI01
aI01
aI00
aI00
aI01
aI00
aI00
aI00
aI00
aI01
aI00
aI01
aI00
aI00
aI00
aI00
aI00
aI01
aI00
aI01
aI00
aI00
aI00
aI00
aI00
aI00
aI00
aI01
aI01
aI00
aI00
aI00
aI00
aI00
aI01
aI00
aI01
aI00
aI00
aI00
aI01
aI01
aI00
aI00
aI00
aI00
aI01
aI00
aI00
aI00
aI00
aI00
aI00
aI00
aI00
aI00
aI01
aI00
aI01
aI01
aI00
aI01
aI00
aI01
aI01
aI00
aI01
aI01
asS'total_steps'
p44
I107
sS'sp'
p45
(lp46
(S'p0'
p47
I0
S'y'
p48
tp49
a(g47
I0
g48
tp50
a(S'p1'
p51
I0
g48
tp52
a(g51
I0
g48
tp53
a(g51
I0
g48
tp54
a(g51
I0
S't'
p55
tp56
ag56
a(g51
I0
g55
tp57
a(g51
I0
g48
tp58
a(g51
I0
S'x'
p59
tp60
a(S'p2'
p61
I0
g59
tp62
a(g61
I0
g55
tp63
a(g61
I0
g48
tp64
a(g61
I0
g59
tp65
ag63
a(g61
I0
g55
tp66
ag66
ag66
ag64
a(g51
I0
g48
tp67
ag56
ag58
ag60
a(g47
I0
g59
tp68
a(g47
I0
g55
tp69
a(g47
I0
g55
tp70
a(g47
I0
g59
tp71
a(g47
I0
g48
tp72
a(g47
I0
g55
tp73
ag49
ag50
ag52
ag60
ag62
ag63
ag66
a(g61
I0
g59
tp74
a(g61
I0
g59
tp75
a(g61
I0
g59
tp76
ag63
a(g61
F1.5707963267948966
g55
tp77
a(g61
F1.5707963267948966
g55
tp78
ag78
a(g61
F1.5707963267948966
g48
tp79
a(g61
F1.5707963267948966
g59
tp80
a(g61
F1.5707963267948966
g55
tp81
a(g61
F1.5707963267948966
g59
tp82
ag81
ag79
a(g51
F1.5707963267948966
g48
tp83
a(g51
F1.5707963267948966
g59
tp84
a(g51
F1.5707963267948966
g55
tp85
ag85
a(g51
F1.5707963267948966
g48
tp86
a(g51
F1.5707963267948966
g55
tp87
ag86
ag84
ag85
a(g51
F1.5707963267948966
g59
tp88
ag85
ag86
a(g51
F1.5707963267948966
g48
tp89
a(g51
F1.5707963267948966
g48
tp90
ag87
ag87
ag86
ag84
a(g61
F1.5707963267948966
g59
tp91
a(g61
F1.5707963267948966
g59
tp92
ag81
ag78
ag78
ag78
ag79
a(g61
F1.5707963267948966
g55
tp93
ag79
ag83
ag87
ag86
ag84
ag91
ag92
ag92
ag92
ag92
a(g61
F1.5707963267948966
g48
tp94
ag93
ag82
ag82
ag81
ag82
ag82
ag82
ag92
ag92
ag94
ag83
ag84
ag91
ag81
ag79
ag80
ag94
a(S'p3'
p95
F1.5707963267948966
g48
tp96
a(g95
F1.5707963267948966
g48
tp97
a(g95
F1.5707963267948966
g59
tp98
a(S'p4'
p99
F1.5707963267948966
g59
tp100
asS's'
p101
(lp102
(g47
I0
g22
tp103
ag49
ag50
ag52
ag53
ag54
ag56
ag56
ag57
ag58
ag60
ag62
ag63
ag64
ag65
ag63
ag66
ag66
ag66
ag64
ag67
ag56
ag58
ag60
ag68
ag69
ag70
ag71
ag72
ag73
ag49
ag50
ag52
ag60
ag62
ag63
ag66
ag74
ag75
ag76
ag63
ag77
ag78
ag78
ag79
ag80
ag81
ag82
ag81
ag79
ag83
ag84
ag85
ag85
ag86
ag87
ag86
ag84
ag85
ag88
ag85
ag86
ag89
ag90
ag87
ag87
ag86
ag84
ag91
ag92
ag81
ag78
ag78
ag78
ag79
ag93
ag79
ag83
ag87
ag86
ag84
ag91
ag92
ag92
ag92
ag92
ag94
ag93
ag82
ag82
ag81
ag82
ag82
ag82
ag92
ag92
ag94
ag83
ag84
ag91
ag81
ag79
ag80
ag94
ag96
ag97
ag98
asS'ui'
p104
(lp105
S'hs'
p106
aS'ss'
p107
ag106
aS'hp'
p108
ag107
ag108
ag108
ag45
ag106
ag45
ag45
ag45
ag106
ag106
ag106
ag107
ag107
ag107
ag45
ag107
ag108
ag106
ag106
ag45
ag106
ag108
ag108
ag108
ag108
ag106
ag107
ag45
ag45
ag45
ag108
ag108
ag107
ag107
ag106
ag45
ag45
ag45
ag108
ag106
ag45
ag106
ag108
ag107
ag106
ag108
ag106
ag107
ag45
ag106
ag45
ag108
ag106
ag106
ag108
ag107
ag45
ag106
ag108
ag108
ag108
ag106
ag106
ag45
ag108
ag106
ag45
ag106
ag45
ag106
ag108
ag106
ag107
ag107
ag107
ag106
ag108
ag108
ag108
ag108
ag45
ag108
ag108
ag108
ag45
ag106
ag107
ag108
ag108
ag107
ag108
ag108
ag45
ag45
ag45
ag108
ag106
ag106
ag108
ag108
ag108
ag106
ag108
asS'um_before'
p109
(lp110
g106
ag107
ag45
ag45
ag107
ag108
ag45
ag107
ag106
ag106
ag45
ag106
ag106
ag106
ag106
ag107
ag107
ag107
ag106
ag107
ag108
ag106
ag106
ag107
ag106
ag45
ag108
ag108
ag108
ag106
ag107
ag45
ag106
ag45
ag106
ag107
ag108
ag107
ag45
ag106
ag45
ag45
ag45
ag106
ag106
ag106
ag108
ag106
ag106
ag107
ag106
ag106
ag45
ag106
ag108
ag106
ag106
ag106
ag108
ag106
ag106
ag45
ag107
ag108
ag45
ag106
ag106
ag45
ag107
ag106
ag45
ag45
ag45
ag106
ag108
ag106
ag107
ag108
ag106
ag106
ag45
ag107
ag45
ag45
ag107
ag108
ag108
ag108
ag45
ag106
ag108
ag45
ag45
ag107
ag107
ag108
ag107
ag106
ag45
ag106
ag106
ag106
ag108
ag45
ag107
ag106
ag45
asS'um_after'
p111
(lp112
g106
ag107
ag45
ag45
ag107
ag108
aNag107
ag106
ag106
ag45
ag106
ag106
ag106
ag106
ag107
ag107
ag107
ag106
ag107
ag108
ag106
ag106
ag107
ag106
ag45
ag108
ag108
ag108
ag106
ag107
ag45
ag106
ag45
ag106
ag107
ag108
ag107
ag45
ag106
ag45
ag45
ag45
ag106
ag106
ag106
ag108
ag106
ag106
ag107
ag106
ag106
aNag106
ag108
ag106
ag106
ag106
ag108
ag106
ag106
ag45
ag107
ag108
aNag106
ag106
ag45
ag107
ag106
ag45
ag45
ag45
ag106
ag108
ag106
ag107
ag108
ag106
ag106
ag45
ag107
aNaNag107
ag108
ag108
ag108
aNag106
ag108
aNaNag107
ag107
ag108
ag107
ag106
ag45
ag106
ag106
ag106
ag108
ag45
ag107
ag106
ag45
asaa(lp113
S'index'
p114
aI25377
aatp115
Rp116
.