ccollections
OrderedDict
p0
((lp1
(lp2
S'index'
p3
aI12651
aa(lp4
S'combination_dict'
p5
ag0
((lp6
(lp7
S'r_to_g_config'
p8
aS'br'
p9
aa(lp10
S'num_turns'
p11
aI1
aa(lp12
S'start_direction'
p13
acutils_ms
StartDirection
p14
(I1
tp15
Rp16
aa(lp17
S'assistance_type'
p18
acutils_ms
AssistanceType
p19
(I1
tp20
Rp21
aa(lp22
S'start_mode'
p23
aS't'
p24
aa(lp25
S'ui_given_a_noise'
p26
aF0.1
aa(lp27
S'um_given_ui_noise'
p28
aF0.3
aa(lp29
S'entropy_threshold'
p30
aF0.5
aa(lp31
S'is_assistance'
p32
aI00
aatp33
Rp34
aa(lp35
S'trials'
p36
ag0
((lp37
(lp38
I0
accollections
defaultdict
p39
(c__builtin__
list
p40
tp41
Rp42
S'a'
p43
(lp44
S'mode_l'
p45
aS'mode_r'
p46
aS'move_n'
p47
ag45
ag45
ag45
ag45
ag47
ag46
aS'move_p'
p48
ag46
ag48
asS'assistance_match_with_ground_truth'
p49
(lp50
I00
aI01
aI00
aI00
aI00
aI00
aI01
aI01
aI01
aI01
aI01
aI01
asS'total_steps'
p51
I12
sS'sp'
p52
(S'p2'
p53
F1.5707963267948966
S'x'
p54
tp55
sS's'
p56
(lp57
(S'p0'
p58
I0
g24
tp59
a(g58
I0
g54
tp60
a(g58
I0
S'y'
p61
tp62
a(g58
I0
S't'
p63
tp64
a(g58
I0
g63
tp65
a(g58
I0
g63
tp66
ag66
a(g58
I0
g61
tp67
a(S'p1'
p68
I0
g61
tp69
a(g68
I0
g63
tp70
a(g68
F1.5707963267948966
g63
tp71
a(g68
F1.5707963267948966
g54
tp72
asS'ui'
p73
(lp74
S'hs'
p75
aS'hp'
p76
ag52
ag52
ag75
ag75
ag75
aS'ss'
p77
ag76
ag52
ag76
ag52
asS'um_before'
p78
(lp79
g76
ag76
ag76
ag52
ag77
ag77
ag75
ag77
ag76
ag52
ag76
ag52
asS'um_after'
p80
(lp81
g76
ag76
ag76
ag52
ag77
ag77
ag75
ag77
ag76
ag52
ag76
ag52
asaa(lp82
I1
ag39
(g40
tp83
Rp84
g43
(lp85
g45
ag46
ag47
ag45
ag46
ag46
ag46
ag47
ag47
ag46
ag47
ag47
ag46
ag48
ag46
ag45
ag46
ag45
ag46
ag45
ag46
ag46
ag47
ag46
ag48
ag46
ag48
ag46
ag48
asg49
(lp86
I00
aI01
aI00
aI00
aI00
aI00
aI01
aI00
aI00
aI01
aI00
aI01
aI01
aI00
aI00
aI00
aI00
aI00
aI00
aI00
aI00
aI01
aI01
aI01
aI01
aI01
aI00
aI01
aI01
asg51
I29
sg52
g55
sg56
(lp87
(g58
I0
g24
tp88
ag60
ag62
ag64
ag60
a(g58
I0
g54
tp89
ag89
ag62
a(g58
I0
g61
tp90
a(g58
I0
g54
tp91
ag62
ag90
ag69
ag70
a(g68
I0
g61
tp92
a(g68
I0
g54
tp93
a(g68
I0
g61
tp94
ag93
ag94
ag93
a(g58
I0
g54
tp95
ag89
ag62
ag69
ag70
ag71
ag72
a(g68
F1.5707963267948966
g63
tp96
ag72
asg73
(lp97
g76
ag76
ag76
ag76
ag77
ag76
ag76
ag77
ag52
ag76
ag77
ag77
ag76
ag52
ag76
ag75
ag76
ag75
ag76
ag77
ag77
ag76
ag77
ag76
ag52
ag76
ag52
ag76
ag52
asg78
(lp98
g76
ag76
ag76
ag76
ag77
ag77
ag76
ag52
ag75
ag76
ag52
ag77
ag76
ag75
ag75
ag76
ag75
ag76
ag75
ag77
ag77
ag76
ag77
ag76
ag52
ag76
ag75
ag76
ag52
asg80
(lp99
g76
ag76
ag76
ag76
ag77
ag77
ag76
ag52
ag75
ag76
ag52
ag77
ag76
ag75
ag75
ag76
ag75
ag76
ag75
ag77
ag77
ag76
ag77
ag76
ag52
ag76
ag75
ag76
ag52
asaa(lp100
I2
ag39
(g40
tp101
Rp102
g43
(lp103
g45
ag45
ag47
ag46
ag48
ag46
ag48
ag48
ag46
ag48
asg49
(lp104
I00
aI01
aI01
aI01
aI01
aI00
aI00
aI01
aI01
aI01
asg51
I10
sg52
g55
sg56
(lp105
(g58
I0
g24
tp106
ag66
ag67
ag69
ag70
ag71
a(g68
I0
g63
tp107
a(g68
I0
g63
tp108
ag71
ag72
asg73
(lp109
g77
ag75
ag77
ag76
ag52
ag76
ag52
ag52
ag76
ag52
asg78
(lp110
g77
ag75
ag77
ag76
ag52
ag77
ag77
ag52
ag76
ag52
asg80
(lp111
g77
ag75
ag77
ag76
ag52
ag77
ag77
ag52
ag76
ag52
asaa(lp112
I3
ag39
(g40
tp113
Rp114
g43
(lp115
g45
ag47
ag46
ag46
ag48
ag46
ag48
asg49
(lp116
I01
aI01
aI00
aI01
aI01
aI01
aI01
asg51
I7
sg52
g55
sg56
(lp117
(g58
I0
g24
tp118
ag67
ag69
a(g68
I0
g61
tp119
ag70
ag71
ag72
asg73
(lp120
g75
ag77
ag75
ag76
ag52
ag76
ag77
asg78
(lp121
g75
ag77
ag77
ag76
ag52
ag76
ag52
asg80
(lp122
g75
ag77
ag77
ag76
ag52
ag76
ag52
asaa(lp123
I4
ag39
(g40
tp124
Rp125
g43
(lp126
g45
ag45
ag45
ag47
ag46
ag46
ag48
ag48
ag45
ag48
ag45
ag46
ag46
ag46
ag48
ag45
ag48
ag46
ag48
ag46
ag48
asg49
(lp127
I00
aI00
aI01
aI01
aI00
aI01
aI00
aI00
aI01
aI00
aI00
aI00
aI00
aI01
aI00
aI01
aI01
aI01
aI00
aI01
aI01
asg51
I21
sg52
g55
sg56
(lp128
(g58
I0
g24
tp129
ag65
ag65
ag67
ag69
ag119
ag70
ag108
a(g68
I0
g54
tp130
a(g68
I0
g63
tp131
ag130
ag94
ag119
ag119
ag70
ag130
ag131
ag71
ag72
ag96
ag72
asg73
(lp132
g75
ag52
ag75
ag77
ag77
ag76
ag52
ag52
ag75
ag52
ag75
ag76
ag76
ag76
ag52
ag75
ag52
ag76
ag76
ag76
ag52
asg78
(lp133
g52
ag52
ag75
ag77
ag77
ag76
ag77
ag76
ag75
ag76
ag76
ag77
ag77
ag76
ag76
ag75
ag52
ag76
ag75
ag76
ag52
asg80
(lp134
g52
ag52
ag75
ag77
ag77
ag76
ag77
ag76
ag75
ag76
ag76
ag77
ag77
ag76
ag76
ag75
ag52
ag76
ag75
ag76
ag52
asaa(lp135
I5
ag39
(g40
tp136
Rp137
g43
(lp138
g45
ag47
ag46
ag45
ag46
ag46
ag47
ag47
ag46
ag48
ag46
ag48
ag46
ag48
ag45
ag48
ag46
ag45
ag48
ag45
ag46
ag47
ag46
ag48
ag46
ag48
asg49
(lp139
I01
aI01
aI00
aI00
aI00
aI01
aI00
aI01
aI01
aI01
aI00
aI01
aI00
aI00
aI01
aI00
aI00
aI01
aI00
aI00
aI01
aI01
aI01
aI01
aI01
aI01
asg51
I26
sg52
g55
sg56
(lp140
(g58
I0
g24
tp141
ag67
ag69
ag93
ag95
ag89
ag62
ag90
ag69
ag70
ag71
ag107
ag71
ag107
ag130
ag131
ag92
ag93
ag131
ag130
ag95
ag62
ag69
ag70
ag71
ag72
asg73
(lp142
g75
ag77
ag76
ag75
ag76
ag76
ag77
ag77
ag76
ag52
ag52
ag52
ag76
ag76
ag75
ag52
ag77
ag75
ag76
ag75
ag76
ag77
ag76
ag52
ag76
ag52
asg78
(lp143
g75
ag77
ag75
ag77
ag77
ag76
ag52
ag77
ag76
ag52
ag77
ag52
ag77
ag76
ag75
ag75
ag75
ag75
ag76
ag77
ag76
ag77
ag76
ag52
ag76
ag52
asg80
(lp144
g75
ag77
ag75
ag77
ag77
ag76
ag52
ag77
ag76
ag52
ag77
ag52
ag77
ag76
ag75
ag75
ag75
ag75
ag76
ag77
ag76
ag77
ag76
ag52
ag76
ag52
asaa(lp145
I6
ag39
(g40
tp146
Rp147
g43
(lp148
g45
ag46
ag47
ag47
ag46
ag46
ag48
ag46
ag48
ag46
ag48
asg49
(lp149
I00
aI01
aI00
aI01
aI00
aI01
aI01
aI01
aI00
aI01
aI01
asg51
I11
sg52
g55
sg56
(lp150
(g58
I0
g24
tp151
ag60
ag62
ag90
ag69
a(g68
I0
g61
tp152
ag70
ag71
ag72
ag96
ag72
asg73
(lp153
g75
ag76
ag77
ag77
ag52
ag76
ag52
ag76
ag52
ag76
ag52
asg78
(lp154
g76
ag76
ag52
ag77
ag52
ag76
ag52
ag76
ag75
ag76
ag52
asg80
(lp155
g76
ag76
ag52
ag77
ag52
ag76
ag52
ag76
ag75
ag76
ag52
asaa(lp156
I7
ag39
(g40
tp157
Rp158
g43
(lp159
g45
ag47
ag46
ag46
ag48
ag48
ag45
ag48
ag46
ag46
ag48
ag48
ag46
ag48
ag46
ag47
ag47
ag45
ag46
ag48
ag46
ag47
ag45
ag48
ag46
ag45
ag48
asg49
(lp160
I01
aI01
aI00
aI01
aI00
aI00
aI01
aI00
aI00
aI01
aI00
aI01
aI01
aI00
aI01
aI00
aI01
aI00
aI01
aI00
aI01
aI01
aI01
aI00
aI00
aI01
aI01
asg51
I27
sg52
g55
sg56
(lp161
(g58
I0
g24
tp162
ag67
ag69
ag119
ag70
ag108
ag130
ag131
ag92
ag152
ag70
ag108
ag71
ag72
a(g58
F1.5707963267948966
g54
tp163
a(g58
F1.5707963267948966
g61
tp164
a(g58
F1.5707963267948966
g61
tp165
a(g68
F1.5707963267948966
g61
tp166
a(g68
F1.5707963267948966
g63
tp167
ag72
ag163
ag164
ag166
a(g68
F1.5707963267948966
g54
tp168
ag96
a(g68
F1.5707963267948966
g61
tp169
ag168
asg73
(lp170
g75
ag77
ag75
ag76
ag75
ag76
ag75
ag52
ag52
ag76
ag52
ag52
ag76
ag52
ag76
ag77
ag77
ag75
ag76
ag52
ag76
ag77
ag75
ag75
ag76
ag75
ag52
asg78
(lp171
g75
ag77
ag77
ag76
ag77
ag76
ag75
ag75
ag52
ag76
ag77
ag52
ag76
ag77
ag76
ag52
ag77
ag76
ag76
ag77
ag76
ag77
ag75
ag75
ag75
ag75
ag52
asg80
(lp172
g75
ag77
ag77
ag76
ag77
ag76
ag75
ag75
ag52
ag76
ag77
ag52
ag76
ag77
ag76
ag52
ag77
ag76
ag76
ag77
ag76
ag77
ag75
ag75
ag75
ag75
ag52
asaa(lp173
I8
ag39
(g40
tp174
Rp175
g43
(lp176
g45
ag46
ag45
ag47
ag46
ag48
ag45
ag46
ag45
ag46
ag46
ag47
ag46
ag46
ag45
ag48
ag46
ag48
asg49
(lp177
I00
aI00
aI01
aI01
aI01
aI00
aI00
aI00
aI00
aI00
aI01
aI01
aI00
aI00
aI01
aI01
aI01
aI01
asg51
I18
sg52
g55
sg56
(lp178
(g58
I0
g24
tp179
ag60
a(g58
I0
g63
tp180
ag67
ag69
ag70
ag130
ag94
ag93
ag95
ag89
ag62
ag69
ag119
ag93
ag131
ag71
ag72
asg73
(lp181
g75
ag76
ag75
ag52
ag76
ag52
ag75
ag76
ag76
ag77
ag76
ag77
ag76
ag76
ag75
ag52
ag76
ag52
asg78
(lp182
g76
ag75
ag75
ag77
ag76
ag76
ag76
ag75
ag77
ag77
ag76
ag77
ag77
ag75
ag75
ag52
ag76
ag52
asg80
(lp183
g76
ag75
ag75
ag77
ag76
ag76
ag76
ag75
ag77
ag77
ag76
ag77
ag77
ag75
ag75
ag52
ag76
ag52
asaa(lp184
I9
ag39
(g40
tp185
Rp186
g43
(lp187
g45
ag47
ag47
ag47
ag47
ag46
ag47
ag47
ag46
ag47
ag47
ag46
ag46
ag48
ag46
ag45
ag45
ag48
ag46
ag48
asg49
(lp188
I01
aI00
aI00
aI00
aI00
aI01
aI00
aI00
aI01
aI00
aI01
aI00
aI01
aI01
aI00
aI00
aI01
aI00
aI01
aI01
asg51
I20
sg52
g55
sg56
(lp189
(g58
I0
g24
tp190
ag67
ag90
ag90
ag90
ag91
ag62
ag90
ag91
ag62
ag90
ag69
ag119
ag70
ag71
ag169
a(g68
F1.5707963267948966
g61
tp191
ag168
ag96
ag72
asg73
(lp192
g75
ag77
ag77
ag52
ag77
ag76
ag77
ag75
ag76
ag77
ag77
ag77
ag76
ag52
ag76
ag75
ag75
ag75
ag76
ag76
asg78
(lp193
g75
ag52
ag52
ag52
ag75
ag76
ag52
ag75
ag76
ag52
ag77
ag77
ag76
ag52
ag75
ag77
ag75
ag75
ag76
ag52
asg80
(lp194
g75
ag52
ag52
ag52
ag75
ag76
ag52
ag75
ag76
ag52
ag77
ag77
ag76
ag52
ag75
ag77
ag75
ag75
ag76
ag52
asaatp195
Rp196
aatp197
Rp198
.