ccollections
OrderedDict
p0
((lp1
(lp2
S'index'
p3
aI3859
aa(lp4
S'combination_dict'
p5
ag0
((lp6
(lp7
S'r_to_g_config'
p8
aS'tl'
p9
aa(lp10
S'num_turns'
p11
aI1
aa(lp12
S'start_direction'
p13
acutils_ms
StartDirection
p14
(I3
tp15
Rp16
aa(lp17
S'assistance_type'
p18
acutils_ms
AssistanceType
p19
(I0
tp20
Rp21
aa(lp22
S'start_mode'
p23
aS't'
p24
aa(lp25
S'ui_given_a_noise'
p26
aF0.1
aa(lp27
S'um_given_ui_noise'
p28
aF0.3
aa(lp29
S'entropy_threshold'
p30
aF0.9
aa(lp31
S'is_assistance'
p32
aI00
aatp33
Rp34
aa(lp35
S'trials'
p36
ag0
((lp37
(lp38
I0
accollections
defaultdict
p39
(c__builtin__
list
p40
tp41
Rp42
S'a'
p43
(lp44
S'mode_r'
p45
aS'move_n'
p46
aS'mode_l'
p47
aS'move_p'
p48
ag47
ag47
ag47
ag47
ag48
ag47
ag48
ag47
ag46
ag45
ag45
ag48
asS'assistance_match_with_ground_truth'
p49
(lp50
I01
aI01
aI01
aI01
aI00
aI00
aI00
aI00
aI01
aI01
aI00
aI01
aI01
aI00
aI01
aI01
asS'total_steps'
p51
I16
sS'sp'
p52
(S'p2'
p53
F1.5707963267948966
S'y'
p54
tp55
sS's'
p56
(lp57
(S'p0'
p58
I0
g24
tp59
a(g58
I0
S'x'
p60
tp61
a(S'p1'
p62
I0
g60
tp63
a(g62
I0
S't'
p64
tp65
a(g62
F1.5707963267948966
g64
tp66
a(g62
F1.5707963267948966
g64
tp67
ag67
ag67
a(g62
I0
g64
tp68
ag66
a(g62
F1.5707963267948966
g54
tp69
a(g58
F1.5707963267948966
g54
tp70
a(g58
F1.5707963267948966
g60
tp71
a(g62
F1.5707963267948966
g60
tp72
a(g62
F1.5707963267948966
g60
tp73
a(g62
F1.5707963267948966
g54
tp74
asS'ui'
p75
(lp76
S'hp'
p77
aS'ss'
p78
aS'hs'
p79
ag52
ag77
ag52
ag52
ag79
ag52
ag79
ag52
ag79
ag78
ag77
ag77
ag52
asS'um_before'
p80
(lp81
g77
ag78
ag79
ag52
ag52
ag52
ag52
ag78
ag52
ag79
ag78
ag79
ag78
ag78
ag77
ag52
asS'um_after'
p82
(lp83
g77
ag78
ag79
ag52
ag52
ag52
ag52
ag78
ag52
ag79
ag78
ag79
ag78
ag78
ag77
ag52
asaa(lp84
I1
ag39
(g40
tp85
Rp86
g43
(lp87
g45
ag45
ag45
ag46
ag47
ag47
ag45
ag47
ag47
ag46
ag47
ag48
ag47
ag48
ag47
ag45
ag46
ag45
ag48
ag47
ag45
ag48
ag47
ag47
ag47
ag46
ag45
ag48
asg49
(lp88
I00
aI00
aI01
aI01
aI00
aI00
aI00
aI00
aI01
aI01
aI01
aI01
aI01
aI00
aI00
aI01
aI01
aI01
aI00
aI00
aI01
aI00
aI00
aI00
aI01
aI01
aI01
aI01
asg51
I28
sg52
g55
sg56
(lp89
(g58
I0
g24
tp90
a(g58
I0
g64
tp91
ag91
ag61
ag63
a(g62
I0
g60
tp92
a(g62
I0
g54
tp93
a(g58
I0
g54
tp94
a(g58
I0
g54
tp95
a(g58
I0
g60
tp96
ag63
ag65
ag66
ag69
ag70
a(g58
F1.5707963267948966
g64
tp97
a(g58
F1.5707963267948966
g60
tp98
ag72
ag74
a(g62
F1.5707963267948966
g64
tp99
a(g62
F1.5707963267948966
g60
tp100
ag74
ag70
a(g58
F1.5707963267948966
g54
tp101
a(g58
F1.5707963267948966
g54
tp102
ag71
ag72
ag74
asg75
(lp103
g77
ag77
ag77
ag78
ag77
ag79
ag77
ag78
ag79
ag78
ag77
ag52
ag79
ag78
ag79
ag77
ag78
ag77
ag52
ag77
ag77
ag52
ag79
ag79
ag79
ag78
ag77
ag52
asg80
(lp104
g78
ag78
ag77
ag78
ag52
ag77
ag78
ag78
ag79
ag78
ag79
ag52
ag79
ag78
ag77
ag77
ag78
ag77
ag77
ag77
ag77
ag78
ag78
ag52
ag79
ag78
ag77
ag52
asg82
(lp105
g78
ag78
ag77
ag78
ag52
ag77
ag78
ag78
ag79
ag78
ag79
ag52
ag79
ag78
ag77
ag77
ag78
ag77
ag77
ag77
ag77
ag78
ag78
ag52
ag79
ag78
ag77
ag52
asaa(lp106
I2
ag39
(g40
tp107
Rp108
g43
(lp109
g45
ag46
ag47
ag46
ag47
ag48
ag48
ag47
ag48
ag45
ag48
asg49
(lp110
I01
aI00
aI01
aI01
aI01
aI00
aI01
aI01
aI00
aI01
aI01
asg51
I11
sg52
g55
sg56
(lp111
(g58
I0
g24
tp112
ag61
a(g58
I0
g54
tp113
ag96
ag63
ag65
a(g62
I0
g64
tp114
ag66
ag69
a(g62
F1.5707963267948966
g60
tp115
ag74
asg75
(lp116
g77
ag77
ag79
ag78
ag79
ag78
ag78
ag79
ag52
ag77
ag52
asg80
(lp117
g77
ag77
ag79
ag78
ag79
ag78
ag52
ag79
ag79
ag77
ag52
asg82
(lp118
g77
ag77
ag79
ag78
ag79
ag78
ag52
ag79
ag79
ag77
ag52
asaa(lp119
I3
ag39
(g40
tp120
Rp121
g43
(lp122
g45
ag45
ag45
ag46
ag47
ag48
ag47
ag45
ag48
asg49
(lp123
I00
aI00
aI01
aI01
aI01
aI01
aI00
aI01
aI01
asg51
I9
sg52
g55
sg56
(lp124
(g58
I0
g24
tp125
ag91
a(g58
I0
g64
tp126
ag61
ag63
ag65
ag66
ag100
ag74
asg75
(lp127
g52
ag77
ag77
ag78
ag79
ag52
ag79
ag77
ag52
asg80
(lp128
g78
ag52
ag77
ag78
ag79
ag52
ag77
ag77
ag52
asg82
(lp129
g78
ag52
ag77
ag78
ag79
ag52
ag77
ag77
ag52
asaa(lp130
I4
ag39
(g40
tp131
Rp132
g43
(lp133
g45
ag45
ag45
ag47
ag46
ag47
ag47
ag48
ag47
ag48
ag48
ag48
ag45
ag48
ag47
ag48
ag47
ag48
asg49
(lp134
I00
aI00
aI00
aI01
aI01
aI00
aI01
aI01
aI00
aI00
aI00
aI00
aI01
aI01
aI00
aI01
aI01
aI01
asg51
I18
sg52
g55
sg56
(lp135
(g58
I0
g24
tp136
ag91
ag91
a(g58
I0
g54
tp137
ag96
ag63
ag92
ag65
ag66
ag68
ag114
ag114
a(g62
I0
g54
tp138
a(g62
I0
g64
tp139
ag66
ag68
ag66
ag69
asg75
(lp140
g78
ag77
ag77
ag79
ag78
ag79
ag79
ag52
ag79
ag52
ag52
ag79
ag77
ag52
ag79
ag52
ag79
ag52
asg80
(lp141
g78
ag78
ag79
ag79
ag78
ag52
ag79
ag52
ag78
ag78
ag78
ag79
ag77
ag52
ag78
ag52
ag79
ag52
asg82
(lp142
g78
ag78
ag79
ag79
ag78
ag52
ag79
ag52
ag78
ag78
ag78
ag79
ag77
ag52
ag78
ag52
ag79
ag52
asaa(lp143
I5
ag39
(g40
tp144
Rp145
g43
(lp146
g45
ag46
ag47
ag48
ag47
ag48
asg49
(lp147
I01
aI01
aI01
aI01
aI01
aI01
asg51
I6
sg52
g55
sg56
(lp148
(g58
I0
g24
tp149
ag61
ag63
ag65
ag66
ag69
asg75
(lp150
g77
ag78
ag79
ag52
ag79
ag52
asg80
(lp151
g77
ag78
ag79
ag52
ag79
ag52
asg82
(lp152
g77
ag78
ag79
ag52
ag79
ag52
asaa(lp153
I6
ag39
(g40
tp154
Rp155
g43
(lp156
g45
ag46
ag47
ag48
ag47
ag45
ag48
asg49
(lp157
I01
aI01
aI01
aI01
aI00
aI01
aI01
asg51
I7
sg52
g55
sg56
(lp158
(g58
I0
g24
tp159
ag61
ag63
ag65
ag66
ag100
ag74
asg75
(lp160
g77
ag78
ag79
ag52
ag77
ag77
ag78
asg80
(lp161
g77
ag78
ag79
ag52
ag77
ag77
ag52
asg82
(lp162
g77
ag78
ag79
ag52
ag77
ag77
ag52
asaa(lp163
I7
ag39
(g40
tp164
Rp165
g43
(lp166
g45
ag46
ag47
ag45
ag48
ag47
ag47
ag48
ag47
ag45
ag48
asg49
(lp167
I01
aI01
aI00
aI01
aI01
aI00
aI00
aI01
aI00
aI01
aI01
asg51
I11
sg52
g55
sg56
(lp168
(g58
I0
g24
tp169
ag61
ag63
ag93
ag139
ag66
ag67
ag68
ag66
ag100
ag74
asg75
(lp170
g77
ag78
ag77
ag77
ag52
ag79
ag79
ag52
ag79
ag77
ag78
asg80
(lp171
g77
ag78
ag77
ag77
ag52
ag52
ag78
ag52
ag77
ag77
ag52
asg82
(lp172
g77
ag78
ag77
ag77
ag52
ag52
ag78
ag52
ag77
ag77
ag52
asaa(lp173
I8
ag39
(g40
tp174
Rp175
g43
(lp176
g45
ag45
ag46
ag46
ag46
ag47
ag47
ag48
ag47
ag45
asg49
(lp177
I00
aI01
aI00
aI00
aI01
aI00
aI01
aI00
aI00
aI00
asg51
I10
sg52
(g53
I0
g54
tp178
sg56
(lp179
(g58
I0
g24
tp180
ag91
ag61
a(g58
I0
g60
tp181
ag181
ag63
ag92
ag65
a(g62
I0
g60
tp182
ag93
asg75
(lp183
g77
ag77
ag78
ag78
ag78
ag77
ag79
ag52
ag79
ag77
asg80
(lp184
g78
ag77
ag52
ag52
ag78
ag52
ag79
ag77
ag77
ag52
asg82
(lp185
g78
ag77
ag52
ag52
ag78
ag52
ag79
ag77
ag77
ag52
asaa(lp186
I9
ag39
(g40
tp187
Rp188
g43
(lp189
g45
ag46
ag47
ag48
ag47
ag48
asg49
(lp190
I01
aI01
aI01
aI01
aI01
aI01
asg51
I6
sg52
g55
sg56
(lp191
(g58
I0
g24
tp192
ag61
ag63
ag65
ag66
ag69
asg75
(lp193
g52
ag78
ag79
ag52
ag79
ag52
asg80
(lp194
g77
ag78
ag79
ag52
ag79
ag52
asg82
(lp195
g77
ag78
ag79
ag52
ag79
ag52
asaatp196
Rp197
aatp198
Rp199
.