ccollections
OrderedDict
p0
((lp1
(lp2
S'index'
p3
aI6626
aa(lp4
S'combination_dict'
p5
ag0
((lp6
(lp7
S'r_to_g_config'
p8
aS'tl'
p9
aa(lp10
S'num_turns'
p11
aI3
aa(lp12
S'start_direction'
p13
acutils_ms
StartDirection
p14
(I3
tp15
Rp16
aa(lp17
S'assistance_type'
p18
acutils_ms
AssistanceType
p19
(I0
tp20
Rp21
aa(lp22
S'start_mode'
p23
aS'y'
p24
aa(lp25
S'ui_given_a_noise'
p26
aF0.3
aa(lp27
S'um_given_ui_noise'
p28
aF0.5
aa(lp29
S'entropy_threshold'
p30
aF0.8
aa(lp31
S'is_assistance'
p32
aI01
aatp33
Rp34
aa(lp35
S'trials'
p36
ag0
((lp37
(lp38
I0
accollections
defaultdict
p39
(c__builtin__
list
p40
tp41
Rp42
S'a'
p43
(lp44
S'mode_l'
p45
aS'move_n'
p46
aS'mode_r'
p47
ag47
ag47
aS'move_p'
p48
ag48
ag45
ag47
ag47
ag47
ag46
ag46
ag47
ag46
ag47
ag46
ag45
ag45
ag46
ag47
ag46
ag45
ag45
ag46
ag47
ag46
ag46
ag47
ag46
ag47
ag48
ag48
ag48
ag48
ag48
ag45
ag45
ag46
ag45
ag45
ag48
ag48
ag48
ag48
ag45
ag48
asS'assistance_match_with_ground_truth'
p49
(lp50
I01
aI01
aI00
aI00
aI01
aI00
aI00
aI00
aI00
aI00
aI01
aI00
aI00
aI01
aI00
aI01
aI00
aI00
aI01
aI00
aI01
aI00
aI00
aI01
aI00
aI01
aI00
aI00
aI01
aI01
aI01
aI00
aI00
aI00
aI00
aI01
aI00
aI01
aI01
aI00
aI01
aI00
aI00
aI00
aI01
aI01
aI01
asS'total_steps'
p51
I47
sS'sp'
p52
(S'p4'
p53
F1.5707963267948966
S'y'
p54
tp55
sS's'
p56
(lp57
(S'p0'
p58
I0
g24
tp59
a(g58
I0
S'x'
p60
tp61
a(S'p1'
p62
I0
g60
tp63
a(g62
I0
g60
tp64
ag64
a(g62
I0
g54
tp65
ag65
a(g58
I0
g54
tp66
a(g58
I0
S't'
p67
tp68
ag68
ag68
a(g58
I0
g60
tp69
a(g58
I0
g60
tp70
a(g58
I0
g67
tp71
ag69
ag71
ag69
a(g58
I0
g54
tp72
ag72
ag61
ag71
ag69
ag72
ag72
ag61
ag71
ag69
ag70
ag71
ag69
ag63
ag65
ag65
ag65
ag65
ag65
a(S'p2'
p73
I0
g54
tp74
ag74
a(g73
I0
g60
tp75
a(S'p3'
p76
I0
g60
tp77
ag77
a(g76
I0
g67
tp78
ag78
ag78
a(g76
I0
g67
tp79
a(g76
F1.5707963267948966
g67
tp80
a(g76
F1.5707963267948966
g54
tp81
asS'ui'
p82
(lp83
S'hs'
p84
aS'ss'
p85
ag84
aS'hp'
p86
ag86
ag84
ag85
ag84
ag86
ag85
ag86
ag86
ag85
ag86
ag84
ag86
ag52
ag85
ag84
ag84
ag86
ag85
ag85
ag84
ag84
ag86
ag52
ag86
ag86
ag85
ag86
ag84
ag52
ag52
ag52
ag52
ag85
ag84
ag85
ag84
ag84
ag52
ag86
ag85
ag52
ag84
ag52
asS'um_before'
p87
(lp88
g84
ag85
ag85
ag52
ag86
ag84
ag85
ag86
ag52
ag84
ag86
ag52
ag84
ag86
ag84
ag86
ag86
ag85
ag84
ag84
ag86
ag86
ag85
ag84
ag84
ag86
ag52
ag84
ag86
ag85
ag86
ag84
ag86
ag86
ag84
ag52
ag85
ag84
ag85
ag85
ag84
ag86
ag86
ag85
ag52
ag84
ag52
asS'um_after'
p89
(lp90
g84
ag85
ag85
aNag86
aNag85
ag86
aNaNag86
ag52
ag84
ag86
ag84
ag86
ag86
aNag84
ag84
ag86
ag86
aNag84
ag84
ag86
ag52
ag84
ag86
ag85
ag86
aNaNaNaNag52
aNag84
ag85
aNag84
aNaNag85
ag52
ag84
ag52
asaa(lp91
I1
ag39
(g40
tp92
Rp93
g43
(lp94
g45
ag45
ag47
ag47
ag46
ag47
ag47
ag48
ag45
ag45
ag46
ag45
ag45
ag47
ag48
ag45
ag48
asg49
(lp95
I00
aI00
aI00
aI01
aI01
aI00
aI01
aI01
aI00
aI01
aI01
aI00
aI00
aI01
aI01
aI01
aI01
asg51
I17
sg52
g55
sg56
(lp96
(g58
I0
g24
tp97
ag97
ag68
a(g58
I0
g67
tp98
ag69
ag63
ag63
ag65
ag74
ag74
ag75
ag77
ag77
a(g76
I0
g54
tp99
a(g76
I0
g67
tp100
ag80
ag81
asg82
(lp101
g85
ag84
ag85
ag86
ag85
ag86
ag86
ag52
ag84
ag84
ag85
ag85
ag86
ag86
ag86
ag52
ag84
asg87
(lp102
g85
ag86
ag85
ag86
ag85
ag84
ag86
ag52
ag52
ag84
ag85
ag85
ag86
ag86
ag52
ag84
ag52
asg89
(lp103
Nag86
ag85
ag86
ag85
aNag86
ag52
aNag84
ag85
aNag86
ag86
ag52
ag84
ag52
asaa(lp104
I2
ag39
(g40
tp105
Rp106
g43
(lp107
g45
ag45
ag46
ag47
ag46
ag47
ag47
ag48
ag45
ag46
ag45
ag45
ag48
ag48
ag45
ag45
ag45
ag45
ag48
asg49
(lp108
I00
aI01
aI00
aI01
aI01
aI00
aI01
aI01
aI01
aI01
aI00
aI01
aI00
aI01
aI00
aI00
aI00
aI01
aI01
asg51
I19
sg52
g55
sg56
(lp109
(g58
I0
g24
tp110
ag110
ag61
ag71
ag69
ag63
ag64
ag65
ag74
ag75
ag77
ag77
ag78
ag79
ag80
ag80
ag80
ag80
ag81
asg82
(lp111
g84
ag84
ag85
ag86
ag85
ag85
ag86
ag52
ag84
ag85
ag84
ag84
ag85
ag52
ag84
ag84
ag84
ag84
ag52
asg87
(lp112
g52
ag84
ag84
ag86
ag85
ag85
ag86
ag52
ag84
ag85
ag85
ag84
ag85
ag52
ag85
ag85
ag85
ag84
ag52
asg89
(lp113
Nag84
ag84
ag86
ag85
ag85
ag86
ag52
ag84
ag85
aNag84
ag85
ag52
aNaNaNag84
ag52
asaa(lp114
I3
ag39
(g40
tp115
Rp116
g43
(lp117
g45
ag47
ag47
ag46
ag47
ag47
ag46
ag47
ag47
ag46
ag45
ag47
ag47
ag47
ag46
ag47
ag47
ag48
ag48
ag45
ag46
ag45
ag45
ag45
ag45
ag48
ag45
ag45
ag45
ag48
ag45
ag46
ag47
ag47
ag47
ag47
ag47
ag47
ag47
ag47
ag47
ag46
ag47
ag48
ag48
ag48
ag45
ag45
ag45
ag47
ag46
ag47
ag48
ag48
ag45
ag45
ag45
ag45
ag45
ag46
ag47
ag48
asg49
(lp118
I00
aI00
aI01
aI00
aI00
aI01
aI00
aI00
aI01
aI00
aI00
aI00
aI00
aI01
aI01
aI00
aI01
aI00
aI01
aI01
aI01
aI00
aI00
aI00
aI01
aI01
aI00
aI00
aI01
aI00
aI01
aI00
aI00
aI00
aI00
aI00
aI00
aI00
aI00
aI00
aI01
aI00
aI01
aI00
aI00
aI00
aI00
aI00
aI00
aI01
aI01
aI01
aI00
aI01
aI00
aI00
aI00
aI00
aI01
aI01
aI01
aI01
asg51
I62
sg52
g55
sg56
(lp119
(g58
I0
g24
tp120
ag68
ag98
ag69
ag71
ag71
ag69
ag71
ag71
ag69
ag72
ag68
ag68
ag68
ag69
ag63
ag64
ag65
ag65
ag74
ag75
ag77
ag77
ag77
ag77
ag78
ag80
ag80
ag80
ag81
a(g73
F1.5707963267948966
g54
tp121
a(g73
F1.5707963267948966
g60
tp122
a(g73
F1.5707963267948966
g67
tp123
ag123
ag123
ag123
ag123
a(g73
F1.5707963267948966
g67
tp124
ag124
ag124
ag124
a(g73
F1.5707963267948966
g60
tp125
a(g62
F1.5707963267948966
g60
tp126
a(g62
F1.5707963267948966
g54
tp127
ag127
ag127
a(g58
F1.5707963267948966
g54
tp128
ag128
ag128
a(g58
F1.5707963267948966
g67
tp129
a(g58
F1.5707963267948966
g60
tp130
a(g62
F1.5707963267948966
g60
tp131
ag127
ag127
a(g73
F1.5707963267948966
g54
tp132
ag132
ag132
ag132
ag132
ag122
a(g76
F1.5707963267948966
g60
tp133
a(g76
F1.5707963267948966
g54
tp134
asg82
(lp135
g84
ag85
ag86
ag52
ag84
ag86
ag85
ag84
ag86
ag85
ag86
ag86
ag84
ag86
ag85
ag84
ag86
ag52
ag52
ag84
ag85
ag85
ag84
ag85
ag84
ag86
ag84
ag85
ag84
ag52
ag84
ag84
ag84
ag86
ag84
ag86
ag84
ag84
ag86
ag86
ag85
ag86
ag86
ag84
ag52
ag52
ag84
ag85
ag84
ag86
ag85
ag86
ag86
ag52
ag86
ag84
ag85
ag84
ag84
ag85
ag86
ag52
asg87
(lp136
g86
ag85
ag86
ag84
ag84
ag86
ag84
ag84
ag86
ag86
ag86
ag84
ag84
ag86
ag85
ag85
ag86
ag86
ag52
ag84
ag85
ag85
ag85
ag85
ag84
ag52
ag85
ag85
ag84
ag85
ag84
ag84
ag84
ag84
ag84
ag52
ag85
ag52
ag84
ag52
ag86
ag52
ag86
ag84
ag86
ag85
ag85
ag85
ag86
ag86
ag85
ag86
ag86
ag52
ag52
ag85
ag85
ag85
ag84
ag85
ag86
ag52
asg89
(lp137
g86
ag85
ag86
ag84
aNag86
ag84
aNag86
ag86
ag86
aNaNag86
ag85
ag85
ag86
aNag52
ag84
ag85
aNaNaNag84
ag52
aNaNag84
ag85
ag84
ag84
aNaNaNaNag85
aNaNaNag86
ag52
ag86
aNaNag85
aNaNag86
ag86
ag85
ag86
aNag52
aNaNaNaNag84
ag85
ag86
ag52
asaa(lp138
I4
ag39
(g40
tp139
Rp140
g43
(lp141
g45
ag46
ag47
ag47
ag46
ag45
ag45
ag47
ag47
ag47
ag46
ag47
ag47
ag48
ag45
ag45
ag46
ag47
ag48
ag45
ag45
ag47
ag47
ag46
ag45
ag45
ag45
ag47
ag47
ag48
ag48
ag45
ag45
ag48
ag48
ag45
ag46
ag47
ag48
ag45
ag46
ag47
ag48
ag45
ag46
ag47
ag46
ag47
ag47
ag46
ag47
ag47
ag46
ag47
ag47
ag46
ag47
ag47
ag47
ag47
ag47
ag48
ag48
asg49
(lp142
I01
aI00
aI00
aI01
aI00
aI00
aI00
aI00
aI00
aI01
aI01
aI00
aI01
aI01
aI00
aI01
aI00
aI01
aI01
aI00
aI00
aI00
aI01
aI01
aI00
aI00
aI00
aI00
aI01
aI00
aI01
aI00
aI01
aI00
aI00
aI01
aI00
aI01
aI00
aI01
aI01
aI01
aI01
aI01
aI00
aI01
aI00
aI00
aI01
aI00
aI00
aI01
aI00
aI00
aI01
aI01
aI00
aI00
aI00
aI00
aI01
aI00
aI01
asg51
I63
sg52
g55
sg56
(lp143
(g58
I0
g24
tp144
ag61
ag71
ag71
ag69
ag72
ag72
ag68
ag68
ag68
ag69
ag63
ag64
ag65
ag74
ag74
ag75
a(g62
I0
g60
tp145
ag65
ag74
ag74
a(g73
I0
g67
tp146
ag146
a(g73
I0
g60
tp147
ag77
ag77
ag77
ag99
ag99
ag100
ag100
ag80
ag80
ag81
ag81
ag121
ag122
ag126
ag127
ag128
a(g58
F1.5707963267948966
g60
tp148
ag131
ag127
ag132
ag122
ag123
ag125
ag123
ag123
ag125
ag123
ag123
ag125
ag123
ag123
ag125
ag133
ag133
a(g76
F1.5707963267948966
g60
tp149
ag149
ag149
ag134
ag134
asg82
(lp150
g84
ag84
ag84
ag86
ag85
ag84
ag84
ag86
ag86
ag86
ag85
ag85
ag86
ag52
ag84
ag84
ag52
ag86
ag52
ag85
ag86
ag85
ag86
ag85
ag84
ag84
ag84
ag86
ag86
ag52
ag52
ag84
ag84
ag52
ag85
ag84
ag52
ag86
ag85
ag84
ag85
ag86
ag52
ag86
ag52
ag86
ag84
ag84
ag86
ag85
ag84
ag86
ag84
ag86
ag86
ag85
ag86
ag85
ag84
ag85
ag86
ag86
ag52
asg87
(lp151
g84
ag84
ag52
ag86
ag86
ag85
ag86
ag52
ag84
ag86
ag85
ag85
ag86
ag52
ag85
ag84
ag52
ag86
ag52
ag85
ag86
ag84
ag86
ag85
ag85
ag85
ag86
ag84
ag86
ag86
ag52
ag85
ag84
ag84
ag85
ag84
ag52
ag86
ag85
ag84
ag85
ag86
ag52
ag84
ag84
ag86
ag84
ag84
ag86
ag84
ag52
ag86
ag84
ag52
ag86
ag85
ag52
ag85
ag84
ag85
ag86
ag86
ag52
asg89
(lp152
g84
ag84
aNag86
ag86
aNag86
aNaNag86
ag85
ag85
ag86
ag52
aNag84
ag52
ag86
ag52
aNag86
aNag86
ag85
aNaNag86
aNag86
aNag52
aNag84
aNag85
ag84
ag52
ag86
ag85
ag84
ag85
ag86
ag52
ag84
ag84
ag86
ag84
aNag86
ag84
aNag86
ag84
aNag86
ag85
aNag85
aNag85
ag86
aNag52
asaa(lp153
I5
ag39
(g40
tp154
Rp155
g43
(lp156
g45
ag46
ag46
ag47
ag48
ag45
ag45
ag45
ag45
ag46
ag47
ag46
ag47
ag47
ag47
ag47
ag48
ag48
ag48
ag48
ag48
ag48
ag48
ag48
ag45
ag45
ag47
ag47
ag47
ag46
ag47
ag47
ag47
ag48
ag45
ag47
ag46
ag45
ag45
ag45
ag47
ag47
ag45
ag45
ag45
ag46
ag47
ag47
ag47
ag47
ag47
ag46
ag45
ag48
ag48
ag48
ag48
ag45
ag48
asg49
(lp157
I01
aI00
aI01
aI01
aI01
aI00
aI00
aI00
aI01
aI00
aI01
aI00
aI00
aI00
aI00
aI01
aI00
aI00
aI00
aI00
aI00
aI00
aI00
aI01
aI00
aI00
aI00
aI00
aI01
aI00
aI00
aI00
aI01
aI01
aI00
aI01
aI01
aI00
aI00
aI00
aI00
aI00
aI00
aI00
aI01
aI00
aI00
aI00
aI00
aI00
aI01
aI01
aI01
aI00
aI00
aI00
aI01
aI01
aI01
asg51
I59
sg52
g55
sg56
(lp158
(g58
I0
g24
tp159
ag61
ag70
ag63
ag65
ag74
ag74
ag74
ag74
ag75
a(g73
I0
g67
tp160
ag147
ag145
ag145
ag64
ag64
ag65
ag65
ag65
ag65
ag65
ag65
ag65
ag65
ag74
ag74
ag146
ag146
ag146
ag147
ag145
ag145
ag145
ag65
ag74
ag146
ag147
ag77
ag77
ag77
ag99
ag99
a(g73
I0
g54
tp161
ag161
ag161
ag75
ag160
ag160
ag160
ag160
ag160
ag147
ag77
ag78
ag78
ag78
ag78
ag80
ag81
asg82
(lp162
g84
ag52
ag84
ag86
ag52
ag84
ag84
ag86
ag84
ag84
ag86
ag52
ag86
ag85
ag85
ag86
ag52
ag52
ag52
ag52
ag52
ag86
ag86
ag52
ag84
ag86
ag86
ag86
ag86
ag52
ag86
ag84
ag86
ag52
ag86
ag86
ag85
ag84
ag85
ag85
ag84
ag52
ag85
ag84
ag84
ag84
ag86
ag86
ag84
ag86
ag86
ag85
ag84
ag84
ag85
ag52
ag52
ag84
ag52
asg87
(lp163
g84
ag52
ag85
ag86
ag52
ag85
ag85
ag52
ag84
ag84
ag86
ag52
ag84
ag85
ag85
ag86
ag86
ag86
ag86
ag84
ag86
ag86
ag84
ag52
ag85
ag86
ag52
ag52
ag86
ag52
ag52
ag84
ag86
ag52
ag86
ag86
ag85
ag85
ag85
ag86
ag84
ag85
ag85
ag85
ag84
ag84
ag84
ag52
ag52
ag84
ag86
ag85
ag84
ag86
ag84
ag86
ag52
ag84
ag52
asg89
(lp164
g84
ag52
ag85
ag86
ag52
aNaNaNag84
ag84
ag86
ag52
aNag85
ag85
ag86
aNaNaNaNaNaNaNag52
aNag86
aNaNag86
ag52
aNaNag86
ag52
ag86
ag86
ag85
aNaNag86
aNag85
aNaNag84
ag84
aNaNaNaNag86
ag85
ag84
aNaNaNag52
ag84
ag52
asaa(lp165
I6
ag39
(g40
tp166
Rp167
g43
(lp168
g45
ag45
ag46
ag46
ag47
ag47
ag48
ag48
ag45
ag46
ag45
ag48
ag45
ag48
ag48
asg49
(lp169
I00
aI01
aI00
aI01
aI00
aI01
aI00
aI01
aI01
aI01
aI01
aI01
aI01
aI00
aI01
asg51
I15
sg52
g55
sg56
(lp170
(g58
I0
g24
tp171
ag171
ag61
ag70
ag63
ag63
ag65
ag65
ag74
ag75
ag77
ag78
ag80
ag81
ag81
asg82
(lp172
g85
ag84
ag52
ag84
ag86
ag86
ag52
ag52
ag84
ag85
ag84
ag52
ag84
ag52
ag52
asg87
(lp173
g85
ag84
ag52
ag85
ag52
ag86
ag84
ag52
ag84
ag85
ag84
ag52
ag84
ag84
ag52
asg89
(lp174
Nag84
ag52
ag85
aNag86
aNag52
ag84
ag85
ag84
ag52
ag84
aNag52
asaa(lp175
I7
ag39
(g40
tp176
Rp177
g43
(lp178
g45
ag46
ag46
ag47
ag47
ag47
ag47
ag48
ag45
ag45
ag45
ag46
ag45
ag45
ag46
ag45
ag48
ag48
ag45
ag47
ag47
ag47
ag48
asg49
(lp179
I01
aI00
aI01
aI00
aI00
aI00
aI01
aI01
aI00
aI00
aI01
aI00
aI00
aI01
aI01
aI01
aI00
aI01
aI00
aI00
aI00
aI01
aI01
asg51
I23
sg52
g55
sg56
(lp180
(g58
I0
g24
tp181
ag61
ag70
ag63
ag63
ag63
ag63
ag65
ag74
ag74
ag74
ag75
a(g73
I0
g54
tp182
ag182
ag75
ag77
ag78
ag79
ag80
a(g76
F1.5707963267948966
g60
tp183
ag183
ag183
ag134
asg82
(lp184
g84
ag52
ag85
ag86
ag84
ag86
ag86
ag52
ag52
ag85
ag84
ag52
ag85
ag84
ag85
ag84
ag85
ag52
ag85
ag84
ag86
ag85
ag52
asg87
(lp185
g84
ag52
ag85
ag84
ag84
ag52
ag86
ag52
ag52
ag85
ag84
ag86
ag85
ag84
ag85
ag84
ag85
ag52
ag86
ag84
ag84
ag86
ag52
asg89
(lp186
g84
ag52
ag85
aNaNaNag86
ag52
aNaNag84
ag86
aNag84
ag85
ag84
ag85
ag52
ag86
aNaNag86
ag52
asaa(lp187
I8
ag39
(g40
tp188
Rp189
g43
(lp190
g45
ag46
ag47
ag46
ag47
ag47
ag47
ag47
ag47
ag48
ag45
ag45
ag46
ag45
ag45
ag45
ag48
ag48
ag48
ag45
ag48
asg49
(lp191
I01
aI00
aI01
aI01
aI00
aI00
aI00
aI00
aI01
aI01
aI00
aI01
aI01
aI00
aI00
aI01
aI00
aI00
aI01
aI01
aI01
asg51
I21
sg52
g55
sg56
(lp192
(g58
I0
g24
tp193
ag61
ag71
ag69
ag63
ag63
ag64
ag64
ag64
ag65
ag74
ag74
ag75
ag77
ag77
ag77
ag78
ag78
ag78
ag80
ag81
asg82
(lp194
g84
ag85
ag86
ag85
ag85
ag84
ag85
ag86
ag86
ag52
ag85
ag84
ag85
ag85
ag84
ag85
ag52
ag52
ag52
ag85
ag52
asg87
(lp195
g84
ag84
ag86
ag85
ag84
ag85
ag85
ag84
ag86
ag52
ag85
ag84
ag85
ag85
ag85
ag84
ag86
ag84
ag52
ag84
ag52
asg89
(lp196
g84
ag84
ag86
ag85
aNag85
ag85
aNag86
ag52
aNag84
ag85
aNaNag84
aNaNag52
ag84
ag52
asaa(lp197
I9
ag39
(g40
tp198
Rp199
g43
(lp200
g45
ag45
ag46
ag45
ag46
ag47
ag47
ag47
ag48
ag48
ag45
ag45
ag46
ag45
ag48
ag48
ag45
ag48
ag45
ag46
ag47
ag47
ag47
ag48
ag48
asg49
(lp201
I00
aI01
aI00
aI01
aI01
aI00
aI00
aI01
aI00
aI01
aI00
aI01
aI01
aI01
aI00
aI01
aI01
aI00
aI01
aI01
aI00
aI00
aI01
aI00
aI01
asg51
I25
sg52
g55
sg56
(lp202
(g58
I0
g24
tp203
ag203
ag61
ag72
ag61
ag63
ag64
ag64
ag65
ag65
ag74
ag74
ag75
ag77
ag78
ag78
ag80
ag81
ag121
ag122
ag133
ag133
ag133
ag134
ag134
asg82
(lp204
g84
ag84
ag86
ag84
ag85
ag85
ag86
ag86
ag85
ag52
ag84
ag84
ag85
ag85
ag86
ag52
ag84
ag85
ag52
ag85
ag86
ag86
ag86
ag52
ag52
asg87
(lp205
g85
ag84
ag86
ag84
ag85
ag85
ag84
ag86
ag84
ag52
ag85
ag84
ag85
ag84
ag86
ag52
ag84
ag85
ag84
ag85
ag52
ag84
ag86
ag86
ag52
asg89
(lp206
Nag84
ag86
ag84
ag85
ag85
aNag86
aNag52
aNag84
ag85
ag84
aNag52
ag84
ag85
ag84
ag85
aNaNag86
aNag52
asaatp207
Rp208
aatp209
Rp210
.