ccollections
OrderedDict
p0
((lp1
(lp2
S'combination_dict'
p3
ag0
((lp4
(lp5
S'r_to_g_config'
p6
aS'bl'
p7
aa(lp8
S'num_turns'
p9
aI2
aa(lp10
S'start_direction'
p11
acutils_ms
StartDirection
p12
(I0
tp13
Rp14
aa(lp15
S'assistance_type'
p16
acutils_ms
AssistanceType
p17
(I1
tp18
Rp19
aa(lp20
S'start_mode'
p21
aS't'
p22
aa(lp23
S'ui_given_a_noise'
p24
aF0.3
aa(lp25
S'um_given_ui_noise'
p26
aF0.7
aa(lp27
S'entropy_threshold'
p28
aF0.5
aatp29
Rp30
aa(lp31
S'data'
p32
accollections
defaultdict
p33
(c__builtin__
list
p34
tp35
Rp36
S'a'
p37
(lp38
S'mode_r'
p39
aS'move_n'
p40
aS'mode_l'
p41
ag39
aS'move_p'
p42
ag39
ag41
ag40
asS'assistance_match_with_ground_truth'
p43
(lp44
I01
aI01
aI00
aI01
aI00
aI00
aI01
aI01
asS'total_steps'
p45
I8
sS'sp'
p46
(lp47
(S'p0'
p48
I0
S'x'
p49
tp50
a(S'p1'
p51
I0
g49
tp52
a(g51
I0
S'y'
p53
tp54
a(g51
I0
S't'
p55
tp56
a(g51
I0
g53
tp57
a(S'p2'
p58
I0
g53
tp59
a(g58
I0
g49
tp60
a(S'p3'
p61
I0
g49
tp62
asS's'
p63
(lp64
(g48
I0
g22
tp65
ag50
ag52
ag54
ag56
ag57
ag59
ag60
asS'ui'
p66
(lp67
S'hp'
p68
aS'ss'
p69
aS'hs'
p70
ag68
ag68
ag68
ag70
ag69
asS'um_before'
p71
(lp72
g68
ag69
ag68
ag68
ag70
ag69
ag70
ag69
asS'um_after'
p73
(lp74
g68
ag69
ag68
ag68
ag70
ag69
ag70
ag69
asaa(lp75
S'index'
p76
aI69154
aatp77
Rp78
.