ccollections
OrderedDict
p0
((lp1
(lp2
S'combination_dict'
p3
ag0
((lp4
(lp5
S'r_to_g_config'
p6
aS'br'
p7
aa(lp8
S'num_turns'
p9
aI2
aa(lp10
S'start_direction'
p11
acutils_ms
StartDirection
p12
(I0
tp13
Rp14
aa(lp15
S'assistance_type'
p16
acutils_ms
AssistanceType
p17
(I2
tp18
Rp19
aa(lp20
S'start_mode'
p21
aS't'
p22
aa(lp23
S'ui_given_a_noise'
p24
aF0.5
aa(lp25
S'um_given_ui_noise'
p26
aF0.7
aa(lp27
S'entropy_threshold'
p28
aF0.7
aatp29
Rp30
aa(lp31
S'data'
p32
accollections
defaultdict
p33
(c__builtin__
list
p34
tp35
Rp36
S'a'
p37
(lp38
S'mode_r'
p39
aS'mode_l'
p40
ag39
ag39
aS'move_p'
p41
ag40
ag40
ag41
ag41
ag40
ag40
ag40
ag41
ag40
ag41
ag40
ag40
ag40
ag41
ag39
ag40
ag41
ag41
ag40
ag41
ag40
ag41
ag39
ag40
ag40
ag39
ag39
ag41
ag40
ag39
ag40
ag39
ag39
ag39
ag40
ag41
ag40
ag41
ag40
ag41
ag40
ag41
ag40
ag41
ag39
ag40
ag40
ag39
ag41
ag41
ag40
ag41
ag40
ag41
ag41
ag41
ag40
ag40
ag41
ag41
ag39
ag41
ag40
ag41
ag39
ag40
ag40
ag40
ag41
ag40
ag40
ag40
ag40
ag40
ag40
ag41
ag40
ag40
ag40
ag40
ag40
ag40
ag40
ag40
ag41
ag40
aS'move_n'
p42
ag40
ag39
ag40
ag40
ag40
ag41
ag39
ag39
ag40
ag39
ag39
ag40
ag42
ag40
ag41
ag39
ag39
ag41
ag39
ag39
ag39
ag40
ag39
ag40
ag41
ag39
ag41
ag40
ag39
ag40
ag41
ag41
ag40
ag40
ag39
ag41
ag41
ag39
ag40
ag41
ag39
ag40
ag39
ag40
ag40
ag41
asS'assistance_match_with_ground_truth'
p43
(lp44
I00
aI00
aI00
aI01
aI00
aI00
aI01
aI00
aI00
aI00
aI00
aI01
aI00
aI01
aI01
aI00
aI00
aI01
aI00
aI00
aI01
aI00
aI00
aI01
aI00
aI01
aI00
aI00
aI00
aI00
aI00
aI01
aI00
aI00
aI00
aI00
aI00
aI00
aI00
aI01
aI01
aI01
aI00
aI01
aI01
aI00
aI00
aI01
aI00
aI00
aI00
aI00
aI01
aI00
aI00
aI01
aI00
aI01
aI00
aI00
aI00
aI00
aI01
aI00
aI00
aI01
aI01
aI00
aI00
aI00
aI00
aI00
aI01
aI01
aI00
aI00
aI00
aI00
aI00
aI01
aI00
aI00
aI00
aI00
aI00
aI00
aI00
aI00
aI01
aI01
aI01
aI01
aI00
aI00
aI00
aI00
aI01
aI00
aI00
aI00
aI00
aI00
aI00
aI01
aI01
aI01
aI00
aI00
aI01
aI00
aI00
aI00
aI00
aI00
aI00
aI00
aI00
aI01
aI00
aI00
aI00
aI01
aI00
aI00
aI00
aI00
aI01
aI00
aI00
aI00
aI01
aI00
aI00
aI00
aI00
aI00
aI01
aI01
asS'total_steps'
p45
I138
sS'sp'
p46
(lp47
(S'p0'
p48
I0
S'y'
p49
tp50
a(g48
I0
S't'
p51
tp52
a(g48
I0
g51
tp53
a(g48
I0
S'x'
p54
tp55
a(g48
I0
g49
tp56
a(g48
I0
g49
tp57
a(g48
I0
g54
tp58
a(g48
I0
g54
tp59
ag56
a(g48
I0
g49
tp60
ag57
ag58
ag56
ag58
a(S'p1'
p61
I0
g54
tp62
a(g61
I0
g54
tp63
ag63
a(g61
I0
g51
tp64
a(g61
I0
g49
tp65
a(g61
I0
g54
tp66
ag64
a(g61
I0
g51
tp67
a(g61
I0
g54
tp68
ag64
ag68
ag64
ag65
a(S'p2'
p69
I0
g49
tp70
a(g69
I0
g49
tp71
a(g69
I0
g51
tp72
a(g69
I0
g51
tp73
a(g69
I0
g54
tp74
a(g61
I0
g54
tp75
a(g61
I0
g49
tp76
a(g48
I0
g49
tp77
ag52
a(g48
I0
g51
tp78
ag53
ag50
ag58
ag62
ag64
ag68
ag64
a(g61
F1.5707963267948966
g51
tp79
a(g61
I0
g51
tp80
ag68
ag64
ag65
ag66
a(g61
I0
g54
tp81
ag76
a(g61
I0
g51
tp82
ag67
ag68
ag64
ag68
ag64
ag67
ag67
ag68
ag63
ag64
ag67
ag65
ag82
ag79
ag80
ag65
ag77
ag57
ag60
ag58
ag62
ag63
ag63
ag63
ag81
ag81
ag64
ag68
ag63
ag63
ag81
ag81
ag63
ag63
ag63
ag64
ag79
a(g61
F1.5707963267948966
g49
tp83
a(g69
F1.5707963267948966
g49
tp84
a(g69
F1.5707963267948966
g51
tp85
a(g69
F1.5707963267948966
g49
tp86
a(g69
F1.5707963267948966
g49
tp87
a(g69
F1.5707963267948966
g49
tp88
a(g69
F1.5707963267948966
g54
tp89
a(g61
F1.5707963267948966
g54
tp90
a(g61
F1.5707963267948966
g54
tp91
a(g61
F1.5707963267948966
g51
tp92
a(g61
F1.5707963267948966
g54
tp93
a(g61
F1.5707963267948966
g54
tp94
ag92
ag83
ag84
ag89
a(g69
F1.5707963267948966
g51
tp95
a(g69
F1.5707963267948966
g51
tp96
a(g69
F1.5707963267948966
g54
tp97
ag90
ag91
ag94
ag92
ag93
ag92
ag80
ag65
ag82
ag68
ag76
ag66
ag64
ag67
ag68
ag63
ag76
ag82
ag67
ag65
ag66
ag64
ag65
ag70
ag72
a(g69
I0
g49
tp98
ag71
a(g69
I0
g54
tp99
a(S'p3'
p100
I0
g54
tp101
asS's'
p102
(lp103
(g48
I0
g22
tp104
ag50
ag52
ag53
ag55
ag56
ag57
ag58
ag59
ag56
ag60
ag57
ag58
ag56
ag58
ag62
ag63
ag63
ag64
ag65
ag66
ag64
ag67
ag68
ag64
ag68
ag64
ag65
ag70
ag71
ag72
ag73
ag74
ag75
ag76
ag77
ag52
ag78
ag53
ag50
ag58
ag62
ag64
ag68
ag64
ag79
ag80
ag68
ag64
ag65
ag66
ag81
ag76
ag82
ag67
ag68
ag64
ag68
ag64
ag67
ag67
ag68
ag63
ag64
ag67
ag65
ag82
ag79
ag80
ag65
ag77
ag57
ag60
ag58
ag62
ag63
ag63
ag63
ag81
ag81
ag64
ag68
ag63
ag63
ag81
ag81
ag63
ag63
ag63
ag64
ag79
ag83
ag84
ag85
ag86
ag87
ag88
ag89
ag90
ag91
ag92
ag93
ag94
ag92
ag83
ag84
ag89
ag95
ag96
ag97
ag90
ag91
ag94
ag92
ag93
ag92
ag80
ag65
ag82
ag68
ag76
ag66
ag64
ag67
ag68
ag63
ag76
ag82
ag67
ag65
ag66
ag64
ag65
ag70
ag72
ag98
ag71
ag99
asS'ui'
p105
(lp106
S'ss'
p107
ag46
ag107
aS'hp'
p108
ag46
ag107
aS'hs'
p109
ag46
ag46
ag109
ag109
ag109
ag46
ag108
ag46
ag109
ag109
ag109
ag107
ag109
ag109
ag107
ag46
ag109
ag46
ag109
ag46
ag107
ag46
ag109
ag108
ag108
ag46
ag108
ag107
ag108
ag107
ag107
ag107
ag109
ag46
ag108
ag107
ag108
ag46
ag46
ag46
ag109
ag46
ag108
ag109
ag46
ag108
ag46
ag46
ag109
ag46
ag109
ag107
ag107
ag46
ag107
ag109
ag108
ag46
ag108
ag107
ag109
ag46
ag109
ag46
ag46
ag46
ag107
ag109
ag46
ag109
ag109
ag108
ag107
ag46
ag109
ag107
ag109
ag109
ag109
ag109
ag109
ag109
ag109
ag109
ag109
ag108
ag108
ag109
ag46
ag109
ag107
ag108
ag108
ag108
ag108
ag108
ag109
ag107
ag109
ag46
ag109
ag108
ag109
ag46
ag107
ag108
ag108
ag108
ag109
ag107
ag108
ag46
ag108
ag109
ag108
ag46
ag46
ag109
ag108
ag108
ag46
ag108
ag108
ag109
ag107
ag46
ag108
ag108
ag107
ag109
ag46
asS'um_before'
p110
(lp111
g109
ag108
ag46
ag108
ag108
ag46
ag109
ag107
ag108
ag107
ag46
ag109
ag108
ag109
ag46
ag46
ag46
ag109
ag109
ag109
ag109
ag107
ag108
ag109
ag108
ag109
ag109
ag107
ag46
ag108
ag46
ag108
ag107
ag108
ag46
ag108
ag107
ag46
ag109
ag109
ag46
ag109
ag108
ag109
ag46
ag107
ag108
ag109
ag109
ag109
ag107
ag108
ag108
ag107
ag108
ag109
ag108
ag109
ag107
ag107
ag108
ag46
ag109
ag107
ag109
ag108
ag46
ag107
ag109
ag46
ag46
ag107
ag109
ag46
ag46
ag46
ag46
ag107
ag107
ag109
ag108
ag46
ag46
ag107
ag107
ag46
ag46
ag46
ag109
ag46
ag109
ag107
ag108
ag109
ag46
ag107
ag109
ag107
ag46
ag109
ag108
ag107
ag109
ag109
ag107
ag109
ag109
ag46
ag108
ag107
ag46
ag107
ag109
ag108
ag109
ag107
ag109
ag108
ag108
ag108
ag109
ag109
ag107
ag108
ag46
ag108
ag108
ag107
ag109
ag109
ag109
ag109
ag107
ag108
ag109
ag46
ag109
ag46
asS'um_after'
p112
(lp113
g109
ag108
ag46
ag108
ag108
ag46
ag109
ag107
ag108
ag107
ag46
ag109
ag108
ag109
ag46
ag46
ag46
ag109
ag109
ag109
ag109
ag107
ag108
ag109
ag108
ag109
ag109
ag107
ag46
ag108
ag46
ag108
ag107
ag108
ag46
ag108
ag107
ag46
ag109
ag109
ag46
ag109
ag108
ag109
ag46
ag107
ag108
ag109
ag109
ag109
ag107
ag108
ag108
ag107
ag108
ag109
ag108
ag109
ag107
ag107
ag108
ag46
ag109
ag107
ag109
ag108
ag46
ag107
ag109
ag46
ag46
ag107
ag109
ag46
ag46
ag46
ag46
ag107
ag107
ag109
ag108
ag46
ag46
ag107
ag107
ag46
ag46
ag46
ag109
ag46
ag109
ag107
ag108
ag109
ag46
ag107
ag109
ag107
ag46
ag109
ag108
ag107
ag109
ag109
ag107
ag109
ag109
ag46
ag108
ag107
ag46
ag107
ag109
ag108
ag109
ag107
ag109
ag108
ag108
ag108
ag109
ag109
ag107
ag108
ag46
ag108
ag108
ag107
ag109
ag109
ag109
ag109
ag107
ag108
ag109
ag46
ag109
ag46
asaa(lp114
S'index'
p115
aI99773
aatp116
Rp117
.