ccollections
OrderedDict
p0
((lp1
(lp2
S'combination_dict'
p3
ag0
((lp4
(lp5
S'r_to_g_config'
p6
aS'br'
p7
aa(lp8
S'num_turns'
p9
aI3
aa(lp10
S'start_direction'
p11
acutils_ms
StartDirection
p12
(I1
tp13
Rp14
aa(lp15
S'assistance_type'
p16
acutils_ms
AssistanceType
p17
(I2
tp18
Rp19
aa(lp20
S'start_mode'
p21
aS'x'
p22
aa(lp23
S'ui_given_a_noise'
p24
aF0.3
aa(lp25
S'um_given_ui_noise'
p26
aF0.5
aa(lp27
S'entropy_threshold'
p28
aF0.5
aatp29
Rp30
aa(lp31
S'data'
p32
accollections
defaultdict
p33
(c__builtin__
list
p34
tp35
Rp36
S'a'
p37
(lp38
S'mode_r'
p39
aS'move_n'
p40
ag40
aS'mode_l'
p41
ag40
ag39
ag39
ag39
ag39
ag40
ag39
ag39
ag40
ag40
ag41
aS'move_p'
p42
ag39
ag39
ag41
ag40
ag41
ag40
ag40
ag39
ag41
ag41
ag39
ag40
ag39
ag40
ag41
ag40
ag41
ag41
ag42
ag39
ag40
ag39
ag40
ag41
ag42
ag39
ag42
ag39
ag41
ag42
ag39
ag39
ag42
ag39
ag40
ag39
ag40
ag40
ag41
ag41
ag41
ag40
ag40
ag41
ag41
ag41
ag40
ag41
ag42
ag39
ag41
ag40
ag39
ag39
ag39
ag41
ag39
ag39
ag39
ag41
ag40
ag41
ag42
ag39
ag40
ag41
ag39
ag42
ag39
ag42
ag39
ag40
ag39
ag41
ag40
ag41
ag42
ag39
ag39
ag39
ag39
ag40
ag40
ag39
ag40
ag41
ag41
ag42
ag39
ag40
ag41
ag41
ag41
ag42
ag41
ag42
ag39
ag39
ag42
ag39
ag39
ag39
ag40
ag41
ag42
ag39
ag40
ag39
ag42
ag39
ag42
ag39
ag39
ag42
asS'assistance_match_with_ground_truth'
p43
(lp44
I01
aI00
aI00
aI01
aI00
aI00
aI00
aI00
aI01
aI00
aI00
aI01
aI00
aI01
aI01
aI00
aI00
aI00
aI01
aI00
aI01
aI00
aI00
aI00
aI00
aI00
aI01
aI00
aI01
aI00
aI01
aI01
aI00
aI01
aI01
aI01
aI00
aI01
aI00
aI01
aI00
aI01
aI00
aI00
aI01
aI00
aI00
aI01
aI00
aI01
aI00
aI01
aI00
aI00
aI00
aI00
aI01
aI00
aI00
aI00
aI00
aI01
aI01
aI01
aI01
aI00
aI01
aI00
aI00
aI00
aI00
aI00
aI00
aI00
aI00
aI01
aI00
aI01
aI01
aI01
aI00
aI00
aI01
aI00
aI01
aI01
aI01
aI00
aI00
aI01
aI00
aI01
aI00
aI00
aI00
aI00
aI01
aI00
aI00
aI01
aI01
aI00
aI01
aI01
aI01
aI00
aI00
aI00
aI01
aI00
aI01
aI00
aI00
aI01
aI01
aI00
aI00
aI01
aI00
aI01
aI01
aI01
aI01
aI01
aI01
aI01
aI00
aI00
aI01
aI01
asS'total_steps'
p45
I130
sS'sp'
p46
(lp47
(S'p0'
p48
I0
S'y'
p49
tp50
a(g48
I0
g49
tp51
a(g48
I0
S't'
p52
tp53
a(g48
I0
g49
tp54
a(g48
I0
S'x'
p55
tp56
a(g48
I0
g55
tp57
a(g48
I0
g55
tp58
ag57
ag50
ag56
ag58
ag50
ag51
a(S'p1'
p59
I0
g49
tp60
a(g59
I0
g55
tp61
a(g48
I0
g55
tp62
ag57
a(g48
I0
g52
tp63
ag54
ag53
ag54
ag51
ag56
ag63
a(g48
I0
g52
tp64
a(g48
I0
g55
tp65
ag50
ag56
ag50
ag53
ag54
ag60
a(g59
I0
g49
tp66
ag61
a(S'p2'
p67
I0
g55
tp68
a(g67
I0
g49
tp69
a(g67
I0
g55
tp70
ag69
a(g59
I0
g49
tp71
ag61
a(g59
I0
g52
tp72
a(g59
I0
g55
tp73
ag72
a(g59
I0
g49
tp74
ag61
ag72
a(g59
I0
g52
tp75
ag73
ag62
ag50
ag56
ag50
ag51
ag53
a(g48
I0
g52
tp76
ag76
ag54
ag51
ag53
ag64
ag76
ag54
ag60
ag61
ag68
a(g67
I0
g52
tp77
a(g67
I0
g49
tp78
ag70
a(g67
I0
g55
tp79
a(g67
I0
g55
tp80
ag77
a(g67
I0
g55
tp81
ag80
ag79
ag77
ag78
ag71
ag61
ag68
ag69
ag71
a(g59
I0
g52
tp82
ag73
ag72
ag73
ag68
ag69
ag70
ag77
ag78
ag71
ag61
ag62
ag57
ag58
ag57
ag50
ag51
ag56
ag50
ag60
a(g59
I0
g49
tp83
ag61
ag68
ag69
ag71
ag83
ag66
ag61
a(g59
I0
g49
tp84
ag61
ag72
a(g59
I0
g52
tp85
ag73
ag68
ag80
ag79
ag69
ag71
ag61
ag68
ag69
a(S'p3'
p86
I0
g49
tp87
a(g86
I0
g52
tp88
a(g86
F1.5707963267948966
g52
tp89
a(g86
F1.5707963267948966
g55
tp90
a(g86
F1.5707963267948966
g52
tp91
a(g86
F1.5707963267948966
g52
tp92
ag90
a(S'p4'
p93
F1.5707963267948966
g55
tp94
asS's'
p95
(lp96
(g48
I0
g22
tp97
ag50
ag51
ag53
ag54
ag56
ag57
ag58
ag57
ag50
ag56
ag58
ag50
ag51
ag60
ag61
ag62
ag57
ag63
ag54
ag53
ag54
ag51
ag56
ag63
ag64
ag65
ag50
ag56
ag50
ag53
ag54
ag60
ag66
ag61
ag68
ag69
ag70
ag69
ag71
ag61
ag72
ag73
ag72
ag74
ag61
ag72
ag75
ag73
ag62
ag50
ag56
ag50
ag51
ag53
ag76
ag76
ag54
ag51
ag53
ag64
ag76
ag54
ag60
ag61
ag68
ag77
ag78
ag70
ag79
ag80
ag77
ag81
ag80
ag79
ag77
ag78
ag71
ag61
ag68
ag69
ag71
ag82
ag73
ag72
ag73
ag68
ag69
ag70
ag77
ag78
ag71
ag61
ag62
ag57
ag58
ag57
ag50
ag51
ag56
ag50
ag60
ag83
ag61
ag68
ag69
ag71
ag83
ag66
ag61
ag84
ag61
ag72
ag85
ag73
ag68
ag80
ag79
ag69
ag71
ag61
ag68
ag69
ag87
ag88
ag89
ag90
ag91
ag92
ag90
asS'ui'
p98
(lp99
S'hp'
p100
ag46
aS'ss'
p101
aS'hs'
p102
ag101
ag101
ag100
ag100
ag100
ag101
ag100
ag100
ag101
ag101
ag102
ag46
ag46
ag100
ag102
ag101
ag102
ag101
ag102
ag102
ag100
ag101
ag100
ag101
ag100
ag100
ag102
ag101
ag102
ag102
ag102
ag100
ag101
ag100
ag46
ag102
ag102
ag100
ag46
ag102
ag102
ag46
ag100
ag100
ag46
ag100
ag102
ag100
ag46
ag100
ag101
ag101
ag102
ag46
ag101
ag46
ag102
ag102
ag102
ag102
ag46
ag102
ag102
ag101
ag100
ag46
ag100
ag101
ag100
ag100
ag102
ag101
ag100
ag102
ag46
ag100
ag102
ag100
ag100
ag46
ag100
ag46
ag100
ag102
ag102
ag102
ag101
ag102
ag46
ag102
ag46
ag100
ag100
ag46
ag101
ag100
ag101
ag102
ag102
ag46
ag100
ag100
ag101
ag100
ag102
ag102
ag102
ag102
ag46
ag100
ag46
ag100
ag101
ag100
ag100
ag102
ag46
ag100
ag101
ag100
ag46
ag100
ag46
ag100
ag100
ag46
asS'um_before'
p103
(lp104
g100
ag46
ag100
ag102
ag102
ag101
ag46
ag101
ag100
ag102
ag46
ag100
ag46
ag101
ag102
ag101
ag101
ag102
ag102
ag100
ag102
ag46
ag102
ag102
ag46
ag100
ag100
ag102
ag100
ag100
ag102
ag101
ag46
ag102
ag46
ag100
ag102
ag100
ag46
ag102
ag102
ag100
ag102
ag102
ag102
ag102
ag101
ag100
ag101
ag100
ag102
ag100
ag46
ag100
ag101
ag101
ag102
ag46
ag100
ag46
ag101
ag102
ag101
ag102
ag46
ag102
ag102
ag102
ag101
ag46
ag102
ag100
ag46
ag101
ag102
ag102
ag46
ag102
ag46
ag100
ag46
ag100
ag100
ag102
ag100
ag46
ag100
ag102
ag102
ag102
ag46
ag102
ag101
ag101
ag46
ag101
ag100
ag46
ag102
ag100
ag101
ag101
ag102
ag46
ag100
ag46
ag101
ag46
ag102
ag100
ag102
ag102
ag46
ag100
ag46
ag46
ag101
ag100
ag46
ag102
ag46
ag100
ag101
ag100
ag46
ag100
ag102
ag46
ag100
ag46
asS'um_after'
p105
(lp106
g100
ag46
ag100
ag102
ag102
ag101
ag46
ag101
ag100
ag102
ag46
ag100
ag46
ag101
ag102
ag101
ag101
ag102
ag102
ag100
ag102
ag46
ag102
ag102
ag46
ag100
ag100
ag102
ag100
ag100
ag102
ag101
ag46
ag102
ag46
ag100
ag102
ag100
ag46
ag102
ag102
ag100
ag102
ag102
ag102
ag102
ag101
ag100
ag101
ag100
ag102
ag100
ag46
ag100
ag101
ag101
ag102
ag46
ag100
ag46
ag101
ag102
ag101
ag102
ag46
ag102
ag102
ag102
ag101
ag46
ag102
ag100
ag46
ag101
ag102
ag102
ag46
ag102
ag46
ag100
ag46
ag100
ag100
ag102
ag100
ag46
ag100
ag102
ag102
ag102
ag46
ag102
ag101
ag101
ag46
ag101
ag100
ag46
ag102
ag100
ag101
ag101
ag102
ag46
ag100
ag46
ag101
ag46
ag102
ag100
ag102
ag102
ag46
ag100
ag46
ag46
ag101
ag100
ag46
ag102
ag46
ag100
ag101
ag100
ag46
ag100
ag102
ag46
ag100
ag46
asaa(lp107
S'index'
p108
aI113907
aatp109
Rp110
.