ccollections
OrderedDict
p0
((lp1
(lp2
S'combination_dict'
p3
ag0
((lp4
(lp5
S'r_to_g_config'
p6
aS'tr'
p7
aa(lp8
S'num_turns'
p9
aI3
aa(lp10
S'start_direction'
p11
acutils_ms
StartDirection
p12
(I0
tp13
Rp14
aa(lp15
S'assistance_type'
p16
acutils_ms
AssistanceType
p17
(I0
tp18
Rp19
aa(lp20
S'start_mode'
p21
aS't'
p22
aa(lp23
S'ui_given_a_noise'
p24
aF0.7
aa(lp25
S'um_given_ui_noise'
p26
aF0.7
aa(lp27
S'entropy_threshold'
p28
aF0.7
aatp29
Rp30
aa(lp31
S'data'
p32
accollections
defaultdict
p33
(c__builtin__
list
p34
tp35
Rp36
S'a'
p37
(lp38
S'mode_r'
p39
ag39
ag39
aS'mode_l'
p40
ag40
ag39
ag40
ag39
aS'move_p'
p41
ag39
ag40
ag39
ag39
ag41
ag40
ag41
ag39
ag39
ag41
ag39
ag41
ag40
ag39
ag39
ag41
ag39
ag39
ag39
ag40
ag41
ag39
ag41
ag40
ag39
ag41
ag39
ag39
ag41
ag40
ag39
ag41
ag40
ag39
ag40
ag39
ag39
ag41
ag41
ag40
ag41
ag39
ag41
ag39
ag39
ag41
ag39
ag39
ag39
ag39
ag39
ag40
ag39
ag39
ag40
ag40
ag39
ag41
ag40
ag41
ag39
ag39
ag39
ag39
ag40
ag40
ag40
ag40
ag40
ag40
ag39
ag39
ag39
ag41
ag39
ag39
ag40
ag41
ag40
ag40
ag39
ag41
ag40
ag40
ag39
ag39
ag39
ag41
ag39
ag40
ag41
ag40
ag39
ag41
ag40
ag40
ag40
ag40
ag41
ag40
ag41
ag39
ag39
ag39
ag39
ag41
ag39
ag39
ag39
ag41
ag40
ag40
ag41
ag40
ag40
ag40
ag41
ag39
ag39
ag40
ag39
ag40
ag39
ag41
ag39
ag41
ag40
ag41
ag39
ag41
ag39
ag39
ag39
ag39
ag41
ag40
ag41
ag40
ag41
asS'assistance_match_with_ground_truth'
p42
(lp43
I00
aI00
aI00
aI00
aI00
aI00
aI00
aI01
aI00
aI00
aI00
aI00
aI01
aI00
aI01
aI01
aI00
aI01
aI00
aI01
aI00
aI00
aI00
aI01
aI01
aI00
aI00
aI00
aI01
aI00
aI01
aI00
aI00
aI01
aI01
aI00
aI01
aI00
aI00
aI01
aI00
aI00
aI00
aI00
aI00
aI01
aI00
aI00
aI01
aI00
aI01
aI01
aI00
aI01
aI00
aI00
aI00
aI00
aI00
aI00
aI00
aI00
aI00
aI00
aI00
aI01
aI00
aI01
aI01
aI00
aI00
aI00
aI00
aI00
aI00
aI00
aI00
aI00
aI00
aI00
aI00
aI01
aI00
aI00
aI00
aI01
aI00
aI00
aI00
aI01
aI00
aI00
aI00
aI00
aI00
aI01
aI01
aI00
aI01
aI00
aI00
aI01
aI00
aI00
aI00
aI00
aI01
aI00
aI01
aI01
aI00
aI00
aI00
aI01
aI00
aI00
aI00
aI01
aI01
aI00
aI01
aI00
aI00
aI00
aI01
aI00
aI00
aI00
aI00
aI00
aI00
aI01
aI00
aI01
aI01
aI01
aI01
aI01
aI00
aI00
aI00
aI00
aI01
aI00
aI01
aI00
aI01
aI01
asS'total_steps'
p44
I148
sS'sp'
p45
(lp46
(S'p0'
p47
I0
S't'
p48
tp49
ag49
a(g47
I0
S'y'
p50
tp51
a(g47
I0
g50
tp52
a(g47
I0
g48
tp53
ag51
ag53
a(g47
I0
S'x'
p54
tp55
a(g47
I0
g48
tp56
ag51
ag53
ag49
ag55
a(g47
I0
g50
tp57
a(g47
I0
g54
tp58
a(S'p1'
p59
I0
g54
tp60
a(g59
I0
g54
tp61
a(g59
I0
g50
tp62
a(g59
I0
g54
tp63
ag62
a(g47
I0
g50
tp64
ag53
a(g47
I0
g48
tp65
ag55
ag60
ag61
ag61
a(g59
I0
g48
tp66
a(g59
I0
g50
tp67
ag63
ag62
a(g59
I0
g48
tp68
a(g59
I0
g54
tp69
ag62
a(S'p2'
p70
I0
g50
tp71
a(g70
I0
g50
tp72
a(g70
I0
g48
tp73
a(g70
I0
g54
tp74
a(g70
I0
g50
tp75
ag73
ag74
ag75
a(g70
I0
g54
tp76
ag75
ag72
ag73
a(g70
I0
g48
tp77
ag74
a(g70
I0
g48
tp78
a(g70
I0
g50
tp79
ag73
a(g70
F1.5707963267948966
g48
tp80
a(g70
F1.5707963267948966
g48
tp81
a(g70
F1.5707963267948966
g54
tp82
a(g59
F1.5707963267948966
g54
tp83
a(g59
F1.5707963267948966
g54
tp84
a(g59
F1.5707963267948966
g54
tp85
ag84
ag85
a(g59
F1.5707963267948966
g48
tp86
a(g59
F1.5707963267948966
g54
tp87
ag84
ag86
a(g59
F1.5707963267948966
g48
tp88
ag87
a(g59
F1.5707963267948966
g50
tp89
a(g47
F1.5707963267948966
g50
tp90
a(g47
F1.5707963267948966
g54
tp91
a(g59
F1.5707963267948966
g54
tp92
ag85
ag85
ag85
ag86
ag88
a(g59
F1.5707963267948966
g48
tp93
ag93
ag88
ag88
ag87
ag85
ag85
ag89
a(g59
F1.5707963267948966
g54
tp94
ag84
ag86
a(g59
F1.5707963267948966
g50
tp95
a(g59
F1.5707963267948966
g48
tp96
ag88
ag87
ag89
ag90
a(g47
F1.5707963267948966
g50
tp97
a(g47
F1.5707963267948966
g48
tp98
a(g47
F1.5707963267948966
g48
tp99
ag99
a(g47
F1.5707963267948966
g54
tp100
ag92
ag86
ag95
ag96
ag87
ag89
ag96
ag88
ag88
ag88
ag95
ag90
ag91
ag92
ag85
ag85
ag84
ag89
ag94
ag84
ag85
ag89
a(g70
F1.5707963267948966
g50
tp101
a(g70
F1.5707963267948966
g50
tp102
a(g70
F1.5707963267948966
g54
tp103
a(g70
F1.5707963267948966
g50
tp104
ag102
a(g70
F1.5707963267948966
g50
tp105
ag103
ag83
ag85
ag86
ag87
ag86
ag87
ag89
ag94
ag89
ag101
ag103
a(S'p3'
p106
F1.5707963267948966
g54
tp107
a(g106
F1.5707963267948966
g50
tp108
a(g106
F1.5707963267948966
g54
tp109
a(g106
F1.5707963267948966
g54
tp110
a(g106
F1.5707963267948966
g54
tp111
ag111
ag108
a(g106
F1.5707963267948966
g48
tp112
a(g106
F1.5707963267948966
g50
tp113
ag112
ag113
a(S'p4'
p114
F1.5707963267948966
g50
tp115
asS's'
p116
(lp117
(g47
I0
g22
tp118
ag49
ag49
ag51
ag52
ag53
ag51
ag53
ag55
ag56
ag51
ag53
ag49
ag55
ag57
ag58
ag60
ag61
ag62
ag63
ag62
ag64
ag53
ag65
ag55
ag60
ag61
ag61
ag66
ag67
ag63
ag62
ag68
ag69
ag62
ag71
ag72
ag73
ag74
ag75
ag73
ag74
ag75
ag76
ag75
ag72
ag73
ag77
ag74
ag78
ag79
ag73
ag80
ag81
ag82
ag83
ag84
ag85
ag84
ag85
ag86
ag87
ag84
ag86
ag88
ag87
ag89
ag90
ag91
ag92
ag85
ag85
ag85
ag86
ag88
ag93
ag93
ag88
ag88
ag87
ag85
ag85
ag89
ag94
ag84
ag86
ag95
ag96
ag88
ag87
ag89
ag90
ag97
ag98
ag99
ag99
ag100
ag92
ag86
ag95
ag96
ag87
ag89
ag96
ag88
ag88
ag88
ag95
ag90
ag91
ag92
ag85
ag85
ag84
ag89
ag94
ag84
ag85
ag89
ag101
ag102
ag103
ag104
ag102
ag105
ag103
ag83
ag85
ag86
ag87
ag86
ag87
ag89
ag94
ag89
ag101
ag103
ag107
ag108
ag109
ag110
ag111
ag111
ag108
ag112
ag113
ag112
ag113
asS'ui'
p119
(lp120
g45
aS'hp'
p121
aS'hs'
p122
aS'ss'
p123
ag121
ag122
ag122
ag121
ag122
ag45
ag45
ag122
ag121
ag45
ag123
ag121
ag121
ag121
ag121
ag121
ag45
ag45
ag123
ag121
ag45
ag121
ag123
ag45
ag122
ag122
ag121
ag45
ag121
ag122
ag122
ag121
ag122
ag45
ag122
ag121
ag45
ag121
ag122
ag121
ag45
ag121
ag45
ag121
ag122
ag45
ag121
ag45
ag121
ag121
ag121
ag121
ag123
ag122
ag121
ag122
ag45
ag45
ag122
ag45
ag121
ag121
ag123
ag122
ag45
ag121
ag121
ag121
ag122
ag45
ag121
ag45
ag45
ag45
ag122
ag121
ag121
ag121
ag122
ag121
ag121
ag122
ag45
ag45
ag121
ag121
ag121
ag45
ag121
ag45
ag121
ag121
ag45
ag45
ag122
ag45
ag121
ag122
ag121
ag45
ag122
ag45
ag122
ag45
ag122
ag45
ag121
ag121
ag45
ag121
ag121
ag122
ag121
ag121
ag45
ag45
ag122
ag121
ag123
ag123
ag122
ag123
ag121
ag45
ag121
ag122
ag45
ag121
ag122
ag121
ag45
ag122
ag45
ag122
ag45
ag121
ag122
ag122
ag122
ag121
ag122
ag121
ag122
ag45
asS'um_before'
p124
(lp125
g45
ag45
ag122
ag123
ag121
ag122
ag121
ag121
ag122
ag122
ag121
ag45
ag121
ag121
ag122
ag45
ag123
ag121
ag122
ag121
ag123
ag121
ag123
ag121
ag45
ag123
ag123
ag122
ag122
ag122
ag121
ag121
ag121
ag121
ag45
ag45
ag121
ag121
ag121
ag121
ag121
ag121
ag122
ag121
ag45
ag121
ag123
ag121
ag122
ag122
ag121
ag45
ag45
ag121
ag123
ag45
ag123
ag45
ag123
ag122
ag121
ag45
ag122
ag45
ag121
ag121
ag123
ag122
ag45
ag123
ag123
ag123
ag122
ag45
ag123
ag123
ag45
ag45
ag121
ag123
ag123
ag121
ag122
ag45
ag122
ag122
ag121
ag45
ag121
ag121
ag123
ag123
ag121
ag45
ag45
ag121
ag45
ag122
ag122
ag121
ag121
ag121
ag121
ag45
ag45
ag45
ag122
ag123
ag122
ag45
ag123
ag123
ag45
ag121
ag122
ag45
ag123
ag121
ag45
ag45
ag122
ag121
ag45
ag123
ag122
ag123
ag123
ag122
ag121
ag122
ag121
ag121
ag122
ag121
ag45
ag122
ag45
ag121
ag122
ag123
ag45
ag45
ag121
ag121
ag122
ag121
ag122
ag45
asS'um_after'
p126
(lp127
g45
ag45
ag122
ag123
ag121
ag122
ag121
ag121
ag122
ag122
ag121
ag45
ag121
ag121
ag122
ag45
ag123
ag121
ag122
ag121
ag123
ag121
ag123
ag121
ag45
ag123
ag123
ag122
ag122
ag122
ag121
ag121
ag121
ag121
ag45
ag45
ag121
ag121
ag121
ag121
ag121
ag121
ag122
ag121
ag45
ag121
ag123
ag121
ag122
ag122
ag121
ag45
ag45
ag121
ag123
ag45
ag123
ag45
ag123
ag122
ag121
ag45
ag122
ag45
ag121
ag121
ag123
ag122
ag45
ag123
ag123
ag123
ag122
ag45
ag123
ag123
ag45
ag45
ag121
ag123
ag123
ag121
ag122
ag45
ag122
ag122
ag121
ag45
ag121
ag121
ag123
ag123
ag121
ag45
ag45
ag121
ag45
ag122
ag122
ag121
ag121
ag121
ag121
ag45
ag45
ag45
ag122
ag123
ag122
ag45
ag123
ag123
ag45
ag121
ag122
ag45
ag123
ag121
ag45
ag45
ag122
ag121
ag45
ag123
ag122
ag123
ag123
ag122
ag121
ag122
ag121
ag121
ag122
ag121
ag45
ag122
ag45
ag121
ag122
ag123
ag45
ag45
ag121
ag121
ag122
ag121
ag122
ag45
asaa(lp128
S'index'
p129
aI19979
aatp130
Rp131
.