ccollections
OrderedDict
p0
((lp1
(lp2
S'combination_dict'
p3
ag0
((lp4
(lp5
S'r_to_g_config'
p6
aS'br'
p7
aa(lp8
S'num_turns'
p9
aI1
aa(lp10
S'start_direction'
p11
acutils_ms
StartDirection
p12
(I0
tp13
Rp14
aa(lp15
S'assistance_type'
p16
acutils_ms
AssistanceType
p17
(I0
tp18
Rp19
aa(lp20
S'start_mode'
p21
aS'y'
p22
aa(lp23
S'ui_given_a_noise'
p24
aF0.3
aa(lp25
S'um_given_ui_noise'
p26
aF0.7
aa(lp27
S'entropy_threshold'
p28
aF0.5
aatp29
Rp30
aa(lp31
S'data'
p32
accollections
defaultdict
p33
(c__builtin__
list
p34
tp35
Rp36
S'a'
p37
(lp38
S'mode_l'
p39
aS'move_p'
p40
ag40
ag39
ag40
ag40
ag40
ag40
ag39
aS'move_n'
p41
ag39
ag40
ag40
aS'mode_r'
p42
ag41
ag42
ag42
ag42
ag41
ag39
ag39
ag40
ag42
ag42
ag42
ag42
ag41
ag42
ag41
ag41
asS'assistance_match_with_ground_truth'
p43
(lp44
I01
aI00
aI01
aI01
aI00
aI00
aI00
aI01
aI01
aI00
aI01
aI00
aI01
aI01
aI00
aI00
aI00
aI01
aI00
aI00
aI01
aI01
aI00
aI00
aI00
aI01
aI00
aI01
aI00
aI01
asS'total_steps'
p45
I30
sS'sp'
p46
(lp47
(S'p0'
p48
I0
S'x'
p49
tp50
ag50
a(S'p1'
p51
I0
g49
tp52
a(g51
I0
S't'
p53
tp54
ag54
ag54
ag54
a(g51
F1.5707963267948966
g53
tp55
a(g51
F1.5707963267948966
S'y'
p56
tp57
a(g48
F1.5707963267948966
g56
tp58
a(g48
F1.5707963267948966
g49
tp59
ag59
a(g51
F1.5707963267948966
g49
tp60
a(g51
F1.5707963267948966
g56
tp61
a(g51
F1.5707963267948966
g49
tp62
a(g51
F1.5707963267948966
g49
tp63
ag63
ag61
ag58
a(g48
F1.5707963267948966
g56
tp64
ag59
ag60
a(g51
F1.5707963267948966
g49
tp65
ag63
ag65
ag61
ag62
ag61
ag61
a(S'p2'
p66
F1.5707963267948966
g56
tp67
asS's'
p68
(lp69
(g48
I0
g22
tp70
ag50
ag50
ag52
ag54
ag54
ag54
ag54
ag55
ag57
ag58
ag59
ag59
ag60
ag61
ag62
ag63
ag63
ag61
ag58
ag64
ag59
ag60
ag65
ag63
ag65
ag61
ag62
ag61
ag61
asS'ui'
p71
(lp72
S'hs'
p73
ag46
ag46
ag73
ag46
ag46
ag46
ag46
ag73
ag46
ag73
ag46
ag46
aS'hp'
p74
aS'ss'
p75
ag46
ag46
ag74
ag75
ag73
ag73
ag46
ag46
ag74
ag74
ag74
ag75
ag74
ag75
ag46
asS'um_before'
p76
(lp77
g73
ag75
ag46
ag73
ag73
ag75
ag75
ag46
ag73
ag46
ag73
ag73
ag46
ag74
ag73
ag46
ag46
ag74
ag46
ag46
ag73
ag46
ag75
ag46
ag75
ag74
ag73
ag74
ag74
ag75
asS'um_after'
p78
(lp79
g73
aNag46
ag73
aNaNaNag46
ag73
ag46
ag73
aNag46
ag74
ag73
ag46
ag46
ag74
ag46
ag46
ag73
ag46
ag75
ag46
ag75
ag74
ag73
ag74
aNag75
asaa(lp80
S'index'
p81
aI87559
aatp82
Rp83
.