ccollections
OrderedDict
p0
((lp1
(lp2
S'index'
p3
aI13169
aa(lp4
S'combination_dict'
p5
ag0
((lp6
(lp7
S'r_to_g_config'
p8
aS'br'
p9
aa(lp10
S'num_turns'
p11
aI2
aa(lp12
S'start_direction'
p13
acutils_ms
StartDirection
p14
(I3
tp15
Rp16
aa(lp17
S'assistance_type'
p18
acutils_ms
AssistanceType
p19
(I1
tp20
Rp21
aa(lp22
S'start_mode'
p23
aS't'
p24
aa(lp25
S'ui_given_a_noise'
p26
aF0.3
aa(lp27
S'um_given_ui_noise'
p28
aF0.1
aa(lp29
S'entropy_threshold'
p30
aF0.9
aa(lp31
S'is_assistance'
p32
aI00
aatp33
Rp34
aa(lp35
S'trials'
p36
ag0
((lp37
(lp38
I0
accollections
defaultdict
p39
(c__builtin__
list
p40
tp41
Rp42
S'a'
p43
(lp44
S'mode_r'
p45
aS'move_p'
p46
ag45
ag45
aS'move_n'
p47
aS'mode_l'
p48
ag47
ag45
ag46
ag45
ag46
asS'assistance_match_with_ground_truth'
p49
(lp50
I01
aI01
aI00
aI01
aI00
aI01
aI01
aI01
aI01
aI01
aI01
asS'total_steps'
p51
I11
sS'sp'
p52
(S'p3'
p53
F1.5707963267948966
S'x'
p54
tp55
sS's'
p56
(lp57
(S'p0'
p58
I0
g24
tp59
a(g58
I0
g54
tp60
a(S'p1'
p61
I0
g54
tp62
a(g61
I0
g54
tp63
a(g61
I0
S'y'
p64
tp65
a(g61
I0
S't'
p66
tp67
a(g61
I0
g64
tp68
a(S'p2'
p69
I0
g64
tp70
a(g69
I0
g66
tp71
a(g69
F1.5707963267948966
g66
tp72
a(g69
F1.5707963267948966
g54
tp73
asS'ui'
p74
(lp75
S'hp'
p76
ag52
ag76
ag76
ag76
aS'hs'
p77
aS'ss'
p78
ag76
ag52
ag76
ag52
asS'um_before'
p79
(lp80
g76
ag52
ag52
ag76
ag76
ag77
ag78
ag76
ag52
ag76
ag52
asS'um_after'
p81
(lp82
g76
ag52
ag52
ag76
ag76
ag77
ag78
ag76
ag52
ag76
ag52
asaa(lp83
I1
ag39
(g40
tp84
Rp85
g43
(lp86
g45
ag46
ag45
ag47
ag45
ag46
ag45
ag46
ag45
ag46
ag45
ag46
ag45
ag47
ag48
ag46
asg49
(lp87
I01
aI01
aI01
aI01
aI01
aI01
aI00
aI01
aI01
aI00
aI01
aI00
aI01
aI01
aI01
aI01
asg51
I16
sg52
g55
sg56
(lp88
(g58
I0
g24
tp89
ag60
ag62
ag65
ag70
ag71
ag72
a(g69
I0
g66
tp90
ag72
ag73
a(g69
F1.5707963267948966
g66
tp91
ag73
a(g61
F1.5707963267948966
g54
tp92
a(g61
F1.5707963267948966
g64
tp93
a(g69
F1.5707963267948966
g64
tp94
a(g69
F1.5707963267948966
g54
tp95
asg74
(lp96
g76
ag52
ag76
ag78
ag76
ag52
ag78
ag52
ag76
ag77
ag76
ag78
ag76
ag78
ag77
ag52
asg79
(lp97
g76
ag52
ag76
ag78
ag76
ag52
ag78
ag52
ag76
ag77
ag76
ag78
ag76
ag78
ag77
ag52
asg81
(lp98
g76
ag52
ag76
ag78
ag76
ag52
ag78
ag52
ag76
ag77
ag76
ag78
ag76
ag78
ag77
ag52
asaa(lp99
I2
ag39
(g40
tp100
Rp101
g43
(lp102
g45
ag46
ag46
ag45
ag46
ag46
ag45
ag45
ag47
ag45
ag46
ag45
ag46
asg49
(lp103
I01
aI00
aI00
aI01
aI00
aI01
aI00
aI01
aI01
aI01
aI01
aI01
aI01
asg51
I13
sg52
g55
sg56
(lp104
(g58
I0
g24
tp105
ag60
a(g58
I0
g54
tp106
a(g58
I0
g66
tp107
ag60
ag106
ag62
a(g61
I0
g54
tp108
ag65
ag70
ag71
ag72
ag73
asg74
(lp109
g76
ag78
ag77
ag76
ag78
ag52
ag78
ag76
ag78
ag76
ag52
ag76
ag52
asg79
(lp110
g76
ag78
ag77
ag76
ag78
ag52
ag78
ag76
ag78
ag76
ag52
ag76
ag52
asg81
(lp111
g76
ag78
ag77
ag76
ag78
ag52
ag78
ag76
ag78
ag76
ag52
ag76
ag52
asaa(lp112
I3
ag39
(g40
tp113
Rp114
g43
(lp115
g45
ag46
ag45
ag45
ag48
ag47
ag45
ag46
ag45
ag46
asg49
(lp116
I01
aI01
aI00
aI00
aI01
aI01
aI01
aI01
aI01
aI01
asg51
I10
sg52
g55
sg56
(lp117
(g58
I0
g24
tp118
ag60
ag62
ag108
a(g61
I0
g66
tp119
ag68
ag70
ag71
ag72
ag73
asg74
(lp120
g76
ag52
ag78
ag76
ag77
ag78
ag76
ag52
ag76
ag52
asg79
(lp121
g76
ag52
ag78
ag77
ag77
ag78
ag76
ag52
ag76
ag52
asg81
(lp122
g76
ag52
ag78
ag77
ag77
ag78
ag76
ag52
ag76
ag52
asaa(lp123
I4
ag39
(g40
tp124
Rp125
g43
(lp126
g45
ag46
ag45
ag47
ag45
ag45
ag46
ag45
ag46
ag45
ag47
ag48
ag48
ag46
ag45
ag47
ag48
ag47
ag48
ag46
asg49
(lp127
I01
aI01
aI01
aI01
aI00
aI01
aI01
aI01
aI00
aI01
aI01
aI00
aI01
aI00
aI01
aI00
aI01
aI01
aI01
aI01
asg51
I20
sg52
g55
sg56
(lp128
(g58
I0
g24
tp129
ag60
ag62
ag65
ag70
a(g69
I0
g64
tp130
ag71
ag72
ag73
ag92
ag93
ag94
a(g69
F1.5707963267948966
g64
tp131
ag95
ag92
ag93
a(g61
F1.5707963267948966
g66
tp132
a(g61
F1.5707963267948966
g64
tp133
ag94
ag95
asg74
(lp134
g76
ag52
ag76
ag78
ag76
ag76
ag52
ag76
ag78
ag76
ag78
ag52
ag77
ag78
ag76
ag76
ag77
ag78
ag77
ag77
asg79
(lp135
g76
ag52
ag76
ag78
ag78
ag76
ag52
ag76
ag78
ag76
ag78
ag52
ag77
ag78
ag76
ag76
ag77
ag78
ag77
ag52
asg81
(lp136
g76
ag52
ag76
ag78
ag78
ag76
ag52
ag76
ag78
ag76
ag78
ag52
ag77
ag78
ag76
ag76
ag77
ag78
ag77
ag52
asaa(lp137
I5
ag39
(g40
tp138
Rp139
g43
(lp140
g45
ag46
ag48
ag45
ag45
ag46
ag46
ag45
ag48
ag45
ag47
ag45
ag47
ag48
ag45
ag47
ag45
ag45
ag46
ag45
ag46
ag48
ag46
ag45
ag47
ag48
ag48
ag46
asg49
(lp141
I01
aI00
aI00
aI00
aI01
aI00
aI01
aI00
aI00
aI01
aI00
aI01
aI00
aI00
aI01
aI01
aI00
aI01
aI01
aI01
aI00
aI01
aI00
aI01
aI01
aI00
aI01
aI01
asg51
I28
sg52
g55
sg56
(lp142
(g58
I0
g24
tp143
ag60
a(g58
I0
g64
tp144
a(g58
I0
g66
tp145
a(g58
I0
g66
tp146
ag60
ag106
ag62
ag119
a(g61
I0
g54
tp147
ag65
a(g61
I0
g54
tp148
ag65
ag67
ag147
ag65
ag70
ag130
ag71
ag72
ag73
a(g69
F1.5707963267948966
g64
tp149
ag95
ag92
ag93
ag94
ag131
ag95
asg74
(lp150
g76
ag76
ag76
ag52
ag76
ag78
ag52
ag77
ag76
ag76
ag77
ag76
ag76
ag76
ag76
ag78
ag78
ag76
ag52
ag76
ag76
ag77
ag78
ag76
ag78
ag78
ag77
ag52
asg79
(lp151
g76
ag76
ag76
ag52
ag76
ag78
ag52
ag77
ag76
ag76
ag77
ag76
ag76
ag76
ag76
ag78
ag78
ag76
ag52
ag76
ag76
ag77
ag78
ag76
ag78
ag52
ag77
ag52
asg81
(lp152
g76
ag76
ag76
ag52
ag76
ag78
ag52
ag77
ag76
ag76
ag77
ag76
ag76
ag76
ag76
ag78
ag78
ag76
ag52
ag76
ag76
ag77
ag78
ag76
ag78
ag52
ag77
ag52
asaa(lp153
I6
ag39
(g40
tp154
Rp155
g43
(lp156
g45
ag46
ag45
ag47
ag45
ag46
ag45
ag46
ag48
ag46
ag45
ag48
ag48
ag48
ag47
ag45
ag48
ag48
ag48
ag45
ag45
ag48
ag47
ag48
ag48
ag46
asg49
(lp157
I01
aI01
aI01
aI01
aI01
aI01
aI01
aI00
aI01
aI00
aI00
aI00
aI00
aI01
aI00
aI00
aI00
aI00
aI00
aI00
aI00
aI01
aI01
aI00
aI01
aI01
asg51
I26
sg52
g55
sg56
(lp158
(g58
I0
g24
tp159
ag60
ag62
ag65
ag70
ag71
ag72
ag73
ag149
ag95
ag92
a(g61
F1.5707963267948966
g66
tp160
a(g61
F1.5707963267948966
g66
tp161
ag161
ag133
a(g61
F1.5707963267948966
g54
tp162
ag160
a(g61
F1.5707963267948966
g66
tp163
ag163
a(g61
F1.5707963267948966
g54
tp164
a(g61
F1.5707963267948966
g54
tp165
ag160
ag133
ag94
a(g69
F1.5707963267948966
g64
tp166
ag95
asg74
(lp167
g76
ag52
ag76
ag78
ag76
ag52
ag76
ag76
ag77
ag78
ag76
ag52
ag78
ag77
ag77
ag76
ag77
ag52
ag76
ag78
ag77
ag77
ag78
ag78
ag77
ag52
asg79
(lp168
g76
ag52
ag76
ag78
ag76
ag52
ag76
ag76
ag77
ag78
ag77
ag78
ag78
ag77
ag77
ag77
ag52
ag52
ag76
ag78
ag77
ag77
ag78
ag78
ag77
ag52
asg81
(lp169
g76
ag52
ag76
ag78
ag76
ag52
ag76
ag76
ag77
ag78
ag77
ag78
ag78
ag77
ag77
ag77
ag52
ag52
ag76
ag78
ag77
ag77
ag78
ag78
ag77
ag52
asaa(lp170
I7
ag39
(g40
tp171
Rp172
g43
(lp173
g45
ag46
ag45
ag47
ag45
ag46
ag45
ag46
ag48
ag45
ag46
asg49
(lp174
I01
aI01
aI01
aI01
aI01
aI01
aI01
aI00
aI00
aI01
aI01
asg51
I11
sg52
g55
sg56
(lp175
(g58
I0
g24
tp176
ag60
ag62
ag65
ag70
ag71
ag72
ag73
ag149
a(g69
F1.5707963267948966
g66
tp177
ag73
asg74
(lp178
g76
ag52
ag76
ag78
ag76
ag52
ag76
ag76
ag76
ag76
ag52
asg79
(lp179
g76
ag52
ag76
ag78
ag76
ag52
ag76
ag76
ag76
ag76
ag52
asg81
(lp180
g76
ag52
ag76
ag78
ag76
ag52
ag76
ag76
ag76
ag76
ag52
asaa(lp181
I8
ag39
(g40
tp182
Rp183
g43
(lp184
g45
ag48
ag46
ag46
ag45
ag47
ag48
ag47
ag45
ag47
ag45
ag46
ag45
ag46
asg49
(lp185
I00
aI01
aI00
aI01
aI01
aI00
aI01
aI00
aI01
aI01
aI01
aI01
aI01
aI01
asg51
I14
sg52
g55
sg56
(lp186
(g58
I0
g24
tp187
a(g58
I0
g64
tp188
a(g58
I0
g54
tp189
ag106
ag62
ag65
ag67
ag68
ag148
ag65
ag70
ag71
ag72
ag73
asg74
(lp190
g76
ag77
ag78
ag52
ag76
ag76
ag77
ag77
ag76
ag78
ag76
ag52
ag76
ag52
asg79
(lp191
g77
ag77
ag78
ag52
ag76
ag76
ag77
ag77
ag76
ag78
ag76
ag52
ag76
ag52
asg81
(lp192
g77
ag77
ag78
ag52
ag76
ag76
ag77
ag77
ag76
ag78
ag76
ag52
ag76
ag52
asaa(lp193
I9
ag39
(g40
tp194
Rp195
g43
(lp196
g45
ag46
ag45
ag47
ag45
ag46
ag46
ag48
asg49
(lp197
I01
aI01
aI01
aI01
aI01
aI00
aI00
aI00
asg51
I8
sg52
(g53
I0
g54
tp198
sg56
(lp199
(g58
I0
g24
tp200
ag60
ag62
ag65
ag70
ag71
a(g69
I0
g66
tp201
a(g69
I0
g54
tp202
asg74
(lp203
g76
ag52
ag76
ag78
ag76
ag52
ag76
ag52
asg79
(lp204
g76
ag52
ag76
ag78
ag76
ag78
ag76
ag52
asg81
(lp205
g76
ag52
ag76
ag78
ag76
ag78
ag76
ag52
asaatp206
Rp207
aatp208
Rp209
.