ccollections
OrderedDict
p0
((lp1
(lp2
S'combination_dict'
p3
ag0
((lp4
(lp5
S'r_to_g_config'
p6
aS'tr'
p7
aa(lp8
S'num_turns'
p9
aI2
aa(lp10
S'start_direction'
p11
acutils_ms
StartDirection
p12
(I1
tp13
Rp14
aa(lp15
S'assistance_type'
p16
acutils_ms
AssistanceType
p17
(I2
tp18
Rp19
aa(lp20
S'start_mode'
p21
aS'x'
p22
aa(lp23
S'ui_given_a_noise'
p24
aF0.5
aa(lp25
S'um_given_ui_noise'
p26
aF0.7
aa(lp27
S'entropy_threshold'
p28
aF0.8
aatp29
Rp30
aa(lp31
S'data'
p32
accollections
defaultdict
p33
(c__builtin__
list
p34
tp35
Rp36
S'a'
p37
(lp38
S'mode_r'
p39
aS'mode_l'
p40
aS'move_p'
p41
ag40
ag39
ag41
ag39
ag39
ag39
ag39
ag41
ag39
ag39
ag40
ag40
ag40
ag41
ag41
ag39
ag41
ag40
ag40
ag40
ag40
ag39
ag41
ag40
ag39
ag41
ag39
ag41
ag39
ag39
ag41
ag40
ag40
ag41
ag40
ag39
ag40
ag40
ag41
ag39
ag41
ag40
ag40
ag40
ag40
ag40
ag41
ag39
ag40
ag39
ag40
ag41
ag39
ag41
ag39
ag40
ag40
ag41
ag40
ag41
ag39
ag39
ag39
ag41
ag40
ag41
ag39
ag40
ag39
ag40
ag40
ag40
ag41
ag39
ag40
ag41
ag40
ag40
ag41
ag39
ag40
ag41
ag40
ag40
ag40
ag40
ag40
ag40
ag41
ag40
ag40
ag39
ag41
ag39
ag41
ag40
ag39
ag39
ag39
ag40
ag41
ag40
ag41
ag40
ag40
ag39
ag40
ag40
ag40
ag40
ag41
ag41
ag41
ag40
ag40
ag39
asS'assistance_match_with_ground_truth'
p42
(lp43
I00
aI01
aI00
aI00
aI01
aI00
aI00
aI00
aI00
aI01
aI00
aI00
aI00
aI00
aI00
aI01
aI00
aI00
aI01
aI01
aI00
aI00
aI00
aI00
aI01
aI00
aI00
aI01
aI00
aI01
aI00
aI00
aI01
aI01
aI00
aI01
aI01
aI00
aI00
aI00
aI01
aI00
aI01
aI00
aI00
aI00
aI00
aI00
aI01
aI00
aI00
aI00
aI00
aI01
aI00
aI01
aI00
aI00
aI00
aI01
aI01
aI01
aI00
aI00
aI00
aI01
aI01
aI01
aI00
aI00
aI00
aI00
aI00
aI00
aI01
aI00
aI00
aI01
aI00
aI00
aI01
aI00
aI00
aI01
aI01
aI00
aI00
aI00
aI00
aI00
aI01
aI00
aI00
aI00
aI01
aI00
aI01
aI00
aI00
aI00
aI00
aI00
aI01
aI01
aI01
aI01
aI00
aI00
aI00
aI00
aI00
aI00
aI01
aI00
aI00
aI00
aI00
aI00
aI00
asS'total_steps'
p44
I119
sS'sp'
p45
(lp46
(S'p0'
p47
I0
S't'
p48
tp49
a(g47
I0
S'y'
p50
tp51
a(g47
I0
g48
tp52
a(g47
I0
S'x'
p53
tp54
a(g47
I0
g50
tp55
a(g47
I0
g53
tp56
a(g47
I0
g53
tp57
ag57
a(g47
I0
g53
tp58
ag55
ag56
ag57
ag49
a(g47
I0
g48
tp59
a(g47
I0
g48
tp60
ag51
a(g47
I0
g50
tp61
ag56
ag55
a(S'p1'
p62
I0
g50
tp63
a(g62
I0
g50
tp64
ag64
a(g62
I0
g50
tp65
a(g62
I0
g48
tp66
a(g62
I0
g53
tp67
a(g62
I0
g50
tp68
ag66
ag67
a(g47
I0
g53
tp69
ag55
ag56
ag58
ag55
ag63
ag64
a(g62
I0
g53
tp70
a(S'p2'
p71
I0
g53
tp72
a(g71
I0
g50
tp73
a(g71
I0
g53
tp74
a(g71
I0
g53
tp75
a(g71
I0
g48
tp76
a(g71
I0
g50
tp77
a(g71
I0
g48
tp78
a(g71
I0
g53
tp79
a(g71
I0
g53
tp80
ag80
ag75
ag75
ag76
ag77
a(g62
I0
g50
tp81
ag66
a(g62
I0
g50
tp82
ag70
a(g62
I0
g48
tp83
ag67
ag69
ag49
ag59
ag51
ag63
ag70
ag83
a(g62
I0
g48
tp84
a(g62
I0
g48
tp85
ag67
ag72
ag76
ag77
ag74
ag73
ag74
ag80
ag75
ag76
ag77
ag81
ag70
ag68
ag65
ag70
ag69
ag49
ag51
ag63
ag64
ag64
ag64
ag65
ag65
ag70
ag68
ag64
ag66
ag67
ag69
ag55
ag52
ag54
ag58
ag58
ag49
ag51
ag63
ag70
ag72
ag75
ag73
ag74
ag75
ag75
ag75
ag76
a(g71
I0
g48
tp86
ag86
ag79
ag80
ag73
a(S'p3'
p87
I0
g50
tp88
asS's'
p89
(lp90
(g47
I0
g22
tp91
ag49
ag51
ag52
ag54
ag55
ag56
ag57
ag57
ag58
ag55
ag56
ag57
ag49
ag59
ag60
ag51
ag61
ag56
ag55
ag63
ag64
ag64
ag65
ag66
ag67
ag68
ag66
ag67
ag69
ag55
ag56
ag58
ag55
ag63
ag64
ag70
ag72
ag73
ag74
ag75
ag76
ag77
ag78
ag79
ag80
ag80
ag75
ag75
ag76
ag77
ag81
ag66
ag82
ag70
ag83
ag67
ag69
ag49
ag59
ag51
ag63
ag70
ag83
ag84
ag85
ag67
ag72
ag76
ag77
ag74
ag73
ag74
ag80
ag75
ag76
ag77
ag81
ag70
ag68
ag65
ag70
ag69
ag49
ag51
ag63
ag64
ag64
ag64
ag65
ag65
ag70
ag68
ag64
ag66
ag67
ag69
ag55
ag52
ag54
ag58
ag58
ag49
ag51
ag63
ag70
ag72
ag75
ag73
ag74
ag75
ag75
ag75
ag76
ag86
ag86
ag79
ag80
ag73
asS'ui'
p92
(lp93
S'hp'
p94
aS'hs'
p95
ag45
ag45
ag94
ag95
aS'ss'
p96
ag94
ag95
ag94
ag94
ag94
ag45
ag45
ag95
ag95
ag95
ag45
ag45
ag45
ag95
ag45
ag96
ag96
ag94
ag45
ag94
ag94
ag45
ag94
ag45
ag45
ag94
ag45
ag95
ag95
ag45
ag45
ag94
ag96
ag95
ag95
ag94
ag45
ag96
ag94
ag45
ag96
ag94
ag95
ag94
ag45
ag94
ag95
ag95
ag94
ag45
ag94
ag95
ag95
ag45
ag95
ag45
ag94
ag95
ag94
ag45
ag95
ag95
ag94
ag45
ag95
ag95
ag95
ag95
ag45
ag96
ag95
ag45
ag95
ag95
ag45
ag95
ag95
ag45
ag95
ag95
ag95
ag96
ag96
ag94
ag45
ag95
ag96
ag94
ag45
ag45
ag45
ag95
ag45
ag94
ag94
ag95
ag45
ag95
ag45
ag95
ag45
ag94
ag95
ag95
ag95
ag95
ag45
ag45
ag45
ag94
ag95
ag45
asS'um_before'
p97
(lp98
g95
ag95
ag94
ag94
ag94
ag95
ag96
ag96
ag45
ag94
ag95
ag96
ag95
ag96
ag45
ag95
ag96
ag95
ag94
ag45
ag45
ag45
ag96
ag94
ag94
ag94
ag94
ag94
ag96
ag94
ag95
ag45
ag94
ag45
ag45
ag95
ag45
ag94
ag95
ag45
ag95
ag95
ag94
ag94
ag96
ag96
ag45
ag45
ag95
ag95
ag96
ag94
ag95
ag95
ag95
ag94
ag96
ag95
ag96
ag95
ag45
ag95
ag95
ag96
ag45
ag94
ag45
ag95
ag95
ag95
ag94
ag95
ag96
ag45
ag95
ag95
ag96
ag95
ag94
ag96
ag95
ag96
ag95
ag95
ag45
ag45
ag45
ag45
ag96
ag96
ag95
ag94
ag45
ag94
ag94
ag96
ag94
ag94
ag94
ag45
ag45
ag95
ag95
ag45
ag95
ag45
ag45
ag94
ag95
ag45
ag45
ag45
ag95
ag96
ag96
ag94
ag96
ag94
ag45
asS'um_after'
p99
(lp100
g95
ag95
ag94
ag94
ag94
ag95
ag96
ag96
ag45
ag94
ag95
ag96
ag95
ag96
ag45
ag95
ag96
ag95
ag94
ag45
ag45
ag45
ag96
ag94
ag94
ag94
ag94
ag94
ag96
ag94
ag95
ag45
ag94
ag45
ag45
ag95
ag45
ag94
ag95
ag45
ag95
ag95
ag94
ag94
ag96
ag96
ag45
ag45
ag95
ag95
ag96
ag94
ag95
ag95
ag95
ag94
ag96
ag95
ag96
ag95
ag45
ag95
ag95
ag96
ag45
ag94
ag45
ag95
ag95
ag95
ag94
ag95
ag96
ag45
ag95
ag95
ag96
ag95
ag94
ag96
ag95
ag96
ag95
ag95
ag45
ag45
ag45
ag45
ag96
ag96
ag95
ag94
ag45
ag94
ag94
ag96
ag94
ag94
ag94
ag45
ag45
ag95
ag95
ag45
ag95
ag45
ag45
ag94
ag95
ag45
ag45
ag45
ag95
ag96
ag96
ag94
ag96
ag94
ag45
asaa(lp101
S'index'
p102
aI18181
aatp103
Rp104
.