ccollections
OrderedDict
p0
((lp1
(lp2
S'combination_dict'
p3
ag0
((lp4
(lp5
S'r_to_g_config'
p6
aS'tl'
p7
aa(lp8
S'num_turns'
p9
aI1
aa(lp10
S'start_direction'
p11
acutils_ms
StartDirection
p12
(I0
tp13
Rp14
aa(lp15
S'assistance_type'
p16
acutils_ms
AssistanceType
p17
(I2
tp18
Rp19
aa(lp20
S'start_mode'
p21
aS'y'
p22
aa(lp23
S'ui_given_a_noise'
p24
aF0.3
aa(lp25
S'um_given_ui_noise'
p26
aF0.7
aa(lp27
S'entropy_threshold'
p28
aF0.9
aatp29
Rp30
aa(lp31
S'data'
p32
accollections
defaultdict
p33
(c__builtin__
list
p34
tp35
Rp36
S'a'
p37
(lp38
S'mode_l'
p39
ag39
aS'mode_r'
p40
ag40
ag40
ag40
ag40
ag40
ag40
aS'move_n'
p41
ag40
ag39
ag41
ag39
aS'move_p'
p42
ag40
ag42
ag39
ag39
ag39
ag39
ag42
ag42
ag40
ag39
ag41
ag39
ag40
ag39
ag41
ag41
ag39
ag39
ag42
ag40
ag39
ag39
ag42
ag42
ag39
ag42
ag39
ag42
ag39
ag40
ag40
ag40
ag39
ag42
ag39
ag39
ag40
ag39
ag39
ag39
ag41
ag41
ag40
ag39
ag41
ag41
ag41
ag40
ag39
ag39
ag39
ag39
ag41
ag39
ag41
ag40
ag39
ag41
ag40
ag41
ag40
ag42
ag39
ag39
ag39
ag40
ag40
ag39
ag39
ag41
ag40
ag41
ag41
ag40
ag39
ag40
ag42
asS'assistance_match_with_ground_truth'
p43
(lp44
I00
aI00
aI00
aI00
aI00
aI00
aI00
aI00
aI01
aI00
aI00
aI01
aI01
aI01
aI00
aI01
aI00
aI00
aI00
aI00
aI01
aI00
aI00
aI00
aI01
aI00
aI00
aI00
aI01
aI00
aI01
aI00
aI01
aI00
aI00
aI00
aI01
aI00
aI01
aI01
aI00
aI01
aI00
aI00
aI00
aI00
aI00
aI01
aI00
aI00
aI00
aI00
aI00
aI00
aI01
aI00
aI00
aI00
aI01
aI00
aI00
aI00
aI00
aI00
aI00
aI00
aI01
aI00
aI01
aI00
aI00
aI01
aI00
aI01
aI01
aI01
aI00
aI00
aI00
aI00
aI00
aI00
aI00
aI01
aI00
aI01
aI00
aI01
aI00
aI00
aI01
aI01
asS'total_steps'
p45
I92
sS'sp'
p46
(lp47
(S'p0'
p48
I0
S'y'
p49
tp50
a(g48
I0
S't'
p51
tp52
a(g48
I0
g51
tp53
a(g48
I0
g51
tp54
ag53
ag54
ag54
ag53
a(g48
I0
S'x'
p55
tp56
a(g48
I0
g51
tp57
a(g48
I0
g49
tp58
a(g48
I0
g55
tp59
a(S'p1'
p60
I0
g55
tp61
a(g60
I0
g51
tp62
a(g60
I0
g49
tp63
a(g60
I0
g51
tp64
a(g60
I0
g55
tp65
a(g60
I0
g55
tp66
a(g60
I0
g55
tp67
ag66
ag62
a(g60
I0
g51
tp68
ag63
a(g48
I0
g49
tp69
ag59
a(g48
I0
g49
tp70
ag52
ag58
ag59
a(g48
I0
g55
tp71
ag61
ag67
ag62
ag63
a(g60
I0
g55
tp72
ag67
ag62
ag68
a(g60
F1.5707963267948966
g51
tp73
a(g60
F1.5707963267948966
g49
tp74
a(g60
F1.5707963267948966
g51
tp75
ag74
ag75
a(g60
F1.5707963267948966
g55
tp76
a(g60
F1.5707963267948966
g55
tp77
a(g60
F1.5707963267948966
g55
tp78
a(g60
F1.5707963267948966
g51
tp79
ag74
a(g48
F1.5707963267948966
g49
tp80
a(g48
F1.5707963267948966
g49
tp81
a(g48
F1.5707963267948966
g51
tp82
a(g48
F1.5707963267948966
g49
tp83
a(g48
F1.5707963267948966
g49
tp84
ag81
a(g48
F1.5707963267948966
g55
tp85
a(g48
F1.5707963267948966
g55
tp86
a(g48
F1.5707963267948966
g51
tp87
ag83
ag85
ag86
ag86
ag87
ag83
ag84
ag84
ag81
ag85
a(g48
F1.5707963267948966
g49
tp88
ag85
ag87
ag83
ag85
ag87
a(g48
F1.5707963267948966
g55
tp89
a(g60
F1.5707963267948966
g55
tp90
a(g60
F1.5707963267948966
g49
tp91
ag80
ag84
ag84
ag82
a(g48
F1.5707963267948966
g51
tp92
ag83
ag84
ag85
ag87
ag89
ag86
ag90
ag79
ag76
ag91
a(S'p2'
p93
F1.5707963267948966
g49
tp94
asS's'
p95
(lp96
(g48
I0
g22
tp97
ag50
ag52
ag53
ag54
ag53
ag54
ag54
ag53
ag56
ag57
ag58
ag59
ag61
ag62
ag63
ag64
ag65
ag66
ag67
ag66
ag62
ag68
ag63
ag69
ag59
ag70
ag52
ag58
ag59
ag71
ag61
ag67
ag62
ag63
ag72
ag67
ag62
ag68
ag73
ag74
ag75
ag74
ag75
ag76
ag77
ag78
ag79
ag74
ag80
ag81
ag82
ag83
ag84
ag81
ag85
ag86
ag87
ag83
ag85
ag86
ag86
ag87
ag83
ag84
ag84
ag81
ag85
ag88
ag85
ag87
ag83
ag85
ag87
ag89
ag90
ag91
ag80
ag84
ag84
ag82
ag92
ag83
ag84
ag85
ag87
ag89
ag86
ag90
ag79
ag76
ag91
asS'ui'
p98
(lp99
S'hs'
p100
ag100
aS'hp'
p101
ag101
ag101
ag100
ag101
ag101
ag46
aS'ss'
p102
ag101
ag100
ag102
ag100
ag100
ag101
ag46
ag100
ag100
ag100
ag100
ag46
ag100
ag46
ag100
ag102
ag100
ag101
ag100
ag46
ag102
ag100
ag100
ag101
ag101
ag100
ag100
ag102
ag102
ag100
ag46
ag100
ag46
ag100
ag101
ag46
ag101
ag100
ag46
ag46
ag100
ag102
ag102
ag100
ag100
ag46
ag102
ag102
ag100
ag100
ag100
ag102
ag102
ag102
ag101
ag46
ag100
ag46
ag102
ag102
ag101
ag100
ag46
ag101
ag102
ag101
ag46
ag100
ag102
ag100
ag46
ag100
ag100
ag100
ag102
ag101
ag100
ag102
ag100
ag101
ag46
ag46
asS'um_before'
p103
(lp104
g102
ag101
ag102
ag46
ag102
ag46
ag46
ag102
ag101
ag100
ag100
ag100
ag102
ag100
ag100
ag101
ag101
ag46
ag102
ag46
ag100
ag102
ag100
ag102
ag100
ag101
ag101
ag100
ag100
ag46
ag102
ag102
ag100
ag100
ag100
ag102
ag100
ag102
ag46
ag100
ag101
ag100
ag101
ag101
ag102
ag46
ag100
ag100
ag102
ag46
ag101
ag100
ag102
ag46
ag100
ag46
ag100
ag100
ag100
ag46
ag46
ag100
ag100
ag102
ag102
ag46
ag100
ag101
ag100
ag100
ag100
ag100
ag100
ag101
ag102
ag101
ag102
ag102
ag102
ag101
ag102
ag100
ag102
ag100
ag100
ag101
ag46
ag102
ag100
ag101
ag101
ag46
asS'um_after'
p105
(lp106
g102
ag101
ag102
ag46
ag102
ag46
ag46
ag102
ag101
ag100
ag100
ag100
ag102
ag100
ag100
ag101
ag101
ag46
ag102
ag46
ag100
ag102
ag100
ag102
ag100
ag101
ag101
ag100
ag100
ag46
ag102
ag102
ag100
ag100
ag100
ag102
ag100
ag102
ag46
ag100
ag101
ag100
ag101
ag101
ag102
ag46
ag100
ag100
ag102
ag46
ag101
ag100
ag102
ag46
ag100
ag46
ag100
ag100
ag100
ag46
ag46
ag100
ag100
ag102
ag102
ag46
ag100
ag101
ag100
ag100
ag100
ag100
ag100
ag101
ag102
ag101
ag102
ag102
ag102
ag101
ag102
ag100
ag102
ag100
ag100
ag101
ag46
ag102
ag100
ag101
ag101
ag46
asaa(lp107
S'index'
p108
aI33196
aatp109
Rp110
.