ccollections
OrderedDict
p0
((lp1
(lp2
S'combination_dict'
p3
ag0
((lp4
(lp5
S'r_to_g_config'
p6
aS'bl'
p7
aa(lp8
S'num_turns'
p9
aI2
aa(lp10
S'start_direction'
p11
acutils_ms
StartDirection
p12
(I1
tp13
Rp14
aa(lp15
S'assistance_type'
p16
acutils_ms
AssistanceType
p17
(I2
tp18
Rp19
aa(lp20
S'start_mode'
p21
aS'x'
p22
aa(lp23
S'ui_given_a_noise'
p24
aF0.1
aa(lp25
S'um_given_ui_noise'
p26
aF0.5
aa(lp27
S'entropy_threshold'
p28
aF0.6
aatp29
Rp30
aa(lp31
S'data'
p32
accollections
defaultdict
p33
(c__builtin__
list
p34
tp35
Rp36
S'a'
p37
(lp38
S'mode_r'
p39
ag39
ag39
ag39
aS'mode_l'
p40
ag39
aS'move_n'
p41
ag39
ag41
ag39
ag39
aS'move_p'
p42
ag39
ag42
ag39
ag42
ag39
ag41
ag39
ag41
ag39
ag41
ag40
ag39
ag41
ag40
ag40
ag39
ag39
ag41
ag39
ag39
ag39
ag41
ag39
ag39
ag41
ag40
ag39
ag39
ag39
ag39
ag39
ag39
ag41
ag39
ag39
ag39
ag41
ag40
ag41
ag39
ag39
ag39
ag39
ag39
ag39
ag41
asS'assistance_match_with_ground_truth'
p43
(lp44
I00
aI00
aI00
aI00
aI00
aI01
aI00
aI01
aI01
aI00
aI01
aI00
aI01
aI00
aI01
aI01
aI01
aI00
aI01
aI01
aI01
aI00
aI00
aI01
aI00
aI00
aI00
aI00
aI01
aI00
aI00
aI00
aI01
aI00
aI00
aI01
aI01
aI00
aI00
aI00
aI00
aI00
aI00
aI01
aI01
aI00
aI00
aI01
aI00
aI01
aI00
aI00
aI00
aI00
aI00
aI00
aI01
aI01
asS'total_steps'
p45
I58
sS'sp'
p46
(lp47
(S'p0'
p48
I0
S'x'
p49
tp50
ag50
ag50
a(g48
I0
S't'
p51
tp52
a(g48
I0
g49
tp53
a(g48
I0
S'y'
p54
tp55
a(g48
I0
g49
tp56
ag55
a(S'p1'
p57
I0
g54
tp58
a(g57
I0
g54
tp59
a(g57
I0
g51
tp60
a(g57
I0
g54
tp61
ag60
ag61
ag60
a(g57
F1.5707963267948966
g51
tp62
a(g57
F1.5707963267948966
g49
tp63
a(g57
F1.5707963267948966
g51
tp64
ag63
a(S'p2'
p65
F1.5707963267948966
g49
tp66
a(g65
F1.5707963267948966
g54
tp67
a(g65
F1.5707963267948966
g51
tp68
a(g65
F1.5707963267948966
g49
tp69
ag67
a(g57
F1.5707963267948966
g54
tp70
a(g57
F1.5707963267948966
g54
tp71
a(g57
F1.5707963267948966
g51
tp72
a(g57
F1.5707963267948966
g51
tp73
ag63
a(g48
F1.5707963267948966
g49
tp74
a(g48
F1.5707963267948966
g49
tp75
ag75
a(g48
F1.5707963267948966
g54
tp76
a(g48
F1.5707963267948966
g49
tp77
ag75
ag76
a(g57
F1.5707963267948966
g54
tp78
ag72
ag73
ag73
ag73
ag73
ag73
ag63
ag66
a(g65
F1.5707963267948966
g49
tp79
ag79
ag67
ag68
a(g65
F1.5707963267948966
g54
tp80
a(g65
F1.5707963267948966
g49
tp81
ag79
ag79
a(g65
F1.5707963267948966
g49
tp82
ag79
ag79
ag67
a(S'p3'
p83
F1.5707963267948966
g54
tp84
asS's'
p85
(lp86
(g48
I0
g22
tp87
ag50
ag50
ag50
ag52
ag53
ag55
ag56
ag55
ag58
ag59
ag60
ag61
ag60
ag61
ag60
ag62
ag63
ag64
ag63
ag66
ag67
ag68
ag69
ag67
ag70
ag71
ag72
ag73
ag63
ag74
ag75
ag75
ag76
ag77
ag75
ag76
ag78
ag72
ag73
ag73
ag73
ag73
ag73
ag63
ag66
ag79
ag79
ag67
ag68
ag80
ag81
ag79
ag79
ag82
ag79
ag79
ag67
asS'ui'
p88
(lp89
S'hp'
p90
ag90
ag90
ag90
aS'hs'
p91
ag90
ag91
ag90
aS'ss'
p92
ag90
ag90
ag46
ag90
ag46
ag90
ag46
ag90
ag92
ag90
ag92
ag90
ag90
ag91
ag90
ag92
ag91
ag91
ag90
ag90
ag92
ag90
ag90
ag90
ag91
ag90
ag90
ag92
ag91
ag90
ag90
ag46
ag90
ag90
ag90
ag92
ag90
ag90
ag90
ag91
ag91
ag91
ag90
ag90
ag90
ag90
ag90
ag90
ag92
asS'um_before'
p93
(lp94
g46
ag46
ag46
ag91
ag90
ag90
ag91
ag90
ag92
ag46
ag90
ag91
ag90
ag91
ag90
ag46
ag90
ag91
ag90
ag92
ag90
ag90
ag90
ag90
ag46
ag46
ag90
ag46
ag90
ag46
ag46
ag46
ag90
ag91
ag46
ag90
ag92
ag90
ag46
ag46
ag46
ag46
ag46
ag90
ag92
ag46
ag46
ag90
ag90
ag91
ag91
ag46
ag46
ag92
ag46
ag46
ag90
ag92
asS'um_after'
p95
(lp96
g46
ag46
ag46
ag91
ag90
ag90
ag91
ag90
ag92
ag46
ag90
ag91
ag90
ag91
ag90
ag46
ag90
ag91
ag90
ag92
ag90
ag90
ag90
ag90
ag46
ag46
ag90
ag46
ag90
ag46
ag46
ag46
ag90
ag91
ag46
ag90
ag92
ag90
ag46
ag46
ag46
ag46
ag46
ag90
ag92
ag46
ag46
ag90
ag90
ag91
ag91
ag46
ag46
ag92
ag46
ag46
ag90
ag92
asaa(lp97
S'index'
p98
aI75319
aatp99
Rp100
.