ccollections
OrderedDict
p0
((lp1
(lp2
S'combination_dict'
p3
ag0
((lp4
(lp5
S'r_to_g_config'
p6
aS'br'
p7
aa(lp8
S'num_turns'
p9
aI3
aa(lp10
S'start_direction'
p11
acutils_ms
StartDirection
p12
(I1
tp13
Rp14
aa(lp15
S'assistance_type'
p16
acutils_ms
AssistanceType
p17
(I2
tp18
Rp19
aa(lp20
S'start_mode'
p21
aS'x'
p22
aa(lp23
S'ui_given_a_noise'
p24
aF0.7
aa(lp25
S'um_given_ui_noise'
p26
aF0.7
aa(lp27
S'entropy_threshold'
p28
aF0.6
aatp29
Rp30
aa(lp31
S'data'
p32
accollections
defaultdict
p33
(c__builtin__
list
p34
tp35
Rp36
S'a'
p37
(lp38
S'mode_r'
p39
ag39
aS'move_n'
p40
aS'mode_l'
p41
aS'move_p'
p42
ag39
ag42
ag39
ag39
ag39
ag42
ag39
ag40
ag41
ag40
ag41
ag39
ag42
ag41
ag42
ag39
ag40
ag39
ag39
ag42
ag42
ag42
ag39
ag41
ag42
ag41
ag42
ag39
ag42
ag39
ag39
ag39
ag39
ag42
ag39
ag41
ag39
ag39
ag40
ag41
ag41
ag40
ag39
ag39
ag42
ag39
ag41
ag41
ag41
ag41
ag42
ag39
ag42
ag41
ag42
ag42
ag41
ag39
ag39
ag42
ag41
ag39
ag39
ag42
ag41
ag39
ag39
ag40
ag39
ag39
ag41
ag42
ag39
ag39
ag42
ag41
ag39
ag42
asS'assistance_match_with_ground_truth'
p43
(lp44
I00
aI01
aI01
aI01
aI00
aI01
aI00
aI00
aI00
aI01
aI00
aI01
aI00
aI01
aI01
aI00
aI01
aI00
aI01
aI01
aI01
aI01
aI00
aI01
aI00
aI00
aI00
aI00
aI01
aI00
aI01
aI01
aI00
aI00
aI00
aI00
aI00
aI01
aI00
aI00
aI00
aI00
aI01
aI00
aI00
aI01
aI01
aI00
aI01
aI01
aI00
aI00
aI00
aI00
aI01
aI00
aI00
aI00
aI01
aI00
aI00
aI00
aI00
aI01
aI00
aI00
aI00
aI01
aI00
aI00
aI00
aI01
aI01
aI00
aI00
aI01
aI01
aI00
aI01
aI00
aI00
aI01
aI01
asS'total_steps'
p45
I83
sS'sp'
p46
(lp47
(S'p0'
p48
I0
S'x'
p49
tp50
a(g48
I0
S'y'
p51
tp52
a(S'p1'
p53
I0
g51
tp54
a(g53
I0
g49
tp55
a(g53
I0
S't'
p56
tp57
a(g53
I0
g49
tp58
ag57
a(g53
I0
g56
tp59
a(g53
I0
g56
tp60
ag58
a(g48
I0
g49
tp61
ag52
a(g48
I0
g56
tp62
a(g48
I0
g51
tp63
ag54
a(g53
I0
g56
tp64
ag58
a(g53
I0
g51
tp65
ag55
a(S'p2'
p66
I0
g49
tp67
a(g66
I0
g51
tp68
a(S'p3'
p69
I0
g51
tp70
a(g69
I0
g51
tp71
a(g69
I0
g56
tp72
a(g69
I0
g56
tp73
ag73
a(g69
I0
g51
tp74
a(g69
I0
g49
tp75
a(g69
I0
g56
tp76
a(g69
I0
g49
tp77
ag76
a(g69
F1.5707963267948966
g56
tp78
a(g69
I0
g56
tp79
ag74
ag71
ag71
ag71
ag72
ag74
ag75
a(g66
I0
g49
tp80
a(g66
I0
g49
tp81
ag68
a(g66
I0
g56
tp82
a(g66
I0
g56
tp83
a(g66
I0
g51
tp84
ag70
ag71
ag72
ag78
a(g69
F1.5707963267948966
g51
tp85
a(g69
F1.5707963267948966
g51
tp86
ag86
ag86
a(g69
F1.5707963267948966
g49
tp87
a(g69
F1.5707963267948966
g56
tp88
ag79
ag77
ag76
ag73
ag77
a(g69
I0
g51
tp89
ag71
ag72
ag77
ag89
ag71
ag72
ag77
ag80
a(g66
I0
g49
tp90
ag68
ag70
a(g69
I0
g51
tp91
ag75
ag76
ag78
a(g69
F1.5707963267948966
g56
tp92
a(g69
F1.5707963267948966
g49
tp93
a(g69
F1.5707963267948966
g51
tp94
a(g69
F1.5707963267948966
g56
tp95
ag93
a(S'p4'
p96
F1.5707963267948966
g49
tp97
asS's'
p98
(lp99
(g48
I0
g22
tp100
ag50
ag52
ag54
ag55
ag57
ag58
ag57
ag59
ag60
ag58
ag61
ag52
ag62
ag63
ag54
ag64
ag58
ag65
ag55
ag67
ag68
ag70
ag71
ag72
ag73
ag73
ag74
ag75
ag76
ag77
ag76
ag78
ag79
ag74
ag71
ag71
ag71
ag72
ag74
ag75
ag80
ag81
ag68
ag82
ag83
ag84
ag70
ag71
ag72
ag78
ag85
ag86
ag86
ag86
ag87
ag88
ag79
ag77
ag76
ag73
ag77
ag89
ag71
ag72
ag77
ag89
ag71
ag72
ag77
ag80
ag90
ag68
ag70
ag91
ag75
ag76
ag78
ag92
ag93
ag94
ag95
ag93
asS'ui'
p101
(lp102
S'hp'
p103
ag103
aS'ss'
p104
ag104
ag103
ag103
ag103
ag104
ag103
aS'hs'
p105
ag46
ag103
ag103
ag105
ag104
ag105
ag103
ag103
ag105
ag104
ag103
ag104
ag103
ag103
ag46
ag103
ag46
ag103
ag105
ag103
ag103
ag46
ag103
ag105
ag104
ag103
ag104
ag103
ag104
ag103
ag105
ag104
ag105
ag103
ag104
ag105
ag104
ag104
ag103
ag104
ag46
ag105
ag104
ag105
ag46
ag104
ag103
ag103
ag104
ag46
ag46
ag103
ag103
ag103
ag46
ag105
ag103
ag103
ag105
ag105
ag103
ag103
ag46
ag104
ag103
ag105
ag46
ag46
ag105
ag103
ag103
ag104
ag46
asS'um_before'
p106
(lp107
g104
ag103
ag104
ag105
ag105
ag103
ag105
ag46
ag104
ag103
ag104
ag103
ag103
ag105
ag104
ag103
ag103
ag103
ag105
ag46
ag103
ag104
ag104
ag103
ag104
ag104
ag105
ag105
ag105
ag103
ag105
ag46
ag104
ag105
ag104
ag104
ag104
ag103
ag105
ag105
ag104
ag46
ag103
ag103
ag104
ag105
ag104
ag104
ag103
ag46
ag105
ag46
ag46
ag46
ag105
ag105
ag104
ag103
ag105
ag104
ag103
ag103
ag104
ag103
ag103
ag103
ag104
ag103
ag103
ag104
ag104
ag103
ag104
ag46
ag105
ag105
ag46
ag46
ag103
ag103
ag103
ag103
ag46
asS'um_after'
p108
(lp109
g104
ag103
ag104
ag105
ag105
ag103
ag105
ag46
ag104
ag103
ag104
ag103
ag103
ag105
ag104
ag103
ag103
ag103
ag105
ag46
ag103
ag104
ag104
ag103
ag104
ag104
ag105
ag105
ag105
ag103
ag105
ag46
ag104
ag105
ag104
ag104
ag104
ag103
ag105
ag105
ag104
ag46
ag103
ag103
ag104
ag105
ag104
ag104
ag103
ag46
ag105
ag46
ag46
ag46
ag105
ag105
ag104
ag103
ag105
ag104
ag103
ag103
ag104
ag103
ag103
ag103
ag104
ag103
ag103
ag104
ag104
ag103
ag104
ag46
ag105
ag105
ag46
ag46
ag103
ag103
ag103
ag103
ag46
asaa(lp110
S'index'
p111
aI114365
aatp112
Rp113
.