ccollections
OrderedDict
p0
((lp1
(lp2
S'index'
p3
aI8117
aa(lp4
S'combination_dict'
p5
ag0
((lp6
(lp7
S'r_to_g_config'
p8
aS'bl'
p9
aa(lp10
S'num_turns'
p11
aI1
aa(lp12
S'start_direction'
p13
acutils_ms
StartDirection
p14
(I3
tp15
Rp16
aa(lp17
S'assistance_type'
p18
acutils_ms
AssistanceType
p19
(I1
tp20
Rp21
aa(lp22
S'start_mode'
p23
aS't'
p24
aa(lp25
S'ui_given_a_noise'
p26
aF0.5
aa(lp27
S'um_given_ui_noise'
p28
aF0.7
aa(lp29
S'entropy_threshold'
p30
aF0.8
aa(lp31
S'is_assistance'
p32
aI00
aatp33
Rp34
aa(lp35
S'trials'
p36
ag0
((lp37
(lp38
I0
accollections
defaultdict
p39
(c__builtin__
list
p40
tp41
Rp42
S'a'
p43
(lp44
S'mode_r'
p45
aS'move_n'
p46
aS'mode_l'
p47
ag45
ag47
aS'move_p'
p48
ag45
ag47
ag47
ag47
ag47
ag48
ag48
ag47
ag45
ag48
ag48
ag47
ag48
ag47
ag46
ag47
ag46
ag47
ag47
ag47
ag46
ag45
ag46
ag47
ag46
asS'assistance_match_with_ground_truth'
p49
(lp50
I01
aI01
aI00
aI00
aI01
aI00
aI00
aI00
aI00
aI00
aI01
aI00
aI00
aI00
aI01
aI00
aI00
aI01
aI01
aI01
aI00
aI01
aI00
aI00
aI00
aI01
aI01
aI01
aI00
aI01
aI01
asS'total_steps'
p51
I31
sS'sp'
p52
(S'p2'
p53
F1.5707963267948966
S'y'
p54
tp55
sS's'
p56
(lp57
(S'p0'
p58
I0
g24
tp59
a(g58
I0
S'x'
p60
tp61
a(S'p1'
p62
I0
g60
tp63
a(g62
I0
g54
tp64
a(g62
I0
g60
tp65
a(g62
I0
S't'
p66
tp67
a(g62
I0
g54
tp68
ag65
a(g62
I0
g60
tp69
a(g62
I0
g60
tp70
ag69
ag67
a(g62
I0
g66
tp71
a(g62
I0
g60
tp72
ag64
a(g62
I0
g66
tp73
ag71
ag72
ag67
a(g62
F1.5707963267948966
g66
tp74
a(g62
F1.5707963267948966
g54
tp75
a(g62
F1.5707963267948966
g66
tp76
ag75
a(g58
F1.5707963267948966
g54
tp77
a(g58
F1.5707963267948966
g54
tp78
ag78
a(g58
F1.5707963267948966
g60
tp79
a(g62
F1.5707963267948966
g60
tp80
a(g62
F1.5707963267948966
g54
tp81
ag76
ag75
asS'ui'
p82
(lp83
g52
aS'ss'
p84
aS'hp'
p85
ag85
aS'hs'
p86
ag86
ag85
ag84
ag84
ag85
ag86
ag52
ag85
ag85
ag85
ag52
ag84
ag86
ag52
ag86
ag85
ag86
ag84
ag86
ag85
ag85
ag84
ag52
ag52
ag86
ag84
asS'um_before'
p87
(lp88
g85
ag84
ag85
ag86
ag86
ag86
ag86
ag52
ag84
ag52
ag86
ag84
ag85
ag85
ag85
ag84
ag85
ag86
ag52
ag86
ag85
ag86
ag52
ag84
ag84
ag86
ag84
ag85
ag85
ag86
ag84
asS'um_after'
p89
(lp90
g85
ag84
ag85
ag86
ag86
ag86
ag86
ag52
ag84
ag52
ag86
ag84
ag85
ag85
ag85
ag84
ag85
ag86
ag52
ag86
ag85
ag86
ag52
ag84
ag84
ag86
ag84
ag85
ag85
ag86
ag84
asaa(lp91
I1
ag39
(g40
tp92
Rp93
g43
(lp94
g45
ag47
ag45
ag45
ag46
ag47
ag47
ag48
ag47
ag47
ag48
ag48
ag47
ag48
ag48
ag48
ag48
ag47
ag48
ag48
ag47
ag46
asg49
(lp95
I00
aI00
aI00
aI01
aI01
aI00
aI01
aI00
aI00
aI01
aI00
aI00
aI01
aI00
aI00
aI00
aI00
aI01
aI00
aI01
aI01
aI01
asg51
I22
sg52
g55
sg56
(lp96
(g58
I0
g24
tp97
a(g58
I0
g54
tp98
a(g58
I0
g66
tp99
a(g58
I0
g66
tp100
ag61
ag63
ag69
ag67
ag72
ag70
ag67
ag71
ag72
ag67
ag71
ag71
ag71
ag72
ag67
ag71
ag74
ag75
asg82
(lp101
g86
ag85
ag52
ag86
ag84
ag84
ag86
ag52
ag86
ag86
ag84
ag52
ag86
ag52
ag52
ag52
ag52
ag86
ag52
ag52
ag86
ag84
asg87
(lp102
g86
ag85
ag52
ag85
ag84
ag52
ag86
ag85
ag84
ag86
ag84
ag85
ag86
ag84
ag84
ag84
ag85
ag86
ag84
ag52
ag86
ag84
asg89
(lp103
g86
ag85
ag52
ag85
ag84
ag52
ag86
ag85
ag84
ag86
ag84
ag85
ag86
ag84
ag84
ag84
ag85
ag86
ag84
ag52
ag86
ag84
asaa(lp104
I2
ag39
(g40
tp105
Rp106
g43
(lp107
g45
ag46
ag45
ag46
ag47
ag46
ag47
ag45
ag45
ag45
ag46
ag47
ag47
ag48
ag47
ag46
asg49
(lp108
I01
aI00
aI01
aI00
aI01
aI00
aI00
aI00
aI00
aI01
aI01
aI00
aI01
aI01
aI01
aI01
asg51
I16
sg52
g55
sg56
(lp109
(g58
I0
g24
tp110
ag61
a(g58
I0
g66
tp111
ag61
a(g58
I0
g54
tp112
a(g58
I0
g60
tp113
ag112
ag99
ag100
a(g58
I0
g66
tp114
ag61
ag63
ag70
ag67
ag74
ag75
asg82
(lp115
g85
ag86
ag52
ag52
ag86
ag52
ag85
ag85
ag84
ag85
ag52
ag86
ag84
ag52
ag86
ag84
asg87
(lp116
g85
ag86
ag85
ag85
ag86
ag85
ag85
ag52
ag84
ag85
ag84
ag84
ag86
ag52
ag86
ag84
asg89
(lp117
g85
ag86
ag85
ag85
ag86
ag85
ag85
ag52
ag84
ag85
ag84
ag84
ag86
ag52
ag86
ag84
asaa(lp118
I3
ag39
(g40
tp119
Rp120
g43
(lp121
g45
ag45
ag45
ag47
ag47
ag45
ag45
ag47
ag47
ag47
ag46
ag45
ag45
ag46
ag45
ag46
ag45
ag46
ag47
ag45
asg49
(lp122
I00
aI00
aI00
aI00
aI00
aI00
aI00
aI00
aI00
aI01
aI00
aI00
aI01
aI00
aI01
aI00
aI01
aI01
aI00
aI00
asg51
I20
sg52
(g53
I0
g54
tp123
sg56
(lp124
(g58
I0
g24
tp125
ag114
ag114
ag98
a(g58
I0
g54
tp126
ag99
ag100
ag98
a(g58
I0
g54
tp127
ag127
ag113
ag111
ag100
ag61
ag111
ag61
ag111
ag61
ag63
ag64
asg82
(lp128
g52
ag85
ag86
ag52
ag85
ag52
ag85
ag86
ag84
ag86
ag86
ag52
ag85
ag86
ag85
ag86
ag85
ag52
ag85
ag85
asg87
(lp129
g84
ag84
ag86
ag52
ag85
ag52
ag86
ag84
ag84
ag86
ag86
ag52
ag85
ag86
ag85
ag86
ag85
ag84
ag85
ag84
asg89
(lp130
g84
ag84
ag86
ag52
ag85
ag52
ag86
ag84
ag84
ag86
ag86
ag52
ag85
ag86
ag85
ag86
ag85
ag84
ag85
ag84
asaa(lp131
I4
ag39
(g40
tp132
Rp133
g43
(lp134
g45
ag45
ag45
ag45
ag46
ag45
ag46
ag46
ag47
ag48
ag47
ag47
ag48
ag45
ag48
ag48
ag47
ag45
ag47
ag46
ag47
ag46
ag47
ag45
ag46
ag46
ag45
ag47
ag46
ag46
ag47
ag47
ag47
ag48
ag48
ag47
ag47
ag48
ag48
ag47
ag48
ag47
ag47
ag45
ag46
ag45
ag47
ag48
ag47
ag47
ag46
ag47
ag45
ag46
ag46
ag45
ag46
ag46
ag46
ag45
ag46
ag47
ag46
ag45
ag46
ag47
ag46
ag45
ag45
ag47
ag47
ag46
ag46
ag45
ag45
ag47
ag47
ag47
ag46
ag46
ag45
ag45
ag46
ag45
ag46
ag45
ag46
ag45
ag45
ag46
ag47
ag47
ag46
asg49
(lp135
I00
aI00
aI00
aI01
aI00
aI01
aI00
aI01
aI01
aI00
aI00
aI01
aI00
aI01
aI00
aI00
aI00
aI00
aI01
aI00
aI01
aI00
aI00
aI01
aI00
aI00
aI00
aI01
aI00
aI01
aI00
aI00
aI01
aI00
aI00
aI00
aI01
aI00
aI00
aI01
aI01
aI00
aI00
aI01
aI00
aI00
aI00
aI01
aI00
aI01
aI00
aI00
aI01
aI00
aI00
aI01
aI00
aI00
aI00
aI01
aI00
aI01
aI01
aI01
aI00
aI01
aI00
aI00
aI00
aI00
aI01
aI00
aI00
aI00
aI00
aI00
aI00
aI01
aI00
aI00
aI00
aI01
aI00
aI01
aI00
aI01
aI01
aI00
aI01
aI00
aI00
aI01
aI01
asg51
I93
sg52
g55
sg56
(lp136
(g58
I0
g24
tp137
ag100
ag100
ag100
ag61
ag111
ag61
a(g58
I0
g60
tp138
ag63
ag67
ag72
ag70
ag67
ag68
ag73
ag71
ag72
ag64
a(g58
I0
g54
tp139
ag113
ag112
ag113
ag112
ag99
ag61
ag138
ag111
ag98
ag113
ag138
ag63
ag70
ag69
ag67
ag71
ag72
ag70
ag67
ag71
ag72
ag67
ag74
a(g62
F1.5707963267948966
g66
tp140
a(g62
F1.5707963267948966
g60
tp141
ag81
a(g62
F1.5707963267948966
g60
tp142
a(g62
F1.5707963267948966
g66
tp143
a(g62
I0
g66
tp144
ag74
ag140
ag75
ag77
a(g58
F1.5707963267948966
g66
tp145
a(g58
F1.5707963267948966
g60
tp146
a(g58
F1.5707963267948966
g60
tp147
a(g58
F1.5707963267948966
g66
tp148
ag146
ag147
ag147
ag148
ag146
a(g58
F1.5707963267948966
g54
tp149
ag79
ag80
ag81
ag77
ag79
ag148
a(g58
F1.5707963267948966
g66
tp150
a(g58
F1.5707963267948966
g54
tp151
ag78
ag79
ag147
ag148
a(g58
F1.5707963267948966
g66
tp152
ag151
ag78
a(g58
F1.5707963267948966
g54
tp153
ag79
ag147
ag148
ag152
ag146
ag148
ag146
ag148
ag146
ag80
a(g62
F1.5707963267948966
g60
tp154
ag81
ag76
ag140
ag75
asg82
(lp155
g52
ag85
ag85
ag85
ag84
ag85
ag52
ag84
ag86
ag52
ag84
ag85
ag84
ag85
ag52
ag52
ag85
ag52
ag84
ag84
ag86
ag52
ag85
ag85
ag84
ag84
ag85
ag86
ag84
ag84
ag52
ag84
ag86
ag52
ag85
ag84
ag84
ag52
ag52
ag86
ag84
ag84
ag85
ag85
ag86
ag85
ag86
ag52
ag84
ag86
ag52
ag84
ag52
ag52
ag86
ag85
ag52
ag84
ag86
ag85
ag86
ag86
ag84
ag85
ag52
ag86
ag86
ag85
ag85
ag86
ag86
ag52
ag84
ag85
ag85
ag85
ag52
ag86
ag84
ag86
ag52
ag85
ag84
ag85
ag84
ag52
ag84
ag52
ag85
ag85
ag84
ag86
ag84
asg87
(lp156
g52
ag52
ag52
ag85
ag86
ag85
ag52
ag84
ag86
ag85
ag84
ag86
ag86
ag85
ag84
ag85
ag85
ag52
ag86
ag85
ag86
ag85
ag85
ag85
ag52
ag86
ag86
ag86
ag52
ag84
ag84
ag52
ag86
ag84
ag85
ag84
ag86
ag84
ag85
ag86
ag52
ag52
ag85
ag85
ag86
ag86
ag84
ag52
ag52
ag86
ag52
ag85
ag85
ag52
ag86
ag85
ag52
ag52
ag86
ag85
ag85
ag86
ag84
ag85
ag52
ag86
ag86
ag52
ag86
ag84
ag86
ag52
ag86
ag84
ag86
ag84
ag52
ag86
ag52
ag86
ag84
ag85
ag86
ag85
ag86
ag85
ag84
ag52
ag85
ag85
ag52
ag86
ag84
asg89
(lp157
g52
ag52
ag52
ag85
ag86
ag85
ag52
ag84
ag86
ag85
ag84
ag86
ag86
ag85
ag84
ag85
ag85
ag52
ag86
ag85
ag86
ag85
ag85
ag85
ag52
ag86
ag86
ag86
ag52
ag84
ag84
ag52
ag86
ag84
ag85
ag84
ag86
ag84
ag85
ag86
ag52
ag52
ag85
ag85
ag86
ag86
ag84
ag52
ag52
ag86
ag52
ag85
ag85
ag52
ag86
ag85
ag52
ag52
ag86
ag85
ag85
ag86
ag84
ag85
ag52
ag86
ag86
ag52
ag86
ag84
ag86
ag52
ag86
ag84
ag86
ag84
ag52
ag86
ag52
ag86
ag84
ag85
ag86
ag85
ag86
ag85
ag84
ag52
ag85
ag85
ag52
ag86
ag84
asaa(lp158
I5
ag39
(g40
tp159
Rp160
g43
(lp161
g45
ag46
ag46
ag47
ag45
ag48
ag47
ag47
ag48
ag47
ag45
ag48
ag48
ag48
ag47
ag46
asg49
(lp162
I01
aI00
aI01
aI00
aI01
aI00
aI00
aI01
aI00
aI00
aI01
aI00
aI00
aI01
aI01
aI01
asg51
I16
sg52
g55
sg56
(lp163
(g58
I0
g24
tp164
ag61
ag138
ag63
ag64
ag73
ag72
ag70
ag67
ag72
ag64
ag73
ag71
ag71
ag74
ag75
asg82
(lp165
g52
ag52
ag84
ag85
ag85
ag52
ag86
ag84
ag52
ag86
ag85
ag52
ag84
ag52
ag86
ag86
asg87
(lp166
g85
ag52
ag84
ag85
ag85
ag85
ag84
ag86
ag85
ag85
ag85
ag84
ag84
ag52
ag86
ag84
asg89
(lp167
g85
ag52
ag84
ag85
ag85
ag85
ag84
ag86
ag85
ag85
ag85
ag84
ag84
ag52
ag86
ag84
asaa(lp168
I6
ag39
(g40
tp169
Rp170
g43
(lp171
g45
ag46
ag47
ag46
ag45
ag46
ag47
ag47
ag45
ag48
ag48
ag48
ag47
ag48
ag47
ag47
ag48
ag47
ag47
ag48
ag45
ag47
ag45
ag46
ag46
ag47
ag48
ag47
ag48
ag47
ag46
asg49
(lp172
I01
aI00
aI01
aI00
aI01
aI01
aI00
aI00
aI01
aI00
aI00
aI00
aI01
aI01
aI00
aI00
aI00
aI00
aI01
aI00
aI00
aI00
aI01
aI00
aI01
aI01
aI00
aI01
aI01
aI01
aI01
asg51
I31
sg52
g55
sg56
(lp173
(g58
I0
g24
tp174
ag61
ag112
ag113
ag111
ag61
ag63
ag69
ag64
ag73
ag71
ag71
ag72
ag67
ag74
ag140
ag144
ag72
ag70
ag67
ag68
ag139
ag99
ag61
ag138
ag63
ag67
ag72
ag67
ag74
ag75
asg82
(lp175
g85
ag84
ag84
ag86
ag85
ag84
ag52
ag85
ag85
ag52
ag52
ag52
ag86
ag52
ag85
ag86
ag52
ag86
ag85
ag85
ag85
ag86
ag85
ag84
ag84
ag86
ag52
ag85
ag52
ag86
ag84
asg87
(lp176
g85
ag85
ag86
ag86
ag85
ag84
ag52
ag85
ag85
ag84
ag84
ag85
ag86
ag52
ag52
ag84
ag85
ag84
ag86
ag86
ag52
ag85
ag85
ag52
ag84
ag86
ag85
ag86
ag52
ag86
ag84
asg89
(lp177
g85
ag85
ag86
ag86
ag85
ag84
ag52
ag85
ag85
ag84
ag84
ag85
ag86
ag52
ag52
ag84
ag85
ag84
ag86
ag86
ag52
ag85
ag85
ag52
ag84
ag86
ag85
ag86
ag52
ag86
ag84
asaa(lp178
I7
ag39
(g40
tp179
Rp180
g43
(lp181
g45
ag47
ag45
ag46
ag47
ag47
ag48
ag47
ag48
ag48
ag47
ag45
ag47
ag47
ag46
asg49
(lp182
I00
aI00
aI01
aI01
aI00
aI01
aI00
aI01
aI00
aI01
aI00
aI00
aI00
aI01
aI01
asg51
I15
sg52
g55
sg56
(lp183
(g58
I0
g24
tp184
ag98
ag99
ag61
ag63
ag69
ag67
ag72
ag67
ag71
ag74
ag141
ag143
ag140
ag75
asg82
(lp185
g85
ag52
ag85
ag84
ag84
ag86
ag86
ag86
ag52
ag52
ag52
ag86
ag86
ag86
ag86
asg87
(lp186
g86
ag85
ag85
ag84
ag52
ag86
ag85
ag86
ag84
ag52
ag85
ag86
ag52
ag86
ag84
asg89
(lp187
g86
ag85
ag85
ag84
ag52
ag86
ag85
ag86
ag84
ag52
ag85
ag86
ag52
ag86
ag84
asaa(lp188
I8
ag39
(g40
tp189
Rp190
g43
(lp191
g45
ag47
ag47
ag47
ag47
ag46
ag46
ag47
ag48
ag47
ag46
ag45
ag47
ag45
ag47
ag47
ag47
ag46
asg49
(lp192
I00
aI00
aI00
aI00
aI01
aI00
aI01
aI01
aI01
aI01
aI00
aI00
aI00
aI00
aI00
aI00
aI01
aI01
asg51
I18
sg52
g55
sg56
(lp193
(g58
I0
g24
tp194
ag98
ag127
ag126
ag127
ag113
ag138
ag63
ag67
ag74
ag75
ag142
ag143
ag141
ag143
ag140
ag140
ag75
asg82
(lp195
g86
ag86
ag84
ag84
ag86
ag84
ag84
ag86
ag52
ag86
ag86
ag86
ag86
ag85
ag84
ag85
ag86
ag84
asg87
(lp196
g86
ag84
ag52
ag84
ag86
ag52
ag84
ag86
ag52
ag86
ag86
ag86
ag85
ag86
ag52
ag52
ag86
ag84
asg89
(lp197
g86
ag84
ag52
ag84
ag86
ag52
ag84
ag86
ag52
ag86
ag86
ag86
ag85
ag86
ag52
ag52
ag86
ag84
asaa(lp198
I9
ag39
(g40
tp199
Rp200
g43
(lp201
g45
ag45
ag46
ag45
ag46
ag47
ag47
ag45
ag48
ag47
ag48
ag47
ag46
asg49
(lp202
I00
aI01
aI00
aI01
aI01
aI00
aI00
aI01
aI01
aI00
aI01
aI01
aI01
asg51
I13
sg52
g55
sg56
(lp203
(g58
I0
g24
tp204
ag100
ag61
ag111
ag61
ag63
ag70
ag64
ag73
ag74
ag144
ag74
ag75
asg82
(lp205
g84
ag85
ag86
ag86
ag84
ag86
ag84
ag85
ag52
ag86
ag52
ag84
ag84
asg87
(lp206
g52
ag85
ag86
ag85
ag84
ag84
ag85
ag85
ag52
ag84
ag52
ag86
ag84
asg89
(lp207
g52
ag85
ag86
ag85
ag84
ag84
ag85
ag85
ag52
ag84
ag52
ag86
ag84
asaatp208
Rp209
aatp210
Rp211
.