ccollections
OrderedDict
p0
((lp1
(lp2
S'index'
p3
aI3810
aa(lp4
S'combination_dict'
p5
ag0
((lp6
(lp7
S'r_to_g_config'
p8
aS'tr'
p9
aa(lp10
S'num_turns'
p11
aI3
aa(lp12
S'start_direction'
p13
acutils_ms
StartDirection
p14
(I1
tp15
Rp16
aa(lp17
S'assistance_type'
p18
acutils_ms
AssistanceType
p19
(I1
tp20
Rp21
aa(lp22
S'start_mode'
p23
aS't'
p24
aa(lp25
S'ui_given_a_noise'
p26
aF0.7
aa(lp27
S'um_given_ui_noise'
p28
aF0.3
aa(lp29
S'entropy_threshold'
p30
aF0.5
aa(lp31
S'is_assistance'
p32
aI01
aatp33
Rp34
aa(lp35
S'trials'
p36
ag0
((lp37
(lp38
I0
accollections
defaultdict
p39
(c__builtin__
list
p40
tp41
Rp42
S'a'
p43
(lp44
S'mode_l'
p45
aS'mode_r'
p46
ag45
ag45
aS'move_p'
p47
ag45
ag45
ag45
ag46
ag46
ag47
ag46
ag45
ag45
ag46
ag45
ag45
ag47
ag46
ag47
ag46
ag47
asS'assistance_match_with_ground_truth'
p48
(lp49
I00
aI00
aI00
aI01
aI01
aI00
aI00
aI00
aI00
aI01
aI01
aI00
aI00
aI00
aI00
aI00
aI01
aI01
aI01
aI01
aI01
aI01
asS'total_steps'
p50
I22
sS'sp'
p51
(S'p4'
p52
F1.5707963267948966
S'x'
p53
tp54
sS's'
p55
(lp56
(S'p0'
p57
I0
g24
tp58
a(g57
I0
g53
tp59
a(g57
I0
S't'
p60
tp61
a(g57
I0
g60
tp62
a(g57
I0
S'y'
p63
tp64
a(S'p1'
p65
I0
g63
tp66
a(g65
I0
g63
tp67
a(g65
I0
g63
tp68
a(g65
I0
g60
tp69
a(g65
I0
g60
tp70
a(g65
I0
g53
tp71
a(S'p2'
p72
I0
g53
tp73
a(g72
I0
g60
tp74
a(g72
I0
g60
tp75
a(g72
I0
g53
tp76
ag74
a(g72
I0
g60
tp77
a(g72
I0
g63
tp78
a(S'p3'
p79
I0
g63
tp80
a(g79
I0
g60
tp81
a(g79
F1.5707963267948966
g60
tp82
a(g79
F1.5707963267948966
g53
tp83
asS'ui'
p84
(lp85
S'hs'
p86
ag86
aS'ss'
p87
ag87
ag51
ag87
ag51
aS'hp'
p88
ag51
ag88
ag51
ag87
ag51
ag88
ag86
ag51
ag86
ag51
ag88
ag51
ag88
ag51
asS'um_before'
p89
(lp90
g88
ag86
ag87
ag86
ag51
ag87
ag51
ag88
ag51
ag88
ag86
ag86
ag51
ag88
ag86
ag87
ag86
ag86
ag88
ag51
ag88
ag51
asS'um_after'
p91
(lp92
g88
ag86
ag87
ag86
ag51
ag87
ag51
ag88
ag51
ag88
ag51
ag86
ag51
ag88
ag86
ag87
ag86
ag51
ag88
ag51
ag88
ag51
asaa(lp93
I1
ag39
(g40
tp94
Rp95
g43
(lp96
g45
ag47
ag45
ag46
ag46
ag47
ag46
ag47
ag46
ag47
ag46
ag47
asg48
(lp97
I01
aI01
aI00
aI00
aI01
aI01
aI01
aI01
aI01
aI01
aI01
aI01
asg50
I12
sg51
g54
sg55
(lp98
(g57
I0
g24
tp99
ag64
ag66
ag69
ag70
ag71
ag73
a(g72
I0
g63
tp100
ag80
ag81
ag82
ag83
asg84
(lp101
g86
ag51
ag88
ag51
ag88
ag86
ag88
ag51
ag88
ag51
ag88
ag51
asg89
(lp102
g86
ag51
ag88
ag51
ag88
ag86
ag88
ag51
ag88
ag86
ag88
ag51
asg91
(lp103
g86
ag51
ag88
ag51
ag88
ag51
ag88
ag51
ag88
ag51
ag88
ag51
asaa(lp104
I2
ag39
(g40
tp105
Rp106
g43
(lp107
g45
ag45
ag47
ag45
ag47
ag46
ag45
ag47
ag46
ag45
ag47
ag46
ag45
ag45
ag47
asg48
(lp108
I00
aI01
aI01
aI01
aI01
aI00
aI01
aI01
aI00
aI01
aI01
aI00
aI00
aI01
aI01
asg50
I15
sg51
g54
sg55
(lp109
(g57
I0
g24
tp110
a(g57
I0
g60
tp111
ag64
ag66
a(g65
I0
g53
tp112
ag73
ag74
ag78
ag80
a(g79
I0
g53
tp113
a(g79
I0
g60
tp114
ag82
a(g79
F1.5707963267948966
g63
tp115
a(g79
F1.5707963267948966
g63
tp116
a(g79
F1.5707963267948966
g53
tp117
asg84
(lp118
g51
ag86
ag51
ag86
ag51
ag86
ag86
ag51
ag86
ag86
ag51
ag51
ag87
ag86
ag51
asg89
(lp119
g51
ag86
ag87
ag86
ag51
ag86
ag86
ag51
ag86
ag86
ag51
ag86
ag87
ag86
ag51
asg91
(lp120
g51
ag86
ag51
ag86
ag51
ag86
ag86
ag51
ag86
ag86
ag51
ag86
ag87
ag86
ag51
asaa(lp121
I3
ag39
(g40
tp122
Rp123
g43
(lp124
g45
ag47
ag45
ag45
ag45
ag47
ag45
ag47
ag46
ag45
ag47
ag46
ag47
ag46
ag47
asg48
(lp125
I01
aI00
aI00
aI00
aI01
aI01
aI01
aI01
aI00
aI01
aI01
aI01
aI01
aI01
aI01
asg50
I15
sg51
g54
sg55
(lp126
(g57
I0
g24
tp127
ag64
a(g57
I0
g60
tp128
ag62
ag62
ag64
ag66
ag112
ag73
ag74
ag78
ag80
ag81
ag82
ag83
asg84
(lp129
g86
ag88
ag87
ag87
ag86
ag51
ag86
ag51
ag86
ag86
ag51
ag86
ag51
ag88
ag51
asg89
(lp130
g86
ag88
ag87
ag87
ag86
ag87
ag86
ag86
ag86
ag86
ag51
ag88
ag87
ag88
ag51
asg91
(lp131
g86
ag88
ag87
ag87
ag86
ag51
ag86
ag51
ag86
ag86
ag51
ag88
ag51
ag88
ag51
asaa(lp132
I4
ag39
(g40
tp133
Rp134
g43
(lp135
g45
ag45
ag47
ag45
ag47
ag46
ag47
ag46
ag46
ag47
ag45
asg48
(lp136
I00
aI01
aI01
aI01
aI01
aI01
aI01
aI00
aI01
aI00
aI00
asg50
I11
sg51
(g52
I0
g53
tp137
sg55
(lp138
(g57
I0
g24
tp139
ag111
ag64
ag66
ag112
ag73
ag100
ag80
a(g79
I0
g63
tp140
ag81
a(g79
I0
g53
tp141
asg84
(lp142
g51
ag51
ag51
ag86
ag86
ag88
ag51
ag88
ag88
ag86
ag87
asg89
(lp143
g51
ag86
ag51
ag86
ag86
ag88
ag51
ag51
ag88
ag88
ag51
asg91
(lp144
g51
ag86
ag51
ag86
ag51
ag88
ag51
ag51
ag88
ag88
ag51
asaa(lp145
I5
ag39
(g40
tp146
Rp147
g43
(lp148
g45
ag47
ag45
ag45
ag47
ag46
ag45
ag45
ag47
ag46
ag47
ag46
ag45
ag47
asg48
(lp149
I01
aI01
aI00
aI01
aI01
aI00
aI00
aI01
aI01
aI01
aI01
aI00
aI01
aI01
asg50
I14
sg51
g54
sg55
(lp150
(g57
I0
g24
tp151
ag64
ag66
ag68
ag112
ag73
ag74
ag75
ag78
ag80
ag81
ag82
ag115
ag117
asg84
(lp152
g86
ag51
ag51
ag87
ag51
ag86
ag51
ag86
ag51
ag88
ag51
ag86
ag86
ag51
asg89
(lp153
g86
ag51
ag51
ag86
ag51
ag86
ag51
ag86
ag86
ag88
ag51
ag86
ag86
ag51
asg91
(lp154
g86
ag51
ag51
ag86
ag51
ag86
ag51
ag86
ag51
ag88
ag51
ag86
ag86
ag51
asaa(lp155
I6
ag39
(g40
tp156
Rp157
g43
(lp158
g45
ag47
ag45
ag45
ag46
ag47
ag46
ag45
ag45
ag45
ag45
ag47
ag46
ag47
ag46
ag46
ag47
ag46
ag45
ag45
ag47
asg48
(lp159
I01
aI01
aI00
aI00
aI01
aI01
aI00
aI00
aI00
aI00
aI01
aI01
aI01
aI01
aI00
aI00
aI01
aI00
aI00
aI01
aI01
asg50
I21
sg51
g54
sg55
(lp160
(g57
I0
g24
tp161
ag64
ag66
ag68
ag69
ag71
ag73
ag74
ag75
ag75
ag77
ag78
ag80
ag81
ag82
a(g79
F1.5707963267948966
g60
tp162
a(g79
I0
g60
tp163
ag82
ag115
ag116
ag117
asg84
(lp164
g86
ag51
ag87
ag88
ag88
ag51
ag86
ag51
ag88
ag87
ag86
ag51
ag88
ag51
ag87
ag87
ag51
ag86
ag87
ag86
ag51
asg89
(lp165
g86
ag51
ag51
ag88
ag88
ag51
ag86
ag51
ag51
ag87
ag86
ag51
ag88
ag51
ag51
ag87
ag51
ag86
ag87
ag86
ag87
asg91
(lp166
g86
ag51
ag51
ag88
ag88
ag51
ag86
ag51
ag51
ag87
ag86
ag51
ag88
ag51
ag51
ag87
ag51
ag86
ag87
ag86
ag51
asaa(lp167
I7
ag39
(g40
tp168
Rp169
g43
(lp170
g45
ag45
ag45
ag45
ag47
ag45
ag47
ag45
ag45
ag47
ag46
ag47
ag46
ag46
ag45
ag47
ag46
ag47
asg48
(lp171
I00
aI00
aI00
aI01
aI01
aI01
aI00
aI00
aI01
aI01
aI01
aI01
aI00
aI00
aI01
aI01
aI01
aI01
asg50
I18
sg51
g54
sg55
(lp172
(g57
I0
g24
tp173
ag111
ag111
ag62
ag64
ag66
ag112
a(g65
I0
g63
tp174
ag67
ag112
ag73
ag100
ag80
a(g79
I0
g63
tp175
ag113
ag114
ag82
ag83
asg84
(lp176
g51
ag88
ag87
ag86
ag51
ag86
ag51
ag87
ag86
ag51
ag87
ag51
ag87
ag86
ag86
ag87
ag88
ag51
asg89
(lp177
g51
ag51
ag87
ag86
ag51
ag86
ag88
ag87
ag86
ag51
ag88
ag51
ag87
ag86
ag86
ag87
ag88
ag87
asg91
(lp178
g51
ag51
ag87
ag86
ag51
ag86
ag88
ag87
ag86
ag51
ag88
ag51
ag87
ag86
ag86
ag51
ag88
ag51
asaa(lp179
I8
ag39
(g40
tp180
Rp181
g43
(lp182
g45
ag45
ag45
ag47
ag45
ag47
ag45
ag45
ag47
ag46
ag46
ag46
ag47
ag46
ag45
asg48
(lp183
I00
aI00
aI01
aI00
aI01
aI01
aI00
aI01
aI01
aI00
aI00
aI01
aI01
aI00
aI00
asg50
I15
sg51
g137
sg55
(lp184
(g57
I0
g24
tp185
ag62
ag62
ag64
ag128
ag64
ag66
ag68
ag112
ag73
a(g72
I0
g53
tp186
ag186
ag100
ag80
ag113
asg84
(lp187
g87
ag87
ag86
ag88
ag86
ag51
ag51
ag87
ag51
ag88
ag87
ag88
ag51
ag87
ag87
asg89
(lp188
g87
ag87
ag86
ag88
ag86
ag51
ag51
ag86
ag51
ag87
ag87
ag88
ag51
ag86
ag51
asg91
(lp189
g87
ag87
ag86
ag88
ag86
ag51
ag51
ag86
ag51
ag87
ag87
ag88
ag51
ag86
ag51
asaa(lp190
I9
ag39
(g40
tp191
Rp192
g43
(lp193
g45
ag45
ag47
ag45
ag47
ag46
ag47
ag46
ag46
ag46
ag47
ag46
ag47
ag46
ag47
ag45
ag47
ag46
ag45
ag46
ag46
ag45
ag45
ag47
asg48
(lp194
I00
aI01
aI01
aI01
aI01
aI01
aI01
aI00
aI00
aI01
aI01
aI00
aI01
aI00
aI00
aI01
aI01
aI00
aI00
aI00
aI00
aI00
aI01
aI01
asg50
I24
sg51
g54
sg55
(lp195
(g57
I0
g24
tp196
ag62
ag64
ag66
ag112
ag73
ag100
ag80
ag140
ag175
ag81
ag82
ag163
ag82
ag163
ag141
ag114
ag82
ag115
a(g79
F1.5707963267948966
g60
tp197
ag162
ag115
a(g79
F1.5707963267948966
g63
tp198
ag117
asg84
(lp199
g51
ag86
ag51
ag86
ag51
ag88
ag51
ag88
ag87
ag88
ag51
ag87
ag51
ag87
ag51
ag86
ag86
ag86
ag88
ag51
ag86
ag51
ag86
ag51
asg89
(lp200
g87
ag86
ag87
ag86
ag51
ag88
ag51
ag51
ag87
ag88
ag51
ag87
ag51
ag87
ag88
ag86
ag86
ag86
ag88
ag51
ag86
ag51
ag86
ag51
asg91
(lp201
g87
ag86
ag51
ag86
ag51
ag88
ag51
ag51
ag87
ag88
ag51
ag87
ag51
ag87
ag88
ag86
ag51
ag86
ag88
ag51
ag86
ag51
ag86
ag51
asaatp202
Rp203
aatp204
Rp205
.