ccollections
OrderedDict
p0
((lp1
(lp2
S'combination_dict'
p3
ag0
((lp4
(lp5
S'r_to_g_config'
p6
aS'tr'
p7
aa(lp8
S'num_turns'
p9
aI3
aa(lp10
S'start_direction'
p11
acutils_ms
StartDirection
p12
(I0
tp13
Rp14
aa(lp15
S'assistance_type'
p16
acutils_ms
AssistanceType
p17
(I2
tp18
Rp19
aa(lp20
S'start_mode'
p21
aS't'
p22
aa(lp23
S'ui_given_a_noise'
p24
aF0.7
aa(lp25
S'um_given_ui_noise'
p26
aF0.5
aa(lp27
S'entropy_threshold'
p28
aF0.8
aatp29
Rp30
aa(lp31
S'data'
p32
accollections
defaultdict
p33
(c__builtin__
list
p34
tp35
Rp36
S'a'
p37
(lp38
S'mode_r'
p39
aS'move_p'
p40
ag40
aS'mode_l'
p41
ag40
ag41
ag41
ag41
ag40
ag39
ag41
ag40
ag41
ag39
ag41
ag40
ag39
ag39
ag40
ag39
ag39
ag41
ag39
ag39
ag40
ag39
ag39
ag40
ag39
ag39
ag40
ag40
ag39
ag39
ag40
ag39
ag40
ag41
ag40
ag41
ag40
ag39
ag39
ag41
ag41
ag41
ag41
ag41
ag41
ag41
ag40
ag41
ag41
ag41
ag41
ag40
ag39
ag39
ag40
ag39
ag40
ag41
ag41
ag41
ag41
ag41
ag41
ag41
ag40
ag41
ag41
ag40
ag39
ag40
ag39
ag41
ag41
ag41
ag41
ag41
ag41
ag40
ag39
ag39
ag41
ag40
ag39
ag39
ag41
ag40
ag39
ag39
ag40
ag41
ag39
ag40
ag40
ag39
ag40
ag39
ag40
ag39
ag40
ag39
ag40
asS'assistance_match_with_ground_truth'
p42
(lp43
I01
aI00
aI00
aI01
aI00
aI00
aI00
aI01
aI01
aI00
aI01
aI00
aI00
aI00
aI01
aI00
aI00
aI01
aI01
aI00
aI00
aI00
aI00
aI01
aI00
aI00
aI01
aI00
aI00
aI01
aI00
aI01
aI00
aI01
aI01
aI01
aI00
aI01
aI00
aI01
aI01
aI00
aI00
aI00
aI00
aI00
aI00
aI00
aI00
aI01
aI00
aI00
aI00
aI00
aI01
aI01
aI00
aI01
aI00
aI01
aI00
aI00
aI00
aI00
aI00
aI00
aI00
aI01
aI00
aI00
aI01
aI00
aI00
aI01
aI00
aI00
aI00
aI00
aI00
aI00
aI01
aI00
aI00
aI00
aI01
aI00
aI00
aI00
aI01
aI00
aI00
aI01
aI01
aI00
aI00
aI00
aI01
aI00
aI01
aI01
aI01
aI01
aI00
aI01
aI01
asS'total_steps'
p44
I105
sS'sp'
p45
(lp46
(S'p0'
p47
I0
S'x'
p48
tp49
a(g47
I0
g48
tp50
a(g47
I0
S'y'
p51
tp52
a(g47
I0
g48
tp53
ag52
a(g47
I0
g51
tp54
a(g47
I0
g51
tp55
ag53
a(S'p1'
p56
I0
g48
tp57
a(g56
I0
S't'
p58
tp59
a(g56
I0
g51
tp60
a(g56
I0
g58
tp61
a(g56
I0
g48
tp62
ag59
ag60
a(g56
I0
g48
tp63
a(g56
I0
g48
tp64
a(g56
I0
g51
tp65
a(S'p2'
p66
I0
g51
tp67
a(g66
I0
g51
tp68
a(g66
I0
g48
tp69
a(S'p3'
p70
I0
g48
tp71
a(g70
I0
g48
tp72
a(g70
I0
g51
tp73
a(g66
I0
g51
tp74
a(g66
I0
g51
tp75
a(g66
I0
g58
tp76
a(g66
I0
g51
tp77
ag68
ag76
a(g66
I0
g58
tp78
a(g66
F1.5707963267948966
g58
tp79
a(g66
F1.5707963267948966
g58
tp80
a(g66
F1.5707963267948966
g48
tp81
a(g70
F1.5707963267948966
g48
tp82
a(g70
F1.5707963267948966
g51
tp83
a(g66
F1.5707963267948966
g51
tp84
a(g66
F1.5707963267948966
g48
tp85
a(g66
F1.5707963267948966
g51
tp86
ag85
ag82
a(g70
F1.5707963267948966
g48
tp87
a(g70
F1.5707963267948966
g58
tp88
a(g70
F1.5707963267948966
g58
tp89
ag89
a(g70
F1.5707963267948966
g58
tp90
ag89
ag89
ag89
a(g70
F1.5707963267948966
g51
tp91
ag84
a(g66
F1.5707963267948966
g51
tp92
a(g66
F1.5707963267948966
g51
tp93
ag92
ag85
ag82
ag87
ag83
a(g70
F1.5707963267948966
g48
tp94
ag83
ag84
ag92
ag92
ag93
ag93
ag92
ag93
ag85
ag86
ag92
ag85
a(g66
F1.5707963267948966
g58
tp95
a(g66
I0
g58
tp96
ag79
a(g66
F1.5707963267948966
g51
tp97
ag93
ag93
ag93
ag93
ag92
ag85
a(g56
F1.5707963267948966
g48
tp98
a(g56
F1.5707963267948966
g48
tp99
a(g56
F1.5707963267948966
g58
tp100
a(g56
F1.5707963267948966
g51
tp101
a(g56
F1.5707963267948966
g48
tp102
ag99
ag100
ag101
ag102
a(g56
F1.5707963267948966
g48
tp103
a(g56
F1.5707963267948966
g51
tp104
a(g66
F1.5707963267948966
g51
tp105
a(g66
F1.5707963267948966
g58
tp106
ag96
ag78
ag79
ag96
ag79
ag81
ag82
ag83
ag94
ag83
a(S'p4'
p107
F1.5707963267948966
g51
tp108
asS's'
p109
(lp110
(g47
I0
g22
tp111
ag49
ag50
ag52
ag53
ag52
ag54
ag55
ag53
ag57
ag59
ag60
ag61
ag62
ag59
ag60
ag63
ag64
ag65
ag67
ag68
ag69
ag71
ag72
ag73
ag74
ag75
ag76
ag77
ag68
ag76
ag78
ag79
ag80
ag81
ag82
ag83
ag84
ag85
ag86
ag85
ag82
ag87
ag88
ag89
ag89
ag90
ag89
ag89
ag89
ag91
ag84
ag92
ag93
ag92
ag85
ag82
ag87
ag83
ag94
ag83
ag84
ag92
ag92
ag93
ag93
ag92
ag93
ag85
ag86
ag92
ag85
ag95
ag96
ag79
ag97
ag93
ag93
ag93
ag93
ag92
ag85
ag98
ag99
ag100
ag101
ag102
ag99
ag100
ag101
ag102
ag103
ag104
ag105
ag106
ag96
ag78
ag79
ag96
ag79
ag81
ag82
ag83
ag94
ag83
asS'ui'
p112
(lp113
S'hp'
p114
ag45
ag114
aS'hs'
p115
ag45
ag115
ag45
ag115
ag45
ag114
aS'ss'
p116
ag114
ag114
ag115
ag116
ag116
ag114
ag114
ag45
ag114
ag114
ag115
ag114
ag114
ag115
ag116
ag115
ag116
ag116
ag114
ag116
ag45
ag45
ag114
ag45
ag114
ag115
ag115
ag115
ag115
ag116
ag115
ag116
ag45
ag45
ag115
ag116
ag116
ag115
ag115
ag116
ag116
ag115
ag45
ag115
ag45
ag116
ag114
ag45
ag114
ag116
ag45
ag45
ag115
ag115
ag45
ag115
ag116
ag114
ag115
ag45
ag115
ag115
ag45
ag45
ag115
ag116
ag115
ag116
ag115
ag114
ag116
ag45
ag116
ag116
ag45
ag45
ag115
ag115
ag45
ag114
ag45
ag45
ag116
ag114
ag116
ag45
ag114
ag45
ag114
ag116
ag45
ag115
ag114
ag45
asS'um_before'
p117
(lp118
g114
ag116
ag114
ag115
ag114
ag116
ag45
ag115
ag45
ag115
ag115
ag114
ag114
ag115
ag115
ag115
ag116
ag114
ag45
ag45
ag115
ag45
ag45
ag114
ag116
ag116
ag114
ag115
ag45
ag114
ag116
ag45
ag45
ag114
ag45
ag114
ag116
ag115
ag114
ag115
ag45
ag45
ag115
ag45
ag45
ag116
ag45
ag45
ag45
ag115
ag116
ag45
ag116
ag45
ag115
ag45
ag45
ag114
ag115
ag114
ag116
ag45
ag45
ag116
ag116
ag45
ag116
ag115
ag114
ag45
ag115
ag115
ag116
ag45
ag115
ag116
ag116
ag116
ag116
ag45
ag115
ag116
ag45
ag115
ag115
ag115
ag45
ag115
ag115
ag115
ag116
ag114
ag45
ag114
ag116
ag116
ag45
ag116
ag45
ag114
ag45
ag114
ag115
ag114
ag45
asS'um_after'
p119
(lp120
g114
ag116
ag114
ag115
ag114
ag116
ag45
ag115
ag45
ag115
ag115
ag114
ag114
ag115
ag115
ag115
ag116
ag114
ag45
ag45
ag115
ag45
ag45
ag114
ag116
ag116
ag114
ag115
ag45
ag114
ag116
ag45
ag45
ag114
ag45
ag114
ag116
ag115
ag114
ag115
ag45
ag45
ag115
ag45
ag45
ag116
ag45
ag45
ag45
ag115
ag116
ag45
ag116
ag45
ag115
ag45
ag45
ag114
ag115
ag114
ag116
ag45
ag45
ag116
ag116
ag45
ag116
ag115
ag114
ag45
ag115
ag115
ag116
ag45
ag115
ag116
ag116
ag116
ag116
ag45
ag115
ag116
ag45
ag115
ag115
ag115
ag45
ag115
ag115
ag115
ag116
ag114
ag45
ag114
ag116
ag116
ag45
ag116
ag45
ag114
ag45
ag114
ag115
ag114
ag45
asaa(lp121
S'index'
p122
aI23133
aatp123
Rp124
.