ccollections
OrderedDict
p0
((lp1
(lp2
S'index'
p3
aI11725
aa(lp4
S'combination_dict'
p5
ag0
((lp6
(lp7
S'r_to_g_config'
p8
aS'br'
p9
aa(lp10
S'num_turns'
p11
aI1
aa(lp12
S'start_direction'
p13
acutils_ms
StartDirection
p14
(I3
tp15
Rp16
aa(lp17
S'assistance_type'
p18
acutils_ms
AssistanceType
p19
(I0
tp20
Rp21
aa(lp22
S'start_mode'
p23
aS'y'
p24
aa(lp25
S'ui_given_a_noise'
p26
aF0.3
aa(lp27
S'um_given_ui_noise'
p28
aF0.1
aa(lp29
S'entropy_threshold'
p30
aF0.7
aa(lp31
S'is_assistance'
p32
aI00
aatp33
Rp34
aa(lp35
S'trials'
p36
ag0
((lp37
(lp38
I0
accollections
defaultdict
p39
(c__builtin__
list
p40
tp41
Rp42
S'a'
p43
(lp44
S'mode_l'
p45
aS'move_p'
p46
ag46
ag45
ag46
aS'mode_r'
p47
asS'assistance_match_with_ground_truth'
p48
(lp49
I01
aI00
aI01
aI01
aI00
aI00
asS'total_steps'
p50
I6
sS'sp'
p51
(S'p2'
p52
I0
S'y'
p53
tp54
sS's'
p55
(lp56
(S'p0'
p57
I0
g24
tp58
a(g57
I0
S'x'
p59
tp60
a(g57
I0
g59
tp61
a(S'p1'
p62
I0
g59
tp63
a(g62
I0
S't'
p64
tp65
a(g62
I0
g53
tp66
asS'ui'
p67
(lp68
S'hs'
p69
aS'ss'
p70
ag51
ag69
ag69
ag70
asS'um_before'
p71
(lp72
g69
ag70
ag51
ag69
ag69
ag70
asS'um_after'
p73
(lp74
g69
ag70
ag51
ag69
ag69
ag70
asaa(lp75
I1
ag39
(g40
tp76
Rp77
g43
(lp78
g45
ag47
ag46
ag45
ag45
ag46
ag47
ag46
ag46
ag45
aS'move_n'
p79
asg48
(lp80
I00
aI01
aI01
aI00
aI01
aI00
aI01
aI00
aI01
aI01
aI01
asg50
I11
sg51
(g52
F1.5707963267948966
g53
tp81
sg55
(lp82
(g57
I0
g24
tp83
a(g57
I0
g64
tp84
a(g57
I0
g59
tp85
ag63
a(g62
I0
g59
tp86
ag65
ag66
a(g62
I0
g64
tp87
a(g62
I0
g64
tp88
a(g62
F1.5707963267948966
g64
tp89
a(g62
F1.5707963267948966
g53
tp90
asg67
(lp91
S'hp'
p92
ag92
ag51
ag51
ag69
ag51
ag92
ag70
ag51
ag69
ag70
asg71
(lp93
g92
ag92
ag51
ag51
ag69
ag69
ag92
ag70
ag51
ag69
ag70
asg73
(lp94
g92
ag92
ag51
ag51
ag69
ag69
ag92
ag70
ag51
ag69
ag70
asaa(lp95
I2
ag39
(g40
tp96
Rp97
g43
(lp98
g45
ag46
ag45
ag46
ag45
ag46
ag45
ag46
ag45
ag46
ag46
ag45
ag46
ag47
ag46
ag47
ag45
ag46
ag45
ag46
ag45
ag79
ag47
ag79
ag45
ag46
ag47
ag79
asg48
(lp99
I01
aI00
aI01
aI00
aI01
aI01
aI01
aI00
aI01
aI00
aI00
aI01
aI00
aI01
aI00
aI00
aI01
aI01
aI01
aI01
aI01
aI00
aI01
aI00
aI01
aI01
aI01
aI01
asg50
I28
sg51
g81
sg55
(lp100
(g57
I0
g24
tp101
ag60
a(g57
I0
g53
tp102
ag60
ag102
ag60
ag63
ag65
a(g62
I0
g59
tp103
ag65
ag88
ag103
ag65
ag66
ag87
ag66
a(g57
I0
g53
tp104
ag60
ag63
ag65
ag89
ag90
a(g62
F1.5707963267948966
g59
tp105
a(g62
F1.5707963267948966
g53
tp106
a(g57
F1.5707963267948966
g53
tp107
a(g57
F1.5707963267948966
g59
tp108
a(g62
F1.5707963267948966
g59
tp109
ag106
asg67
(lp110
g69
ag92
ag69
ag51
ag69
ag51
ag69
ag92
ag69
ag51
ag92
ag69
ag69
ag92
ag69
ag70
ag69
ag51
ag69
ag51
ag69
ag70
ag92
ag51
ag69
ag51
ag92
ag70
asg71
(lp111
g69
ag92
ag69
ag92
ag69
ag51
ag69
ag92
ag69
ag70
ag92
ag69
ag69
ag92
ag69
ag51
ag69
ag51
ag69
ag51
ag69
ag69
ag92
ag51
ag69
ag51
ag92
ag70
asg73
(lp112
g69
ag92
ag69
ag92
ag69
ag51
ag69
ag92
ag69
ag70
ag92
ag69
ag69
ag92
ag69
ag51
ag69
ag51
ag69
ag51
ag69
ag69
ag92
ag51
ag69
ag51
ag92
ag70
asaa(lp113
I3
ag39
(g40
tp114
Rp115
g43
(lp116
g45
ag46
ag45
ag46
ag45
ag79
asg48
(lp117
I01
aI01
aI01
aI01
aI01
aI01
asg50
I6
sg51
g81
sg55
(lp118
(g57
I0
g24
tp119
ag60
ag63
ag65
ag89
ag90
asg67
(lp120
g69
ag51
ag69
ag51
ag69
ag70
asg71
(lp121
g69
ag51
ag69
ag51
ag69
ag70
asg73
(lp122
g69
ag51
ag69
ag51
ag69
ag70
asaa(lp123
I4
ag39
(g40
tp124
Rp125
g43
(lp126
g45
ag46
ag45
ag46
ag45
ag46
ag45
ag45
ag45
ag79
ag45
ag45
ag45
ag46
ag46
ag47
ag45
ag47
ag79
asg48
(lp127
I01
aI01
aI01
aI01
aI00
aI01
aI00
aI00
aI01
aI00
aI00
aI00
aI01
aI00
aI01
aI00
aI00
aI01
aI01
asg50
I19
sg51
g81
sg55
(lp128
(g57
I0
g24
tp129
ag60
ag63
ag65
ag89
a(g62
I0
g64
tp130
ag89
a(g62
F1.5707963267948966
g64
tp131
ag131
ag90
ag107
a(g57
F1.5707963267948966
g53
tp132
a(g57
F1.5707963267948966
g53
tp133
ag108
a(g57
F1.5707963267948966
g59
tp134
ag109
a(g62
F1.5707963267948966
g64
tp135
a(g62
F1.5707963267948966
g59
tp136
ag106
asg67
(lp137
g69
ag51
ag69
ag51
ag69
ag51
ag51
ag51
ag69
ag70
ag51
ag69
ag69
ag70
ag51
ag69
ag92
ag92
ag70
asg71
(lp138
g69
ag51
ag69
ag51
ag70
ag51
ag51
ag51
ag69
ag51
ag51
ag70
ag69
ag70
ag51
ag69
ag92
ag92
ag70
asg73
(lp139
g69
ag51
ag69
ag51
ag70
ag51
ag51
ag51
ag69
ag51
ag51
ag70
ag69
ag70
ag51
ag69
ag92
ag92
ag70
asaa(lp140
I5
ag39
(g40
tp141
Rp142
g43
(lp143
g45
ag45
ag47
ag46
ag45
ag45
ag46
ag45
ag46
ag45
ag47
ag47
ag47
ag47
ag79
ag47
ag47
ag79
asg48
(lp144
I00
aI00
aI01
aI00
aI00
aI01
aI01
aI01
aI01
aI00
aI00
aI00
aI00
aI01
aI00
aI00
aI01
aI01
asg50
I18
sg51
g81
sg55
(lp145
(g57
I0
g24
tp146
a(g57
I0
g53
tp147
ag84
ag85
ag102
ag147
ag60
ag63
ag65
ag89
ag136
a(g62
F1.5707963267948966
g59
tp148
a(g62
F1.5707963267948966
g59
tp149
ag149
ag106
ag105
ag149
ag106
asg67
(lp150
g69
ag69
ag92
ag92
ag69
ag69
ag51
ag69
ag51
ag92
ag92
ag70
ag70
ag92
ag69
ag70
ag92
ag70
asg71
(lp151
g70
ag92
ag92
ag92
ag70
ag69
ag51
ag69
ag51
ag92
ag51
ag70
ag70
ag92
ag69
ag70
ag92
ag70
asg73
(lp152
g70
ag92
ag92
ag92
ag70
ag69
ag51
ag69
ag51
ag92
ag51
ag70
ag70
ag92
ag69
ag70
ag92
ag70
asaa(lp153
I6
ag39
(g40
tp154
Rp155
g43
(lp156
g45
ag46
ag45
ag46
ag45
ag45
ag46
ag45
ag46
ag45
ag79
ag45
ag45
ag46
ag47
ag47
ag79
asg48
(lp157
I01
aI00
aI01
aI01
aI00
aI01
aI01
aI00
aI01
aI01
aI00
aI00
aI01
aI01
aI00
aI01
aI01
asg50
I17
sg51
g81
sg55
(lp158
(g57
I0
g24
tp159
ag60
ag102
ag60
ag63
a(g62
I0
g59
tp160
ag65
ag89
ag130
ag89
ag90
ag107
ag133
ag108
ag109
ag149
ag106
asg67
(lp161
g69
ag51
ag69
ag51
ag69
ag51
ag51
ag69
ag51
ag69
ag51
ag70
ag69
ag51
ag70
ag92
ag70
asg71
(lp162
g69
ag92
ag69
ag51
ag70
ag69
ag51
ag70
ag51
ag69
ag51
ag70
ag69
ag51
ag70
ag92
ag70
asg73
(lp163
g69
ag92
ag69
ag51
ag70
ag69
ag51
ag70
ag51
ag69
ag51
ag70
ag69
ag51
ag70
ag92
ag70
asaa(lp164
I7
ag39
(g40
tp165
Rp166
g43
(lp167
g45
ag46
ag45
ag46
ag45
ag45
ag46
ag45
ag46
ag45
ag79
asg48
(lp168
I01
aI01
aI01
aI00
aI00
aI01
aI01
aI00
aI01
aI01
aI01
asg50
I11
sg51
g81
sg55
(lp169
(g57
I0
g24
tp170
ag60
ag63
ag65
ag103
ag160
ag65
ag89
ag130
ag89
ag90
asg67
(lp171
g69
ag51
ag69
ag92
ag70
ag69
ag51
ag70
ag51
ag69
ag70
asg71
(lp172
g69
ag51
ag69
ag92
ag70
ag69
ag51
ag70
ag51
ag69
ag70
asg73
(lp173
g69
ag51
ag69
ag92
ag70
ag69
ag51
ag70
ag51
ag69
ag70
asaa(lp174
I8
ag39
(g40
tp175
Rp176
g43
(lp177
g45
ag45
ag45
ag46
ag46
ag45
ag46
ag46
ag45
ag79
asg48
(lp178
I00
aI00
aI01
aI00
aI01
aI01
aI00
aI01
aI01
aI01
asg50
I10
sg51
g81
sg55
(lp179
(g57
I0
g24
tp180
ag147
ag147
ag60
ag61
ag63
ag65
ag88
ag89
ag90
asg67
(lp181
g70
ag70
ag69
ag70
ag51
ag69
ag70
ag51
ag69
ag70
asg71
(lp182
g70
ag70
ag69
ag70
ag51
ag69
ag70
ag51
ag69
ag70
asg73
(lp183
g70
ag70
ag69
ag70
ag51
ag69
ag70
ag51
ag69
ag70
asaa(lp184
I9
ag39
(g40
tp185
Rp186
g43
(lp187
g45
ag46
ag45
ag46
ag45
ag47
ag46
ag45
ag46
ag45
ag46
ag45
ag46
ag45
ag79
asg48
(lp188
I01
aI00
aI01
aI01
aI00
aI01
aI00
aI01
aI01
aI00
aI00
aI01
aI01
aI01
aI01
asg50
I15
sg51
g81
sg55
(lp189
(g57
I0
g24
tp190
ag60
ag102
ag60
ag63
a(g62
I0
g53
tp191
ag87
ag103
ag65
ag89
ag130
ag103
ag65
ag89
ag90
asg67
(lp192
g69
ag92
ag69
ag51
ag92
ag92
ag51
ag69
ag51
ag70
ag70
ag69
ag51
ag69
ag70
asg71
(lp193
g69
ag92
ag69
ag51
ag92
ag92
ag92
ag69
ag51
ag70
ag92
ag69
ag51
ag69
ag70
asg73
(lp194
g69
ag92
ag69
ag51
ag92
ag92
ag92
ag69
ag51
ag70
ag92
ag69
ag51
ag69
ag70
asaatp195
Rp196
aatp197
Rp198
.