ccollections
OrderedDict
p0
((lp1
(lp2
S'index'
p3
aI3536
aa(lp4
S'combination_dict'
p5
ag0
((lp6
(lp7
S'r_to_g_config'
p8
aS'tr'
p9
aa(lp10
S'num_turns'
p11
aI3
aa(lp12
S'start_direction'
p13
acutils_ms
StartDirection
p14
(I1
tp15
Rp16
aa(lp17
S'assistance_type'
p18
acutils_ms
AssistanceType
p19
(I1
tp20
Rp21
aa(lp22
S'start_mode'
p23
aS'x'
p24
aa(lp25
S'ui_given_a_noise'
p26
aF0.1
aa(lp27
S'um_given_ui_noise'
p28
aF0.3
aa(lp29
S'entropy_threshold'
p30
aF0.8
aa(lp31
S'is_assistance'
p32
aI01
aatp33
Rp34
aa(lp35
S'trials'
p36
ag0
((lp37
(lp38
I0
accollections
defaultdict
p39
(c__builtin__
list
p40
tp41
Rp42
S'a'
p43
(lp44
S'mode_r'
p45
aS'move_p'
p46
aS'mode_l'
p47
ag46
ag47
ag46
ag47
ag46
ag45
ag46
ag47
ag46
asS'assistance_match_with_ground_truth'
p48
(lp49
I01
aI01
aI01
aI01
aI01
aI01
aI01
aI00
aI01
aI01
aI01
aI01
asS'total_steps'
p50
I12
sS'sp'
p51
(S'p4'
p52
F1.5707963267948966
S'x'
p53
tp54
sS's'
p55
(lp56
(S'p0'
p57
I0
g24
tp58
a(g57
I0
S'y'
p59
tp60
a(S'p1'
p61
I0
g59
tp62
a(g61
I0
g53
tp63
a(S'p2'
p64
I0
g53
tp65
a(g64
I0
S't'
p66
tp67
a(g64
F1.5707963267948966
g66
tp68
a(g64
F1.5707963267948966
g59
tp69
a(g64
F1.5707963267948966
g53
tp70
a(g64
F1.5707963267948966
g59
tp71
a(S'p3'
p72
F1.5707963267948966
g59
tp73
a(g72
F1.5707963267948966
g53
tp74
asS'ui'
p75
(lp76
S'hp'
p77
aS'ss'
p78
aS'hs'
p79
ag78
ag79
ag78
ag79
ag51
ag78
ag51
ag79
ag51
asS'um_before'
p80
(lp81
g79
ag78
ag51
ag78
ag78
ag51
ag79
ag79
ag78
ag51
ag78
ag51
asS'um_after'
p82
(lp83
g77
ag51
ag79
ag51
ag79
ag51
ag79
ag79
ag77
ag51
ag79
ag51
asaa(lp84
I1
ag39
(g40
tp85
Rp86
g43
(lp87
g45
ag46
ag47
ag46
ag47
ag46
ag47
ag46
ag47
ag46
asg48
(lp88
I01
aI01
aI01
aI01
aI01
aI01
aI01
aI01
aI01
aI01
asg50
I10
sg51
g54
sg55
(lp89
(g57
I0
g24
tp90
ag60
ag62
ag63
ag65
ag67
ag68
ag69
ag73
ag74
asg75
(lp91
g77
ag51
ag79
ag51
ag79
ag51
ag79
ag51
ag79
ag51
asg80
(lp92
g51
ag51
ag79
ag77
ag79
ag51
ag79
ag51
ag77
ag77
asg82
(lp93
g77
ag51
ag79
ag51
ag79
ag51
ag79
ag51
ag79
ag51
asaa(lp94
I2
ag39
(g40
tp95
Rp96
g43
(lp97
g45
ag46
ag47
ag46
ag47
ag46
ag47
ag46
ag47
ag46
asg48
(lp98
I01
aI01
aI01
aI01
aI01
aI01
aI01
aI01
aI01
aI01
asg50
I10
sg51
g54
sg55
(lp99
(g57
I0
g24
tp100
ag60
ag62
ag63
ag65
ag67
ag68
ag69
ag73
ag74
asg75
(lp101
g77
ag51
ag79
ag51
ag79
ag51
ag79
ag51
ag79
ag51
asg80
(lp102
g79
ag78
ag78
ag51
ag79
ag51
ag51
ag51
ag79
ag51
asg82
(lp103
g77
ag51
ag79
ag51
ag79
ag51
ag79
ag51
ag79
ag51
asaa(lp104
I3
ag39
(g40
tp105
Rp106
g43
(lp107
g45
ag46
ag47
ag46
ag47
ag46
ag47
ag46
ag47
ag46
asg48
(lp108
I01
aI01
aI01
aI01
aI01
aI01
aI01
aI01
aI01
aI01
asg50
I10
sg51
g54
sg55
(lp109
(g57
I0
g24
tp110
ag60
ag62
ag63
ag65
ag67
ag68
ag69
ag73
ag74
asg75
(lp111
g51
ag51
ag79
ag51
ag79
ag51
ag79
ag78
ag79
ag51
asg80
(lp112
g77
ag51
ag79
ag51
ag78
ag51
ag79
ag78
ag77
ag51
asg82
(lp113
g77
ag51
ag79
ag51
ag79
ag51
ag79
ag51
ag79
ag51
asaa(lp114
I4
ag39
(g40
tp115
Rp116
g43
(lp117
g45
ag46
ag47
ag46
ag47
ag46
ag47
ag46
ag47
ag46
asg48
(lp118
I01
aI01
aI01
aI01
aI01
aI01
aI01
aI01
aI01
aI01
asg50
I10
sg51
g54
sg55
(lp119
(g57
I0
g24
tp120
ag60
ag62
ag63
ag65
ag67
ag68
ag69
ag73
ag74
asg75
(lp121
g77
ag51
ag79
ag51
ag79
ag51
ag79
ag51
ag79
ag78
asg80
(lp122
g77
ag51
ag51
ag78
ag79
ag51
ag79
ag78
ag77
ag77
asg82
(lp123
g77
ag51
ag79
ag51
ag79
ag51
ag79
ag51
ag79
ag51
asaa(lp124
I5
ag39
(g40
tp125
Rp126
g43
(lp127
g45
ag46
ag47
ag46
ag45
ag46
ag47
ag46
ag47
ag46
ag47
ag46
asg48
(lp128
I01
aI01
aI01
aI00
aI01
aI01
aI01
aI01
aI01
aI01
aI01
aI01
asg50
I12
sg51
g54
sg55
(lp129
(g57
I0
g24
tp130
ag60
ag62
ag63
a(g61
I0
g66
tp131
a(g61
I0
g53
tp132
ag65
ag67
ag68
ag69
ag73
ag74
asg75
(lp133
g77
ag51
ag79
ag51
ag77
ag51
ag79
ag51
ag79
ag51
ag79
ag78
asg80
(lp134
g79
ag51
ag51
ag79
ag77
ag51
ag51
ag51
ag79
ag51
ag79
ag78
asg82
(lp135
g77
ag51
ag79
ag79
ag77
ag51
ag79
ag51
ag79
ag51
ag79
ag51
asaa(lp136
I6
ag39
(g40
tp137
Rp138
g43
(lp139
g45
ag46
ag47
ag46
ag47
ag46
ag47
ag46
ag47
ag46
asg48
(lp140
I01
aI01
aI01
aI01
aI01
aI01
aI01
aI01
aI01
aI01
asg50
I10
sg51
g54
sg55
(lp141
(g57
I0
g24
tp142
ag60
ag62
ag63
ag65
ag67
ag68
ag69
ag73
ag74
asg75
(lp143
g77
ag51
ag79
ag51
ag79
ag51
ag79
ag51
ag79
ag51
asg80
(lp144
g77
ag51
ag79
ag51
ag79
ag51
ag79
ag51
ag51
ag51
asg82
(lp145
g77
ag51
ag79
ag51
ag79
ag51
ag79
ag51
ag79
ag51
asaa(lp146
I7
ag39
(g40
tp147
Rp148
g43
(lp149
g45
ag46
ag47
ag46
ag47
ag46
ag47
ag46
ag47
ag46
asg48
(lp150
I01
aI01
aI01
aI01
aI01
aI01
aI01
aI01
aI01
aI01
asg50
I10
sg51
g54
sg55
(lp151
(g57
I0
g24
tp152
ag60
ag62
ag63
ag65
ag67
ag68
ag69
ag73
ag74
asg75
(lp153
g77
ag51
ag79
ag79
ag79
ag51
ag79
ag78
ag79
ag51
asg80
(lp154
g79
ag51
ag79
ag77
ag79
ag51
ag79
ag51
ag79
ag51
asg82
(lp155
g77
ag51
ag79
ag51
ag79
ag51
ag79
ag51
ag79
ag51
asaa(lp156
I8
ag39
(g40
tp157
Rp158
g43
(lp159
g45
ag46
ag47
ag46
ag47
ag46
ag45
ag46
ag47
ag46
ag47
ag46
asg48
(lp160
I01
aI01
aI01
aI01
aI01
aI00
aI01
aI01
aI01
aI01
aI01
aI01
asg50
I12
sg51
g54
sg55
(lp161
(g57
I0
g24
tp162
ag60
ag62
ag63
ag65
ag67
a(g64
I0
g59
tp163
a(g64
I0
g66
tp164
ag68
ag69
ag73
ag74
asg75
(lp165
g77
ag51
ag79
ag77
ag79
ag79
ag77
ag51
ag79
ag51
ag79
ag78
asg80
(lp166
g77
ag51
ag79
ag77
ag79
ag79
ag77
ag51
ag79
ag78
ag79
ag78
asg82
(lp167
g77
ag51
ag79
ag51
ag79
ag79
ag77
ag51
ag79
ag51
ag79
ag51
asaa(lp168
I9
ag39
(g40
tp169
Rp170
g43
(lp171
g45
ag46
ag47
ag46
ag47
ag46
ag47
ag46
ag47
ag46
asg48
(lp172
I01
aI01
aI01
aI01
aI01
aI01
aI01
aI01
aI01
aI01
asg50
I10
sg51
g54
sg55
(lp173
(g57
I0
g24
tp174
ag60
ag62
ag63
ag65
ag67
ag68
ag69
ag73
ag74
asg75
(lp175
g77
ag51
ag79
ag51
ag79
ag51
ag79
ag77
ag79
ag51
asg80
(lp176
g77
ag51
ag51
ag77
ag51
ag78
ag79
ag77
ag79
ag51
asg82
(lp177
g77
ag51
ag79
ag51
ag79
ag51
ag79
ag51
ag79
ag51
asaatp178
Rp179
aatp180
Rp181
.