ccollections
OrderedDict
p0
((lp1
(lp2
S'index'
p3
aI9378
aa(lp4
S'combination_dict'
p5
ag0
((lp6
(lp7
S'r_to_g_config'
p8
aS'bl'
p9
aa(lp10
S'num_turns'
p11
aI2
aa(lp12
S'start_direction'
p13
acutils_ms
StartDirection
p14
(I3
tp15
Rp16
aa(lp17
S'assistance_type'
p18
acutils_ms
AssistanceType
p19
(I1
tp20
Rp21
aa(lp22
S'start_mode'
p23
aS't'
p24
aa(lp25
S'ui_given_a_noise'
p26
aF0.5
aa(lp27
S'um_given_ui_noise'
p28
aF0.3
aa(lp29
S'entropy_threshold'
p30
aF0.9
aa(lp31
S'is_assistance'
p32
aI01
aatp33
Rp34
aa(lp35
S'trials'
p36
ag0
((lp37
(lp38
I0
accollections
defaultdict
p39
(c__builtin__
list
p40
tp41
Rp42
S'a'
p43
(lp44
S'mode_r'
p45
aS'move_n'
p46
ag46
aS'mode_l'
p47
aS'move_p'
p48
ag48
ag47
ag45
ag48
ag48
ag47
ag48
ag47
ag46
ag47
ag45
ag46
asS'assistance_match_with_ground_truth'
p49
(lp50
I01
aI00
aI01
aI01
aI00
aI00
aI00
aI01
aI00
aI00
aI01
aI01
aI01
aI01
aI00
aI01
aI01
asS'total_steps'
p51
I17
sS'sp'
p52
(S'p3'
p53
F1.5707963267948966
S'x'
p54
tp55
sS's'
p56
(lp57
(S'p0'
p58
I0
g24
tp59
a(g58
I0
g54
tp60
a(g58
I0
g54
tp61
a(S'p1'
p62
I0
g54
tp63
a(g62
I0
S't'
p64
tp65
a(g62
I0
g64
tp66
a(g62
I0
g54
tp67
a(g62
I0
S'y'
p68
tp69
a(g62
I0
g64
tp70
ag66
ag67
ag65
a(g62
F1.5707963267948966
g64
tp71
a(g62
F1.5707963267948966
g68
tp72
a(S'p2'
p73
F1.5707963267948966
g68
tp74
a(g73
F1.5707963267948966
g64
tp75
a(g73
F1.5707963267948966
g54
tp76
asS'ui'
p77
(lp78
S'hp'
p79
ag52
aS'ss'
p80
aS'hs'
p81
ag79
ag80
ag79
ag79
ag52
ag79
ag81
ag52
ag81
ag80
ag79
ag79
ag80
asS'um_before'
p82
(lp83
g79
ag52
ag80
ag81
ag80
ag79
ag79
ag79
ag80
ag79
ag80
ag52
ag81
ag80
ag79
ag79
ag80
asS'um_after'
p84
(lp85
g79
ag52
ag80
ag81
ag80
ag79
ag79
ag79
ag80
ag79
ag81
ag52
ag81
ag80
ag79
ag79
ag80
asaa(lp86
I1
ag39
(g40
tp87
Rp88
g43
(lp89
g45
ag46
ag47
ag45
ag48
ag47
ag46
ag47
ag47
ag46
ag45
ag45
ag45
ag46
ag45
ag47
ag46
ag47
ag46
ag45
ag47
ag46
ag47
ag46
ag45
ag45
ag47
ag46
asg49
(lp90
I01
aI01
aI00
aI01
aI01
aI01
aI00
aI00
aI01
aI01
aI00
aI00
aI01
aI00
aI00
aI01
aI01
aI01
aI00
aI00
aI01
aI01
aI01
aI00
aI00
aI00
aI01
aI01
asg51
I28
sg52
g55
sg56
(lp91
(g58
I0
g24
tp92
ag60
ag63
ag69
ag70
ag71
ag72
a(g58
F1.5707963267948966
g68
tp93
a(g58
F1.5707963267948966
g68
tp94
a(g58
F1.5707963267948966
g54
tp95
a(g62
F1.5707963267948966
g54
tp96
a(g62
F1.5707963267948966
g54
tp97
a(g62
F1.5707963267948966
g54
tp98
a(g62
F1.5707963267948966
g68
tp99
a(g62
F1.5707963267948966
g54
tp100
a(g62
F1.5707963267948966
g64
tp101
ag72
ag74
a(g73
F1.5707963267948966
g54
tp102
a(g62
F1.5707963267948966
g54
tp103
ag101
ag72
ag74
ag102
a(g73
F1.5707963267948966
g64
tp104
a(g73
F1.5707963267948966
g64
tp105
a(g73
F1.5707963267948966
g68
tp106
ag102
asg77
(lp107
g79
ag80
ag79
ag79
ag52
ag81
ag80
ag52
ag81
ag80
ag52
ag79
ag80
ag81
ag81
ag79
ag80
ag81
ag52
ag81
ag81
ag80
ag81
ag81
ag80
ag81
ag81
ag80
asg82
(lp108
g79
ag80
ag79
ag79
ag52
ag81
ag52
ag52
ag80
ag80
ag52
ag80
ag79
ag81
ag81
ag81
ag80
ag80
ag52
ag81
ag81
ag80
ag81
ag81
ag80
ag81
ag81
ag80
asg84
(lp109
g79
ag80
ag79
ag79
ag52
ag81
ag52
ag52
ag81
ag80
ag52
ag80
ag79
ag81
ag81
ag81
ag80
ag81
ag52
ag81
ag81
ag80
ag81
ag81
ag80
ag81
ag81
ag80
asaa(lp110
I2
ag39
(g40
tp111
Rp112
g43
(lp113
g45
ag46
ag47
ag48
ag47
ag48
ag47
ag46
ag47
ag46
asg49
(lp114
I01
aI01
aI01
aI00
aI01
aI01
aI01
aI01
aI01
aI01
asg51
I10
sg52
g55
sg56
(lp115
(g58
I0
g24
tp116
ag60
ag63
ag65
ag67
ag65
ag71
ag72
ag74
ag102
asg77
(lp117
g79
ag80
ag81
ag79
ag81
ag52
ag81
ag52
ag81
ag80
asg82
(lp118
g79
ag80
ag81
ag79
ag81
ag52
ag81
ag80
ag81
ag80
asg84
(lp119
g79
ag80
ag81
ag79
ag81
ag52
ag81
ag80
ag81
ag80
asaa(lp120
I3
ag39
(g40
tp121
Rp122
g43
(lp123
g45
ag46
ag47
ag48
ag47
ag48
ag47
ag45
ag46
ag47
ag46
ag45
ag46
ag45
ag47
ag46
ag47
ag45
ag45
ag45
ag47
ag46
ag46
ag45
ag47
ag46
ag47
ag46
asg49
(lp124
I01
aI01
aI01
aI00
aI01
aI01
aI00
aI01
aI01
aI01
aI00
aI01
aI00
aI00
aI01
aI00
aI00
aI00
aI00
aI00
aI01
aI00
aI01
aI00
aI01
aI01
aI01
aI01
asg51
I28
sg52
g55
sg56
(lp125
(g58
I0
g24
tp126
ag60
ag63
ag65
ag67
ag65
ag71
a(g62
F1.5707963267948966
g54
tp127
ag99
ag74
ag102
ag104
ag76
ag103
ag101
ag72
ag93
a(g58
F1.5707963267948966
g64
tp128
a(g58
F1.5707963267948966
g64
tp129
a(g58
F1.5707963267948966
g64
tp130
a(g58
F1.5707963267948966
g68
tp131
ag95
a(g58
F1.5707963267948966
g54
tp132
ag96
ag101
ag72
ag74
ag102
asg77
(lp133
g79
ag52
ag81
ag52
ag81
ag52
ag52
ag52
ag80
ag81
ag80
ag79
ag52
ag81
ag81
ag52
ag81
ag52
ag79
ag81
ag79
ag52
ag80
ag81
ag81
ag81
ag81
ag80
asg82
(lp134
g79
ag79
ag80
ag79
ag80
ag52
ag79
ag79
ag80
ag80
ag81
ag79
ag52
ag81
ag81
ag52
ag79
ag52
ag80
ag81
ag81
ag52
ag80
ag81
ag81
ag80
ag81
ag80
asg84
(lp135
g79
ag80
ag81
ag79
ag81
ag52
ag79
ag79
ag80
ag81
ag81
ag79
ag52
ag81
ag81
ag52
ag79
ag52
ag80
ag81
ag81
ag52
ag80
ag81
ag81
ag80
ag81
ag80
asaa(lp136
I4
ag39
(g40
tp137
Rp138
g43
(lp139
g45
ag46
ag47
ag48
ag47
ag47
ag45
ag48
ag45
ag47
ag45
ag45
ag45
ag46
asg49
(lp140
I01
aI01
aI01
aI00
aI00
aI00
aI01
aI00
aI00
aI00
aI00
aI00
aI01
aI01
asg51
I14
sg52
(g53
I0
g54
tp141
sg56
(lp142
(g58
I0
g24
tp143
ag60
ag63
ag65
ag67
a(g62
I0
g54
tp144
ag69
ag70
a(g62
I0
g68
tp145
a(g73
I0
g68
tp146
a(g73
I0
g64
tp147
a(g73
I0
g64
tp148
a(g73
I0
g64
tp149
a(g73
I0
g54
tp150
asg77
(lp151
g79
ag80
ag81
ag79
ag52
ag79
ag79
ag79
ag80
ag79
ag52
ag81
ag79
ag80
asg82
(lp152
g79
ag80
ag81
ag79
ag52
ag79
ag79
ag81
ag80
ag79
ag52
ag80
ag79
ag80
asg84
(lp153
g79
ag80
ag81
ag79
ag52
ag79
ag79
ag81
ag80
ag79
ag52
ag80
ag79
ag80
asaa(lp154
I5
ag39
(g40
tp155
Rp156
g43
(lp157
g45
ag46
ag47
ag45
ag47
ag46
ag47
ag48
ag45
ag48
ag47
ag48
ag47
ag48
ag47
ag46
ag47
ag47
ag46
ag45
ag46
ag45
ag46
ag47
ag45
ag46
ag45
ag46
ag47
ag45
ag45
ag46
asg49
(lp158
I01
aI01
aI00
aI00
aI01
aI01
aI01
aI00
aI01
aI00
aI01
aI00
aI01
aI01
aI01
aI01
aI00
aI01
aI00
aI01
aI00
aI01
aI01
aI00
aI01
aI00
aI01
aI01
aI00
aI00
aI01
aI01
asg51
I32
sg52
g55
sg56
(lp159
(g58
I0
g24
tp160
ag60
ag63
ag69
a(g58
I0
g68
tp161
a(g58
I0
g54
tp162
ag63
ag65
ag145
ag70
ag67
ag65
ag67
ag65
ag71
ag72
ag74
a(g73
F1.5707963267948966
g68
tp163
ag102
ag104
ag76
ag103
ag99
ag74
ag75
ag76
ag103
ag99
ag74
ag75
ag105
ag76
asg77
(lp164
g79
ag80
ag79
ag52
ag81
ag80
ag81
ag81
ag79
ag80
ag81
ag79
ag81
ag52
ag81
ag80
ag52
ag81
ag81
ag79
ag52
ag79
ag80
ag79
ag79
ag79
ag79
ag80
ag79
ag79
ag79
ag80
asg82
(lp165
g79
ag80
ag79
ag52
ag80
ag80
ag81
ag81
ag79
ag79
ag80
ag79
ag81
ag52
ag80
ag79
ag52
ag81
ag81
ag79
ag52
ag79
ag80
ag79
ag79
ag52
ag79
ag80
ag79
ag80
ag79
ag79
asg84
(lp166
g79
ag80
ag79
ag52
ag81
ag80
ag81
ag81
ag79
ag79
ag81
ag79
ag81
ag52
ag81
ag80
ag52
ag81
ag81
ag79
ag52
ag79
ag80
ag79
ag79
ag52
ag79
ag80
ag79
ag80
ag79
ag80
asaa(lp167
I6
ag39
(g40
tp168
Rp169
g43
(lp170
g45
ag45
ag46
ag47
ag48
ag48
ag47
ag45
ag46
ag45
ag46
ag47
ag46
ag45
ag45
ag45
ag46
ag47
ag46
asg49
(lp171
I00
aI01
aI01
aI01
aI00
aI01
aI00
aI01
aI00
aI01
aI00
aI01
aI01
aI00
aI00
aI01
aI01
aI01
aI01
asg51
I19
sg52
g55
sg56
(lp172
(g58
I0
g24
tp173
a(g58
I0
g64
tp174
ag60
ag63
ag65
ag66
ag71
ag127
ag99
ag100
ag99
ag93
ag95
ag96
ag97
ag98
ag99
ag74
ag102
asg77
(lp175
g81
ag79
ag80
ag81
ag52
ag52
ag79
ag79
ag81
ag79
ag52
ag81
ag80
ag79
ag80
ag79
ag80
ag81
ag81
asg82
(lp176
g80
ag79
ag80
ag81
ag80
ag52
ag79
ag79
ag81
ag79
ag52
ag81
ag80
ag52
ag80
ag79
ag79
ag80
ag80
asg84
(lp177
g80
ag79
ag80
ag81
ag80
ag52
ag79
ag79
ag81
ag79
ag52
ag81
ag80
ag52
ag80
ag79
ag80
ag81
ag80
asaa(lp178
I7
ag39
(g40
tp179
Rp180
g43
(lp181
g45
ag46
ag47
ag48
ag47
ag46
ag47
ag46
asg49
(lp182
I01
aI01
aI01
aI01
aI01
aI01
aI01
aI01
asg51
I8
sg52
g55
sg56
(lp183
(g58
I0
g24
tp184
ag60
ag63
ag65
ag71
ag72
ag74
ag102
asg77
(lp185
g79
ag80
ag81
ag52
ag81
ag80
ag81
ag81
asg82
(lp186
g79
ag80
ag80
ag52
ag81
ag80
ag81
ag80
asg84
(lp187
g79
ag80
ag81
ag52
ag81
ag80
ag81
ag80
asaa(lp188
I8
ag39
(g40
tp189
Rp190
g43
(lp191
g45
ag46
ag47
ag48
ag47
ag46
ag45
ag45
ag45
ag47
ag45
ag46
ag47
ag46
ag45
ag45
ag45
ag47
ag45
ag45
ag46
ag47
ag46
asg49
(lp192
I01
aI01
aI01
aI01
aI01
aI00
aI00
aI00
aI00
aI00
aI01
aI01
aI01
aI00
aI00
aI00
aI00
aI00
aI00
aI01
aI01
aI01
aI01
asg51
I23
sg52
g55
sg56
(lp193
(g58
I0
g24
tp194
ag60
ag63
ag65
ag71
ag72
ag100
ag98
ag98
ag101
ag127
ag99
ag74
ag102
ag103
ag98
ag98
ag101
ag127
ag97
ag99
ag74
ag102
asg77
(lp195
g79
ag79
ag81
ag52
ag81
ag81
ag80
ag80
ag79
ag52
ag79
ag80
ag81
ag52
ag52
ag52
ag81
ag79
ag52
ag79
ag80
ag81
ag80
asg82
(lp196
g79
ag80
ag80
ag52
ag81
ag81
ag80
ag80
ag81
ag79
ag79
ag80
ag81
ag52
ag80
ag80
ag81
ag79
ag52
ag79
ag80
ag80
ag80
asg84
(lp197
g79
ag80
ag81
ag52
ag81
ag81
ag80
ag80
ag81
ag79
ag79
ag80
ag81
ag52
ag80
ag80
ag81
ag79
ag52
ag79
ag80
ag81
ag80
asaa(lp198
I9
ag39
(g40
tp199
Rp200
g43
(lp201
g45
ag45
ag47
ag46
ag45
ag47
ag46
ag47
ag47
ag48
ag47
ag46
ag45
ag46
ag47
ag46
ag45
ag45
ag45
ag46
ag45
ag46
ag47
ag46
asg49
(lp202
I00
aI00
aI01
aI00
aI00
aI01
aI01
aI00
aI01
aI01
aI01
aI00
aI01
aI01
aI01
aI00
aI00
aI00
aI01
aI00
aI01
aI01
aI01
aI01
asg51
I24
sg52
g55
sg56
(lp203
(g58
I0
g24
tp204
ag174
a(g58
I0
g68
tp205
ag162
a(g58
I0
g64
tp206
ag205
ag162
ag63
ag144
ag65
ag71
ag72
ag100
ag99
ag74
ag102
ag103
ag98
ag98
ag99
ag100
ag99
ag74
ag102
asg77
(lp207
g81
ag81
ag81
ag80
ag81
ag81
ag80
ag79
ag81
ag79
ag81
ag81
ag79
ag79
ag81
ag52
ag80
ag79
ag52
ag81
ag79
ag80
ag81
ag80
asg82
(lp208
g80
ag81
ag81
ag81
ag81
ag80
ag80
ag52
ag81
ag52
ag80
ag81
ag79
ag79
ag80
ag52
ag80
ag80
ag79
ag81
ag79
ag80
ag81
ag80
asg84
(lp209
g80
ag81
ag81
ag81
ag81
ag81
ag80
ag52
ag81
ag52
ag81
ag81
ag79
ag80
ag81
ag52
ag80
ag80
ag79
ag81
ag79
ag80
ag81
ag80
asaatp210
Rp211
aatp212
Rp213
.