ccollections
OrderedDict
p0
((lp1
(lp2
S'index'
p3
aI9002
aa(lp4
S'combination_dict'
p5
ag0
((lp6
(lp7
S'r_to_g_config'
p8
aS'bl'
p9
aa(lp10
S'num_turns'
p11
aI2
aa(lp12
S'start_direction'
p13
acutils_ms
StartDirection
p14
(I3
tp15
Rp16
aa(lp17
S'assistance_type'
p18
acutils_ms
AssistanceType
p19
(I0
tp20
Rp21
aa(lp22
S'start_mode'
p23
aS't'
p24
aa(lp25
S'ui_given_a_noise'
p26
aF0.3
aa(lp27
S'um_given_ui_noise'
p28
aF0.1
aa(lp29
S'entropy_threshold'
p30
aF0.6
aa(lp31
S'is_assistance'
p32
aI01
aatp33
Rp34
aa(lp35
S'trials'
p36
ag0
((lp37
(lp38
I0
accollections
defaultdict
p39
(c__builtin__
list
p40
tp41
Rp42
S'a'
p43
(lp44
S'mode_r'
p45
aS'move_n'
p46
ag45
ag45
ag46
ag45
aS'mode_l'
p47
aS'move_p'
p48
ag45
ag47
ag47
ag46
asS'assistance_match_with_ground_truth'
p49
(lp50
I01
aI01
aI00
aI01
aI01
aI00
aI01
aI01
aI00
aI00
aI01
aI01
asS'total_steps'
p51
I12
sS'sp'
p52
(S'p3'
p53
F1.5707963267948966
S'x'
p54
tp55
sS's'
p56
(lp57
(S'p0'
p58
I0
g24
tp59
a(g58
I0
g54
tp60
a(S'p1'
p61
I0
g54
tp62
a(g61
I0
g54
tp63
a(g61
I0
S'y'
p64
tp65
a(S'p2'
p66
I0
g64
tp67
a(g66
I0
g54
tp68
a(g66
I0
S't'
p69
tp70
a(g66
F1.5707963267948966
g69
tp71
a(g66
F1.5707963267948966
g64
tp72
a(g66
F1.5707963267948966
g64
tp73
a(g66
F1.5707963267948966
g54
tp74
asS'ui'
p75
(lp76
S'hp'
p77
aS'ss'
p78
ag78
ag77
ag78
aS'hs'
p79
ag79
ag52
ag78
ag52
ag79
ag78
asS'um_before'
p80
(lp81
g77
ag78
ag78
ag77
ag78
ag79
ag79
ag52
ag79
ag52
ag79
ag78
asS'um_after'
p82
(lp83
g77
ag78
ag78
ag77
ag78
ag79
ag79
ag52
ag79
ag52
ag79
ag78
asaa(lp84
I1
ag39
(g40
tp85
Rp86
g43
(lp87
g45
ag47
ag47
ag46
ag45
ag46
ag45
ag45
ag48
ag48
ag45
ag47
ag47
ag46
asg49
(lp88
I00
aI00
aI01
aI01
aI01
aI01
aI00
aI01
aI00
aI01
aI00
aI00
aI01
aI01
asg51
I14
sg52
g55
sg56
(lp89
(g58
I0
g24
tp90
a(g58
I0
g64
tp91
a(g58
I0
g64
tp92
a(g58
I0
g54
tp93
ag62
ag65
ag67
a(g66
I0
g64
tp94
a(g66
I0
g69
tp95
a(g66
I0
g69
tp96
ag71
ag72
ag73
ag74
asg75
(lp97
g79
ag52
ag79
ag78
ag77
ag78
ag78
ag77
ag52
ag52
ag77
ag52
ag79
ag78
asg80
(lp98
g79
ag52
ag79
ag78
ag77
ag78
ag78
ag77
ag78
ag52
ag79
ag52
ag79
ag78
asg82
(lp99
g79
ag52
ag79
ag78
ag77
ag78
ag78
ag77
ag78
ag52
ag79
ag52
ag79
ag78
asaa(lp100
I2
ag39
(g40
tp101
Rp102
g43
(lp103
g45
ag46
ag45
ag46
ag45
ag45
ag48
ag48
ag45
ag47
ag46
ag46
asg49
(lp104
I01
aI01
aI01
aI01
aI00
aI01
aI00
aI01
aI00
aI01
aI00
aI01
asg51
I12
sg52
g55
sg56
(lp105
(g58
I0
g24
tp106
ag60
ag62
ag65
ag67
ag94
ag95
ag96
ag71
ag72
ag74
ag74
asg75
(lp107
g77
ag78
ag77
ag78
ag78
ag77
ag78
ag52
ag77
ag79
ag78
ag78
asg80
(lp108
g77
ag78
ag77
ag78
ag78
ag77
ag78
ag52
ag79
ag79
ag52
ag78
asg82
(lp109
g77
ag78
ag77
ag78
ag78
ag77
ag78
ag52
ag79
ag79
aNag78
asaa(lp110
I3
ag39
(g40
tp111
Rp112
g43
(lp113
g45
ag46
ag45
ag46
ag45
ag47
ag47
ag45
ag46
ag47
ag46
ag45
ag48
ag47
ag47
ag48
ag45
ag48
ag45
ag46
ag46
asg49
(lp114
I01
aI01
aI01
aI01
aI00
aI00
aI00
aI01
aI00
aI01
aI01
aI01
aI00
aI00
aI01
aI01
aI00
aI01
aI01
aI00
aI01
asg51
I21
sg52
g55
sg56
(lp115
(g58
I0
g24
tp116
ag60
ag62
ag65
ag67
ag68
ag68
a(g61
I0
g54
tp117
ag65
a(g61
I0
g69
tp118
a(g61
I0
g64
tp119
ag67
ag95
a(g66
I0
g54
tp120
ag120
ag70
ag71
a(g66
I0
g69
tp121
ag71
a(g66
F1.5707963267948966
g54
tp122
ag122
asg75
(lp123
g77
ag78
ag77
ag78
ag79
ag78
ag52
ag77
ag78
ag79
ag78
ag77
ag52
ag79
ag79
ag52
ag79
ag52
ag77
ag79
ag78
asg80
(lp124
g77
ag78
ag77
ag78
ag79
ag78
ag52
ag77
ag77
ag79
ag78
ag77
ag77
ag78
ag79
ag52
ag78
ag52
ag77
ag79
ag78
asg82
(lp125
g77
ag78
ag77
ag78
ag79
aNag52
ag77
ag77
ag79
ag78
ag77
ag77
aNag79
ag52
ag78
ag52
ag77
aNag78
asaa(lp126
I4
ag39
(g40
tp127
Rp128
g43
(lp129
g45
ag47
ag46
ag45
ag46
ag45
ag45
ag48
ag45
ag46
asg49
(lp130
I00
aI01
aI01
aI01
aI01
aI00
aI01
aI01
aI01
aI01
asg51
I10
sg52
g55
sg56
(lp131
(g58
I0
g24
tp132
ag91
ag93
ag62
ag65
ag67
ag94
ag95
ag71
ag122
asg75
(lp133
g79
ag79
ag78
ag77
ag78
ag78
ag77
ag52
ag77
ag78
asg80
(lp134
g79
ag79
ag78
ag77
ag78
ag78
ag77
ag52
ag77
ag78
asg82
(lp135
g79
ag79
ag78
ag77
ag78
ag78
ag77
ag52
ag77
ag78
asaa(lp136
I5
ag39
(g40
tp137
Rp138
g43
(lp139
g45
ag45
ag47
ag46
ag46
ag45
ag46
ag45
ag48
ag45
ag45
ag46
asg49
(lp140
I00
aI00
aI01
aI00
aI01
aI01
aI01
aI01
aI01
aI00
aI01
aI01
asg51
I12
sg52
g55
sg56
(lp141
(g58
I0
g24
tp142
a(g58
I0
g69
tp143
ag91
ag93
ag93
ag62
ag65
ag67
ag95
ag71
a(g66
F1.5707963267948966
g69
tp144
ag122
asg75
(lp145
g78
ag79
ag79
ag78
ag78
ag77
ag78
ag77
ag52
ag52
ag77
ag78
asg80
(lp146
g78
ag79
ag79
ag79
ag78
ag77
ag78
ag77
ag52
ag52
ag77
ag78
asg82
(lp147
g78
ag79
ag79
aNag78
ag77
ag78
ag77
ag52
ag52
ag77
ag78
asaa(lp148
I6
ag39
(g40
tp149
Rp150
g43
(lp151
g45
ag46
ag45
ag45
ag46
ag46
ag45
ag48
ag45
ag46
asg49
(lp152
I01
aI01
aI00
aI01
aI00
aI01
aI01
aI01
aI01
aI01
asg51
I10
sg52
g55
sg56
(lp153
(g58
I0
g24
tp154
ag60
ag62
a(g61
I0
g54
tp155
ag65
ag65
ag67
ag95
ag71
ag122
asg75
(lp156
g77
ag78
ag52
ag79
ag79
ag78
ag77
ag52
ag77
ag78
asg80
(lp157
g77
ag78
ag52
ag77
ag79
ag78
ag77
ag52
ag77
ag78
asg82
(lp158
g77
ag78
ag52
ag77
aNag78
ag77
ag52
ag77
ag78
asaa(lp159
I7
ag39
(g40
tp160
Rp161
g43
(lp162
g45
ag45
ag46
ag45
ag46
ag45
ag48
ag48
ag45
ag46
asg49
(lp163
I00
aI01
aI01
aI01
aI01
aI01
aI00
aI01
aI01
aI01
asg51
I10
sg52
g55
sg56
(lp164
(g58
I0
g24
tp165
ag143
ag60
ag62
ag65
ag67
ag95
ag96
ag71
ag122
asg75
(lp166
g78
ag77
ag78
ag77
ag78
ag77
ag78
ag52
ag77
ag78
asg80
(lp167
g78
ag77
ag78
ag77
ag78
ag77
ag78
ag52
ag77
ag78
asg82
(lp168
g78
ag77
ag78
ag77
ag78
ag77
ag78
ag52
ag77
ag78
asaa(lp169
I8
ag39
(g40
tp170
Rp171
g43
(lp172
g45
ag47
ag46
ag47
ag47
ag46
ag45
ag45
ag47
ag46
ag45
ag45
ag48
ag45
ag46
asg49
(lp173
I00
aI01
aI00
aI00
aI01
aI01
aI00
aI00
aI01
aI01
aI00
aI01
aI01
aI01
aI01
asg51
I15
sg52
g55
sg56
(lp174
(g58
I0
g24
tp175
ag91
ag93
a(g58
I0
g64
tp176
ag92
ag93
ag62
ag63
a(g61
I0
g69
tp177
ag119
ag67
ag94
ag95
ag71
ag122
asg75
(lp178
g79
ag79
ag77
ag52
ag79
ag78
ag79
ag77
ag79
ag78
ag77
ag77
ag52
ag77
ag78
asg80
(lp179
g79
ag79
ag77
ag52
ag79
ag78
ag78
ag79
ag79
ag78
ag78
ag77
ag52
ag77
ag78
asg82
(lp180
g79
ag79
ag77
ag52
ag79
ag78
ag78
ag79
ag79
ag78
ag78
ag77
ag52
ag77
ag78
asaa(lp181
I9
ag39
(g40
tp182
Rp183
g43
(lp184
g45
ag46
ag45
ag46
ag45
ag45
ag45
ag48
ag48
ag47
ag45
ag47
ag48
ag45
ag46
asg49
(lp185
I01
aI01
aI01
aI01
aI00
aI00
aI01
aI00
aI00
aI00
aI00
aI01
aI01
aI01
aI01
asg51
I15
sg52
g55
sg56
(lp186
(g58
I0
g24
tp187
ag60
ag62
ag65
ag67
ag94
ag94
ag95
ag96
ag120
a(g66
I0
g64
tp188
ag68
ag70
ag71
ag122
asg75
(lp189
g77
ag78
ag77
ag78
ag78
ag78
ag77
ag78
ag77
ag77
ag79
ag79
ag52
ag77
ag78
asg80
(lp190
g77
ag78
ag77
ag78
ag78
ag78
ag77
ag78
ag77
ag77
ag79
ag79
ag52
ag77
ag78
asg82
(lp191
g77
ag78
ag77
ag78
ag78
ag78
ag77
ag78
ag77
ag77
ag79
ag79
ag52
ag77
ag78
asaatp192
Rp193
aatp194
Rp195
.