ccollections
OrderedDict
p0
((lp1
(lp2
S'combination_dict'
p3
ag0
((lp4
(lp5
S'r_to_g_config'
p6
aS'tr'
p7
aa(lp8
S'num_turns'
p9
aI2
aa(lp10
S'start_direction'
p11
acutils_ms
StartDirection
p12
(I1
tp13
Rp14
aa(lp15
S'assistance_type'
p16
acutils_ms
AssistanceType
p17
(I1
tp18
Rp19
aa(lp20
S'start_mode'
p21
aS't'
p22
aa(lp23
S'ui_given_a_noise'
p24
aF0.7
aa(lp25
S'um_given_ui_noise'
p26
aF0.5
aa(lp27
S'entropy_threshold'
p28
aF0.5
aatp29
Rp30
aa(lp31
S'data'
p32
accollections
defaultdict
p33
(c__builtin__
list
p34
tp35
Rp36
S'a'
p37
(lp38
S'mode_l'
p39
ag39
ag39
ag39
aS'move_p'
p40
aS'mode_r'
p41
ag41
ag40
ag41
ag40
ag39
ag39
ag41
ag39
ag40
ag41
ag40
ag40
ag41
ag39
ag39
ag40
ag41
ag40
ag41
ag40
ag39
ag40
ag41
ag40
ag41
ag39
ag40
ag41
ag40
ag40
ag39
ag40
ag40
ag41
ag40
ag41
ag41
ag40
ag40
ag40
ag39
ag41
ag41
ag40
ag40
ag41
ag39
ag40
ag41
ag40
ag41
ag41
ag41
ag39
ag40
ag41
ag40
ag39
ag40
ag41
ag40
ag40
ag39
ag40
ag40
ag41
ag40
ag40
ag41
ag41
ag40
ag41
ag40
ag41
ag40
ag41
ag40
ag41
ag41
ag41
ag40
asS'assistance_match_with_ground_truth'
p42
(lp43
I00
aI00
aI00
aI01
aI01
aI00
aI01
aI01
aI01
aI00
aI00
aI00
aI00
aI01
aI00
aI00
aI00
aI01
aI00
aI00
aI01
aI00
aI00
aI01
aI00
aI00
aI01
aI01
aI00
aI00
aI00
aI01
aI00
aI01
aI00
aI00
aI01
aI00
aI01
aI00
aI01
aI00
aI00
aI00
aI00
aI00
aI00
aI00
aI01
aI00
aI00
aI00
aI01
aI01
aI00
aI00
aI00
aI00
aI00
aI01
aI01
aI00
aI00
aI01
aI01
aI00
aI00
aI00
aI01
aI00
aI00
aI01
aI00
aI01
aI00
aI00
aI01
aI01
aI01
aI01
aI00
aI01
aI00
aI00
aI00
aI01
aI01
asS'total_steps'
p44
I87
sS'sp'
p45
(lp46
(S'p0'
p47
I0
S't'
p48
tp49
ag49
ag49
a(g47
I0
S'y'
p50
tp51
a(S'p1'
p52
I0
g50
tp53
a(g52
I0
g50
tp54
a(g52
I0
g48
tp55
a(g52
F1.5707963267948966
g48
tp56
a(g52
F1.5707963267948966
S'x'
p57
tp58
a(g52
F1.5707963267948966
g50
tp59
a(g52
F1.5707963267948966
g50
tp60
a(g52
F1.5707963267948966
g48
tp61
a(g52
F1.5707963267948966
g50
tp62
a(g52
F1.5707963267948966
g57
tp63
a(g52
F1.5707963267948966
g48
tp64
a(g52
I0
g48
tp65
a(g52
I0
g48
tp66
ag56
ag62
ag60
ag63
ag64
ag65
ag56
ag65
a(g52
I0
g57
tp67
a(g52
I0
g48
tp68
ag56
ag65
a(g52
I0
g50
tp69
a(g52
I0
g57
tp70
ag68
ag69
ag55
ag66
ag67
ag68
ag66
ag56
ag65
ag56
a(g52
F1.5707963267948966
g48
tp71
ag65
ag66
ag66
ag67
a(g52
I0
g50
tp72
a(g52
I0
g50
tp73
ag55
ag66
ag69
ag70
ag68
ag56
ag65
ag69
ag54
ag73
ag70
ag68
ag56
ag65
ag67
ag68
ag56
ag65
ag66
ag67
ag68
ag66
ag69
ag55
ag66
ag56
ag71
ag65
ag56
ag58
a(S'p2'
p74
F1.5707963267948966
g57
tp75
a(g74
F1.5707963267948966
g50
tp76
a(g74
F1.5707963267948966
g57
tp77
ag76
ag77
a(g74
F1.5707963267948966
g57
tp78
ag78
ag76
a(S'p3'
p79
F1.5707963267948966
g50
tp80
asS's'
p81
(lp82
(g47
I0
g22
tp83
ag49
ag49
ag49
ag51
ag53
ag54
ag55
ag56
ag58
ag59
ag60
ag61
ag62
ag63
ag64
ag65
ag66
ag56
ag62
ag60
ag63
ag64
ag65
ag56
ag65
ag67
ag68
ag56
ag65
ag69
ag70
ag68
ag69
ag55
ag66
ag67
ag68
ag66
ag56
ag65
ag56
ag71
ag65
ag66
ag66
ag67
ag72
ag73
ag55
ag66
ag69
ag70
ag68
ag56
ag65
ag69
ag54
ag73
ag70
ag68
ag56
ag65
ag67
ag68
ag56
ag65
ag66
ag67
ag68
ag66
ag69
ag55
ag66
ag56
ag71
ag65
ag56
ag58
ag75
ag76
ag77
ag76
ag77
ag78
ag78
ag76
asS'ui'
p84
(lp85
S'hs'
p86
ag86
ag86
ag86
aS'ss'
p87
ag87
ag86
ag45
aS'hp'
p88
ag86
ag86
ag45
ag86
ag86
ag86
ag87
ag87
ag45
ag86
ag86
ag86
ag87
ag87
ag45
ag88
ag87
ag86
ag88
ag88
ag45
ag88
ag86
ag86
ag88
ag45
ag88
ag86
ag86
ag45
ag86
ag45
ag45
ag87
ag87
ag45
ag87
ag88
ag88
ag87
ag45
ag86
ag86
ag86
ag87
ag88
ag87
ag87
ag87
ag86
ag86
ag87
ag88
ag86
ag86
ag45
ag87
ag86
ag86
ag86
ag87
ag86
ag88
ag45
ag45
ag88
ag87
ag45
ag86
ag45
ag88
ag86
ag88
ag86
ag88
ag87
ag88
ag45
asS'um_before'
p89
(lp90
g45
ag45
ag45
ag86
ag45
ag87
ag88
ag45
ag88
ag88
ag45
ag88
ag86
ag86
ag86
ag87
ag87
ag45
ag86
ag45
ag86
ag86
ag87
ag45
ag87
ag88
ag86
ag45
ag87
ag86
ag86
ag86
ag86
ag88
ag87
ag88
ag86
ag87
ag45
ag87
ag45
ag45
ag87
ag87
ag87
ag88
ag88
ag45
ag88
ag87
ag86
ag86
ag86
ag45
ag87
ag86
ag87
ag45
ag86
ag86
ag45
ag87
ag88
ag86
ag45
ag87
ag87
ag88
ag86
ag87
ag86
ag88
ag87
ag45
ag45
ag87
ag45
ag88
ag45
ag88
ag86
ag88
ag86
ag87
ag87
ag88
ag45
asS'um_after'
p91
(lp92
g45
ag45
ag45
ag86
ag45
ag87
ag88
ag45
ag88
ag88
ag45
ag88
ag86
ag86
ag86
ag87
ag87
ag45
ag86
ag45
ag86
ag86
ag87
ag45
ag87
ag88
ag86
ag45
ag87
ag86
ag86
ag86
ag86
ag88
ag87
ag88
ag86
ag87
ag45
ag87
ag45
ag45
ag87
ag87
ag87
ag88
ag88
ag45
ag88
ag87
ag86
ag86
ag86
ag45
ag87
ag86
ag87
ag45
ag86
ag86
ag45
ag87
ag88
ag86
ag45
ag87
ag87
ag88
ag86
ag87
ag86
ag88
ag87
ag45
ag45
ag87
ag45
ag88
ag45
ag88
ag86
ag88
ag86
ag87
ag87
ag88
ag45
asaa(lp93
S'index'
p94
aI17505
aatp95
Rp96
.