ccollections
OrderedDict
p0
((lp1
(lp2
S'index'
p3
aI5406
aa(lp4
S'combination_dict'
p5
ag0
((lp6
(lp7
S'r_to_g_config'
p8
aS'tl'
p9
aa(lp10
S'num_turns'
p11
aI2
aa(lp12
S'start_direction'
p13
acutils_ms
StartDirection
p14
(I3
tp15
Rp16
aa(lp17
S'assistance_type'
p18
acutils_ms
AssistanceType
p19
(I0
tp20
Rp21
aa(lp22
S'start_mode'
p23
aS'y'
p24
aa(lp25
S'ui_given_a_noise'
p26
aF0.7
aa(lp27
S'um_given_ui_noise'
p28
aF0.1
aa(lp29
S'entropy_threshold'
p30
aF0.8
aa(lp31
S'is_assistance'
p32
aI01
aatp33
Rp34
aa(lp35
S'trials'
p36
ag0
((lp37
(lp38
I0
accollections
defaultdict
p39
(c__builtin__
list
p40
tp41
Rp42
S'a'
p43
(lp44
S'mode_l'
p45
aS'move_n'
p46
ag45
ag46
aS'mode_r'
p47
aS'move_p'
p48
ag47
ag45
ag48
ag47
ag45
ag45
ag47
ag47
ag46
ag45
ag46
ag47
ag48
ag45
ag45
ag45
ag45
ag45
ag46
ag47
ag48
ag45
ag48
ag45
ag47
ag46
asS'assistance_match_with_ground_truth'
p49
(lp50
I01
aI00
aI01
aI01
aI01
aI01
aI00
aI01
aI01
aI00
aI00
aI00
aI00
aI01
aI00
aI01
aI00
aI01
aI00
aI00
aI00
aI00
aI00
aI01
aI01
aI01
aI00
aI01
aI01
aI00
aI01
aI01
asS'total_steps'
p51
I32
sS'sp'
p52
(S'p3'
p53
F1.5707963267948966
S'x'
p54
tp55
sS's'
p56
(lp57
(S'p0'
p58
I0
g24
tp59
a(g58
I0
g54
tp60
a(g58
I0
S'y'
p61
tp62
ag60
a(S'p1'
p63
I0
g54
tp64
a(g63
I0
g61
tp65
a(S'p2'
p66
I0
g61
tp67
a(g66
I0
g54
tp68
a(g66
I0
S't'
p69
tp70
a(g66
F1.5707963267948966
g69
tp71
a(g66
F1.5707963267948966
g61
tp72
a(g66
F1.5707963267948966
g61
tp73
a(g66
F1.5707963267948966
g69
tp74
a(g66
F1.5707963267948966
g69
tp75
a(g66
F1.5707963267948966
g54
tp76
a(g66
F1.5707963267948966
g61
tp77
a(g66
F1.5707963267948966
g54
tp78
a(g63
F1.5707963267948966
g54
tp79
a(g63
F1.5707963267948966
g61
tp80
a(g58
F1.5707963267948966
g61
tp81
a(g58
F1.5707963267948966
g61
tp82
a(g58
F1.5707963267948966
g61
tp83
ag83
ag82
a(g58
F1.5707963267948966
g54
tp84
a(g63
F1.5707963267948966
g54
tp85
ag80
a(g63
F1.5707963267948966
g69
tp86
a(g63
F1.5707963267948966
g61
tp87
a(g66
F1.5707963267948966
g61
tp88
ag74
ag76
asS'ui'
p89
(lp90
S'hs'
p91
aS'hp'
p92
ag91
aS'ss'
p93
ag92
ag52
ag93
ag91
ag52
ag91
ag52
ag52
ag52
ag92
ag92
ag91
ag52
ag92
ag93
ag93
ag91
ag52
ag92
ag91
ag93
ag92
ag92
ag91
ag52
ag92
ag92
ag93
asS'um_before'
p94
(lp95
g91
ag92
ag91
ag93
ag92
ag52
ag91
ag91
ag52
ag91
ag52
ag92
ag52
ag92
ag92
ag91
ag52
ag92
ag93
ag93
ag52
ag52
ag93
ag91
ag93
ag92
ag92
ag91
ag52
ag92
ag92
ag93
asS'um_after'
p96
(lp97
g91
ag92
ag91
ag93
ag92
ag52
ag91
ag91
ag52
ag91
ag52
ag92
ag52
ag92
ag92
ag91
ag52
ag92
ag93
ag93
ag52
ag52
ag93
ag91
ag93
ag92
ag92
ag91
ag52
ag92
ag92
ag93
asaa(lp98
I1
ag39
(g40
tp99
Rp100
g43
(lp101
g45
ag46
ag45
ag45
ag46
ag47
ag48
ag47
ag48
ag48
ag48
ag47
ag46
asg49
(lp102
I01
aI00
aI00
aI01
aI01
aI01
aI01
aI01
aI00
aI00
aI01
aI01
aI01
asg51
I13
sg52
g55
sg56
(lp103
(g58
I0
g24
tp104
ag60
ag62
a(g58
I0
g61
tp105
ag60
ag64
ag65
ag67
a(g66
I0
g69
tp106
a(g66
I0
g69
tp107
ag107
ag71
ag76
asg89
(lp108
g91
ag92
ag91
ag91
ag93
ag92
ag52
ag92
ag93
ag93
ag52
ag92
ag93
asg94
(lp109
g91
ag92
ag52
ag91
ag93
ag92
ag52
ag92
ag93
ag93
ag52
ag92
ag93
asg96
(lp110
g91
ag92
ag52
ag91
ag93
ag92
ag52
ag92
ag93
ag93
ag52
ag92
ag93
asaa(lp111
I2
ag39
(g40
tp112
Rp113
g43
(lp114
g45
ag47
ag46
ag47
ag45
ag48
ag47
ag47
ag47
ag48
ag47
ag46
ag45
ag46
asg49
(lp115
I00
aI01
aI01
aI00
aI01
aI01
aI00
aI00
aI01
aI01
aI01
aI00
aI01
aI01
asg51
I14
sg52
g55
sg56
(lp116
(g58
I0
g24
tp117
a(g58
I0
g69
tp118
a(g58
I0
g54
tp119
ag64
a(g63
I0
g69
tp120
a(g63
I0
g61
tp121
ag67
a(g66
I0
g61
tp122
ag122
ag106
ag71
ag76
ag77
ag78
asg89
(lp123
g92
ag92
ag93
ag91
ag91
ag52
ag93
ag92
ag52
ag52
ag92
ag92
ag91
ag93
asg94
(lp124
g92
ag92
ag93
ag91
ag91
ag52
ag93
ag93
ag92
ag52
ag92
ag92
ag91
ag93
asg96
(lp125
g92
ag92
ag93
ag91
ag91
ag52
ag93
ag93
ag92
ag52
ag92
ag92
ag91
ag93
asaa(lp126
I3
ag39
(g40
tp127
Rp128
g43
(lp129
g45
ag45
ag46
ag46
ag47
ag48
ag45
ag46
ag46
ag45
ag46
ag45
ag45
ag46
ag47
ag45
ag45
ag45
ag47
ag47
ag47
ag48
ag47
ag48
ag47
ag48
ag47
ag48
ag45
ag48
ag48
ag47
ag48
ag45
asg49
(lp130
I00
aI01
aI00
aI01
aI01
aI00
aI01
aI00
aI00
aI01
aI00
aI00
aI01
aI01
aI00
aI00
aI00
aI00
aI00
aI00
aI01
aI00
aI01
aI01
aI01
aI01
aI00
aI00
aI01
aI00
aI00
aI01
aI00
aI00
asg51
I34
sg52
(g53
I0
g54
tp131
sg56
(lp132
(g58
I0
g24
tp133
ag105
ag60
a(g58
I0
g54
tp134
ag64
ag65
a(g58
I0
g61
tp135
ag60
ag134
ag62
ag60
ag62
ag105
ag60
ag64
ag120
a(g63
I0
g69
tp136
ag136
a(g63
I0
g54
tp137
a(g63
I0
g54
tp138
ag138
ag65
a(g63
I0
g54
tp139
ag65
ag67
ag106
ag71
a(g66
I0
g69
tp140
a(g66
I0
g54
tp141
ag70
ag107
a(g66
I0
g61
tp142
ag106
ag141
asg89
(lp143
g52
ag91
ag52
ag93
ag92
ag93
ag91
ag52
ag92
ag91
ag92
ag52
ag91
ag93
ag92
ag52
ag52
ag92
ag93
ag93
ag92
ag91
ag92
ag52
ag92
ag52
ag93
ag92
ag91
ag93
ag91
ag92
ag52
ag91
asg94
(lp144
g52
ag91
ag52
ag93
ag92
ag93
ag91
ag52
ag92
ag91
ag92
ag52
ag91
ag93
ag91
ag52
ag52
ag92
ag93
ag93
ag92
ag91
ag92
ag52
ag92
ag52
ag93
ag92
ag91
ag93
ag91
ag92
ag92
ag93
asg96
(lp145
g52
ag91
ag52
ag93
ag92
ag93
ag91
ag52
ag92
ag91
ag92
ag52
ag91
ag93
ag91
ag52
ag52
ag92
ag93
ag93
ag92
ag91
ag92
ag52
ag92
ag52
ag93
ag92
ag91
ag93
ag91
ag92
ag92
ag93
asaa(lp146
I4
ag39
(g40
tp147
Rp148
g43
(lp149
g45
ag46
ag45
ag46
ag47
ag47
ag46
ag46
ag45
ag45
ag45
ag46
ag45
ag45
ag46
ag45
ag45
ag46
ag45
ag46
ag47
ag48
ag45
ag45
ag45
ag48
ag45
ag45
ag46
ag47
ag47
ag48
ag45
ag48
ag47
ag48
ag47
ag45
ag48
ag47
ag45
ag46
ag47
ag45
ag48
ag45
ag47
ag45
ag45
ag45
ag45
ag48
ag47
ag47
ag45
ag48
ag47
ag45
ag45
ag45
ag48
ag45
ag46
ag47
ag48
ag45
ag47
ag47
ag47
ag47
ag47
ag48
ag45
ag45
ag47
ag46
ag47
ag47
ag47
ag48
ag45
ag45
ag46
asg49
(lp150
I01
aI00
aI01
aI00
aI00
aI01
aI00
aI00
aI00
aI00
aI01
aI00
aI00
aI01
aI00
aI00
aI01
aI00
aI01
aI01
aI01
aI00
aI00
aI00
aI01
aI00
aI00
aI01
aI01
aI00
aI01
aI00
aI01
aI01
aI01
aI00
aI00
aI01
aI01
aI00
aI01
aI00
aI00
aI01
aI00
aI00
aI00
aI00
aI00
aI00
aI01
aI00
aI00
aI00
aI01
aI00
aI00
aI00
aI00
aI01
aI00
aI01
aI01
aI01
aI00
aI00
aI00
aI00
aI00
aI00
aI01
aI01
aI00
aI00
aI01
aI00
aI00
aI00
aI01
aI01
aI00
aI01
aI01
asg51
I83
sg52
g55
sg56
(lp151
(g58
I0
g24
tp152
ag60
ag62
ag60
a(g58
I0
g69
tp153
a(g58
I0
g69
tp154
ag119
ag134
ag62
ag105
ag105
ag60
ag62
a(g58
I0
g61
tp155
ag60
ag62
ag105
ag60
ag62
ag60
ag64
ag65
a(g63
I0
g69
tp156
ag136
ag136
ag121
ag135
ag155
ag60
ag64
a(g63
I0
g54
tp157
ag65
ag156
ag121
ag67
ag106
ag142
ag68
ag70
ag71
ag72
ag78
ag79
a(g63
F1.5707963267948966
g69
tp158
ag87
ag86
a(g63
F1.5707963267948966
g54
tp159
ag158
a(g63
F1.5707963267948966
g69
tp160
ag160
a(g63
F1.5707963267948966
g69
tp161
ag87
a(g63
F1.5707963267948966
g54
tp162
a(g63
F1.5707963267948966
g54
tp163
ag158
ag87
ag162
ag158
ag160
ag160
ag87
ag81
ag84
ag85
ag80
ag86
ag159
ag163
ag163
ag163
ag163
ag80
ag88
ag73
ag74
ag76
ag79
a(g63
F1.5707963267948966
g54
tp164
ag163
ag80
ag88
a(g66
F1.5707963267948966
g61
tp165
ag78
asg89
(lp166
g91
ag92
ag91
ag91
ag92
ag92
ag52
ag93
ag52
ag52
ag91
ag92
ag93
ag91
ag92
ag52
ag91
ag92
ag91
ag93
ag92
ag52
ag52
ag91
ag91
ag93
ag93
ag91
ag93
ag52
ag92
ag92
ag91
ag52
ag92
ag91
ag52
ag91
ag52
ag91
ag91
ag52
ag91
ag91
ag52
ag92
ag91
ag52
ag52
ag93
ag91
ag91
ag52
ag91
ag91
ag91
ag92
ag52
ag52
ag91
ag93
ag91
ag93
ag92
ag52
ag52
ag52
ag52
ag52
ag52
ag92
ag52
ag52
ag52
ag92
ag52
ag52
ag52
ag92
ag52
ag93
ag91
ag93
asg94
(lp167
g91
ag92
ag91
ag91
ag93
ag92
ag52
ag92
ag52
ag52
ag91
ag92
ag93
ag91
ag92
ag52
ag91
ag92
ag91
ag93
ag92
ag92
ag52
ag52
ag91
ag93
ag93
ag91
ag93
ag52
ag92
ag92
ag91
ag52
ag92
ag91
ag91
ag91
ag52
ag91
ag91
ag52
ag91
ag91
ag92
ag92
ag91
ag52
ag52
ag93
ag91
ag91
ag52
ag91
ag91
ag91
ag91
ag52
ag52
ag91
ag93
ag91
ag93
ag92
ag92
ag92
ag52
ag52
ag52
ag52
ag92
ag52
ag52
ag92
ag92
ag52
ag93
ag52
ag92
ag52
ag93
ag91
ag93
asg96
(lp168
g91
ag92
ag91
ag91
ag93
ag92
ag52
ag92
ag52
ag52
ag91
ag92
ag93
ag91
ag92
ag52
ag91
ag92
ag91
ag93
ag92
ag92
ag52
ag52
ag91
ag93
ag93
ag91
ag93
ag52
ag92
ag92
ag91
ag52
ag92
ag91
ag91
ag91
ag52
ag91
ag91
ag52
ag91
ag91
ag92
ag92
ag91
ag52
ag52
ag93
ag91
ag91
ag52
ag91
ag91
ag91
ag91
ag52
ag52
ag91
ag93
ag91
ag93
ag92
ag92
ag92
ag52
ag52
ag52
ag52
ag92
ag52
ag52
ag92
ag92
ag52
ag93
ag52
ag92
ag52
ag93
ag91
ag93
asaa(lp169
I5
ag39
(g40
tp170
Rp171
g43
(lp172
g45
ag46
ag47
ag47
ag47
ag47
ag47
ag48
ag45
ag46
ag47
ag47
ag48
ag45
ag45
ag48
ag45
ag47
ag48
ag47
ag48
ag47
ag48
ag47
ag45
ag46
ag45
ag45
ag45
ag45
ag46
asg49
(lp173
I01
aI01
aI00
aI00
aI00
aI00
aI01
aI00
aI01
aI01
aI00
aI01
aI00
aI00
aI01
aI00
aI00
aI01
aI01
aI01
aI01
aI00
aI01
aI00
aI01
aI00
aI00
aI00
aI00
aI01
aI01
asg51
I31
sg52
g55
sg56
(lp174
(g58
I0
g24
tp175
ag60
ag64
ag138
ag157
ag138
ag157
ag65
ag135
ag60
ag64
ag157
ag65
ag156
ag136
ag121
ag156
ag137
ag65
ag67
ag106
ag71
ag140
ag71
ag72
ag78
ag77
ag73
ag73
ag165
ag78
asg89
(lp176
g91
ag93
ag93
ag52
ag93
ag52
ag52
ag93
ag91
ag93
ag52
ag92
ag52
ag52
ag91
ag92
ag52
ag92
ag52
ag92
ag52
ag93
ag52
ag91
ag91
ag92
ag91
ag52
ag92
ag91
ag93
asg94
(lp177
g91
ag93
ag93
ag52
ag93
ag52
ag92
ag93
ag91
ag93
ag52
ag92
ag92
ag52
ag91
ag92
ag92
ag92
ag52
ag92
ag52
ag93
ag52
ag91
ag91
ag92
ag52
ag52
ag93
ag91
ag93
asg96
(lp178
g91
ag93
ag93
ag52
ag93
ag52
ag92
ag93
ag91
ag93
ag52
ag92
ag92
ag52
ag91
ag92
ag92
ag92
ag52
ag92
ag52
ag93
ag52
ag91
ag91
ag92
ag52
ag52
ag93
ag91
ag93
asaa(lp179
I6
ag39
(g40
tp180
Rp181
g43
(lp182
g45
ag45
ag46
ag45
ag46
ag46
ag46
ag45
ag46
ag47
ag46
ag46
ag47
ag46
ag46
ag47
ag48
ag47
ag48
ag47
ag47
ag45
ag47
ag47
ag47
ag45
ag48
ag47
ag48
ag45
ag46
ag47
ag47
ag45
ag45
ag45
ag48
ag47
ag48
ag48
ag47
ag46
asg49
(lp183
I00
aI01
aI00
aI01
aI00
aI00
aI00
aI01
aI00
aI01
aI00
aI00
aI01
aI00
aI01
aI01
aI00
aI01
aI00
aI00
aI00
aI00
aI00
aI00
aI00
aI01
aI00
aI01
aI00
aI01
aI01
aI00
aI00
aI00
aI00
aI01
aI01
aI01
aI00
aI01
aI01
aI01
asg51
I42
sg52
g55
sg56
(lp184
(g58
I0
g24
tp185
ag105
ag60
ag62
ag60
ag134
ag134
ag62
ag60
ag153
ag119
ag134
ag153
ag119
ag134
ag64
ag65
ag139
ag65
ag139
ag157
ag120
ag137
ag157
ag138
ag120
ag121
ag139
ag65
ag135
ag60
ag64
ag157
ag120
a(g63
I0
g69
tp186
ag186
ag121
ag67
ag106
ag107
ag71
ag76
asg89
(lp187
g52
ag91
ag92
ag91
ag52
ag52
ag92
ag91
ag91
ag92
ag52
ag52
ag92
ag52
ag93
ag92
ag91
ag92
ag91
ag52
ag91
ag52
ag52
ag93
ag91
ag91
ag91
ag92
ag93
ag91
ag93
ag52
ag91
ag91
ag93
ag91
ag52
ag92
ag93
ag52
ag92
ag93
asg94
(lp188
g52
ag91
ag92
ag91
ag52
ag52
ag92
ag91
ag91
ag92
ag52
ag91
ag92
ag52
ag93
ag92
ag91
ag92
ag91
ag52
ag91
ag92
ag52
ag93
ag91
ag91
ag91
ag92
ag93
ag91
ag93
ag52
ag91
ag93
ag93
ag91
ag52
ag92
ag93
ag52
ag92
ag93
asg96
(lp189
g52
ag91
ag92
ag91
ag52
ag52
ag92
ag91
ag91
ag92
ag52
ag91
ag92
ag52
ag93
ag92
ag91
ag92
ag91
ag52
ag91
ag92
ag52
ag93
ag91
ag91
ag91
ag92
ag93
ag91
ag93
ag52
ag91
ag93
ag93
ag91
ag52
ag92
ag93
ag52
ag92
ag93
asaa(lp190
I7
ag39
(g40
tp191
Rp192
g43
(lp193
g45
ag46
ag46
ag47
ag48
ag45
ag45
ag46
ag47
ag47
ag47
ag48
ag47
ag45
ag47
ag45
ag45
ag45
ag48
ag47
ag48
ag47
ag48
ag48
ag48
ag47
ag47
ag46
ag47
ag47
ag45
ag48
ag47
ag47
ag48
ag47
ag48
ag45
ag45
ag45
ag45
ag46
ag47
ag48
ag45
ag47
ag45
ag45
ag48
ag45
ag46
ag47
ag45
ag48
ag47
ag47
ag48
ag47
ag47
ag45
ag48
ag45
ag47
ag48
ag47
ag47
ag45
ag45
ag48
ag47
ag48
ag48
ag47
ag45
ag46
ag47
ag48
ag45
ag48
ag45
ag46
ag47
ag47
ag45
ag45
ag48
ag45
ag46
ag46
ag45
ag46
ag47
ag47
ag48
ag45
ag45
ag48
ag45
ag45
ag45
ag46
ag45
ag45
ag46
ag45
ag46
asg49
(lp194
I01
aI00
aI01
aI01
aI00
aI00
aI01
aI01
aI00
aI00
aI01
aI01
aI00
aI00
aI00
aI00
aI00
aI01
aI01
aI01
aI00
aI01
aI00
aI00
aI01
aI00
aI01
aI00
aI00
aI00
aI01
aI00
aI00
aI01
aI00
aI01
aI01
aI00
aI00
aI00
aI01
aI00
aI00
aI00
aI00
aI00
aI00
aI01
aI00
aI01
aI01
aI00
aI01
aI00
aI00
aI01
aI01
aI00
aI00
aI01
aI00
aI00
aI01
aI00
aI00
aI00
aI00
aI01
aI01
aI01
aI00
aI01
aI00
aI01
aI00
aI01
aI00
aI01
aI01
aI01
aI00
aI00
aI00
aI00
aI01
aI00
aI01
aI00
aI00
aI01
aI01
aI00
aI01
aI00
aI00
aI01
aI01
aI00
aI00
aI01
aI00
aI00
aI01
aI00
aI01
aI01
asg51
I106
sg52
g55
sg56
(lp195
(g58
I0
g24
tp196
ag60
ag134
ag64
ag65
ag135
ag105
ag60
ag64
ag138
ag138
ag65
ag67
ag68
a(g63
I0
g54
tp197
ag120
ag136
ag186
ag121
ag67
ag106
ag142
ag106
ag107
ag107
ag71
ag75
ag76
ag79
ag163
ag158
ag87
ag162
ag163
ag80
ag162
ag80
ag88
ag165
ag73
ag73
ag78
a(g66
F1.5707963267948966
g69
tp198
ag140
ag141
ag197
ag120
ag136
ag121
ag135
ag60
ag64
ag120
ag121
ag139
ag138
ag65
ag67
a(g66
I0
g61
tp199
ag68
ag70
ag141
ag197
ag65
ag139
ag157
ag120
ag136
ag121
ag67
ag106
ag107
ag71
ag72
ag78
ag79
ag80
ag86
ag87
ag88
ag78
ag79
ag164
ag158
ag160
ag87
ag81
ag84
a(g58
F1.5707963267948966
g54
tp200
a(g58
F1.5707963267948966
g61
tp201
ag84
ag85
ag164
ag80
ag86
ag161
ag87
ag88
ag165
ag73
ag78
ag77
ag73
ag78
ag77
ag78
asg89
(lp202
g91
ag52
ag92
ag92
ag93
ag91
ag91
ag93
ag91
ag92
ag92
ag52
ag91
ag52
ag91
ag52
ag93
ag91
ag52
ag91
ag91
ag92
ag93
ag93
ag91
ag52
ag52
ag52
ag52
ag91
ag91
ag91
ag52
ag92
ag91
ag92
ag52
ag91
ag91
ag91
ag91
ag91
ag91
ag52
ag52
ag52
ag52
ag91
ag93
ag91
ag93
ag91
ag91
ag91
ag93
ag92
ag52
ag52
ag91
ag91
ag92
ag91
ag92
ag91
ag52
ag91
ag52
ag91
ag52
ag92
ag93
ag52
ag91
ag91
ag52
ag92
ag91
ag91
ag52
ag91
ag52
ag92
ag91
ag52
ag91
ag93
ag91
ag52
ag92
ag91
ag93
ag92
ag92
ag92
ag93
ag91
ag52
ag93
ag52
ag91
ag92
ag52
ag91
ag92
ag91
ag93
asg94
(lp203
g91
ag52
ag93
ag92
ag93
ag52
ag91
ag93
ag93
ag93
ag92
ag52
ag91
ag52
ag91
ag52
ag93
ag91
ag52
ag92
ag91
ag92
ag93
ag93
ag52
ag52
ag92
ag52
ag52
ag91
ag91
ag91
ag52
ag92
ag91
ag92
ag52
ag93
ag52
ag52
ag91
ag91
ag93
ag92
ag52
ag91
ag52
ag91
ag93
ag91
ag93
ag91
ag91
ag91
ag93
ag92
ag52
ag52
ag91
ag91
ag92
ag52
ag92
ag91
ag52
ag91
ag52
ag91
ag52
ag92
ag93
ag52
ag91
ag91
ag52
ag92
ag92
ag91
ag52
ag91
ag52
ag93
ag91
ag52
ag91
ag93
ag91
ag52
ag92
ag91
ag93
ag93
ag92
ag92
ag93
ag91
ag52
ag93
ag52
ag91
ag92
ag52
ag91
ag92
ag91
ag93
asg96
(lp204
g91
ag52
ag93
ag92
ag93
ag52
ag91
ag93
ag93
ag93
ag92
ag52
ag91
ag52
ag91
ag52
ag93
ag91
ag52
ag92
ag91
ag92
ag93
ag93
ag52
ag52
ag92
ag52
ag52
ag91
ag91
ag91
ag52
ag92
ag91
ag92
ag52
ag93
ag52
ag52
ag91
ag91
ag93
ag92
ag52
ag91
ag52
ag91
ag93
ag91
ag93
ag91
ag91
ag91
ag93
ag92
ag52
ag52
ag91
ag91
ag92
ag52
ag92
ag91
ag52
ag91
ag52
ag91
ag52
ag92
ag93
ag52
ag91
ag91
ag52
ag92
ag92
ag91
ag52
ag91
ag52
ag93
ag91
ag52
ag91
ag93
ag91
ag52
ag92
ag91
ag93
ag93
ag92
ag92
ag93
ag91
ag52
ag93
ag52
ag91
ag92
ag52
ag91
ag92
ag91
ag93
asaa(lp205
I8
ag39
(g40
tp206
Rp207
g43
(lp208
g45
ag46
ag47
ag45
ag45
ag48
ag47
ag47
ag45
ag48
ag47
ag46
ag47
ag47
ag48
ag45
ag45
ag45
ag46
asg49
(lp209
I01
aI01
aI00
aI00
aI01
aI01
aI00
aI00
aI01
aI01
aI01
aI00
aI00
aI01
aI01
aI00
aI00
aI01
aI01
asg51
I19
sg52
g55
sg56
(lp210
(g58
I0
g24
tp211
ag60
ag64
ag120
ag136
ag121
ag67
ag122
ag68
ag70
ag71
ag76
ag79
ag163
ag80
ag88
ag73
ag73
ag78
asg89
(lp212
g91
ag93
ag91
ag52
ag91
ag52
ag93
ag91
ag91
ag52
ag92
ag52
ag91
ag92
ag52
ag52
ag52
ag91
ag93
asg94
(lp213
g91
ag93
ag91
ag52
ag91
ag52
ag93
ag91
ag91
ag52
ag92
ag52
ag52
ag92
ag52
ag52
ag52
ag91
ag93
asg96
(lp214
g91
ag93
ag91
ag52
ag91
ag52
ag93
ag91
ag91
ag52
ag92
ag52
ag52
ag92
ag52
ag52
ag52
ag91
ag93
asaa(lp215
I9
ag39
(g40
tp216
Rp217
g43
(lp218
g45
ag47
ag47
ag45
ag45
ag47
ag45
ag46
ag47
ag46
ag47
ag45
ag48
ag45
ag45
ag46
ag45
ag46
ag47
ag48
ag47
ag47
ag45
ag48
ag47
ag48
ag48
ag48
ag48
ag48
ag47
ag46
asg49
(lp219
I00
aI00
aI00
aI00
aI00
aI00
aI01
aI00
aI01
aI01
aI00
aI01
aI00
aI00
aI01
aI00
aI01
aI01
aI01
aI00
aI00
aI00
aI01
aI01
aI01
aI00
aI00
aI00
aI00
aI01
aI01
aI01
asg51
I32
sg52
g55
sg56
(lp220
(g58
I0
g24
tp221
ag118
a(g58
I0
g69
tp222
a(g58
I0
g61
tp223
ag155
ag118
ag223
ag60
ag153
ag119
ag64
ag120
ag121
ag135
ag155
ag60
ag62
ag60
ag64
ag65
ag139
ag138
ag120
ag121
ag67
ag106
ag107
ag107
ag107
ag107
ag71
ag76
asg89
(lp224
g92
ag52
ag52
ag93
ag92
ag91
ag91
ag93
ag92
ag93
ag91
ag91
ag93
ag93
ag91
ag92
ag91
ag93
ag92
ag52
ag93
ag91
ag91
ag52
ag92
ag93
ag93
ag93
ag93
ag52
ag92
ag93
asg94
(lp225
g92
ag52
ag91
ag93
ag92
ag91
ag91
ag91
ag92
ag93
ag91
ag91
ag93
ag93
ag91
ag92
ag91
ag93
ag92
ag91
ag93
ag91
ag91
ag52
ag92
ag93
ag93
ag93
ag93
ag52
ag92
ag93
asg96
(lp226
g92
ag52
ag91
ag93
ag92
ag91
ag91
ag91
ag92
ag93
ag91
ag91
ag93
ag93
ag91
ag92
ag91
ag93
ag92
ag91
ag93
ag91
ag91
ag52
ag92
ag93
ag93
ag93
ag93
ag52
ag92
ag93
asaatp227
Rp228
aatp229
Rp230
.