ccollections
OrderedDict
p0
((lp1
(lp2
S'combination_dict'
p3
ag0
((lp4
(lp5
S'r_to_g_config'
p6
aS'tl'
p7
aa(lp8
S'num_turns'
p9
aI3
aa(lp10
S'start_direction'
p11
acutils_ms
StartDirection
p12
(I0
tp13
Rp14
aa(lp15
S'assistance_type'
p16
acutils_ms
AssistanceType
p17
(I2
tp18
Rp19
aa(lp20
S'start_mode'
p21
aS't'
p22
aa(lp23
S'ui_given_a_noise'
p24
aF0.7
aa(lp25
S'um_given_ui_noise'
p26
aF0.7
aa(lp27
S'entropy_threshold'
p28
aF0.6
aatp29
Rp30
aa(lp31
S'data'
p32
accollections
defaultdict
p33
(c__builtin__
list
p34
tp35
Rp36
S'a'
p37
(lp38
S'mode_r'
p39
ag39
aS'move_n'
p40
ag40
ag39
aS'mode_l'
p41
ag41
ag39
ag40
ag41
ag39
ag40
ag41
ag41
ag41
ag41
ag41
aS'move_p'
p42
ag42
ag41
ag42
ag39
ag41
ag41
ag41
ag39
ag39
ag40
ag39
ag39
ag40
ag41
ag41
ag41
ag41
ag41
ag41
ag39
ag39
ag39
ag39
ag39
ag40
ag39
ag41
ag40
ag39
ag39
ag40
ag41
ag42
ag39
ag41
ag39
ag39
ag40
ag39
ag39
ag39
ag39
ag39
ag39
ag40
ag41
ag39
ag41
ag41
ag39
ag42
ag41
ag42
ag39
ag41
ag42
ag41
ag40
ag40
ag41
ag41
ag41
ag41
ag39
ag39
ag39
ag39
ag39
ag40
ag39
ag42
ag41
ag41
ag41
ag41
ag39
ag40
ag41
ag39
ag39
ag39
ag40
ag39
ag40
ag39
ag39
ag39
ag41
ag42
ag41
ag40
ag39
ag40
ag39
ag42
asS'assistance_match_with_ground_truth'
p43
(lp44
I00
aI01
aI00
aI00
aI00
aI00
aI00
aI01
aI00
aI00
aI01
aI01
aI00
aI00
aI00
aI00
aI01
aI00
aI01
aI00
aI00
aI00
aI00
aI00
aI00
aI00
aI01
aI00
aI00
aI01
aI00
aI00
aI00
aI00
aI00
aI00
aI00
aI00
aI00
aI00
aI00
aI01
aI00
aI00
aI01
aI00
aI00
aI01
aI01
aI01
aI00
aI00
aI00
aI00
aI01
aI00
aI00
aI00
aI00
aI00
aI00
aI01
aI00
aI00
aI00
aI00
aI00
aI01
aI01
aI01
aI00
aI00
aI01
aI00
aI01
aI00
aI00
aI00
aI00
aI00
aI00
aI00
aI00
aI00
aI00
aI01
aI01
aI01
aI01
aI00
aI00
aI00
aI00
aI01
aI00
aI00
aI00
aI00
aI01
aI00
aI01
aI00
aI00
aI00
aI00
aI01
aI01
aI01
aI00
aI01
aI01
aI01
aI01
asS'total_steps'
p45
I113
sS'sp'
p46
(lp47
(S'p0'
p48
I0
S't'
p49
tp50
a(g48
I0
S'x'
p51
tp52
a(g48
I0
g51
tp53
a(g48
I0
g49
tp54
a(g48
I0
S'y'
p55
tp56
a(g48
I0
g55
tp57
a(g48
I0
g49
tp58
ag52
a(g48
I0
g55
tp59
ag58
ag52
a(S'p1'
p60
I0
g51
tp61
a(g60
I0
g51
tp62
ag62
a(g60
I0
g51
tp63
ag63
a(g60
I0
g49
tp64
a(g60
I0
g49
tp65
a(g60
F1.5707963267948966
g49
tp66
a(g60
I0
g49
tp67
a(g60
I0
g55
tp68
a(g48
I0
g55
tp69
ag57
ag57
ag58
ag50
ag52
ag54
a(g48
I0
g49
tp70
ag52
ag59
a(g48
I0
g55
tp71
ag71
ag57
ag57
ag57
ag58
ag70
ag70
ag70
ag50
ag52
ag54
ag56
a(g48
I0
g51
tp72
ag54
ag70
ag52
ag61
ag64
ag68
a(S'p2'
p73
I0
g55
tp74
a(g73
I0
g49
tp75
a(g73
I0
g49
tp76
a(g73
I0
g51
tp77
a(g73
I0
g49
tp78
ag76
a(g73
I0
g49
tp79
ag79
ag76
ag79
ag77
a(g60
I0
g51
tp80
a(g60
I0
g55
tp81
a(g60
I0
g51
tp82
ag63
ag81
a(g60
I0
g49
tp83
ag66
a(g60
F1.5707963267948966
g55
tp84
a(g60
F1.5707963267948966
g51
tp85
a(g60
F1.5707963267948966
g49
tp86
ag84
a(g48
F1.5707963267948966
g55
tp87
a(g48
F1.5707963267948966
g51
tp88
a(g48
F1.5707963267948966
g51
tp89
a(g48
F1.5707963267948966
g55
tp90
a(g48
F1.5707963267948966
g55
tp91
a(g48
F1.5707963267948966
g55
tp92
ag91
a(g48
F1.5707963267948966
g49
tp93
a(g48
F1.5707963267948966
g49
tp94
ag94
ag94
a(g48
F1.5707963267948966
g49
tp95
a(g48
F1.5707963267948966
g51
tp96
a(g60
F1.5707963267948966
g51
tp97
a(g60
F1.5707963267948966
g55
tp98
a(g73
F1.5707963267948966
g55
tp99
a(g73
F1.5707963267948966
g55
tp100
a(g73
F1.5707963267948966
g55
tp101
ag101
a(g73
F1.5707963267948966
g49
tp102
a(g73
F1.5707963267948966
g51
tp103
a(g73
F1.5707963267948966
g55
tp104
ag102
a(g73
F1.5707963267948966
g49
tp105
a(g73
F1.5707963267948966
g49
tp106
ag103
a(g73
F1.5707963267948966
g49
tp107
ag103
a(g60
F1.5707963267948966
g51
tp108
a(g60
F1.5707963267948966
g51
tp109
ag109
ag86
ag84
ag99
a(g73
F1.5707963267948966
g51
tp110
ag107
ag103
a(S'p3'
p111
F1.5707963267948966
g51
tp112
a(g111
F1.5707963267948966
g55
tp113
a(S'p4'
p114
F1.5707963267948966
g55
tp115
asS's'
p116
(lp117
(g48
I0
g22
tp118
ag50
ag52
ag53
ag54
ag56
ag57
ag58
ag52
ag59
ag58
ag52
ag61
ag62
ag62
ag63
ag63
ag64
ag65
ag66
ag67
ag68
ag69
ag57
ag57
ag58
ag50
ag52
ag54
ag70
ag52
ag59
ag71
ag71
ag57
ag57
ag57
ag58
ag70
ag70
ag70
ag50
ag52
ag54
ag56
ag72
ag54
ag70
ag52
ag61
ag64
ag68
ag74
ag75
ag76
ag77
ag78
ag76
ag79
ag79
ag76
ag79
ag77
ag80
ag81
ag82
ag63
ag81
ag83
ag66
ag84
ag85
ag86
ag84
ag87
ag88
ag89
ag90
ag91
ag92
ag91
ag93
ag94
ag94
ag94
ag95
ag96
ag97
ag98
ag99
ag100
ag101
ag101
ag102
ag103
ag104
ag102
ag105
ag106
ag103
ag107
ag103
ag108
ag109
ag109
ag86
ag84
ag99
ag110
ag107
ag103
ag112
ag113
asS'ui'
p119
(lp120
S'hs'
p121
aS'hp'
p122
aS'ss'
p123
ag121
ag122
ag121
ag123
ag122
ag123
ag122
ag122
ag121
ag123
ag122
ag121
ag122
ag46
ag46
ag122
ag121
ag121
ag46
ag46
ag46
ag123
ag122
ag122
ag122
ag122
ag122
ag121
ag121
ag121
ag121
ag46
ag123
ag123
ag122
ag46
ag122
ag123
ag122
ag121
ag121
ag46
ag121
ag122
ag122
ag121
ag121
ag121
ag46
ag122
ag122
ag122
ag121
ag123
ag123
ag121
ag123
ag123
ag123
ag123
ag123
ag123
ag46
ag123
ag122
ag122
ag123
ag46
ag123
ag121
ag121
ag46
ag122
ag123
ag123
ag121
ag46
ag121
ag121
ag123
ag123
ag123
ag122
ag123
ag46
ag122
ag122
ag123
ag46
ag46
ag123
ag46
ag123
ag123
ag122
ag122
ag123
ag123
ag122
ag123
ag123
ag123
ag121
ag46
ag121
ag121
ag122
ag122
ag122
ag46
asS'um_before'
p124
(lp125
g123
ag122
ag46
ag121
ag121
ag46
ag122
ag122
ag122
ag122
ag122
ag123
ag46
ag46
ag123
ag123
ag121
ag123
ag46
ag123
ag121
ag123
ag46
ag46
ag122
ag123
ag122
ag121
ag46
ag122
ag122
ag123
ag123
ag46
ag46
ag46
ag122
ag46
ag46
ag46
ag123
ag122
ag121
ag121
ag121
ag121
ag46
ag122
ag123
ag121
ag121
ag46
ag122
ag123
ag122
ag121
ag123
ag46
ag46
ag123
ag46
ag122
ag46
ag122
ag121
ag123
ag122
ag122
ag46
ag121
ag121
ag121
ag121
ag123
ag121
ag46
ag122
ag46
ag123
ag46
ag122
ag123
ag123
ag123
ag46
ag122
ag123
ag122
ag46
ag46
ag123
ag123
ag122
ag122
ag122
ag122
ag123
ag46
ag122
ag121
ag122
ag46
ag123
ag123
ag121
ag121
ag46
ag121
ag121
ag122
ag123
ag122
ag46
asS'um_after'
p126
(lp127
g123
ag122
ag46
ag121
ag121
ag46
ag122
ag122
ag122
ag122
ag122
ag123
ag46
ag46
ag123
ag123
ag121
ag123
ag46
ag123
ag121
ag123
ag46
ag46
ag122
ag123
ag122
ag121
ag46
ag122
ag122
ag123
ag123
ag46
ag46
ag46
ag122
ag46
ag46
ag46
ag123
ag122
ag121
ag121
ag121
ag121
ag46
ag122
ag123
ag121
ag121
ag46
ag122
ag123
ag122
ag121
ag123
ag46
ag46
ag123
ag46
ag122
ag46
ag122
ag121
ag123
ag122
ag122
ag46
ag121
ag121
ag121
ag121
ag123
ag121
ag46
ag122
ag46
ag123
ag46
ag122
ag123
ag123
ag123
ag46
ag122
ag123
ag122
ag46
ag46
ag123
ag123
ag122
ag122
ag122
ag122
ag123
ag46
ag122
ag121
ag122
ag46
ag123
ag123
ag121
ag121
ag46
ag121
ag121
ag122
ag123
ag122
ag46
asaa(lp128
S'index'
p129
aI51968
aatp130
Rp131
.