ccollections
OrderedDict
p0
((lp1
(lp2
S'index'
p3
aI0
aa(lp4
S'combination_dict'
p5
ag0
((lp6
(lp7
S'r_to_g_config'
p8
aS'tr'
p9
aa(lp10
S'num_turns'
p11
aI1
aa(lp12
S'start_direction'
p13
acutils_ms
StartDirection
p14
(I3
tp15
Rp16
aa(lp17
S'assistance_type'
p18
acutils_ms
AssistanceType
p19
(I0
tp20
Rp21
aa(lp22
S'start_mode'
p23
aS't'
p24
aa(lp25
S'ui_given_a_noise'
p26
aF0.1
aa(lp27
S'um_given_ui_noise'
p28
aF0.1
aa(lp29
S'entropy_threshold'
p30
aF0.5
aa(lp31
S'is_assistance'
p32
aI01
aatp33
Rp34
aa(lp35
S'trials'
p36
ag0
((lp37
(lp38
I0
accollections
defaultdict
p39
(c__builtin__
list
p40
tp41
Rp42
S'a'
p43
(lp44
S'mode_r'
p45
ag45
aS'move_p'
p46
ag46
aS'mode_l'
p47
ag46
ag47
ag46
ag47
ag46
ag45
ag45
ag45
ag47
ag46
asS'assistance_match_with_ground_truth'
p48
(lp49
I00
aI01
aI00
aI01
aI01
aI01
aI01
aI00
aI01
aI01
aI00
aI00
aI00
aI01
aI01
asS'total_steps'
p50
I15
sS'sp'
p51
(S'p2'
p52
F1.5707963267948966
S'y'
p53
tp54
sS's'
p55
(lp56
(S'p0'
p57
I0
g24
tp58
a(g57
I0
S't'
p59
tp60
a(g57
I0
S'x'
p61
tp62
a(g57
I0
g61
tp63
a(S'p1'
p64
I0
g61
tp65
a(g64
I0
g59
tp66
a(g64
F1.5707963267948966
g59
tp67
a(g64
F1.5707963267948966
g53
tp68
a(g57
F1.5707963267948966
g53
tp69
a(g57
F1.5707963267948966
g61
tp70
a(g64
F1.5707963267948966
g61
tp71
a(g64
F1.5707963267948966
g61
tp72
ag72
a(g64
F1.5707963267948966
g59
tp73
ag68
asS'ui'
p74
(lp75
g51
aS'hp'
p76
ag51
ag51
aS'hs'
p77
ag51
ag77
ag51
ag77
ag77
ag51
ag51
ag76
ag77
ag76
asS'um_before'
p78
(lp79
g51
ag76
aS'ss'
p80
ag51
ag77
ag51
ag77
ag80
ag77
ag51
ag51
ag51
ag77
ag77
ag51
asS'um_after'
p81
(lp82
g51
ag76
ag80
ag51
ag77
ag51
ag77
ag80
ag77
ag51
ag51
ag51
ag77
ag77
ag51
asaa(lp83
I1
ag39
(g40
tp84
Rp85
g43
(lp86
g45
ag47
ag46
ag47
ag47
ag47
ag46
ag47
ag46
asg48
(lp87
I00
aI01
aI01
aI00
aI00
aI01
aI01
aI01
aI01
asg50
I9
sg51
g54
sg55
(lp88
(g57
I0
g24
tp89
a(g57
I0
g53
tp90
a(g57
I0
g61
tp91
ag65
a(g64
I0
g61
tp92
ag92
ag66
ag67
ag68
asg74
(lp93
g77
ag77
ag51
ag77
ag77
ag77
ag51
ag77
ag51
asg78
(lp94
g77
ag77
ag51
ag51
ag51
ag77
ag51
ag77
ag51
asg81
(lp95
g77
ag77
ag51
ag51
ag51
ag77
ag51
ag77
ag51
asaa(lp96
I2
ag39
(g40
tp97
Rp98
g43
(lp99
g45
ag45
ag46
ag47
ag46
ag47
ag46
ag47
ag46
ag45
ag45
ag47
ag46
asg48
(lp100
I00
aI01
aI01
aI01
aI01
aI01
aI00
aI01
aI01
aI00
aI00
aI01
aI01
asg50
I13
sg51
g54
sg55
(lp101
(g57
I0
g24
tp102
ag60
ag62
ag65
ag66
ag67
ag68
ag69
ag70
ag71
a(g64
F1.5707963267948966
g61
tp103
ag73
ag68
asg74
(lp104
g51
ag76
ag51
ag77
ag51
ag77
ag80
ag77
ag51
ag80
ag77
ag77
ag51
asg78
(lp105
g51
ag76
ag51
ag77
ag51
ag77
ag80
ag77
ag51
ag80
ag77
ag77
ag51
asg81
(lp106
g51
ag76
ag51
ag77
ag51
ag77
ag80
ag77
ag51
ag80
ag77
ag77
ag51
asaa(lp107
I3
ag39
(g40
tp108
Rp109
g43
(lp110
g45
ag46
ag47
ag46
ag47
ag46
asg48
(lp111
I01
aI01
aI01
aI01
aI01
aI01
asg50
I6
sg51
g54
sg55
(lp112
(g57
I0
g24
tp113
ag62
ag65
ag66
ag67
ag68
asg74
(lp114
g76
ag51
ag77
ag51
ag77
ag51
asg78
(lp115
g76
ag51
ag77
ag51
ag77
ag51
asg81
(lp116
g76
ag51
ag77
ag51
ag77
ag51
asaa(lp117
I4
ag39
(g40
tp118
Rp119
g43
(lp120
g45
ag46
ag47
ag47
ag46
ag47
ag46
asg48
(lp121
I01
aI01
aI00
aI01
aI01
aI01
aI01
asg50
I7
sg51
g54
sg55
(lp122
(g57
I0
g24
tp123
ag62
ag65
ag92
ag66
ag67
ag68
asg74
(lp124
g76
ag51
ag51
ag77
ag51
ag77
ag51
asg78
(lp125
g76
ag51
ag51
ag77
ag51
ag77
ag51
asg81
(lp126
g76
ag51
ag51
ag77
ag51
ag77
ag51
asaa(lp127
I5
ag39
(g40
tp128
Rp129
g43
(lp130
g45
ag46
ag47
ag46
ag47
ag46
asg48
(lp131
I01
aI01
aI01
aI01
aI01
aI01
asg50
I6
sg51
g54
sg55
(lp132
(g57
I0
g24
tp133
ag62
ag65
ag66
ag67
ag68
asg74
(lp134
g76
ag51
ag77
ag51
ag77
ag51
asg78
(lp135
g76
ag51
ag77
ag51
ag77
ag51
asg81
(lp136
g76
ag51
ag77
ag51
ag77
ag51
asaa(lp137
I6
ag39
(g40
tp138
Rp139
g43
(lp140
g45
ag46
ag47
ag46
ag47
ag46
ag47
ag46
asg48
(lp141
I01
aI00
aI01
aI01
aI01
aI01
aI01
aI01
asg50
I8
sg51
g54
sg55
(lp142
(g57
I0
g24
tp143
ag62
a(g57
I0
g53
tp144
ag91
ag65
ag66
ag67
ag68
asg74
(lp145
g76
ag51
ag77
ag51
ag77
ag51
ag77
ag51
asg78
(lp146
g76
ag76
ag77
ag51
ag77
ag51
ag77
ag51
asg81
(lp147
g76
ag76
ag77
ag51
ag77
ag51
ag77
ag51
asaa(lp148
I7
ag39
(g40
tp149
Rp150
g43
(lp151
g45
ag46
ag47
ag47
ag46
ag47
ag46
asg48
(lp152
I01
aI01
aI00
aI01
aI01
aI01
aI01
asg50
I7
sg51
g54
sg55
(lp153
(g57
I0
g24
tp154
ag62
ag65
ag92
ag66
ag67
ag68
asg74
(lp155
g76
ag51
ag51
ag77
ag51
ag77
ag51
asg78
(lp156
g76
ag51
ag51
ag77
ag51
ag77
ag51
asg81
(lp157
g76
ag51
ag51
ag77
ag51
ag77
ag51
asaa(lp158
I8
ag39
(g40
tp159
Rp160
g43
(lp161
g45
ag45
ag46
ag47
ag46
ag47
ag46
asg48
(lp162
I00
aI01
aI01
aI01
aI01
aI01
aI01
asg50
I7
sg51
g54
sg55
(lp163
(g57
I0
g24
tp164
a(g57
I0
g59
tp165
ag62
ag65
ag66
ag67
ag68
asg74
(lp166
g76
ag76
ag51
ag77
ag51
ag77
ag51
asg78
(lp167
g80
ag76
ag51
ag77
ag51
ag77
ag51
asg81
(lp168
g80
ag76
ag51
ag77
ag51
ag77
ag51
asaa(lp169
I9
ag39
(g40
tp170
Rp171
g43
(lp172
g45
ag46
ag47
ag46
ag47
ag46
asg48
(lp173
I01
aI01
aI01
aI01
aI01
aI01
asg50
I6
sg51
g54
sg55
(lp174
(g57
I0
g24
tp175
ag62
ag65
ag66
ag67
ag68
asg74
(lp176
g76
ag51
ag77
ag51
ag77
ag51
asg78
(lp177
g76
ag51
ag77
ag51
ag77
ag51
asg81
(lp178
g76
ag51
ag77
ag51
ag77
ag51
asaatp179
Rp180
aatp181
Rp182
.