ccollections
OrderedDict
p0
((lp1
(lp2
S'combination_dict'
p3
ag0
((lp4
(lp5
S'r_to_g_config'
p6
aS'tr'
p7
aa(lp8
S'num_turns'
p9
aI3
aa(lp10
S'start_direction'
p11
acutils_ms
StartDirection
p12
(I0
tp13
Rp14
aa(lp15
S'assistance_type'
p16
acutils_ms
AssistanceType
p17
(I2
tp18
Rp19
aa(lp20
S'start_mode'
p21
aS'y'
p22
aa(lp23
S'ui_given_a_noise'
p24
aF0.3
aa(lp25
S'um_given_ui_noise'
p26
aF0.5
aa(lp27
S'entropy_threshold'
p28
aF0.7
aatp29
Rp30
aa(lp31
S'data'
p32
accollections
defaultdict
p33
(c__builtin__
list
p34
tp35
Rp36
S'a'
p37
(lp38
S'mode_l'
p39
ag39
ag39
aS'mode_r'
p40
aS'move_p'
p41
ag40
ag40
ag41
ag39
ag41
ag40
ag41
ag40
ag39
ag39
ag41
ag39
ag40
ag40
ag40
ag40
ag41
ag40
ag40
ag41
ag39
ag39
ag41
ag39
ag41
ag40
ag41
ag39
ag41
ag40
ag41
ag40
ag41
ag40
ag39
ag40
ag41
ag40
ag41
ag41
ag40
ag41
ag39
ag39
ag39
ag40
ag41
ag39
ag39
ag41
ag40
ag41
ag40
ag41
ag40
ag41
asS'assistance_match_with_ground_truth'
p42
(lp43
I00
aI00
aI00
aI01
aI01
aI00
aI01
aI00
aI01
aI01
aI01
aI00
aI00
aI00
aI01
aI00
aI00
aI00
aI00
aI00
aI01
aI01
aI00
aI01
aI00
aI00
aI01
aI00
aI01
aI01
aI01
aI00
aI01
aI01
aI01
aI01
aI01
aI00
aI00
aI00
aI01
aI01
aI01
aI00
aI01
aI01
aI00
aI00
aI00
aI00
aI01
aI00
aI00
aI01
aI01
aI01
aI00
aI01
aI00
aI01
aI01
asS'total_steps'
p44
I61
sS'sp'
p45
(lp46
(S'p0'
p47
I0
S'y'
p48
tp49
a(g47
I0
g48
tp50
a(g47
I0
S't'
p51
tp52
a(g47
I0
S'x'
p53
tp54
a(S'p1'
p55
I0
g53
tp56
a(g55
I0
g53
tp57
a(g55
I0
g48
tp58
a(g47
I0
g48
tp59
a(g47
I0
g53
tp60
ag56
ag58
a(g55
I0
g53
tp61
a(g55
I0
g51
tp62
a(g55
I0
g51
tp63
a(g55
I0
g48
tp64
ag59
ag52
a(g47
I0
g51
tp65
ag65
ag65
ag54
ag56
ag57
ag58
a(g55
I0
g51
tp66
ag63
ag64
ag59
ag60
ag56
ag58
ag59
ag60
ag56
ag58
a(S'p2'
p67
I0
g48
tp68
a(g67
I0
g51
tp69
a(g67
I0
g48
tp70
a(g67
I0
g53
tp71
a(g55
I0
g53
tp72
ag58
ag68
ag69
a(g67
I0
g51
tp73
a(g67
F1.5707963267948966
g51
tp74
a(g67
F1.5707963267948966
g53
tp75
a(g67
F1.5707963267948966
g48
tp76
a(g67
F1.5707963267948966
g48
tp77
a(g67
F1.5707963267948966
g48
tp78
a(g67
F1.5707963267948966
g51
tp79
ag75
ag76
ag77
a(g67
F1.5707963267948966
g53
tp80
a(S'p3'
p81
F1.5707963267948966
g53
tp82
a(g81
F1.5707963267948966
g48
tp83
a(g81
F1.5707963267948966
g53
tp84
ag83
ag84
ag83
a(S'p4'
p85
F1.5707963267948966
g48
tp86
asS's'
p87
(lp88
(g47
I0
g22
tp89
ag49
ag50
ag52
ag54
ag56
ag57
ag58
ag59
ag60
ag56
ag58
ag61
ag62
ag63
ag64
ag59
ag52
ag65
ag65
ag65
ag54
ag56
ag57
ag58
ag66
ag63
ag64
ag59
ag60
ag56
ag58
ag59
ag60
ag56
ag58
ag68
ag69
ag70
ag71
ag72
ag58
ag68
ag69
ag73
ag74
ag75
ag76
ag77
ag78
ag79
ag75
ag76
ag77
ag80
ag82
ag83
ag84
ag83
ag84
ag83
asS'ui'
p90
(lp91
S'hs'
p92
ag45
ag92
aS'hp'
p93
ag45
aS'ss'
p94
ag93
ag94
ag92
ag45
ag93
ag94
ag93
ag92
ag93
ag45
ag93
ag94
ag94
ag93
ag93
ag45
ag94
ag93
ag45
ag92
ag92
ag94
ag92
ag45
ag93
ag94
ag45
ag45
ag93
ag45
ag93
ag94
ag94
ag92
ag93
ag45
ag93
ag94
ag45
ag92
ag94
ag94
ag45
ag93
ag93
ag45
ag94
ag92
ag45
ag93
ag92
ag93
ag92
ag93
ag45
asS'um_before'
p95
(lp96
g94
ag45
ag93
ag93
ag45
ag94
ag93
ag94
ag92
ag45
ag93
ag92
ag92
ag94
ag92
ag94
ag93
ag94
ag94
ag94
ag93
ag45
ag94
ag93
ag93
ag94
ag92
ag94
ag92
ag45
ag93
ag94
ag92
ag45
ag93
ag45
ag93
ag92
ag92
ag94
ag93
ag45
ag93
ag94
ag45
ag93
ag93
ag94
ag45
ag93
ag93
ag93
ag94
ag92
ag45
ag93
ag92
ag93
ag92
ag93
ag45
asS'um_after'
p97
(lp98
g94
ag45
ag93
ag93
ag45
ag94
ag93
ag94
ag92
ag45
ag93
ag92
ag92
ag94
ag92
ag94
ag93
ag94
ag94
ag94
ag93
ag45
ag94
ag93
ag93
ag94
ag92
ag94
ag92
ag45
ag93
ag94
ag92
ag45
ag93
ag45
ag93
ag92
ag92
ag94
ag93
ag45
ag93
ag94
ag45
ag93
ag93
ag94
ag45
ag93
ag93
ag93
ag94
ag92
ag45
ag93
ag92
ag93
ag92
ag93
ag45
asaa(lp99
S'index'
p100
aI23529
aatp101
Rp102
.