ccollections
OrderedDict
p0
((lp1
(lp2
S'index'
p3
aI10923
aa(lp4
S'combination_dict'
p5
ag0
((lp6
(lp7
S'r_to_g_config'
p8
aS'bl'
p9
aa(lp10
S'num_turns'
p11
aI3
aa(lp12
S'start_direction'
p13
acutils_ms
StartDirection
p14
(I1
tp15
Rp16
aa(lp17
S'assistance_type'
p18
acutils_ms
AssistanceType
p19
(I0
tp20
Rp21
aa(lp22
S'start_mode'
p23
aS'x'
p24
aa(lp25
S'ui_given_a_noise'
p26
aF0.3
aa(lp27
S'um_given_ui_noise'
p28
aF0.1
aa(lp29
S'entropy_threshold'
p30
aF0.6
aa(lp31
S'is_assistance'
p32
aI00
aatp33
Rp34
aa(lp35
S'trials'
p36
ag0
((lp37
(lp38
I0
accollections
defaultdict
p39
(c__builtin__
list
p40
tp41
Rp42
S'a'
p43
(lp44
S'mode_r'
p45
aS'move_n'
p46
aS'mode_l'
p47
ag46
ag47
ag46
ag45
ag47
ag46
ag45
aS'move_p'
p48
ag45
ag47
ag45
ag45
ag46
ag45
ag46
ag45
ag48
ag47
ag48
ag45
ag48
ag45
ag46
asS'assistance_match_with_ground_truth'
p49
(lp50
I01
aI00
aI01
aI01
aI01
aI01
aI00
aI01
aI01
aI01
aI00
aI00
aI00
aI00
aI01
aI00
aI01
aI01
aI01
aI00
aI01
aI01
aI00
aI01
aI01
aI01
asS'total_steps'
p51
I26
sS'sp'
p52
(S'p4'
p53
F1.5707963267948966
S'x'
p54
tp55
sS's'
p56
(lp57
(S'p0'
p58
I0
g24
tp59
a(g58
I0
S'y'
p60
tp61
a(g58
I0
S't'
p62
tp63
a(g58
I0
g60
tp64
a(S'p1'
p65
I0
g60
tp66
a(g65
I0
g54
tp67
a(S'p2'
p68
I0
g54
tp69
a(g68
I0
g62
tp70
a(g68
I0
g60
tp71
a(S'p3'
p72
I0
g60
tp73
a(g72
I0
g62
tp74
a(g72
I0
g60
tp75
a(g72
I0
g54
tp76
a(g68
I0
g54
tp77
a(g68
I0
g54
tp78
a(g68
I0
g60
tp79
a(g68
I0
g54
tp80
ag79
ag73
ag74
a(g72
I0
g54
tp81
a(g72
I0
g62
tp82
a(g72
F1.5707963267948966
g62
tp83
a(g72
I0
g62
tp84
ag83
a(g72
F1.5707963267948966
g54
tp85
asS'ui'
p86
(lp87
S'hp'
p88
aS'hs'
p89
ag89
aS'ss'
p90
ag89
ag90
ag89
ag89
ag90
ag88
ag89
ag88
ag52
ag90
ag88
ag89
ag88
ag90
ag88
ag88
ag89
ag52
ag88
ag52
ag88
ag90
asS'um_before'
p91
(lp92
g88
ag88
ag89
ag90
ag89
ag90
ag89
ag89
ag90
ag88
ag89
ag89
ag52
ag90
ag88
ag89
ag88
ag90
ag88
ag88
ag89
ag52
ag90
ag52
ag88
ag90
asS'um_after'
p93
(lp94
g88
ag88
ag89
ag90
ag89
ag90
ag89
ag89
ag90
ag88
ag89
ag89
ag52
ag90
ag88
ag89
ag88
ag90
ag88
ag88
ag89
ag52
ag90
ag52
ag88
ag90
asaa(lp95
I1
ag39
(g40
tp96
Rp97
g43
(lp98
g45
ag47
ag46
ag45
ag47
ag46
ag46
ag46
ag46
ag47
ag47
ag46
ag45
ag46
ag45
ag48
ag45
ag46
asg49
(lp99
I00
aI01
aI00
aI00
aI01
aI00
aI00
aI00
aI01
aI00
aI01
aI01
aI01
aI01
aI01
aI01
aI01
aI01
asg51
I18
sg52
g55
sg56
(lp100
(g58
I0
g24
tp101
a(g58
I0
g62
tp102
ag64
a(g58
I0
g54
tp103
ag102
ag64
a(g58
I0
g60
tp104
ag104
ag104
ag66
a(g65
I0
g60
tp105
ag67
ag69
ag79
ag73
ag74
ag83
ag85
asg86
(lp106
g88
ag89
ag89
ag89
ag89
ag52
ag90
ag52
ag90
ag52
ag89
ag90
ag88
ag90
ag88
ag52
ag88
ag90
asg91
(lp107
g89
ag89
ag89
ag89
ag89
ag52
ag52
ag52
ag90
ag90
ag89
ag90
ag88
ag90
ag88
ag52
ag88
ag90
asg93
(lp108
g89
ag89
ag89
ag89
ag89
ag52
ag52
ag52
ag90
ag90
ag89
ag90
ag88
ag90
ag88
ag52
ag88
ag90
asaa(lp109
I2
ag39
(g40
tp110
Rp111
g43
(lp112
g45
ag47
ag47
ag46
ag47
ag46
ag45
ag45
ag46
ag47
ag46
ag45
ag46
ag45
ag46
ag45
ag45
ag48
ag45
ag45
ag46
ag45
ag47
ag45
ag46
ag45
ag46
ag45
ag45
ag46
ag45
ag45
ag45
ag46
ag47
ag47
ag46
ag45
ag46
ag45
ag45
ag46
ag47
ag47
ag47
ag47
ag45
ag46
ag45
ag46
ag47
ag46
ag45
ag46
ag47
ag46
ag45
ag46
ag47
ag46
asg49
(lp113
I00
aI00
aI01
aI01
aI01
aI01
aI00
aI01
aI00
aI01
aI00
aI01
aI01
aI01
aI01
aI00
aI01
aI01
aI00
aI01
aI00
aI00
aI00
aI01
aI00
aI01
aI00
aI00
aI01
aI00
aI00
aI00
aI01
aI01
aI00
aI01
aI00
aI01
aI00
aI00
aI01
aI00
aI00
aI00
aI00
aI00
aI01
aI01
aI01
aI01
aI01
aI00
aI01
aI00
aI01
aI00
aI01
aI01
aI01
aI01
asg51
I60
sg52
g55
sg56
(lp114
(g58
I0
g24
tp115
ag102
a(g58
I0
g62
tp116
ag64
ag66
ag67
ag69
a(g68
I0
g54
tp117
ag79
a(g65
I0
g60
tp118
ag67
a(g65
I0
g62
tp119
a(g65
I0
g54
tp120
ag69
ag79
ag73
a(g72
I0
g60
tp121
ag74
ag83
a(g72
F1.5707963267948966
g62
tp122
ag85
a(g68
F1.5707963267948966
g54
tp123
a(g68
F1.5707963267948966
g62
tp124
a(g68
F1.5707963267948966
g54
tp125
a(g68
F1.5707963267948966
g60
tp126
a(g68
F1.5707963267948966
g54
tp127
ag126
ag127
a(g68
F1.5707963267948966
g54
tp128
ag126
ag127
a(g68
F1.5707963267948966
g54
tp129
ag128
ag126
a(g72
F1.5707963267948966
g60
tp130
a(g72
F1.5707963267948966
g60
tp131
a(g72
F1.5707963267948966
g54
tp132
ag123
ag126
ag127
ag128
ag126
a(g65
F1.5707963267948966
g60
tp133
a(g65
F1.5707963267948966
g60
tp134
ag134
a(g65
F1.5707963267948966
g60
tp135
a(g65
F1.5707963267948966
g62
tp136
a(g65
F1.5707963267948966
g54
tp137
a(g68
F1.5707963267948966
g54
tp138
ag126
ag130
ag132
a(g72
F1.5707963267948966
g62
tp139
ag85
a(g72
F1.5707963267948966
g60
tp140
ag132
ag123
ag126
ag130
ag132
asg86
(lp141
g89
ag52
ag89
ag90
ag89
ag90
ag90
ag88
ag89
ag89
ag89
ag88
ag90
ag88
ag90
ag88
ag88
ag52
ag52
ag88
ag52
ag89
ag89
ag88
ag89
ag88
ag89
ag52
ag88
ag89
ag90
ag89
ag88
ag90
ag52
ag89
ag90
ag88
ag89
ag88
ag88
ag52
ag90
ag90
ag52
ag89
ag88
ag90
ag88
ag90
ag89
ag89
ag88
ag89
ag89
ag52
ag88
ag90
ag89
ag90
asg91
(lp142
g89
ag52
ag89
ag90
ag89
ag90
ag52
ag88
ag52
ag89
ag89
ag88
ag90
ag88
ag90
ag52
ag88
ag52
ag52
ag88
ag52
ag89
ag88
ag88
ag89
ag88
ag89
ag52
ag88
ag89
ag90
ag52
ag88
ag90
ag52
ag89
ag52
ag88
ag89
ag52
ag88
ag52
ag90
ag90
ag52
ag88
ag88
ag90
ag88
ag90
ag89
ag89
ag88
ag88
ag89
ag52
ag88
ag90
ag89
ag90
asg93
(lp143
g89
ag52
ag89
ag90
ag89
ag90
ag52
ag88
ag52
ag89
ag89
ag88
ag90
ag88
ag90
ag52
ag88
ag52
ag52
ag88
ag52
ag89
ag88
ag88
ag89
ag88
ag89
ag52
ag88
ag89
ag90
ag52
ag88
ag90
ag52
ag89
ag52
ag88
ag89
ag52
ag88
ag52
ag90
ag90
ag52
ag88
ag88
ag90
ag88
ag90
ag89
ag89
ag88
ag88
ag89
ag52
ag88
ag90
ag89
ag90
asaa(lp144
I3
ag39
(g40
tp145
Rp146
g43
(lp147
g45
ag47
ag46
ag45
ag47
ag46
ag47
ag47
ag47
ag47
ag45
ag47
ag47
ag46
ag47
ag46
ag45
ag46
ag45
ag45
ag45
ag48
ag45
ag48
ag45
ag47
ag46
asg49
(lp148
I00
aI01
aI00
aI00
aI01
aI00
aI00
aI00
aI00
aI00
aI00
aI00
aI01
aI01
aI01
aI01
aI01
aI01
aI00
aI00
aI01
aI01
aI00
aI01
aI00
aI01
aI01
asg51
I27
sg52
g55
sg56
(lp149
(g58
I0
g24
tp150
ag102
ag64
ag103
ag102
ag64
ag63
a(g58
I0
g62
tp151
ag116
ag116
a(g58
I0
g54
tp152
ag102
ag151
ag64
ag66
ag67
ag69
ag79
ag73
a(g72
I0
g60
tp153
ag121
ag74
ag83
ag84
ag83
a(g72
F1.5707963267948966
g60
tp154
ag132
asg86
(lp155
g88
ag89
ag89
ag89
ag89
ag90
ag90
ag52
ag52
ag88
ag88
ag90
ag89
ag52
ag89
ag90
ag88
ag90
ag88
ag52
ag88
ag52
ag90
ag52
ag88
ag89
ag90
asg91
(lp156
g89
ag89
ag89
ag89
ag89
ag88
ag90
ag52
ag52
ag88
ag89
ag90
ag89
ag90
ag89
ag90
ag88
ag90
ag90
ag52
ag88
ag52
ag90
ag52
ag89
ag89
ag90
asg93
(lp157
g89
ag89
ag89
ag89
ag89
ag88
ag90
ag52
ag52
ag88
ag89
ag90
ag89
ag90
ag89
ag90
ag88
ag90
ag90
ag52
ag88
ag52
ag90
ag52
ag89
ag89
ag90
asaa(lp158
I4
ag39
(g40
tp159
Rp160
g43
(lp161
g45
ag47
ag47
ag46
ag45
ag45
ag46
ag47
ag46
ag45
ag46
ag47
ag46
ag47
ag46
ag45
ag46
ag45
ag48
ag45
ag46
asg49
(lp162
I00
aI00
aI01
aI00
aI00
aI01
aI01
aI01
aI00
aI01
aI00
aI01
aI01
aI01
aI01
aI01
aI01
aI01
aI01
aI01
aI01
asg51
I21
sg52
g55
sg56
(lp163
(g58
I0
g24
tp164
ag102
ag116
ag64
ag103
a(g58
I0
g54
tp165
ag61
ag66
ag67
a(g58
I0
g54
tp166
ag61
ag63
ag64
ag66
ag67
ag69
ag79
ag73
ag74
ag83
ag85
asg86
(lp167
g89
ag89
ag89
ag89
ag90
ag88
ag90
ag89
ag52
ag88
ag89
ag89
ag90
ag89
ag90
ag88
ag90
ag88
ag52
ag88
ag90
asg91
(lp168
g89
ag52
ag89
ag89
ag90
ag88
ag90
ag89
ag52
ag88
ag88
ag89
ag90
ag89
ag90
ag88
ag90
ag88
ag52
ag88
ag90
asg93
(lp169
g89
ag52
ag89
ag89
ag90
ag88
ag90
ag89
ag52
ag88
ag88
ag89
ag90
ag89
ag90
ag88
ag90
ag88
ag52
ag88
ag90
asaa(lp170
I5
ag39
(g40
tp171
Rp172
g43
(lp173
g45
ag46
ag47
ag46
ag45
ag47
ag46
ag45
ag48
ag47
ag48
ag45
ag46
asg49
(lp174
I01
aI01
aI01
aI01
aI00
aI01
aI01
aI01
aI00
aI01
aI01
aI01
aI01
asg51
I13
sg52
g55
sg56
(lp175
(g58
I0
g24
tp176
ag61
ag66
ag67
ag69
ag70
ag71
ag73
ag74
ag81
ag82
ag83
ag85
asg86
(lp177
g88
ag90
ag89
ag90
ag89
ag89
ag90
ag88
ag88
ag89
ag52
ag88
ag90
asg91
(lp178
g88
ag90
ag89
ag90
ag89
ag89
ag90
ag88
ag88
ag89
ag52
ag88
ag90
asg93
(lp179
g88
ag90
ag89
ag90
ag89
ag89
ag90
ag88
ag88
ag89
ag52
ag88
ag90
asaa(lp180
I6
ag39
(g40
tp181
Rp182
g43
(lp183
g45
ag46
ag47
ag46
ag45
ag46
ag45
ag45
ag45
ag46
ag45
ag48
ag48
ag45
ag46
ag47
ag46
ag45
ag46
ag47
ag46
ag47
ag46
ag45
ag46
ag47
ag47
ag47
ag46
asg49
(lp184
I01
aI01
aI01
aI01
aI01
aI00
aI00
aI00
aI01
aI01
aI01
aI00
aI01
aI01
aI00
aI01
aI00
aI01
aI00
aI01
aI00
aI01
aI01
aI01
aI01
aI00
aI00
aI01
aI01
asg51
I29
sg52
g55
sg56
(lp185
(g58
I0
g24
tp186
ag61
ag66
ag67
ag69
ag79
ag80
ag117
ag78
ag79
ag73
ag74
a(g72
I0
g62
tp187
ag83
ag85
ag140
ag132
ag123
ag126
a(g68
F1.5707963267948966
g62
tp188
a(g68
F1.5707963267948966
g60
tp189
ag133
a(g65
F1.5707963267948966
g54
tp190
ag138
ag126
ag130
a(g72
F1.5707963267948966
g60
tp191
ag191
ag132
asg86
(lp192
g88
ag90
ag89
ag90
ag88
ag89
ag88
ag88
ag88
ag90
ag88
ag52
ag89
ag88
ag90
ag89
ag90
ag88
ag88
ag89
ag90
ag89
ag90
ag88
ag90
ag90
ag90
ag89
ag52
asg91
(lp193
g88
ag90
ag89
ag90
ag88
ag89
ag52
ag90
ag88
ag90
ag88
ag90
ag52
ag88
ag88
ag89
ag52
ag88
ag88
ag89
ag52
ag89
ag90
ag88
ag90
ag90
ag90
ag89
ag90
asg93
(lp194
g88
ag90
ag89
ag90
ag88
ag89
ag52
ag90
ag88
ag90
ag88
ag90
ag52
ag88
ag88
ag89
ag52
ag88
ag88
ag89
ag52
ag89
ag90
ag88
ag90
ag90
ag90
ag89
ag90
asaa(lp195
I7
ag39
(g40
tp196
Rp197
g43
(lp198
g45
ag46
ag47
ag46
ag45
ag46
ag45
ag45
ag45
ag47
ag48
ag45
ag48
ag45
ag46
ag45
ag46
asg49
(lp199
I01
aI01
aI01
aI01
aI01
aI01
aI00
aI00
aI00
aI01
aI01
aI00
aI01
aI01
aI00
aI01
aI01
asg51
I17
sg52
g55
sg56
(lp200
(g58
I0
g24
tp201
ag61
ag66
ag67
ag69
ag79
ag73
ag153
ag153
ag76
ag82
ag83
ag84
ag83
ag85
ag139
ag85
asg86
(lp202
g90
ag90
ag89
ag90
ag88
ag90
ag90
ag90
ag89
ag89
ag52
ag90
ag52
ag88
ag89
ag88
ag90
asg91
(lp203
g88
ag90
ag89
ag90
ag88
ag90
ag90
ag90
ag89
ag89
ag52
ag90
ag52
ag88
ag89
ag88
ag90
asg93
(lp204
g88
ag90
ag89
ag90
ag88
ag90
ag90
ag90
ag89
ag89
ag52
ag90
ag52
ag88
ag89
ag88
ag90
asaa(lp205
I8
ag39
(g40
tp206
Rp207
g43
(lp208
g45
ag46
ag47
ag47
ag46
ag45
ag45
ag46
ag45
ag45
ag48
ag45
ag46
ag45
ag46
ag47
ag46
asg49
(lp209
I01
aI01
aI00
aI01
aI01
aI00
aI01
aI01
aI00
aI01
aI01
aI01
aI00
aI01
aI00
aI01
aI01
asg51
I17
sg52
g55
sg56
(lp210
(g58
I0
g24
tp211
ag61
ag66
ag105
ag67
ag69
ag78
ag79
ag73
ag121
ag74
ag83
ag85
ag139
ag85
ag140
ag132
asg86
(lp212
g88
ag90
ag90
ag89
ag90
ag52
ag88
ag90
ag52
ag88
ag52
ag88
ag89
ag88
ag88
ag89
ag52
asg91
(lp213
g88
ag90
ag90
ag89
ag90
ag90
ag88
ag90
ag52
ag88
ag52
ag88
ag89
ag88
ag88
ag89
ag90
asg93
(lp214
g88
ag90
ag90
ag89
ag90
ag90
ag88
ag90
ag52
ag88
ag52
ag88
ag89
ag88
ag88
ag89
ag90
asaa(lp215
I9
ag39
(g40
tp216
Rp217
g43
(lp218
g45
ag45
ag45
ag46
ag47
ag46
ag45
ag45
ag47
ag47
ag47
ag46
ag47
ag46
ag45
ag46
ag47
ag46
ag45
ag47
ag47
ag47
ag46
ag45
ag45
ag48
ag45
ag45
ag47
ag46
asg49
(lp219
I00
aI00
aI01
aI01
aI01
aI01
aI00
aI00
aI00
aI00
aI01
aI00
aI01
aI00
aI01
aI01
aI01
aI01
aI00
aI00
aI00
aI01
aI01
aI00
aI01
aI01
aI00
aI00
aI01
aI01
asg51
I30
sg52
g55
sg56
(lp220
(g58
I0
g24
tp221
a(g58
I0
g54
tp222
ag165
ag61
ag66
ag67
ag69
ag78
ag70
a(g68
I0
g62
tp223
a(g68
I0
g62
tp224
ag71
ag118
ag67
ag166
ag61
ag66
ag67
ag69
ag70
ag224
ag224
ag71
ag73
ag153
ag74
ag83
ag122
ag154
ag132
asg86
(lp225
g52
ag88
ag88
ag90
ag89
ag90
ag90
ag88
ag52
ag90
ag89
ag90
ag89
ag88
ag90
ag90
ag89
ag90
ag89
ag90
ag90
ag89
ag90
ag90
ag88
ag52
ag88
ag88
ag89
ag90
asg91
(lp226
g52
ag90
ag88
ag90
ag89
ag90
ag90
ag89
ag52
ag90
ag89
ag52
ag89
ag52
ag88
ag90
ag89
ag90
ag89
ag90
ag90
ag89
ag90
ag90
ag88
ag52
ag52
ag89
ag89
ag90
asg93
(lp227
g52
ag90
ag88
ag90
ag89
ag90
ag90
ag89
ag52
ag90
ag89
ag52
ag89
ag52
ag88
ag90
ag89
ag90
ag89
ag90
ag90
ag89
ag90
ag90
ag88
ag52
ag52
ag89
ag89
ag90
asaatp228
Rp229
aatp230
Rp231
.