ccollections
OrderedDict
p0
((lp1
(lp2
S'combination_dict'
p3
ag0
((lp4
(lp5
S'r_to_g_config'
p6
aS'bl'
p7
aa(lp8
S'num_turns'
p9
aI3
aa(lp10
S'start_direction'
p11
acutils_ms
StartDirection
p12
(I1
tp13
Rp14
aa(lp15
S'assistance_type'
p16
acutils_ms
AssistanceType
p17
(I2
tp18
Rp19
aa(lp20
S'start_mode'
p21
aS't'
p22
aa(lp23
S'ui_given_a_noise'
p24
aF0.7
aa(lp25
S'um_given_ui_noise'
p26
aF0.3
aa(lp27
S'entropy_threshold'
p28
aF0.8
aatp29
Rp30
aa(lp31
S'data'
p32
accollections
defaultdict
p33
(c__builtin__
list
p34
tp35
Rp36
S'a'
p37
(lp38
S'mode_l'
p39
ag39
aS'mode_r'
p40
ag39
aS'move_n'
p41
ag39
ag39
ag39
ag39
ag39
ag39
ag39
ag39
ag39
ag39
ag39
ag39
ag41
ag40
ag40
ag40
ag41
ag41
ag41
ag41
ag39
ag41
ag40
ag41
ag40
ag41
ag40
ag39
ag41
ag40
ag41
ag39
ag40
ag40
ag40
ag40
ag40
ag39
ag39
ag39
ag40
ag41
ag41
ag40
ag41
ag39
ag39
ag39
ag41
ag40
ag41
ag40
ag41
ag40
ag41
ag39
ag39
ag39
ag41
ag40
ag39
ag39
ag41
ag39
ag41
ag40
ag40
ag40
ag40
ag40
ag39
ag41
ag39
ag39
ag40
ag40
ag41
ag40
ag40
ag40
ag40
ag40
ag41
ag40
ag39
ag41
ag40
ag40
ag40
ag40
ag40
ag39
ag39
ag41
ag40
ag39
ag40
ag40
ag40
ag40
ag41
ag40
ag40
ag40
ag40
aS'move_p'
p42
ag40
ag42
ag40
ag40
ag39
ag42
ag40
ag41
asS'assistance_match_with_ground_truth'
p43
(lp44
I00
aI00
aI00
aI01
aI01
aI00
aI00
aI00
aI00
aI00
aI00
aI00
aI00
aI00
aI00
aI00
aI01
aI00
aI00
aI00
aI01
aI00
aI00
aI00
aI01
aI01
aI00
aI01
aI00
aI01
aI00
aI00
aI01
aI00
aI01
aI00
aI00
aI00
aI00
aI00
aI00
aI00
aI00
aI00
aI00
aI01
aI00
aI00
aI01
aI01
aI00
aI00
aI01
aI00
aI01
aI00
aI01
aI00
aI01
aI01
aI00
aI00
aI01
aI00
aI00
aI00
aI01
aI01
aI01
aI00
aI00
aI00
aI00
aI00
aI00
aI01
aI01
aI00
aI00
aI00
aI01
aI00
aI00
aI00
aI00
aI00
aI01
aI00
aI00
aI01
aI00
aI00
aI00
aI00
aI00
aI00
aI00
aI01
aI01
aI00
aI00
aI00
aI00
aI00
aI01
aI01
aI00
aI00
aI00
aI01
aI01
aI00
aI00
aI00
aI00
aI01
aI01
aI01
aI01
asS'total_steps'
p45
I119
sS'sp'
p46
(lp47
(S'p0'
p48
I0
S't'
p49
tp50
a(g48
I0
S'x'
p51
tp52
a(g48
I0
g49
tp53
a(g48
I0
S'y'
p54
tp55
a(S'p1'
p56
I0
g54
tp57
a(g56
I0
g54
tp58
ag58
a(g56
I0
g54
tp59
ag59
ag58
ag59
ag58
ag59
ag58
ag58
ag58
a(g56
I0
g51
tp60
a(g48
I0
g51
tp61
a(g48
I0
g51
tp62
ag62
a(g48
I0
g54
tp63
a(g48
I0
g54
tp64
ag64
ag64
ag57
ag60
a(g56
I0
g49
tp65
a(g56
I0
g51
tp66
ag65
ag66
ag61
ag53
ag55
a(g48
I0
g51
tp67
ag63
a(g48
I0
g49
tp68
ag52
a(g48
I0
g51
tp69
ag69
ag69
ag62
ag53
a(g48
I0
g49
tp70
ag50
ag52
ag63
ag64
ag67
ag63
ag57
ag59
ag59
ag60
ag65
ag66
ag61
ag63
ag67
ag63
ag57
ag59
ag59
ag60
ag61
ag53
ag50
ag55
ag57
ag60
ag61
ag69
ag62
ag62
ag62
ag53
ag55
ag57
ag58
a(g56
I0
g49
tp71
a(g56
I0
g49
tp72
ag66
ag65
a(g56
I0
g49
tp73
ag73
ag73
ag72
ag66
ag65
a(g56
I0
g54
tp74
ag60
ag65
ag73
ag72
ag73
ag72
ag74
ag58
ag60
a(S'p2'
p75
I0
g51
tp76
a(g75
I0
g49
tp77
a(g75
I0
g51
tp78
a(g75
I0
g51
tp79
ag79
ag79
a(g75
I0
g54
tp80
a(S'p3'
p81
I0
g54
tp82
a(g81
I0
g54
tp83
a(g81
I0
g54
tp84
ag83
a(g81
I0
g49
tp85
a(g81
F1.5707963267948966
g49
tp86
a(g81
I0
g49
tp87
a(g81
I0
g54
tp88
ag84
a(g81
I0
g51
tp89
a(g81
I0
g49
tp90
ag86
a(g81
F1.5707963267948966
g51
tp91
a(S'p4'
p92
F1.5707963267948966
g51
tp93
asS's'
p94
(lp95
(g48
I0
g22
tp96
ag50
ag52
ag53
ag55
ag57
ag58
ag58
ag59
ag59
ag58
ag59
ag58
ag59
ag58
ag58
ag58
ag60
ag61
ag62
ag62
ag63
ag64
ag64
ag64
ag57
ag60
ag65
ag66
ag65
ag66
ag61
ag53
ag55
ag67
ag63
ag68
ag52
ag69
ag69
ag69
ag62
ag53
ag70
ag50
ag52
ag63
ag64
ag67
ag63
ag57
ag59
ag59
ag60
ag65
ag66
ag61
ag63
ag67
ag63
ag57
ag59
ag59
ag60
ag61
ag53
ag50
ag55
ag57
ag60
ag61
ag69
ag62
ag62
ag62
ag53
ag55
ag57
ag58
ag71
ag72
ag66
ag65
ag73
ag73
ag73
ag72
ag66
ag65
ag74
ag60
ag65
ag73
ag72
ag73
ag72
ag74
ag58
ag60
ag76
ag77
ag78
ag79
ag79
ag79
ag80
ag82
ag83
ag84
ag83
ag85
ag86
ag87
ag88
ag84
ag89
ag90
ag86
ag91
asS'ui'
p97
(lp98
S'hs'
p99
aS'hp'
p100
ag46
ag99
aS'ss'
p101
ag101
ag101
ag46
ag46
ag101
ag46
ag101
ag46
ag101
ag100
ag101
ag101
ag46
ag101
ag100
ag100
ag46
ag46
ag46
ag101
ag99
ag101
ag100
ag101
ag100
ag46
ag99
ag99
ag101
ag100
ag46
ag100
ag46
ag46
ag99
ag100
ag100
ag46
ag99
ag100
ag100
ag46
ag99
ag100
ag101
ag46
ag46
ag99
ag101
ag100
ag101
ag99
ag101
ag100
ag101
ag46
ag46
ag99
ag46
ag99
ag101
ag99
ag101
ag101
ag46
ag46
ag101
ag101
ag101
ag101
ag99
ag101
ag99
ag99
ag46
ag100
ag101
ag101
ag101
ag101
ag46
ag100
ag101
ag99
ag46
ag100
ag100
ag46
ag101
ag100
ag100
ag101
ag99
ag101
ag99
ag100
ag101
ag101
ag99
ag100
ag101
ag46
ag101
ag46
ag100
ag46
ag101
ag46
ag101
ag99
ag99
ag46
ag100
ag101
asS'um_before'
p102
(lp103
g101
ag100
ag99
ag99
ag101
ag101
ag101
ag46
ag46
ag101
ag46
ag101
ag46
ag101
ag101
ag101
ag99
ag46
ag101
ag101
ag100
ag46
ag46
ag46
ag101
ag99
ag99
ag100
ag99
ag100
ag46
ag99
ag99
ag99
ag100
ag100
ag100
ag46
ag46
ag46
ag101
ag99
ag46
ag101
ag100
ag100
ag46
ag99
ag100
ag101
ag46
ag46
ag99
ag99
ag100
ag46
ag100
ag99
ag100
ag101
ag46
ag46
ag99
ag46
ag99
ag101
ag99
ag101
ag99
ag46
ag46
ag101
ag101
ag101
ag99
ag99
ag101
ag101
ag100
ag46
ag100
ag99
ag101
ag101
ag101
ag46
ag100
ag99
ag99
ag99
ag99
ag101
ag46
ag101
ag46
ag99
ag101
ag99
ag101
ag99
ag100
ag101
ag101
ag101
ag100
ag101
ag46
ag101
ag46
ag100
ag46
ag101
ag99
ag101
ag99
ag99
ag46
ag100
ag101
asS'um_after'
p104
(lp105
g101
ag100
ag99
ag99
ag101
ag101
ag101
ag46
ag46
ag101
ag46
ag101
ag46
ag101
ag101
ag101
ag99
ag46
ag101
ag101
ag100
ag46
ag46
ag46
ag101
ag99
ag99
ag100
ag99
ag100
ag46
ag99
ag99
ag99
ag100
ag100
ag100
ag46
ag46
ag46
ag101
ag99
ag46
ag101
ag100
ag100
ag46
ag99
ag100
ag101
ag46
ag46
ag99
ag99
ag100
ag46
ag100
ag99
ag100
ag101
ag46
ag46
ag99
ag46
ag99
ag101
ag99
ag101
ag99
ag46
ag46
ag101
ag101
ag101
ag99
ag99
ag101
ag101
ag100
ag46
ag100
ag99
ag101
ag101
ag101
ag46
ag100
ag99
ag99
ag99
ag99
ag101
ag46
ag101
ag46
ag99
ag101
ag99
ag101
ag99
ag100
ag101
ag101
ag101
ag100
ag101
ag46
ag101
ag46
ag100
ag46
ag101
ag99
ag101
ag99
ag99
ag46
ag100
ag101
asaa(lp106
S'index'
p107
aI86287
aatp108
Rp109
.