ccollections
OrderedDict
p0
((lp1
(lp2
S'combination_dict'
p3
ag0
((lp4
(lp5
S'r_to_g_config'
p6
aS'tl'
p7
aa(lp8
S'num_turns'
p9
aI3
aa(lp10
S'start_direction'
p11
acutils_ms
StartDirection
p12
(I0
tp13
Rp14
aa(lp15
S'assistance_type'
p16
acutils_ms
AssistanceType
p17
(I0
tp18
Rp19
aa(lp20
S'start_mode'
p21
aS'y'
p22
aa(lp23
S'ui_given_a_noise'
p24
aF0.5
aa(lp25
S'um_given_ui_noise'
p26
aF0.5
aa(lp27
S'entropy_threshold'
p28
aF0.5
aatp29
Rp30
aa(lp31
S'data'
p32
accollections
defaultdict
p33
(c__builtin__
list
p34
tp35
Rp36
S'a'
p37
(lp38
S'mode_l'
p39
aS'mode_r'
p40
ag39
aS'move_n'
p41
ag39
ag39
ag41
ag40
ag40
ag41
ag40
ag39
ag40
ag40
aS'move_p'
p42
ag39
ag42
ag39
ag39
ag39
ag41
ag39
ag41
ag39
ag39
ag41
ag40
ag40
ag39
ag42
ag39
ag39
ag39
ag41
ag39
ag39
ag41
ag39
ag40
ag40
ag39
ag40
ag40
ag39
ag39
ag41
ag39
ag39
ag39
ag40
ag41
ag40
ag41
ag39
ag41
ag39
ag39
ag39
ag41
ag40
ag39
ag40
ag41
ag40
ag39
ag40
ag39
ag39
ag41
ag40
ag42
ag39
ag39
ag39
ag41
ag40
ag40
ag42
ag39
ag41
ag39
ag39
ag41
ag39
ag40
ag41
ag39
ag39
ag42
ag39
ag42
ag39
ag42
ag39
ag39
ag39
ag40
ag42
ag39
ag42
ag39
ag40
ag40
ag40
ag41
ag40
ag40
ag40
ag41
ag40
ag42
ag40
ag40
ag40
ag40
ag40
ag40
ag40
ag42
ag39
ag42
asS'assistance_match_with_ground_truth'
p43
(lp44
I00
aI00
aI01
aI00
aI00
aI01
aI00
aI00
aI01
aI01
aI00
aI00
aI00
aI01
aI00
aI01
aI01
aI00
aI00
aI01
aI00
aI01
aI00
aI00
aI01
aI00
aI00
aI00
aI01
aI01
aI00
aI00
aI01
aI00
aI00
aI01
aI00
aI00
aI00
aI00
aI00
aI00
aI00
aI00
aI01
aI00
aI00
aI00
aI00
aI01
aI00
aI01
aI00
aI01
aI00
aI00
aI00
aI01
aI00
aI00
aI00
aI01
aI00
aI00
aI00
aI00
aI00
aI01
aI00
aI01
aI01
aI00
aI00
aI01
aI00
aI00
aI01
aI01
aI01
aI00
aI00
aI01
aI00
aI00
aI01
aI01
aI00
aI01
aI00
aI01
aI01
aI00
aI00
aI00
aI00
aI00
aI01
aI01
aI01
aI00
aI00
aI00
aI00
aI01
aI00
aI00
aI00
aI01
aI01
aI01
aI00
aI00
aI00
aI00
aI00
aI00
aI00
aI01
aI00
aI01
aI01
asS'total_steps'
p45
I121
sS'sp'
p46
(lp47
(S'p0'
p48
I0
S't'
p49
tp50
a(g48
I0
S'y'
p51
tp52
a(g48
I0
S'x'
p53
tp54
a(g48
I0
g51
tp55
a(g48
I0
g51
tp56
ag54
a(g48
I0
g49
tp57
a(g48
I0
g49
tp58
a(g48
I0
g53
tp59
a(S'p1'
p60
I0
g53
tp61
a(g60
I0
g49
tp62
a(g60
I0
g53
tp63
a(g60
I0
g53
tp64
a(g60
I0
g51
tp65
a(g60
I0
g49
tp66
a(g60
I0
g51
tp67
a(S'p2'
p68
I0
g51
tp69
a(g68
I0
g51
tp70
a(g68
I0
g51
tp71
a(g68
I0
g53
tp72
a(g68
I0
g51
tp73
ag72
ag73
ag70
ag72
a(g60
I0
g53
tp74
a(g60
I0
g53
tp75
ag62
ag67
ag69
ag70
ag70
ag72
ag73
ag71
ag72
ag73
a(g68
I0
g49
tp76
a(g68
I0
g49
tp77
a(g68
I0
g51
tp78
ag76
a(g68
I0
g49
tp79
ag78
ag71
ag72
ag73
ag71
ag70
ag76
a(g68
I0
g53
tp80
a(g68
I0
g49
tp81
ag80
ag73
ag72
ag73
ag71
ag70
ag72
ag81
ag78
ag76
ag80
ag81
ag78
ag76
ag78
ag70
ag72
ag74
ag65
ag69
ag71
ag70
ag72
ag74
ag75
ag65
ag69
ag72
ag73
ag70
ag72
ag73
ag76
ag80
a(S'p3'
p82
I0
g53
tp83
a(g82
I0
g53
tp84
a(g82
I0
g49
tp85
a(g82
I0
g53
tp86
ag85
a(g82
F1.5707963267948966
g49
tp87
a(g82
I0
g49
tp88
ag86
a(g82
I0
g53
tp89
ag84
a(g82
I0
g51
tp90
a(g82
I0
g49
tp91
ag87
a(g82
F1.5707963267948966
g51
tp92
a(g68
F1.5707963267948966
g51
tp93
a(g68
F1.5707963267948966
g49
tp94
a(g68
F1.5707963267948966
g49
tp95
ag95
a(g68
F1.5707963267948966
g53
tp96
a(g68
F1.5707963267948966
g49
tp97
a(g68
F1.5707963267948966
g49
tp98
ag98
ag96
a(g82
F1.5707963267948966
g53
tp99
a(g82
F1.5707963267948966
g51
tp100
a(g82
F1.5707963267948966
g53
tp101
a(g82
F1.5707963267948966
g53
tp102
ag102
ag102
a(g82
F1.5707963267948966
g53
tp103
ag102
ag102
ag100
a(g82
F1.5707963267948966
g49
tp104
ag92
a(S'p4'
p105
F1.5707963267948966
g51
tp106
asS's'
p107
(lp108
(g48
I0
g22
tp109
ag50
ag52
ag54
ag55
ag56
ag54
ag57
ag58
ag59
ag61
ag62
ag63
ag64
ag65
ag66
ag67
ag69
ag70
ag71
ag72
ag73
ag72
ag73
ag70
ag72
ag74
ag75
ag62
ag67
ag69
ag70
ag70
ag72
ag73
ag71
ag72
ag73
ag76
ag77
ag78
ag76
ag79
ag78
ag71
ag72
ag73
ag71
ag70
ag76
ag80
ag81
ag80
ag73
ag72
ag73
ag71
ag70
ag72
ag81
ag78
ag76
ag80
ag81
ag78
ag76
ag78
ag70
ag72
ag74
ag65
ag69
ag71
ag70
ag72
ag74
ag75
ag65
ag69
ag72
ag73
ag70
ag72
ag73
ag76
ag80
ag83
ag84
ag85
ag86
ag85
ag87
ag88
ag86
ag89
ag84
ag90
ag91
ag87
ag92
ag93
ag94
ag95
ag95
ag96
ag97
ag98
ag98
ag96
ag99
ag100
ag101
ag102
ag102
ag102
ag103
ag102
ag102
ag100
ag104
ag92
asS'ui'
p110
(lp111
S'hp'
p112
aS'hs'
p113
ag113
aS'ss'
p114
ag113
ag113
ag113
ag112
ag112
ag114
ag114
ag112
ag114
ag112
ag46
ag113
ag46
ag114
ag113
ag113
ag114
ag113
ag46
ag112
ag114
ag112
ag46
ag113
ag113
ag46
ag114
ag112
ag114
ag112
ag113
ag113
ag112
ag112
ag113
ag113
ag112
ag112
ag46
ag113
ag113
ag114
ag113
ag113
ag112
ag114
ag114
ag113
ag114
ag113
ag112
ag113
ag114
ag114
ag113
ag114
ag112
ag112
ag114
ag112
ag112
ag113
ag114
ag113
ag46
ag112
ag46
ag113
ag113
ag112
ag46
ag46
ag113
ag46
ag113
ag114
ag114
ag113
ag114
ag112
ag112
ag112
ag114
ag113
ag112
ag113
ag46
ag114
ag46
ag46
ag114
ag112
ag46
ag46
ag113
ag114
ag112
ag112
ag46
ag112
ag113
ag112
ag114
ag112
ag46
ag112
ag46
ag112
ag113
ag46
ag112
ag112
ag112
ag112
ag46
ag113
ag46
asS'um_before'
p115
(lp116
g112
ag113
ag113
ag112
ag46
ag113
ag113
ag114
ag112
ag114
ag113
ag112
ag114
ag112
ag112
ag113
ag46
ag114
ag46
ag113
ag112
ag113
ag112
ag114
ag113
ag46
ag46
ag113
ag113
ag46
ag114
ag114
ag113
ag112
ag46
ag113
ag112
ag112
ag46
ag113
ag112
ag114
ag113
ag46
ag113
ag112
ag46
ag114
ag112
ag112
ag113
ag112
ag112
ag113
ag112
ag46
ag114
ag113
ag113
ag113
ag112
ag112
ag113
ag113
ag112
ag113
ag114
ag113
ag46
ag112
ag46
ag46
ag114
ag113
ag46
ag46
ag112
ag46
ag113
ag112
ag114
ag113
ag112
ag112
ag112
ag114
ag114
ag113
ag112
ag113
ag46
ag114
ag112
ag46
ag114
ag112
ag112
ag46
ag113
ag114
ag112
ag46
ag46
ag112
ag113
ag114
ag114
ag112
ag114
ag112
ag113
ag46
ag46
ag46
ag114
ag46
ag46
ag112
ag112
ag113
ag46
asS'um_after'
p117
(lp118
g112
ag113
ag113
ag112
ag46
ag113
ag113
ag114
ag112
ag114
ag113
ag112
ag114
ag112
ag112
ag113
ag46
ag114
ag46
ag113
ag112
ag113
ag112
ag114
ag113
ag46
ag46
ag113
ag113
ag46
ag114
ag114
ag113
ag112
ag46
ag113
ag112
ag112
ag46
ag113
ag112
ag114
ag113
ag46
ag113
ag112
ag46
ag114
ag112
ag112
ag113
ag112
ag112
ag113
ag112
ag46
ag114
ag113
ag113
ag113
ag112
ag112
ag113
ag113
ag112
ag113
ag114
ag113
ag46
ag112
ag46
ag46
ag114
ag113
ag46
ag46
ag112
ag46
ag113
ag112
ag114
ag113
ag112
ag112
ag112
ag114
ag114
ag113
ag112
ag113
ag46
ag114
ag112
ag46
ag114
ag112
ag112
ag46
ag113
ag114
ag112
ag46
ag46
ag112
ag113
ag114
ag114
ag112
ag114
ag112
ag113
ag46
ag46
ag46
ag114
ag46
ag46
ag112
ag112
ag113
ag46
asaa(lp119
S'index'
p120
aI49303
aatp121
Rp122
.