ccollections
OrderedDict
p0
((lp1
(lp2
S'combination_dict'
p3
ag0
((lp4
(lp5
S'r_to_g_config'
p6
aS'tr'
p7
aa(lp8
S'num_turns'
p9
aI3
aa(lp10
S'start_direction'
p11
acutils_ms
StartDirection
p12
(I1
tp13
Rp14
aa(lp15
S'assistance_type'
p16
acutils_ms
AssistanceType
p17
(I2
tp18
Rp19
aa(lp20
S'start_mode'
p21
aS't'
p22
aa(lp23
S'ui_given_a_noise'
p24
aF0.3
aa(lp25
S'um_given_ui_noise'
p26
aF0.7
aa(lp27
S'entropy_threshold'
p28
aF0.6
aatp29
Rp30
aa(lp31
S'data'
p32
accollections
defaultdict
p33
(c__builtin__
list
p34
tp35
Rp36
S'a'
p37
(lp38
S'mode_l'
p39
ag39
aS'move_p'
p40
ag40
aS'mode_r'
p41
ag40
ag40
ag41
ag39
ag39
ag40
ag40
ag41
ag40
ag41
ag40
ag41
ag40
ag40
ag40
ag41
ag40
ag41
ag39
ag41
ag41
ag41
ag39
ag40
ag41
ag41
ag39
ag41
ag41
ag40
ag40
ag39
ag40
ag41
ag41
ag39
ag39
ag41
ag39
ag40
ag39
ag41
ag40
ag41
ag40
ag39
ag40
ag41
ag40
ag39
ag40
ag41
ag40
ag41
ag40
ag39
ag39
ag40
ag41
ag40
ag39
ag39
ag40
ag41
ag39
ag41
ag39
ag40
ag39
ag39
ag40
ag41
ag39
ag41
ag41
ag41
ag39
ag40
ag41
ag41
ag39
ag39
ag39
ag40
ag39
ag40
ag41
ag40
ag39
ag40
ag41
ag39
ag40
ag41
ag41
ag40
ag41
ag39
ag39
ag41
ag40
ag41
ag40
ag39
ag40
ag41
ag40
ag41
ag40
ag39
ag40
ag41
ag41
ag40
ag39
ag41
ag40
ag41
ag39
ag40
ag39
ag41
ag40
asS'assistance_match_with_ground_truth'
p42
(lp43
I00
aI01
aI00
aI00
aI01
aI00
aI00
aI00
aI00
aI01
aI00
aI01
aI01
aI00
aI01
aI00
aI01
aI00
aI00
aI01
aI01
aI00
aI00
aI00
aI00
aI00
aI00
aI01
aI00
aI00
aI00
aI00
aI00
aI01
aI00
aI01
aI01
aI00
aI00
aI00
aI00
aI00
aI00
aI01
aI01
aI00
aI01
aI00
aI01
aI00
aI01
aI00
aI01
aI01
aI01
aI01
aI01
aI00
aI01
aI00
aI00
aI01
aI00
aI01
aI00
aI00
aI01
aI01
aI00
aI00
aI00
aI01
aI00
aI00
aI01
aI00
aI00
aI00
aI00
aI00
aI00
aI01
aI01
aI00
aI00
aI00
aI00
aI01
aI01
aI01
aI00
aI01
aI00
aI01
aI01
aI00
aI01
aI00
aI00
aI01
aI00
aI00
aI00
aI00
aI01
aI00
aI01
aI00
aI01
aI00
aI01
aI00
aI01
aI01
aI01
aI00
aI00
aI01
aI01
aI00
aI01
aI01
aI00
aI01
aI01
aI00
aI01
aI01
asS'total_steps'
p44
I128
sS'sp'
p45
(lp46
(S'p0'
p47
I0
S't'
p48
tp49
a(g47
I0
S'y'
p50
tp51
a(g47
I0
g50
tp52
a(g47
I0
S'x'
p53
tp54
a(g47
I0
g50
tp55
ag52
ag54
a(g47
I0
g48
tp56
ag49
ag51
ag52
a(S'p1'
p57
I0
g50
tp58
a(g57
I0
g48
tp59
a(g57
I0
g50
tp60
ag59
ag60
ag59
a(g57
I0
g48
tp61
ag61
a(g57
F1.5707963267948966
g48
tp62
a(g57
F1.5707963267948966
g53
tp63
a(g47
F1.5707963267948966
g53
tp64
a(g47
F1.5707963267948966
g48
tp65
a(g47
F1.5707963267948966
g53
tp66
a(g47
F1.5707963267948966
g53
tp67
ag67
ag65
a(g47
F1.5707963267948966
g50
tp68
a(g47
F1.5707963267948966
g53
tp69
ag67
ag65
ag66
a(g47
F1.5707963267948966
g53
tp70
a(g47
F1.5707963267948966
g50
tp71
a(g47
F1.5707963267948966
g50
tp72
a(g57
F1.5707963267948966
g50
tp73
a(g57
F1.5707963267948966
g53
tp74
ag64
ag70
ag65
a(g47
F1.5707963267948966
g48
tp75
ag66
ag65
ag68
ag73
a(g57
F1.5707963267948966
g48
tp76
ag63
ag64
ag71
a(g47
F1.5707963267948966
g48
tp77
ag68
ag69
ag71
ag73
ag74
a(S'p2'
p78
F1.5707963267948966
g53
tp79
a(g78
F1.5707963267948966
g50
tp80
a(g78
F1.5707963267948966
g53
tp81
ag80
a(g57
F1.5707963267948966
g50
tp82
a(g57
F1.5707963267948966
g50
tp83
ag74
a(g57
F1.5707963267948966
g48
tp84
ag63
a(g57
F1.5707963267948966
g50
tp85
ag83
ag74
ag79
a(g78
F1.5707963267948966
g48
tp86
a(g78
F1.5707963267948966
g53
tp87
ag86
a(g78
F1.5707963267948966
g50
tp88
ag82
ag83
ag74
ag84
a(g57
F1.5707963267948966
g50
tp89
ag76
a(g57
F1.5707963267948966
g48
tp90
ag90
ag89
ag74
ag79
a(g78
F1.5707963267948966
g53
tp91
ag86
a(g78
F1.5707963267948966
g48
tp92
a(g78
F1.5707963267948966
g48
tp93
ag88
a(S'p3'
p94
F1.5707963267948966
g50
tp95
a(g94
F1.5707963267948966
g53
tp96
a(g78
F1.5707963267948966
g53
tp97
ag80
ag82
ag74
ag79
ag86
ag88
ag81
a(g78
F1.5707963267948966
g53
tp98
ag80
ag81
ag86
ag93
ag87
ag80
ag81
ag80
ag82
ag74
ag84
ag63
ag64
ag71
ag73
ag74
ag64
ag70
ag71
ag73
ag76
ag63
ag79
ag86
ag88
ag95
a(g94
F1.5707963267948966
g48
tp99
a(g94
F1.5707963267948966
g53
tp100
a(S'p4'
p101
F1.5707963267948966
g53
tp102
asS's'
p103
(lp104
(g47
I0
g22
tp105
ag49
ag51
ag52
ag54
ag55
ag52
ag54
ag56
ag49
ag51
ag52
ag58
ag59
ag60
ag59
ag60
ag59
ag61
ag61
ag62
ag63
ag64
ag65
ag66
ag67
ag67
ag65
ag68
ag69
ag67
ag65
ag66
ag70
ag71
ag72
ag73
ag74
ag64
ag70
ag65
ag75
ag66
ag65
ag68
ag73
ag76
ag63
ag64
ag71
ag77
ag68
ag69
ag71
ag73
ag74
ag79
ag80
ag81
ag80
ag82
ag83
ag74
ag84
ag63
ag85
ag83
ag74
ag79
ag86
ag87
ag86
ag88
ag82
ag83
ag74
ag84
ag89
ag76
ag90
ag90
ag89
ag74
ag79
ag91
ag86
ag92
ag93
ag88
ag95
ag96
ag97
ag80
ag82
ag74
ag79
ag86
ag88
ag81
ag98
ag80
ag81
ag86
ag93
ag87
ag80
ag81
ag80
ag82
ag74
ag84
ag63
ag64
ag71
ag73
ag74
ag64
ag70
ag71
ag73
ag76
ag63
ag79
ag86
ag88
ag95
ag99
ag100
asS'ui'
p106
(lp107
g45
aS'hs'
p108
ag45
ag45
aS'hp'
p109
ag45
ag45
ag109
ag108
ag108
aS'ss'
p110
ag45
ag109
ag108
ag109
ag45
ag109
ag45
ag45
ag45
ag109
ag45
ag109
ag109
ag45
ag45
ag45
ag108
ag45
ag109
ag109
ag108
ag110
ag109
ag108
ag45
ag108
ag45
ag109
ag109
ag45
ag109
ag109
ag108
ag110
ag109
ag109
ag110
ag109
ag108
ag108
ag45
ag109
ag45
ag108
ag45
ag109
ag108
ag109
ag45
ag45
ag108
ag45
ag109
ag45
ag45
ag108
ag110
ag109
ag108
ag109
ag108
ag110
ag108
ag108
ag45
ag109
ag108
ag45
ag109
ag45
ag109
ag110
ag110
ag109
ag108
ag45
ag108
ag45
ag109
ag110
ag109
ag110
ag108
ag45
ag109
ag108
ag45
ag45
ag109
ag108
ag109
ag108
ag109
ag109
ag45
ag109
ag45
ag108
ag45
ag109
ag45
ag109
ag45
ag108
ag110
ag109
ag109
ag45
ag108
ag109
ag45
ag109
ag108
ag45
ag109
ag109
ag110
asS'um_before'
p111
(lp112
g45
ag108
ag110
ag108
ag109
ag110
ag108
ag108
ag45
ag108
ag110
ag45
ag109
ag108
ag109
ag108
ag109
ag110
ag110
ag45
ag109
ag110
ag108
ag109
ag45
ag45
ag108
ag108
ag108
ag45
ag108
ag109
ag110
ag109
ag110
ag45
ag108
ag110
ag110
ag108
ag110
ag109
ag108
ag108
ag45
ag109
ag109
ag110
ag109
ag109
ag108
ag108
ag109
ag45
ag108
ag45
ag109
ag108
ag109
ag110
ag45
ag108
ag108
ag109
ag109
ag45
ag108
ag45
ag108
ag109
ag108
ag108
ag110
ag45
ag108
ag108
ag108
ag109
ag45
ag45
ag108
ag108
ag45
ag110
ag108
ag110
ag45
ag108
ag45
ag108
ag110
ag109
ag110
ag108
ag45
ag108
ag108
ag108
ag45
ag109
ag108
ag108
ag45
ag109
ag109
ag108
ag109
ag110
ag108
ag108
ag109
ag110
ag109
ag45
ag108
ag110
ag110
ag109
ag45
ag109
ag109
ag45
ag108
ag108
ag45
ag109
ag109
ag45
asS'um_after'
p113
(lp114
g45
ag108
ag110
ag108
ag109
ag110
ag108
ag108
ag45
ag108
ag110
ag45
ag109
ag108
ag109
ag108
ag109
ag110
ag110
ag45
ag109
ag110
ag108
ag109
ag45
ag45
ag108
ag108
ag108
ag45
ag108
ag109
ag110
ag109
ag110
ag45
ag108
ag110
ag110
ag108
ag110
ag109
ag108
ag108
ag45
ag109
ag109
ag110
ag109
ag109
ag108
ag108
ag109
ag45
ag108
ag45
ag109
ag108
ag109
ag110
ag45
ag108
ag108
ag109
ag109
ag45
ag108
ag45
ag108
ag109
ag108
ag108
ag110
ag45
ag108
ag108
ag108
ag109
ag45
ag45
ag108
ag108
ag45
ag110
ag108
ag110
ag45
ag108
ag45
ag108
ag110
ag109
ag110
ag108
ag45
ag108
ag108
ag108
ag45
ag109
ag108
ag108
ag45
ag109
ag109
ag108
ag109
ag110
ag108
ag108
ag109
ag110
ag109
ag45
ag108
ag110
ag110
ag109
ag45
ag109
ag109
ag45
ag108
ag108
ag45
ag109
ag109
ag45
asaa(lp115
S'index'
p116
aI28361
aatp117
Rp118
.