ccollections
OrderedDict
p0
((lp1
(lp2
S'combination_dict'
p3
ag0
((lp4
(lp5
S'r_to_g_config'
p6
aS'bl'
p7
aa(lp8
S'num_turns'
p9
aI3
aa(lp10
S'start_direction'
p11
acutils_ms
StartDirection
p12
(I1
tp13
Rp14
aa(lp15
S'assistance_type'
p16
acutils_ms
AssistanceType
p17
(I2
tp18
Rp19
aa(lp20
S'start_mode'
p21
aS'x'
p22
aa(lp23
S'ui_given_a_noise'
p24
aF0.7
aa(lp25
S'um_given_ui_noise'
p26
aF0.1
aa(lp27
S'entropy_threshold'
p28
aF0.7
aatp29
Rp30
aa(lp31
S'data'
p32
accollections
defaultdict
p33
(c__builtin__
list
p34
tp35
Rp36
S'a'
p37
(lp38
S'mode_r'
p39
ag39
aS'move_n'
p40
ag40
ag40
aS'mode_l'
p41
ag40
ag41
ag40
ag39
ag40
ag41
aS'move_p'
p42
ag41
ag41
ag40
ag41
ag40
ag41
ag41
ag41
ag41
ag41
ag40
ag39
ag39
ag40
ag41
ag42
ag41
ag42
ag41
ag42
ag39
ag41
ag40
ag41
ag42
ag41
ag39
ag40
ag41
ag40
ag41
ag40
ag41
ag41
ag40
ag39
ag39
ag39
ag41
ag40
ag41
ag40
ag39
ag40
ag40
ag41
ag41
ag41
ag40
ag39
ag40
ag41
ag39
ag40
ag39
ag40
ag41
ag39
ag39
ag39
ag39
ag39
ag40
ag41
ag41
ag40
asS'assistance_match_with_ground_truth'
p43
(lp44
I00
aI01
aI00
aI00
aI01
aI01
aI00
aI01
aI00
aI01
aI01
aI01
aI01
aI00
aI01
aI00
aI01
aI00
aI00
aI00
aI00
aI00
aI01
aI01
aI00
aI01
aI00
aI00
aI01
aI00
aI00
aI01
aI00
aI00
aI01
aI00
aI01
aI01
aI00
aI01
aI00
aI01
aI00
aI01
aI00
aI00
aI01
aI00
aI00
aI00
aI00
aI01
aI01
aI01
aI00
aI01
aI00
aI01
aI00
aI00
aI01
aI00
aI01
aI01
aI00
aI01
aI01
aI01
aI01
aI00
aI00
aI00
aI00
aI00
aI01
aI00
aI00
aI01
aI01
asS'total_steps'
p45
I79
sS'sp'
p46
(lp47
(S'p0'
p48
I0
S'x'
p49
tp50
a(g48
I0
S'y'
p51
tp52
a(g48
I0
g51
tp53
ag53
a(S'p1'
p54
I0
g51
tp55
a(g54
I0
g49
tp56
a(g54
I0
g51
tp57
ag56
a(g54
I0
S't'
p58
tp59
a(g54
I0
g49
tp60
a(S'p2'
p61
I0
g49
tp62
a(g61
I0
g58
tp63
a(g61
F1.5707963267948966
g58
tp64
a(g61
F1.5707963267948966
g58
tp65
a(g61
F1.5707963267948966
g51
tp66
a(g61
F1.5707963267948966
g58
tp67
ag66
a(g54
F1.5707963267948966
g51
tp68
a(g54
F1.5707963267948966
g51
tp69
ag69
ag69
a(g54
F1.5707963267948966
g51
tp70
a(g54
F1.5707963267948966
g49
tp71
a(g61
F1.5707963267948966
g49
tp72
a(g61
F1.5707963267948966
g49
tp73
a(g61
F1.5707963267948966
g51
tp74
ag67
a(g61
I0
g58
tp75
ag64
ag75
a(g61
I0
g49
tp76
ag63
a(g61
I0
g51
tp77
a(S'p3'
p78
I0
g51
tp79
a(g78
I0
g49
tp80
a(g61
I0
g49
tp81
ag63
ag64
a(g61
F1.5707963267948966
g49
tp82
ag74
ag68
ag71
a(g54
F1.5707963267948966
g51
tp83
ag71
ag83
ag69
ag71
a(g48
F1.5707963267948966
g49
tp84
a(g48
F1.5707963267948966
g49
tp85
ag85
a(g48
F1.5707963267948966
g58
tp86
a(g48
F1.5707963267948966
g51
tp87
a(g54
F1.5707963267948966
g51
tp88
ag71
ag84
a(g48
F1.5707963267948966
g51
tp89
a(g48
F1.5707963267948966
g51
tp90
ag88
ag70
ag69
ag71
ag84
ag89
ag88
a(g54
F1.5707963267948966
g58
tp91
a(g54
F1.5707963267948966
g49
tp92
ag72
ag74
a(g78
F1.5707963267948966
g51
tp93
a(g78
F1.5707963267948966
g58
tp94
a(g78
F1.5707963267948966
g58
tp95
a(g78
F1.5707963267948966
g58
tp96
ag96
ag95
a(g78
F1.5707963267948966
g49
tp97
a(g78
F1.5707963267948966
g51
tp98
a(g78
F1.5707963267948966
g51
tp99
a(g78
F1.5707963267948966
g49
tp100
a(S'p4'
p101
F1.5707963267948966
g49
tp102
asS's'
p103
(lp104
(g48
I0
g22
tp105
ag50
ag52
ag53
ag53
ag55
ag56
ag57
ag56
ag59
ag60
ag62
ag63
ag64
ag65
ag66
ag67
ag66
ag68
ag69
ag69
ag69
ag70
ag71
ag72
ag73
ag74
ag67
ag75
ag64
ag75
ag76
ag63
ag77
ag79
ag80
ag81
ag63
ag64
ag82
ag74
ag68
ag71
ag83
ag71
ag83
ag69
ag71
ag84
ag85
ag85
ag86
ag87
ag88
ag71
ag84
ag89
ag90
ag88
ag70
ag69
ag71
ag84
ag89
ag88
ag91
ag92
ag72
ag74
ag93
ag94
ag95
ag96
ag96
ag95
ag97
ag98
ag99
ag100
asS'ui'
p106
(lp107
S'hp'
p108
ag108
ag46
aS'ss'
p109
ag108
aS'hs'
p110
ag108
ag110
ag108
ag108
ag46
ag110
ag46
ag46
ag110
ag109
ag110
ag46
ag46
ag110
ag46
ag109
ag110
ag109
ag109
ag108
ag108
ag109
ag46
ag46
ag108
ag110
ag46
ag109
ag110
ag46
ag110
ag46
ag108
ag108
ag46
ag110
ag108
ag110
ag108
ag46
ag110
ag46
ag46
ag46
ag110
ag110
ag109
ag110
ag109
ag108
ag46
ag109
ag109
ag46
ag46
ag46
ag108
ag109
ag108
ag108
ag109
ag108
ag109
ag110
ag108
ag46
ag46
ag109
ag108
ag108
ag109
ag110
ag109
asS'um_before'
p111
(lp112
g109
ag108
ag46
ag46
ag109
ag110
ag108
ag110
ag110
ag108
ag109
ag110
ag46
ag46
ag110
ag108
ag110
ag46
ag46
ag46
ag46
ag109
ag110
ag109
ag109
ag108
ag108
ag109
ag46
ag109
ag108
ag110
ag110
ag109
ag110
ag46
ag110
ag46
ag108
ag108
ag46
ag110
ag108
ag110
ag108
ag46
ag110
ag46
ag46
ag46
ag110
ag110
ag109
ag110
ag46
ag108
ag46
ag109
ag109
ag46
ag110
ag46
ag108
ag109
ag108
ag108
ag109
ag108
ag109
ag108
ag109
ag46
ag46
ag109
ag108
ag108
ag109
ag110
ag109
asS'um_after'
p113
(lp114
g109
ag108
ag46
ag46
ag109
ag110
ag108
ag110
ag110
ag108
ag109
ag110
ag46
ag46
ag110
ag108
ag110
ag46
ag46
ag46
ag46
ag109
ag110
ag109
ag109
ag108
ag108
ag109
ag46
ag109
ag108
ag110
ag110
ag109
ag110
ag46
ag110
ag46
ag108
ag108
ag46
ag110
ag108
ag110
ag108
ag46
ag110
ag46
ag46
ag46
ag110
ag110
ag109
ag110
ag46
ag108
ag46
ag109
ag109
ag46
ag110
ag46
ag108
ag109
ag108
ag108
ag109
ag108
ag109
ag108
ag109
ag46
ag46
ag109
ag108
ag108
ag109
ag110
ag109
asaa(lp115
S'index'
p116
aI85421
aatp117
Rp118
.