ccollections
OrderedDict
p0
((lp1
(lp2
S'index'
p3
aI3616
aa(lp4
S'combination_dict'
p5
ag0
((lp6
(lp7
S'r_to_g_config'
p8
aS'tr'
p9
aa(lp10
S'num_turns'
p11
aI3
aa(lp12
S'start_direction'
p13
acutils_ms
StartDirection
p14
(I1
tp15
Rp16
aa(lp17
S'assistance_type'
p18
acutils_ms
AssistanceType
p19
(I1
tp20
Rp21
aa(lp22
S'start_mode'
p23
aS'x'
p24
aa(lp25
S'ui_given_a_noise'
p26
aF0.5
aa(lp27
S'um_given_ui_noise'
p28
aF0.3
aa(lp29
S'entropy_threshold'
p30
aF0.8
aa(lp31
S'is_assistance'
p32
aI01
aatp33
Rp34
aa(lp35
S'trials'
p36
ag0
((lp37
(lp38
I0
accollections
defaultdict
p39
(c__builtin__
list
p40
tp41
Rp42
S'a'
p43
(lp44
S'mode_r'
p45
ag45
aS'move_p'
p46
aS'mode_l'
p47
ag46
ag45
ag45
ag46
ag45
ag46
ag45
ag46
asS'assistance_match_with_ground_truth'
p48
(lp49
I00
aI01
aI01
aI01
aI01
aI00
aI01
aI01
aI01
aI01
aI01
aI01
asS'total_steps'
p50
I12
sS'sp'
p51
(S'p4'
p52
F1.5707963267948966
S'x'
p53
tp54
sS's'
p55
(lp56
(S'p0'
p57
I0
g24
tp58
a(g57
I0
g53
tp59
a(g57
I0
S'y'
p60
tp61
a(S'p1'
p62
I0
g60
tp63
a(g62
I0
g53
tp64
a(S'p2'
p65
I0
g53
tp66
a(g65
I0
g53
tp67
a(g65
I0
g60
tp68
a(S'p3'
p69
I0
g60
tp70
a(g69
I0
S't'
p71
tp72
a(g69
F1.5707963267948966
g71
tp73
a(g69
F1.5707963267948966
g53
tp74
asS'ui'
p75
(lp76
S'ss'
p77
aS'hp'
p78
ag51
aS'hs'
p79
ag78
ag79
ag78
ag51
ag51
ag78
ag78
ag51
asS'um_before'
p80
(lp81
g77
ag78
ag77
ag79
ag78
ag77
ag78
ag51
ag51
ag78
ag51
ag51
asS'um_after'
p82
(lp83
g77
ag78
ag51
ag79
ag51
ag77
ag78
ag51
ag78
ag51
ag78
ag51
asaa(lp84
I1
ag39
(g40
tp85
Rp86
g43
(lp87
g45
ag46
ag47
ag46
ag45
ag47
ag46
ag45
ag46
ag45
ag46
ag45
ag46
asg48
(lp88
I01
aI01
aI01
aI01
aI00
aI01
aI01
aI01
aI01
aI00
aI01
aI01
aI01
asg50
I13
sg51
g54
sg55
(lp89
(g57
I0
g24
tp90
ag61
ag63
ag64
ag66
a(g65
I0
g71
tp91
a(g65
I0
g60
tp92
ag70
ag72
ag73
a(g69
I0
g71
tp93
ag73
ag74
asg75
(lp94
g78
ag51
ag79
ag51
ag51
ag79
ag51
ag78
ag78
ag78
ag78
ag78
ag78
asg80
(lp95
g78
ag51
ag77
ag51
ag79
ag77
ag51
ag78
ag78
ag77
ag78
ag78
ag78
asg82
(lp96
g78
ag51
ag79
ag51
ag79
ag79
ag51
ag78
ag51
ag77
ag51
ag78
ag51
asaa(lp97
I2
ag39
(g40
tp98
Rp99
g43
(lp100
g45
ag46
ag47
ag46
ag45
ag46
ag45
ag46
ag45
ag46
ag45
ag46
ag45
ag46
asg48
(lp101
I01
aI01
aI01
aI01
aI01
aI00
aI01
aI00
aI01
aI01
aI01
aI01
aI01
aI01
asg50
I14
sg51
g54
sg55
(lp102
(g57
I0
g24
tp103
ag61
ag63
ag64
ag66
ag68
a(g65
I0
g53
tp104
ag68
ag104
ag68
ag70
ag72
ag73
ag74
asg75
(lp105
g77
ag79
ag79
ag77
ag51
ag51
ag78
ag79
ag78
ag51
ag78
ag78
ag77
ag51
asg80
(lp106
g51
ag51
ag77
ag51
ag78
ag79
ag78
ag79
ag51
ag51
ag78
ag51
ag51
ag51
asg82
(lp107
g78
ag51
ag79
ag51
ag78
ag79
ag78
ag79
ag78
ag51
ag78
ag51
ag78
ag51
asaa(lp108
I3
ag39
(g40
tp109
Rp110
g43
(lp111
g45
ag46
ag47
ag46
ag45
ag46
ag45
ag46
ag45
ag46
ag45
ag46
ag45
ag46
ag45
ag46
asg48
(lp112
I01
aI01
aI01
aI01
aI01
aI00
aI01
aI00
aI01
aI00
aI01
aI01
aI01
aI01
aI01
aI01
asg50
I16
sg51
g54
sg55
(lp113
(g57
I0
g24
tp114
ag61
ag63
ag64
ag66
ag68
ag104
ag68
ag104
ag68
ag104
ag68
ag70
ag72
ag73
ag74
asg75
(lp115
g79
ag51
ag79
ag51
ag78
ag79
ag78
ag51
ag78
ag51
ag78
ag78
ag78
ag51
ag78
ag51
asg80
(lp116
g78
ag51
ag79
ag78
ag78
ag79
ag78
ag79
ag78
ag79
ag78
ag78
ag78
ag77
ag78
ag51
asg82
(lp117
g78
ag51
ag79
ag51
ag78
ag79
ag78
ag79
ag78
ag79
ag78
ag51
ag78
ag51
ag78
ag51
asaa(lp118
I4
ag39
(g40
tp119
Rp120
g43
(lp121
g45
ag46
ag47
ag46
ag45
ag46
ag45
ag45
ag45
ag45
ag46
ag45
ag46
ag45
ag46
ag45
ag46
ag45
ag45
ag46
ag45
ag46
ag45
ag46
ag45
ag46
ag45
ag46
ag45
ag46
asg48
(lp122
I01
aI01
aI01
aI01
aI01
aI01
aI00
aI00
aI00
aI01
aI01
aI01
aI00
aI00
aI00
aI01
aI00
aI00
aI01
aI01
aI00
aI01
aI00
aI00
aI01
aI00
aI01
aI01
aI01
aI01
asg50
I30
sg51
g54
sg55
(lp123
(g57
I0
g24
tp124
ag61
ag63
ag64
ag66
ag68
ag70
a(g69
I0
g60
tp125
ag125
ag125
ag72
ag73
ag74
a(g69
F1.5707963267948966
g71
tp126
ag93
a(g69
I0
g60
tp127
ag72
ag127
ag125
ag72
ag73
ag93
ag73
ag93
ag127
ag72
ag127
ag72
ag73
ag74
asg75
(lp128
g78
ag51
ag79
ag51
ag78
ag51
ag77
ag77
ag77
ag78
ag51
ag78
ag51
ag77
ag51
ag78
ag79
ag77
ag78
ag51
ag77
ag51
ag77
ag51
ag78
ag79
ag78
ag79
ag77
ag51
asg80
(lp129
g78
ag51
ag79
ag51
ag78
ag51
ag77
ag77
ag77
ag78
ag77
ag78
ag79
ag77
ag79
ag78
ag79
ag77
ag78
ag51
ag77
ag51
ag77
ag79
ag78
ag79
ag78
ag51
ag78
ag77
asg82
(lp130
g78
ag51
ag79
ag51
ag78
ag51
ag77
ag77
ag77
ag78
ag51
ag78
ag79
ag77
ag79
ag78
ag79
ag77
ag78
ag51
ag77
ag51
ag77
ag79
ag78
ag79
ag78
ag51
ag78
ag51
asaa(lp131
I5
ag39
(g40
tp132
Rp133
g43
(lp134
g45
ag46
ag47
ag46
ag45
ag46
ag45
ag46
ag45
ag46
asg48
(lp135
I01
aI01
aI01
aI01
aI01
aI01
aI01
aI01
aI01
aI01
asg50
I10
sg51
g54
sg55
(lp136
(g57
I0
g24
tp137
ag61
ag63
ag64
ag66
ag68
ag70
ag72
ag73
ag74
asg75
(lp138
g78
ag51
ag79
ag78
ag78
ag51
ag78
ag51
ag78
ag51
asg80
(lp139
g78
ag51
ag79
ag78
ag51
ag77
ag78
ag51
ag78
ag77
asg82
(lp140
g78
ag51
ag79
ag51
ag78
ag51
ag78
ag51
ag78
ag51
asaa(lp141
I6
ag39
(g40
tp142
Rp143
g43
(lp144
g45
ag46
ag47
ag46
ag45
ag45
ag45
ag46
ag45
ag46
ag45
ag46
asg48
(lp145
I01
aI01
aI01
aI01
aI00
aI00
aI01
aI01
aI01
aI01
aI01
aI01
asg50
I12
sg51
g54
sg55
(lp146
(g57
I0
g24
tp147
ag61
ag63
ag64
ag66
ag67
ag67
ag68
ag70
ag72
ag73
ag74
asg75
(lp148
g77
ag51
ag79
ag51
ag77
ag78
ag78
ag51
ag78
ag51
ag78
ag51
asg80
(lp149
g51
ag51
ag79
ag77
ag77
ag77
ag78
ag51
ag78
ag51
ag78
ag51
asg82
(lp150
g78
ag51
ag79
ag51
ag77
ag77
ag78
ag51
ag78
ag51
ag78
ag51
asaa(lp151
I7
ag39
(g40
tp152
Rp153
g43
(lp154
g45
ag45
ag46
ag47
ag46
ag45
ag46
ag45
ag46
ag45
ag46
ag45
ag46
ag45
ag46
ag45
ag46
ag45
ag46
ag45
ag46
ag45
ag46
asg48
(lp155
I00
aI01
aI01
aI01
aI01
aI01
aI01
aI01
aI01
aI01
aI00
aI01
aI00
aI00
aI00
aI01
aI01
aI00
aI01
aI00
aI01
aI01
aI01
asg50
I23
sg51
g54
sg55
(lp156
(g57
I0
g24
tp157
ag59
ag61
ag63
ag64
ag66
ag68
ag70
ag72
ag73
ag74
ag126
ag74
ag126
ag93
ag127
ag72
ag73
ag93
ag73
ag93
ag73
ag74
asg75
(lp158
g77
ag78
ag51
ag78
ag51
ag78
ag51
ag78
ag51
ag51
ag51
ag78
ag51
ag77
ag79
ag78
ag78
ag77
ag51
ag78
ag78
ag78
ag51
asg80
(lp159
g77
ag51
ag51
ag78
ag51
ag78
ag51
ag78
ag51
ag51
ag79
ag78
ag79
ag77
ag79
ag78
ag77
ag77
ag51
ag77
ag78
ag78
ag77
asg82
(lp160
g77
ag78
ag51
ag79
ag51
ag78
ag51
ag78
ag51
ag78
ag79
ag78
ag79
ag77
ag79
ag78
ag51
ag77
ag51
ag77
ag51
ag78
ag51
asaa(lp161
I8
ag39
(g40
tp162
Rp163
g43
(lp164
g45
ag46
ag47
ag46
ag45
ag46
ag45
ag46
ag45
ag46
ag45
ag46
ag45
ag46
ag45
ag46
ag45
ag46
asg48
(lp165
I01
aI01
aI01
aI00
aI01
aI01
aI01
aI01
aI01
aI01
aI01
aI00
aI00
aI01
aI00
aI01
aI01
aI01
asg50
I18
sg51
g54
sg55
(lp166
(g57
I0
g24
tp167
ag61
ag63
ag64
a(g62
I0
g71
tp168
a(g62
I0
g53
tp169
ag66
ag68
ag70
ag72
ag73
ag74
ag126
ag93
ag73
ag93
ag73
ag74
asg75
(lp170
g79
ag51
ag79
ag77
ag51
ag51
ag77
ag51
ag78
ag51
ag78
ag79
ag78
ag51
ag77
ag51
ag78
ag79
asg80
(lp171
g51
ag51
ag78
ag79
ag51
ag51
ag78
ag51
ag51
ag51
ag78
ag79
ag77
ag51
ag77
ag78
ag78
ag78
asg82
(lp172
g78
ag51
ag79
ag79
ag78
ag51
ag78
ag51
ag78
ag51
ag78
ag79
ag77
ag51
ag77
ag51
ag78
ag51
asaa(lp173
I9
ag39
(g40
tp174
Rp175
g43
(lp176
g45
ag46
ag47
ag47
ag46
ag45
ag46
ag45
ag45
ag46
ag45
ag47
ag46
ag45
ag46
asg48
(lp177
I01
aI01
aI00
aI01
aI01
aI01
aI00
aI00
aI01
aI01
aI00
aI01
aI01
aI01
aI01
asg50
I15
sg51
g54
sg55
(lp178
(g57
I0
g24
tp179
ag61
ag63
a(g62
I0
g60
tp180
ag64
ag66
ag68
ag104
ag67
ag68
ag70
a(g69
I0
g53
tp181
a(g69
I0
g71
tp182
ag73
ag74
asg75
(lp183
g78
ag51
ag51
ag51
ag51
ag78
ag79
ag78
ag78
ag51
ag77
ag79
ag51
ag78
ag78
asg80
(lp184
g78
ag78
ag51
ag77
ag78
ag78
ag79
ag77
ag78
ag78
ag79
ag77
ag78
ag78
ag51
asg82
(lp185
g78
ag51
ag51
ag79
ag51
ag78
ag79
ag77
ag78
ag51
ag79
ag79
ag51
ag78
ag51
asaatp186
Rp187
aatp188
Rp189
.