ccollections
OrderedDict
p0
((lp1
(lp2
S'combination_dict'
p3
ag0
((lp4
(lp5
S'r_to_g_config'
p6
aS'br'
p7
aa(lp8
S'num_turns'
p9
aI2
aa(lp10
S'start_direction'
p11
acutils_ms
StartDirection
p12
(I0
tp13
Rp14
aa(lp15
S'assistance_type'
p16
acutils_ms
AssistanceType
p17
(I1
tp18
Rp19
aa(lp20
S'start_mode'
p21
aS'y'
p22
aa(lp23
S'ui_given_a_noise'
p24
aF0.7
aa(lp25
S'um_given_ui_noise'
p26
aF0.3
aa(lp27
S'entropy_threshold'
p28
aF0.8
aatp29
Rp30
aa(lp31
S'data'
p32
accollections
defaultdict
p33
(c__builtin__
list
p34
tp35
Rp36
S'a'
p37
(lp38
S'mode_l'
p39
ag39
ag39
aS'move_p'
p40
aS'mode_r'
p41
ag40
ag39
ag40
ag39
ag41
aS'move_n'
p42
ag39
ag40
ag41
ag40
ag41
ag39
ag42
ag41
ag41
ag41
ag42
ag39
ag41
ag40
ag39
ag41
ag41
ag39
ag39
ag39
ag41
ag39
ag41
ag41
ag41
ag41
ag39
ag40
ag41
ag40
ag41
ag40
ag41
ag41
ag42
ag39
ag41
ag41
ag41
ag40
ag39
ag40
asS'assistance_match_with_ground_truth'
p43
(lp44
I00
aI00
aI01
aI00
aI01
aI01
aI01
aI01
aI00
aI01
aI00
aI01
aI00
aI01
aI01
aI00
aI01
aI00
aI00
aI00
aI01
aI00
aI00
aI01
aI00
aI00
aI00
aI00
aI00
aI00
aI00
aI00
aI00
aI00
aI00
aI00
aI00
aI01
aI00
aI01
aI00
aI01
aI01
aI00
aI01
aI01
aI00
aI00
aI00
aI01
aI00
aI01
aI01
asS'total_steps'
p45
I53
sS'sp'
p46
(lp47
(S'p0'
p48
I0
S'y'
p49
tp50
ag50
a(g48
I0
S'x'
p51
tp52
a(g48
I0
S't'
p53
tp54
a(g48
I0
g51
tp55
a(S'p1'
p56
I0
g51
tp57
a(g56
I0
g53
tp58
a(g56
F1.5707963267948966
g53
tp59
a(g56
F1.5707963267948966
g51
tp60
a(g56
F1.5707963267948966
g49
tp61
a(g48
F1.5707963267948966
g49
tp62
a(g48
F1.5707963267948966
g51
tp63
a(g48
F1.5707963267948966
g53
tp64
a(g48
F1.5707963267948966
g51
tp65
a(g56
F1.5707963267948966
g51
tp66
a(g56
F1.5707963267948966
g53
tp67
a(g56
F1.5707963267948966
g49
tp68
a(g56
F1.5707963267948966
g51
tp69
a(g56
F1.5707963267948966
g51
tp70
ag70
ag61
ag62
a(g48
F1.5707963267948966
g53
tp71
ag65
a(g48
F1.5707963267948966
g49
tp72
ag71
a(g48
F1.5707963267948966
g53
tp73
a(g48
F1.5707963267948966
g49
tp74
a(g48
F1.5707963267948966
g49
tp75
ag75
ag71
ag74
ag71
ag73
ag73
ag73
ag74
ag63
ag64
ag65
ag64
ag65
ag66
ag70
ag61
a(S'p2'
p76
F1.5707963267948966
g49
tp77
a(g76
F1.5707963267948966
g53
tp78
a(g76
F1.5707963267948966
g53
tp79
ag79
a(g76
F1.5707963267948966
g51
tp80
a(g76
F1.5707963267948966
g49
tp81
a(g76
F1.5707963267948966
g51
tp82
a(S'p3'
p83
F1.5707963267948966
g51
tp84
asS's'
p85
(lp86
(g48
I0
g22
tp87
ag50
ag50
ag52
ag54
ag55
ag57
ag58
ag59
ag60
ag61
ag62
ag63
ag64
ag65
ag66
ag67
ag68
ag69
ag70
ag70
ag61
ag62
ag71
ag65
ag72
ag71
ag73
ag74
ag75
ag75
ag71
ag74
ag71
ag73
ag73
ag73
ag74
ag63
ag64
ag65
ag64
ag65
ag66
ag70
ag61
ag77
ag78
ag79
ag79
ag80
ag81
ag82
asS'ui'
p88
(lp89
S'hs'
p90
ag46
ag90
ag90
aS'hp'
p91
ag46
ag90
ag46
ag91
ag91
ag46
ag90
ag90
ag91
ag90
ag90
ag90
ag90
ag46
ag46
ag91
ag46
ag91
ag91
ag46
ag90
ag91
ag91
aS'ss'
p92
ag92
ag91
ag90
ag91
ag91
ag46
ag91
ag92
ag90
ag90
ag91
ag90
ag91
ag46
ag92
ag91
ag92
ag91
ag91
ag46
ag91
ag91
ag90
ag46
asS'um_before'
p93
(lp94
g46
ag46
ag90
ag90
ag91
ag46
ag90
ag46
ag91
ag91
ag46
ag90
ag90
ag91
ag46
ag90
ag90
ag90
ag46
ag46
ag91
ag46
ag91
ag91
ag91
ag91
ag46
ag90
ag92
ag92
ag91
ag90
ag91
ag46
ag46
ag46
ag90
ag90
ag90
ag91
ag90
ag91
ag46
ag46
ag91
ag92
ag91
ag46
ag46
ag91
ag91
ag90
ag46
asS'um_after'
p95
(lp96
g46
ag46
ag90
ag90
ag91
ag46
ag90
ag46
ag91
ag91
ag46
ag90
ag90
ag91
ag46
ag90
ag90
ag90
ag46
ag46
ag91
ag46
ag91
ag91
ag91
ag91
ag46
ag90
ag92
ag92
ag91
ag90
ag91
ag46
ag46
ag46
ag90
ag90
ag90
ag91
ag90
ag91
ag46
ag46
ag91
ag92
ag91
ag46
ag46
ag91
ag91
ag90
ag46
asaa(lp97
S'index'
p98
aI99081
aatp99
Rp100
.