ccollections
OrderedDict
p0
((lp1
(lp2
S'combination_dict'
p3
ag0
((lp4
(lp5
S'r_to_g_config'
p6
aS'bl'
p7
aa(lp8
S'num_turns'
p9
aI3
aa(lp10
S'start_direction'
p11
acutils_ms
StartDirection
p12
(I1
tp13
Rp14
aa(lp15
S'assistance_type'
p16
acutils_ms
AssistanceType
p17
(I0
tp18
Rp19
aa(lp20
S'start_mode'
p21
aS'x'
p22
aa(lp23
S'ui_given_a_noise'
p24
aF0.5
aa(lp25
S'um_given_ui_noise'
p26
aF0.7
aa(lp27
S'entropy_threshold'
p28
aF0.9
aatp29
Rp30
aa(lp31
S'data'
p32
accollections
defaultdict
p33
(c__builtin__
list
p34
tp35
Rp36
S'a'
p37
(lp38
S'mode_r'
p39
ag39
aS'move_n'
p40
ag40
aS'mode_l'
p41
ag41
ag41
ag41
ag41
ag40
ag40
ag40
ag40
ag40
ag40
ag39
ag39
ag40
ag40
ag41
ag41
ag40
ag39
ag39
ag40
ag41
ag41
ag40
ag40
ag40
ag40
ag39
ag39
ag39
ag40
ag40
ag40
ag41
ag40
ag39
ag39
ag39
ag39
ag40
ag40
ag41
ag41
ag41
ag40
ag39
ag39
ag39
ag39
ag39
ag39
ag39
ag39
ag39
ag39
ag39
ag39
ag40
ag40
ag40
ag41
ag41
ag41
ag41
ag40
ag39
ag40
ag41
ag40
ag40
ag39
ag40
ag41
ag41
ag40
ag39
ag39
ag40
ag41
ag41
ag41
ag41
ag41
ag40
ag40
ag40
ag39
ag39
ag40
ag41
ag40
ag39
ag39
ag39
ag39
ag40
ag40
ag41
ag40
ag40
ag40
ag39
ag40
ag40
ag41
ag40
ag39
ag40
ag39
aS'move_p'
p42
ag41
ag42
ag42
ag42
ag39
ag39
ag39
ag39
ag39
ag39
ag39
ag39
ag39
ag39
ag39
ag40
ag39
ag40
ag41
ag40
ag39
ag39
ag40
ag41
ag41
ag41
ag41
ag41
ag40
ag39
ag39
ag40
ag41
ag40
ag39
ag40
ag40
ag40
ag40
ag40
ag40
ag40
ag40
ag40
ag40
ag40
ag40
ag40
ag40
ag40
ag41
ag41
ag41
ag41
ag41
ag41
ag41
ag41
ag40
ag40
ag40
ag39
ag39
ag40
ag41
ag40
ag40
ag40
asS'assistance_match_with_ground_truth'
p43
(lp44
I00
aI01
aI00
aI01
aI00
aI00
aI00
aI00
aI01
aI00
aI00
aI00
aI00
aI00
aI00
aI00
aI01
aI00
aI01
aI00
aI01
aI01
aI00
aI01
aI00
aI00
aI01
aI00
aI00
aI00
aI00
aI00
aI00
aI01
aI00
aI00
aI01
aI01
aI00
aI00
aI00
aI00
aI01
aI00
aI01
aI00
aI00
aI01
aI00
aI00
aI00
aI00
aI00
aI00
aI00
aI00
aI00
aI00
aI00
aI00
aI01
aI00
aI00
aI01
aI00
aI00
aI00
aI01
aI01
aI01
aI00
aI01
aI00
aI01
aI01
aI00
aI00
aI01
aI01
aI00
aI01
aI00
aI00
aI00
aI00
aI00
aI01
aI00
aI00
aI01
aI00
aI01
aI00
aI01
aI00
aI00
aI00
aI00
aI01
aI00
aI01
aI01
aI00
aI00
aI00
aI01
aI00
aI01
aI01
aI01
aI01
aI01
aI01
aI00
aI01
aI00
aI00
aI01
aI00
aI00
aI00
aI00
aI00
aI00
aI00
aI00
aI00
aI00
aI01
aI00
aI01
aI01
aI01
aI00
aI00
aI01
aI00
aI00
aI00
aI00
aI00
aI01
aI00
aI00
aI01
aI01
aI01
aI00
aI01
aI00
aI00
aI00
aI00
aI00
aI00
aI00
aI00
aI00
aI00
aI00
aI00
aI00
aI00
aI01
aI00
aI00
aI00
aI00
aI00
aI00
aI00
aI01
aI00
aI00
aI01
aI00
aI01
aI01
aI01
aI00
aI00
aI01
asS'total_steps'
p45
I182
sS'sp'
p46
(lp47
(S'p0'
p48
I0
g22
tp49
a(g48
I0
S'y'
p50
tp51
ag51
a(S'p1'
p52
I0
g50
tp53
ag53
a(g52
I0
g50
tp54
ag54
a(g52
I0
g50
tp55
a(g52
I0
S'x'
p56
tp57
ag57
ag57
ag57
ag57
ag57
a(g48
I0
g56
tp58
ag58
ag51
a(g48
I0
g50
tp59
ag53
ag54
ag57
a(S'p2'
p60
I0
g56
tp61
ag61
a(g60
I0
g50
tp62
a(g52
I0
g50
tp63
ag63
ag57
ag57
ag57
ag57
ag58
ag58
ag58
ag51
ag51
ag59
ag53
ag57
ag58
ag58
ag58
ag58
ag51
ag51
ag53
ag53
ag53
ag57
ag58
ag58
ag58
ag58
ag58
ag58
ag58
ag58
ag58
ag58
ag58
ag58
ag51
ag51
ag59
ag53
ag54
ag55
ag55
ag57
ag61
ag62
ag63
ag57
ag57
ag61
ag62
ag63
ag55
ag57
ag61
ag61
ag62
ag63
ag54
ag54
ag55
ag55
ag57
ag57
ag57
ag61
ag61
ag62
ag63
ag57
ag58
ag58
ag58
ag58
ag51
ag51
ag53
ag57
ag57
ag57
ag58
ag51
ag51
ag53
ag57
ag61
ag62
a(S'p3'
p64
I0
g50
tp65
a(g64
I0
S't'
p66
tp67
a(g64
I0
g56
tp68
a(g64
I0
g66
tp69
ag69
a(g64
I0
g66
tp70
a(g64
F1.5707963267948966
g66
tp71
ag71
ag71
ag71
ag71
ag71
ag71
ag71
ag71
ag71
ag71
a(g64
F1.5707963267948966
g56
tp72
a(g60
F1.5707963267948966
g56
tp73
a(g60
F1.5707963267948966
g50
tp74
a(g64
F1.5707963267948966
g50
tp75
a(g64
F1.5707963267948966
g56
tp76
ag73
ag73
ag74
a(g52
F1.5707963267948966
g50
tp77
a(g52
F1.5707963267948966
g50
tp78
ag78
ag78
a(g52
F1.5707963267948966
g50
tp79
a(g52
F1.5707963267948966
g56
tp80
a(g48
F1.5707963267948966
g56
tp81
ag81
a(g48
F1.5707963267948966
g50
tp82
a(g52
F1.5707963267948966
g50
tp83
ag80
ag81
ag82
a(g48
F1.5707963267948966
g50
tp84
ag84
ag84
ag84
ag84
ag84
ag84
ag84
ag84
ag84
ag84
ag84
ag84
ag84
ag83
ag83
ag79
ag79
ag79
ag79
ag78
ag78
ag80
ag80
ag80
a(g60
F1.5707963267948966
g56
tp85
ag85
ag74
ag75
ag76
ag76
ag76
a(S'p4'
p86
F1.5707963267948966
g56
tp87
asS's'
p88
(lp89
g49
ag49
ag51
ag51
ag53
ag53
ag54
ag54
ag55
ag57
ag57
ag57
ag57
ag57
ag57
ag58
ag58
ag51
ag59
ag53
ag54
ag57
ag61
ag61
ag62
ag63
ag63
ag57
ag57
ag57
ag57
ag58
ag58
ag58
ag51
ag51
ag59
ag53
ag57
ag58
ag58
ag58
ag58
ag51
ag51
ag53
ag53
ag53
ag57
ag58
ag58
ag58
ag58
ag58
ag58
ag58
ag58
ag58
ag58
ag58
ag58
ag51
ag51
ag59
ag53
ag54
ag55
ag55
ag57
ag61
ag62
ag63
ag57
ag57
ag61
ag62
ag63
ag55
ag57
ag61
ag61
ag62
ag63
ag54
ag54
ag55
ag55
ag57
ag57
ag57
ag61
ag61
ag62
ag63
ag57
ag58
ag58
ag58
ag58
ag51
ag51
ag53
ag57
ag57
ag57
ag58
ag51
ag51
ag53
ag57
ag61
ag62
ag65
ag67
ag68
ag69
ag69
ag70
ag71
ag71
ag71
ag71
ag71
ag71
ag71
ag71
ag71
ag71
ag71
ag72
ag73
ag74
ag75
ag76
ag73
ag73
ag74
ag77
ag78
ag78
ag78
ag79
ag80
ag81
ag81
ag82
ag83
ag80
ag81
ag82
ag84
ag84
ag84
ag84
ag84
ag84
ag84
ag84
ag84
ag84
ag84
ag84
ag84
ag84
ag83
ag83
ag79
ag79
ag79
ag79
ag78
ag78
ag80
ag80
ag80
ag85
ag85
ag74
ag75
ag76
ag76
ag76
asS'ui'
p90
(lp91
S'hp'
p92
ag92
aS'ss'
p93
ag93
ag93
ag92
aS'hs'
p94
ag93
ag94
ag93
ag92
ag93
ag92
ag93
ag92
ag93
ag92
ag46
ag93
ag94
ag94
ag92
ag92
ag92
ag46
ag94
ag94
ag46
ag93
ag94
ag46
ag46
ag92
ag92
ag93
ag46
ag93
ag94
ag46
ag46
ag46
ag92
ag92
ag93
ag93
ag92
ag92
ag94
ag93
ag93
ag46
ag92
ag93
ag93
ag93
ag46
ag92
ag93
ag93
ag46
ag92
ag93
ag46
ag93
ag94
ag94
ag92
ag94
ag93
ag92
ag93
ag93
ag93
ag93
ag92
ag93
ag94
ag94
ag93
ag46
ag93
ag46
ag94
ag94
ag94
ag93
ag94
ag92
ag93
ag93
ag92
ag92
ag92
ag94
ag92
ag92
ag94
ag92
ag92
ag93
ag93
ag94
ag46
ag93
ag93
ag92
ag93
ag93
ag93
ag92
ag46
ag93
ag46
ag92
ag94
ag93
ag46
ag46
ag93
ag46
ag46
ag92
ag46
ag46
ag92
ag92
ag92
ag92
ag92
ag92
ag92
ag93
ag94
ag46
ag94
ag93
ag93
ag46
ag94
ag93
ag93
ag94
ag46
ag93
ag92
ag92
ag93
ag92
ag92
ag46
ag92
ag92
ag46
ag46
ag46
ag46
ag46
ag46
ag93
ag46
ag92
ag92
ag46
ag93
ag94
ag46
ag93
ag46
ag94
ag93
ag94
ag94
ag93
ag46
ag46
ag93
ag93
ag93
ag94
ag92
ag93
ag93
asS'um_before'
p95
(lp96
g94
ag92
ag94
ag93
ag92
ag46
ag46
ag93
ag94
ag92
ag94
ag92
ag92
ag94
ag46
ag46
ag92
ag46
ag93
ag46
ag94
ag93
ag93
ag92
ag46
ag92
ag94
ag94
ag94
ag94
ag46
ag46
ag46
ag92
ag92
ag46
ag93
ag94
ag46
ag46
ag93
ag46
ag92
ag92
ag93
ag92
ag92
ag94
ag46
ag46
ag94
ag94
ag46
ag94
ag93
ag93
ag46
ag46
ag94
ag46
ag92
ag94
ag46
ag93
ag46
ag93
ag93
ag94
ag93
ag92
ag46
ag94
ag92
ag93
ag92
ag46
ag93
ag94
ag93
ag46
ag92
ag46
ag46
ag46
ag93
ag92
ag94
ag92
ag94
ag93
ag46
ag92
ag46
ag94
ag46
ag94
ag94
ag46
ag92
ag94
ag93
ag94
ag92
ag94
ag46
ag92
ag92
ag93
ag94
ag93
ag92
ag93
ag92
ag92
ag94
ag94
ag93
ag46
ag93
ag46
ag46
ag46
ag93
ag46
ag46
ag46
ag46
ag46
ag92
ag46
ag92
ag93
ag94
ag46
ag94
ag92
ag46
ag46
ag46
ag46
ag93
ag94
ag46
ag94
ag92
ag93
ag94
ag46
ag92
ag46
ag46
ag46
ag46
ag94
ag46
ag94
ag92
ag94
ag46
ag94
ag92
ag92
ag46
ag93
ag92
ag93
ag93
ag92
ag93
ag46
ag46
ag94
ag92
ag94
ag93
ag94
ag92
ag93
ag94
ag92
ag94
ag93
asS'um_after'
p97
(lp98
Nag92
aNag93
aNag46
ag46
ag93
ag94
aNaNaNaNaNag46
aNag92
ag46
ag93
ag46
ag94
ag93
aNag92
ag46
aNag94
aNaNaNag46
aNaNag92
aNag46
ag93
ag94
ag46
aNaNaNag92
aNag93
aNaNag94
ag46
aNaNaNaNaNaNaNaNaNaNaNag92
aNag46
ag93
ag46
ag93
ag93
ag94
ag93
ag92
ag46
ag94
aNag93
ag92
ag46
ag93
ag94
ag93
aNag92
ag46
ag46
ag46
ag93
aNag94
aNaNag93
aNag92
ag46
ag94
ag46
aNaNaNag92
aNag93
ag94
aNaNag46
ag92
aNag93
ag94
ag93
ag92
ag93
ag92
ag92
ag94
aNag93
ag46
aNaNaNaNaNaNaNaNaNaNag92
ag46
ag92
ag93
ag94
ag46
aNag92
ag46
ag46
ag46
ag46
ag93
ag94
ag46
aNag92
ag93
ag94
ag46
ag92
ag46
ag46
ag46
ag46
aNag46
aNaNaNag46
aNaNaNag46
ag93
aNag93
ag93
aNag93
ag46
ag46
ag94
aNaNag93
aNag92
ag93
ag94
aNaNag93
asaa(lp99
S'index'
p100
aI82198
aatp101
Rp102
.