ccollections
OrderedDict
p0
((lp1
(lp2
S'index'
p3
aI11920
aa(lp4
S'combination_dict'
p5
ag0
((lp6
(lp7
S'r_to_g_config'
p8
aS'br'
p9
aa(lp10
S'num_turns'
p11
aI1
aa(lp12
S'start_direction'
p13
acutils_ms
StartDirection
p14
(I3
tp15
Rp16
aa(lp17
S'assistance_type'
p18
acutils_ms
AssistanceType
p19
(I1
tp20
Rp21
aa(lp22
S'start_mode'
p23
aS't'
p24
aa(lp25
S'ui_given_a_noise'
p26
aF0.5
aa(lp27
S'um_given_ui_noise'
p28
aF0.1
aa(lp29
S'entropy_threshold'
p30
aF0.5
aa(lp31
S'is_assistance'
p32
aI01
aatp33
Rp34
aa(lp35
S'trials'
p36
ag0
((lp37
(lp38
I0
accollections
defaultdict
p39
(c__builtin__
list
p40
tp41
Rp42
S'a'
p43
(lp44
S'mode_r'
p45
aS'move_p'
p46
aS'mode_l'
p47
ag46
ag46
ag46
ag47
aS'move_n'
p48
ag45
ag48
ag47
ag46
ag45
ag48
asS'assistance_match_with_ground_truth'
p49
(lp50
I01
aI01
aI01
aI00
aI00
aI01
aI01
aI00
aI01
aI00
aI01
aI01
aI01
aI01
asS'total_steps'
p51
I14
sS'sp'
p52
(S'p2'
p53
F1.5707963267948966
S'y'
p54
tp55
sS's'
p56
(lp57
(S'p0'
p58
I0
g24
tp59
a(g58
I0
S'x'
p60
tp61
a(S'p1'
p62
I0
g60
tp63
a(g62
I0
S't'
p64
tp65
a(g62
I0
g64
tp66
ag66
a(g62
F1.5707963267948966
g64
tp67
a(g62
F1.5707963267948966
g54
tp68
a(g62
F1.5707963267948966
g60
tp69
a(g62
F1.5707963267948966
g54
tp70
a(g58
F1.5707963267948966
g54
tp71
a(g58
F1.5707963267948966
g60
tp72
a(g62
F1.5707963267948966
g60
tp73
ag70
asS'ui'
p74
(lp75
S'hp'
p76
ag52
aS'hs'
p77
aS'ss'
p78
ag52
ag52
ag77
ag77
ag77
ag52
ag77
ag52
ag76
ag78
asS'um_before'
p79
(lp80
g76
ag52
ag77
ag78
ag78
ag52
ag77
ag77
ag76
ag52
ag77
ag52
ag76
ag78
asS'um_after'
p81
(lp82
g76
ag52
ag77
ag78
ag78
ag52
ag77
ag77
ag76
ag52
ag77
ag52
ag76
ag78
asaa(lp83
I1
ag39
(g40
tp84
Rp85
g43
(lp86
g45
ag46
ag47
ag45
ag47
ag46
ag45
ag45
ag46
ag45
ag46
ag47
ag46
ag46
ag47
ag47
ag46
ag46
ag46
ag47
ag46
ag47
ag46
ag47
ag47
ag48
asg49
(lp87
I01
aI01
aI00
aI00
aI01
aI00
aI00
aI01
aI00
aI01
aI00
aI01
aI00
aI00
aI00
aI01
aI00
aI00
aI00
aI01
aI01
aI01
aI01
aI00
aI01
aI01
asg51
I26
sg52
g55
sg56
(lp88
(g58
I0
g24
tp89
ag61
ag63
a(g62
I0
g54
tp90
a(g58
I0
g54
tp91
a(g58
I0
g60
tp92
a(g58
I0
g64
tp93
a(g58
I0
g64
tp94
ag61
ag93
ag61
a(g58
I0
g54
tp95
ag92
a(g58
I0
g60
tp96
ag95
a(g58
I0
g54
tp97
ag92
ag96
ag96
ag95
ag92
ag63
ag65
ag67
a(g62
F1.5707963267948966
g64
tp98
ag68
asg74
(lp99
g76
ag52
ag77
ag52
ag77
ag77
ag76
ag76
ag77
ag76
ag52
ag77
ag78
ag77
ag77
ag77
ag78
ag78
ag76
ag77
ag52
ag77
ag52
ag52
ag77
ag78
asg79
(lp100
g76
ag52
ag76
ag52
ag77
ag77
ag52
ag76
ag77
ag76
ag76
ag77
ag78
ag76
ag52
ag77
ag78
ag78
ag76
ag77
ag52
ag77
ag52
ag52
ag77
ag78
asg81
(lp101
g76
ag52
ag76
ag52
ag77
ag77
ag52
ag76
ag77
ag76
ag76
ag77
ag78
ag76
ag52
ag77
ag78
ag78
ag76
ag77
ag52
ag77
ag52
ag52
ag77
ag78
asaa(lp102
I2
ag39
(g40
tp103
Rp104
g43
(lp105
g45
ag46
ag47
ag46
ag47
ag48
asg49
(lp106
I01
aI01
aI01
aI01
aI01
aI01
asg51
I6
sg52
g55
sg56
(lp107
(g58
I0
g24
tp108
ag61
ag63
ag65
ag67
ag68
asg74
(lp109
g76
ag52
ag77
ag52
ag77
ag78
asg79
(lp110
g76
ag52
ag77
ag52
ag77
ag78
asg81
(lp111
g76
ag52
ag77
ag52
ag77
ag78
asaa(lp112
I3
ag39
(g40
tp113
Rp114
g43
(lp115
g45
ag46
ag46
ag47
ag46
ag47
ag48
ag47
ag45
ag48
asg49
(lp116
I01
aI00
aI01
aI01
aI01
aI01
aI00
aI00
aI01
aI01
asg51
I10
sg52
g55
sg56
(lp117
(g58
I0
g24
tp118
ag61
ag96
ag63
ag65
ag67
ag68
a(g62
F1.5707963267948966
g64
tp119
a(g62
F1.5707963267948966
g60
tp120
ag70
asg74
(lp121
g76
ag52
ag52
ag77
ag52
ag77
ag78
ag77
ag76
ag78
asg79
(lp122
g76
ag78
ag52
ag77
ag52
ag77
ag76
ag76
ag76
ag78
asg81
(lp123
g76
ag78
ag52
ag77
ag52
ag77
ag76
ag76
ag76
ag78
asaa(lp124
I4
ag39
(g40
tp125
Rp126
g43
(lp127
g45
ag46
ag47
ag46
ag47
ag45
ag47
ag46
ag46
ag47
ag47
ag46
ag47
ag47
ag46
ag47
ag48
asg49
(lp128
I01
aI01
aI01
aI01
aI00
aI00
aI00
aI00
aI01
aI00
aI00
aI00
aI00
aI01
aI01
aI01
aI01
asg51
I17
sg52
g55
sg56
(lp129
(g58
I0
g24
tp130
ag61
ag63
ag65
ag67
ag120
a(g62
F1.5707963267948966
g64
tp131
a(g62
I0
g64
tp132
ag66
ag67
ag98
ag132
a(g62
I0
g60
tp133
a(g62
I0
g60
tp134
ag65
ag67
ag68
asg74
(lp135
g76
ag52
ag77
ag52
ag77
ag77
ag78
ag52
ag52
ag77
ag78
ag76
ag78
ag77
ag52
ag77
ag78
asg79
(lp136
g76
ag52
ag77
ag52
ag76
ag77
ag78
ag78
ag52
ag52
ag78
ag76
ag78
ag77
ag52
ag77
ag78
asg81
(lp137
g76
ag52
ag77
ag52
ag76
ag77
ag78
ag78
ag52
ag52
ag78
ag76
ag78
ag77
ag52
ag77
ag78
asaa(lp138
I5
ag39
(g40
tp139
Rp140
g43
(lp141
g45
ag47
ag46
ag45
ag46
ag47
ag46
ag47
ag45
ag48
asg49
(lp142
I00
aI01
aI00
aI01
aI01
aI01
aI01
aI00
aI01
aI01
asg51
I10
sg52
g55
sg56
(lp143
(g58
I0
g24
tp144
a(g58
I0
g54
tp145
ag92
ag93
ag61
ag63
ag65
ag67
ag120
ag70
asg74
(lp146
g76
ag77
ag52
ag76
ag52
ag77
ag52
ag77
ag76
ag78
asg79
(lp147
g77
ag77
ag77
ag76
ag52
ag77
ag52
ag76
ag76
ag78
asg81
(lp148
g77
ag77
ag77
ag76
ag52
ag77
ag52
ag76
ag76
ag78
asaa(lp149
I6
ag39
(g40
tp150
Rp151
g43
(lp152
g45
ag46
ag46
ag47
ag46
ag46
ag46
ag45
ag46
ag45
ag47
ag45
ag46
ag47
ag46
ag45
ag46
ag46
ag46
ag47
ag48
ag47
ag46
ag45
ag45
ag45
ag45
ag48
asg49
(lp153
I01
aI00
aI01
aI01
aI00
aI00
aI00
aI01
aI00
aI00
aI00
aI01
aI01
aI01
aI00
aI01
aI00
aI00
aI01
aI01
aI00
aI01
aI01
aI00
aI00
aI00
aI01
aI01
asg51
I28
sg52
g55
sg56
(lp154
(g58
I0
g24
tp155
ag61
ag96
ag63
ag65
ag66
ag66
a(g62
I0
g54
tp156
a(g62
I0
g64
tp157
ag156
ag91
a(g58
I0
g64
tp158
ag61
ag63
ag65
ag156
ag157
ag66
ag66
ag67
ag68
ag71
ag72
ag73
a(g62
F1.5707963267948966
g60
tp159
ag159
ag159
ag70
asg74
(lp160
g76
ag78
ag52
ag77
ag52
ag78
ag77
ag76
ag77
ag52
ag77
ag76
ag52
ag77
ag52
ag76
ag52
ag78
ag52
ag77
ag78
ag77
ag52
ag52
ag52
ag77
ag76
ag78
asg79
(lp161
g76
ag78
ag52
ag77
ag78
ag78
ag77
ag76
ag77
ag52
ag76
ag76
ag52
ag77
ag77
ag76
ag78
ag78
ag52
ag77
ag52
ag77
ag52
ag52
ag52
ag52
ag76
ag78
asg81
(lp162
g76
ag78
ag52
ag77
ag78
ag78
ag77
ag76
ag77
ag52
ag76
ag76
ag52
ag77
ag77
ag76
ag78
ag78
ag52
ag77
ag52
ag77
ag52
ag52
ag52
ag52
ag76
ag78
asaa(lp163
I7
ag39
(g40
tp164
Rp165
g43
(lp166
g45
ag45
ag45
ag46
ag47
ag46
ag45
ag46
ag45
ag46
ag47
ag48
asg49
(lp167
I00
aI00
aI01
aI01
aI01
aI00
aI01
aI00
aI01
aI01
aI01
aI01
asg51
I12
sg52
g55
sg56
(lp168
(g58
I0
g24
tp169
ag94
ag94
ag61
ag63
ag65
ag156
ag157
ag156
ag157
ag67
ag68
asg74
(lp170
g52
ag52
ag76
ag52
ag77
ag52
ag76
ag77
ag76
ag52
ag77
ag78
asg79
(lp171
g52
ag52
ag76
ag52
ag77
ag77
ag76
ag77
ag76
ag52
ag77
ag78
asg81
(lp172
g52
ag52
ag76
ag52
ag77
ag77
ag76
ag77
ag76
ag52
ag77
ag78
asaa(lp173
I8
ag39
(g40
tp174
Rp175
g43
(lp176
g45
ag45
ag46
ag47
ag46
ag47
ag48
ag45
ag48
ag47
ag46
ag46
ag45
ag48
asg49
(lp177
I00
aI01
aI01
aI01
aI01
aI01
aI00
aI01
aI00
aI01
aI00
aI01
aI01
aI01
asg51
I14
sg52
g55
sg56
(lp178
(g58
I0
g24
tp179
ag94
ag61
ag63
ag65
ag67
ag68
ag69
ag70
ag71
ag72
a(g58
F1.5707963267948966
g60
tp180
ag73
ag70
asg74
(lp181
g52
ag76
ag52
ag77
ag52
ag77
ag77
ag76
ag78
ag77
ag78
ag52
ag76
ag78
asg79
(lp182
g52
ag76
ag52
ag77
ag52
ag77
ag77
ag76
ag52
ag77
ag78
ag52
ag76
ag78
asg81
(lp183
g52
ag76
ag52
ag77
ag52
ag77
ag77
ag76
ag52
ag77
ag78
ag52
ag76
ag78
asaa(lp184
I9
ag39
(g40
tp185
Rp186
g43
(lp187
g45
ag46
ag47
ag47
ag47
ag46
ag46
ag47
ag48
ag47
ag48
asg49
(lp188
I01
aI01
aI00
aI00
aI01
aI00
aI01
aI01
aI00
aI01
aI01
asg51
I11
sg52
g55
sg56
(lp189
(g58
I0
g24
tp190
ag61
ag63
a(g62
I0
g60
tp191
ag191
ag65
ag66
ag67
ag68
ag119
ag68
asg74
(lp192
g76
ag52
ag77
ag52
ag77
ag78
ag52
ag77
ag76
ag77
ag78
asg79
(lp193
g76
ag52
ag52
ag52
ag77
ag78
ag52
ag77
ag76
ag77
ag78
asg81
(lp194
g76
ag52
ag52
ag52
ag77
ag78
ag52
ag77
ag76
ag77
ag78
asaatp195
Rp196
aatp197
Rp198
.