ccollections
OrderedDict
p0
((lp1
(lp2
S'combination_dict'
p3
ag0
((lp4
(lp5
S'r_to_g_config'
p6
aS'bl'
p7
aa(lp8
S'num_turns'
p9
aI3
aa(lp10
S'start_direction'
p11
acutils_ms
StartDirection
p12
(I1
tp13
Rp14
aa(lp15
S'assistance_type'
p16
acutils_ms
AssistanceType
p17
(I0
tp18
Rp19
aa(lp20
S'start_mode'
p21
aS't'
p22
aa(lp23
S'ui_given_a_noise'
p24
aF0.7
aa(lp25
S'um_given_ui_noise'
p26
aF0.5
aa(lp27
S'entropy_threshold'
p28
aF0.6
aatp29
Rp30
aa(lp31
S'data'
p32
accollections
defaultdict
p33
(c__builtin__
list
p34
tp35
Rp36
S'a'
p37
(lp38
S'mode_l'
p39
aS'move_n'
p40
ag40
ag40
aS'mode_r'
p41
ag41
ag39
ag41
ag41
ag41
ag39
ag40
ag40
ag39
ag40
ag41
ag39
ag41
ag41
ag41
ag41
ag41
ag41
ag41
ag41
ag41
ag41
ag41
ag39
ag41
ag41
ag40
ag39
ag40
ag41
ag41
ag41
ag41
ag39
ag39
ag39
ag39
ag40
ag41
ag41
ag41
ag41
ag40
ag39
ag41
ag41
ag41
ag41
ag39
ag39
ag40
ag40
ag40
ag39
ag39
ag39
ag39
ag40
ag39
ag39
ag40
ag41
ag41
ag41
ag41
ag39
ag41
ag41
ag41
ag40
ag40
ag41
ag41
ag40
ag39
ag39
ag40
ag39
ag39
ag39
aS'move_p'
p42
ag39
ag39
ag39
ag41
ag40
ag39
ag41
ag41
ag41
ag41
ag40
ag39
ag39
ag40
ag41
ag39
ag40
ag41
ag39
ag40
ag39
ag39
ag40
ag41
ag41
ag39
ag40
ag41
ag39
ag39
ag39
ag41
ag39
ag40
ag39
ag40
ag41
ag41
ag39
ag39
ag40
ag39
ag39
ag41
ag40
ag39
ag40
ag41
ag41
ag39
ag40
ag39
ag40
ag41
ag39
ag41
ag41
ag41
ag41
ag40
ag39
ag40
ag41
ag40
asS'assistance_match_with_ground_truth'
p43
(lp44
I01
aI00
aI00
aI00
aI00
aI00
aI00
aI00
aI00
aI00
aI01
aI00
aI00
aI01
aI00
aI00
aI00
aI00
aI00
aI00
aI00
aI00
aI00
aI00
aI00
aI00
aI00
aI00
aI00
aI00
aI01
aI01
aI01
aI00
aI00
aI00
aI00
aI00
aI00
aI00
aI00
aI01
aI00
aI00
aI00
aI00
aI01
aI00
aI00
aI00
aI00
aI00
aI00
aI00
aI01
aI00
aI00
aI00
aI00
aI00
aI00
aI01
aI01
aI00
aI01
aI00
aI00
aI00
aI00
aI00
aI00
aI00
aI00
aI01
aI00
aI00
aI00
aI01
aI01
aI00
aI01
aI01
aI00
aI00
aI01
aI01
aI00
aI00
aI00
aI01
aI00
aI00
aI00
aI00
aI00
aI01
aI00
aI00
aI01
aI00
aI00
aI01
aI01
aI00
aI01
aI00
aI00
aI01
aI00
aI00
aI00
aI01
aI00
aI00
aI00
aI00
aI00
aI00
aI01
aI00
aI01
aI01
aI00
aI00
aI00
aI01
aI00
aI00
aI00
aI01
aI00
aI01
aI01
aI00
aI00
aI01
aI01
aI01
aI00
aI00
aI00
aI00
aI00
aI00
aI01
aI00
aI01
aI00
aI01
aI01
asS'total_steps'
p45
I150
sS'sp'
p46
(lp47
(S'p0'
p48
I0
S'y'
p49
tp50
a(g48
I0
g49
tp51
ag51
a(g48
I0
S'x'
p52
tp53
a(g48
I0
g52
tp54
a(g48
I0
S't'
p55
tp56
a(g48
I0
g52
tp57
a(g48
I0
g52
tp58
ag58
ag56
ag50
ag51
a(g48
I0
g55
tp59
ag50
ag53
ag56
ag57
ag58
ag54
ag58
ag54
ag54
ag58
ag54
ag54
ag54
ag58
ag56
ag57
ag58
a(g48
I0
g49
tp60
a(S'p1'
p61
I0
g49
tp62
a(g61
I0
g52
tp63
a(g61
I0
g55
tp64
a(g61
I0
g55
tp65
a(g61
I0
g55
tp66
ag65
a(g61
I0
g49
tp67
a(g61
I0
g49
tp68
ag68
a(g61
I0
g49
tp69
ag63
a(g48
I0
g52
tp70
ag58
ag58
ag58
ag60
ag59
ag57
ag54
ag54
ag54
ag56
a(g48
I0
g55
tp71
ag50
ag51
ag51
ag59
a(g48
I0
g55
tp72
ag71
ag72
ag50
ag62
ag68
ag63
ag70
ag54
ag58
ag54
ag56
ag57
ag58
ag58
ag60
ag51
ag53
ag58
ag60
ag62
ag69
ag63
a(S'p2'
p73
I0
g52
tp74
a(g73
I0
g52
tp75
ag75
a(g73
I0
g55
tp76
a(g73
F1.5707963267948966
g55
tp77
a(g73
F1.5707963267948966
g55
tp78
ag78
a(g73
F1.5707963267948966
g52
tp79
a(g73
F1.5707963267948966
g49
tp80
a(g73
F1.5707963267948966
g55
tp81
ag79
a(g73
F1.5707963267948966
g52
tp82
ag82
a(g73
F1.5707963267948966
g52
tp83
ag80
a(g61
F1.5707963267948966
g49
tp84
a(g61
F1.5707963267948966
g49
tp85
a(g61
F1.5707963267948966
g52
tp86
a(g61
F1.5707963267948966
g55
tp87
a(g61
F1.5707963267948966
g49
tp88
ag86
a(g73
F1.5707963267948966
g52
tp89
a(g73
F1.5707963267948966
g55
tp90
a(g73
F1.5707963267948966
g49
tp91
ag84
ag85
ag86
ag87
a(g61
F1.5707963267948966
g55
tp92
ag88
ag86
ag87
ag88
ag85
ag85
a(g61
F1.5707963267948966
g55
tp93
ag88
ag86
a(g61
F1.5707963267948966
g49
tp94
ag86
ag89
ag83
ag90
ag78
ag91
ag84
a(g61
F1.5707963267948966
g49
tp95
ag93
a(g61
F1.5707963267948966
g52
tp96
ag94
ag86
ag89
ag83
ag90
ag91
a(S'p3'
p97
F1.5707963267948966
g49
tp98
a(g97
F1.5707963267948966
g52
tp99
a(g97
F1.5707963267948966
g55
tp100
a(g97
F1.5707963267948966
g49
tp101
a(g97
F1.5707963267948966
g55
tp102
a(g97
F1.5707963267948966
g55
tp103
a(g97
F1.5707963267948966
g55
tp104
ag103
a(g97
F1.5707963267948966
g52
tp105
a(g97
F1.5707963267948966
g49
tp106
ag99
ag100
ag105
a(S'p4'
p107
F1.5707963267948966
g52
tp108
asS's'
p109
(lp110
(g48
I0
g22
tp111
ag50
ag51
ag51
ag53
ag54
ag56
ag57
ag58
ag58
ag56
ag50
ag51
ag59
ag50
ag53
ag56
ag57
ag58
ag54
ag58
ag54
ag54
ag58
ag54
ag54
ag54
ag58
ag56
ag57
ag58
ag60
ag62
ag63
ag64
ag65
ag66
ag65
ag67
ag68
ag68
ag69
ag63
ag70
ag58
ag58
ag58
ag60
ag59
ag57
ag54
ag54
ag54
ag56
ag71
ag50
ag51
ag51
ag59
ag72
ag71
ag72
ag50
ag62
ag68
ag63
ag70
ag54
ag58
ag54
ag56
ag57
ag58
ag58
ag60
ag51
ag53
ag58
ag60
ag62
ag69
ag63
ag74
ag75
ag75
ag76
ag77
ag78
ag78
ag79
ag80
ag81
ag79
ag82
ag82
ag83
ag80
ag84
ag85
ag86
ag87
ag88
ag86
ag89
ag90
ag91
ag84
ag85
ag86
ag87
ag92
ag88
ag86
ag87
ag88
ag85
ag85
ag93
ag88
ag86
ag94
ag86
ag89
ag83
ag90
ag78
ag91
ag84
ag95
ag93
ag96
ag94
ag86
ag89
ag83
ag90
ag91
ag98
ag99
ag100
ag101
ag102
ag103
ag104
ag103
ag105
ag106
ag99
ag100
ag105
asS'ui'
p112
(lp113
S'hs'
p114
ag46
ag114
aS'hp'
p115
aS'ss'
p116
ag114
ag115
ag46
ag46
ag114
ag114
ag46
ag115
ag114
ag46
ag114
ag115
ag46
ag116
ag46
ag46
ag116
ag116
ag114
ag115
ag116
ag46
ag114
ag115
ag46
ag115
ag116
ag114
ag114
ag46
ag46
ag46
ag114
ag114
ag115
ag116
ag114
ag46
ag115
ag115
ag46
ag115
ag116
ag115
ag116
ag116
ag116
ag46
ag114
ag114
ag116
ag46
ag116
ag115
ag114
ag116
ag114
ag116
ag114
ag114
ag46
ag116
ag46
ag115
ag114
ag114
ag46
ag46
ag115
ag114
ag114
ag46
ag116
ag116
ag114
ag114
ag116
ag114
ag114
ag114
ag116
ag114
ag114
ag115
ag115
ag115
ag115
ag116
ag116
ag115
ag114
ag46
ag114
ag114
ag114
ag114
ag114
ag116
ag46
ag114
ag46
ag114
ag114
ag114
ag115
ag115
ag114
ag114
ag114
ag114
ag115
ag115
ag115
ag114
ag115
ag114
ag46
ag46
ag46
ag115
ag114
ag46
ag114
ag115
ag115
ag115
ag115
ag116
ag46
ag114
ag114
ag116
ag114
ag114
ag114
ag115
ag115
ag116
ag114
ag115
ag115
ag114
ag114
ag115
ag115
asS'um_before'
p117
(lp118
g114
ag46
ag46
ag114
ag116
ag114
ag115
ag46
ag46
ag114
ag114
ag46
ag115
ag114
ag114
ag114
ag115
ag46
ag116
ag46
ag116
ag116
ag46
ag116
ag116
ag116
ag46
ag114
ag115
ag46
ag115
ag116
ag114
ag114
ag116
ag46
ag116
ag114
ag46
ag46
ag116
ag114
ag46
ag46
ag46
ag46
ag115
ag115
ag115
ag116
ag116
ag116
ag114
ag116
ag114
ag46
ag46
ag115
ag46
ag116
ag46
ag114
ag116
ag46
ag114
ag46
ag116
ag46
ag116
ag114
ag115
ag46
ag46
ag115
ag46
ag114
ag46
ag115
ag116
ag116
ag114
ag116
ag116
ag116
ag114
ag46
ag46
ag46
ag115
ag115
ag115
ag115
ag116
ag116
ag46
ag115
ag46
ag46
ag114
ag114
ag114
ag114
ag116
ag114
ag114
ag46
ag46
ag114
ag114
ag46
ag114
ag114
ag114
ag114
ag46
ag46
ag115
ag114
ag114
ag115
ag114
ag116
ag46
ag114
ag46
ag114
ag46
ag116
ag115
ag115
ag115
ag114
ag116
ag46
ag114
ag114
ag116
ag114
ag114
ag114
ag115
ag46
ag116
ag46
ag115
ag115
ag114
ag114
ag115
ag116
asS'um_after'
p119
(lp120
g114
ag46
ag46
ag114
ag116
ag114
ag115
ag46
ag46
ag114
ag114
ag46
ag115
ag114
ag114
ag114
ag115
ag46
ag116
ag46
ag116
ag116
ag46
ag116
ag116
ag116
ag46
ag114
ag115
ag46
ag115
ag116
ag114
ag114
ag116
ag46
ag116
ag114
ag46
ag46
ag116
ag114
ag46
ag46
ag46
ag46
ag115
ag115
ag115
ag116
ag116
ag116
ag114
ag116
ag114
ag46
ag46
ag115
ag46
ag116
ag46
ag114
ag116
ag46
ag114
ag46
ag116
ag46
ag116
ag114
ag115
ag46
ag46
ag115
ag46
ag114
ag46
ag115
ag116
ag116
ag114
ag116
ag116
ag116
ag114
ag46
ag46
ag46
ag115
ag115
ag115
ag115
ag116
ag116
ag46
ag115
ag46
ag46
ag114
ag114
ag114
ag114
ag116
ag114
ag114
ag46
ag46
ag114
ag114
ag46
ag114
ag114
ag114
ag114
ag46
ag46
ag115
ag114
ag114
ag115
ag114
ag116
ag46
ag114
ag46
ag114
ag46
ag116
ag115
ag115
ag115
ag114
ag116
ag46
ag114
ag114
ag116
ag114
ag114
ag114
ag115
ag46
ag116
ag46
ag115
ag115
ag114
ag114
ag115
ag116
asaa(lp121
S'index'
p122
aI83111
aatp123
Rp124
.