ccollections
OrderedDict
p0
((lp1
(lp2
S'combination_dict'
p3
ag0
((lp4
(lp5
S'r_to_g_config'
p6
aS'bl'
p7
aa(lp8
S'num_turns'
p9
aI3
aa(lp10
S'start_direction'
p11
acutils_ms
StartDirection
p12
(I1
tp13
Rp14
aa(lp15
S'assistance_type'
p16
acutils_ms
AssistanceType
p17
(I2
tp18
Rp19
aa(lp20
S'start_mode'
p21
aS't'
p22
aa(lp23
S'ui_given_a_noise'
p24
aF0.5
aa(lp25
S'um_given_ui_noise'
p26
aF0.5
aa(lp27
S'entropy_threshold'
p28
aF0.9
aatp29
Rp30
aa(lp31
S'data'
p32
accollections
defaultdict
p33
(c__builtin__
list
p34
tp35
Rp36
S'a'
p37
(lp38
S'mode_l'
p39
aS'mode_r'
p40
aS'move_n'
p41
ag39
ag41
ag40
ag41
ag40
aS'move_p'
p42
ag40
ag40
ag40
ag42
ag40
ag39
ag41
ag40
ag40
ag41
ag40
ag42
ag40
ag42
ag39
ag42
ag40
ag39
ag40
ag42
ag42
ag42
ag40
ag40
ag40
ag40
ag40
ag42
ag40
ag42
ag40
ag41
ag40
ag40
ag41
ag39
ag39
ag40
ag40
ag40
ag40
ag40
ag39
ag39
ag40
ag41
ag40
ag40
ag40
ag39
ag41
ag40
ag40
ag41
ag40
ag41
ag39
ag41
ag40
ag40
ag41
ag41
ag39
ag39
ag41
ag41
ag41
ag41
ag40
ag40
ag40
ag41
ag41
ag41
ag39
ag41
ag40
ag40
ag40
ag41
ag41
ag39
ag41
ag40
ag40
ag41
ag39
ag39
ag41
ag40
ag40
ag39
ag39
ag41
ag40
ag41
ag40
ag40
ag40
ag39
ag41
ag39
ag39
ag39
ag40
ag39
ag40
ag41
ag39
ag39
ag41
ag39
ag41
asS'assistance_match_with_ground_truth'
p43
(lp44
I00
aI01
aI01
aI01
aI01
aI01
aI01
aI01
aI00
aI00
aI00
aI01
aI01
aI00
aI01
aI00
aI00
aI01
aI00
aI00
aI00
aI01
aI00
aI01
aI01
aI00
aI00
aI00
aI00
aI00
aI00
aI00
aI00
aI00
aI00
aI01
aI01
aI00
aI01
aI01
aI00
aI00
aI01
aI00
aI00
aI00
aI00
aI00
aI00
aI00
aI00
aI00
aI00
aI01
aI00
aI00
aI00
aI00
aI01
aI00
aI00
aI01
aI00
aI01
aI00
aI01
aI00
aI00
aI01
aI00
aI00
aI00
aI01
aI00
aI00
aI00
aI00
aI00
aI00
aI01
aI00
aI00
aI01
aI01
aI00
aI00
aI00
aI01
aI00
aI01
aI01
aI00
aI00
aI01
aI01
aI00
aI01
aI00
aI00
aI00
aI00
aI01
aI00
aI01
aI01
aI00
aI00
aI00
aI01
aI01
aI00
aI00
aI00
aI00
aI00
aI01
aI00
aI00
aI01
aI00
aI01
aI01
asS'total_steps'
p45
I122
sS'sp'
p46
(lp47
(S'p0'
p48
I0
S'x'
p49
tp50
a(g48
I0
S'y'
p51
tp52
a(S'p1'
p53
I0
g51
tp54
a(g53
I0
g49
tp55
a(S'p2'
p56
I0
g49
tp57
a(g56
I0
g51
tp58
a(S'p3'
p59
I0
g51
tp60
a(g59
I0
S't'
p61
tp62
a(g59
I0
g51
tp63
a(g59
I0
g51
tp64
ag64
ag62
a(g59
F1.5707963267948966
g61
tp65
a(g59
F1.5707963267948966
g51
tp66
a(g59
F1.5707963267948966
g49
tp67
a(g59
F1.5707963267948966
g61
tp68
a(g59
F1.5707963267948966
g61
tp69
a(g59
F1.5707963267948966
g49
tp70
ag68
a(g59
I0
g61
tp71
ag63
ag62
a(g59
I0
g49
tp72
a(g59
I0
g61
tp73
ag65
ag66
a(g59
F1.5707963267948966
g61
tp74
ag71
a(g59
I0
g61
tp75
ag75
ag63
ag64
ag64
ag64
ag64
ag62
ag65
ag71
ag65
ag70
a(g56
F1.5707963267948966
g49
tp76
a(g56
F1.5707963267948966
g49
tp77
a(g56
F1.5707963267948966
g51
tp78
a(g53
F1.5707963267948966
g51
tp79
a(g53
F1.5707963267948966
g51
tp80
a(g53
F1.5707963267948966
g61
tp81
a(g53
F1.5707963267948966
g61
tp82
ag82
a(g53
F1.5707963267948966
g61
tp83
ag83
a(g53
F1.5707963267948966
g51
tp84
a(g53
F1.5707963267948966
g51
tp85
ag81
a(g53
F1.5707963267948966
g49
tp86
a(g53
F1.5707963267948966
g61
tp87
ag82
ag83
ag84
a(g53
F1.5707963267948966
g49
tp88
a(g48
F1.5707963267948966
g49
tp89
a(g48
F1.5707963267948966
g49
tp90
a(g48
F1.5707963267948966
g51
tp91
a(g48
F1.5707963267948966
g49
tp92
ag91
a(g48
F1.5707963267948966
g61
tp93
a(g48
F1.5707963267948966
g51
tp94
ag92
ag90
ag91
a(g48
F1.5707963267948966
g51
tp95
ag93
a(g48
F1.5707963267948966
g61
tp96
ag94
ag95
ag95
ag95
ag92
a(g48
F1.5707963267948966
g49
tp97
ag97
ag91
ag95
ag95
a(g53
F1.5707963267948966
g51
tp98
ag88
ag89
ag97
ag90
ag91
ag95
ag98
ag88
ag89
ag90
ag91
ag98
ag80
ag88
ag87
ag83
ag84
ag85
ag88
ag87
ag86
a(g56
F1.5707963267948966
g49
tp99
ag77
ag77
a(g56
F1.5707963267948966
g61
tp100
a(g56
F1.5707963267948966
g51
tp101
a(g59
F1.5707963267948966
g51
tp102
a(g59
F1.5707963267948966
g51
tp103
ag103
ag74
ag66
ag74
ag70
a(g59
F1.5707963267948966
g51
tp104
ag103
ag67
ag104
ag67
a(S'p4'
p105
F1.5707963267948966
g49
tp106
asS's'
p107
(lp108
(g48
I0
g22
tp109
ag50
ag52
ag54
ag55
ag57
ag58
ag60
ag62
ag63
ag64
ag64
ag62
ag65
ag66
ag67
ag68
ag69
ag70
ag68
ag71
ag63
ag62
ag72
ag73
ag65
ag66
ag74
ag71
ag75
ag75
ag63
ag64
ag64
ag64
ag64
ag62
ag65
ag71
ag65
ag70
ag76
ag77
ag78
ag79
ag80
ag81
ag82
ag82
ag83
ag83
ag84
ag85
ag81
ag86
ag87
ag82
ag83
ag84
ag88
ag89
ag90
ag91
ag92
ag91
ag93
ag94
ag92
ag90
ag91
ag95
ag93
ag96
ag94
ag95
ag95
ag95
ag92
ag97
ag97
ag91
ag95
ag95
ag98
ag88
ag89
ag97
ag90
ag91
ag95
ag98
ag88
ag89
ag90
ag91
ag98
ag80
ag88
ag87
ag83
ag84
ag85
ag88
ag87
ag86
ag99
ag77
ag77
ag100
ag101
ag102
ag103
ag103
ag74
ag66
ag74
ag70
ag104
ag103
ag67
ag104
ag67
asS'ui'
p110
(lp111
S'hs'
p112
aS'hp'
p113
aS'ss'
p114
ag112
ag114
ag113
ag114
ag113
ag113
ag46
ag46
ag113
ag46
ag113
ag112
ag114
ag46
ag113
ag112
ag46
ag113
ag113
ag113
ag112
ag46
ag113
ag114
ag113
ag113
ag113
ag114
ag46
ag113
ag46
ag46
ag113
ag46
ag113
ag46
ag113
ag46
ag46
ag112
ag46
ag46
ag112
ag114
ag113
ag113
ag46
ag113
ag114
ag112
ag113
ag114
ag113
ag46
ag113
ag112
ag46
ag113
ag113
ag112
ag113
ag114
ag112
ag114
ag113
ag113
ag46
ag114
ag113
ag112
ag46
ag46
ag46
ag112
ag46
ag46
ag113
ag46
ag46
ag114
ag112
ag46
ag113
ag114
ag113
ag46
ag114
ag112
ag114
ag113
ag114
ag114
ag46
ag112
ag114
ag46
ag112
ag114
ag112
ag113
ag113
ag113
ag46
ag46
ag114
ag112
ag114
ag114
ag112
ag114
ag113
ag114
ag113
ag113
ag112
ag112
ag114
ag112
ag114
asS'um_before'
p115
(lp116
g113
ag113
ag114
ag112
ag114
ag113
ag114
ag113
ag112
ag46
ag46
ag113
ag46
ag112
ag112
ag112
ag46
ag113
ag112
ag114
ag112
ag113
ag113
ag112
ag46
ag112
ag113
ag114
ag114
ag114
ag112
ag46
ag46
ag46
ag46
ag113
ag46
ag114
ag46
ag113
ag46
ag46
ag113
ag46
ag46
ag113
ag114
ag114
ag46
ag46
ag112
ag114
ag113
ag113
ag112
ag114
ag46
ag112
ag112
ag46
ag114
ag113
ag112
ag113
ag113
ag112
ag112
ag114
ag113
ag46
ag113
ag114
ag112
ag46
ag46
ag46
ag112
ag46
ag46
ag113
ag46
ag46
ag114
ag112
ag46
ag46
ag114
ag113
ag46
ag114
ag112
ag46
ag114
ag113
ag114
ag46
ag112
ag112
ag46
ag112
ag114
ag112
ag112
ag113
ag114
ag46
ag46
ag112
ag112
ag114
ag114
ag114
ag113
ag112
ag113
ag113
ag113
ag114
ag112
ag113
ag112
ag114
asS'um_after'
p117
(lp118
g113
ag113
ag114
ag112
ag114
ag113
ag114
ag113
ag112
ag46
ag46
ag113
ag46
ag112
ag112
ag112
ag46
ag113
ag112
ag114
ag112
ag113
ag113
ag112
ag46
ag112
ag113
ag114
ag114
ag114
ag112
ag46
ag46
ag46
ag46
ag113
ag46
ag114
ag46
ag113
ag46
ag46
ag113
ag46
ag46
ag113
ag114
ag114
ag46
ag46
ag112
ag114
ag113
ag113
ag112
ag114
ag46
ag112
ag112
ag46
ag114
ag113
ag112
ag113
ag113
ag112
ag112
ag114
ag113
ag46
ag113
ag114
ag112
ag46
ag46
ag46
ag112
ag46
ag46
ag113
ag46
ag46
ag114
ag112
ag46
ag46
ag114
ag113
ag46
ag114
ag112
ag46
ag114
ag113
ag114
ag46
ag112
ag112
ag46
ag112
ag114
ag112
ag112
ag113
ag114
ag46
ag46
ag112
ag112
ag114
ag114
ag114
ag113
ag112
ag113
ag113
ag113
ag114
ag112
ag113
ag112
ag114
asaa(lp119
S'index'
p120
aI86141
aatp121
Rp122
.