ccollections
OrderedDict
p0
((lp1
(lp2
S'combination_dict'
p3
ag0
((lp4
(lp5
S'r_to_g_config'
p6
aS'br'
p7
aa(lp8
S'num_turns'
p9
aI2
aa(lp10
S'start_direction'
p11
acutils_ms
StartDirection
p12
(I1
tp13
Rp14
aa(lp15
S'assistance_type'
p16
acutils_ms
AssistanceType
p17
(I1
tp18
Rp19
aa(lp20
S'start_mode'
p21
aS'x'
p22
aa(lp23
S'ui_given_a_noise'
p24
aF0.7
aa(lp25
S'um_given_ui_noise'
p26
aF0.1
aa(lp27
S'entropy_threshold'
p28
aF0.6
aatp29
Rp30
aa(lp31
S'data'
p32
accollections
defaultdict
p33
(c__builtin__
list
p34
tp35
Rp36
S'a'
p37
(lp38
S'mode_r'
p39
aS'mode_l'
p40
aS'move_n'
p41
ag39
ag39
aS'move_p'
p42
ag39
ag42
ag42
ag40
ag42
ag39
ag42
ag40
ag42
ag40
ag39
ag40
ag42
ag40
ag42
ag39
ag41
ag40
ag39
ag40
ag40
ag42
ag39
ag42
ag40
ag40
ag39
ag42
ag39
ag39
ag39
ag41
ag41
ag39
ag39
ag39
ag40
ag40
ag39
ag41
ag40
ag42
ag40
ag39
ag40
ag40
ag42
ag40
ag42
ag39
ag39
ag41
ag40
ag39
ag41
ag40
ag40
ag42
ag39
ag39
ag42
ag39
ag39
ag40
ag41
asS'assistance_match_with_ground_truth'
p43
(lp44
I00
aI01
aI01
aI00
aI01
aI01
aI00
aI00
aI00
aI01
aI01
aI01
aI00
aI01
aI00
aI00
aI00
aI01
aI00
aI01
aI01
aI01
aI00
aI00
aI00
aI00
aI01
aI00
aI01
aI00
aI00
aI00
aI01
aI00
aI00
aI00
aI01
aI00
aI00
aI00
aI00
aI00
aI00
aI00
aI01
aI01
aI01
aI00
aI00
aI00
aI00
aI01
aI00
aI01
aI00
aI00
aI01
aI00
aI00
aI01
aI01
aI00
aI01
aI00
aI00
aI01
aI01
aI00
aI00
aI01
aI01
asS'total_steps'
p45
I71
sS'sp'
p46
(lp47
(S'p0'
p48
I0
S't'
p49
tp50
a(g48
I0
S'y'
p51
tp52
a(S'p1'
p53
I0
g51
tp54
a(g53
I0
g51
tp55
a(g53
I0
g49
tp56
a(g53
F1.5707963267948966
g49
tp57
a(g53
I0
g49
tp58
a(g53
I0
g49
tp59
a(g53
I0
S'x'
p60
tp61
a(g53
I0
g49
tp62
ag57
a(g53
F1.5707963267948966
g60
tp63
a(g53
F1.5707963267948966
g51
tp64
a(g53
F1.5707963267948966
g60
tp65
ag64
a(g53
F1.5707963267948966
g49
tp66
a(g53
F1.5707963267948966
g51
tp67
ag65
ag64
ag65
a(S'p2'
p68
F1.5707963267948966
g60
tp69
a(g68
F1.5707963267948966
g51
tp70
a(g53
F1.5707963267948966
g51
tp71
ag66
ag67
a(g53
F1.5707963267948966
g51
tp72
ag65
a(g53
F1.5707963267948966
g49
tp73
ag63
ag64
a(g53
F1.5707963267948966
g51
tp74
ag66
ag63
a(g48
F1.5707963267948966
g60
tp75
a(g48
F1.5707963267948966
g60
tp76
ag76
a(g48
F1.5707963267948966
g51
tp77
a(g48
F1.5707963267948966
g51
tp78
a(g48
F1.5707963267948966
g60
tp79
ag76
ag76
a(g48
F1.5707963267948966
g49
tp80
a(g48
F1.5707963267948966
g49
tp81
a(g48
F1.5707963267948966
g60
tp82
ag77
a(g53
F1.5707963267948966
g51
tp83
ag65
ag64
ag66
ag67
ag74
ag65
ag64
ag65
ag75
a(g48
F1.5707963267948966
g60
tp84
ag77
a(g48
F1.5707963267948966
g49
tp85
ag82
ag77
ag83
ag74
ag65
ag73
a(g53
F1.5707963267948966
g49
tp86
ag63
ag69
a(g68
F1.5707963267948966
g60
tp87
a(g68
F1.5707963267948966
g49
tp88
a(g68
F1.5707963267948966
g51
tp89
a(S'p3'
p90
F1.5707963267948966
g51
tp91
asS's'
p92
(lp93
(g48
I0
g22
tp94
ag50
ag52
ag54
ag55
ag56
ag57
ag58
ag59
ag61
ag62
ag57
ag63
ag64
ag65
ag64
ag66
ag67
ag65
ag64
ag65
ag69
ag70
ag71
ag66
ag67
ag72
ag65
ag73
ag63
ag64
ag74
ag66
ag63
ag75
ag76
ag76
ag77
ag78
ag79
ag76
ag76
ag80
ag81
ag82
ag77
ag83
ag65
ag64
ag66
ag67
ag74
ag65
ag64
ag65
ag75
ag84
ag77
ag85
ag82
ag77
ag83
ag74
ag65
ag73
ag86
ag63
ag69
ag87
ag88
ag89
asS'ui'
p95
(lp96
S'hs'
p97
ag97
aS'ss'
p98
ag98
aS'hp'
p99
ag46
ag97
ag98
ag99
ag97
ag46
ag99
ag99
ag97
ag99
ag99
ag97
ag97
ag99
ag97
ag46
ag99
ag46
ag97
ag97
ag98
ag97
ag97
ag99
ag99
ag46
ag99
ag99
ag98
ag46
ag46
ag99
ag46
ag97
ag46
ag46
ag46
ag46
ag99
ag99
ag98
ag97
ag99
ag99
ag97
ag46
ag97
ag99
ag97
ag98
ag46
ag99
ag46
ag99
ag99
ag99
ag46
ag97
ag46
ag97
ag99
ag46
ag98
ag97
ag97
ag98
asS'um_before'
p100
(lp101
g97
ag97
ag98
ag98
ag99
ag46
ag98
ag98
ag99
ag97
ag46
ag99
ag99
ag97
ag99
ag99
ag97
ag97
ag99
ag97
ag46
ag99
ag46
ag99
ag97
ag98
ag97
ag97
ag99
ag99
ag46
ag99
ag99
ag98
ag46
ag46
ag99
ag46
ag97
ag46
ag46
ag97
ag46
ag99
ag99
ag98
ag97
ag99
ag99
ag97
ag46
ag97
ag99
ag97
ag98
ag98
ag99
ag99
ag99
ag99
ag98
ag46
ag97
ag97
ag46
ag99
ag46
ag98
ag97
ag97
ag98
asS'um_after'
p102
(lp103
g97
ag97
ag98
ag98
ag99
ag46
ag98
ag98
ag99
ag97
ag46
ag99
ag99
ag97
ag99
ag99
ag97
ag97
ag99
ag97
ag46
ag99
ag46
ag99
ag97
ag98
ag97
ag97
ag99
ag99
ag46
ag99
ag99
ag98
ag46
ag46
ag99
ag46
ag97
ag46
ag46
ag97
ag46
ag99
ag99
ag98
ag97
ag99
ag99
ag97
ag46
ag97
ag99
ag97
ag98
ag98
ag99
ag99
ag99
ag99
ag98
ag46
ag97
ag97
ag46
ag99
ag46
ag98
ag97
ag97
ag98
asaa(lp104
S'index'
p105
aI103011
aatp106
Rp107
.