ccollections
OrderedDict
p0
((lp1
(lp2
S'combination_dict'
p3
ag0
((lp4
(lp5
S'r_to_g_config'
p6
aS'bl'
p7
aa(lp8
S'num_turns'
p9
aI3
aa(lp10
S'start_direction'
p11
acutils_ms
StartDirection
p12
(I0
tp13
Rp14
aa(lp15
S'assistance_type'
p16
acutils_ms
AssistanceType
p17
(I0
tp18
Rp19
aa(lp20
S'start_mode'
p21
aS't'
p22
aa(lp23
S'ui_given_a_noise'
p24
aF0.5
aa(lp25
S'um_given_ui_noise'
p26
aF0.7
aa(lp27
S'entropy_threshold'
p28
aF0.5
aatp29
Rp30
aa(lp31
S'data'
p32
accollections
defaultdict
p33
(c__builtin__
list
p34
tp35
Rp36
S'a'
p37
(lp38
S'mode_r'
p39
aS'mode_l'
p40
aS'move_n'
p41
ag40
ag40
ag40
ag39
ag41
ag41
ag41
ag41
ag41
ag39
ag39
ag39
ag40
ag40
ag41
ag40
ag39
ag41
ag40
ag40
ag39
ag39
ag39
ag41
ag40
ag40
ag40
ag39
ag40
aS'move_p'
p42
ag40
ag40
ag42
ag40
ag40
ag41
ag40
ag41
ag39
ag39
ag40
ag39
ag40
ag40
ag40
ag40
ag40
ag41
ag39
ag39
ag40
ag41
ag39
ag40
ag41
ag40
ag40
ag40
ag39
ag40
ag39
ag39
ag41
ag39
ag39
ag40
ag41
ag39
ag41
asS'assistance_match_with_ground_truth'
p43
(lp44
I00
aI01
aI00
aI00
aI00
aI00
aI01
aI00
aI00
aI00
aI00
aI01
aI00
aI00
aI00
aI00
aI01
aI01
aI00
aI01
aI00
aI00
aI00
aI00
aI00
aI01
aI01
aI00
aI00
aI00
aI00
aI01
aI01
aI00
aI00
aI01
aI00
aI01
aI00
aI01
aI01
aI00
aI00
aI00
aI00
aI00
aI00
aI00
aI00
aI01
aI00
aI00
aI00
aI01
aI00
aI00
aI01
aI00
aI00
aI00
aI00
aI00
aI00
aI00
aI01
aI00
aI00
aI00
aI01
aI01
aI01
aI01
asS'total_steps'
p45
I72
sS'sp'
p46
(lp47
(S'p0'
p48
I0
S'y'
p49
tp50
a(g48
I0
S'x'
p51
tp52
a(g48
I0
g49
tp53
a(g48
I0
g49
tp54
ag54
a(g48
I0
S't'
p55
tp56
a(g48
I0
g51
tp57
a(g48
I0
g51
tp58
ag58
ag58
ag58
a(S'p1'
p59
I0
g51
tp60
a(g59
I0
g51
tp61
a(g59
I0
g51
tp62
a(g59
I0
g55
tp63
a(g59
I0
g55
tp64
a(g59
I0
g49
tp65
a(S'p2'
p66
I0
g49
tp67
a(g66
I0
g55
tp68
a(g66
I0
g51
tp69
a(g66
I0
g49
tp70
a(g66
I0
g49
tp71
ag68
a(g66
I0
g55
tp72
a(g66
I0
g55
tp73
ag69
a(S'p3'
p74
I0
g51
tp75
a(g74
I0
g51
tp76
a(g74
I0
g51
tp77
a(g74
I0
g49
tp78
a(g74
I0
g51
tp79
a(g74
I0
g55
tp80
a(g74
F1.5707963267948966
g55
tp81
a(g74
F1.5707963267948966
g55
tp82
a(g74
I0
g55
tp83
ag81
ag82
a(g74
F1.5707963267948966
g49
tp84
a(g66
F1.5707963267948966
g49
tp85
a(g66
F1.5707963267948966
g51
tp86
a(g74
F1.5707963267948966
g51
tp87
a(g74
F1.5707963267948966
g51
tp88
a(g74
F1.5707963267948966
g55
tp89
a(g74
F1.5707963267948966
g51
tp90
ag89
ag82
ag82
ag82
ag82
ag84
a(g74
F1.5707963267948966
g51
tp91
a(g74
F1.5707963267948966
g51
tp92
ag89
ag84
ag91
ag89
ag84
ag85
a(g66
F1.5707963267948966
g49
tp93
ag93
a(g66
F1.5707963267948966
g55
tp94
a(g66
F1.5707963267948966
g49
tp95
ag94
a(g66
F1.5707963267948966
g55
tp96
a(g66
F1.5707963267948966
g51
tp97
a(g66
F1.5707963267948966
g55
tp98
ag96
ag95
ag86
ag87
a(g74
F1.5707963267948966
g49
tp99
a(S'p4'
p100
F1.5707963267948966
g49
tp101
asS's'
p102
(lp103
(g48
I0
g22
tp104
ag50
ag52
ag53
ag54
ag54
ag56
ag57
ag58
ag58
ag58
ag58
ag60
ag61
ag62
ag63
ag64
ag65
ag67
ag68
ag69
ag70
ag71
ag68
ag72
ag73
ag69
ag75
ag76
ag77
ag78
ag79
ag80
ag81
ag82
ag83
ag81
ag82
ag84
ag85
ag86
ag87
ag88
ag89
ag90
ag89
ag82
ag82
ag82
ag82
ag84
ag91
ag92
ag89
ag84
ag91
ag89
ag84
ag85
ag93
ag93
ag94
ag95
ag94
ag96
ag97
ag98
ag96
ag95
ag86
ag87
ag99
asS'ui'
p105
(lp106
S'hp'
p107
aS'hs'
p108
ag108
ag108
ag108
ag108
ag107
ag46
aS'ss'
p109
ag46
ag109
ag109
ag46
ag109
ag108
ag108
ag108
ag109
ag108
ag107
ag109
ag108
ag108
ag108
ag108
ag107
ag109
ag108
ag108
ag108
ag107
ag108
ag107
ag109
ag109
ag46
ag109
ag108
ag109
ag107
ag109
ag46
ag107
ag107
ag107
ag109
ag46
ag109
ag108
ag108
ag108
ag46
ag109
ag108
ag109
ag107
ag108
ag109
ag108
ag108
ag108
ag107
ag107
ag107
ag107
ag108
ag46
ag107
ag108
ag109
ag107
ag109
asS'um_before'
p110
(lp111
g108
ag108
ag107
ag46
ag46
ag107
ag107
ag46
ag46
ag46
ag46
ag109
ag109
ag46
ag108
ag46
ag108
ag109
ag107
ag107
ag107
ag46
ag107
ag109
ag46
ag107
ag109
ag109
ag46
ag107
ag108
ag108
ag46
ag46
ag109
ag46
ag46
ag108
ag46
ag108
ag109
ag46
ag108
ag107
ag108
ag46
ag46
ag46
ag46
ag108
ag108
ag109
ag108
ag108
ag108
ag108
ag108
ag46
ag109
ag109
ag107
ag108
ag107
ag46
ag107
ag108
ag46
ag108
ag108
ag109
ag107
ag109
asS'um_after'
p112
(lp113
g108
ag108
ag107
ag46
ag46
ag107
ag107
ag46
ag46
ag46
ag46
ag109
ag109
ag46
ag108
ag46
ag108
ag109
ag107
ag107
ag107
ag46
ag107
ag109
ag46
ag107
ag109
ag109
ag46
ag107
ag108
ag108
ag46
ag46
ag109
ag46
ag46
ag108
ag46
ag108
ag109
ag46
ag108
ag107
ag108
ag46
ag46
ag46
ag46
ag108
ag108
ag109
ag108
ag108
ag108
ag108
ag108
ag46
ag109
ag109
ag107
ag108
ag107
ag46
ag107
ag108
ag46
ag108
ag108
ag109
ag107
ag109
asaa(lp114
S'index'
p115
aI77354
aatp116
Rp117
.