ccollections
OrderedDict
p0
((lp1
(lp2
S'combination_dict'
p3
ag0
((lp4
(lp5
S'r_to_g_config'
p6
aS'tr'
p7
aa(lp8
S'num_turns'
p9
aI2
aa(lp10
S'start_direction'
p11
acutils_ms
StartDirection
p12
(I1
tp13
Rp14
aa(lp15
S'assistance_type'
p16
acutils_ms
AssistanceType
p17
(I2
tp18
Rp19
aa(lp20
S'start_mode'
p21
aS'x'
p22
aa(lp23
S'ui_given_a_noise'
p24
aF0.3
aa(lp25
S'um_given_ui_noise'
p26
aF0.3
aa(lp27
S'entropy_threshold'
p28
aF0.6
aatp29
Rp30
aa(lp31
S'data'
p32
accollections
defaultdict
p33
(c__builtin__
list
p34
tp35
Rp36
S'a'
p37
(lp38
S'mode_r'
p39
ag39
aS'move_p'
p40
ag39
ag40
ag39
aS'mode_l'
p41
ag39
ag39
ag39
ag40
asS'assistance_match_with_ground_truth'
p42
(lp43
I00
aI01
aI00
aI01
aI01
aI00
aI00
aI00
aI00
aI01
aI01
asS'total_steps'
p44
I11
sS'sp'
p45
(lp46
(S'p0'
p47
I0
S'x'
p48
tp49
a(g47
I0
S'y'
p50
tp51
a(g47
I0
g48
tp52
ag51
a(S'p1'
p53
I0
g50
tp54
a(g53
I0
g48
tp55
a(S'p2'
p56
I0
g48
tp57
a(g56
I0
g48
tp58
a(g56
I0
g48
tp59
a(g56
I0
g50
tp60
a(S'p3'
p61
I0
g50
tp62
asS's'
p63
(lp64
(g47
I0
g22
tp65
ag49
ag51
ag52
ag51
ag54
ag55
ag57
ag58
ag59
ag60
asS'ui'
p66
(lp67
S'hp'
p68
ag68
ag45
ag68
ag45
aS'hs'
p69
ag69
ag45
ag45
ag68
ag45
asS'um_before'
p70
(lp71
g45
ag68
ag69
ag68
ag45
ag69
ag45
aS'ss'
p72
ag45
ag68
ag45
asS'um_after'
p73
(lp74
g45
ag68
ag69
ag68
ag45
ag69
ag45
ag72
ag45
ag68
ag45
asaa(lp75
S'index'
p76
aI17865
aatp77
Rp78
.