ccollections
OrderedDict
p0
((lp1
(lp2
S'index'
p3
aI7703
aa(lp4
S'combination_dict'
p5
ag0
((lp6
(lp7
S'r_to_g_config'
p8
aS'bl'
p9
aa(lp10
S'num_turns'
p11
aI1
aa(lp12
S'start_direction'
p13
acutils_ms
StartDirection
p14
(I3
tp15
Rp16
aa(lp17
S'assistance_type'
p18
acutils_ms
AssistanceType
p19
(I0
tp20
Rp21
aa(lp22
S'start_mode'
p23
aS't'
p24
aa(lp25
S'ui_given_a_noise'
p26
aF0.1
aa(lp27
S'um_given_ui_noise'
p28
aF0.5
aa(lp29
S'entropy_threshold'
p30
aF0.6
aa(lp31
S'is_assistance'
p32
aI00
aatp33
Rp34
aa(lp35
S'trials'
p36
ag0
((lp37
(lp38
I0
accollections
defaultdict
p39
(c__builtin__
list
p40
tp41
Rp42
S'a'
p43
(lp44
S'mode_r'
p45
aS'mode_l'
p46
ag45
aS'move_n'
p47
ag46
aS'move_p'
p48
ag46
ag45
ag45
ag46
ag47
ag45
ag46
ag47
asS'assistance_match_with_ground_truth'
p49
(lp50
I00
aI00
aI01
aI01
aI01
aI01
aI00
aI00
aI00
aI01
aI00
aI00
aI01
aI01
asS'total_steps'
p51
I14
sS'sp'
p52
(S'p2'
p53
F1.5707963267948966
S'y'
p54
tp55
sS's'
p56
(lp57
(S'p0'
p58
I0
g24
tp59
a(g58
I0
g54
tp60
a(g58
I0
S't'
p61
tp62
a(g58
I0
S'x'
p63
tp64
a(S'p1'
p65
I0
g63
tp66
a(g65
I0
g61
tp67
a(g65
F1.5707963267948966
g61
tp68
a(g65
F1.5707963267948966
g63
tp69
a(g65
F1.5707963267948966
g63
tp70
a(g65
F1.5707963267948966
g61
tp71
a(g65
F1.5707963267948966
g54
tp72
a(g65
F1.5707963267948966
g63
tp73
ag71
ag72
asS'ui'
p74
(lp75
S'hp'
p76
aS'hs'
p77
ag76
aS'ss'
p78
ag77
ag52
ag77
ag78
ag76
ag77
ag78
ag76
ag77
ag78
asS'um_before'
p79
(lp80
g77
ag76
ag76
ag78
ag77
ag52
ag76
ag78
ag77
ag77
ag77
ag77
ag77
ag78
asS'um_after'
p81
(lp82
g77
ag76
ag76
ag78
ag77
ag52
ag76
ag78
ag77
ag77
ag77
ag77
ag77
ag78
asaa(lp83
I1
ag39
(g40
tp84
Rp85
g43
(lp86
g45
ag47
ag45
ag45
ag47
ag46
ag48
ag45
ag48
ag46
ag45
ag46
ag47
asg49
(lp87
I01
aI00
aI00
aI01
aI01
aI01
aI00
aI01
aI01
aI00
aI00
aI01
aI01
asg51
I13
sg52
g55
sg56
(lp88
(g58
I0
g24
tp89
ag64
a(g58
I0
g61
tp90
a(g58
I0
g61
tp91
ag64
ag66
ag67
a(g65
I0
g54
tp92
a(g65
I0
g61
tp93
ag68
ag69
ag71
ag72
asg74
(lp94
g76
ag77
ag76
ag76
ag78
ag77
ag52
ag76
ag52
ag77
ag76
ag77
ag78
asg79
(lp95
g76
ag77
ag78
ag76
ag78
ag77
ag77
ag76
ag52
ag76
ag77
ag77
ag78
asg81
(lp96
g76
ag77
ag78
ag76
ag78
ag77
ag77
ag76
ag52
ag76
ag77
ag77
ag78
asaa(lp97
I2
ag39
(g40
tp98
Rp99
g43
(lp100
g45
ag46
ag47
ag47
ag46
ag48
ag46
ag47
ag45
ag47
asg49
(lp101
I00
aI01
aI00
aI01
aI01
aI01
aI01
aI00
aI01
aI01
asg51
I10
sg52
g55
sg56
(lp102
(g58
I0
g24
tp103
ag60
a(g58
I0
g63
tp104
a(g58
I0
g63
tp105
ag66
ag67
ag68
ag72
ag73
a(g65
F1.5707963267948966
g54
tp106
asg74
(lp107
g76
ag77
ag78
ag78
ag77
ag52
ag77
ag77
ag76
ag78
asg79
(lp108
g77
ag77
ag52
ag78
ag77
ag52
ag77
ag77
ag76
ag78
asg81
(lp109
g77
ag77
ag52
ag78
ag77
ag52
ag77
ag77
ag76
ag78
asaa(lp110
I3
ag39
(g40
tp111
Rp112
g43
(lp113
g45
ag47
ag47
ag46
ag46
ag48
ag46
ag46
ag47
ag46
ag47
ag47
ag46
ag46
ag45
ag46
ag46
ag47
ag45
ag46
ag47
asg49
(lp114
I01
aI00
aI01
aI00
aI01
aI01
aI00
aI01
aI00
aI01
aI00
aI00
aI00
aI00
aI00
aI00
aI01
aI01
aI00
aI01
aI01
asg51
I21
sg52
g55
sg56
(lp115
(g58
I0
g24
tp116
ag64
ag105
ag66
a(g65
I0
g63
tp117
ag67
ag68
a(g65
F1.5707963267948966
g61
tp118
ag72
a(g58
F1.5707963267948966
g54
tp119
a(g58
F1.5707963267948966
g63
tp120
a(g58
F1.5707963267948966
g63
tp121
a(g58
F1.5707963267948966
g54
tp122
a(g58
F1.5707963267948966
g54
tp123
a(g58
F1.5707963267948966
g61
tp124
a(g58
F1.5707963267948966
g54
tp125
a(g58
F1.5707963267948966
g54
tp126
ag120
a(g65
F1.5707963267948966
g63
tp127
ag71
ag72
asg74
(lp128
g76
ag78
ag78
ag77
ag77
ag52
ag78
ag77
ag78
ag77
ag78
ag78
ag77
ag77
ag76
ag77
ag77
ag78
ag76
ag77
ag78
asg79
(lp129
g76
ag52
ag78
ag52
ag77
ag52
ag52
ag77
ag52
ag77
ag52
ag76
ag78
ag76
ag77
ag52
ag77
ag78
ag77
ag77
ag78
asg81
(lp130
g76
ag52
ag78
ag52
ag77
ag52
ag52
ag77
ag52
ag77
ag52
ag76
ag78
ag76
ag77
ag52
ag77
ag78
ag77
ag77
ag78
asaa(lp131
I4
ag39
(g40
tp132
Rp133
g43
(lp134
g45
ag47
ag45
ag47
ag46
ag48
ag46
ag48
ag46
ag48
ag48
ag46
ag46
ag48
ag46
ag46
ag48
ag46
ag48
ag46
ag47
asg49
(lp135
I01
aI00
aI01
aI01
aI01
aI01
aI00
aI01
aI00
aI00
aI00
aI00
aI01
aI01
aI00
aI00
aI01
aI00
aI01
aI01
aI01
asg51
I21
sg52
g55
sg56
(lp136
(g58
I0
g24
tp137
ag64
ag90
ag64
ag66
ag67
ag68
a(g65
I0
g61
tp138
ag68
ag138
a(g65
I0
g61
tp139
a(g65
I0
g63
tp140
ag117
ag67
ag68
ag118
ag138
ag68
ag138
ag68
ag72
asg74
(lp141
g76
ag78
ag76
ag78
ag77
ag52
ag78
ag52
ag77
ag76
ag76
ag77
ag77
ag52
ag77
ag77
ag52
ag77
ag52
ag77
ag78
asg79
(lp142
g76
ag77
ag76
ag78
ag77
ag52
ag78
ag52
ag78
ag78
ag76
ag52
ag77
ag52
ag52
ag78
ag52
ag78
ag52
ag77
ag78
asg81
(lp143
g76
ag77
ag76
ag78
ag77
ag52
ag78
ag52
ag78
ag78
ag76
ag52
ag77
ag52
ag52
ag78
ag52
ag78
ag52
ag77
ag78
asaa(lp144
I5
ag39
(g40
tp145
Rp146
g43
(lp147
g45
ag47
ag46
ag46
ag48
ag46
ag45
ag46
ag47
asg49
(lp148
I01
aI01
aI00
aI01
aI01
aI00
aI00
aI01
aI01
asg51
I9
sg52
g55
sg56
(lp149
(g58
I0
g24
tp150
ag64
ag66
ag117
ag67
ag68
ag69
ag71
ag72
asg74
(lp151
g76
ag78
ag77
ag77
ag52
ag77
ag76
ag77
ag78
asg79
(lp152
g76
ag78
ag52
ag77
ag52
ag76
ag77
ag77
ag78
asg81
(lp153
g76
ag78
ag52
ag77
ag52
ag76
ag77
ag77
ag78
asaa(lp154
I6
ag39
(g40
tp155
Rp156
g43
(lp157
g45
ag46
ag47
ag46
ag48
ag46
ag47
asg49
(lp158
I00
aI01
aI01
aI01
aI01
aI01
aI01
asg51
I7
sg52
g55
sg56
(lp159
(g58
I0
g24
tp160
ag60
ag104
ag66
ag67
ag68
ag72
asg74
(lp161
g76
ag77
ag78
ag77
ag52
ag77
ag78
asg79
(lp162
g77
ag77
ag78
ag77
ag52
ag77
ag78
asg81
(lp163
g77
ag77
ag78
ag77
ag52
ag77
ag78
asaa(lp164
I7
ag39
(g40
tp165
Rp166
g43
(lp167
g45
ag45
ag47
ag46
ag45
ag48
ag46
ag46
ag47
ag46
ag48
ag46
ag47
ag46
ag45
ag45
ag46
ag47
ag45
ag45
ag46
ag47
asg49
(lp168
I00
aI01
aI01
aI00
aI01
aI01
aI00
aI01
aI00
aI00
aI01
aI01
aI00
aI00
aI00
aI00
aI01
aI00
aI00
aI00
aI01
aI01
asg51
I22
sg52
g55
sg56
(lp169
(g58
I0
g24
tp170
a(g58
I0
g61
tp171
ag64
ag66
a(g65
I0
g54
tp172
ag93
ag68
ag118
ag72
a(g65
F1.5707963267948966
g61
tp173
ag138
ag68
ag72
ag173
ag69
a(g65
F1.5707963267948966
g63
tp174
ag71
ag72
ag73
ag70
ag71
ag72
asg74
(lp175
g76
ag76
ag78
ag77
ag76
ag52
ag77
ag77
ag78
ag78
ag52
ag77
ag78
ag77
ag76
ag76
ag77
ag77
ag77
ag77
ag77
ag78
asg79
(lp176
g52
ag76
ag78
ag76
ag76
ag52
ag52
ag77
ag76
ag78
ag52
ag77
ag76
ag76
ag52
ag77
ag77
ag77
ag78
ag77
ag77
ag78
asg81
(lp177
g52
ag76
ag78
ag76
ag76
ag52
ag52
ag77
ag76
ag78
ag52
ag77
ag76
ag76
ag52
ag77
ag77
ag77
ag78
ag77
ag77
ag78
asaa(lp178
I8
ag39
(g40
tp179
Rp180
g43
(lp181
g45
ag47
ag46
ag46
ag48
ag46
ag47
asg49
(lp182
I01
aI01
aI00
aI01
aI01
aI01
aI01
asg51
I7
sg52
g55
sg56
(lp183
(g58
I0
g24
tp184
ag64
ag66
ag117
ag67
ag68
ag72
asg74
(lp185
g76
ag78
ag52
ag77
ag52
ag77
ag78
asg79
(lp186
g76
ag78
ag52
ag77
ag52
ag77
ag78
asg81
(lp187
g76
ag78
ag52
ag77
ag52
ag77
ag78
asaa(lp188
I9
ag39
(g40
tp189
Rp190
g43
(lp191
g45
ag45
ag47
ag46
ag46
ag45
ag48
ag46
ag46
ag46
ag45
ag47
ag46
ag47
ag46
ag47
ag47
ag46
ag47
ag45
ag45
ag47
ag45
ag47
ag47
ag45
ag45
ag45
ag45
ag47
ag45
ag46
ag47
ag45
ag45
ag46
ag48
ag46
ag47
asg49
(lp192
I00
aI01
aI01
aI00
aI00
aI01
aI01
aI00
aI00
aI00
aI01
aI00
aI01
aI00
aI01
aI00
aI00
aI01
aI00
aI00
aI01
aI00
aI01
aI00
aI00
aI00
aI00
aI00
aI01
aI00
aI00
aI01
aI01
aI00
aI00
aI00
aI01
aI01
aI01
asg51
I39
sg52
g55
sg56
(lp193
(g58
I0
g24
tp194
ag171
ag64
ag66
ag117
ag172
ag93
ag68
ag118
ag118
ag69
ag106
ag119
ag120
ag122
ag120
ag121
ag122
ag120
a(g58
F1.5707963267948966
g61
tp195
a(g58
F1.5707963267948966
g61
tp196
a(g58
F1.5707963267948966
g63
tp197
ag195
ag197
ag121
ag195
ag196
a(g58
F1.5707963267948966
g61
tp198
ag196
ag197
ag195
ag125
ag120
ag127
ag70
ag71
ag138
ag68
ag72
asg74
(lp199
g76
ag76
ag78
ag77
ag77
ag76
ag52
ag77
ag77
ag77
ag76
ag78
ag77
ag78
ag77
ag78
ag78
ag77
ag78
ag76
ag76
ag78
ag76
ag78
ag78
ag76
ag76
ag76
ag76
ag77
ag76
ag77
ag78
ag76
ag76
ag77
ag52
ag77
ag78
asg79
(lp200
g52
ag76
ag78
ag52
ag76
ag76
ag52
ag52
ag52
ag76
ag76
ag52
ag77
ag76
ag77
ag52
ag76
ag77
ag77
ag78
ag76
ag77
ag76
ag52
ag77
ag78
ag52
ag78
ag76
ag77
ag77
ag77
ag78
ag78
ag77
ag78
ag52
ag77
ag78
asg81
(lp201
g52
ag76
ag78
ag52
ag76
ag76
ag52
ag52
ag52
ag76
ag76
ag52
ag77
ag76
ag77
ag52
ag76
ag77
ag77
ag78
ag76
ag77
ag76
ag52
ag77
ag78
ag52
ag78
ag76
ag77
ag77
ag77
ag78
ag78
ag77
ag78
ag52
ag77
ag78
asaatp202
Rp203
aatp204
Rp205
.